
main.o:     file format elf32-msp430


Disassembly of section .text:

00003100 <__init_stack>:
    3100:	31 40 00 31 	mov	#12544,	r1	;#0x3100

00003104 <__low_level_init>:
    3104:	15 42 20 01 	mov	&0x0120,r5	
    3108:	75 f3       	and.b	#-1,	r5	;r3 As==11
    310a:	35 d0 08 5a 	bis	#23048,	r5	;#0x5a08

0000310e <__do_copy_data>:
    310e:	3f 40 02 00 	mov	#2,	r15	;#0x0002
    3112:	0f 93       	tst	r15		
    3114:	07 24       	jz	$+16     	;abs 0x3124
    3116:	82 45 20 01 	mov	r5,	&0x0120	
    311a:	2f 83       	decd	r15		
    311c:	9f 4f 84 48 	mov	18564(r15),4352(r15);0x4884(r15), 0x1100(r15)
    3120:	00 11 
    3122:	f9 23       	jnz	$-12     	;abs 0x3116

00003124 <__do_clear_bss>:
    3124:	3f 40 06 00 	mov	#6,	r15	;#0x0006
    3128:	0f 93       	tst	r15		
    312a:	06 24       	jz	$+14     	;abs 0x3138
    312c:	82 45 20 01 	mov	r5,	&0x0120	
    3130:	1f 83       	dec	r15		
    3132:	cf 43 02 11 	mov.b	#0,	4354(r15);r3 As==00, 0x1102(r15)
    3136:	fa 23       	jnz	$-10     	;abs 0x312c

00003138 <main>:
#include "mma7455.h"
#include "delay.h"
#include "i2c.h"
#include "lcd6100.h"

int main(void){
    3138:	21 82       	sub	#4,	r1	;r2 As==10
    
    char resp, x_axis, y_axis, z_axis;
    
    WDTCTL = WDTPW + WDTHOLD;   // desabilita watchdog
    313a:	b2 40 80 5a 	mov	#23168,	&0x0120	;#0x5a80
    313e:	20 01 
    
    BCSCTL2 = SELM_0 + DIVM_0 + DIVS_0;
    3140:	c2 43 58 00 	mov.b	#0,	&0x0058	;r3 As==00
    DCOCTL = 0x77;      
    3144:	f2 40 77 00 	mov.b	#119,	&0x0056	;#0x0077
    3148:	56 00 
    BCSCTL1 = 0xCF;     
    314a:	f2 40 cf ff 	mov.b	#-49,	&0x0057	;#0xffcf
    314e:	57 00 
    BCSCTL3 = 0xA0;
    3150:	f2 40 a0 ff 	mov.b	#-96,	&0x0053	;#0xffa0
    3154:	53 00 
    
    lcd_init(LCDBackColor);
    3156:	5f 42 00 11 	mov.b	&0x1100,r15	
    315a:	b0 12 24 34 	call	#0x3424	
    
    P2DIR |= 0x08;
    315e:	f2 d2 2a 00 	bis.b	#8,	&0x002a	;r2 As==11
    P2OUT |= 0x08;
    3162:	f2 d2 29 00 	bis.b	#8,	&0x0029	;r2 As==11
    
    i2c_config(0x1C);
    3166:	7f 40 1c 00 	mov.b	#28,	r15	;#0x001c
    316a:	b0 12 ac 3d 	call	#0x3dac	
    resp = i2c_find_device();
    316e:	b0 12 f8 3e 	call	#0x3ef8	
    3172:	c1 4f 00 00 	mov.b	r15,	0(r1)	;0x0000(r1)

    if(resp == 0) 
    3176:	4f 93       	tst.b	r15		
    3178:	67 20       	jnz	$+208    	;abs 0x3248
        printf("Achei"); 
    317a:	30 12 5e 32 	push	#12894		;#0x325e
    317e:	b0 12 70 43 	call	#0x4370	
    3182:	21 53       	incd	r1		
    else 
        printf("Nao achei");  
        
    delayms(2000);
    3184:	3f 40 d0 07 	mov	#2000,	r15	;#0x07d0
    3188:	b0 12 94 32 	call	#0x3294	
    lcd_clear(LCDBackColor);
    318c:	5f 42 00 11 	mov.b	&0x1100,r15	
    3190:	b0 12 10 34 	call	#0x3410	
    
    i2c_write_byte(0x16, 0x05);
    3194:	7e 40 05 00 	mov.b	#5,	r14	;#0x0005
    3198:	7f 40 16 00 	mov.b	#22,	r15	;#0x0016
    319c:	b0 12 3a 3f 	call	#0x3f3a	
    delayms(1);
    31a0:	1f 43       	mov	#1,	r15	;r3 As==01
    31a2:	b0 12 94 32 	call	#0x3294	
    i2c_read_byte(0x16, &resp);
    31a6:	0e 41       	mov	r1,	r14	
    31a8:	7f 40 16 00 	mov.b	#22,	r15	;#0x0016
    31ac:	b0 12 06 41 	call	#0x4106	
    delayms(1);
    31b0:	1f 43       	mov	#1,	r15	;r3 As==01
    31b2:	b0 12 94 32 	call	#0x3294	
    31b6:	09 41       	mov	r1,	r9	
    31b8:	19 53       	inc	r9		
    31ba:	0a 41       	mov	r1,	r10	
    31bc:	2a 53       	incd	r10		
    31be:	0b 41       	mov	r1,	r11	
    31c0:	3b 50 03 00 	add	#3,	r11	;#0x0003
    
    while(1){
        i2c_read_byte(0x06, &x_axis);  
    31c4:	0e 49       	mov	r9,	r14	
    31c6:	7f 40 06 00 	mov.b	#6,	r15	;#0x0006
    31ca:	b0 12 06 41 	call	#0x4106	
        delayms(100);
    31ce:	3f 40 64 00 	mov	#100,	r15	;#0x0064
    31d2:	b0 12 94 32 	call	#0x3294	
        i2c_read_byte(0x07, &y_axis);  
    31d6:	0e 4a       	mov	r10,	r14	
    31d8:	7f 40 07 00 	mov.b	#7,	r15	;#0x0007
    31dc:	b0 12 06 41 	call	#0x4106	
        delayms(100);
    31e0:	3f 40 64 00 	mov	#100,	r15	;#0x0064
    31e4:	b0 12 94 32 	call	#0x3294	
        i2c_read_byte(0x08, &z_axis);  
    31e8:	0e 4b       	mov	r11,	r14	
    31ea:	7f 42       	mov.b	#8,	r15	;r2 As==11
    31ec:	b0 12 06 41 	call	#0x4106	
        delayms(100);
    31f0:	3f 40 64 00 	mov	#100,	r15	;#0x0064
    31f4:	b0 12 94 32 	call	#0x3294	
    
        lcd_goto(0,0);
    31f8:	4e 43       	clr.b	r14		
    31fa:	4f 4e       	mov.b	r14,	r15	
    31fc:	b0 12 18 39 	call	#0x3918	
        printf("X:%4d", x_axis);
    3200:	5f 41 01 00 	mov.b	1(r1),	r15	;0x0001(r1)
    3204:	8f 11       	sxt	r15		
    3206:	0f 12       	push	r15		
    3208:	30 12 6e 32 	push	#12910		;#0x326e
    320c:	b0 12 70 43 	call	#0x4370	
    3210:	21 52       	add	#4,	r1	;r2 As==10
        lcd_goto(8,0);
    3212:	4e 43       	clr.b	r14		
    3214:	7f 42       	mov.b	#8,	r15	;r2 As==11
    3216:	b0 12 18 39 	call	#0x3918	
        printf("Y:%4d", y_axis);
    321a:	5f 41 02 00 	mov.b	2(r1),	r15	;0x0002(r1)
    321e:	8f 11       	sxt	r15		
    3220:	0f 12       	push	r15		
    3222:	30 12 74 32 	push	#12916		;#0x3274
    3226:	b0 12 70 43 	call	#0x4370	
    322a:	21 52       	add	#4,	r1	;r2 As==10
        lcd_goto(0,1);
    322c:	5e 43       	mov.b	#1,	r14	;r3 As==01
    322e:	4f 43       	clr.b	r15		
    3230:	b0 12 18 39 	call	#0x3918	
        printf("Z:%4d", z_axis);
    3234:	5f 41 03 00 	mov.b	3(r1),	r15	;0x0003(r1)
    3238:	8f 11       	sxt	r15		
    323a:	0f 12       	push	r15		
    323c:	30 12 7a 32 	push	#12922		;#0x327a
    3240:	b0 12 70 43 	call	#0x4370	
    3244:	21 52       	add	#4,	r1	;r2 As==10
    3246:	be 3f       	jmp	$-130    	;abs 0x31c4
    resp = i2c_find_device();

    if(resp == 0) 
        printf("Achei"); 
    else 
        printf("Nao achei");  
    3248:	30 12 64 32 	push	#12900		;#0x3264
    324c:	b0 12 70 43 	call	#0x4370	
    3250:	21 53       	incd	r1		
    3252:	98 3f       	jmp	$-206    	;abs 0x3184

00003254 <__stop_progExec__>:
    3254:	32 d0 f0 00 	bis	#240,	r2	;#0x00f0
    3258:	fd 3f       	jmp	$-4      	;abs 0x3254

0000325a <__ctors_end>:
    325a:	30 40 82 48 	br	#0x4882	
    325e:	41 63       	adc.b	r1		
    3260:	68 65       	addc.b	@r5,	r8	
    3262:	69 00 4e 61 	mova	r0,	&0x9614e
    3266:	6f 20       	jnz	$+224    	;abs 0x3346
    3268:	61 63       	addc.b	#2,	r1	;r3 As==10
    326a:	68 65       	addc.b	@r5,	r8	
    326c:	69 00 58 3a 	mova	r0,	&0x93a58
    3270:	25 34       	jge	$+76     	;abs 0x32bc
    3272:	64 00 59 3a 	mova	r0,	&0x43a59
    3276:	25 34       	jge	$+76     	;abs 0x32c2
    3278:	64 00 5a 3a 	mova	r0,	&0x43a5a
    327c:	25 34       	jge	$+76     	;abs 0x32c8
    327e:	64 00 30 41 	mova	r0,	&0x44130

00003280 <delay2us>:
{
  unsigned int tempo = 6;

  do (tempo--);
  while (tempo != 0);
}
    3280:	30 41       	ret			

00003282 <delay5us>:
{
  unsigned int tempo = 17;

  do (tempo--);
  while (tempo != 0);
}
    3282:	30 41       	ret			

00003284 <delayus>:
//
void delayus(unsigned int tempo)
{
  int i;
    
  for(i = 0; i < tempo; i++) nop();
    3284:	0f 93       	tst	r15		
    3286:	05 24       	jz	$+12     	;abs 0x3292
    3288:	0e 43       	clr	r14		
    328a:	03 43       	nop			
    328c:	1e 53       	inc	r14		
    328e:	0e 9f       	cmp	r15,	r14	
    3290:	fc 2b       	jnc	$-6      	;abs 0x328a
    3292:	30 41       	ret			

00003294 <delayms>:
}

// Aproximadamente 1ms...
//
void delayms(unsigned int tempo)
{
    3294:	0b 12       	push	r11		
    3296:	0a 12       	push	r10		
    3298:	0a 4f       	mov	r15,	r10	
  int i;
    
  for(i = 0; i < tempo; i++) delayus(3420);
    329a:	0f 93       	tst	r15		
    329c:	08 24       	jz	$+18     	;abs 0x32ae
    329e:	0b 43       	clr	r11		
    32a0:	3f 40 5c 0d 	mov	#3420,	r15	;#0x0d5c
    32a4:	b0 12 84 32 	call	#0x3284	
    32a8:	1b 53       	inc	r11		
    32aa:	0b 9a       	cmp	r10,	r11	
    32ac:	f9 2b       	jnc	$-12     	;abs 0x32a0
}
    32ae:	3a 41       	pop	r10		
    32b0:	3b 41       	pop	r11		
    32b2:	30 41       	ret			

000032b4 <set_delay>:

void set_delay(DELAY_INDEX index, unsigned int time){
    TimeDelay[index]=time;
    32b4:	0f 5f       	rla	r15		
    32b6:	8f 4e 08 11 	mov	r14,	4360(r15);0x1108(r15)
}
    32ba:	30 41       	ret			

000032bc <get_delay>:

unsigned char get_delay(DELAY_INDEX index){
    if(TimeDelay[index] == 0){
    32bc:	0e 4f       	mov	r15,	r14	
    32be:	0e 5e       	rla	r14		
        return 1;
    32c0:	5f 43       	mov.b	#1,	r15	;r3 As==01
    32c2:	8e 93 08 11 	tst	4360(r14)	;0x1108(r14)
    32c6:	01 24       	jz	$+4      	;abs 0x32ca
    32c8:	4f 43       	clr.b	r15		
    }
    return 0;
}
    32ca:	30 41       	ret			

000032cc <lcd_setcolor>:
    return 0;
}
                         
void lcd_setcolor(unsigned char foreground_color, unsigned char background_color)
{
    LCDBackColor = background_color;
    32cc:	c2 4e 00 11 	mov.b	r14,	&0x1100	
    LCDForeColor = foreground_color;
    32d0:	c2 4f 06 11 	mov.b	r15,	&0x1106	
}
    32d4:	30 41       	ret			

000032d6 <n6100_send>:
    cmd = 1 writedata without stop
    cmd = 2 writecommand with stop
    cmd = 3 writecommand without stop
*/
void n6100_send(unsigned char data, unsigned char cmd)
{
    32d6:	0b 12       	push	r11		
    unsigned char mask = 0x80;
    unsigned char i;
    
    if(cmd > 1){ 
    32d8:	6e 93       	cmp.b	#2,	r14	;r3 As==10
    32da:	2d 28       	jnc	$+92     	;abs 0x3336
        P5OUT &= ~SDA; // comando
    32dc:	f2 f0 fd ff 	and.b	#-3,	&0x0031	;#0xfffd
    32e0:	31 00 
    }
    else{
        P5OUT |= SDA; // dado
    }
    
    P5OUT &= ~CSX;
    32e2:	f2 f0 fe ff 	and.b	#-2,	&0x0031	;#0xfffe
    32e6:	31 00 
    P5OUT |= SCLK;
    32e8:	f2 d2 31 00 	bis.b	#8,	&0x0031	;r2 As==11
    P5OUT &= ~SCLK;
    32ec:	f2 f0 f7 ff 	and.b	#-9,	&0x0031	;#0xfff7
    32f0:	31 00 
    32f2:	7d 42       	mov.b	#8,	r13	;r2 As==11
    cmd = 2 writecommand with stop
    cmd = 3 writecommand without stop
*/
void n6100_send(unsigned char data, unsigned char cmd)
{
    unsigned char mask = 0x80;
    32f4:	7c 40 80 ff 	mov.b	#-128,	r12	;#0xff80
    32f8:	0b 3c       	jmp	$+24     	;abs 0x3310
    P5OUT |= SCLK;
    P5OUT &= ~SCLK;
    
    for (i=0; i<8; i++){
        if(data & mask){
            P5OUT |= SDA; 
    32fa:	e2 d3 31 00 	bis.b	#2,	&0x0031	;r3 As==10
        }
        else{
            P5OUT &= ~SDA;
        }
        P5OUT |= SCLK;
    32fe:	f2 d2 31 00 	bis.b	#8,	&0x0031	;r2 As==11
        P5OUT &= ~SCLK;
    3302:	f2 f0 f7 ff 	and.b	#-9,	&0x0031	;#0xfff7
    3306:	31 00 
    3308:	7d 53       	add.b	#-1,	r13	;r3 As==11
    
    P5OUT &= ~CSX;
    P5OUT |= SCLK;
    P5OUT &= ~SCLK;
    
    for (i=0; i<8; i++){
    330a:	09 24       	jz	$+20     	;abs 0x331e
        else{
            P5OUT &= ~SDA;
        }
        P5OUT |= SCLK;
        P5OUT &= ~SCLK;
        mask >>= 1;
    330c:	12 c3       	clrc			
    330e:	4c 10       	rrc.b	r12		
    P5OUT &= ~CSX;
    P5OUT |= SCLK;
    P5OUT &= ~SCLK;
    
    for (i=0; i<8; i++){
        if(data & mask){
    3310:	4b 4c       	mov.b	r12,	r11	
    3312:	4b ff       	and.b	r15,	r11	
    3314:	f2 23       	jnz	$-26     	;abs 0x32fa
            P5OUT |= SDA; 
        }
        else{
            P5OUT &= ~SDA;
    3316:	f2 f0 fd ff 	and.b	#-3,	&0x0031	;#0xfffd
    331a:	31 00 
    331c:	f0 3f       	jmp	$-30     	;abs 0x32fe
        P5OUT |= SCLK;
        P5OUT &= ~SCLK;
        mask >>= 1;
    }
    
    if(cmd == 1 || cmd == 3)
    331e:	5e 93       	cmp.b	#1,	r14	;r3 As==01
    3320:	08 24       	jz	$+18     	;abs 0x3332
    3322:	7e 90 03 00 	cmp.b	#3,	r14	;#0x0003
    3326:	05 24       	jz	$+12     	;abs 0x3332
        return;
        
    P5OUT &= ~SDA;
    3328:	f2 f0 fd ff 	and.b	#-3,	&0x0031	;#0xfffd
    332c:	31 00 
    P5OUT |= CSX;
    332e:	d2 d3 31 00 	bis.b	#1,	&0x0031	;r3 As==01
}
    3332:	3b 41       	pop	r11		
    3334:	30 41       	ret			
    
    if(cmd > 1){ 
        P5OUT &= ~SDA; // comando
    }
    else{
        P5OUT |= SDA; // dado
    3336:	e2 d3 31 00 	bis.b	#2,	&0x0031	;r3 As==10
    333a:	d3 3f       	jmp	$-88     	;abs 0x32e2

0000333c <n6100_sendcom1>:
{
  lcd_fillrect(0, 0, 132, 132, color);
}

void n6100_sendcom1(unsigned char comm, unsigned char dat)
{
    333c:	0b 12       	push	r11		
    333e:	4b 4e       	mov.b	r14,	r11	
    n6100_send(comm, 3);
    3340:	7e 40 03 00 	mov.b	#3,	r14	;#0x0003
    3344:	b0 12 d6 32 	call	#0x32d6	
    n6100_send(dat, 0);
    3348:	4e 43       	clr.b	r14		
    334a:	4f 4b       	mov.b	r11,	r15	
    334c:	b0 12 d6 32 	call	#0x32d6	
}
    3350:	3b 41       	pop	r11		
    3352:	30 41       	ret			

00003354 <n6100_sendcom2>:

void n6100_sendcom2(unsigned char comm, unsigned char dat1, unsigned char dat2)
{
    3354:	0b 12       	push	r11		
    3356:	0a 12       	push	r10		
    3358:	4a 4e       	mov.b	r14,	r10	
    335a:	4b 4d       	mov.b	r13,	r11	
    n6100_send(comm, 3);
    335c:	7e 40 03 00 	mov.b	#3,	r14	;#0x0003
    3360:	b0 12 d6 32 	call	#0x32d6	
    n6100_send(dat1, 1);
    3364:	5e 43       	mov.b	#1,	r14	;r3 As==01
    3366:	4f 4a       	mov.b	r10,	r15	
    3368:	b0 12 d6 32 	call	#0x32d6	
    n6100_send(dat2, 0);
    336c:	4e 43       	clr.b	r14		
    336e:	4f 4b       	mov.b	r11,	r15	
    3370:	b0 12 d6 32 	call	#0x32d6	
}
    3374:	3a 41       	pop	r10		
    3376:	3b 41       	pop	r11		
    3378:	30 41       	ret			

0000337a <lcd_fillrect>:

void lcd_fillrect(unsigned char x, unsigned char y, unsigned char lx, unsigned char ly, unsigned char color)
{
    337a:	0b 12       	push	r11		
    337c:	0a 12       	push	r10		
    337e:	09 12       	push	r9		
    3380:	08 12       	push	r8		
    3382:	48 4e       	mov.b	r14,	r8	
    3384:	4b 4d       	mov.b	r13,	r11	
    3386:	4a 4c       	mov.b	r12,	r10	
    3388:	59 41 0a 00 	mov.b	10(r1),	r9	;0x000a(r1)
    unsigned int addr, max;
    
    n6100_sendcom2(0x2a, x, x+lx-1);
    338c:	4d 4f       	mov.b	r15,	r13	
    338e:	7d 53       	add.b	#-1,	r13	;r3 As==11
    3390:	4d 5b       	add.b	r11,	r13	
    3392:	4e 4f       	mov.b	r15,	r14	
    3394:	7f 40 2a 00 	mov.b	#42,	r15	;#0x002a
    3398:	b0 12 54 33 	call	#0x3354	
    n6100_sendcom2(0x2b, y, y+ly-1);
    339c:	4d 48       	mov.b	r8,	r13	
    339e:	7d 53       	add.b	#-1,	r13	;r3 As==11
    33a0:	4d 5a       	add.b	r10,	r13	
    33a2:	4e 48       	mov.b	r8,	r14	
    33a4:	7f 40 2b 00 	mov.b	#43,	r15	;#0x002b
    33a8:	b0 12 54 33 	call	#0x3354	
    
    n6100_send(0x2c, 3);
    33ac:	7e 40 03 00 	mov.b	#3,	r14	;#0x0003
    33b0:	7f 40 2c 00 	mov.b	#44,	r15	;#0x002c
    33b4:	b0 12 d6 32 	call	#0x32d6	
    
    max = lx*ly;
    33b8:	02 12       	push	r2		
    33ba:	32 c2       	dint			
    33bc:	03 43       	nop			
    33be:	c2 4a 30 01 	mov.b	r10,	&0x0130	
    33c2:	c2 4b 38 01 	mov.b	r11,	&0x0138	
    33c6:	1a 42 3a 01 	mov	&0x013a,r10	
    33ca:	32 41       	pop	r2		
    for(addr=0; addr<max; addr++)
    33cc:	0a 93       	tst	r10		
    33ce:	08 24       	jz	$+18     	;abs 0x33e0
    33d0:	0b 43       	clr	r11		
    {
      n6100_send(color, 1);
    33d2:	5e 43       	mov.b	#1,	r14	;r3 As==01
    33d4:	4f 49       	mov.b	r9,	r15	
    33d6:	b0 12 d6 32 	call	#0x32d6	
    n6100_sendcom2(0x2b, y, y+ly-1);
    
    n6100_send(0x2c, 3);
    
    max = lx*ly;
    for(addr=0; addr<max; addr++)
    33da:	1b 53       	inc	r11		
    33dc:	0b 9a       	cmp	r10,	r11	
    33de:	f9 2b       	jnc	$-12     	;abs 0x33d2
    {
      n6100_send(color, 1);
    }
    
    P5OUT &= ~SDA;
    33e0:	f2 f0 fd ff 	and.b	#-3,	&0x0031	;#0xfffd
    33e4:	31 00 
    P5OUT |= CSX;
    33e6:	d2 d3 31 00 	bis.b	#1,	&0x0031	;r3 As==01
    
    n6100_sendcom2(0x2a, 0, 0x83);
    33ea:	7d 40 83 ff 	mov.b	#-125,	r13	;#0xff83
    33ee:	4e 43       	clr.b	r14		
    33f0:	7f 40 2a 00 	mov.b	#42,	r15	;#0x002a
    33f4:	b0 12 54 33 	call	#0x3354	
    n6100_sendcom2(0x2b, 0, 0x83);
    33f8:	7d 40 83 ff 	mov.b	#-125,	r13	;#0xff83
    33fc:	4e 43       	clr.b	r14		
    33fe:	7f 40 2b 00 	mov.b	#43,	r15	;#0x002b
    3402:	b0 12 54 33 	call	#0x3354	
}
    3406:	38 41       	pop	r8		
    3408:	39 41       	pop	r9		
    340a:	3a 41       	pop	r10		
    340c:	3b 41       	pop	r11		
    340e:	30 41       	ret			

00003410 <lcd_clear>:
  //delayms(4000);
}

void lcd_clear(unsigned char color) 
{
  lcd_fillrect(0, 0, 132, 132, color);
    3410:	4f 12       	push.b	r15		
    3412:	7c 40 84 ff 	mov.b	#-124,	r12	;#0xff84
    3416:	4d 4c       	mov.b	r12,	r13	
    3418:	4e 43       	clr.b	r14		
    341a:	4f 4e       	mov.b	r14,	r15	
    341c:	b0 12 7a 33 	call	#0x337a	
    3420:	21 53       	incd	r1		
}
    3422:	30 41       	ret			

00003424 <lcd_init>:
    P5OUT &= ~SDA;
    P5OUT |= CSX;
}

void lcd_init(unsigned char color)
{
    3424:	0b 12       	push	r11		
    3426:	0a 12       	push	r10		
    3428:	09 12       	push	r9		
    342a:	08 12       	push	r8		
    342c:	07 12       	push	r7		
    342e:	06 12       	push	r6		
    3430:	05 12       	push	r5		
    3432:	45 4f       	mov.b	r15,	r5	
    P5DIR |= CSX + SDA + SCLK + RESX;
    3434:	f2 d0 0f 00 	bis.b	#15,	&0x0032	;#0x000f
    3438:	32 00 
    
  P5OUT |= CSX;
    343a:	d2 d3 31 00 	bis.b	#1,	&0x0031	;r3 As==01
  P5OUT &= ~SDA;
    343e:	f2 f0 fd ff 	and.b	#-3,	&0x0031	;#0xfffd
    3442:	31 00 
  P5OUT &= ~SCLK;
    3444:	f2 f0 f7 ff 	and.b	#-9,	&0x0031	;#0xfff7
    3448:	31 00 

  P5OUT &= ~RESX;
    344a:	f2 f0 fb ff 	and.b	#-5,	&0x0031	;#0xfffb
    344e:	31 00 
  delayms(20);
    3450:	3b 40 14 00 	mov	#20,	r11	;#0x0014
    3454:	0f 4b       	mov	r11,	r15	
    3456:	b0 12 94 32 	call	#0x3294	
  P5OUT |= RESX;
    345a:	e2 d2 31 00 	bis.b	#4,	&0x0031	;r2 As==10
  delayms(20);
    345e:	0f 4b       	mov	r11,	r15	
    3460:	b0 12 94 32 	call	#0x3294	

  // Sleep out...
  n6100_send(0x11,2);   
    3464:	6e 43       	mov.b	#2,	r14	;r3 As==10
    3466:	7f 40 11 00 	mov.b	#17,	r15	;#0x0011
    346a:	b0 12 d6 32 	call	#0x32d6	
  // Ajusta o contraste...
  n6100_sendcom1(0x25, 0x40);
    346e:	7e 40 40 00 	mov.b	#64,	r14	;#0x0040
    3472:	7f 40 25 00 	mov.b	#37,	r15	;#0x0025
    3476:	b0 12 3c 33 	call	#0x333c	
  // Liga o display e o booster...    
  n6100_send(0x29,2);
    347a:	6e 43       	mov.b	#2,	r14	;r3 As==10
    347c:	7f 40 29 00 	mov.b	#41,	r15	;#0x0029
    3480:	b0 12 d6 32 	call	#0x32d6	
  n6100_send(0x03,2);
    3484:	6e 43       	mov.b	#2,	r14	;r3 As==10
    3486:	7f 40 03 00 	mov.b	#3,	r15	;#0x0003
    348a:	b0 12 d6 32 	call	#0x32d6	
  delayms(10);  
    348e:	3f 40 0a 00 	mov	#10,	r15	;#0x000a
    3492:	b0 12 94 32 	call	#0x3294	
    
  // Color Format... (8bits/pixel)
  n6100_sendcom1(0x3a, 0x02);
    3496:	6e 43       	mov.b	#2,	r14	;r3 As==10
    3498:	7f 40 3a 00 	mov.b	#58,	r15	;#0x003a
    349c:	b0 12 3c 33 	call	#0x333c	
  // Inicializa a tabela de cores 8bits/pixel
  n6100_send(0x2d,2);
    34a0:	6e 43       	mov.b	#2,	r14	;r3 As==10
    34a2:	7f 40 2d 00 	mov.b	#45,	r15	;#0x002d
    34a6:	b0 12 d6 32 	call	#0x32d6	
  // red
  n6100_send(0x00,0);
    34aa:	4e 43       	clr.b	r14		
    34ac:	4f 4e       	mov.b	r14,	r15	
    34ae:	b0 12 d6 32 	call	#0x32d6	
  n6100_send(0x02,0);
    34b2:	4e 43       	clr.b	r14		
    34b4:	6f 43       	mov.b	#2,	r15	;r3 As==10
    34b6:	b0 12 d6 32 	call	#0x32d6	
  n6100_send(0x05,0);
    34ba:	79 40 05 00 	mov.b	#5,	r9	;#0x0005
    34be:	4e 43       	clr.b	r14		
    34c0:	4f 49       	mov.b	r9,	r15	
    34c2:	b0 12 d6 32 	call	#0x32d6	
  n6100_send(0x07,0);
    34c6:	76 40 07 00 	mov.b	#7,	r6	;#0x0007
    34ca:	4e 43       	clr.b	r14		
    34cc:	4f 46       	mov.b	r6,	r15	
    34ce:	b0 12 d6 32 	call	#0x32d6	
  n6100_send(0x09,0);
    34d2:	77 40 09 00 	mov.b	#9,	r7	;#0x0009
    34d6:	4e 43       	clr.b	r14		
    34d8:	4f 47       	mov.b	r7,	r15	
    34da:	b0 12 d6 32 	call	#0x32d6	
  n6100_send(0x0b,0);
    34de:	7a 40 0b 00 	mov.b	#11,	r10	;#0x000b
    34e2:	4e 43       	clr.b	r14		
    34e4:	4f 4a       	mov.b	r10,	r15	
    34e6:	b0 12 d6 32 	call	#0x32d6	
  n6100_send(0x0d,0);
    34ea:	78 40 0d 00 	mov.b	#13,	r8	;#0x000d
    34ee:	4e 43       	clr.b	r14		
    34f0:	4f 48       	mov.b	r8,	r15	
    34f2:	b0 12 d6 32 	call	#0x32d6	
  n6100_send(0x0f,0);
    34f6:	7b 50 fb ff 	add.b	#-5,	r11	;#0xfffb
    34fa:	4e 43       	clr.b	r14		
    34fc:	4f 4b       	mov.b	r11,	r15	
    34fe:	b0 12 d6 32 	call	#0x32d6	
  // green
  n6100_send(0x00,0);
    3502:	4e 43       	clr.b	r14		
    3504:	4f 4e       	mov.b	r14,	r15	
    3506:	b0 12 d6 32 	call	#0x32d6	
  n6100_send(0x02,0);
    350a:	4e 43       	clr.b	r14		
    350c:	6f 43       	mov.b	#2,	r15	;r3 As==10
    350e:	b0 12 d6 32 	call	#0x32d6	
  n6100_send(0x05,0);
    3512:	4e 43       	clr.b	r14		
    3514:	4f 49       	mov.b	r9,	r15	
    3516:	b0 12 d6 32 	call	#0x32d6	
  n6100_send(0x07,0);
    351a:	4e 43       	clr.b	r14		
    351c:	4f 46       	mov.b	r6,	r15	
    351e:	b0 12 d6 32 	call	#0x32d6	
  n6100_send(0x09,0);
    3522:	4e 43       	clr.b	r14		
    3524:	4f 47       	mov.b	r7,	r15	
    3526:	b0 12 d6 32 	call	#0x32d6	
  n6100_send(0x0b,0);
    352a:	4e 43       	clr.b	r14		
    352c:	4f 4a       	mov.b	r10,	r15	
    352e:	b0 12 d6 32 	call	#0x32d6	
  n6100_send(0x0d,0);
    3532:	4e 43       	clr.b	r14		
    3534:	4f 48       	mov.b	r8,	r15	
    3536:	b0 12 d6 32 	call	#0x32d6	
  n6100_send(0x0f,0);
    353a:	4e 43       	clr.b	r14		
    353c:	4f 4b       	mov.b	r11,	r15	
    353e:	b0 12 d6 32 	call	#0x32d6	
  // blue
  n6100_send(0x00,0);
    3542:	4e 43       	clr.b	r14		
    3544:	4f 4e       	mov.b	r14,	r15	
    3546:	b0 12 d6 32 	call	#0x32d6	
  n6100_send(0x05,0);
    354a:	4e 43       	clr.b	r14		
    354c:	4f 49       	mov.b	r9,	r15	
    354e:	b0 12 d6 32 	call	#0x32d6	
  n6100_send(0x0b,0);
    3552:	4e 43       	clr.b	r14		
    3554:	4f 4a       	mov.b	r10,	r15	
    3556:	b0 12 d6 32 	call	#0x32d6	
  n6100_send(0x0f,0);
    355a:	4e 43       	clr.b	r14		
    355c:	4f 4b       	mov.b	r11,	r15	
    355e:	b0 12 d6 32 	call	#0x32d6	

  // Memory Access Control...  
  n6100_sendcom1(0x36, invertido);
    3562:	4e 43       	clr.b	r14		
    3564:	7f 40 36 00 	mov.b	#54,	r15	;#0x0036
    3568:	b0 12 3c 33 	call	#0x333c	
  // Agradecimentos...
  lcd_fillrect(0, 0, 132, 132, color);
    356c:	45 12       	push.b	r5		
    356e:	7c 40 84 ff 	mov.b	#-124,	r12	;#0xff84
    3572:	4d 4c       	mov.b	r12,	r13	
    3574:	4e 43       	clr.b	r14		
    3576:	4f 4e       	mov.b	r14,	r15	
    3578:	b0 12 7a 33 	call	#0x337a	
    357c:	21 53       	incd	r1		
  //n6100_putlogo(2, 2, 128, 128, (unsigned char *)Matrix);
  //delayms(4000);
}
    357e:	35 41       	pop	r5		
    3580:	36 41       	pop	r6		
    3582:	37 41       	pop	r7		
    3584:	38 41       	pop	r8		
    3586:	39 41       	pop	r9		
    3588:	3a 41       	pop	r10		
    358a:	3b 41       	pop	r11		
    358c:	30 41       	ret			

0000358e <lcd_drawcircle>:
    n6100_sendcom2(0x2a, 0, 0x83);
    n6100_sendcom2(0x2b, 0, 0x83);
}


void lcd_drawcircle(unsigned int x0, unsigned int y0, unsigned int radius, unsigned char color, int width){
    358e:	0b 12       	push	r11		
    3590:	0a 12       	push	r10		
    3592:	09 12       	push	r9		
    3594:	08 12       	push	r8		
    3596:	07 12       	push	r7		
    3598:	06 12       	push	r6		
    359a:	05 12       	push	r5		
    359c:	04 12       	push	r4		
    359e:	31 50 f6 ff 	add	#-10,	r1	;#0xfff6
    35a2:	08 4f       	mov	r15,	r8	
    35a4:	09 4e       	mov	r14,	r9	
    35a6:	45 4c       	mov.b	r12,	r5	
    35a8:	1b 41 1c 00 	mov	28(r1),	r11	;0x001c(r1)
    int f = 1 - radius;
    int ddF_x = 0;
    int ddF_y = -2 * radius;
    int x = 0;
    int y = radius;
    35ac:	81 4d 04 00 	mov	r13,	4(r1)	;0x0004(r1)
    lcd_fillrect(x0, y0 + radius,width,width, color);
    35b0:	46 4b       	mov.b	r11,	r6	
    35b2:	c1 4e 00 00 	mov.b	r14,	0(r1)	;0x0000(r1)
    35b6:	5a 41 04 00 	mov.b	4(r1),	r10	;0x0004(r1)
    35ba:	c1 4f 01 00 	mov.b	r15,	1(r1)	;0x0001(r1)
    35be:	4c 12       	push.b	r12		
    35c0:	4c 4b       	mov.b	r11,	r12	
    35c2:	4d 4b       	mov.b	r11,	r13	
    35c4:	4e 4a       	mov.b	r10,	r14	
    35c6:	5e 51 02 00 	add.b	2(r1),	r14	;0x0002(r1)
    35ca:	b0 12 7a 33 	call	#0x337a	
    lcd_fillrect(x0, y0 - radius,width,width, color);
    35ce:	c1 45 00 00 	mov.b	r5,	0(r1)	;0x0000(r1)
    35d2:	4c 4b       	mov.b	r11,	r12	
    35d4:	4d 4b       	mov.b	r11,	r13	
    35d6:	5e 41 02 00 	mov.b	2(r1),	r14	;0x0002(r1)
    35da:	4e 8a       	sub.b	r10,	r14	
    35dc:	4f 48       	mov.b	r8,	r15	
    35de:	b0 12 7a 33 	call	#0x337a	
    lcd_fillrect(x0 + radius, y0,width,width, color);
    35e2:	c1 45 00 00 	mov.b	r5,	0(r1)	;0x0000(r1)
    35e6:	4c 4b       	mov.b	r11,	r12	
    35e8:	4d 4b       	mov.b	r11,	r13	
    35ea:	4e 49       	mov.b	r9,	r14	
    35ec:	4f 4a       	mov.b	r10,	r15	
    35ee:	5f 51 03 00 	add.b	3(r1),	r15	;0x0003(r1)
    35f2:	b0 12 7a 33 	call	#0x337a	
    lcd_fillrect(x0 - radius, y0,width,width, color);
    35f6:	c1 45 00 00 	mov.b	r5,	0(r1)	;0x0000(r1)
    35fa:	4c 4b       	mov.b	r11,	r12	
    35fc:	4d 4b       	mov.b	r11,	r13	
    35fe:	4e 49       	mov.b	r9,	r14	
    3600:	5f 41 03 00 	mov.b	3(r1),	r15	;0x0003(r1)
    3604:	4f 8a       	sub.b	r10,	r15	
    3606:	b0 12 7a 33 	call	#0x337a	
    360a:	21 53       	incd	r1		
    while (x < y) {
    360c:	0f 43       	clr	r15		
    360e:	1f 91 04 00 	cmp	4(r1),	r15	;0x0004(r1)
    3612:	82 34       	jge	$+262    	;abs 0x3718
    n6100_sendcom2(0x2b, 0, 0x83);
}


void lcd_drawcircle(unsigned int x0, unsigned int y0, unsigned int radius, unsigned char color, int width){
    int f = 1 - radius;
    3614:	14 43       	mov	#1,	r4	;r3 As==01
    3616:	14 81 04 00 	sub	4(r1),	r4	;0x0004(r1)
    int ddF_x = 0;
    int ddF_y = -2 * radius;
    361a:	1e 41 04 00 	mov	4(r1),	r14	;0x0004(r1)
    361e:	0e 11       	rra	r14		
    3620:	0e 43       	clr	r14		
    3622:	0e 10       	rrc	r14		
    3624:	1e 81 04 00 	sub	4(r1),	r14	;0x0004(r1)
    3628:	81 4e 08 00 	mov	r14,	8(r1)	;0x0008(r1)
    362c:	91 51 08 00 	rla	8(r1)		;0x0008(r1)
    3630:	08 00 
    3632:	b1 40 03 00 	mov	#3,	6(r1)	;#0x0003, 0x0006(r1)
    3636:	06 00 
    int x = 0;
    3638:	81 4f 02 00 	mov	r15,	2(r1)	;0x0002(r1)
    363c:	04 3c       	jmp	$+10     	;abs 0x3646
            ddF_y += 2;
            f += ddF_y;
        }
        x++;
        ddF_x += 2;
        f += ddF_x + 1;
    363e:	14 51 06 00 	add	6(r1),	r4	;0x0006(r1)
    3642:	a1 53 06 00 	incd	6(r1)		;0x0006(r1)
    lcd_fillrect(x0, y0 + radius,width,width, color);
    lcd_fillrect(x0, y0 - radius,width,width, color);
    lcd_fillrect(x0 + radius, y0,width,width, color);
    lcd_fillrect(x0 - radius, y0,width,width, color);
    while (x < y) {
        if (f >= 0) {
    3646:	04 93       	tst	r4		
    3648:	06 38       	jl	$+14     	;abs 0x3656
            y--;
    364a:	b1 53 04 00 	add	#-1,	4(r1)	;r3 As==11, 0x0004(r1)
            ddF_y += 2;
    364e:	a1 53 08 00 	incd	8(r1)		;0x0008(r1)
            f += ddF_y;
    3652:	14 51 08 00 	add	8(r1),	r4	;0x0008(r1)
        }
        x++;
    3656:	91 53 02 00 	inc	2(r1)		;0x0002(r1)
        ddF_x += 2;
        f += ddF_x + 1;
        lcd_fillrect(x0 + x, y0 + y,width,width, color);
    365a:	5a 41 04 00 	mov.b	4(r1),	r10	;0x0004(r1)
    365e:	6b 41       	mov.b	@r1,	r11	
    3660:	4b 5a       	add.b	r10,	r11	
    n6100_sendcom2(0x2a, 0, 0x83);
    n6100_sendcom2(0x2b, 0, 0x83);
}


void lcd_drawcircle(unsigned int x0, unsigned int y0, unsigned int radius, unsigned char color, int width){
    3662:	58 41 02 00 	mov.b	2(r1),	r8	;0x0002(r1)
    3666:	57 41 01 00 	mov.b	1(r1),	r7	;0x0001(r1)
    366a:	47 58       	add.b	r8,	r7	
            f += ddF_y;
        }
        x++;
        ddF_x += 2;
        f += ddF_x + 1;
        lcd_fillrect(x0 + x, y0 + y,width,width, color);
    366c:	45 12       	push.b	r5		
    366e:	4c 46       	mov.b	r6,	r12	
    3670:	4d 46       	mov.b	r6,	r13	
    3672:	4e 4b       	mov.b	r11,	r14	
    3674:	4f 47       	mov.b	r7,	r15	
    3676:	b0 12 7a 33 	call	#0x337a	
    367a:	59 41 03 00 	mov.b	3(r1),	r9	;0x0003(r1)
    367e:	49 88       	sub.b	r8,	r9	
        lcd_fillrect(x0 - x, y0 + y,width,width, color);
    3680:	c1 45 00 00 	mov.b	r5,	0(r1)	;0x0000(r1)
    3684:	4c 46       	mov.b	r6,	r12	
    3686:	4d 46       	mov.b	r6,	r13	
    3688:	4e 4b       	mov.b	r11,	r14	
    368a:	4f 49       	mov.b	r9,	r15	
    368c:	b0 12 7a 33 	call	#0x337a	
        lcd_fillrect(x0 + x, y0 - y,width,width, color);
    3690:	5b 41 02 00 	mov.b	2(r1),	r11	;0x0002(r1)
    3694:	4b 8a       	sub.b	r10,	r11	
    3696:	c1 45 00 00 	mov.b	r5,	0(r1)	;0x0000(r1)
    369a:	4c 46       	mov.b	r6,	r12	
    369c:	4d 46       	mov.b	r6,	r13	
    369e:	4e 4b       	mov.b	r11,	r14	
    36a0:	4f 47       	mov.b	r7,	r15	
    36a2:	b0 12 7a 33 	call	#0x337a	
        lcd_fillrect(x0 - x, y0 - y,width,width, color);
    36a6:	c1 45 00 00 	mov.b	r5,	0(r1)	;0x0000(r1)
    36aa:	4c 46       	mov.b	r6,	r12	
    36ac:	4d 46       	mov.b	r6,	r13	
    36ae:	4e 4b       	mov.b	r11,	r14	
    36b0:	4f 49       	mov.b	r9,	r15	
    36b2:	b0 12 7a 33 	call	#0x337a	
    36b6:	5b 41 02 00 	mov.b	2(r1),	r11	;0x0002(r1)
    36ba:	4b 58       	add.b	r8,	r11	
        lcd_fillrect(x0 + y, y0 + x,width,width, color);
    36bc:	59 41 03 00 	mov.b	3(r1),	r9	;0x0003(r1)
    36c0:	49 5a       	add.b	r10,	r9	
    36c2:	c1 45 00 00 	mov.b	r5,	0(r1)	;0x0000(r1)
    36c6:	4c 46       	mov.b	r6,	r12	
    36c8:	4d 46       	mov.b	r6,	r13	
    36ca:	4e 4b       	mov.b	r11,	r14	
    36cc:	4f 49       	mov.b	r9,	r15	
    36ce:	b0 12 7a 33 	call	#0x337a	
        lcd_fillrect(x0 - y, y0 + x,width,width, color);
    36d2:	5f 41 03 00 	mov.b	3(r1),	r15	;0x0003(r1)
    36d6:	4f 8a       	sub.b	r10,	r15	
    36d8:	4a 4f       	mov.b	r15,	r10	
    36da:	c1 45 00 00 	mov.b	r5,	0(r1)	;0x0000(r1)
    36de:	4c 46       	mov.b	r6,	r12	
    36e0:	4d 46       	mov.b	r6,	r13	
    36e2:	4e 4b       	mov.b	r11,	r14	
    36e4:	b0 12 7a 33 	call	#0x337a	
    36e8:	5b 41 02 00 	mov.b	2(r1),	r11	;0x0002(r1)
    36ec:	4b 88       	sub.b	r8,	r11	
        lcd_fillrect(x0 + y, y0 - x,width,width, color);
    36ee:	c1 45 00 00 	mov.b	r5,	0(r1)	;0x0000(r1)
    36f2:	4c 46       	mov.b	r6,	r12	
    36f4:	4d 46       	mov.b	r6,	r13	
    36f6:	4e 4b       	mov.b	r11,	r14	
    36f8:	4f 49       	mov.b	r9,	r15	
    36fa:	b0 12 7a 33 	call	#0x337a	
        lcd_fillrect(x0 - y,y0 - x,width,width, color);   
    36fe:	c1 45 00 00 	mov.b	r5,	0(r1)	;0x0000(r1)
    3702:	4c 46       	mov.b	r6,	r12	
    3704:	4d 46       	mov.b	r6,	r13	
    3706:	4e 4b       	mov.b	r11,	r14	
    3708:	4f 4a       	mov.b	r10,	r15	
    370a:	b0 12 7a 33 	call	#0x337a	
    370e:	21 53       	incd	r1		
    int y = radius;
    lcd_fillrect(x0, y0 + radius,width,width, color);
    lcd_fillrect(x0, y0 - radius,width,width, color);
    lcd_fillrect(x0 + radius, y0,width,width, color);
    lcd_fillrect(x0 - radius, y0,width,width, color);
    while (x < y) {
    3710:	91 91 04 00 	cmp	4(r1),	2(r1)	;0x0004(r1), 0x0002(r1)
    3714:	02 00 
    3716:	93 3b       	jl	$-216    	;abs 0x363e
        lcd_fillrect(x0 + y, y0 + x,width,width, color);
        lcd_fillrect(x0 - y, y0 + x,width,width, color);
        lcd_fillrect(x0 + y, y0 - x,width,width, color);
        lcd_fillrect(x0 - y,y0 - x,width,width, color);   
    }
}
    3718:	31 50 0a 00 	add	#10,	r1	;#0x000a
    371c:	34 41       	pop	r4		
    371e:	35 41       	pop	r5		
    3720:	36 41       	pop	r6		
    3722:	37 41       	pop	r7		
    3724:	38 41       	pop	r8		
    3726:	39 41       	pop	r9		
    3728:	3a 41       	pop	r10		
    372a:	3b 41       	pop	r11		
    372c:	30 41       	ret			

0000372e <lcd_drawpoint>:
        }
    }
}

void lcd_drawpoint(unsigned char x, unsigned char y, unsigned char color)
{
    372e:	0b 12       	push	r11		
    3730:	0a 12       	push	r10		
    3732:	09 12       	push	r9		
    3734:	08 12       	push	r8		
    3736:	48 4e       	mov.b	r14,	r8	
    3738:	4a 4d       	mov.b	r13,	r10	
    n6100_sendcom2(0x2a, x, x);
    373a:	79 40 2a 00 	mov.b	#42,	r9	;#0x002a
    373e:	4d 4f       	mov.b	r15,	r13	
    3740:	4e 4f       	mov.b	r15,	r14	
    3742:	4f 49       	mov.b	r9,	r15	
    3744:	b0 12 54 33 	call	#0x3354	
    n6100_sendcom2(0x2b, y, y);
    3748:	7b 40 2b 00 	mov.b	#43,	r11	;#0x002b
    374c:	4d 48       	mov.b	r8,	r13	
    374e:	4e 48       	mov.b	r8,	r14	
    3750:	4f 4b       	mov.b	r11,	r15	
    3752:	b0 12 54 33 	call	#0x3354	
    
    n6100_send(0x2c, 3);
    3756:	7e 40 03 00 	mov.b	#3,	r14	;#0x0003
    375a:	7f 40 2c 00 	mov.b	#44,	r15	;#0x002c
    375e:	b0 12 d6 32 	call	#0x32d6	
    n6100_send((unsigned char)color, 1);
    3762:	5e 43       	mov.b	#1,	r14	;r3 As==01
    3764:	4f 4a       	mov.b	r10,	r15	
    3766:	b0 12 d6 32 	call	#0x32d6	

    
    P5OUT &= ~SDA;
    376a:	f2 f0 fd ff 	and.b	#-3,	&0x0031	;#0xfffd
    376e:	31 00 
    P5OUT |= CSX;
    3770:	d2 d3 31 00 	bis.b	#1,	&0x0031	;r3 As==01
    
    n6100_sendcom2(0x2a, 0, 0x83);
    3774:	7a 40 83 ff 	mov.b	#-125,	r10	;#0xff83
    3778:	4d 4a       	mov.b	r10,	r13	
    377a:	4e 43       	clr.b	r14		
    377c:	4f 49       	mov.b	r9,	r15	
    377e:	b0 12 54 33 	call	#0x3354	
    n6100_sendcom2(0x2b, 0, 0x83);
    3782:	4d 4a       	mov.b	r10,	r13	
    3784:	4e 43       	clr.b	r14		
    3786:	4f 4b       	mov.b	r11,	r15	
    3788:	b0 12 54 33 	call	#0x3354	
}
    378c:	38 41       	pop	r8		
    378e:	39 41       	pop	r9		
    3790:	3a 41       	pop	r10		
    3792:	3b 41       	pop	r11		
    3794:	30 41       	ret			

00003796 <lcd_drawline>:
        lcd_fillrect(x0 + y, y0 - x,width,width, color);
        lcd_fillrect(x0 - y,y0 - x,width,width, color);   
    }
}

void lcd_drawline(int x0, int y0, int x1, int y1, unsigned char color) {
    3796:	0b 12       	push	r11		
    3798:	0a 12       	push	r10		
    379a:	09 12       	push	r9		
    379c:	08 12       	push	r8		
    379e:	07 12       	push	r7		
    37a0:	06 12       	push	r6		
    37a2:	05 12       	push	r5		
    37a4:	04 12       	push	r4		
    37a6:	21 82       	sub	#4,	r1	;r2 As==10
    37a8:	09 4f       	mov	r15,	r9	
    37aa:	0a 4e       	mov	r14,	r10	
    37ac:	81 4d 00 00 	mov	r13,	0(r1)	;0x0000(r1)
    37b0:	81 4c 02 00 	mov	r12,	2(r1)	;0x0002(r1)
    37b4:	54 41 16 00 	mov.b	22(r1),	r4	;0x0016(r1)
    int dy = y1 - y0;
    37b8:	05 4c       	mov	r12,	r5	
    37ba:	05 8e       	sub	r14,	r5	
    int dx = x1 - x0;
    37bc:	06 4d       	mov	r13,	r6	
    37be:	06 8f       	sub	r15,	r6	
    int stepx, stepy;
    if (dy < 0) { 
    37c0:	05 93       	tst	r5		
    37c2:	4c 38       	jl	$+154    	;abs 0x385c
        dy = -dy; 
        stepy = -1; 
    } 
    else { 
        stepy = 1; 
    37c4:	18 43       	mov	#1,	r8	;r3 As==01
    }
    if (dx < 0) {
    37c6:	06 93       	tst	r6		
    37c8:	45 38       	jl	$+140    	;abs 0x3854
        dx = -dx; 
        stepx = -1; 
    } 
    else { 
        stepx = 1; 
    37ca:	17 43       	mov	#1,	r7	;r3 As==01
    }
    dy <<= 1; // dy is now 2*dy
    37cc:	05 55       	rla	r5		
    dx <<= 1; // dx is now 2*dx
    37ce:	06 56       	rla	r6		
    
    lcd_drawpoint(x0, y0, color);
    37d0:	4d 44       	mov.b	r4,	r13	
    37d2:	4e 4a       	mov.b	r10,	r14	
    37d4:	4f 49       	mov.b	r9,	r15	
    37d6:	b0 12 2e 37 	call	#0x372e	

    if (dx > dy) {
    37da:	05 96       	cmp	r6,	r5	
    37dc:	21 34       	jge	$+68     	;abs 0x3820
        int fraction = dy - (dx >> 1); // same as 2*dy - dx
        while (x0 != x1) {
    37de:	29 91       	cmp	@r1,	r9	
    37e0:	15 24       	jz	$+44     	;abs 0x380c
    dx <<= 1; // dx is now 2*dx
    
    lcd_drawpoint(x0, y0, color);

    if (dx > dy) {
        int fraction = dy - (dx >> 1); // same as 2*dy - dx
    37e2:	0f 46       	mov	r6,	r15	
    37e4:	0f 11       	rra	r15		
    37e6:	0b 45       	mov	r5,	r11	
    37e8:	0b 8f       	sub	r15,	r11	
        lcd_fillrect(x0 + y, y0 - x,width,width, color);
        lcd_fillrect(x0 - y,y0 - x,width,width, color);   
    }
}

void lcd_drawline(int x0, int y0, int x1, int y1, unsigned char color) {
    37ea:	09 57       	add	r7,	r9	
    37ec:	01 3c       	jmp	$+4      	;abs 0x37f0
            if (fraction >= 0) {
                y0 += stepy;
                fraction -= dx; // same as fraction -= 2*dx
            }
            x0 += stepx;
            fraction += dy; // same as fraction -= 2*dy
    37ee:	0b 55       	add	r5,	r11	
    lcd_drawpoint(x0, y0, color);

    if (dx > dy) {
        int fraction = dy - (dx >> 1); // same as 2*dy - dx
        while (x0 != x1) {
            if (fraction >= 0) {
    37f0:	0b 93       	tst	r11		
    37f2:	02 38       	jl	$+6      	;abs 0x37f8
                y0 += stepy;
    37f4:	0a 58       	add	r8,	r10	
                fraction -= dx; // same as fraction -= 2*dx
    37f6:	0b 86       	sub	r6,	r11	
            }
            x0 += stepx;
            fraction += dy; // same as fraction -= 2*dy
            lcd_drawpoint(x0, y0, color);
    37f8:	4d 44       	mov.b	r4,	r13	
    37fa:	4e 4a       	mov.b	r10,	r14	
    37fc:	4f 49       	mov.b	r9,	r15	
    37fe:	b0 12 2e 37 	call	#0x372e	
    3802:	09 57       	add	r7,	r9	
        lcd_fillrect(x0 + y, y0 - x,width,width, color);
        lcd_fillrect(x0 - y,y0 - x,width,width, color);   
    }
}

void lcd_drawline(int x0, int y0, int x1, int y1, unsigned char color) {
    3804:	0f 49       	mov	r9,	r15	
    3806:	0f 87       	sub	r7,	r15	
    
    lcd_drawpoint(x0, y0, color);

    if (dx > dy) {
        int fraction = dy - (dx >> 1); // same as 2*dy - dx
        while (x0 != x1) {
    3808:	2f 91       	cmp	@r1,	r15	
    380a:	f1 23       	jnz	$-28     	;abs 0x37ee
            y0 += stepy;
            fraction += dx;
            lcd_drawpoint(x0, y0, color);
        }
    }
}
    380c:	21 52       	add	#4,	r1	;r2 As==10
    380e:	34 41       	pop	r4		
    3810:	35 41       	pop	r5		
    3812:	36 41       	pop	r6		
    3814:	37 41       	pop	r7		
    3816:	38 41       	pop	r8		
    3818:	39 41       	pop	r9		
    381a:	3a 41       	pop	r10		
    381c:	3b 41       	pop	r11		
    381e:	30 41       	ret			
            lcd_drawpoint(x0, y0, color);
        }
    } 
    else {
        int fraction = dx - (dy >> 1);
        while (y0 != y1) {
    3820:	81 9a 02 00 	cmp	r10,	2(r1)	;0x0002(r1)
    3824:	f3 27       	jz	$-24     	;abs 0x380c
            fraction += dy; // same as fraction -= 2*dy
            lcd_drawpoint(x0, y0, color);
        }
    } 
    else {
        int fraction = dx - (dy >> 1);
    3826:	0f 45       	mov	r5,	r15	
    3828:	0f 11       	rra	r15		
    382a:	0b 46       	mov	r6,	r11	
    382c:	0b 8f       	sub	r15,	r11	
        lcd_fillrect(x0 + y, y0 - x,width,width, color);
        lcd_fillrect(x0 - y,y0 - x,width,width, color);   
    }
}

void lcd_drawline(int x0, int y0, int x1, int y1, unsigned char color) {
    382e:	0a 58       	add	r8,	r10	
    3830:	01 3c       	jmp	$+4      	;abs 0x3834
            if (fraction >= 0) {
                x0 += stepx;
                fraction -= dy;
            }
            y0 += stepy;
            fraction += dx;
    3832:	0b 56       	add	r6,	r11	
        }
    } 
    else {
        int fraction = dx - (dy >> 1);
        while (y0 != y1) {
            if (fraction >= 0) {
    3834:	0b 93       	tst	r11		
    3836:	02 38       	jl	$+6      	;abs 0x383c
                x0 += stepx;
    3838:	09 57       	add	r7,	r9	
                fraction -= dy;
    383a:	0b 85       	sub	r5,	r11	
            }
            y0 += stepy;
            fraction += dx;
            lcd_drawpoint(x0, y0, color);
    383c:	4d 44       	mov.b	r4,	r13	
    383e:	4e 4a       	mov.b	r10,	r14	
    3840:	4f 49       	mov.b	r9,	r15	
    3842:	b0 12 2e 37 	call	#0x372e	
    3846:	0a 58       	add	r8,	r10	
        lcd_fillrect(x0 + y, y0 - x,width,width, color);
        lcd_fillrect(x0 - y,y0 - x,width,width, color);   
    }
}

void lcd_drawline(int x0, int y0, int x1, int y1, unsigned char color) {
    3848:	0f 4a       	mov	r10,	r15	
    384a:	0f 88       	sub	r8,	r15	
            lcd_drawpoint(x0, y0, color);
        }
    } 
    else {
        int fraction = dx - (dy >> 1);
        while (y0 != y1) {
    384c:	81 9f 02 00 	cmp	r15,	2(r1)	;0x0002(r1)
    3850:	f0 23       	jnz	$-30     	;abs 0x3832
    3852:	dc 3f       	jmp	$-70     	;abs 0x380c
    } 
    else { 
        stepy = 1; 
    }
    if (dx < 0) {
        dx = -dx; 
    3854:	36 e3       	inv	r6		
    3856:	16 53       	inc	r6		
        stepx = -1; 
    3858:	37 43       	mov	#-1,	r7	;r3 As==11
    385a:	b8 3f       	jmp	$-142    	;abs 0x37cc
void lcd_drawline(int x0, int y0, int x1, int y1, unsigned char color) {
    int dy = y1 - y0;
    int dx = x1 - x0;
    int stepx, stepy;
    if (dy < 0) { 
        dy = -dy; 
    385c:	35 e3       	inv	r5		
    385e:	15 53       	inc	r5		
        stepy = -1; 
    3860:	38 43       	mov	#-1,	r8	;r3 As==11
    3862:	b1 3f       	jmp	$-156    	;abs 0x37c6

00003864 <lcd_putlogo>:
    n6100_sendcom2(0x2a, 0, 0x83);
    n6100_sendcom2(0x2b, 0, 0x83);
}

void lcd_putlogo(unsigned char x, unsigned char y, unsigned char lx, unsigned char ly, unsigned char p[])
{
    3864:	0b 12       	push	r11		
    3866:	0a 12       	push	r10		
    3868:	09 12       	push	r9		
    386a:	08 12       	push	r8		
    386c:	48 4e       	mov.b	r14,	r8	
    386e:	4b 4d       	mov.b	r13,	r11	
    3870:	4a 4c       	mov.b	r12,	r10	
    3872:	19 41 0a 00 	mov	10(r1),	r9	;0x000a(r1)
    unsigned int addr, max;

    n6100_sendcom2(0x2a, x, x+lx-1);
    3876:	4d 4f       	mov.b	r15,	r13	
    3878:	7d 53       	add.b	#-1,	r13	;r3 As==11
    387a:	4d 5b       	add.b	r11,	r13	
    387c:	4e 4f       	mov.b	r15,	r14	
    387e:	7f 40 2a 00 	mov.b	#42,	r15	;#0x002a
    3882:	b0 12 54 33 	call	#0x3354	
    n6100_sendcom2(0x2b, y, y+ly-1);
    3886:	4d 48       	mov.b	r8,	r13	
    3888:	7d 53       	add.b	#-1,	r13	;r3 As==11
    388a:	4d 5a       	add.b	r10,	r13	
    388c:	4e 48       	mov.b	r8,	r14	
    388e:	7f 40 2b 00 	mov.b	#43,	r15	;#0x002b
    3892:	b0 12 54 33 	call	#0x3354	
    
    n6100_send(0x2c, 3);
    3896:	7e 40 03 00 	mov.b	#3,	r14	;#0x0003
    389a:	7f 40 2c 00 	mov.b	#44,	r15	;#0x002c
    389e:	b0 12 d6 32 	call	#0x32d6	
    
    max = lx*ly;
    38a2:	02 12       	push	r2		
    38a4:	32 c2       	dint			
    38a6:	03 43       	nop			
    38a8:	c2 4a 30 01 	mov.b	r10,	&0x0130	
    38ac:	c2 4b 38 01 	mov.b	r11,	&0x0138	
    38b0:	1a 42 3a 01 	mov	&0x013a,r10	
    38b4:	32 41       	pop	r2		
    for(addr=0; addr<max; addr++)
    38b6:	0a 93       	tst	r10		
    38b8:	0a 24       	jz	$+22     	;abs 0x38ce
    38ba:	0b 43       	clr	r11		
    
    n6100_sendcom2(0x2a, 0, 0x83);
    n6100_sendcom2(0x2b, 0, 0x83);
}

void lcd_putlogo(unsigned char x, unsigned char y, unsigned char lx, unsigned char ly, unsigned char p[])
    38bc:	0f 49       	mov	r9,	r15	
    38be:	0f 5b       	add	r11,	r15	
    n6100_send(0x2c, 3);
    
    max = lx*ly;
    for(addr=0; addr<max; addr++)
    {
        n6100_send(p[addr], 1);
    38c0:	5e 43       	mov.b	#1,	r14	;r3 As==01
    38c2:	6f 4f       	mov.b	@r15,	r15	
    38c4:	b0 12 d6 32 	call	#0x32d6	
    n6100_sendcom2(0x2b, y, y+ly-1);
    
    n6100_send(0x2c, 3);
    
    max = lx*ly;
    for(addr=0; addr<max; addr++)
    38c8:	1b 53       	inc	r11		
    38ca:	0b 9a       	cmp	r10,	r11	
    38cc:	f7 2b       	jnc	$-16     	;abs 0x38bc
    {
        n6100_send(p[addr], 1);
    }
    
    P5OUT &= ~SDA;
    38ce:	f2 f0 fd ff 	and.b	#-3,	&0x0031	;#0xfffd
    38d2:	31 00 
    P5OUT |= CSX;
    38d4:	d2 d3 31 00 	bis.b	#1,	&0x0031	;r3 As==01
    
    n6100_sendcom2(0x2a, 0, 0x83);
    38d8:	7d 40 83 ff 	mov.b	#-125,	r13	;#0xff83
    38dc:	4e 43       	clr.b	r14		
    38de:	7f 40 2a 00 	mov.b	#42,	r15	;#0x002a
    38e2:	b0 12 54 33 	call	#0x3354	
    n6100_sendcom2(0x2b, 0, 0x83);
    38e6:	7d 40 83 ff 	mov.b	#-125,	r13	;#0xff83
    38ea:	4e 43       	clr.b	r14		
    38ec:	7f 40 2b 00 	mov.b	#43,	r15	;#0x002b
    38f0:	b0 12 54 33 	call	#0x3354	
}
    38f4:	38 41       	pop	r8		
    38f6:	39 41       	pop	r9		
    38f8:	3a 41       	pop	r10		
    38fa:	3b 41       	pop	r11		
    38fc:	30 41       	ret			

000038fe <lcd_newline>:

void lcd_newline(void)
{
    if (++LCDLineCount == LCD_NLINE){
    38fe:	5f 42 02 11 	mov.b	&0x1102,r15	
    3902:	5f 53       	inc.b	r15		
    3904:	c2 4f 02 11 	mov.b	r15,	&0x1102	
    3908:	7f 90 10 00 	cmp.b	#16,	r15	;#0x0010
    390c:	02 20       	jnz	$+6      	;abs 0x3912
        LCDLineCount = 0; 
    390e:	c2 43 02 11 	mov.b	#0,	&0x1102	;r3 As==00
    }
    LCDCharCount = 0;
    3912:	c2 43 04 11 	mov.b	#0,	&0x1104	;r3 As==00
}
    3916:	30 41       	ret			

00003918 <lcd_goto>:

void lcd_goto(unsigned char x, unsigned char y)
{
    if (x > LCD_NCHAR-1) x = 0;
    3918:	7f 90 15 00 	cmp.b	#21,	r15	;#0x0015
    391c:	01 28       	jnc	$+4      	;abs 0x3920
    391e:	4f 43       	clr.b	r15		
    if (y > LCD_NLINE-1) y = 0;
    3920:	7e 90 10 00 	cmp.b	#16,	r14	;#0x0010
    3924:	01 28       	jnc	$+4      	;abs 0x3928
    3926:	4e 43       	clr.b	r14		
    
    LCDCharCount = x;
    3928:	c2 4f 04 11 	mov.b	r15,	&0x1104	
    LCDLineCount = y;
    392c:	c2 4e 02 11 	mov.b	r14,	&0x1102	
}
    3930:	30 41       	ret			

00003932 <lcd_wrchar>:

void lcd_wrchar(unsigned char c)
{
    3932:	0b 12       	push	r11		
    3934:	0a 12       	push	r10		
    3936:	09 12       	push	r9		
    3938:	08 12       	push	r8		
    393a:	07 12       	push	r7		
    393c:	4b 4f       	mov.b	r15,	r11	
  unsigned int j;
  unsigned char i, k, v, mask;

  // Posiciona área para copiar...
  i=6*LCDCharCount;
    393e:	5e 42 04 11 	mov.b	&0x1104,r14	
    3942:	4e 5e       	rla.b	r14		
    3944:	5e 52 04 11 	add.b	&0x1104,r14	
    3948:	4e 5e       	rla.b	r14		
  n6100_sendcom2(0x2a, i, i+5);
    394a:	4d 4e       	mov.b	r14,	r13	
    394c:	7d 50 05 00 	add.b	#5,	r13	;#0x0005
    3950:	7f 40 2a 00 	mov.b	#42,	r15	;#0x002a
    3954:	b0 12 54 33 	call	#0x3354	
  i=8*(LCDLineCount)+2;
    3958:	5e 42 02 11 	mov.b	&0x1102,r14	
    395c:	4e 5e       	rla.b	r14		
    395e:	4e 5e       	rla.b	r14		
    3960:	4e 5e       	rla.b	r14		
  n6100_sendcom2(0x2b, i, i+7);
    3962:	4d 4e       	mov.b	r14,	r13	
    3964:	7d 50 09 00 	add.b	#9,	r13	;#0x0009
    3968:	6e 53       	incd.b	r14		
    396a:	7f 40 2b 00 	mov.b	#43,	r15	;#0x002b
    396e:	b0 12 54 33 	call	#0x3354	

  // Rotina de escrita na memória...
  mask = 0x01;
  n6100_send(0x2c,2);
    3972:	6e 43       	mov.b	#2,	r14	;r3 As==10
    3974:	7f 40 2c 00 	mov.b	#44,	r15	;#0x002c
    3978:	b0 12 d6 32 	call	#0x32d6	
    397c:	4f 4b       	mov.b	r11,	r15	
    397e:	09 4f       	mov	r15,	r9	
    3980:	09 59       	rla	r9		
    3982:	09 59       	rla	r9		
    3984:	09 5f       	add	r15,	r9	
    3986:	78 42       	mov.b	#8,	r8	;r2 As==11
  n6100_sendcom2(0x2a, i, i+5);
  i=8*(LCDLineCount)+2;
  n6100_sendcom2(0x2b, i, i+7);

  // Rotina de escrita na memória...
  mask = 0x01;
    3988:	5a 43       	mov.b	#1,	r10	;r3 As==01
    398a:	07 49       	mov	r9,	r7	
    398c:	37 50 12 3b 	add	#15122,	r7	;#0x3b12
    3990:	39 50 17 3b 	add	#15127,	r9	;#0x3b17
    
    LCDCharCount = x;
    LCDLineCount = y;
}

void lcd_wrchar(unsigned char c)
    3994:	0b 47       	mov	r7,	r11	
  {
    j = (unsigned int) c * 5;
    for (i=0; i<5; i++)
    {
      v = asciitable[j];
      if(v & mask) n6100_send((unsigned char)LCDForeColor,0); else n6100_send((unsigned char)LCDBackColor,0);
    3996:	4e 4a       	mov.b	r10,	r14	
    3998:	6e fb       	and.b	@r11,	r14	
    399a:	11 24       	jz	$+36     	;abs 0x39be
    399c:	4e 43       	clr.b	r14		
    399e:	5f 42 06 11 	mov.b	&0x1106,r15	
    39a2:	b0 12 d6 32 	call	#0x32d6	
    39a6:	1b 53       	inc	r11		
  n6100_send(0x2c,2);

  for (k=0; k<8; k++)
  {
    j = (unsigned int) c * 5;
    for (i=0; i<5; i++)
    39a8:	0b 99       	cmp	r9,	r11	
    39aa:	f5 23       	jnz	$-20     	;abs 0x3996
    {
      v = asciitable[j];
      if(v & mask) n6100_send((unsigned char)LCDForeColor,0); else n6100_send((unsigned char)LCDBackColor,0);
      j += 1;
    }
    n6100_send((unsigned char)LCDBackColor,0);
    39ac:	4e 43       	clr.b	r14		
    39ae:	5f 42 00 11 	mov.b	&0x1100,r15	
    39b2:	b0 12 d6 32 	call	#0x32d6	
    39b6:	78 53       	add.b	#-1,	r8	;r3 As==11

  // Rotina de escrita na memória...
  mask = 0x01;
  n6100_send(0x2c,2);

  for (k=0; k<8; k++)
    39b8:	07 24       	jz	$+16     	;abs 0x39c8
      v = asciitable[j];
      if(v & mask) n6100_send((unsigned char)LCDForeColor,0); else n6100_send((unsigned char)LCDBackColor,0);
      j += 1;
    }
    n6100_send((unsigned char)LCDBackColor,0);
    mask <<= 1;
    39ba:	4a 5a       	rla.b	r10		
    39bc:	eb 3f       	jmp	$-40     	;abs 0x3994
  {
    j = (unsigned int) c * 5;
    for (i=0; i<5; i++)
    {
      v = asciitable[j];
      if(v & mask) n6100_send((unsigned char)LCDForeColor,0); else n6100_send((unsigned char)LCDBackColor,0);
    39be:	5f 42 00 11 	mov.b	&0x1100,r15	
    39c2:	b0 12 d6 32 	call	#0x32d6	
    39c6:	ef 3f       	jmp	$-32     	;abs 0x39a6
      j += 1;
    }
    n6100_send((unsigned char)LCDBackColor,0);
    mask <<= 1;
  }
}
    39c8:	37 41       	pop	r7		
    39ca:	38 41       	pop	r8		
    39cc:	39 41       	pop	r9		
    39ce:	3a 41       	pop	r10		
    39d0:	3b 41       	pop	r11		
    39d2:	30 41       	ret			

000039d4 <lcd_putchar>:

void lcd_putchar(unsigned char c)
{
    39d4:	4e 4f       	mov.b	r15,	r14	
  switch (c)
    39d6:	7f 90 0a 00 	cmp.b	#10,	r15	;#0x000a
    39da:	1c 24       	jz	$+58     	;abs 0x3a14
    39dc:	7f 90 0d 00 	cmp.b	#13,	r15	;#0x000d
    39e0:	23 24       	jz	$+72     	;abs 0x3a28
  {
    case 10 : lcd_newline();
              break;
    case 13 : LCDCharCount = 0;
              break;
    default : if (LCDCharCount++ < LCD_NCHAR) lcd_wrchar(c);
    39e2:	5d 42 04 11 	mov.b	&0x1104,r13	
    39e6:	4c 4d       	mov.b	r13,	r12	
    39e8:	5c 53       	inc.b	r12		
    39ea:	c2 4c 04 11 	mov.b	r12,	&0x1104	
    39ee:	7d 90 15 00 	cmp.b	#21,	r13	;#0x0015
    39f2:	20 28       	jnc	$+66     	;abs 0x3a34
    n6100_sendcom2(0x2b, 0, 0x83);
}

void lcd_newline(void)
{
    if (++LCDLineCount == LCD_NLINE){
    39f4:	5f 42 02 11 	mov.b	&0x1102,r15	
    39f8:	5f 53       	inc.b	r15		
    39fa:	c2 4f 02 11 	mov.b	r15,	&0x1102	
    39fe:	7f 90 10 00 	cmp.b	#16,	r15	;#0x0010
    3a02:	15 24       	jz	$+44     	;abs 0x3a2e
        LCDLineCount = 0; 
    }
    LCDCharCount = 0;
    3a04:	c2 43 04 11 	mov.b	#0,	&0x1104	;r3 As==00
              break;
    default : if (LCDCharCount++ < LCD_NCHAR) lcd_wrchar(c);
              else
              {
                lcd_newline();
                lcd_wrchar(c);
    3a08:	4f 4e       	mov.b	r14,	r15	
    3a0a:	b0 12 32 39 	call	#0x3932	
                LCDCharCount++;
    3a0e:	d2 53 04 11 	inc.b	&0x1104	
    3a12:	30 41       	ret			
    n6100_sendcom2(0x2b, 0, 0x83);
}

void lcd_newline(void)
{
    if (++LCDLineCount == LCD_NLINE){
    3a14:	5f 42 02 11 	mov.b	&0x1102,r15	
    3a18:	5f 53       	inc.b	r15		
    3a1a:	c2 4f 02 11 	mov.b	r15,	&0x1102	
    3a1e:	7f 90 10 00 	cmp.b	#16,	r15	;#0x0010
    3a22:	02 20       	jnz	$+6      	;abs 0x3a28
        LCDLineCount = 0; 
    3a24:	c2 43 02 11 	mov.b	#0,	&0x1102	;r3 As==00
{
  switch (c)
  {
    case 10 : lcd_newline();
              break;
    case 13 : LCDCharCount = 0;
    3a28:	c2 43 04 11 	mov.b	#0,	&0x1104	;r3 As==00
              break;
    3a2c:	30 41       	ret			
}

void lcd_newline(void)
{
    if (++LCDLineCount == LCD_NLINE){
        LCDLineCount = 0; 
    3a2e:	c2 43 02 11 	mov.b	#0,	&0x1102	;r3 As==00
    3a32:	e8 3f       	jmp	$-46     	;abs 0x3a04
  {
    case 10 : lcd_newline();
              break;
    case 13 : LCDCharCount = 0;
              break;
    default : if (LCDCharCount++ < LCD_NCHAR) lcd_wrchar(c);
    3a34:	b0 12 32 39 	call	#0x3932	
    3a38:	30 41       	ret			

00003a3a <putchar>:
                         };

// printf para LCDNOKIA
int putchar(int c)
{
    lcd_putchar(c);
    3a3a:	b0 12 d4 39 	call	#0x39d4	
    return 0;
}
    3a3e:	0f 43       	clr	r15		
    3a40:	30 41       	ret			

00003a42 <lcd_drawprogressbar>:
                LCDCharCount++;
              }
  }
}

void lcd_drawprogressbar(int x, int y, int lx, int ly, unsigned char color, unsigned char colorprogress, int percent){
    3a42:	0b 12       	push	r11		
    3a44:	0a 12       	push	r10		
    3a46:	09 12       	push	r9		
    3a48:	08 12       	push	r8		
    3a4a:	07 12       	push	r7		
    3a4c:	08 4e       	mov	r14,	r8	
    3a4e:	09 4d       	mov	r13,	r9	
    if(ly < 1 || lx < 1){
    3a50:	0d 43       	clr	r13		
    3a52:	0d 9c       	cmp	r12,	r13	
    3a54:	2f 34       	jge	$+96     	;abs 0x3ab4
    3a56:	0d 99       	cmp	r9,	r13	
    3a58:	2d 34       	jge	$+92     	;abs 0x3ab4
    3a5a:	1d 41 10 00 	mov	16(r1),	r13	;0x0010(r1)
    3a5e:	3e 40 64 00 	mov	#100,	r14	;#0x0064
    3a62:	0e 9d       	cmp	r13,	r14	
    3a64:	2f 38       	jl	$+96     	;abs 0x3ac4
            if(percent > 100){
                percent = 100;
            }
        }
        int lx_progress = (lx * percent) / 100;
        lcd_fillrect(x, y, lx_progress, ly, color);
    3a66:	47 4c       	mov.b	r12,	r7	
        else{
            if(percent > 100){
                percent = 100;
            }
        }
        int lx_progress = (lx * percent) / 100;
    3a68:	0d 93       	tst	r13		
    3a6a:	2a 38       	jl	$+86     	;abs 0x3ac0
    3a6c:	02 12       	push	r2		
    3a6e:	32 c2       	dint			
    3a70:	03 43       	nop			
    3a72:	82 4d 32 01 	mov	r13,	&0x0132	
    3a76:	82 49 38 01 	mov	r9,	&0x0138	
    3a7a:	1d 42 3a 01 	mov	&0x013a,r13	
    3a7e:	32 41       	pop	r2		
    3a80:	0c 4d       	mov	r13,	r12	
    3a82:	3a 40 64 00 	mov	#100,	r10	;#0x0064
    3a86:	b0 12 06 48 	call	#0x4806	
    3a8a:	0d 4c       	mov	r12,	r13	
        lcd_fillrect(x, y, lx_progress, ly, color);
    3a8c:	4b 4c       	mov.b	r12,	r11	
    3a8e:	4a 4f       	mov.b	r15,	r10	
    3a90:	51 12 0e 00 	push.b	14(r1)		;0x000e(r1)
    3a94:	4c 47       	mov.b	r7,	r12	
    3a96:	4e 48       	mov.b	r8,	r14	
    3a98:	b0 12 7a 33 	call	#0x337a	
    3a9c:	21 53       	incd	r1		
        lcd_fillrect(x + lx_progress, y, lx - lx_progress, ly, colorprogress);
    3a9e:	51 12 10 00 	push.b	16(r1)		;0x0010(r1)
    3aa2:	4c 47       	mov.b	r7,	r12	
    3aa4:	4d 49       	mov.b	r9,	r13	
    3aa6:	4d 8b       	sub.b	r11,	r13	
    3aa8:	4e 48       	mov.b	r8,	r14	
    3aaa:	4f 4b       	mov.b	r11,	r15	
    3aac:	4f 5a       	add.b	r10,	r15	
    3aae:	b0 12 7a 33 	call	#0x337a	
    3ab2:	21 53       	incd	r1		
    }
}
    3ab4:	37 41       	pop	r7		
    3ab6:	38 41       	pop	r8		
    3ab8:	39 41       	pop	r9		
    3aba:	3a 41       	pop	r10		
    3abc:	3b 41       	pop	r11		
    3abe:	30 41       	ret			
        else{
            if(percent > 100){
                percent = 100;
            }
        }
        int lx_progress = (lx * percent) / 100;
    3ac0:	0d 43       	clr	r13		
    3ac2:	d4 3f       	jmp	$-86     	;abs 0x3a6c
              }
  }
}

void lcd_drawprogressbar(int x, int y, int lx, int ly, unsigned char color, unsigned char colorprogress, int percent){
    if(ly < 1 || lx < 1){
    3ac4:	0d 4e       	mov	r14,	r13	
            if(percent > 100){
                percent = 100;
            }
        }
        int lx_progress = (lx * percent) / 100;
        lcd_fillrect(x, y, lx_progress, ly, color);
    3ac6:	47 4c       	mov.b	r12,	r7	
        else{
            if(percent > 100){
                percent = 100;
            }
        }
        int lx_progress = (lx * percent) / 100;
    3ac8:	0d 93       	tst	r13		
    3aca:	d0 37       	jge	$-94     	;abs 0x3a6c
    3acc:	f9 3f       	jmp	$-12     	;abs 0x3ac0

00003ace <lcd_putdot>:
        lcd_fillrect(x + lx_progress, y, lx - lx_progress, ly, colorprogress);
    }
}


void lcd_putdot(int from, int to){
    3ace:	0b 12       	push	r11		
    3ad0:	0a 12       	push	r10		
    3ad2:	0b 4f       	mov	r15,	r11	
    3ad4:	0a 4e       	mov	r14,	r10	
    if(from > to) return;
    3ad6:	0e 9f       	cmp	r15,	r14	
    3ad8:	17 38       	jl	$+48     	;abs 0x3b08
    lcd_goto(from, LCDLineCount);
    3ada:	5f 42 02 11 	mov.b	&0x1102,r15	
    3ade:	4e 4b       	mov.b	r11,	r14	
    LCDCharCount = 0;
}

void lcd_goto(unsigned char x, unsigned char y)
{
    if (x > LCD_NCHAR-1) x = 0;
    3ae0:	7b 90 15 00 	cmp.b	#21,	r11	;#0x0015
    3ae4:	01 28       	jnc	$+4      	;abs 0x3ae8
    3ae6:	4e 43       	clr.b	r14		
    if (y > LCD_NLINE-1) y = 0;
    3ae8:	7f 90 10 00 	cmp.b	#16,	r15	;#0x0010
    3aec:	10 2c       	jc	$+34     	;abs 0x3b0e
    
    LCDCharCount = x;
    3aee:	c2 4e 04 11 	mov.b	r14,	&0x1104	
    LCDLineCount = y;
    3af2:	c2 4f 02 11 	mov.b	r15,	&0x1102	

void lcd_putdot(int from, int to){
    if(from > to) return;
    lcd_goto(from, LCDLineCount);
    
    while(from < to){
    3af6:	0b 9a       	cmp	r10,	r11	
    3af8:	07 34       	jge	$+16     	;abs 0x3b08
        lcd_putchar('.');
    3afa:	7f 40 2e 00 	mov.b	#46,	r15	;#0x002e
    3afe:	b0 12 d4 39 	call	#0x39d4	
        from++;
    3b02:	1b 53       	inc	r11		

void lcd_putdot(int from, int to){
    if(from > to) return;
    lcd_goto(from, LCDLineCount);
    
    while(from < to){
    3b04:	0b 9a       	cmp	r10,	r11	
    3b06:	f9 3b       	jl	$-12     	;abs 0x3afa
        lcd_putchar('.');
        from++;
    }
}
    3b08:	3a 41       	pop	r10		
    3b0a:	3b 41       	pop	r11		
    3b0c:	30 41       	ret			
}

void lcd_goto(unsigned char x, unsigned char y)
{
    if (x > LCD_NCHAR-1) x = 0;
    if (y > LCD_NLINE-1) y = 0;
    3b0e:	4f 43       	clr.b	r15		
    3b10:	ee 3f       	jmp	$-34     	;abs 0x3aee

00003b12 <asciitable>:
    3b12:	00 00       	bra	@r0		
    3b14:	00 00       	bra	@r0		
    3b16:	00 3e       	jmp	$-1022   	;abs 0x3718
    3b18:	0a 34       	jge	$+22     	;abs 0x3b2e
    3b1a:	00 3e       	jmp	$-1022   	;abs 0x371c
    3b1c:	18 3e       	jmp	$-974    	;abs 0x374e
    3b1e:	00 3e       	jmp	$-1022   	;abs 0x3720
    3b20:	22 00 3e 20 	mova	&0x0203e,r2	
    3b24:	20 00 22 1c 	bra	&0x01c22	
    3b28:	00 24       	jz	$+2      	;abs 0x3b2a
    3b2a:	2a 00 08 38 	mova	&0x03808,r10	
    3b2e:	38 08 1c 22 	mova	8732(r8),r8	;0x221c(r8)
    3b32:	22 22       	jnz	$-954    	;abs 0x3778
    3b34:	1c 00       	mova	#0x00000,r12	
    3b36:	38 38       	jl	$+114    	;abs 0x3ba8
    3b38:	44 82       	sub.b	r2,	r4	
    3b3a:	1c 3e       	jmp	$-966    	;abs 0x3774
    3b3c:	62 62       	addc.b	#4,	r2	;r2 As==10
    3b3e:	32 2e       	jc	$-922    	;abs 0x37a4
    3b40:	26 23       	jnz	$-434    	;abs 0x398e
    3b42:	23 22       	jnz	$-952    	;abs 0x378a
    3b44:	00 00       	bra	@r0		
    3b46:	00 00       	bra	@r0		
    3b48:	00 1c       	.word	0x1c00;	????	
    3b4a:	3e 36       	jge	$-898    	;abs 0x37c8
    3b4c:	22 36       	jge	$-954    	;abs 0x3792
    3b4e:	3e 3e       	jmp	$-898    	;abs 0x37cc
    3b50:	36 36       	jge	$-914    	;abs 0x37be
    3b52:	36 00 00 00 	mova	0x0000,	r6	;PC rel. 0x03b54
    3b56:	00 00       	bra	@r0		
    3b58:	18 08       	mova	@r8+,	r8	
    3b5a:	1c 22       	jnz	$-966    	;abs 0x3794
    3b5c:	22 63       	addc	#2,	r2	;r3 As==10
    3b5e:	55 4d 55 6b 	mov.b	27477(r13),r5	;0x6b55(r13)
    3b62:	00 3e       	jmp	$-1022   	;abs 0x3764
    3b64:	0a 04       	mova	@r4,	r10	
    3b66:	78 00 3e 0a 	mova	r0,	2622(r8);0x0a3e(r8)
    3b6a:	04 78       	subc	r8,	r4	
    3b6c:	00 38       	jl	$+2      	;abs 0x3b6e
    3b6e:	44 5f       	add.b	r15,	r4	
    3b70:	4e 00       	rrcm.a	#1,	r14	
    3b72:	38 44       	mov	@r4+,	r8	
    3b74:	44 5f       	add.b	r15,	r4	
    3b76:	00 3c       	jmp	$+2      	;abs 0x3b78
    3b78:	3c 3c       	jmp	$+122    	;abs 0x3bf2
    3b7a:	3c 00 3e 0a 	mova	0x0a3e,	r12	;PC rel. 0x045ba
    3b7e:	04 78       	subc	r8,	r4	
    3b80:	18 24       	jz	$+50     	;abs 0x3bb2
    3b82:	42 24       	jz	$+134    	;abs 0x3c08
    3b84:	18 18 3c 7e 	subcx	@r14+,	r12	
    3b88:	3c 18 c0 f0 	andx.a	r0,	0xcf0fc	;PC rel. 0xd2c8a
    3b8c:	fc f0 
    3b8e:	c0 03       	bra	#0		;r3 As==00
    3b90:	0f 3f       	jmp	$-480    	;abs 0x39b0
    3b92:	0f 03       	mova	#2,	r15	;r3 As==10
    3b94:	ff 7e 3c 18 	subc.b	@r14+,	6204(r15);0x183c(r15)
    3b98:	00 00       	bra	@r0		
    3b9a:	18 3c       	jmp	$+50     	;abs 0x3bcc
    3b9c:	7e ff       	and.b	@r15+,	r14	
    3b9e:	00 3c       	jmp	$+2      	;abs 0x3ba0
    3ba0:	20 00 00 08 	bra	&0x00800	
    3ba4:	14 00       	mova	#0x00000,r4	
    3ba6:	14 08       	mova	@r8+,	r4	
    3ba8:	08 0c       	mova	@r12,	r8	
    3baa:	0e 0c       	mova	@r12,	r14	
    3bac:	08 08       	mova	@r8,	r8	
    3bae:	18 38       	jl	$+50     	;abs 0x3be0
    3bb0:	18 08       	mova	@r8+,	r8	
    3bb2:	00 00       	bra	@r0		
    3bb4:	00 00       	bra	@r0		
    3bb6:	00 00       	bra	@r0		
    3bb8:	00 5f       	add	r15,	r0	
    3bba:	00 00       	bra	@r0		
    3bbc:	00 07       	bra	@r7		
    3bbe:	00 07       	bra	@r7		
    3bc0:	00 14       	pushm.a	#1,	r0	
    3bc2:	7f 14       	pushm.a	#8,	r15	
    3bc4:	7f 14       	pushm.a	#8,	r15	
    3bc6:	24 2a       	jnc	$-950    	;abs 0x3810
    3bc8:	7f 2a       	jnc	$-768    	;abs 0x38c8
    3bca:	12 23       	jnz	$-474    	;abs 0x39f0
    3bcc:	13 08       	.word	0x0813;	????	Illegal as address instr
    3bce:	64 62       	addc.b	#4,	r4	;r2 As==10
    3bd0:	36 49       	mov	@r9+,	r6	
    3bd2:	55 22       	jnz	$-852    	;abs 0x387e
    3bd4:	50 00       	rrcm	#1,	r0	
    3bd6:	05 03       	mova	#2,	r5	;r3 As==10
    3bd8:	00 00       	bra	@r0		
    3bda:	00 1c 22 41 	movx	@r1,	r2	
    3bde:	00 00       	bra	@r0		
    3be0:	41 22       	jnz	$-892    	;abs 0x3864
    3be2:	1c 00       	mova	#0x00000,r12	
    3be4:	14 08       	mova	@r8+,	r4	
    3be6:	3e 08 14 08 	mova	2068(r8),r14	;0x0814(r8)
    3bea:	08 3e       	jmp	$-1006   	;abs 0x37fc
    3bec:	08 08       	mova	@r8,	r8	
    3bee:	00 50       	rla	r0		
    3bf0:	30 00 00 08 	bra	0x0800		;PC rel. 0x043f2
    3bf4:	08 08       	mova	@r8,	r8	
    3bf6:	08 08       	mova	@r8,	r8	
    3bf8:	00 60       	rlc	r0		
    3bfa:	60 00 00 20 	mova	r0,	&0x02000
    3bfe:	10 08       	bra	@r8+		
    3c00:	04 02       	mova	#4,	r4	;r2 As==10
    3c02:	3e 51       	add	@r1+,	r14	
    3c04:	49 45       	mov.b	r5,	r9	
    3c06:	3e 00 42 7f 	mova	0x7f42,	r14	;PC rel. 0x0bb4a
    3c0a:	40 00       	rrcm.a	#1,	r0	
    3c0c:	42 61       	addc.b	r1,	r2	
    3c0e:	51 49 46 21 	mov.b	8518(r9),r1	;0x2146(r9)
    3c12:	41 45       	mov.b	r5,	r1	
    3c14:	4b 31       	jn	$+664    	;abs 0x3eac
    3c16:	18 14       	pushm.a	#2,	r8	
    3c18:	12 7f 10 27 	subc	10000(r15),r2	;0x2710(r15)
    3c1c:	45 45       	mov.b	r5,	r5	
    3c1e:	45 39       	jl	$+652    	;abs 0x3eaa
    3c20:	3c 4a       	mov	@r10+,	r12	
    3c22:	49 49       	mov.b	r9,	r9	
    3c24:	30 01 71 09 	bra	2417(r1)	;0x0971(r1)
    3c28:	05 03       	mova	#2,	r5	;r3 As==10
    3c2a:	36 49       	mov	@r9+,	r6	
    3c2c:	49 49       	mov.b	r9,	r9	
    3c2e:	36 06 49 49 	mova	18761(r6),r6	;0x4949(r6)
    3c32:	29 1e       	.word	0x1e29;	????	
    3c34:	00 36       	jge	$-1022   	;abs 0x3836
    3c36:	36 00 00 00 	mova	0x0000,	r6	;PC rel. 0x03c38
    3c3a:	56 36       	jge	$-850    	;abs 0x38e8
    3c3c:	00 00       	bra	@r0		
    3c3e:	08 14       	pushm.a	#1,	r8	
    3c40:	22 41       	mov	@r1,	r2	
    3c42:	00 14       	pushm.a	#1,	r0	
    3c44:	14 14       	pushm.a	#2,	r4	
    3c46:	14 14       	pushm.a	#2,	r4	
    3c48:	00 41       	br	r1		
    3c4a:	22 14       	pushm.a	#3,	r2	
    3c4c:	08 02       	mova	#4,	r8	;r2 As==10
    3c4e:	01 51       	rla	r1		
    3c50:	09 06       	mova	@r6,	r9	
    3c52:	32 49       	mov	@r9+,	r2	
    3c54:	79 41       	pop.b	r9		
    3c56:	3e 7e       	subc	@r14+,	r14	
    3c58:	11 11 11 7e 	rra	32273(r1)	;0x7e11(r1)
    3c5c:	7f 49       	mov.b	@r9+,	r15	
    3c5e:	49 49       	mov.b	r9,	r9	
    3c60:	36 3e       	jmp	$-914    	;abs 0x38ce
    3c62:	41 41       	mov.b	r1,	r1	
    3c64:	41 22       	jnz	$-892    	;abs 0x38e8
    3c66:	7f 41       	pop.b	r15		
    3c68:	41 22       	jnz	$-892    	;abs 0x38ec
    3c6a:	1c 7f 49 49 	subc	18761(r15),r12	;0x4949(r15)
    3c6e:	49 41       	mov.b	r1,	r9	
    3c70:	7f 09 09 09 	mova	r9,	2313(r15);0x0909(r15)
    3c74:	01 3e       	jmp	$-1020   	;abs 0x3878
    3c76:	41 49       	mov.b	r9,	r1	
    3c78:	49 7a       	subc.b	r10,	r9	
    3c7a:	7f 08 08 08 	mova	r8,	2056(r15);0x0808(r15)
    3c7e:	7f 00 41 7f 	mova	r0,	32577(r15);0x7f41(r15)
    3c82:	41 00       	rrcm.a	#1,	r1	
    3c84:	20 40       	br	@r0		
    3c86:	41 3f       	jmp	$-380    	;abs 0x3b0a
    3c88:	01 7f       	subc	r15,	r1	
    3c8a:	08 14       	pushm.a	#1,	r8	
    3c8c:	22 41       	mov	@r1,	r2	
    3c8e:	7f 40 40 40 	mov.b	#16448,	r15	;#0x4040
    3c92:	40 7f       	subc.b	r15,	r0	
    3c94:	02 0c       	mova	@r12,	r2	
    3c96:	02 7f       	subc	r15,	r2	
    3c98:	7f 04 08 10 	mova	r4,	4104(r15);0x1008(r15)
    3c9c:	7f 3e       	jmp	$-768    	;abs 0x399c
    3c9e:	41 41       	mov.b	r1,	r1	
    3ca0:	41 3e       	jmp	$-892    	;abs 0x3924
    3ca2:	7f 09 09 09 	mova	r9,	2313(r15);0x0909(r15)
    3ca6:	06 3e       	jmp	$-1010   	;abs 0x38b4
    3ca8:	41 51       	rla.b	r1		
    3caa:	21 5e       	add	@r14,	r1	
    3cac:	7f 09 19 29 	mova	r9,	10521(r15);0x2919(r15)
    3cb0:	46 46       	mov.b	r6,	r6	
    3cb2:	49 49       	mov.b	r9,	r9	
    3cb4:	49 31       	jn	$+660    	;abs 0x3f48
    3cb6:	01 01       	mova	@r1,	r1	
    3cb8:	7f 01 01 3f 	mova	r1,	16129(r15);0x3f01(r15)
    3cbc:	40 40       	br	r0		
    3cbe:	40 3f       	jmp	$-382    	;abs 0x3b40
    3cc0:	1f 20       	jnz	$+64     	;abs 0x3d00
    3cc2:	40 20       	jnz	$+130    	;abs 0x3d44
    3cc4:	1f 3f       	jmp	$-448    	;abs 0x3b04
    3cc6:	40 38       	jl	$+130    	;abs 0x3d48
    3cc8:	40 3f       	jmp	$-382    	;abs 0x3b4a
    3cca:	63 14       	pushm.a	#7,	#0	;r3 As==00
    3ccc:	08 14       	pushm.a	#1,	r8	
    3cce:	63 07 08 70 	mova	r7,	&0x37008
    3cd2:	08 07       	mova	@r7,	r8	
    3cd4:	61 51       	add.b	@r1,	r1	
    3cd6:	49 45       	mov.b	r5,	r9	
    3cd8:	43 00       	rrcm.a	#1,	#0	;r3 As==00
    3cda:	7f 41       	pop.b	r15		
    3cdc:	41 00       	rrcm.a	#1,	r1	
    3cde:	02 04       	mova	@r4,	r2	
    3ce0:	08 10       	rrc	r8		
    3ce2:	20 00 41 41 	bra	&0x04141	
    3ce6:	7f 00 04 02 	mova	r0,	516(r15);0x0204(r15)
    3cea:	01 02       	mova	#4,	r1	;r2 As==10
    3cec:	04 40       	mov	r0,	r4	
    3cee:	40 40       	br	r0		
    3cf0:	40 40       	br	r0		
    3cf2:	00 01       	bra	@r1		
    3cf4:	02 04       	mova	@r4,	r2	
    3cf6:	00 20       	jnz	$+2      	;abs 0x3cf8
    3cf8:	54 54 54 78 	add.b	30804(r4),r4	;0x7854(r4)
    3cfc:	7f 48       	mov.b	@r8+,	r15	
    3cfe:	44 44       	mov.b	r4,	r4	
    3d00:	38 38       	jl	$+114    	;abs 0x3d72
    3d02:	44 44       	mov.b	r4,	r4	
    3d04:	44 20       	jnz	$+138    	;abs 0x3d8e
    3d06:	38 44       	mov	@r4+,	r8	
    3d08:	44 48       	mov.b	r8,	r4	
    3d0a:	7f 38       	jl	$+256    	;abs 0x3e0a
    3d0c:	54 54 54 18 	add.b	6228(r4),r4	;0x1854(r4)
    3d10:	08 7e       	subc	r14,	r8	
    3d12:	09 01       	mova	@r1,	r9	
    3d14:	02 0c       	mova	@r12,	r2	
    3d16:	52 52 52 3e 	add.b	&0x3e52,r2	
    3d1a:	7f 08 04 04 	mova	r8,	1028(r15);0x0404(r15)
    3d1e:	78 00 44 7d 	mova	r0,	32068(r8);0x7d44(r8)
    3d22:	40 00       	rrcm.a	#1,	r0	
    3d24:	20 40       	br	@r0		
    3d26:	44 3d       	jmp	$+650    	;abs 0x3fb0
    3d28:	00 7f       	subc	r15,	r0	
    3d2a:	10 28       	jnc	$+34     	;abs 0x3d4c
    3d2c:	44 00       	rrcm.a	#1,	r4	
    3d2e:	00 41       	br	r1		
    3d30:	7f 40 00 7c 	mov.b	#31744,	r15	;#0x7c00
    3d34:	04 18 04 78 	.rpt	#4
				subcx	r8,	r4	
    3d38:	7c 08 04 04 	mova	r8,	1028(r12);0x0404(r12)
    3d3c:	78 38       	jl	$+242    	;abs 0x3e2e
    3d3e:	44 44       	mov.b	r4,	r4	
    3d40:	44 38       	jl	$+138    	;abs 0x3dca
    3d42:	7c 14       	pushm.a	#8,	r12	
    3d44:	14 14       	pushm.a	#2,	r4	
    3d46:	08 08       	mova	@r8,	r8	
    3d48:	14 14       	pushm.a	#2,	r4	
    3d4a:	18 7c 7c 08 	subc	2172(r12),r8	;0x087c(r12)
    3d4e:	04 04       	mova	@r4,	r4	
    3d50:	08 48       	mov	r8,	r8	
    3d52:	54 54 54 20 	add.b	8276(r4),r4	;0x2054(r4)
    3d56:	04 3f       	jmp	$-502    	;abs 0x3b60
    3d58:	44 40       	mov.b	r0,	r4	
    3d5a:	20 3c       	jmp	$+66     	;abs 0x3d9c
    3d5c:	40 40       	br	r0		
    3d5e:	20 7c       	subc	@r12,	r0	
    3d60:	1c 20       	jnz	$+58     	;abs 0x3d9a
    3d62:	40 20       	jnz	$+130    	;abs 0x3de4
    3d64:	1c 3c       	jmp	$+58     	;abs 0x3d9e
    3d66:	40 30       	jn	$+130    	;abs 0x3de8
    3d68:	40 3c       	jmp	$+130    	;abs 0x3dea
    3d6a:	44 28       	jnc	$+138    	;abs 0x3df4
    3d6c:	10 28       	jnc	$+34     	;abs 0x3d8e
    3d6e:	44 0c       	rrcm.a	#4,	r4	
    3d70:	50 50 50 3c 	add.b	0x3c50,	r0	;PC rel. 0x079c4
    3d74:	44 64       	rlc.b	r4		
    3d76:	54 4c 44 00 	mov.b	68(r12),r4	;0x0044(r12)
    3d7a:	00 36       	jge	$-1022   	;abs 0x397c
    3d7c:	41 00       	rrcm.a	#1,	r1	
    3d7e:	00 00       	bra	@r0		
    3d80:	7f 00 00 00 	mova	r0,	0(r15)	;0x0000(r15)
    3d84:	41 36       	jge	$-892    	;abs 0x3a08
    3d86:	08 00       	mova	@r0,	r8	
    3d88:	10 08       	bra	@r8+		
    3d8a:	08 10       	rrc	r8		
    3d8c:	08 78       	subc	r8,	r8	
    3d8e:	46 41       	mov.b	r1,	r6	
    3d90:	46 78       	subc.b	r8,	r6	

00003d92 <i2c_change_address>:
  i2c_slave_address = slave_addr;
}

void i2c_change_address( char slave_addr)
{
  i2c_slave_address = slave_addr;
    3d92:	c2 4f 01 11 	mov.b	r15,	&0x1101	
}
    3d96:	30 41       	ret			

00003d98 <i2c_init>:

void i2c_init(void)
{
  SDA_OUT();
    3d98:	f2 d0 05 00 	bis.b	#5,	&0x0022	;#0x0005
    3d9c:	22 00 
  sda_on;
    3d9e:	e2 d2 21 00 	bis.b	#4,	&0x0021	;r2 As==10
  scl_on;
    3da2:	d2 d3 21 00 	bis.b	#1,	&0x0021	;r3 As==01
  delay5us();
    3da6:	b0 12 82 32 	call	#0x3282	
}
    3daa:	30 41       	ret			

00003dac <i2c_config>:
// ****************************************************************
// ** P R I M I T I V A S                                        **
// ****************************************************************
//
void i2c_config( char slave_addr)
{
    3dac:	0b 12       	push	r11		
    3dae:	4b 4f       	mov.b	r15,	r11	
  i2c_init();
    3db0:	b0 12 98 3d 	call	#0x3d98	
  i2c_slave_address = slave_addr;
    3db4:	c2 4b 01 11 	mov.b	r11,	&0x1101	
}
    3db8:	3b 41       	pop	r11		
    3dba:	30 41       	ret			

00003dbc <i2c_start>:
  delay5us();
}

void i2c_start(void)
{
  sda_on;
    3dbc:	e2 d2 21 00 	bis.b	#4,	&0x0021	;r2 As==10
  delay5us();
    3dc0:	b0 12 82 32 	call	#0x3282	
  scl_on;
    3dc4:	d2 d3 21 00 	bis.b	#1,	&0x0021	;r3 As==01
  delay5us();
    3dc8:	b0 12 82 32 	call	#0x3282	

  sda_off;
    3dcc:	f2 f0 fb ff 	and.b	#-5,	&0x0021	;#0xfffb
    3dd0:	21 00 
  delay5us();
    3dd2:	b0 12 82 32 	call	#0x3282	
  scl_off;
    3dd6:	f2 f0 fe ff 	and.b	#-2,	&0x0021	;#0xfffe
    3dda:	21 00 
  delay5us();
    3ddc:	b0 12 82 32 	call	#0x3282	
}
    3de0:	30 41       	ret			

00003de2 <i2c_stop>:

void i2c_stop(void)
{
  sda_off;
    3de2:	f2 f0 fb ff 	and.b	#-5,	&0x0021	;#0xfffb
    3de6:	21 00 
  delay5us();
    3de8:	b0 12 82 32 	call	#0x3282	
  scl_on;
    3dec:	d2 d3 21 00 	bis.b	#1,	&0x0021	;r3 As==01
  delay5us();
    3df0:	b0 12 82 32 	call	#0x3282	
  sda_on;
    3df4:	e2 d2 21 00 	bis.b	#4,	&0x0021	;r2 As==10
  delay5us();
    3df8:	b0 12 82 32 	call	#0x3282	
}
    3dfc:	30 41       	ret			

00003dfe <i2c_recv_ack>:

 char i2c_recv_ack(void)
{
    3dfe:	0b 12       	push	r11		
   char i;

  SDA_IN();
    3e00:	f2 f0 fb ff 	and.b	#-5,	&0x0022	;#0xfffb
    3e04:	22 00 
  delay5us();
    3e06:	b0 12 82 32 	call	#0x3282	
  scl_on;
    3e0a:	d2 d3 21 00 	bis.b	#1,	&0x0021	;r3 As==01
  delay5us();
    3e0e:	b0 12 82 32 	call	#0x3282	
  if(sda_test) i=1; else i=0;
    3e12:	5b 42 20 00 	mov.b	&0x0020,r11	
  delay5us();
    3e16:	b0 12 82 32 	call	#0x3282	
  scl_off;
    3e1a:	f2 f0 fe ff 	and.b	#-2,	&0x0021	;#0xfffe
    3e1e:	21 00 
  delay5us();
    3e20:	b0 12 82 32 	call	#0x3282	
  SDA_OUT();
    3e24:	f2 d0 05 00 	bis.b	#5,	&0x0022	;#0x0005
    3e28:	22 00 

  SDA_IN();
  delay5us();
  scl_on;
  delay5us();
  if(sda_test) i=1; else i=0;
    3e2a:	0e 4b       	mov	r11,	r14	
    3e2c:	2e f2       	and	#4,	r14	;r2 As==10
    3e2e:	5f 43       	mov.b	#1,	r15	;r3 As==01
    3e30:	0e 93       	tst	r14		
    3e32:	02 24       	jz	$+6      	;abs 0x3e38
  scl_off;
  delay5us();
  SDA_OUT();

  return i;
}
    3e34:	3b 41       	pop	r11		
    3e36:	30 41       	ret			

  SDA_IN();
  delay5us();
  scl_on;
  delay5us();
  if(sda_test) i=1; else i=0;
    3e38:	4f 4e       	mov.b	r14,	r15	
  scl_off;
  delay5us();
  SDA_OUT();

  return i;
}
    3e3a:	3b 41       	pop	r11		
    3e3c:	30 41       	ret			

00003e3e <i2c_send_ack>:

void i2c_send_ack( char confirmation)
{
  SDA_OUT();
    3e3e:	f2 d0 05 00 	bis.b	#5,	&0x0022	;#0x0005
    3e42:	22 00 
  if(confirmation) sda_on; else sda_off;
    3e44:	4f 93       	tst.b	r15		
    3e46:	10 20       	jnz	$+34     	;abs 0x3e68
    3e48:	f2 f0 fb ff 	and.b	#-5,	&0x0021	;#0xfffb
    3e4c:	21 00 
  scl_on;
    3e4e:	d2 d3 21 00 	bis.b	#1,	&0x0021	;r3 As==01
  delay5us();
    3e52:	b0 12 82 32 	call	#0x3282	
  scl_off;
    3e56:	f2 f0 fe ff 	and.b	#-2,	&0x0021	;#0xfffe
    3e5a:	21 00 
  delay5us();
    3e5c:	b0 12 82 32 	call	#0x3282	
  sda_off;
    3e60:	f2 f0 fb ff 	and.b	#-5,	&0x0021	;#0xfffb
    3e64:	21 00 
}
    3e66:	30 41       	ret			
}

void i2c_send_ack( char confirmation)
{
  SDA_OUT();
  if(confirmation) sda_on; else sda_off;
    3e68:	e2 d2 21 00 	bis.b	#4,	&0x0021	;r2 As==10
    3e6c:	f0 3f       	jmp	$-30     	;abs 0x3e4e

00003e6e <i2c_bwrite>:
  delay5us();
  sda_off;
}

void i2c_bwrite( char b)
{
    3e6e:	0b 12       	push	r11		
    3e70:	0a 12       	push	r10		
    3e72:	09 12       	push	r9		
    3e74:	49 4f       	mov.b	r15,	r9	
   char mask = 0x80;
   char i;

  SDA_OUT();
    3e76:	f2 d0 05 00 	bis.b	#5,	&0x0022	;#0x0005
    3e7a:	22 00 
    3e7c:	7b 42       	mov.b	#8,	r11	;r2 As==11
  sda_off;
}

void i2c_bwrite( char b)
{
   char mask = 0x80;
    3e7e:	7a 40 80 ff 	mov.b	#-128,	r10	;#0xff80
    3e82:	10 3c       	jmp	$+34     	;abs 0x3ea4
   char i;

  SDA_OUT();
  for (i=0; i<8; i++)
  {
    if(b & mask) sda_on; else sda_off;
    3e84:	e2 d2 21 00 	bis.b	#4,	&0x0021	;r2 As==10
    delay5us();
    3e88:	b0 12 82 32 	call	#0x3282	
    scl_on;
    3e8c:	d2 d3 21 00 	bis.b	#1,	&0x0021	;r3 As==01
    delay5us();
    3e90:	b0 12 82 32 	call	#0x3282	
    scl_off;
    3e94:	f2 f0 fe ff 	and.b	#-2,	&0x0021	;#0xfffe
    3e98:	21 00 
    delay5us();
    3e9a:	b0 12 82 32 	call	#0x3282	
    3e9e:	7b 53       	add.b	#-1,	r11	;r3 As==11
{
   char mask = 0x80;
   char i;

  SDA_OUT();
  for (i=0; i<8; i++)
    3ea0:	08 24       	jz	$+18     	;abs 0x3eb2
    delay5us();
    scl_on;
    delay5us();
    scl_off;
    delay5us();
    mask >>= 1;
    3ea2:	4a 11       	rra.b	r10		
   char i;

  SDA_OUT();
  for (i=0; i<8; i++)
  {
    if(b & mask) sda_on; else sda_off;
    3ea4:	4e 4a       	mov.b	r10,	r14	
    3ea6:	4e f9       	and.b	r9,	r14	
    3ea8:	ed 23       	jnz	$-36     	;abs 0x3e84
    3eaa:	f2 f0 fb ff 	and.b	#-5,	&0x0021	;#0xfffb
    3eae:	21 00 
    3eb0:	eb 3f       	jmp	$-40     	;abs 0x3e88
    delay5us();
    scl_off;
    delay5us();
    mask >>= 1;
  }
}
    3eb2:	39 41       	pop	r9		
    3eb4:	3a 41       	pop	r10		
    3eb6:	3b 41       	pop	r11		
    3eb8:	30 41       	ret			

00003eba <i2c_bread>:

 char i2c_bread(void)
{
    3eba:	0b 12       	push	r11		
    3ebc:	0a 12       	push	r10		
   char i;
   char bin = 0;

  SDA_IN();
    3ebe:	f2 f0 fb ff 	and.b	#-5,	&0x0022	;#0xfffb
    3ec2:	22 00 
    3ec4:	7a 42       	mov.b	#8,	r10	;r2 As==11
}

 char i2c_bread(void)
{
   char i;
   char bin = 0;
    3ec6:	4b 43       	clr.b	r11		

  SDA_IN();
  for (i=0; i<8; i++)
  {
    bin <<= 1;
    3ec8:	8b 11       	sxt	r11		
    3eca:	4b 5b       	rla.b	r11		
    scl_on;
    3ecc:	d2 d3 21 00 	bis.b	#1,	&0x0021	;r3 As==01
    delay5us();
    3ed0:	b0 12 82 32 	call	#0x3282	
    if (sda_test) bin += 1;
    3ed4:	5e 42 20 00 	mov.b	&0x0020,r14	
    3ed8:	2e f2       	and	#4,	r14	;r2 As==10
    3eda:	01 24       	jz	$+4      	;abs 0x3ede
    3edc:	5b 53       	inc.b	r11		
    delay5us();
    3ede:	b0 12 82 32 	call	#0x3282	
    scl_off;
    3ee2:	f2 f0 fe ff 	and.b	#-2,	&0x0021	;#0xfffe
    3ee6:	21 00 
    delay5us();
    3ee8:	b0 12 82 32 	call	#0x3282	
    3eec:	7a 53       	add.b	#-1,	r10	;r3 As==11
{
   char i;
   char bin = 0;

  SDA_IN();
  for (i=0; i<8; i++)
    3eee:	ec 23       	jnz	$-38     	;abs 0x3ec8
    scl_off;
    delay5us();
  }

  return bin;
}
    3ef0:	4f 4b       	mov.b	r11,	r15	
    3ef2:	3a 41       	pop	r10		
    3ef4:	3b 41       	pop	r11		
    3ef6:	30 41       	ret			

00003ef8 <i2c_find_device>:
// ****************************************************************
// ** F U N Ç Õ E S  D E R I V A D A S                           **
// ****************************************************************
//
 char i2c_find_device(void)
{
    3ef8:	21 83       	decd	r1		
   char status = 0;

  i2c_start();
    3efa:	b0 12 bc 3d 	call	#0x3dbc	
  i2c_bwrite(i2c_slave_address);
    3efe:	5f 42 01 11 	mov.b	&0x1101,r15	
    3f02:	b0 12 6e 3e 	call	#0x3e6e	
  status = i2c_recv_ack();
    3f06:	b0 12 fe 3d 	call	#0x3dfe	
  i2c_stop();
    3f0a:	81 4f 00 00 	mov	r15,	0(r1)	;0x0000(r1)
    3f0e:	b0 12 e2 3d 	call	#0x3de2	

  return status;
}
    3f12:	2f 41       	mov	@r1,	r15	
    3f14:	21 53       	incd	r1		
    3f16:	30 41       	ret			

00003f18 <i2c_write_dummy>:

 char i2c_write_dummy( char b)
{
    3f18:	21 83       	decd	r1		
   char status = 0;

  i2c_start();
    3f1a:	81 4f 00 00 	mov	r15,	0(r1)	;0x0000(r1)
    3f1e:	b0 12 bc 3d 	call	#0x3dbc	
  i2c_bwrite(b);
    3f22:	2f 41       	mov	@r1,	r15	
    3f24:	b0 12 6e 3e 	call	#0x3e6e	
  status = i2c_recv_ack();
    3f28:	b0 12 fe 3d 	call	#0x3dfe	
  i2c_stop();
    3f2c:	81 4f 00 00 	mov	r15,	0(r1)	;0x0000(r1)
    3f30:	b0 12 e2 3d 	call	#0x3de2	

  return status;
}
    3f34:	2f 41       	mov	@r1,	r15	
    3f36:	21 53       	incd	r1		
    3f38:	30 41       	ret			

00003f3a <i2c_write_byte>:

 char i2c_write_byte( char reg,  char dat)
{
    3f3a:	0b 12       	push	r11		
    3f3c:	0a 12       	push	r10		
    3f3e:	09 12       	push	r9		
    3f40:	49 4f       	mov.b	r15,	r9	
    3f42:	4b 4e       	mov.b	r14,	r11	
   char status = 0;

  i2c_start();
    3f44:	b0 12 bc 3d 	call	#0x3dbc	
  i2c_bwrite(i2c_slave_address);
    3f48:	5f 42 01 11 	mov.b	&0x1101,r15	
    3f4c:	b0 12 6e 3e 	call	#0x3e6e	
  status += i2c_recv_ack();
    3f50:	b0 12 fe 3d 	call	#0x3dfe	
    3f54:	4a 4f       	mov.b	r15,	r10	
  i2c_bwrite(reg);
    3f56:	4f 49       	mov.b	r9,	r15	
    3f58:	b0 12 6e 3e 	call	#0x3e6e	
  status += i2c_recv_ack();
    3f5c:	b0 12 fe 3d 	call	#0x3dfe	
    3f60:	49 4f       	mov.b	r15,	r9	
  i2c_bwrite(dat);
    3f62:	4f 4b       	mov.b	r11,	r15	
    3f64:	b0 12 6e 3e 	call	#0x3e6e	
  status += i2c_recv_ack();
    3f68:	b0 12 fe 3d 	call	#0x3dfe	
    3f6c:	4b 4f       	mov.b	r15,	r11	
  i2c_stop();
    3f6e:	b0 12 e2 3d 	call	#0x3de2	

  i2c_start();
  i2c_bwrite(i2c_slave_address);
  status += i2c_recv_ack();
  i2c_bwrite(reg);
  status += i2c_recv_ack();
    3f72:	4e 49       	mov.b	r9,	r14	
    3f74:	4e 5a       	add.b	r10,	r14	
  i2c_bwrite(dat);
  status += i2c_recv_ack();
  i2c_stop();

  return status;
}
    3f76:	4f 4e       	mov.b	r14,	r15	
    3f78:	4f 5b       	add.b	r11,	r15	
    3f7a:	39 41       	pop	r9		
    3f7c:	3a 41       	pop	r10		
    3f7e:	3b 41       	pop	r11		
    3f80:	30 41       	ret			

00003f82 <i2c_write_multiples>:

char i2c_write_multiples( char reg,  char dat[],  int len)
{
    3f82:	0b 12       	push	r11		
    3f84:	0a 12       	push	r10		
    3f86:	09 12       	push	r9		
    3f88:	08 12       	push	r8		
    3f8a:	48 4f       	mov.b	r15,	r8	
    3f8c:	09 4e       	mov	r14,	r9	
    3f8e:	0a 4d       	mov	r13,	r10	
  int i = 0, status = 0;

  i2c_start();
    3f90:	b0 12 bc 3d 	call	#0x3dbc	
  i2c_bwrite(i2c_slave_address);
    3f94:	5f 42 01 11 	mov.b	&0x1101,r15	
    3f98:	b0 12 6e 3e 	call	#0x3e6e	
  status += i2c_recv_ack();
    3f9c:	b0 12 fe 3d 	call	#0x3dfe	
    3fa0:	4b 4f       	mov.b	r15,	r11	
  i2c_bwrite(reg);
    3fa2:	4f 48       	mov.b	r8,	r15	
    3fa4:	b0 12 6e 3e 	call	#0x3e6e	
  status += i2c_recv_ack();
    3fa8:	b0 12 fe 3d 	call	#0x3dfe	
    3fac:	4e 4f       	mov.b	r15,	r14	
    3fae:	8e 11       	sxt	r14		
{
  int i = 0, status = 0;

  i2c_start();
  i2c_bwrite(i2c_slave_address);
  status += i2c_recv_ack();
    3fb0:	4f 4b       	mov.b	r11,	r15	
    3fb2:	8f 11       	sxt	r15		
  i2c_bwrite(reg);
  status += i2c_recv_ack();
    3fb4:	0e 5f       	add	r15,	r14	
  while((!status) && (i<len))
    3fb6:	19 20       	jnz	$+52     	;abs 0x3fea
    3fb8:	0e 9a       	cmp	r10,	r14	
    3fba:	17 34       	jge	$+48     	;abs 0x3fea
    3fbc:	0b 4e       	mov	r14,	r11	
    3fbe:	03 3c       	jmp	$+8      	;abs 0x3fc6
  {
    i2c_bwrite(dat[i++]);
    3fc0:	1b 53       	inc	r11		
  i2c_start();
  i2c_bwrite(i2c_slave_address);
  status += i2c_recv_ack();
  i2c_bwrite(reg);
  status += i2c_recv_ack();
  while((!status) && (i<len))
    3fc2:	0b 9a       	cmp	r10,	r11	
    3fc4:	09 34       	jge	$+20     	;abs 0x3fd8
  i2c_stop();

  return status;
}

char i2c_write_multiples( char reg,  char dat[],  int len)
    3fc6:	0f 49       	mov	r9,	r15	
    3fc8:	0f 5b       	add	r11,	r15	
  status += i2c_recv_ack();
  i2c_bwrite(reg);
  status += i2c_recv_ack();
  while((!status) && (i<len))
  {
    i2c_bwrite(dat[i++]);
    3fca:	6f 4f       	mov.b	@r15,	r15	
    3fcc:	b0 12 6e 3e 	call	#0x3e6e	
    status += i2c_recv_ack();
    3fd0:	b0 12 fe 3d 	call	#0x3dfe	
    3fd4:	8f 11       	sxt	r15		
  i2c_start();
  i2c_bwrite(i2c_slave_address);
  status += i2c_recv_ack();
  i2c_bwrite(reg);
  status += i2c_recv_ack();
  while((!status) && (i<len))
    3fd6:	f4 27       	jz	$-22     	;abs 0x3fc0
    3fd8:	4b 4f       	mov.b	r15,	r11	
  {
    i2c_bwrite(dat[i++]);
    status += i2c_recv_ack();
  }
  i2c_stop();
    3fda:	b0 12 e2 3d 	call	#0x3de2	


  return status;
}
    3fde:	4f 4b       	mov.b	r11,	r15	
    3fe0:	38 41       	pop	r8		
    3fe2:	39 41       	pop	r9		
    3fe4:	3a 41       	pop	r10		
    3fe6:	3b 41       	pop	r11		
    3fe8:	30 41       	ret			
  i2c_start();
  i2c_bwrite(i2c_slave_address);
  status += i2c_recv_ack();
  i2c_bwrite(reg);
  status += i2c_recv_ack();
  while((!status) && (i<len))
    3fea:	4b 4e       	mov.b	r14,	r11	
    3fec:	f6 3f       	jmp	$-18     	;abs 0x3fda

00003fee <i2c_write16_byte>:

  return status;
}

 char i2c_write16_byte( int reg,  char dat)
{
    3fee:	0b 12       	push	r11		
    3ff0:	0a 12       	push	r10		
    3ff2:	09 12       	push	r9		
    3ff4:	08 12       	push	r8		
    3ff6:	07 12       	push	r7		
    3ff8:	0b 4f       	mov	r15,	r11	
    3ffa:	47 4e       	mov.b	r14,	r7	
  char status = 0;

  i2c_start();
    3ffc:	b0 12 bc 3d 	call	#0x3dbc	
  i2c_bwrite(i2c_slave_address);
    4000:	5f 42 01 11 	mov.b	&0x1101,r15	
    4004:	b0 12 6e 3e 	call	#0x3e6e	
  status += i2c_recv_ack();
    4008:	b0 12 fe 3d 	call	#0x3dfe	
    400c:	49 4f       	mov.b	r15,	r9	
  i2c_bwrite(reg/256);
    400e:	0d 4b       	mov	r11,	r13	
    4010:	0b 93       	tst	r11		
    4012:	02 34       	jge	$+6      	;abs 0x4018
    4014:	3d 50 ff 00 	add	#255,	r13	;#0x00ff
    4018:	8d 10       	swpb	r13		
    401a:	8d 11       	sxt	r13		
    401c:	4f 4d       	mov.b	r13,	r15	
    401e:	b0 12 6e 3e 	call	#0x3e6e	
  status += i2c_recv_ack();
    4022:	b0 12 fe 3d 	call	#0x3dfe	
    4026:	48 4f       	mov.b	r15,	r8	
  i2c_bwrite(reg%256);
    4028:	0d 4b       	mov	r11,	r13	
    402a:	3d f0 ff 80 	and	#-32513,r13	;#0x80ff
    402e:	3d b0 00 80 	bit	#-32768,r13	;#0x8000
    4032:	04 34       	jge	$+10     	;abs 0x403c
    4034:	3d 53       	add	#-1,	r13	;r3 As==11
    4036:	3d d0 00 ff 	bis	#-256,	r13	;#0xff00
    403a:	1d 53       	inc	r13		
    403c:	4f 4d       	mov.b	r13,	r15	
    403e:	b0 12 6e 3e 	call	#0x3e6e	
  status += i2c_recv_ack();
    4042:	b0 12 fe 3d 	call	#0x3dfe	
    4046:	4a 4f       	mov.b	r15,	r10	
  i2c_bwrite(dat);
    4048:	4f 47       	mov.b	r7,	r15	
    404a:	b0 12 6e 3e 	call	#0x3e6e	
  status += i2c_recv_ack();
    404e:	b0 12 fe 3d 	call	#0x3dfe	
    4052:	4b 4f       	mov.b	r15,	r11	
  i2c_stop();
    4054:	b0 12 e2 3d 	call	#0x3de2	

  i2c_start();
  i2c_bwrite(i2c_slave_address);
  status += i2c_recv_ack();
  i2c_bwrite(reg/256);
  status += i2c_recv_ack();
    4058:	4e 48       	mov.b	r8,	r14	
    405a:	4e 59       	add.b	r9,	r14	
  i2c_bwrite(reg%256);
  status += i2c_recv_ack();
    405c:	4e 5a       	add.b	r10,	r14	
  i2c_bwrite(dat);
  status += i2c_recv_ack();
  i2c_stop();

  return status;
}
    405e:	4f 4e       	mov.b	r14,	r15	
    4060:	4f 5b       	add.b	r11,	r15	
    4062:	37 41       	pop	r7		
    4064:	38 41       	pop	r8		
    4066:	39 41       	pop	r9		
    4068:	3a 41       	pop	r10		
    406a:	3b 41       	pop	r11		
    406c:	30 41       	ret			

0000406e <i2c_write16_multiples>:

 char i2c_write16_multiples( int reg,  char dat[], int len)
{
    406e:	0b 12       	push	r11		
    4070:	0a 12       	push	r10		
    4072:	09 12       	push	r9		
    4074:	08 12       	push	r8		
    4076:	08 4f       	mov	r15,	r8	
    4078:	09 4e       	mov	r14,	r9	
    407a:	0a 4d       	mov	r13,	r10	
   int i = 0, status = 0;

  i2c_start();
    407c:	b0 12 bc 3d 	call	#0x3dbc	
  i2c_bwrite(i2c_slave_address);
    4080:	5f 42 01 11 	mov.b	&0x1101,r15	
    4084:	b0 12 6e 3e 	call	#0x3e6e	
  status += i2c_recv_ack();
    4088:	b0 12 fe 3d 	call	#0x3dfe	
    408c:	4b 4f       	mov.b	r15,	r11	
  i2c_bwrite(reg/256);
    408e:	0d 48       	mov	r8,	r13	
    4090:	08 93       	tst	r8		
    4092:	02 34       	jge	$+6      	;abs 0x4098
    4094:	3d 50 ff 00 	add	#255,	r13	;#0x00ff
    4098:	8d 10       	swpb	r13		
    409a:	8d 11       	sxt	r13		
    409c:	4f 4d       	mov.b	r13,	r15	
    409e:	b0 12 6e 3e 	call	#0x3e6e	
  status += i2c_recv_ack();
    40a2:	b0 12 fe 3d 	call	#0x3dfe	
    40a6:	4e 4f       	mov.b	r15,	r14	
    40a8:	8e 11       	sxt	r14		
{
   int i = 0, status = 0;

  i2c_start();
  i2c_bwrite(i2c_slave_address);
  status += i2c_recv_ack();
    40aa:	4f 4b       	mov.b	r11,	r15	
    40ac:	8f 11       	sxt	r15		
  i2c_bwrite(reg/256);
  status += i2c_recv_ack();
    40ae:	0b 4e       	mov	r14,	r11	
    40b0:	0b 5f       	add	r15,	r11	
  i2c_bwrite(reg%256);
    40b2:	0f 48       	mov	r8,	r15	
    40b4:	3f f0 ff 80 	and	#-32513,r15	;#0x80ff
    40b8:	3f b0 00 80 	bit	#-32768,r15	;#0x8000
    40bc:	04 34       	jge	$+10     	;abs 0x40c6
    40be:	3f 53       	add	#-1,	r15	;r3 As==11
    40c0:	3f d0 00 ff 	bis	#-256,	r15	;#0xff00
    40c4:	1f 53       	inc	r15		
    40c6:	b0 12 6e 3e 	call	#0x3e6e	
  status += i2c_recv_ack();
    40ca:	b0 12 fe 3d 	call	#0x3dfe	
    40ce:	8f 11       	sxt	r15		
    40d0:	0f 5b       	add	r11,	r15	
  while((!status) && (i<len))
    40d2:	10 20       	jnz	$+34     	;abs 0x40f4
    40d4:	0f 9a       	cmp	r10,	r15	
    40d6:	0e 34       	jge	$+30     	;abs 0x40f4
    40d8:	0b 4f       	mov	r15,	r11	
    40da:	03 3c       	jmp	$+8      	;abs 0x40e2
  {
    i2c_bwrite(dat[i++]);
    40dc:	1b 53       	inc	r11		
  status += i2c_recv_ack();
  i2c_bwrite(reg/256);
  status += i2c_recv_ack();
  i2c_bwrite(reg%256);
  status += i2c_recv_ack();
  while((!status) && (i<len))
    40de:	0b 9a       	cmp	r10,	r11	
    40e0:	09 34       	jge	$+20     	;abs 0x40f4
  i2c_stop();

  return status;
}

 char i2c_write16_multiples( int reg,  char dat[], int len)
    40e2:	0f 49       	mov	r9,	r15	
    40e4:	0f 5b       	add	r11,	r15	
  status += i2c_recv_ack();
  i2c_bwrite(reg%256);
  status += i2c_recv_ack();
  while((!status) && (i<len))
  {
    i2c_bwrite(dat[i++]);
    40e6:	6f 4f       	mov.b	@r15,	r15	
    40e8:	b0 12 6e 3e 	call	#0x3e6e	
    status += i2c_recv_ack();
    40ec:	b0 12 fe 3d 	call	#0x3dfe	
    40f0:	8f 11       	sxt	r15		
  status += i2c_recv_ack();
  i2c_bwrite(reg/256);
  status += i2c_recv_ack();
  i2c_bwrite(reg%256);
  status += i2c_recv_ack();
  while((!status) && (i<len))
    40f2:	f4 27       	jz	$-22     	;abs 0x40dc
    40f4:	4b 4f       	mov.b	r15,	r11	
  {
    i2c_bwrite(dat[i++]);
    status += i2c_recv_ack();
  }
  i2c_stop();
    40f6:	b0 12 e2 3d 	call	#0x3de2	


  return status;
}
    40fa:	4f 4b       	mov.b	r11,	r15	
    40fc:	38 41       	pop	r8		
    40fe:	39 41       	pop	r9		
    4100:	3a 41       	pop	r10		
    4102:	3b 41       	pop	r11		
    4104:	30 41       	ret			

00004106 <i2c_read_byte>:

 char i2c_read_byte( char reg,  char *dat)
{
    4106:	0b 12       	push	r11		
    4108:	0a 12       	push	r10		
    410a:	09 12       	push	r9		
    410c:	08 12       	push	r8		
    410e:	4a 4f       	mov.b	r15,	r10	
    4110:	0b 4e       	mov	r14,	r11	
   char status = 0;

  i2c_start();
    4112:	b0 12 bc 3d 	call	#0x3dbc	
  i2c_bwrite(i2c_slave_address);
    4116:	5f 42 01 11 	mov.b	&0x1101,r15	
    411a:	b0 12 6e 3e 	call	#0x3e6e	
  status += i2c_recv_ack();
    411e:	b0 12 fe 3d 	call	#0x3dfe	
    4122:	49 4f       	mov.b	r15,	r9	
  i2c_bwrite(reg);
    4124:	4f 4a       	mov.b	r10,	r15	
    4126:	b0 12 6e 3e 	call	#0x3e6e	
  status += i2c_recv_ack();
    412a:	b0 12 fe 3d 	call	#0x3dfe	
    412e:	48 4f       	mov.b	r15,	r8	
  i2c_start();
    4130:	b0 12 bc 3d 	call	#0x3dbc	
  i2c_bwrite(i2c_slave_address+1);
    4134:	5f 42 01 11 	mov.b	&0x1101,r15	
    4138:	5f 53       	inc.b	r15		
    413a:	b0 12 6e 3e 	call	#0x3e6e	
  status += i2c_recv_ack();
    413e:	b0 12 fe 3d 	call	#0x3dfe	
    4142:	4a 4f       	mov.b	r15,	r10	
  *dat = i2c_bread();
    4144:	b0 12 ba 3e 	call	#0x3eba	
    4148:	cb 4f 00 00 	mov.b	r15,	0(r11)	;0x0000(r11)
  i2c_send_ack(NACK);
    414c:	7f 43       	mov.b	#-1,	r15	;r3 As==11
    414e:	b0 12 3e 3e 	call	#0x3e3e	
  i2c_stop();
    4152:	b0 12 e2 3d 	call	#0x3de2	

  i2c_start();
  i2c_bwrite(i2c_slave_address);
  status += i2c_recv_ack();
  i2c_bwrite(reg);
  status += i2c_recv_ack();
    4156:	4e 48       	mov.b	r8,	r14	
    4158:	4e 59       	add.b	r9,	r14	
  *dat = i2c_bread();
  i2c_send_ack(NACK);
  i2c_stop();

  return status;
}
    415a:	4f 4e       	mov.b	r14,	r15	
    415c:	4f 5a       	add.b	r10,	r15	
    415e:	38 41       	pop	r8		
    4160:	39 41       	pop	r9		
    4162:	3a 41       	pop	r10		
    4164:	3b 41       	pop	r11		
    4166:	30 41       	ret			

00004168 <i2c_read_multiples>:

 char i2c_read_multiples( char reg,  char dat[], int len)
{
    4168:	0b 12       	push	r11		
    416a:	0a 12       	push	r10		
    416c:	09 12       	push	r9		
    416e:	08 12       	push	r8		
    4170:	4b 4f       	mov.b	r15,	r11	
    4172:	0a 4e       	mov	r14,	r10	
    4174:	09 4d       	mov	r13,	r9	
   int i = 0, status = 0;

  i2c_start();
    4176:	b0 12 bc 3d 	call	#0x3dbc	
  i2c_bwrite(i2c_slave_address);
    417a:	5f 42 01 11 	mov.b	&0x1101,r15	
    417e:	b0 12 6e 3e 	call	#0x3e6e	
  status += i2c_recv_ack();
    4182:	b0 12 fe 3d 	call	#0x3dfe	
    4186:	48 4f       	mov.b	r15,	r8	
  i2c_bwrite(reg);
    4188:	4f 4b       	mov.b	r11,	r15	
    418a:	b0 12 6e 3e 	call	#0x3e6e	
  status += i2c_recv_ack();
    418e:	b0 12 fe 3d 	call	#0x3dfe	
    4192:	4e 4f       	mov.b	r15,	r14	
    4194:	8e 11       	sxt	r14		
{
   int i = 0, status = 0;

  i2c_start();
  i2c_bwrite(i2c_slave_address);
  status += i2c_recv_ack();
    4196:	88 11       	sxt	r8		
  i2c_bwrite(reg);
  status += i2c_recv_ack();
    4198:	08 5e       	add	r14,	r8	
  i2c_start();
    419a:	b0 12 bc 3d 	call	#0x3dbc	
  i2c_bwrite(i2c_slave_address+1);
    419e:	5f 42 01 11 	mov.b	&0x1101,r15	
    41a2:	5f 53       	inc.b	r15		
    41a4:	b0 12 6e 3e 	call	#0x3e6e	
  status += i2c_recv_ack();
    41a8:	b0 12 fe 3d 	call	#0x3dfe	
    41ac:	8f 11       	sxt	r15		
    41ae:	08 5f       	add	r15,	r8	

  while((!status) && (i<len-1))
    41b0:	28 20       	jnz	$+82     	;abs 0x4202
    41b2:	39 53       	add	#-1,	r9	;r3 As==11
    41b4:	08 99       	cmp	r9,	r8	
    41b6:	27 34       	jge	$+80     	;abs 0x4206
  {  
    dat[i] = i2c_bread();
    41b8:	b0 12 ba 3e 	call	#0x3eba	
    41bc:	ca 4f 00 00 	mov.b	r15,	0(r10)	;0x0000(r10)
    i2c_send_ack(ACK);
    41c0:	4f 48       	mov.b	r8,	r15	
    41c2:	b0 12 3e 3e 	call	#0x3e3e	
    i++;
    41c6:	1b 43       	mov	#1,	r11	;r3 As==01
    41c8:	0a 3c       	jmp	$+22     	;abs 0x41de
  i2c_bwrite(i2c_slave_address+1);
  status += i2c_recv_ack();

  while((!status) && (i<len-1))
  {  
    dat[i] = i2c_bread();
    41ca:	b0 12 ba 3e 	call	#0x3eba	
  i2c_stop();

  return status;
}

 char i2c_read_multiples( char reg,  char dat[], int len)
    41ce:	0c 4a       	mov	r10,	r12	
    41d0:	0c 5b       	add	r11,	r12	
  i2c_bwrite(i2c_slave_address+1);
  status += i2c_recv_ack();

  while((!status) && (i<len-1))
  {  
    dat[i] = i2c_bread();
    41d2:	cc 4f 00 00 	mov.b	r15,	0(r12)	;0x0000(r12)
    i2c_send_ack(ACK);
    41d6:	4f 43       	clr.b	r15		
    41d8:	b0 12 3e 3e 	call	#0x3e3e	
    i++;
    41dc:	1b 53       	inc	r11		
  status += i2c_recv_ack();
  i2c_start();
  i2c_bwrite(i2c_slave_address+1);
  status += i2c_recv_ack();

  while((!status) && (i<len-1))
    41de:	0b 99       	cmp	r9,	r11	
    41e0:	f4 3b       	jl	$-22     	;abs 0x41ca
  {  
    dat[i] = i2c_bread();
    i2c_send_ack(ACK);
    i++;
  }
  dat[i] = i2c_bread();
    41e2:	b0 12 ba 3e 	call	#0x3eba	
    41e6:	0a 59       	add	r9,	r10	
    41e8:	ca 4f 00 00 	mov.b	r15,	0(r10)	;0x0000(r10)
  i2c_send_ack(NACK);
    41ec:	7f 43       	mov.b	#-1,	r15	;r3 As==11
    41ee:	b0 12 3e 3e 	call	#0x3e3e	
  i2c_stop();
    41f2:	b0 12 e2 3d 	call	#0x3de2	

  return status;
}
    41f6:	4f 48       	mov.b	r8,	r15	
    41f8:	38 41       	pop	r8		
    41fa:	39 41       	pop	r9		
    41fc:	3a 41       	pop	r10		
    41fe:	3b 41       	pop	r11		
    4200:	30 41       	ret			
  status += i2c_recv_ack();
  i2c_start();
  i2c_bwrite(i2c_slave_address+1);
  status += i2c_recv_ack();

  while((!status) && (i<len-1))
    4202:	09 43       	clr	r9		
    4204:	ee 3f       	jmp	$-34     	;abs 0x41e2
    4206:	09 48       	mov	r8,	r9	
    4208:	ec 3f       	jmp	$-38     	;abs 0x41e2

0000420a <i2c_read16_byte>:

  return status;
}

 char i2c_read16_byte( int reg,  char *dat)
{
    420a:	0b 12       	push	r11		
    420c:	0a 12       	push	r10		
    420e:	09 12       	push	r9		
    4210:	08 12       	push	r8		
    4212:	07 12       	push	r7		
    4214:	0b 4f       	mov	r15,	r11	
    4216:	0a 4e       	mov	r14,	r10	
   char status = 0;

  i2c_start();
    4218:	b0 12 bc 3d 	call	#0x3dbc	
  i2c_bwrite(i2c_slave_address);
    421c:	5f 42 01 11 	mov.b	&0x1101,r15	
    4220:	b0 12 6e 3e 	call	#0x3e6e	
  status += i2c_recv_ack();
    4224:	b0 12 fe 3d 	call	#0x3dfe	
    4228:	48 4f       	mov.b	r15,	r8	
  i2c_bwrite(reg/256);
    422a:	0d 4b       	mov	r11,	r13	
    422c:	0b 93       	tst	r11		
    422e:	02 34       	jge	$+6      	;abs 0x4234
    4230:	3d 50 ff 00 	add	#255,	r13	;#0x00ff
    4234:	8d 10       	swpb	r13		
    4236:	8d 11       	sxt	r13		
    4238:	4f 4d       	mov.b	r13,	r15	
    423a:	b0 12 6e 3e 	call	#0x3e6e	
  status += i2c_recv_ack();
    423e:	b0 12 fe 3d 	call	#0x3dfe	
    4242:	47 4f       	mov.b	r15,	r7	
  i2c_bwrite(reg%256);
    4244:	0d 4b       	mov	r11,	r13	
    4246:	3d f0 ff 80 	and	#-32513,r13	;#0x80ff
    424a:	3d b0 00 80 	bit	#-32768,r13	;#0x8000
    424e:	04 34       	jge	$+10     	;abs 0x4258
    4250:	3d 53       	add	#-1,	r13	;r3 As==11
    4252:	3d d0 00 ff 	bis	#-256,	r13	;#0xff00
    4256:	1d 53       	inc	r13		
    4258:	4f 4d       	mov.b	r13,	r15	
    425a:	b0 12 6e 3e 	call	#0x3e6e	
  status += i2c_recv_ack();
    425e:	b0 12 fe 3d 	call	#0x3dfe	
    4262:	49 4f       	mov.b	r15,	r9	
  i2c_start();
    4264:	b0 12 bc 3d 	call	#0x3dbc	
  i2c_bwrite(i2c_slave_address+1);
    4268:	5f 42 01 11 	mov.b	&0x1101,r15	
    426c:	5f 53       	inc.b	r15		
    426e:	b0 12 6e 3e 	call	#0x3e6e	
  status += i2c_recv_ack();
    4272:	b0 12 fe 3d 	call	#0x3dfe	
    4276:	4b 4f       	mov.b	r15,	r11	
  *dat = i2c_bread();
    4278:	b0 12 ba 3e 	call	#0x3eba	
    427c:	ca 4f 00 00 	mov.b	r15,	0(r10)	;0x0000(r10)
  i2c_send_ack(NACK);
    4280:	7f 43       	mov.b	#-1,	r15	;r3 As==11
    4282:	b0 12 3e 3e 	call	#0x3e3e	
  i2c_stop();
    4286:	b0 12 e2 3d 	call	#0x3de2	

  i2c_start();
  i2c_bwrite(i2c_slave_address);
  status += i2c_recv_ack();
  i2c_bwrite(reg/256);
  status += i2c_recv_ack();
    428a:	4e 47       	mov.b	r7,	r14	
    428c:	4e 58       	add.b	r8,	r14	
  i2c_bwrite(reg%256);
  status += i2c_recv_ack();
    428e:	4e 59       	add.b	r9,	r14	
  *dat = i2c_bread();
  i2c_send_ack(NACK);
  i2c_stop();

  return status;
}
    4290:	4f 4e       	mov.b	r14,	r15	
    4292:	4f 5b       	add.b	r11,	r15	
    4294:	37 41       	pop	r7		
    4296:	38 41       	pop	r8		
    4298:	39 41       	pop	r9		
    429a:	3a 41       	pop	r10		
    429c:	3b 41       	pop	r11		
    429e:	30 41       	ret			

000042a0 <i2c_read16_multiples>:

 char i2c_read16_multiples( int reg, char dat[], int len)
{
    42a0:	0b 12       	push	r11		
    42a2:	0a 12       	push	r10		
    42a4:	09 12       	push	r9		
    42a6:	08 12       	push	r8		
    42a8:	0b 4f       	mov	r15,	r11	
    42aa:	0a 4e       	mov	r14,	r10	
    42ac:	09 4d       	mov	r13,	r9	
   int i = 0, status = 0;

  i2c_start();
    42ae:	b0 12 bc 3d 	call	#0x3dbc	
  i2c_bwrite(i2c_slave_address);
    42b2:	5f 42 01 11 	mov.b	&0x1101,r15	
    42b6:	b0 12 6e 3e 	call	#0x3e6e	
  status += i2c_recv_ack();
    42ba:	b0 12 fe 3d 	call	#0x3dfe	
    42be:	48 4f       	mov.b	r15,	r8	
  i2c_bwrite(reg/256);
    42c0:	0c 4b       	mov	r11,	r12	
    42c2:	0b 93       	tst	r11		
    42c4:	02 34       	jge	$+6      	;abs 0x42ca
    42c6:	3c 50 ff 00 	add	#255,	r12	;#0x00ff
    42ca:	8c 10       	swpb	r12		
    42cc:	8c 11       	sxt	r12		
    42ce:	4f 4c       	mov.b	r12,	r15	
    42d0:	b0 12 6e 3e 	call	#0x3e6e	
  status += i2c_recv_ack();
    42d4:	b0 12 fe 3d 	call	#0x3dfe	
    42d8:	4e 4f       	mov.b	r15,	r14	
    42da:	8e 11       	sxt	r14		
{
   int i = 0, status = 0;

  i2c_start();
  i2c_bwrite(i2c_slave_address);
  status += i2c_recv_ack();
    42dc:	88 11       	sxt	r8		
  i2c_bwrite(reg/256);
  status += i2c_recv_ack();
    42de:	08 5e       	add	r14,	r8	
  i2c_bwrite(reg%256);
    42e0:	0f 4b       	mov	r11,	r15	
    42e2:	3f f0 ff 80 	and	#-32513,r15	;#0x80ff
    42e6:	3f b0 00 80 	bit	#-32768,r15	;#0x8000
    42ea:	04 34       	jge	$+10     	;abs 0x42f4
    42ec:	3f 53       	add	#-1,	r15	;r3 As==11
    42ee:	3f d0 00 ff 	bis	#-256,	r15	;#0xff00
    42f2:	1f 53       	inc	r15		
    42f4:	b0 12 6e 3e 	call	#0x3e6e	
  status += i2c_recv_ack();
    42f8:	b0 12 fe 3d 	call	#0x3dfe	
    42fc:	8f 11       	sxt	r15		
    42fe:	08 5f       	add	r15,	r8	
  i2c_start();
    4300:	b0 12 bc 3d 	call	#0x3dbc	
  i2c_bwrite(i2c_slave_address+1);
    4304:	5f 42 01 11 	mov.b	&0x1101,r15	
    4308:	5f 53       	inc.b	r15		
    430a:	b0 12 6e 3e 	call	#0x3e6e	
  status += i2c_recv_ack();
    430e:	b0 12 fe 3d 	call	#0x3dfe	
    4312:	8f 11       	sxt	r15		
    4314:	08 5f       	add	r15,	r8	

  while((!status) && (i<len-1))
    4316:	28 20       	jnz	$+82     	;abs 0x4368
    4318:	39 53       	add	#-1,	r9	;r3 As==11
    431a:	08 99       	cmp	r9,	r8	
    431c:	27 34       	jge	$+80     	;abs 0x436c
  {  
    dat[i] = i2c_bread();
    431e:	b0 12 ba 3e 	call	#0x3eba	
    4322:	ca 4f 00 00 	mov.b	r15,	0(r10)	;0x0000(r10)
    i2c_send_ack(ACK);
    4326:	4f 48       	mov.b	r8,	r15	
    4328:	b0 12 3e 3e 	call	#0x3e3e	
    i++;
    432c:	1b 43       	mov	#1,	r11	;r3 As==01
    432e:	0a 3c       	jmp	$+22     	;abs 0x4344
  i2c_bwrite(i2c_slave_address+1);
  status += i2c_recv_ack();

  while((!status) && (i<len-1))
  {  
    dat[i] = i2c_bread();
    4330:	b0 12 ba 3e 	call	#0x3eba	
  i2c_stop();

  return status;
}

 char i2c_read16_multiples( int reg, char dat[], int len)
    4334:	0c 4a       	mov	r10,	r12	
    4336:	0c 5b       	add	r11,	r12	
  i2c_bwrite(i2c_slave_address+1);
  status += i2c_recv_ack();

  while((!status) && (i<len-1))
  {  
    dat[i] = i2c_bread();
    4338:	cc 4f 00 00 	mov.b	r15,	0(r12)	;0x0000(r12)
    i2c_send_ack(ACK);
    433c:	4f 43       	clr.b	r15		
    433e:	b0 12 3e 3e 	call	#0x3e3e	
    i++;
    4342:	1b 53       	inc	r11		
  status += i2c_recv_ack();
  i2c_start();
  i2c_bwrite(i2c_slave_address+1);
  status += i2c_recv_ack();

  while((!status) && (i<len-1))
    4344:	0b 99       	cmp	r9,	r11	
    4346:	f4 3b       	jl	$-22     	;abs 0x4330
  {  
    dat[i] = i2c_bread();
    i2c_send_ack(ACK);
    i++;
  }
  dat[i] = i2c_bread();
    4348:	b0 12 ba 3e 	call	#0x3eba	
    434c:	0a 59       	add	r9,	r10	
    434e:	ca 4f 00 00 	mov.b	r15,	0(r10)	;0x0000(r10)
  i2c_send_ack(NACK);
    4352:	7f 43       	mov.b	#-1,	r15	;r3 As==11
    4354:	b0 12 3e 3e 	call	#0x3e3e	
  i2c_stop();
    4358:	b0 12 e2 3d 	call	#0x3de2	

  return status;
}
    435c:	4f 48       	mov.b	r8,	r15	
    435e:	38 41       	pop	r8		
    4360:	39 41       	pop	r9		
    4362:	3a 41       	pop	r10		
    4364:	3b 41       	pop	r11		
    4366:	30 41       	ret			
  status += i2c_recv_ack();
  i2c_start();
  i2c_bwrite(i2c_slave_address+1);
  status += i2c_recv_ack();

  while((!status) && (i<len-1))
    4368:	09 43       	clr	r9		
    436a:	ee 3f       	jmp	$-34     	;abs 0x4348
    436c:	09 48       	mov	r8,	r9	
    436e:	ec 3f       	jmp	$-38     	;abs 0x4348

00004370 <printf>:
    4370:	0d 41       	mov	r1,	r13	
    4372:	2d 52       	add	#4,	r13	;r2 As==10
    4374:	1e 41 02 00 	mov	2(r1),	r14	;0x0002(r1)
    4378:	3f 40 3a 3a 	mov	#14906,	r15	;#0x3a3a
    437c:	b0 12 9c 44 	call	#0x449c	
    4380:	30 41       	ret			

00004382 <vprintf>:
    4382:	0d 4e       	mov	r14,	r13	
    4384:	0e 4f       	mov	r15,	r14	
    4386:	3f 40 3a 3a 	mov	#14906,	r15	;#0x3a3a
    438a:	b0 12 9c 44 	call	#0x449c	
    438e:	30 41       	ret			

00004390 <print_field>:
    4390:	0b 12       	push	r11		
    4392:	0a 12       	push	r10		
    4394:	09 12       	push	r9		
    4396:	08 12       	push	r8		
    4398:	07 12       	push	r7		
    439a:	06 12       	push	r6		
    439c:	05 12       	push	r5		
    439e:	04 12       	push	r4		
    43a0:	21 83       	decd	r1		
    43a2:	0a 4f       	mov	r15,	r10	
    43a4:	08 4e       	mov	r14,	r8	
    43a6:	07 4d       	mov	r13,	r7	
    43a8:	0f 4c       	mov	r12,	r15	
    43aa:	8f 10       	swpb	r15		
    43ac:	8f 11       	sxt	r15		
    43ae:	4d 4c       	mov.b	r12,	r13	
    43b0:	4e 4c       	mov.b	r12,	r14	
    43b2:	7e f0 10 00 	and.b	#16,	r14	;#0x0010
    43b6:	10 24       	jz	$+34     	;abs 0x43d8
    43b8:	f1 40 30 00 	mov.b	#48,	0(r1)	;#0x0030, 0x0000(r1)
    43bc:	00 00 
    43be:	7d f0 40 00 	and.b	#64,	r13	;#0x0040
    43c2:	03 24       	jz	$+8      	;abs 0x43ca
    43c4:	7f 40 58 00 	mov.b	#88,	r15	;#0x0058
    43c8:	02 3c       	jmp	$+6      	;abs 0x43ce
    43ca:	7f 40 78 00 	mov.b	#120,	r15	;#0x0078
    43ce:	c1 4f 01 00 	mov.b	r15,	1(r1)	;0x0001(r1)
    43d2:	06 41       	mov	r1,	r6	
    43d4:	26 53       	incd	r6		
    43d6:	08 3c       	jmp	$+18     	;abs 0x43e8
    43d8:	4f 9e       	cmp.b	r14,	r15	
    43da:	05 24       	jz	$+12     	;abs 0x43e6
    43dc:	c1 4f 00 00 	mov.b	r15,	0(r1)	;0x0000(r1)
    43e0:	06 41       	mov	r1,	r6	
    43e2:	16 53       	inc	r6		
    43e4:	01 3c       	jmp	$+4      	;abs 0x43e8
    43e6:	06 41       	mov	r1,	r6	
    43e8:	06 81       	sub	r1,	r6	
    43ea:	6c b2       	bit.b	#4,	r12	;r2 As==10
    43ec:	2b 20       	jnz	$+88     	;abs 0x4444
    43ee:	0f 48       	mov	r8,	r15	
    43f0:	3f 53       	add	#-1,	r15	;r3 As==11
    43f2:	1f 53       	inc	r15		
    43f4:	cf 93 00 00 	tst.b	0(r15)		;0x0000(r15)
    43f8:	fc 23       	jnz	$-6      	;abs 0x43f2
    43fa:	05 4f       	mov	r15,	r5	
    43fc:	05 88       	sub	r8,	r5	
    43fe:	07 96       	cmp	r6,	r7	
    4400:	02 28       	jnc	$+6      	;abs 0x4406
    4402:	07 86       	sub	r6,	r7	
    4404:	01 3c       	jmp	$+4      	;abs 0x4408
    4406:	07 43       	clr	r7		
    4408:	7c f0 20 00 	and.b	#32,	r12	;#0x0020
    440c:	0e 24       	jz	$+30     	;abs 0x442a
    440e:	09 43       	clr	r9		
    4410:	06 3c       	jmp	$+14     	;abs 0x441e
    4412:	0f 41       	mov	r1,	r15	
    4414:	0f 59       	add	r9,	r15	
    4416:	6f 4f       	mov.b	@r15,	r15	
    4418:	8f 11       	sxt	r15		
    441a:	19 53       	inc	r9		
    441c:	8a 12       	call	r10		
    441e:	09 96       	cmp	r6,	r9	
    4420:	f8 3b       	jl	$-14     	;abs 0x4412
    4422:	0b 46       	mov	r6,	r11	
    4424:	74 40 30 00 	mov.b	#48,	r4	;#0x0030
    4428:	0a 3c       	jmp	$+22     	;abs 0x443e
    442a:	74 40 20 00 	mov.b	#32,	r4	;#0x0020
    442e:	09 43       	clr	r9		
    4430:	0b 49       	mov	r9,	r11	
    4432:	05 3c       	jmp	$+12     	;abs 0x443e
    4434:	4f 44       	mov.b	r4,	r15	
    4436:	8f 11       	sxt	r15		
    4438:	8a 12       	call	r10		
    443a:	1b 53       	inc	r11		
    443c:	15 53       	inc	r5		
    443e:	05 97       	cmp	r7,	r5	
    4440:	f9 2b       	jnc	$-12     	;abs 0x4434
    4442:	02 3c       	jmp	$+6      	;abs 0x4448
    4444:	09 43       	clr	r9		
    4446:	0b 49       	mov	r9,	r11	
    4448:	09 51       	add	r1,	r9	
    444a:	05 3c       	jmp	$+12     	;abs 0x4456
    444c:	1b 53       	inc	r11		
    444e:	6f 49       	mov.b	@r9,	r15	
    4450:	8f 11       	sxt	r15		
    4452:	8a 12       	call	r10		
    4454:	19 53       	inc	r9		
    4456:	0f 49       	mov	r9,	r15	
    4458:	0f 81       	sub	r1,	r15	
    445a:	0f 96       	cmp	r6,	r15	
    445c:	f7 3b       	jl	$-16     	;abs 0x444c
    445e:	05 3c       	jmp	$+12     	;abs 0x446a
    4460:	6f 48       	mov.b	@r8,	r15	
    4462:	8f 11       	sxt	r15		
    4464:	8a 12       	call	r10		
    4466:	18 53       	inc	r8		
    4468:	1b 53       	inc	r11		
    446a:	c8 93 00 00 	tst.b	0(r8)		;0x0000(r8)
    446e:	f8 23       	jnz	$-14     	;abs 0x4460
    4470:	04 3c       	jmp	$+10     	;abs 0x447a
    4472:	3f 40 20 00 	mov	#32,	r15	;#0x0020
    4476:	8a 12       	call	r10		
    4478:	1b 53       	inc	r11		
    447a:	0b 97       	cmp	r7,	r11	
    447c:	fa 2b       	jnc	$-10     	;abs 0x4472
    447e:	0f 4b       	mov	r11,	r15	
    4480:	21 53       	incd	r1		
    4482:	34 41       	pop	r4		
    4484:	35 41       	pop	r5		
    4486:	36 41       	pop	r6		
    4488:	37 41       	pop	r7		
    448a:	38 41       	pop	r8		
    448c:	39 41       	pop	r9		
    448e:	3a 41       	pop	r10		
    4490:	3b 41       	pop	r11		
    4492:	30 41       	ret			
    4494:	28 6e       	addc	@r14,	r8	
    4496:	75 6c       	addc.b	@r12+,	r5	
    4498:	6c 29       	jnc	$+730    	;abs 0x4772
	...

0000449c <vuprintf>:
    449c:	0b 12       	push	r11		
    449e:	0a 12       	push	r10		
    44a0:	09 12       	push	r9		
    44a2:	08 12       	push	r8		
    44a4:	07 12       	push	r7		
    44a6:	06 12       	push	r6		
    44a8:	05 12       	push	r5		
    44aa:	04 12       	push	r4		
    44ac:	31 50 de ff 	add	#-34,	r1	;#0xffde
    44b0:	81 4f 18 00 	mov	r15,	24(r1)	;0x0018(r1)
    44b4:	81 4e 1a 00 	mov	r14,	26(r1)	;0x001a(r1)
    44b8:	81 4d 0e 00 	mov	r13,	14(r1)	;0x000e(r1)
    44bc:	81 43 10 00 	mov	#0,	16(r1)	;r3 As==00, 0x0010(r1)
    44c0:	1a 41 10 00 	mov	16(r1),	r10	;0x0010(r1)
    44c4:	81 4a 12 00 	mov	r10,	18(r1)	;0x0012(r1)
    44c8:	30 40 de 47 	br	#0x47de	
    44cc:	0a 93       	tst	r10		
    44ce:	0b 20       	jnz	$+24     	;abs 0x44e6
    44d0:	7e 90 25 00 	cmp.b	#37,	r14	;#0x0025
    44d4:	02 24       	jz	$+6      	;abs 0x44da
    44d6:	30 40 c8 47 	br	#0x47c8	
    44da:	81 4a 00 00 	mov	r10,	0(r1)	;0x0000(r1)
    44de:	81 4a 10 00 	mov	r10,	16(r1)	;0x0010(r1)
    44e2:	30 40 d8 47 	br	#0x47d8	
    44e6:	7e 90 63 00 	cmp.b	#99,	r14	;#0x0063
    44ea:	a3 24       	jz	$+328    	;abs 0x4632
    44ec:	7f 40 63 00 	mov.b	#99,	r15	;#0x0063
    44f0:	4f 9e       	cmp.b	r14,	r15	
    44f2:	2a 38       	jl	$+86     	;abs 0x4548
    44f4:	7e 90 30 00 	cmp.b	#48,	r14	;#0x0030
    44f8:	78 24       	jz	$+242    	;abs 0x45ea
    44fa:	7f 50 cd ff 	add.b	#-51,	r15	;#0xffcd
    44fe:	4f 9e       	cmp.b	r14,	r15	
    4500:	19 38       	jl	$+52     	;abs 0x4534
    4502:	7e 90 2a 00 	cmp.b	#42,	r14	;#0x002a
    4506:	5b 24       	jz	$+184    	;abs 0x45be
    4508:	7f 50 fa ff 	add.b	#-6,	r15	;#0xfffa
    450c:	4f 9e       	cmp.b	r14,	r15	
    450e:	09 38       	jl	$+20     	;abs 0x4522
    4510:	7e 90 20 00 	cmp.b	#32,	r14	;#0x0020
    4514:	49 24       	jz	$+148    	;abs 0x45a8
    4516:	7e 90 23 00 	cmp.b	#35,	r14	;#0x0023
    451a:	02 24       	jz	$+6      	;abs 0x4520
    451c:	30 40 c8 47 	br	#0x47c8	
    4520:	32 3c       	jmp	$+102    	;abs 0x4586
    4522:	7e 90 2b 00 	cmp.b	#43,	r14	;#0x002b
    4526:	3b 24       	jz	$+120    	;abs 0x459e
    4528:	7e 90 2d 00 	cmp.b	#45,	r14	;#0x002d
    452c:	02 24       	jz	$+6      	;abs 0x4532
    452e:	30 40 c8 47 	br	#0x47c8	
    4532:	31 3c       	jmp	$+100    	;abs 0x4596
    4534:	7f 40 39 00 	mov.b	#57,	r15	;#0x0039
    4538:	4f 9e       	cmp.b	r14,	r15	
    453a:	6c 34       	jge	$+218    	;abs 0x4614
    453c:	7e 90 58 00 	cmp.b	#88,	r14	;#0x0058
    4540:	02 24       	jz	$+6      	;abs 0x4546
    4542:	30 40 c8 47 	br	#0x47c8	
    4546:	a9 3c       	jmp	$+340    	;abs 0x469a
    4548:	7e 90 70 00 	cmp.b	#112,	r14	;#0x0070
    454c:	8f 24       	jz	$+288    	;abs 0x466c
    454e:	7f 40 70 00 	mov.b	#112,	r15	;#0x0070
    4552:	4f 9e       	cmp.b	r14,	r15	
    4554:	0c 38       	jl	$+26     	;abs 0x456e
    4556:	7e 90 69 00 	cmp.b	#105,	r14	;#0x0069
    455a:	a3 24       	jz	$+328    	;abs 0x46a2
    455c:	7e 90 6c 00 	cmp.b	#108,	r14	;#0x006c
    4560:	16 24       	jz	$+46     	;abs 0x458e
    4562:	7e 90 64 00 	cmp.b	#100,	r14	;#0x0064
    4566:	02 24       	jz	$+6      	;abs 0x456c
    4568:	30 40 c8 47 	br	#0x47c8	
    456c:	9a 3c       	jmp	$+310    	;abs 0x46a2
    456e:	7e 90 75 00 	cmp.b	#117,	r14	;#0x0075
    4572:	99 24       	jz	$+308    	;abs 0x46a6
    4574:	7e 90 78 00 	cmp.b	#120,	r14	;#0x0078
    4578:	99 24       	jz	$+308    	;abs 0x46ac
    457a:	7e 90 73 00 	cmp.b	#115,	r14	;#0x0073
    457e:	02 24       	jz	$+6      	;abs 0x4584
    4580:	30 40 c8 47 	br	#0x47c8	
    4584:	5d 3c       	jmp	$+188    	;abs 0x4640
    4586:	f1 d2 00 00 	bis.b	#8,	0(r1)	;r2 As==11, 0x0000(r1)
    458a:	30 40 d8 47 	br	#0x47d8	
    458e:	d1 d3 00 00 	bis.b	#1,	0(r1)	;r3 As==01, 0x0000(r1)
    4592:	30 40 d8 47 	br	#0x47d8	
    4596:	e1 d2 00 00 	bis.b	#4,	0(r1)	;r2 As==10, 0x0000(r1)
    459a:	30 40 d8 47 	br	#0x47d8	
    459e:	f1 40 2b 00 	mov.b	#43,	1(r1)	;#0x002b, 0x0001(r1)
    45a2:	01 00 
    45a4:	30 40 d8 47 	br	#0x47d8	
    45a8:	f1 90 2b 00 	cmp.b	#43,	1(r1)	;#0x002b, 0x0001(r1)
    45ac:	01 00 
    45ae:	02 20       	jnz	$+6      	;abs 0x45b4
    45b0:	30 40 d8 47 	br	#0x47d8	
    45b4:	f1 40 20 00 	mov.b	#32,	1(r1)	;#0x0020, 0x0001(r1)
    45b8:	01 00 
    45ba:	30 40 d8 47 	br	#0x47d8	
    45be:	1c 41 0e 00 	mov	14(r1),	r12	;0x000e(r1)
    45c2:	2c 53       	incd	r12		
    45c4:	1f 41 0e 00 	mov	14(r1),	r15	;0x000e(r1)
    45c8:	2e 4f       	mov	@r15,	r14	
    45ca:	0e 93       	tst	r14		
    45cc:	03 38       	jl	$+8      	;abs 0x45d4
    45ce:	81 4e 10 00 	mov	r14,	16(r1)	;0x0010(r1)
    45d2:	07 3c       	jmp	$+16     	;abs 0x45e2
    45d4:	e1 d2 00 00 	bis.b	#4,	0(r1)	;r2 As==10, 0x0000(r1)
    45d8:	3e e3       	inv	r14		
    45da:	81 4e 10 00 	mov	r14,	16(r1)	;0x0010(r1)
    45de:	91 53 10 00 	inc	16(r1)		;0x0010(r1)
    45e2:	81 4c 0e 00 	mov	r12,	14(r1)	;0x000e(r1)
    45e6:	30 40 d8 47 	br	#0x47d8	
    45ea:	81 93 10 00 	tst	16(r1)		;0x0010(r1)
    45ee:	12 20       	jnz	$+38     	;abs 0x4614
    45f0:	6b 41       	mov.b	@r1,	r11	
    45f2:	6b f2       	and.b	#4,	r11	;r2 As==10
    45f4:	5a 43       	mov.b	#1,	r10	;r3 As==01
    45f6:	02 24       	jz	$+6      	;abs 0x45fc
    45f8:	5a 41 10 00 	mov.b	16(r1),	r10	;0x0010(r1)
    45fc:	5a f3       	and.b	#1,	r10	;r3 As==01
    45fe:	4a 5a       	rla.b	r10		
    4600:	4a 5a       	rla.b	r10		
    4602:	4a 5a       	rla.b	r10		
    4604:	4a 5a       	rla.b	r10		
    4606:	4a 5a       	rla.b	r10		
    4608:	6b 41       	mov.b	@r1,	r11	
    460a:	7b f0 df ff 	and.b	#-33,	r11	;#0xffdf
    460e:	4b da       	bis.b	r10,	r11	
    4610:	c1 4b 00 00 	mov.b	r11,	0(r1)	;0x0000(r1)
    4614:	1b 41 10 00 	mov	16(r1),	r11	;0x0010(r1)
    4618:	0b 5b       	rla	r11		
    461a:	0b 5b       	rla	r11		
    461c:	1b 51 10 00 	add	16(r1),	r11	;0x0010(r1)
    4620:	0b 5b       	rla	r11		
    4622:	8e 11       	sxt	r14		
    4624:	3e 50 d0 ff 	add	#-48,	r14	;#0xffd0
    4628:	81 4e 10 00 	mov	r14,	16(r1)	;0x0010(r1)
    462c:	81 5b 10 00 	add	r11,	16(r1)	;0x0010(r1)
    4630:	d3 3c       	jmp	$+424    	;abs 0x47d8
    4632:	1f 41 0e 00 	mov	14(r1),	r15	;0x000e(r1)
    4636:	6e 4f       	mov.b	@r15,	r14	
    4638:	2f 53       	incd	r15		
    463a:	81 4f 0e 00 	mov	r15,	14(r1)	;0x000e(r1)
    463e:	c4 3c       	jmp	$+394    	;abs 0x47c8
    4640:	1b 41 0e 00 	mov	14(r1),	r11	;0x000e(r1)
    4644:	2b 53       	incd	r11		
    4646:	1f 41 0e 00 	mov	14(r1),	r15	;0x000e(r1)
    464a:	2e 4f       	mov	@r15,	r14	
    464c:	0e 93       	tst	r14		
    464e:	02 20       	jnz	$+6      	;abs 0x4654
    4650:	3e 40 94 44 	mov	#17556,	r14	;#0x4494
    4654:	2c 41       	mov	@r1,	r12	
    4656:	1d 41 10 00 	mov	16(r1),	r13	;0x0010(r1)
    465a:	1f 41 18 00 	mov	24(r1),	r15	;0x0018(r1)
    465e:	b0 12 90 43 	call	#0x4390	
    4662:	81 5f 12 00 	add	r15,	18(r1)	;0x0012(r1)
    4666:	81 4b 0e 00 	mov	r11,	14(r1)	;0x000e(r1)
    466a:	b4 3c       	jmp	$+362    	;abs 0x47d4
    466c:	1f 41 0e 00 	mov	14(r1),	r15	;0x000e(r1)
    4670:	a1 4f 14 00 	mov	@r15,	20(r1)	;0x0014(r1)
    4674:	1f 41 14 00 	mov	20(r1),	r15	;0x0014(r1)
    4678:	8f 10       	swpb	r15		
    467a:	8f 11       	sxt	r15		
    467c:	8f 10       	swpb	r15		
    467e:	8f 11       	sxt	r15		
    4680:	81 4f 16 00 	mov	r15,	22(r1)	;0x0016(r1)
    4684:	15 41 14 00 	mov	20(r1),	r5	;0x0014(r1)
    4688:	16 41 16 00 	mov	22(r1),	r6	;0x0016(r1)
    468c:	35 f3       	and	#-1,	r5	;r3 As==11
    468e:	06 f3       	and	#0,	r6	;r3 As==00
    4690:	f1 d2 00 00 	bis.b	#8,	0(r1)	;r2 As==11, 0x0000(r1)
    4694:	a1 53 0e 00 	incd	14(r1)		;0x000e(r1)
    4698:	30 3c       	jmp	$+98     	;abs 0x46fa
    469a:	f1 d0 40 00 	bis.b	#64,	0(r1)	;#0x0040, 0x0000(r1)
    469e:	00 00 
    46a0:	05 3c       	jmp	$+12     	;abs 0x46ac
    46a2:	e1 d3 00 00 	bis.b	#2,	0(r1)	;r3 As==10, 0x0000(r1)
    46a6:	34 40 0a 00 	mov	#10,	r4	;#0x000a
    46aa:	02 3c       	jmp	$+6      	;abs 0x46b0
    46ac:	34 40 10 00 	mov	#16,	r4	;#0x0010
    46b0:	6b 41       	mov.b	@r1,	r11	
    46b2:	4c 4b       	mov.b	r11,	r12	
    46b4:	5c f3       	and.b	#1,	r12	;r3 As==01
    46b6:	09 24       	jz	$+20     	;abs 0x46ca
    46b8:	1f 41 0e 00 	mov	14(r1),	r15	;0x000e(r1)
    46bc:	25 4f       	mov	@r15,	r5	
    46be:	16 4f 02 00 	mov	2(r15),	r6	;0x0002(r15)
    46c2:	2f 52       	add	#4,	r15	;r2 As==10
    46c4:	81 4f 0e 00 	mov	r15,	14(r1)	;0x000e(r1)
    46c8:	15 3c       	jmp	$+44     	;abs 0x46f4
    46ca:	6b f3       	and.b	#2,	r11	;r3 As==10
    46cc:	1a 41 0e 00 	mov	14(r1),	r10	;0x000e(r1)
    46d0:	2a 53       	incd	r10		
    46d2:	4b 9c       	cmp.b	r12,	r11	
    46d4:	09 24       	jz	$+20     	;abs 0x46e8
    46d6:	1f 41 0e 00 	mov	14(r1),	r15	;0x000e(r1)
    46da:	25 4f       	mov	@r15,	r5	
    46dc:	06 45       	mov	r5,	r6	
    46de:	86 10       	swpb	r6		
    46e0:	86 11       	sxt	r6		
    46e2:	86 10       	swpb	r6		
    46e4:	86 11       	sxt	r6		
    46e6:	04 3c       	jmp	$+10     	;abs 0x46f0
    46e8:	1f 41 0e 00 	mov	14(r1),	r15	;0x000e(r1)
    46ec:	25 4f       	mov	@r15,	r5	
    46ee:	06 43       	clr	r6		
    46f0:	81 4a 0e 00 	mov	r10,	14(r1)	;0x000e(r1)
    46f4:	34 90 10 00 	cmp	#16,	r4	;#0x0010
    46f8:	0c 20       	jnz	$+26     	;abs 0x4712
    46fa:	05 93       	tst	r5		
    46fc:	02 20       	jnz	$+6      	;abs 0x4702
    46fe:	06 93       	tst	r6		
    4700:	06 24       	jz	$+14     	;abs 0x470e
    4702:	f1 b2 00 00 	bit.b	#8,	0(r1)	;r2 As==11, 0x0000(r1)
    4706:	03 24       	jz	$+8      	;abs 0x470e
    4708:	f1 d0 10 00 	bis.b	#16,	0(r1)	;#0x0010, 0x0000(r1)
    470c:	00 00 
    470e:	34 40 10 00 	mov	#16,	r4	;#0x0010
    4712:	e1 b3 00 00 	bit.b	#2,	0(r1)	;r3 As==10, 0x0000(r1)
    4716:	09 24       	jz	$+20     	;abs 0x472a
    4718:	06 93       	tst	r6		
    471a:	07 34       	jge	$+16     	;abs 0x472a
    471c:	f1 40 2d 00 	mov.b	#45,	1(r1)	;#0x002d, 0x0001(r1)
    4720:	01 00 
    4722:	35 e3       	inv	r5		
    4724:	36 e3       	inv	r6		
    4726:	15 53       	inc	r5		
    4728:	06 63       	adc	r6		
    472a:	c1 43 0d 00 	mov.b	#0,	13(r1)	;r3 As==00, 0x000d(r1)
    472e:	6f 41       	mov.b	@r1,	r15	
    4730:	7f f0 40 00 	and.b	#64,	r15	;#0x0040
    4734:	c1 4f 1e 00 	mov.b	r15,	30(r1)	;0x001e(r1)
    4738:	07 41       	mov	r1,	r7	
    473a:	37 50 0b 00 	add	#11,	r7	;#0x000b
    473e:	0f 44       	mov	r4,	r15	
    4740:	8f 10       	swpb	r15		
    4742:	8f 11       	sxt	r15		
    4744:	8f 10       	swpb	r15		
    4746:	8f 11       	sxt	r15		
    4748:	81 4f 1c 00 	mov	r15,	28(r1)	;0x001c(r1)
    474c:	0f 47       	mov	r7,	r15	
    474e:	1f 53       	inc	r15		
    4750:	81 4f 20 00 	mov	r15,	32(r1)	;0x0020(r1)
    4754:	0c 45       	mov	r5,	r12	
    4756:	0d 46       	mov	r6,	r13	
    4758:	0a 44       	mov	r4,	r10	
    475a:	1b 41 1c 00 	mov	28(r1),	r11	;0x001c(r1)
    475e:	b0 12 58 48 	call	#0x4858	
    4762:	3f 40 09 00 	mov	#9,	r15	;#0x0009
    4766:	0f 9e       	cmp	r14,	r15	
    4768:	05 38       	jl	$+12     	;abs 0x4774
    476a:	7e 50 30 00 	add.b	#48,	r14	;#0x0030
    476e:	c7 4e 01 00 	mov.b	r14,	1(r7)	;0x0001(r7)
    4772:	0b 3c       	jmp	$+24     	;abs 0x478a
    4774:	c1 93 1e 00 	tst.b	30(r1)		;0x001e(r1)
    4778:	03 24       	jz	$+8      	;abs 0x4780
    477a:	7f 40 37 00 	mov.b	#55,	r15	;#0x0037
    477e:	02 3c       	jmp	$+6      	;abs 0x4784
    4780:	7f 40 57 00 	mov.b	#87,	r15	;#0x0057
    4784:	4f 5e       	add.b	r14,	r15	
    4786:	c7 4f 01 00 	mov.b	r15,	1(r7)	;0x0001(r7)
    478a:	0c 45       	mov	r5,	r12	
    478c:	0d 46       	mov	r6,	r13	
    478e:	0a 44       	mov	r4,	r10	
    4790:	1b 41 1c 00 	mov	28(r1),	r11	;0x001c(r1)
    4794:	b0 12 58 48 	call	#0x4858	
    4798:	05 4c       	mov	r12,	r5	
    479a:	06 4d       	mov	r13,	r6	
    479c:	37 53       	add	#-1,	r7	;r3 As==11
    479e:	0c 93       	tst	r12		
    47a0:	d5 23       	jnz	$-84     	;abs 0x474c
    47a2:	06 93       	tst	r6		
    47a4:	d3 23       	jnz	$-88     	;abs 0x474c
    47a6:	34 90 0a 00 	cmp	#10,	r4	;#0x000a
    47aa:	02 24       	jz	$+6      	;abs 0x47b0
    47ac:	c1 43 01 00 	mov.b	#0,	1(r1)	;r3 As==00, 0x0001(r1)
    47b0:	2c 41       	mov	@r1,	r12	
    47b2:	1d 41 10 00 	mov	16(r1),	r13	;0x0010(r1)
    47b6:	1e 41 20 00 	mov	32(r1),	r14	;0x0020(r1)
    47ba:	1f 41 18 00 	mov	24(r1),	r15	;0x0018(r1)
    47be:	b0 12 90 43 	call	#0x4390	
    47c2:	81 5f 12 00 	add	r15,	18(r1)	;0x0012(r1)
    47c6:	06 3c       	jmp	$+14     	;abs 0x47d4
    47c8:	8e 11       	sxt	r14		
    47ca:	0f 4e       	mov	r14,	r15	
    47cc:	91 12 1a 00 	call	26(r1)		;0x001a(r1)
    47d0:	91 53 12 00 	inc	18(r1)		;0x0012(r1)
    47d4:	0a 43       	clr	r10		
    47d6:	01 3c       	jmp	$+4      	;abs 0x47da
    47d8:	1a 43       	mov	#1,	r10	;r3 As==01
    47da:	91 53 1a 00 	inc	26(r1)		;0x001a(r1)
    47de:	1f 41 1a 00 	mov	26(r1),	r15	;0x001a(r1)
    47e2:	6e 4f       	mov.b	@r15,	r14	
    47e4:	4e 93       	tst.b	r14		
    47e6:	02 24       	jz	$+6      	;abs 0x47ec
    47e8:	30 40 cc 44 	br	#0x44cc	
    47ec:	1f 41 12 00 	mov	18(r1),	r15	;0x0012(r1)
    47f0:	31 50 22 00 	add	#34,	r1	;#0x0022
    47f4:	34 41       	pop	r4		
    47f6:	35 41       	pop	r5		
    47f8:	36 41       	pop	r6		
    47fa:	37 41       	pop	r7		
    47fc:	38 41       	pop	r8		
    47fe:	39 41       	pop	r9		
    4800:	3a 41       	pop	r10		
    4802:	3b 41       	pop	r11		
    4804:	30 41       	ret			

00004806 <__divmodhi4>:
    4806:	0d 43       	clr	r13		
    4808:	3c b0 00 80 	bit	#-32768,r12	;#0x8000
    480c:	03 28       	jnc	$+8      	;abs 0x4814
    480e:	3c e3       	inv	r12		
    4810:	1c 53       	inc	r12		
    4812:	2d d2       	bis	#4,	r13	;r2 As==10
    4814:	3a b0 00 80 	bit	#-32768,r10	;#0x8000
    4818:	03 28       	jnc	$+8      	;abs 0x4820
    481a:	3a e3       	inv	r10		
    481c:	1a 53       	inc	r10		
    481e:	3d d2       	bis	#8,	r13	;r2 As==11
    4820:	b0 12 3c 48 	call	#0x483c	
    4824:	0d 10       	rrc	r13		
    4826:	2d b2       	bit	#4,	r13	;r2 As==10
    4828:	04 28       	jnc	$+10     	;abs 0x4832
    482a:	3e e3       	inv	r14		
    482c:	1e 53       	inc	r14		
    482e:	3c e3       	inv	r12		
    4830:	1c 53       	inc	r12		
    4832:	3d b2       	bit	#8,	r13	;r2 As==11
    4834:	02 28       	jnc	$+6      	;abs 0x483a
    4836:	3c e3       	inv	r12		
    4838:	1c 53       	inc	r12		
    483a:	30 41       	ret			

0000483c <__udivmodhi4>:
    483c:	0e ee       	xor	r14,	r14	
    483e:	3b 40 11 00 	mov	#17,	r11	;#0x0011
    4842:	05 3c       	jmp	$+12     	;abs 0x484e
    4844:	0d 10       	rrc	r13		
    4846:	0e 6e       	rlc	r14		
    4848:	0e 9a       	cmp	r10,	r14	
    484a:	01 28       	jnc	$+4      	;abs 0x484e
    484c:	0e 8a       	sub	r10,	r14	
    484e:	0c 6c       	rlc	r12		
    4850:	0d 6d       	rlc	r13		
    4852:	1b 83       	dec	r11		
    4854:	f7 23       	jnz	$-16     	;abs 0x4844
    4856:	30 41       	ret			

00004858 <__udivmodsi4>:
    4858:	0f ef       	xor	r15,	r15	
    485a:	0e ee       	xor	r14,	r14	
    485c:	39 40 21 00 	mov	#33,	r9	;#0x0021
    4860:	0a 3c       	jmp	$+22     	;abs 0x4876
    4862:	08 10       	rrc	r8		
    4864:	0e 6e       	rlc	r14		
    4866:	0f 6f       	rlc	r15		
    4868:	0f 9b       	cmp	r11,	r15	
    486a:	05 28       	jnc	$+12     	;abs 0x4876
    486c:	02 20       	jnz	$+6      	;abs 0x4872
    486e:	0e 9a       	cmp	r10,	r14	
    4870:	02 28       	jnc	$+6      	;abs 0x4876
    4872:	0e 8a       	sub	r10,	r14	
    4874:	0f 7b       	subc	r11,	r15	
    4876:	0c 6c       	rlc	r12		
    4878:	0d 6d       	rlc	r13		
    487a:	08 68       	rlc	r8		
    487c:	19 83       	dec	r9		
    487e:	f1 23       	jnz	$-28     	;abs 0x4862
    4880:	30 41       	ret			

00004882 <_unexpected_>:
    4882:	00 13       	reti			

Disassembly of section .data:

00001100 <LCDBackColor>:
    1100:	ff 3a       	jl	$-512    	;abs 0xf00

00001101 <i2c_slave_address>:
    1101:	3a 17       	Address 0x00001101 is out of bounds.
Address 0x00001103 is out of bounds.
and.b	@r15+,	-1(r15)	;0xffff(r15)

Disassembly of section .bss:

00001102 <LCDLineCount>:
	...

00001104 <LCDCharCount>:
	...

00001106 <LCDForeColor>:
	...

Disassembly of section .vectors:

0000ffc0 <__ivtbl_32>:
    ffc0:	5a 32       	jn	$-842    	;abs 0xfc76
    ffc2:	5a 32       	jn	$-842    	;abs 0xfc78
    ffc4:	5a 32       	jn	$-842    	;abs 0xfc7a
    ffc6:	5a 32       	jn	$-842    	;abs 0xfc7c
    ffc8:	5a 32       	jn	$-842    	;abs 0xfc7e
    ffca:	5a 32       	jn	$-842    	;abs 0xfc80
    ffcc:	5a 32       	jn	$-842    	;abs 0xfc82
    ffce:	5a 32       	jn	$-842    	;abs 0xfc84
    ffd0:	5a 32       	jn	$-842    	;abs 0xfc86
    ffd2:	5a 32       	jn	$-842    	;abs 0xfc88
    ffd4:	5a 32       	jn	$-842    	;abs 0xfc8a
    ffd6:	5a 32       	jn	$-842    	;abs 0xfc8c
    ffd8:	5a 32       	jn	$-842    	;abs 0xfc8e
    ffda:	5a 32       	jn	$-842    	;abs 0xfc90
    ffdc:	5a 32       	jn	$-842    	;abs 0xfc92
    ffde:	5a 32       	jn	$-842    	;abs 0xfc94
    ffe0:	5a 32       	jn	$-842    	;abs 0xfc96
    ffe2:	5a 32       	jn	$-842    	;abs 0xfc98
    ffe4:	5a 32       	jn	$-842    	;abs 0xfc9a
    ffe6:	5a 32       	jn	$-842    	;abs 0xfc9c
    ffe8:	5a 32       	jn	$-842    	;abs 0xfc9e
    ffea:	5a 32       	jn	$-842    	;abs 0xfca0
    ffec:	5a 32       	jn	$-842    	;abs 0xfca2
    ffee:	5a 32       	jn	$-842    	;abs 0xfca4
    fff0:	5a 32       	jn	$-842    	;abs 0xfca6
    fff2:	5a 32       	jn	$-842    	;abs 0xfca8
    fff4:	5a 32       	jn	$-842    	;abs 0xfcaa
    fff6:	5a 32       	jn	$-842    	;abs 0xfcac
    fff8:	5a 32       	jn	$-842    	;abs 0xfcae
    fffa:	5a 32       	jn	$-842    	;abs 0xfcb0
    fffc:	5a 32       	jn	$-842    	;abs 0xfcb2
    fffe:	00 31       	jn	$+514    	;abs 0x200

Disassembly of section .debug_aranges:

00000000 <.debug_aranges>:
   0:	10 00       	bra	#0x00000	
   2:	00 00       	bra	@r0		
   4:	02 00       	mova	@r0,	r2	
   6:	00 00       	bra	@r0		
   8:	00 00       	bra	@r0		
   a:	02 00       	mova	@r0,	r2	
   c:	38 31       	jn	$+626    	;abs 0x27e
   e:	1c 01       	mova	@r1+,	r12	
  10:	00 00       	bra	@r0		
  12:	00 00       	bra	@r0		
  14:	10 00       	bra	#0x00000	
  16:	00 00       	bra	@r0		
  18:	02 00       	mova	@r0,	r2	
  1a:	f0 01       	suba	r1,	r0	
  1c:	00 00       	bra	@r0		
  1e:	02 00       	mova	@r0,	r2	
  20:	80 32       	jn	$-766    	;abs 0xfd22
  22:	4c 00       	rrcm.a	#1,	r12	
  24:	00 00       	bra	@r0		
  26:	00 00       	bra	@r0		
  28:	10 00       	bra	#0x00000	
  2a:	00 00       	bra	@r0		
  2c:	02 00       	mova	@r0,	r2	
  2e:	82 03 00 00 	mova	#0x30000,r2	
  32:	02 00       	mova	@r0,	r2	
  34:	cc 32       	jn	$-614    	;abs 0xfdce
  36:	c6 0a       	mova	r10,	r6	
  38:	00 00       	bra	@r0		
  3a:	00 00       	bra	@r0		
  3c:	10 00       	bra	#0x00000	
  3e:	00 00       	bra	@r0		
  40:	02 00       	mova	@r0,	r2	
  42:	0f 0b       	mova	@r11,	r15	
  44:	00 00       	bra	@r0		
  46:	02 00       	mova	@r0,	r2	
  48:	92 3d       	jmp	$+806    	;abs 0x36e
  4a:	de 05       	cmpa	r5,	r14	
  4c:	00 00       	bra	@r0		
  4e:	00 00       	bra	@r0		
  50:	10 00       	bra	#0x00000	
  52:	00 00       	bra	@r0		
  54:	02 00       	mova	@r0,	r2	
  56:	3c 10       	rrc	@r12+		
  58:	00 00       	bra	@r0		
  5a:	02 00       	mova	@r0,	r2	
  5c:	70 43       	br	#-1		;r3 As==11
  5e:	20 00 00 00 	bra	&0x00000	
  62:	00 00       	bra	@r0		
  64:	10 00       	bra	#0x00000	
  66:	00 00       	bra	@r0		
  68:	02 00       	mova	@r0,	r2	
  6a:	3f 11       	rra	@r15+		
  6c:	00 00       	bra	@r0		
  6e:	02 00       	mova	@r0,	r2	
  70:	90 43 76 04 	mov	#1,	0x0476	;r3 As==01, PC rel. 0x004ea
  74:	00 00       	bra	@r0		
	...

Disassembly of section .debug_pubnames:

00000000 <.debug_pubnames>:
   0:	17 00       	mova	#0x00000,r7	
   2:	00 00       	bra	@r0		
   4:	02 00       	mova	@r0,	r2	
   6:	00 00       	bra	@r0		
   8:	00 00       	bra	@r0		
   a:	f0 01       	suba	r1,	r0	
   c:	00 00       	bra	@r0		
   e:	79 00 00 00 	mova	r0,	0(r9)	;0x0000(r9)
  12:	6d 61       	addc.b	@r1,	r13	
  14:	69 6e       	addc.b	@r14,	r9	
  16:	00 00       	bra	@r0		
  18:	00 00       	bra	@r0		
  1a:	00 6a       	addc	r10,	r0	
  1c:	00 00       	bra	@r0		
  1e:	00 02       	bra	#4		;r2 As==10
  20:	00 f0       	and	r0,	r0	
  22:	01 00       	mova	@r0,	r1	
  24:	00 92       	cmp	r2,	r0	
  26:	01 00       	mova	@r0,	r1	
  28:	00 3b       	jl	$-510    	;abs 0xfe2a
  2a:	00 00       	bra	@r0		
  2c:	00 64       	addc	r4,	r0	
  2e:	65 6c       	addc.b	@r12,	r5	
  30:	61 79       	subc.b	@r9,	r1	
  32:	32 75       	subc	@r5+,	r2	
  34:	73 00       	.word	0x0073;	????	Illegal as address instr
  36:	63 00 00 00 	mova	r0,	&0x30000
  3a:	64 65       	addc.b	@r5,	r4	
  3c:	6c 61       	addc.b	@r1,	r12	
  3e:	79 35       	jge	$+756    	;abs 0x332
  40:	75 73       	subc.b	#-1,	r5	;r3 As==11
  42:	00 84       	sub	r4,	r0	
  44:	00 00       	bra	@r0		
  46:	00 64       	addc	r4,	r0	
  48:	65 6c       	addc.b	@r12,	r5	
  4a:	61 79       	subc.b	@r9,	r1	
  4c:	75 73       	subc.b	#-1,	r5	;r3 As==11
  4e:	00 ba       	bit	r10,	r0	
  50:	00 00       	bra	@r0		
  52:	00 64       	addc	r4,	r0	
  54:	65 6c       	addc.b	@r12,	r5	
  56:	61 79       	subc.b	@r9,	r1	
  58:	6d 73       	subc.b	#2,	r13	;r3 As==10
  5a:	00 ec       	xor	r12,	r0	
  5c:	00 00       	bra	@r0		
  5e:	00 73       	sbc	r0		
  60:	65 74       	subc.b	@r4,	r5	
  62:	5f 64 65 6c 	addc.b	27749(r4),r15	;0x6c65(r4)
  66:	61 79       	subc.b	@r9,	r1	
  68:	00 1d       	.word	0x1d00;	????	
  6a:	01 00       	mova	@r0,	r1	
  6c:	00 67       	addc	r7,	r0	
  6e:	65 74       	subc.b	@r4,	r5	
  70:	5f 64 65 6c 	addc.b	27749(r4),r15	;0x6c65(r4)
  74:	61 79       	subc.b	@r9,	r1	
  76:	00 7c       	subc	r12,	r0	
  78:	01 00       	mova	@r0,	r1	
  7a:	00 54       	add	r4,	r0	
  7c:	69 6d       	addc.b	@r13,	r9	
  7e:	65 44       	mov.b	@r4,	r5	
  80:	65 6c       	addc.b	@r12,	r5	
  82:	61 79       	subc.b	@r9,	r1	
  84:	00 00       	bra	@r0		
  86:	00 00       	bra	@r0		
  88:	00 88       	sub	r8,	r0	
  8a:	01 00       	mova	@r0,	r1	
  8c:	00 02       	bra	#4		;r2 As==10
  8e:	00 82       	sub	r2,	r0	
  90:	03 00       	.word	0x0003;	????	Illegal as address instr
  92:	00 8d       	sub	r13,	r0	
  94:	07 00       	mova	@r0,	r7	
  96:	00 a5       	dadd	r5,	r0	
  98:	00 00       	bra	@r0		
  9a:	00 6c       	addc	r12,	r0	
  9c:	63 64       	.word	0x6463;	????	Illegal as 2-op instr
  9e:	5f 73       	subc.b	#1,	r15	;r3 As==01
  a0:	65 74       	subc.b	@r4,	r5	
  a2:	63 6f       	.word	0x6f63;	????	Illegal as 2-op instr
  a4:	6c 6f       	addc.b	@r15,	r12	
  a6:	72 00 d4 00 	mova	r0,	&0x00d4	
  aa:	00 00       	bra	@r0		
  ac:	6e 36       	jge	$-802    	;abs 0xfd8a
  ae:	31 30       	jn	$+100    	;abs 0x112
  b0:	30 5f       	add	@r15+,	r0	
  b2:	73 65       	.word	0x6573;	????	Illegal as 2-op instr
  b4:	6e 64       	addc.b	@r4,	r14	
  b6:	00 20       	jnz	$+2      	;abs 0xb8
  b8:	01 00       	mova	@r0,	r1	
  ba:	00 6e       	addc	r14,	r0	
  bc:	36 31       	jn	$+622    	;abs 0x32a
  be:	30 30       	jn	$+98     	;abs 0x120
  c0:	5f 73       	subc.b	#1,	r15	;r3 As==01
  c2:	65 6e       	addc.b	@r14,	r5	
  c4:	64 63       	addc.b	#2,	r4	;r3 As==10
  c6:	6f 6d       	addc.b	@r13,	r15	
  c8:	31 00 57 01 	mova	0x0157,	r1	;PC rel. 0x00221
  cc:	00 00       	bra	@r0		
  ce:	6e 36       	jge	$-802    	;abs 0xfdac
  d0:	31 30       	jn	$+100    	;abs 0x134
  d2:	30 5f       	add	@r15+,	r0	
  d4:	73 65       	.word	0x6573;	????	Illegal as 2-op instr
  d6:	6e 64       	addc.b	@r4,	r14	
  d8:	63 6f       	.word	0x6f63;	????	Illegal as 2-op instr
  da:	6d 32       	jn	$-804    	;abs 0xfdb6
  dc:	00 9e       	cmp	r14,	r0	
  de:	01 00       	mova	@r0,	r1	
  e0:	00 6c       	addc	r12,	r0	
  e2:	63 64       	.word	0x6463;	????	Illegal as 2-op instr
  e4:	5f 66 69 6c 	addc.b	27753(r6),r15	;0x6c69(r6)
  e8:	6c 72       	subc.b	#4,	r12	;r2 As==10
  ea:	65 63       	addc.b	#2,	r5	;r3 As==10
  ec:	74 00 1e 02 	mova	r0,	542(r4)	;0x021e(r4)
  f0:	00 00       	bra	@r0		
  f2:	6c 63       	addc.b	#2,	r12	;r3 As==10
  f4:	64 5f       	add.b	@r15,	r4	
  f6:	63 6c       	.word	0x6c63;	????	Illegal as 2-op instr
  f8:	65 61       	addc.b	@r1,	r5	
  fa:	72 00 45 02 	mova	r0,	&0x0245	
  fe:	00 00       	bra	@r0		
 100:	6c 63       	addc.b	#2,	r12	;r3 As==10
 102:	64 5f       	add.b	@r15,	r4	
 104:	69 6e       	addc.b	@r14,	r9	
 106:	69 74       	subc.b	@r4,	r9	
 108:	00 6a       	addc	r10,	r0	
 10a:	02 00       	mova	@r0,	r2	
 10c:	00 6c       	addc	r12,	r0	
 10e:	63 64       	.word	0x6463;	????	Illegal as 2-op instr
 110:	5f 64 72 61 	addc.b	24946(r4),r15	;0x6172(r4)
 114:	77 63       	addc.b	#-1,	r7	;r3 As==11
 116:	69 72       	subc.b	#4,	r9	;r2 As==10
 118:	63 6c       	.word	0x6c63;	????	Illegal as 2-op instr
 11a:	65 00 18 03 	mova	r0,	&0x50318
 11e:	00 00       	bra	@r0		
 120:	6c 63       	addc.b	#2,	r12	;r3 As==10
 122:	64 5f       	add.b	@r15,	r4	
 124:	64 72       	subc.b	#4,	r4	;r2 As==10
 126:	61 77       	subc.b	@r7,	r1	
 128:	70 6f       	addc.b	@r15+,	r0	
 12a:	69 6e       	addc.b	@r14,	r9	
 12c:	74 00 5b 03 	mova	r0,	859(r4)	;0x035b(r4)
 130:	00 00       	bra	@r0		
 132:	6c 63       	addc.b	#2,	r12	;r3 As==10
 134:	64 5f       	add.b	@r15,	r4	
 136:	64 72       	subc.b	#4,	r4	;r2 As==10
 138:	61 77       	subc.b	@r7,	r1	
 13a:	6c 69       	addc.b	@r9,	r12	
 13c:	6e 65       	addc.b	@r5,	r14	
 13e:	00 2b       	jnc	$-510    	;abs 0xff40
 140:	04 00       	mova	@r0,	r4	
 142:	00 6c       	addc	r12,	r0	
 144:	63 64       	.word	0x6463;	????	Illegal as 2-op instr
 146:	5f 70 75 74 	subc.b	0x7475,	r15	;PC rel. 0x075bf
 14a:	6c 6f       	addc.b	@r15,	r12	
 14c:	67 6f       	addc.b	@r15,	r7	
 14e:	00 af       	dadd	r15,	r0	
 150:	04 00       	mova	@r0,	r4	
 152:	00 6c       	addc	r12,	r0	
 154:	63 64       	.word	0x6463;	????	Illegal as 2-op instr
 156:	5f 6e 65 77 	addc.b	30565(r14),r15	;0x7765(r14)
 15a:	6c 69       	addc.b	@r9,	r12	
 15c:	6e 65       	addc.b	@r5,	r14	
 15e:	00 bb       	bit	r11,	r0	
 160:	04 00       	mova	@r0,	r4	
 162:	00 6c       	addc	r12,	r0	
 164:	63 64       	.word	0x6463;	????	Illegal as 2-op instr
 166:	5f 67 6f 74 	addc.b	29807(r7),r15	;0x746f(r7)
 16a:	6f 00 de 04 	mova	r0,	&0xf04de
 16e:	00 00       	bra	@r0		
 170:	6c 63       	addc.b	#2,	r12	;r3 As==10
 172:	64 5f       	add.b	@r15,	r4	
 174:	77 72       	subc.b	#8,	r7	;r2 As==11
 176:	63 68       	.word	0x6863;	????	Illegal as 2-op instr
 178:	61 72       	subc.b	#4,	r1	;r2 As==10
 17a:	00 47       	br	r7		
 17c:	05 00       	mova	@r0,	r5	
 17e:	00 6c       	addc	r12,	r0	
 180:	63 64       	.word	0x6463;	????	Illegal as 2-op instr
 182:	5f 70 75 74 	subc.b	0x7475,	r15	;PC rel. 0x075fb
 186:	63 68       	.word	0x6863;	????	Illegal as 2-op instr
 188:	61 72       	subc.b	#4,	r1	;r2 As==10
 18a:	00 85       	sub	r5,	r0	
 18c:	05 00       	mova	@r0,	r5	
 18e:	00 70       	subc	r0,	r0	
 190:	75 74       	subc.b	@r4+,	r5	
 192:	63 68       	.word	0x6863;	????	Illegal as 2-op instr
 194:	61 72       	subc.b	#4,	r1	;r2 As==10
 196:	00 ab       	dadd	r11,	r0	
 198:	05 00       	mova	@r0,	r5	
 19a:	00 6c       	addc	r12,	r0	
 19c:	63 64       	.word	0x6463;	????	Illegal as 2-op instr
 19e:	5f 64 72 61 	addc.b	24946(r4),r15	;0x6172(r4)
 1a2:	77 70 72 6f 	subc.b	#28530,	r7	;#0x6f72
 1a6:	67 72       	subc.b	#4,	r7	;r2 As==10
 1a8:	65 73       	subc.b	#2,	r5	;r3 As==10
 1aa:	73 62       	.word	0x6273;	????	Illegal as 2-op instr
 1ac:	61 72       	subc.b	#4,	r1	;r2 As==10
 1ae:	00 3c       	jmp	$+2      	;abs 0x1b0
 1b0:	06 00       	mova	@r0,	r6	
 1b2:	00 6c       	addc	r12,	r0	
 1b4:	63 64       	.word	0x6463;	????	Illegal as 2-op instr
 1b6:	5f 70 75 74 	subc.b	0x7475,	r15	;PC rel. 0x0762f
 1ba:	64 6f       	addc.b	@r15,	r4	
 1bc:	74 00 37 07 	mova	r0,	1847(r4);0x0737(r4)
 1c0:	00 00       	bra	@r0		
 1c2:	4c 43       	clr.b	r12		
 1c4:	44 4c       	mov.b	r12,	r4	
 1c6:	69 6e       	addc.b	@r14,	r9	
 1c8:	65 43       	mov.b	#2,	r5	;r3 As==10
 1ca:	6f 75       	subc.b	@r5,	r15	
 1cc:	6e 74       	subc.b	@r4,	r14	
 1ce:	00 47       	br	r7		
 1d0:	07 00       	mova	@r0,	r7	
 1d2:	00 4c       	br	r12		
 1d4:	43 44       	.word	0x4443;	????	Illegal as 2-op instr
 1d6:	43 68       	.word	0x6843;	????	Illegal as 2-op instr
 1d8:	61 72       	subc.b	#4,	r1	;r2 As==10
 1da:	43 6f       	.word	0x6f43;	????	Illegal as 2-op instr
 1dc:	75 6e       	addc.b	@r14+,	r5	
 1de:	74 00 57 07 	mova	r0,	1879(r4);0x0757(r4)
 1e2:	00 00       	bra	@r0		
 1e4:	4c 43       	clr.b	r12		
 1e6:	44 42       	mov.b	r2,	r4	
 1e8:	61 63       	addc.b	#2,	r1	;r3 As==10
 1ea:	6b 43       	mov.b	#2,	r11	;r3 As==10
 1ec:	6f 6c       	addc.b	@r12,	r15	
 1ee:	6f 72       	subc.b	#4,	r15	;r2 As==10
 1f0:	00 67       	addc	r7,	r0	
 1f2:	07 00       	mova	@r0,	r7	
 1f4:	00 4c       	br	r12		
 1f6:	43 44       	.word	0x4443;	????	Illegal as 2-op instr
 1f8:	46 6f       	addc.b	r15,	r6	
 1fa:	72 65       	addc.b	@r5+,	r2	
 1fc:	43 6f       	.word	0x6f43;	????	Illegal as 2-op instr
 1fe:	6c 6f       	addc.b	@r15,	r12	
 200:	72 00 77 07 	mova	r0,	&0x0777	
 204:	00 00       	bra	@r0		
 206:	61 73       	subc.b	#2,	r1	;r3 As==10
 208:	63 69       	.word	0x6963;	????	Illegal as 2-op instr
 20a:	69 74       	subc.b	@r4,	r9	
 20c:	61 62       	addc.b	#4,	r1	;r2 As==10
 20e:	6c 65       	addc.b	@r5,	r12	
 210:	00 00       	bra	@r0		
 212:	00 00       	bra	@r0		
 214:	00 89       	sub	r9,	r0	
 216:	01 00       	mova	@r0,	r1	
 218:	00 02       	bra	#4		;r2 As==10
 21a:	00 0f       	bra	@r15		
 21c:	0b 00       	mova	@r0,	r11	
 21e:	00 2d       	jc	$+514    	;abs 0x420
 220:	05 00       	mova	@r0,	r5	
 222:	00 30       	jn	$+2      	;abs 0x224
 224:	00 00       	bra	@r0		
 226:	00 69       	addc	r9,	r0	
 228:	32 63       	addc	#-1,	r2	;r3 As==11
 22a:	5f 63       	addc.b	#1,	r15	;r3 As==01
 22c:	68 61       	addc.b	@r1,	r8	
 22e:	6e 67       	addc.b	@r7,	r14	
 230:	65 5f       	add.b	@r15,	r5	
 232:	61 64       	addc.b	@r4,	r1	
 234:	64 72       	subc.b	#4,	r4	;r2 As==10
 236:	65 73       	subc.b	#2,	r5	;r3 As==10
 238:	73 00       	.word	0x0073;	????	Illegal as address instr
 23a:	59 00       	rrcm	#1,	r9	
 23c:	00 00       	bra	@r0		
 23e:	69 32       	jn	$-812    	;abs 0xff12
 240:	63 5f       	.word	0x5f63;	????	Illegal as 2-op instr
 242:	69 6e       	addc.b	@r14,	r9	
 244:	69 74       	subc.b	@r4,	r9	
 246:	00 69       	addc	r9,	r0	
 248:	00 00       	bra	@r0		
 24a:	00 69       	addc	r9,	r0	
 24c:	32 63       	addc	#-1,	r2	;r3 As==11
 24e:	5f 63       	addc.b	#1,	r15	;r3 As==01
 250:	6f 6e       	addc.b	@r14,	r15	
 252:	66 69       	addc.b	@r9,	r6	
 254:	67 00 8e 00 	mova	r0,	&0x7008e
 258:	00 00       	bra	@r0		
 25a:	69 32       	jn	$-812    	;abs 0xff2e
 25c:	63 5f       	.word	0x5f63;	????	Illegal as 2-op instr
 25e:	73 74       	.word	0x7473;	????	Illegal as 2-op instr
 260:	61 72       	subc.b	#4,	r1	;r2 As==10
 262:	74 00 9e 00 	mova	r0,	158(r4)	;0x009e(r4)
 266:	00 00       	bra	@r0		
 268:	69 32       	jn	$-812    	;abs 0xff3c
 26a:	63 5f       	.word	0x5f63;	????	Illegal as 2-op instr
 26c:	73 74       	.word	0x7473;	????	Illegal as 2-op instr
 26e:	6f 70       	subc.b	@r0,	r15	
 270:	00 ae       	dadd	r14,	r0	
 272:	00 00       	bra	@r0		
 274:	00 69       	addc	r9,	r0	
 276:	32 63       	addc	#-1,	r2	;r3 As==11
 278:	5f 72 65 63 	subc.b	&0x6365,r15	
 27c:	76 5f       	add.b	@r15+,	r6	
 27e:	61 63       	addc.b	#2,	r1	;r3 As==10
 280:	6b 00 d5 00 	mova	r0,	&0xb00d5
 284:	00 00       	bra	@r0		
 286:	69 32       	jn	$-812    	;abs 0xff5a
 288:	63 5f       	.word	0x5f63;	????	Illegal as 2-op instr
 28a:	73 65       	.word	0x6573;	????	Illegal as 2-op instr
 28c:	6e 64       	addc.b	@r4,	r14	
 28e:	5f 61 63 6b 	addc.b	27491(r1),r15	;0x6b63(r1)
 292:	00 f9       	and	r9,	r0	
 294:	00 00       	bra	@r0		
 296:	00 69       	addc	r9,	r0	
 298:	32 63       	addc	#-1,	r2	;r3 As==11
 29a:	5f 62 77 72 	addc.b	&0x7277,r15	
 29e:	69 74       	subc.b	@r4,	r9	
 2a0:	65 00 38 01 	mova	r0,	&0x50138
 2a4:	00 00       	bra	@r0		
 2a6:	69 32       	jn	$-812    	;abs 0xff7a
 2a8:	63 5f       	.word	0x5f63;	????	Illegal as 2-op instr
 2aa:	62 72       	subc.b	#4,	r2	;r2 As==10
 2ac:	65 61       	addc.b	@r1,	r5	
 2ae:	64 00 6e 01 	mova	r0,	&0x4016e
 2b2:	00 00       	bra	@r0		
 2b4:	69 32       	jn	$-812    	;abs 0xff88
 2b6:	63 5f       	.word	0x5f63;	????	Illegal as 2-op instr
 2b8:	66 69       	addc.b	@r9,	r6	
 2ba:	6e 64       	addc.b	@r4,	r14	
 2bc:	5f 64 65 76 	addc.b	30309(r4),r15	;0x7665(r4)
 2c0:	69 63       	addc.b	#2,	r9	;r3 As==10
 2c2:	65 00 97 01 	mova	r0,	&0x50197
 2c6:	00 00       	bra	@r0		
 2c8:	69 32       	jn	$-812    	;abs 0xff9c
 2ca:	63 5f       	.word	0x5f63;	????	Illegal as 2-op instr
 2cc:	77 72       	subc.b	#8,	r7	;r2 As==11
 2ce:	69 74       	subc.b	@r4,	r9	
 2d0:	65 5f       	add.b	@r15,	r5	
 2d2:	64 75       	subc.b	@r5,	r4	
 2d4:	6d 6d       	addc.b	@r13,	r13	
 2d6:	79 00 cd 01 	mova	r0,	461(r9)	;0x01cd(r9)
 2da:	00 00       	bra	@r0		
 2dc:	69 32       	jn	$-812    	;abs 0xffb0
 2de:	63 5f       	.word	0x5f63;	????	Illegal as 2-op instr
 2e0:	77 72       	subc.b	#8,	r7	;r2 As==11
 2e2:	69 74       	subc.b	@r4,	r9	
 2e4:	65 5f       	add.b	@r15,	r5	
 2e6:	62 79       	subc.b	@r9,	r2	
 2e8:	74 65       	addc.b	@r5+,	r4	
 2ea:	00 14       	pushm.a	#1,	r0	
 2ec:	02 00       	mova	@r0,	r2	
 2ee:	00 69       	addc	r9,	r0	
 2f0:	32 63       	addc	#-1,	r2	;r3 As==11
 2f2:	5f 77 72 69 	subc.b	26994(r7),r15	;0x6972(r7)
 2f6:	74 65       	addc.b	@r5+,	r4	
 2f8:	5f 6d 75 6c 	addc.b	27765(r13),r15	;0x6c75(r13)
 2fc:	74 69       	addc.b	@r9+,	r4	
 2fe:	70 6c       	addc.b	@r12+,	r0	
 300:	65 73       	subc.b	#2,	r5	;r3 As==10
 302:	00 84       	sub	r4,	r0	
 304:	02 00       	mova	@r0,	r2	
 306:	00 69       	addc	r9,	r0	
 308:	32 63       	addc	#-1,	r2	;r3 As==11
 30a:	5f 77 72 69 	subc.b	26994(r7),r15	;0x6972(r7)
 30e:	74 65       	addc.b	@r5+,	r4	
 310:	31 36       	jge	$-924    	;abs 0xff74
 312:	5f 62 79 74 	addc.b	&0x7479,r15	
 316:	65 00 cb 02 	mova	r0,	&0x502cb
 31a:	00 00       	bra	@r0		
 31c:	69 32       	jn	$-812    	;abs 0xfff0
 31e:	63 5f       	.word	0x5f63;	????	Illegal as 2-op instr
 320:	77 72       	subc.b	#8,	r7	;r2 As==11
 322:	69 74       	subc.b	@r4,	r9	
 324:	65 31       	jn	$+716    	;abs 0x5f0
 326:	36 5f       	add	@r15+,	r6	
 328:	6d 75       	subc.b	@r5,	r13	
 32a:	6c 74       	subc.b	@r4,	r12	
 32c:	69 70       	subc.b	@r0,	r9	
 32e:	6c 65       	addc.b	@r5,	r12	
 330:	73 00       	.word	0x0073;	????	Illegal as address instr
 332:	2e 03 00 00 	mova	&0x30000,r14	
 336:	69 32       	jn	$-812    	;abs 0xa
 338:	63 5f       	.word	0x5f63;	????	Illegal as 2-op instr
 33a:	72 65       	addc.b	@r5+,	r2	
 33c:	61 64       	addc.b	@r4,	r1	
 33e:	5f 62 79 74 	addc.b	&0x7479,r15	
 342:	65 00 75 03 	mova	r0,	&0x50375
 346:	00 00       	bra	@r0		
 348:	69 32       	jn	$-812    	;abs 0x1c
 34a:	63 5f       	.word	0x5f63;	????	Illegal as 2-op instr
 34c:	72 65       	addc.b	@r5+,	r2	
 34e:	61 64       	addc.b	@r4,	r1	
 350:	5f 6d 75 6c 	addc.b	27765(r13),r15	;0x6c75(r13)
 354:	74 69       	addc.b	@r9+,	r4	
 356:	70 6c       	addc.b	@r12+,	r0	
 358:	65 73       	subc.b	#2,	r5	;r3 As==10
 35a:	00 de       	bis	r14,	r0	
 35c:	03 00       	.word	0x0003;	????	Illegal as address instr
 35e:	00 69       	addc	r9,	r0	
 360:	32 63       	addc	#-1,	r2	;r3 As==11
 362:	5f 72 65 61 	subc.b	&0x6165,r15	
 366:	64 31       	jn	$+714    	;abs 0x630
 368:	36 5f       	add	@r15+,	r6	
 36a:	62 79       	subc.b	@r9,	r2	
 36c:	74 65       	addc.b	@r5+,	r4	
 36e:	00 29       	jnc	$+514    	;abs 0x570
 370:	04 00       	mova	@r0,	r4	
 372:	00 69       	addc	r9,	r0	
 374:	32 63       	addc	#-1,	r2	;r3 As==11
 376:	5f 72 65 61 	subc.b	&0x6165,r15	
 37a:	64 31       	jn	$+714    	;abs 0x644
 37c:	36 5f       	add	@r15+,	r6	
 37e:	6d 75       	subc.b	@r5,	r13	
 380:	6c 74       	subc.b	@r4,	r12	
 382:	69 70       	subc.b	@r0,	r9	
 384:	6c 65       	addc.b	@r5,	r12	
 386:	73 00       	.word	0x0073;	????	Illegal as address instr
 388:	1c 05       	mova	@r5+,	r12	
 38a:	00 00       	bra	@r0		
 38c:	69 32       	jn	$-812    	;abs 0x60
 38e:	63 5f       	.word	0x5f63;	????	Illegal as 2-op instr
 390:	73 6c       	.word	0x6c73;	????	Illegal as 2-op instr
 392:	61 76       	subc.b	@r6,	r1	
 394:	65 5f       	add.b	@r15,	r5	
 396:	61 64       	addc.b	@r4,	r1	
 398:	64 72       	subc.b	#4,	r4	;r2 As==10
 39a:	65 73       	subc.b	#2,	r5	;r3 As==10
 39c:	73 00       	.word	0x0073;	????	Illegal as address instr
 39e:	00 00       	bra	@r0		
 3a0:	00 00       	bra	@r0		
 3a2:	25 00 00 00 	mova	&0x00000,r5	
 3a6:	02 00       	mova	@r0,	r2	
 3a8:	3c 10       	rrc	@r12+		
 3aa:	00 00       	bra	@r0		
 3ac:	03 01       	.word	0x0103;	????	Illegal as address instr
 3ae:	00 00       	bra	@r0		
 3b0:	8e 00 00 00 	mova	#0x00000,r14	
 3b4:	70 72       	subc.b	#8,	r0	;r2 As==11
 3b6:	69 6e       	addc.b	@r14,	r9	
 3b8:	74 66       	addc.b	@r6+,	r4	
 3ba:	00 cf       	bic	r15,	r0	
 3bc:	00 00       	bra	@r0		
 3be:	00 76       	subc	r6,	r0	
 3c0:	70 72       	subc.b	#8,	r0	;r2 As==11
 3c2:	69 6e       	addc.b	@r14,	r9	
 3c4:	74 66       	addc.b	@r6+,	r4	
 3c6:	00 00       	bra	@r0		
 3c8:	00 00       	bra	@r0		
 3ca:	00 1b       	.word	0x1b00;	????	
 3cc:	00 00       	bra	@r0		
 3ce:	00 02       	bra	#4		;r2 As==10
 3d0:	00 3f       	jmp	$-510    	;abs 0x1d2
 3d2:	11 00       	mova	#0x00000,r1	
 3d4:	00 b5       	bit	r5,	r0	
 3d6:	03 00       	.word	0x0003;	????	Illegal as address instr
 3d8:	00 79       	subc	r9,	r0	
 3da:	02 00       	mova	@r0,	r2	
 3dc:	00 76       	subc	r6,	r0	
 3de:	75 70 72 69 	subc.b	#26994,	r5	;#0x6972
 3e2:	6e 74       	subc.b	@r4,	r14	
 3e4:	66 00 00 00 	mova	r0,	&0x60000
	...

Disassembly of section .debug_info:

00000000 <.debug_info>:
       0:	ec 01       	adda	r1,	r12	
       2:	00 00       	bra	@r0		
       4:	02 00       	mova	@r0,	r2	
       6:	00 00       	bra	@r0		
       8:	00 00       	bra	@r0		
       a:	02 01       	mova	@r1,	r2	
       c:	11 00       	mova	#0x00000,r1	
       e:	00 00       	bra	@r0		
      10:	01 f5       	and	r5,	r1	
      12:	00 00       	bra	@r0		
      14:	00 22       	jnz	$-1022   	;abs 0xfc16
	...
      22:	00 00       	bra	@r0		
      24:	00 02       	bra	#4		;r2 As==10
      26:	04 05       	mova	@r5,	r4	
      28:	ec 00       	adda	r0,	r12	
      2a:	00 00       	bra	@r0		
      2c:	02 02       	mova	#4,	r2	;r2 As==10
      2e:	07 be       	bit	r14,	r7	
      30:	00 00       	bra	@r0		
      32:	00 03       	bra	#2		;r3 As==10
      34:	02 05       	mova	@r5,	r2	
      36:	69 6e       	addc.b	@r14,	r9	
      38:	74 00 02 01 	mova	r0,	258(r4)	;0x0102(r4)
      3c:	06 88       	sub	r8,	r6	
      3e:	00 00       	bra	@r0		
      40:	00 02       	bra	#4		;r2 As==10
      42:	08 05       	mova	@r5,	r8	
      44:	e7 00       	adda	r0,	r7	
      46:	00 00       	bra	@r0		
      48:	02 01       	mova	@r1,	r2	
      4a:	08 86       	sub	r6,	r8	
      4c:	00 00       	bra	@r0		
      4e:	00 02       	bra	#4		;r2 As==10
      50:	04 07       	mova	@r7,	r4	
      52:	b9 00 00 00 	suba	#0x00000,r9	
      56:	02 08       	mova	@r8,	r2	
      58:	07 b4       	bit	r4,	r7	
      5a:	00 00       	bra	@r0		
      5c:	00 02       	bra	#4		;r2 As==10
      5e:	02 07       	mova	@r7,	r2	
      60:	5f 00       	rrcm	#1,	r15	
      62:	00 00       	bra	@r0		
      64:	02 01       	mova	@r1,	r2	
      66:	06 8f       	sub	r15,	r6	
      68:	00 00       	bra	@r0		
      6a:	00 02       	bra	#4		;r2 As==10
      6c:	02 05       	mova	@r5,	r2	
      6e:	fc 00       	suba	r0,	r12	
      70:	00 00       	bra	@r0		
      72:	02 04       	mova	@r4,	r2	
      74:	04 a8       	dadd	r8,	r4	
      76:	00 00       	bra	@r0		
      78:	00 04       	bra	@r4		
      7a:	01 af       	dadd	r15,	r1	
      7c:	00 00       	bra	@r0		
      7e:	00 01       	bra	@r1		
      80:	0b 01       	mova	@r1,	r11	
      82:	33 00       	.word	0x0033;	????	Illegal as address instr
      84:	00 00       	bra	@r0		
      86:	38 31       	jn	$+626    	;abs 0x2f8
      88:	54 32       	jn	$-854    	;abs 0xfd32
      8a:	00 00       	bra	@r0		
      8c:	00 00       	bra	@r0		
      8e:	cf 00       	mova	r0,	r15	
      90:	00 00       	bra	@r0		
      92:	05 1d       	.word	0x1d05;	????	
      94:	00 00       	bra	@r0		
      96:	00 01       	bra	@r1		
      98:	0d 64       	addc	r4,	r13	
      9a:	00 00       	bra	@r0		
      9c:	00 7c       	subc	r12,	r0	
      9e:	00 00       	bra	@r0		
      a0:	00 05       	bra	@r5		
      a2:	d5 00       	cmpa	r0,	r5	
      a4:	00 00       	bra	@r0		
      a6:	01 0d       	mova	@r13,	r1	
      a8:	64 00 00 00 	mova	r0,	&0x40000
      ac:	8f 00 00 00 	mova	#0x00000,r15	
      b0:	05 0a       	mova	@r10,	r5	
      b2:	00 00       	bra	@r0		
      b4:	00 01       	bra	@r1		
      b6:	0d 64       	addc	r4,	r13	
      b8:	00 00       	bra	@r0		
      ba:	00 a2       	dadd	r2,	r0	
      bc:	00 00       	bra	@r0		
      be:	00 05       	bra	@r5		
      c0:	94 00 00 00 	cmpa	#0x00000,r4	
      c4:	01 0d       	mova	@r13,	r1	
      c6:	64 00 00 00 	mova	r0,	&0x40000
      ca:	b5 00 00 00 	suba	#0x00000,r5	
      ce:	00 06       	bra	@r6		
      d0:	03 00       	.word	0x0003;	????	Illegal as address instr
      d2:	00 00       	bra	@r0		
      d4:	02 c4       	bic	r4,	r2	
      d6:	01 00       	mova	@r0,	r1	
      d8:	00 00       	bra	@r0		
      da:	00 e1       	xor	r1,	r0	
      dc:	00 00       	bra	@r0		
      de:	00 01       	bra	@r1		
      e0:	01 07       	mova	@r7,	r1	
      e2:	48 00       	rrcm.a	#1,	r8	
      e4:	00 00       	bra	@r0		
      e6:	06 75       	subc	r5,	r6	
      e8:	00 00       	bra	@r0		
      ea:	00 02       	bra	#4		;r2 As==10
      ec:	c6 01       	mova	r1,	r6	
      ee:	72 00 00 00 	mova	r0,	&0x0000	
      f2:	e1 00       	adda	r0,	r1	
      f4:	00 00       	bra	@r0		
      f6:	01 01       	mova	@r1,	r1	
      f8:	06 09       	mova	@r9,	r6	
      fa:	01 00       	mova	@r0,	r1	
      fc:	00 02       	bra	#4		;r2 As==10
      fe:	c8 01       	mova	r1,	r8	
     100:	06 01       	mova	@r1,	r6	
     102:	00 00       	bra	@r0		
     104:	e1 00       	adda	r0,	r1	
     106:	00 00       	bra	@r0		
     108:	01 01       	mova	@r1,	r1	
     10a:	06 df       	bis	r15,	r6	
     10c:	00 00       	bra	@r0		
     10e:	00 02       	bra	#4		;r2 As==10
     110:	ca 01       	mova	r1,	r10	
     112:	dc 00       	cmpa	r0,	r12	
     114:	00 00       	bra	@r0		
     116:	e1 00       	adda	r0,	r1	
     118:	00 00       	bra	@r0		
     11a:	01 01       	mova	@r1,	r1	
     11c:	06 80       	sub	r0,	r6	
     11e:	00 00       	bra	@r0		
     120:	00 02       	bra	#4		;r2 As==10
     122:	7e 03 7d 00 	mova	#0,	125(r14);r3 As==00, 0x007d(r14)
     126:	00 00       	bra	@r0		
     128:	e1 00       	adda	r0,	r1	
     12a:	00 00       	bra	@r0		
     12c:	01 01       	mova	@r1,	r1	
     12e:	06 14       	pushm.a	#1,	r6	
     130:	01 00       	mova	@r0,	r1	
     132:	00 02       	bra	#4		;r2 As==10
     134:	80 03 11 01 	bra	#0x30111	
     138:	00 00       	bra	@r0		
     13a:	e1 00       	adda	r0,	r1	
     13c:	00 00       	bra	@r0		
     13e:	01 01       	mova	@r1,	r1	
     140:	06 ce       	bic	r14,	r6	
     142:	00 00       	bra	@r0		
     144:	00 02       	bra	#4		;r2 As==10
     146:	d9 05       	cmpa	r5,	r9	
     148:	cb 00       	mova	r0,	r11	
     14a:	00 00       	bra	@r0		
     14c:	52 01       	rram	#1,	r2	
     14e:	00 00       	bra	@r0		
     150:	01 01       	mova	@r1,	r1	
     152:	07 2c       	jc	$+16     	;abs 0x162
     154:	00 00       	bra	@r0		
     156:	00 08       	bra	@r8		
     158:	9b 00 00 00 	cmpa	#0x00000,r11	
     15c:	03 3a       	jl	$-1016   	;abs 0xfd64
     15e:	48 00       	rrcm.a	#1,	r8	
     160:	00 00       	bra	@r0		
     162:	01 01       	mova	@r1,	r1	
     164:	06 03       	mova	#2,	r6	;r3 As==10
     166:	00 00       	bra	@r0		
     168:	00 02       	bra	#4		;r2 As==10
     16a:	c4 01       	mova	r1,	r4	
     16c:	00 00       	bra	@r0		
     16e:	00 00       	bra	@r0		
     170:	e1 00       	adda	r0,	r1	
     172:	00 00       	bra	@r0		
     174:	01 01       	mova	@r1,	r1	
     176:	06 75       	subc	r5,	r6	
     178:	00 00       	bra	@r0		
     17a:	00 02       	bra	#4		;r2 As==10
     17c:	c6 01       	mova	r1,	r6	
     17e:	72 00 00 00 	mova	r0,	&0x0000	
     182:	e1 00       	adda	r0,	r1	
     184:	00 00       	bra	@r0		
     186:	01 01       	mova	@r1,	r1	
     188:	06 09       	mova	@r9,	r6	
     18a:	01 00       	mova	@r0,	r1	
     18c:	00 02       	bra	#4		;r2 As==10
     18e:	c8 01       	mova	r1,	r8	
     190:	06 01       	mova	@r1,	r6	
     192:	00 00       	bra	@r0		
     194:	e1 00       	adda	r0,	r1	
     196:	00 00       	bra	@r0		
     198:	01 01       	mova	@r1,	r1	
     19a:	06 df       	bis	r15,	r6	
     19c:	00 00       	bra	@r0		
     19e:	00 02       	bra	#4		;r2 As==10
     1a0:	ca 01       	mova	r1,	r10	
     1a2:	dc 00       	cmpa	r0,	r12	
     1a4:	00 00       	bra	@r0		
     1a6:	e1 00       	adda	r0,	r1	
     1a8:	00 00       	bra	@r0		
     1aa:	01 01       	mova	@r1,	r1	
     1ac:	06 80       	sub	r0,	r6	
     1ae:	00 00       	bra	@r0		
     1b0:	00 02       	bra	#4		;r2 As==10
     1b2:	7e 03 7d 00 	mova	#0,	125(r14);r3 As==00, 0x007d(r14)
     1b6:	00 00       	bra	@r0		
     1b8:	e1 00       	adda	r0,	r1	
     1ba:	00 00       	bra	@r0		
     1bc:	01 01       	mova	@r1,	r1	
     1be:	06 14       	pushm.a	#1,	r6	
     1c0:	01 00       	mova	@r0,	r1	
     1c2:	00 02       	bra	#4		;r2 As==10
     1c4:	80 03 11 01 	bra	#0x30111	
     1c8:	00 00       	bra	@r0		
     1ca:	e1 00       	adda	r0,	r1	
     1cc:	00 00       	bra	@r0		
     1ce:	01 01       	mova	@r1,	r1	
     1d0:	06 ce       	bic	r14,	r6	
     1d2:	00 00       	bra	@r0		
     1d4:	00 02       	bra	#4		;r2 As==10
     1d6:	d9 05       	cmpa	r5,	r9	
     1d8:	cb 00       	mova	r0,	r11	
     1da:	00 00       	bra	@r0		
     1dc:	52 01       	rram	#1,	r2	
     1de:	00 00       	bra	@r0		
     1e0:	01 01       	mova	@r1,	r1	
     1e2:	08 9b       	cmp	r11,	r8	
     1e4:	00 00       	bra	@r0		
     1e6:	00 03       	bra	#2		;r3 As==10
     1e8:	3a 48       	mov	@r8+,	r10	
     1ea:	00 00       	bra	@r0		
     1ec:	00 01       	bra	@r1		
     1ee:	01 00       	mova	@r0,	r1	
     1f0:	8e 01 00 00 	mova	#0x10000,r14	
     1f4:	02 00       	mova	@r0,	r2	
     1f6:	81 00 00 00 	mova	#0x00000,r1	
     1fa:	02 01       	mova	@r1,	r2	
     1fc:	11 00       	mova	#0x00000,r1	
     1fe:	00 00       	bra	@r0		
     200:	01 6d       	addc	r13,	r1	
     202:	01 00       	mova	@r0,	r1	
     204:	00 22       	jnz	$-1022   	;abs 0xfe06
     206:	00 00       	bra	@r0		
     208:	00 80       	sub	r0,	r0	
     20a:	32 cc       	bic	@r12+,	r2	
     20c:	32 77       	subc	@r7+,	r2	
     20e:	01 00       	mova	@r0,	r1	
     210:	00 02       	bra	#4		;r2 As==10
     212:	02 02       	mova	#4,	r2	;r2 As==10
     214:	0d 30       	jn	$+28     	;abs 0x230
     216:	00 00       	bra	@r0		
     218:	00 03       	bra	#2		;r3 As==10
     21a:	24 01 00 00 	mova	&0x10000,r4	
     21e:	00 00       	bra	@r0		
     220:	04 53       	add	#0,	r4	;r3 As==00
     222:	01 00       	mova	@r0,	r1	
     224:	00 02       	bra	#4		;r2 As==10
     226:	0f 21       	jnz	$+544    	;abs 0x446
     228:	00 00       	bra	@r0		
     22a:	00 05       	bra	@r5		
     22c:	01 84       	sub	r4,	r1	
     22e:	01 00       	mova	@r0,	r1	
     230:	00 01       	bra	@r1		
     232:	11 01       	mova	@r1+,	r1	
     234:	80 32       	jn	$-766    	;abs 0xff36
     236:	82 32       	jn	$-762    	;abs 0xff3c
     238:	02 71       	subc	r1,	r2	
     23a:	02 5c       	add	r12,	r2	
     23c:	00 00       	bra	@r0		
     23e:	00 06       	bra	@r6		
     240:	32 01 00 00 	mova	0(r1),	r2	;0x0000(r1)
     244:	01 13       	reti			;return from interupt
     246:	5c 00       	rrcm	#1,	r12	
     248:	00 00       	bra	@r0		
     24a:	05 00       	mova	@r0,	r5	
     24c:	07 02       	mova	#4,	r7	;r2 As==10
     24e:	07 be       	bit	r14,	r7	
     250:	00 00       	bra	@r0		
     252:	00 05       	bra	@r5		
     254:	01 4a       	mov	r10,	r1	
     256:	01 00       	mova	@r0,	r1	
     258:	00 01       	bra	@r1		
     25a:	19 01       	mova	@r1+,	r9	
     25c:	82 32       	jn	$-762    	;abs 0xff62
     25e:	84 32       	jn	$-758    	;abs 0xff68
     260:	02 71       	subc	r1,	r2	
     262:	02 84       	sub	r4,	r2	
     264:	00 00       	bra	@r0		
     266:	00 06       	bra	@r6		
     268:	32 01 00 00 	mova	0(r1),	r2	;0x0000(r1)
     26c:	01 1b       	.word	0x1b01;	????	
     26e:	5c 00       	rrcm	#1,	r12	
     270:	00 00       	bra	@r0		
     272:	10 00       	bra	#0x00000	
     274:	05 01       	mova	@r1,	r5	
     276:	65 01 00 00 	mova	r1,	&0x50000
     27a:	01 23       	jnz	$-508    	;abs 0x7e
     27c:	01 84       	sub	r4,	r1	
     27e:	32 94       	cmp	@r4+,	r2	
     280:	32 02 71 02 	mova	&0x0271,r2	
     284:	b3 00       	.word	0x00b3;	????	Illegal as address instr
     286:	00 00       	bra	@r0		
     288:	08 32       	jn	$-1006   	;abs 0xfe9a
     28a:	01 00       	mova	@r0,	r1	
     28c:	00 01       	bra	@r1		
     28e:	23 5c       	.word	0x5c23;	????	Illegal as 2-op instr
     290:	00 00       	bra	@r0		
     292:	00 01       	bra	@r1		
     294:	5f 09       	rram	#3,	r15	
     296:	69 00 01 25 	mova	r0,	&0x92501
     29a:	b3 00       	.word	0x00b3;	????	Illegal as address instr
     29c:	00 00       	bra	@r0		
     29e:	c8 00       	mova	r0,	r8	
     2a0:	00 00       	bra	@r0		
     2a2:	00 0a       	bra	@r10		
     2a4:	02 05       	mova	@r5,	r2	
     2a6:	69 6e       	addc.b	@r14,	r9	
     2a8:	74 00 0b 01 	mova	r0,	267(r4)	;0x010b(r4)
     2ac:	42 01       	rram.a	#1,	r2	
     2ae:	00 00       	bra	@r0		
     2b0:	01 2c       	jc	$+4      	;abs 0x2b4
     2b2:	01 94       	cmp	r4,	r1	
     2b4:	32 b4       	bit	@r4+,	r2	
     2b6:	32 db       	bis	@r11+,	r2	
     2b8:	00 00       	bra	@r0		
     2ba:	00 ec       	xor	r12,	r0	
     2bc:	00 00       	bra	@r0		
     2be:	00 0c       	bra	@r12		
     2c0:	32 01 00 00 	mova	0(r1),	r2	;0x0000(r1)
     2c4:	01 2c       	jc	$+4      	;abs 0x2c8
     2c6:	5c 00       	rrcm	#1,	r12	
     2c8:	00 00       	bra	@r0		
     2ca:	f7 00       	suba	r0,	r7	
     2cc:	00 00       	bra	@r0		
     2ce:	09 69       	rlc	r9		
     2d0:	00 01       	bra	@r1		
     2d2:	2e b3       	bit	#2,	r14	;r3 As==10
     2d4:	00 00       	bra	@r0		
     2d6:	00 09       	bra	@r9		
     2d8:	01 00       	mova	@r0,	r1	
     2da:	00 00       	bra	@r0		
     2dc:	05 01       	mova	@r1,	r5	
     2de:	38 01 00 00 	mova	0(r1),	r8	;0x0000(r1)
     2e2:	01 33       	jn	$-508    	;abs 0xe6
     2e4:	01 b4       	bit	r4,	r1	
     2e6:	32 bc       	bit	@r12+,	r2	
     2e8:	32 02 71 02 	mova	&0x0271,r2	
     2ec:	1d 01       	mova	@r1+,	r13	
     2ee:	00 00       	bra	@r0		
     2f0:	0c 5f       	add	r15,	r12	
     2f2:	01 00       	mova	@r0,	r1	
     2f4:	00 01       	bra	@r1		
     2f6:	33 30       	jn	$+104    	;abs 0x35e
     2f8:	00 00       	bra	@r0		
     2fa:	00 1c       	.word	0x1c00;	????	
     2fc:	01 00       	mova	@r0,	r1	
     2fe:	00 08       	bra	@r8		
     300:	75 01 00 00 	mova	r1,	0(r5)	;0x0000(r5)
     304:	01 33       	jn	$-508    	;abs 0x108
     306:	5c 00       	rrcm	#1,	r12	
     308:	00 00       	bra	@r0		
     30a:	01 5e       	add	r14,	r1	
     30c:	00 0d       	bra	@r13		
     30e:	01 7a       	subc	r10,	r1	
     310:	01 00       	mova	@r0,	r1	
     312:	00 01       	bra	@r1		
     314:	37 01 45 01 	mova	325(r1),r7	;0x0145(r1)
     318:	00 00       	bra	@r0		
     31a:	bc 32       	jn	$-646    	;abs 0x94
     31c:	cc 32       	jn	$-614    	;abs 0xb6
     31e:	02 71       	subc	r1,	r2	
     320:	02 45       	mov	r5,	r2	
     322:	01 00       	mova	@r0,	r1	
     324:	00 0c       	bra	@r12		
     326:	5f 01       	rram	#1,	r15	
     328:	00 00       	bra	@r0		
     32a:	01 37       	jge	$-508    	;abs 0x12e
     32c:	30 00 00 00 	bra	0x0000		;PC rel. 0x0032e
     330:	27 01 00 00 	mova	&0x10000,r7	
     334:	00 07       	bra	@r7		
     336:	01 08       	mova	@r8,	r1	
     338:	86 00 00 00 	mova	#0x00000,r6	
     33c:	0e 5c       	add	r12,	r14	
     33e:	00 00       	bra	@r0		
     340:	00 5b       	add	r11,	r0	
     342:	01 00       	mova	@r0,	r1	
     344:	00 0f       	bra	@r15		
     346:	5c 00       	rrcm	#1,	r12	
     348:	00 00       	bra	@r0		
     34a:	00 10       	rrc	r0		
     34c:	1a 01       	mova	@r1+,	r10	
     34e:	00 00       	bra	@r0		
     350:	02 11       	rra	r2		
     352:	68 01 00 00 	mova	r1,	&0x80000
     356:	01 01       	mova	@r1,	r1	
     358:	11 4c 01 00 	mov	1(r12),	r1	;0x0001(r12)
     35c:	00 0e       	bra	@r14		
     35e:	5c 00       	rrcm	#1,	r12	
     360:	00 00       	bra	@r0		
     362:	7c 01 00 00 	mova	r1,	0(r12)	;0x0000(r12)
     366:	0f 5c       	add	r12,	r15	
     368:	00 00       	bra	@r0		
     36a:	00 00       	bra	@r0		
     36c:	12 1a       	.word	0x1a12;	????	
     36e:	01 00       	mova	@r0,	r1	
     370:	00 01       	bra	@r1		
     372:	0f 8c       	sub	r12,	r15	
     374:	01 00       	mova	@r0,	r1	
     376:	00 01       	bra	@r1		
     378:	03 03       	.word	0x0303;	????	Illegal as address instr
     37a:	08 11       	rra	r8		
     37c:	11 6d 01 00 	addc	1(r13),	r1	;0x0001(r13)
     380:	00 00       	bra	@r0		
     382:	89 07 00 00 	mova	#0x70000,r9	
     386:	02 00       	mova	@r0,	r2	
     388:	8a 01 00 00 	mova	#0x10000,r10	
     38c:	02 01       	mova	@r1,	r2	
     38e:	11 00       	mova	#0x00000,r1	
     390:	00 00       	bra	@r0		
     392:	01 db       	bis	r11,	r1	
     394:	01 00       	mova	@r0,	r1	
     396:	00 22       	jnz	$-1022   	;abs 0xff98
     398:	00 00       	bra	@r0		
     39a:	00 cc       	bic	r12,	r0	
     39c:	32 92       	cmp	#8,	r2	;r2 As==11
     39e:	3d 1b       	.word	0x1b3d;	????	
     3a0:	02 00       	mova	@r0,	r2	
     3a2:	00 02       	bra	#4		;r2 As==10
     3a4:	04 05       	mova	@r5,	r4	
     3a6:	ec 00       	adda	r0,	r12	
     3a8:	00 00       	bra	@r0		
     3aa:	02 02       	mova	#4,	r2	;r2 As==10
     3ac:	07 be       	bit	r14,	r7	
     3ae:	00 00       	bra	@r0		
     3b0:	00 03       	bra	#2		;r3 As==10
     3b2:	02 05       	mova	@r5,	r2	
     3b4:	69 6e       	addc.b	@r14,	r9	
     3b6:	74 00 02 01 	mova	r0,	258(r4)	;0x0102(r4)
     3ba:	06 88       	sub	r8,	r6	
     3bc:	00 00       	bra	@r0		
     3be:	00 02       	bra	#4		;r2 As==10
     3c0:	08 05       	mova	@r5,	r8	
     3c2:	e7 00       	adda	r0,	r7	
     3c4:	00 00       	bra	@r0		
     3c6:	02 01       	mova	@r1,	r2	
     3c8:	08 86       	sub	r6,	r8	
     3ca:	00 00       	bra	@r0		
     3cc:	00 02       	bra	#4		;r2 As==10
     3ce:	04 07       	mova	@r7,	r4	
     3d0:	b9 00 00 00 	suba	#0x00000,r9	
     3d4:	02 08       	mova	@r8,	r2	
     3d6:	07 b4       	bit	r4,	r7	
     3d8:	00 00       	bra	@r0		
     3da:	00 02       	bra	#4		;r2 As==10
     3dc:	02 07       	mova	@r7,	r2	
     3de:	5f 00       	rrcm	#1,	r15	
     3e0:	00 00       	bra	@r0		
     3e2:	02 01       	mova	@r1,	r2	
     3e4:	06 8f       	sub	r15,	r6	
     3e6:	00 00       	bra	@r0		
     3e8:	00 04       	bra	@r4		
     3ea:	02 04       	mova	@r4,	r2	
     3ec:	0d 76       	subc	r6,	r13	
     3ee:	00 00       	bra	@r0		
     3f0:	00 05       	bra	@r5		
     3f2:	24 01 00 00 	mova	&0x10000,r4	
     3f6:	00 00       	bra	@r0		
     3f8:	06 01       	mova	@r1,	r6	
     3fa:	92 01 00 00 	cmpa	#0x10000,r2	
     3fe:	01 b8       	bit	r8,	r1	
     400:	01 01       	mova	@r1,	r1	
     402:	01 07       	mova	@r7,	r1	
     404:	01 2b       	jnc	$-508    	;abs 0x208
     406:	02 00       	mova	@r0,	r2	
     408:	00 01       	bra	@r1		
     40a:	c0 01       	bra	r1		
     40c:	01 01       	mova	@r1,	r1	
     40e:	a5 00 00 00 	adda	#0x00000,r5	
     412:	08 78       	subc	r8,	r8	
     414:	00 01       	bra	@r1		
     416:	c0 01       	bra	r1		
     418:	44 00       	rrcm.a	#1,	r4	
     41a:	00 00       	bra	@r0		
     41c:	08 79       	subc	r9,	r8	
     41e:	00 01       	bra	@r1		
     420:	c0 01       	bra	r1		
     422:	44 00       	rrcm.a	#1,	r4	
     424:	00 00       	bra	@r0		
     426:	00 09       	bra	@r9		
     428:	01 69       	addc	r9,	r1	
     42a:	02 00       	mova	@r0,	r2	
     42c:	00 01       	bra	@r1		
     42e:	b1 01 cc 32 	suba	#0x132cc,r1	
     432:	d6 32       	jn	$-594    	;abs 0x1e0
     434:	02 71       	subc	r1,	r2	
     436:	02 d4       	bis	r4,	r2	
     438:	00 00       	bra	@r0		
     43a:	00 0a       	bra	@r10		
     43c:	9a 02 00 00 	cmpa	#0x20000,r10	
     440:	01 b1       	bit	r1,	r1	
     442:	44 00       	rrcm.a	#1,	r4	
     444:	00 00       	bra	@r0		
     446:	01 5f       	add	r15,	r1	
     448:	0a 9e       	cmp	r14,	r10	
     44a:	01 00       	mova	@r0,	r1	
     44c:	00 01       	bra	@r1		
     44e:	b1 44 00 00 	mov	@r4+,	0(r1)	;0x0000(r1)
     452:	00 01       	bra	@r1		
     454:	5e 00       	rrcm	#1,	r14	
     456:	0b 01       	mova	@r1,	r11	
     458:	c2 01       	mova	r1,	r2	
     45a:	00 00       	bra	@r0		
     45c:	01 bd       	bit	r13,	r1	
     45e:	01 d6       	bis	r6,	r1	
     460:	32 3c       	jmp	$+102    	;abs 0x4c6
     462:	33 32       	jn	$-920    	;abs 0xca
     464:	01 00       	mova	@r0,	r1	
     466:	00 20       	jnz	$+2      	;abs 0x468
     468:	01 00       	mova	@r0,	r1	
     46a:	00 0a       	bra	@r10		
     46c:	95 02 00 00 	cmpa	#0x20000,r5	
     470:	01 bd       	bit	r13,	r1	
     472:	44 00       	rrcm.a	#1,	r4	
     474:	00 00       	bra	@r0		
     476:	01 5f       	add	r15,	r1	
     478:	0c 63       	adc	r12		
     47a:	6d 64       	addc.b	@r4,	r13	
     47c:	00 01       	bra	@r1		
     47e:	bd 44 00 00 	mov	@r4+,	0(r13)	;0x0000(r13)
     482:	00 01       	bra	@r1		
     484:	5e 0d       	rram	#4,	r14	
     486:	dd 02       	cmpa	r2,	r13	
     488:	00 00       	bra	@r0		
     48a:	01 bf       	bit	r15,	r1	
     48c:	44 00       	rrcm.a	#1,	r4	
     48e:	00 00       	bra	@r0		
     490:	46 01       	rram.a	#1,	r6	
     492:	00 00       	bra	@r0		
     494:	0e 69       	addc	r9,	r14	
     496:	00 01       	bra	@r1		
     498:	c0 44 00 00 	mov.b	r4,	0x0000	;PC rel. 0x0049c
     49c:	00 72       	subc	r2,	r0	
     49e:	01 00       	mova	@r0,	r1	
     4a0:	00 00       	bra	@r0		
     4a2:	0f 01       	mova	@r1,	r15	
     4a4:	3f 02 00 00 	mova	&0x0000,r15	
     4a8:	01 1f       	.word	0x1f01;	????	
     4aa:	01 01       	mova	@r1,	r1	
     4ac:	3c 33       	jn	$-390    	;abs 0x326
     4ae:	54 33       	jn	$-342    	;abs 0x358
     4b0:	7e 01 00 00 	mova	r1,	0(r14)	;0x0000(r14)
     4b4:	57 01       	rram	#1,	r7	
     4b6:	00 00       	bra	@r0		
     4b8:	10 8d 01 00 	sub	1(r13),	r0	;0x0001(r13)
     4bc:	00 01       	bra	@r1		
     4be:	1f 01       	mova	@r1+,	r15	
     4c0:	44 00       	rrcm.a	#1,	r4	
     4c2:	00 00       	bra	@r0		
     4c4:	92 01 00 00 	cmpa	#0x10000,r2	
     4c8:	11 64 61 74 	addc	29793(r4),r1	;0x7461(r4)
     4cc:	00 01       	bra	@r1		
     4ce:	1f 01       	mova	@r1+,	r15	
     4d0:	44 00       	rrcm.a	#1,	r4	
     4d2:	00 00       	bra	@r0		
     4d4:	9d 01 00 00 	cmpa	#0x10000,r13	
     4d8:	00 0f       	bra	@r15		
     4da:	01 4e       	mov	r14,	r1	
     4dc:	02 00       	mova	@r0,	r2	
     4de:	00 01       	bra	@r1		
     4e0:	25 01 01 54 	mova	&0x15401,r5	
     4e4:	33 7a       	.word	0x7a33;	????	Illegal as 2-op instr
     4e6:	33 af       	.word	0xaf33;	????	Illegal as 2-op instr
     4e8:	01 00       	mova	@r0,	r1	
     4ea:	00 9e       	cmp	r14,	r0	
     4ec:	01 00       	mova	@r0,	r1	
     4ee:	00 10       	rrc	r0		
     4f0:	8d 01 00 00 	mova	#0x10000,r13	
     4f4:	01 25       	jz	$+516    	;abs 0x6f8
     4f6:	01 44       	mov	r4,	r1	
     4f8:	00 00       	bra	@r0		
     4fa:	00 cb       	bic	r11,	r0	
     4fc:	01 00       	mova	@r0,	r1	
     4fe:	00 10       	rrc	r0		
     500:	64 02 00 00 	mova	r2,	&0x40000
     504:	01 25       	jz	$+516    	;abs 0x708
     506:	01 44       	mov	r4,	r1	
     508:	00 00       	bra	@r0		
     50a:	00 d6       	bis	r6,	r0	
     50c:	01 00       	mova	@r0,	r1	
     50e:	00 10       	rrc	r0		
     510:	cb 02       	mova	r2,	r11	
     512:	00 00       	bra	@r0		
     514:	01 25       	jz	$+516    	;abs 0x718
     516:	01 44       	mov	r4,	r1	
     518:	00 00       	bra	@r0		
     51a:	00 e8       	xor	r8,	r0	
     51c:	01 00       	mova	@r0,	r1	
     51e:	00 00       	bra	@r0		
     520:	0f 01       	mova	@r1,	r15	
     522:	03 03       	.word	0x0303;	????	Illegal as address instr
     524:	00 00       	bra	@r0		
     526:	01 2c       	jc	$+4      	;abs 0x52a
     528:	01 01       	mova	@r1,	r1	
     52a:	7a 33       	jn	$-266    	;abs 0x420
     52c:	10 34       	jge	$+34     	;abs 0x54e
     52e:	fa 01       	suba	r1,	r10	
     530:	00 00       	bra	@r0		
     532:	1e 02       	mova	#8,	r14	;r2 As==11
     534:	00 00       	bra	@r0		
     536:	11 78 00 01 	subc	256(r8),r1	;0x0100(r8)
     53a:	2c 01 44 00 	mova	&0x10044,r12	
     53e:	00 00       	bra	@r0		
     540:	36 02 00 00 	mova	&0x0000,r6	
     544:	11 79 00 01 	subc	256(r9),r1	;0x0100(r9)
     548:	2c 01 44 00 	mova	&0x10044,r12	
     54c:	00 00       	bra	@r0		
     54e:	48 02       	rlam.a	#1,	r8	
     550:	00 00       	bra	@r0		
     552:	11 6c 78 00 	addc	120(r12),r1	;0x0078(r12)
     556:	01 2c       	jc	$+4      	;abs 0x55a
     558:	01 44       	mov	r4,	r1	
     55a:	00 00       	bra	@r0		
     55c:	00 5a       	add	r10,	r0	
     55e:	02 00       	mova	@r0,	r2	
     560:	00 11       	rra	r0		
     562:	6c 79       	subc.b	@r9,	r12	
     564:	00 01       	bra	@r1		
     566:	2c 01 44 00 	mova	&0x10044,r12	
     56a:	00 00       	bra	@r0		
     56c:	6c 02 00 00 	mova	r2,	&0xc0000
     570:	12 a5 02 00 	dadd	2(r5),	r2	;0x0002(r5)
     574:	00 01       	bra	@r1		
     576:	2c 01 44 00 	mova	&0x10044,r12	
     57a:	00 00       	bra	@r0		
     57c:	02 91       	cmp	r1,	r2	
     57e:	0a 13       	reti			;return from interupt
     580:	9c 03 00 00 	cmpa	#0x30000,r12	
     584:	01 2e       	jc	$-1020   	;abs 0x188
     586:	01 28       	jnc	$+4      	;abs 0x58a
     588:	00 00       	bra	@r0		
     58a:	00 87       	sub	r7,	r0	
     58c:	02 00       	mova	@r0,	r2	
     58e:	00 14       	pushm.a	#1,	r0	
     590:	6d 61       	addc.b	@r1,	r13	
     592:	78 00 01 2e 	mova	r0,	11777(r8);0x2e01(r8)
     596:	01 28       	jnc	$+4      	;abs 0x59a
     598:	00 00       	bra	@r0		
     59a:	00 9a       	cmp	r10,	r0	
     59c:	02 00       	mova	@r0,	r2	
     59e:	00 00       	bra	@r0		
     5a0:	0f 01       	mova	@r1,	r15	
     5a2:	8b 02 00 00 	mova	#0x20000,r11	
     5a6:	01 1a       	.word	0x1a01;	????	
     5a8:	01 01       	mova	@r1,	r1	
     5aa:	10 34       	jge	$+34     	;abs 0x5cc
     5ac:	24 34       	jge	$+74     	;abs 0x5f6
     5ae:	a5 02 00 00 	adda	#0x20000,r5	
     5b2:	45 02       	rlam.a	#1,	r5	
     5b4:	00 00       	bra	@r0		
     5b6:	10 a5 02 00 	dadd	2(r5),	r0	;0x0002(r5)
     5ba:	00 01       	bra	@r1		
     5bc:	1a 01       	mova	@r1+,	r10	
     5be:	44 00       	rrcm.a	#1,	r4	
     5c0:	00 00       	bra	@r0		
     5c2:	c1 02       	mova	r2,	r1	
     5c4:	00 00       	bra	@r0		
     5c6:	00 0b       	bra	@r11		
     5c8:	01 f9       	and	r9,	r1	
     5ca:	01 00       	mova	@r0,	r1	
     5cc:	00 01       	bra	@r1		
     5ce:	e0 01       	adda	r1,	r0	
     5d0:	24 34       	jge	$+74     	;abs 0x61a
     5d2:	8e 35       	jge	$+798    	;abs 0x8f0
     5d4:	d4 02       	cmpa	r2,	r4	
     5d6:	00 00       	bra	@r0		
     5d8:	6a 02 00 00 	mova	r2,	&0xa0000
     5dc:	15 a5 02 00 	dadd	2(r5),	r5	;0x0002(r5)
     5e0:	00 01       	bra	@r1		
     5e2:	e0 44 00 00 	mov.b	@r4,	0x0000	;PC rel. 0x005e6
     5e6:	00 28       	jnc	$+2      	;abs 0x5e8
     5e8:	03 00       	.word	0x0003;	????	Illegal as address instr
     5ea:	00 00       	bra	@r0		
     5ec:	0f 01       	mova	@r1,	r15	
     5ee:	7c 02 00 00 	mova	r2,	0(r12)	;0x0000(r12)
     5f2:	01 43       	clr	r1		
     5f4:	01 01       	mova	@r1,	r1	
     5f6:	8e 35       	jge	$+798    	;abs 0x914
     5f8:	2e 37       	jge	$-418    	;abs 0x456
     5fa:	3a 03 00 00 	mova	#1,	r10	;r3 As==01
     5fe:	18 03       	mova	#-1,	r8	;r3 As==11
     600:	00 00       	bra	@r0		
     602:	11 78 30 00 	subc	48(r8),	r1	;0x0030(r8)
     606:	01 43       	clr	r1		
     608:	01 28       	jnc	$+4      	;abs 0x60c
     60a:	00 00       	bra	@r0		
     60c:	00 ae       	dadd	r14,	r0	
     60e:	03 00       	.word	0x0003;	????	Illegal as address instr
     610:	00 11       	rra	r0		
     612:	79 30       	jn	$+244    	;abs 0x706
     614:	00 01       	bra	@r1		
     616:	43 01       	rram.a	#1,	#0	;r3 As==00
     618:	28 00 00 00 	mova	&0x00000,r8	
     61c:	c0 03       	bra	#0		;r3 As==00
     61e:	00 00       	bra	@r0		
     620:	10 5d 02 00 	add	2(r13),	r0	;0x0002(r13)
     624:	00 01       	bra	@r1		
     626:	43 01       	rram.a	#1,	#0	;r3 As==00
     628:	28 00 00 00 	mova	&0x00000,r8	
     62c:	d2 03       	tsta	r2		
     62e:	00 00       	bra	@r0		
     630:	10 a5 02 00 	dadd	2(r5),	r0	;0x0002(r5)
     634:	00 01       	bra	@r1		
     636:	43 01       	rram.a	#1,	#0	;r3 As==00
     638:	44 00       	rrcm.a	#1,	r4	
     63a:	00 00       	bra	@r0		
     63c:	e5 03       	incda	r5		
     63e:	00 00       	bra	@r0		
     640:	12 0b       	mova	@r11+,	r2	
     642:	02 00       	mova	@r0,	r2	
     644:	00 01       	bra	@r1		
     646:	43 01       	rram.a	#1,	#0	;r3 As==00
     648:	2f 00 00 00 	mova	&0x00000,r15	
     64c:	02 91       	cmp	r1,	r2	
     64e:	1c 14       	pushm.a	#2,	r12	
     650:	66 00 01 44 	mova	r0,	&0x64401
     654:	01 2f       	jc	$-508    	;abs 0x458
     656:	00 00       	bra	@r0		
     658:	00 f7       	and	r7,	r0	
     65a:	03 00       	.word	0x0003;	????	Illegal as address instr
     65c:	00 13       	reti			
     65e:	bf 02 00 00 	suba	#0x20000,r15	
     662:	01 45       	mov	r5,	r1	
     664:	01 2f       	jc	$-508    	;abs 0x468
     666:	00 00       	bra	@r0		
     668:	00 19       	.word	0x1900;	????	
     66a:	04 00       	mova	@r0,	r4	
     66c:	00 13       	reti			
     66e:	c5 02       	mova	r2,	r5	
     670:	00 00       	bra	@r0		
     672:	01 46       	mov	r6,	r1	
     674:	01 2f       	jc	$-508    	;abs 0x478
     676:	00 00       	bra	@r0		
     678:	00 25       	jz	$+514    	;abs 0x87a
     67a:	04 00       	mova	@r0,	r4	
     67c:	00 14       	pushm.a	#1,	r0	
     67e:	78 00 01 47 	mova	r0,	18177(r8);0x4701(r8)
     682:	01 2f       	jc	$-508    	;abs 0x486
     684:	00 00       	bra	@r0		
     686:	00 5a       	add	r10,	r0	
     688:	04 00       	mova	@r0,	r4	
     68a:	00 14       	pushm.a	#1,	r0	
     68c:	79 00 01 48 	mova	r0,	18433(r9);0x4801(r9)
     690:	01 2f       	jc	$-508    	;abs 0x494
     692:	00 00       	bra	@r0		
     694:	00 76       	subc	r6,	r0	
     696:	04 00       	mova	@r0,	r4	
     698:	00 00       	bra	@r0		
     69a:	0f 01       	mova	@r1,	r15	
     69c:	cd 01       	mova	r1,	r13	
     69e:	00 00       	bra	@r0		
     6a0:	01 92       	cmp	r2,	r1	
     6a2:	01 01       	mova	@r1,	r1	
     6a4:	2e 37       	jge	$-418    	;abs 0x502
     6a6:	96 37       	jge	$-210    	;abs 0x5d4
     6a8:	89 04 00 00 	mova	#0x40000,r9	
     6ac:	5b 03       	rrum	#1,	r11	
     6ae:	00 00       	bra	@r0		
     6b0:	11 78 00 01 	subc	256(r8),r1	;0x0100(r8)
     6b4:	92 01 44 00 	cmpa	#0x10044,r2	
     6b8:	00 00       	bra	@r0		
     6ba:	b5 04 00 00 	suba	#0x40000,r5	
     6be:	11 79 00 01 	subc	256(r9),r1	;0x0100(r9)
     6c2:	92 01 44 00 	cmpa	#0x10044,r2	
     6c6:	00 00       	bra	@r0		
     6c8:	c7 04       	mova	r4,	r7	
     6ca:	00 00       	bra	@r0		
     6cc:	10 a5 02 00 	dadd	2(r5),	r0	;0x0002(r5)
     6d0:	00 01       	bra	@r1		
     6d2:	92 01 44 00 	cmpa	#0x10044,r2	
     6d6:	00 00       	bra	@r0		
     6d8:	d9 04       	cmpa	r4,	r9	
     6da:	00 00       	bra	@r0		
     6dc:	00 0f       	bra	@r15		
     6de:	01 f6       	and	r6,	r1	
     6e0:	02 00       	mova	@r0,	r2	
     6e2:	00 01       	bra	@r1		
     6e4:	61 01 01 96 	mova	r1,	&0x19601
     6e8:	37 64       	addc	@r4+,	r7	
     6ea:	38 eb       	xor	@r11+,	r8	
     6ec:	04 00       	mova	@r0,	r4	
     6ee:	00 2b       	jnc	$-510    	;abs 0x4f0
     6f0:	04 00       	mova	@r0,	r4	
     6f2:	00 11       	rra	r0		
     6f4:	78 30       	jn	$+242    	;abs 0x7e6
     6f6:	00 01       	bra	@r1		
     6f8:	61 01 2f 00 	mova	r1,	&0x1002f
     6fc:	00 00       	bra	@r0		
     6fe:	3f 05 00 00 	mova	0(r5),	r15	;0x0000(r5)
     702:	11 79 30 00 	subc	48(r9),	r1	;0x0030(r9)
     706:	01 61       	rlc	r1		
     708:	01 2f       	jc	$-508    	;abs 0x50c
     70a:	00 00       	bra	@r0		
     70c:	00 5f       	add	r15,	r0	
     70e:	05 00       	mova	@r0,	r5	
     710:	00 11       	rra	r0		
     712:	78 31       	jn	$+754    	;abs 0xa04
     714:	00 01       	bra	@r1		
     716:	61 01 2f 00 	mova	r1,	&0x1002f
     71a:	00 00       	bra	@r0		
     71c:	86 05 00 00 	mova	#0x50000,r6	
     720:	11 79 31 00 	subc	49(r9),	r1	;0x0031(r9)
     724:	01 61       	rlc	r1		
     726:	01 2f       	jc	$-508    	;abs 0x52a
     728:	00 00       	bra	@r0		
     72a:	00 a9       	dadd	r9,	r0	
     72c:	05 00       	mova	@r0,	r5	
     72e:	00 12       	push	r0		
     730:	a5 02 00 00 	adda	#0x20000,r5	
     734:	01 61       	rlc	r1		
     736:	01 44       	mov	r4,	r1	
     738:	00 00       	bra	@r0		
     73a:	00 02       	bra	#4		;r2 As==10
     73c:	91 16       	popm.a	#10,	r10	
     73e:	14 64 79 00 	addc	121(r4),r4	;0x0079(r4)
     742:	01 62       	addc	r2,	r1	
     744:	01 2f       	jc	$-508    	;abs 0x548
     746:	00 00       	bra	@r0		
     748:	00 bc       	bit	r12,	r0	
     74a:	05 00       	mova	@r0,	r5	
     74c:	00 14       	pushm.a	#1,	r0	
     74e:	64 78       	subc.b	@r8,	r4	
     750:	00 01       	bra	@r1		
     752:	63 01 2f 00 	mova	r1,	&0x3002f
     756:	00 00       	bra	@r0		
     758:	e6 05       	adda	r5,	r6	
     75a:	00 00       	bra	@r0		
     75c:	13 bc       	.word	0xbc13;	????	Illegal as 2-op instr
     75e:	01 00       	mova	@r0,	r1	
     760:	00 01       	bra	@r1		
     762:	64 01 2f 00 	mova	r1,	&0x4002f
     766:	00 00       	bra	@r0		
     768:	10 06       	bra	@r6+		
     76a:	00 00       	bra	@r0		
     76c:	13 76       	.word	0x7613;	????	Illegal as 2-op instr
     76e:	02 00       	mova	@r0,	r2	
     770:	00 01       	bra	@r1		
     772:	64 01 2f 00 	mova	r1,	&0x4002f
     776:	00 00       	bra	@r0		
     778:	2b 06 00 00 	mova	&0x60000,r11	
     77c:	16 de 37 0c 	bis	3127(r14),r6	;0x0c37(r14)
     780:	38 14       	pushm.a	#4,	r8	
     782:	04 00       	mova	@r0,	r4	
     784:	00 13       	reti			
     786:	02 02       	mova	#4,	r2	;r2 As==10
     788:	00 00       	bra	@r0		
     78a:	01 79       	subc	r9,	r1	
     78c:	01 2f       	jc	$-508    	;abs 0x590
     78e:	00 00       	bra	@r0		
     790:	00 46       	br	r6		
     792:	06 00       	mova	@r0,	r6	
     794:	00 00       	bra	@r0		
     796:	17 20       	jnz	$+48     	;abs 0x7c6
     798:	38 54       	add	@r4+,	r8	
     79a:	38 13       	reti			;return from interupt
     79c:	02 02       	mova	#4,	r2	;r2 As==10
     79e:	00 00       	bra	@r0		
     7a0:	01 85       	sub	r5,	r1	
     7a2:	01 2f       	jc	$-508    	;abs 0x5a6
     7a4:	00 00       	bra	@r0		
     7a6:	00 70       	subc	r0,	r0	
     7a8:	06 00       	mova	@r0,	r6	
     7aa:	00 00       	bra	@r0		
     7ac:	00 0f       	bra	@r15		
     7ae:	01 1d       	.word	0x1d01;	????	
     7b0:	03 00       	.word	0x0003;	????	Illegal as address instr
     7b2:	00 01       	bra	@r1		
     7b4:	a2 01 01 64 	adda	#0x16401,r2	
     7b8:	38 fe       	and	@r14+,	r8	
     7ba:	38 9a       	cmp	@r10+,	r8	
     7bc:	06 00       	mova	@r0,	r6	
     7be:	00 a9       	dadd	r9,	r0	
     7c0:	04 00       	mova	@r0,	r4	
     7c2:	00 11       	rra	r0		
     7c4:	78 00 01 a2 	mova	r0,	-24063(r8);0xa201(r8)
     7c8:	01 44       	mov	r4,	r1	
     7ca:	00 00       	bra	@r0		
     7cc:	00 d6       	bis	r6,	r0	
     7ce:	06 00       	mova	@r0,	r6	
     7d0:	00 11       	rra	r0		
     7d2:	79 00 01 a2 	mova	r0,	-24063(r9);0xa201(r9)
     7d6:	01 44       	mov	r4,	r1	
     7d8:	00 00       	bra	@r0		
     7da:	00 e8       	xor	r8,	r0	
     7dc:	06 00       	mova	@r0,	r6	
     7de:	00 11       	rra	r0		
     7e0:	6c 78       	subc.b	@r8,	r12	
     7e2:	00 01       	bra	@r1		
     7e4:	a2 01 44 00 	adda	#0x10044,r2	
     7e8:	00 00       	bra	@r0		
     7ea:	fa 06       	suba	r6,	r10	
     7ec:	00 00       	bra	@r0		
     7ee:	11 6c 79 00 	addc	121(r12),r1	;0x0079(r12)
     7f2:	01 a2       	dadd	r2,	r1	
     7f4:	01 44       	mov	r4,	r1	
     7f6:	00 00       	bra	@r0		
     7f8:	00 0c       	bra	@r12		
     7fa:	07 00       	mova	@r0,	r7	
     7fc:	00 18       	.word	0x1800;	????	
     7fe:	70 00 01 a2 	mova	r0,	0xa201	;PC rel. 0xfaa01
     802:	01 a9       	dadd	r9,	r1	
     804:	04 00       	mova	@r0,	r4	
     806:	00 02       	bra	#4		;r2 As==10
     808:	91 0a 13 9c 	cmpa	#0xa9c13,r1	
     80c:	03 00       	.word	0x0003;	????	Illegal as address instr
     80e:	00 01       	bra	@r1		
     810:	a4 01 28 00 	adda	#0x10028,r4	
     814:	00 00       	bra	@r0		
     816:	27 07 00 00 	mova	&0x70000,r7	
     81a:	14 6d 61 78 	addc	30817(r13),r4	;0x7861(r13)
     81e:	00 01       	bra	@r1		
     820:	a4 01 28 00 	adda	#0x10028,r4	
     824:	00 00       	bra	@r0		
     826:	3a 07 00 00 	mova	0(r7),	r10	;0x0000(r7)
     82a:	00 19 02 44 	movx	r4,	r2	
     82e:	00 00       	bra	@r0		
     830:	00 1a       	.word	0x1a00;	????	
     832:	76 00 00 00 	mova	r0,	0(r6)	;0x0000(r6)
     836:	fe 38       	jl	$+510    	;abs 0xa34
     838:	18 39       	jl	$+562    	;abs 0xa6a
     83a:	02 71       	subc	r1,	r2	
     83c:	02 1b       	.word	0x1b02;	????	
     83e:	81 00 00 00 	mova	#0x00000,r1	
     842:	18 39       	jl	$+562    	;abs 0xa74
     844:	32 39       	jl	$+614    	;abs 0xaaa
     846:	02 71       	subc	r1,	r2	
     848:	02 de       	bis	r14,	r2	
     84a:	04 00       	mova	@r0,	r4	
     84c:	00 1c       	.word	0x1c00;	????	
     84e:	90 00 00 00 	cmpa	#0x00000,r0	
     852:	45 07       	rrum.a	#2,	r5	
     854:	00 00       	bra	@r0		
     856:	1c 9a 00 00 	cmp	0(r10),	r12	;0x0000(r10)
     85a:	00 57       	add	r7,	r0	
     85c:	07 00       	mova	@r0,	r7	
     85e:	00 00       	bra	@r0		
     860:	0f 01       	mova	@r1,	r15	
     862:	ee 01       	adda	r1,	r14	
     864:	00 00       	bra	@r0		
     866:	01 c9       	bic	r9,	r1	
     868:	01 01       	mova	@r1,	r1	
     86a:	32 39       	jl	$+614    	;abs 0xad0
     86c:	d4 39       	jl	$+938    	;abs 0xc16
     86e:	69 07 00 00 	mova	r7,	&0x90000
     872:	47 05       	rram.a	#2,	r7	
     874:	00 00       	bra	@r0		
     876:	11 63       	addc	#1,	r1	;r3 As==01
     878:	00 01       	bra	@r1		
     87a:	c9 01       	mova	r1,	r9	
     87c:	44 00       	rrcm.a	#1,	r4	
     87e:	00 00       	bra	@r0		
     880:	9d 07 00 00 	cmpa	#0x70000,r13	
     884:	1d 6a 00 01 	addc	256(r10),r13	;0x0100(r10)
     888:	cb 01       	mova	r1,	r11	
     88a:	28 00 00 00 	mova	&0x00000,r8	
     88e:	14 69 00 01 	addc	256(r9),r4	;0x0100(r9)
     892:	cc 01       	mova	r1,	r12	
     894:	44 00       	rrcm.a	#1,	r4	
     896:	00 00       	bra	@r0		
     898:	af 07 00 00 	adda	#0x70000,r15	
     89c:	14 6b 00 01 	addc	256(r11),r4	;0x0100(r11)
     8a0:	cc 01       	mova	r1,	r12	
     8a2:	44 00       	rrcm.a	#1,	r4	
     8a4:	00 00       	bra	@r0		
     8a6:	d4 07       	cmpa	r7,	r4	
     8a8:	00 00       	bra	@r0		
     8aa:	14 76 00 01 	subc	256(r6),r4	;0x0100(r6)
     8ae:	cc 01       	mova	r1,	r12	
     8b0:	44 00       	rrcm.a	#1,	r4	
     8b2:	00 00       	bra	@r0		
     8b4:	e0 07       	adda	r7,	r0	
     8b6:	00 00       	bra	@r0		
     8b8:	13 dd       	.word	0xdd13;	????	Illegal as 2-op instr
     8ba:	02 00       	mova	@r0,	r2	
     8bc:	00 01       	bra	@r1		
     8be:	cc 01       	mova	r1,	r12	
     8c0:	44 00       	rrcm.a	#1,	r4	
     8c2:	00 00       	bra	@r0		
     8c4:	f4 07       	suba	r7,	r4	
     8c6:	00 00       	bra	@r0		
     8c8:	00 1e 01 e2 	xorx	r2,	r1	
     8cc:	02 00       	mova	@r0,	r2	
     8ce:	00 01       	bra	@r1		
     8d0:	e6 01       	adda	r1,	r6	
     8d2:	01 d4       	bis	r4,	r1	
     8d4:	39 3a       	jl	$-908    	;abs 0x548
     8d6:	3a 02 71 02 	mova	&0x0271,r10	
     8da:	85 05 00 00 	mova	#0x50000,r5	
     8de:	11 63       	addc	#1,	r1	;r3 As==01
     8e0:	00 01       	bra	@r1		
     8e2:	e6 01       	adda	r1,	r6	
     8e4:	44 00       	rrcm.a	#1,	r4	
     8e6:	00 00       	bra	@r0		
     8e8:	1d 08       	mova	@r8+,	r13	
     8ea:	00 00       	bra	@r0		
     8ec:	1f 76 00 00 	subc	0(r6),	r15	;0x0000(r6)
     8f0:	00 f4       	and	r4,	r0	
     8f2:	39 08 00 00 	mova	0(r8),	r9	;0x0000(r8)
     8f6:	00 01       	bra	@r1		
     8f8:	f1 01       	suba	r1,	r1	
     8fa:	20 76       	subc	@r6,	r0	
     8fc:	00 00       	bra	@r0		
     8fe:	00 14       	pushm.a	#1,	r0	
     900:	3a 28       	jnc	$+118    	;abs 0x976
     902:	3a 01 ea 01 	mova	490(r1),r10	;0x01ea(r1)
     906:	00 21       	jnz	$+514    	;abs 0xb08
     908:	01 e6       	xor	r6,	r1	
     90a:	02 00       	mova	@r0,	r2	
     90c:	00 05       	bra	@r5		
     90e:	3b 01 2f 00 	mova	47(r1),	r11	;0x002f(r1)
     912:	00 00       	bra	@r0		
     914:	3a 3a       	jl	$-906    	;abs 0x58a
     916:	42 3a       	jl	$-890    	;abs 0x59c
     918:	02 71       	subc	r1,	r2	
     91a:	02 ab       	dadd	r11,	r2	
     91c:	05 00       	mova	@r0,	r5	
     91e:	00 22       	jnz	$-1022   	;abs 0x520
     920:	63 00 01 ab 	mova	r0,	&0x3ab01
     924:	2f 00 00 00 	mova	&0x00000,r15	
     928:	36 08 00 00 	mova	0(r8),	r6	;0x0000(r8)
     92c:	00 0f       	bra	@r15		
     92e:	01 ab       	dadd	r11,	r1	
     930:	02 00       	mova	@r0,	r2	
     932:	00 01       	bra	@r1		
     934:	f8 01       	suba	r1,	r8	
     936:	01 42       	mov	r2,	r1	
     938:	3a ce       	bic	@r14+,	r10	
     93a:	3a 41       	pop	r10		
     93c:	08 00       	mova	@r0,	r8	
     93e:	00 3c       	jmp	$+2      	;abs 0x940
     940:	06 00       	mova	@r0,	r6	
     942:	00 11       	rra	r0		
     944:	78 00 01 f8 	mova	r0,	-2047(r8);0xf801(r8)
     948:	01 2f       	jc	$-508    	;abs 0x74c
     94a:	00 00       	bra	@r0		
     94c:	00 a5       	dadd	r5,	r0	
     94e:	08 00       	mova	@r0,	r8	
     950:	00 11       	rra	r0		
     952:	79 00 01 f8 	mova	r0,	-2047(r9);0xf801(r9)
     956:	01 2f       	jc	$-508    	;abs 0x75a
     958:	00 00       	bra	@r0		
     95a:	00 b7       	bit	r7,	r0	
     95c:	08 00       	mova	@r0,	r8	
     95e:	00 11       	rra	r0		
     960:	6c 78       	subc.b	@r8,	r12	
     962:	00 01       	bra	@r1		
     964:	f8 01       	suba	r1,	r8	
     966:	2f 00 00 00 	mova	&0x00000,r15	
     96a:	d0 08       	cmpa	r8,	r0	
     96c:	00 00       	bra	@r0		
     96e:	11 6c 79 00 	addc	121(r12),r1	;0x0079(r12)
     972:	01 f8       	and	r8,	r1	
     974:	01 2f       	jc	$-508    	;abs 0x778
     976:	00 00       	bra	@r0		
     978:	00 e9       	xor	r9,	r0	
     97a:	08 00       	mova	@r0,	r8	
     97c:	00 12       	push	r0		
     97e:	a5 02 00 00 	adda	#0x20000,r5	
     982:	01 f8       	and	r8,	r1	
     984:	01 44       	mov	r4,	r1	
     986:	00 00       	bra	@r0		
     988:	00 02       	bra	#4		;r2 As==10
     98a:	91 0c 12 11 	cmpa	#0xc1112,r1	
     98e:	02 00       	mova	@r0,	r2	
     990:	00 01       	bra	@r1		
     992:	f8 01       	suba	r1,	r8	
     994:	44 00       	rrcm.a	#1,	r4	
     996:	00 00       	bra	@r0		
     998:	02 91       	cmp	r1,	r2	
     99a:	0e 10       	rrc	r14		
     99c:	ee 02       	adda	r2,	r14	
     99e:	00 00       	bra	@r0		
     9a0:	01 f8       	and	r8,	r1	
     9a2:	01 2f       	jc	$-508    	;abs 0x7a6
     9a4:	00 00       	bra	@r0		
     9a6:	00 fb       	and	r11,	r0	
     9a8:	08 00       	mova	@r0,	r8	
     9aa:	00 23       	jnz	$-510    	;abs 0x7ac
     9ac:	14 00       	mova	#0x00000,r4	
     9ae:	00 00       	bra	@r0		
     9b0:	24 1f       	.word	0x1f24;	????	
     9b2:	02 00       	mova	@r0,	r2	
     9b4:	00 01       	bra	@r1		
     9b6:	05 02       	mova	#4,	r5	;r2 As==10
     9b8:	2f 00 00 00 	mova	&0x00000,r15	
     9bc:	00 00       	bra	@r0		
     9be:	0f 01       	mova	@r1,	r15	
     9c0:	34 02 00 00 	mova	&0x0000,r4	
     9c4:	01 0c       	mova	@r12,	r1	
     9c6:	02 01       	mova	@r1,	r2	
     9c8:	ce 3a       	jl	$-610    	;abs 0x766
     9ca:	12 3b       	jl	$-474    	;abs 0x7f0
     9cc:	0f 09       	mova	@r9,	r15	
     9ce:	00 00       	bra	@r0		
     9d0:	93 06       	.word	0x0693;	????	Illegal as address instr
     9d2:	00 00       	bra	@r0		
     9d4:	10 3d       	jmp	$+546    	;abs 0xbf6
     9d6:	03 00       	.word	0x0003;	????	Illegal as address instr
     9d8:	00 01       	bra	@r1		
     9da:	0c 02       	mova	#4,	r12	;r2 As==10
     9dc:	2f 00 00 00 	mova	&0x00000,r15	
     9e0:	2b 09 00 00 	mova	&0x90000,r11	
     9e4:	11 74 6f 00 	subc	111(r4),r1	;0x006f(r4)
     9e8:	01 0c       	mova	@r12,	r1	
     9ea:	02 2f       	jc	$-506    	;abs 0x7f0
     9ec:	00 00       	bra	@r0		
     9ee:	00 4b       	br	r11		
     9f0:	09 00       	mova	@r0,	r9	
     9f2:	00 25       	jz	$+514    	;abs 0xbf4
     9f4:	81 00 00 00 	mova	#0x00000,r1	
     9f8:	e0 3a       	jl	$-574    	;abs 0x7ba
     9fa:	24 00 00 00 	mova	&0x00000,r4	
     9fe:	01 0e       	mova	@r14,	r1	
     a00:	02 1c       	.word	0x1c02;	????	
     a02:	9a 00 00 00 	cmpa	#0x00000,r10	
     a06:	64 09 00 00 	mova	r9,	&0x40000
     a0a:	1c 90 00 00 	cmp	0x0000,	r12	;PC rel. 0x00a0e
     a0e:	00 88       	sub	r8,	r0	
     a10:	09 00       	mova	@r0,	r9	
     a12:	00 00       	bra	@r0		
     a14:	00 26       	jz	$-1022   	;abs 0x616
     a16:	e8 01       	adda	r1,	r8	
     a18:	00 00       	bra	@r0		
     a1a:	02 b1       	bit	r1,	r2	
     a1c:	03 e5       	.word	0xe503;	????	Illegal as 2-op instr
     a1e:	01 00       	mova	@r0,	r1	
     a20:	00 a5       	dadd	r5,	r0	
     a22:	06 00       	mova	@r0,	r6	
     a24:	00 01       	bra	@r1		
     a26:	01 27       	jz	$-508    	;abs 0x82a
     a28:	44 00       	rrcm.a	#1,	r4	
     a2a:	00 00       	bra	@r0		
     a2c:	26 2c       	jc	$+78     	;abs 0xa7a
     a2e:	03 00       	.word	0x0003;	????	Illegal as address instr
     a30:	00 02       	bra	#4		;r2 As==10
     a32:	b3 03       	.word	0x03b3;	????	Illegal as address instr
     a34:	29 03 00 00 	mova	&0x30000,r9	
     a38:	a5 06 00 00 	adda	#0x60000,r5	
     a3c:	01 01       	mova	@r1,	r1	
     a3e:	28 af       	dadd	@r15,	r8	
     a40:	01 00       	mova	@r0,	r1	
     a42:	00 03       	bra	#2		;r3 As==10
     a44:	37 44       	mov	@r4+,	r7	
     a46:	00 00       	bra	@r0		
     a48:	00 01       	bra	@r1		
     a4a:	01 28       	jnc	$+4      	;abs 0xa4e
     a4c:	d0 02       	cmpa	r2,	r0	
     a4e:	00 00       	bra	@r0		
     a50:	03 38       	jl	$+8      	;abs 0xa58
     a52:	44 00       	rrcm.a	#1,	r4	
     a54:	00 00       	bra	@r0		
     a56:	01 01       	mova	@r1,	r1	
     a58:	28 9b       	cmp	@r11,	r8	
     a5a:	00 00       	bra	@r0		
     a5c:	00 03       	bra	#2		;r3 As==10
     a5e:	3a 44       	mov	@r4+,	r10	
     a60:	00 00       	bra	@r0		
     a62:	00 01       	bra	@r1		
     a64:	01 28       	jnc	$+4      	;abs 0xa68
     a66:	10 03       	bra	#-1		;r3 As==11
     a68:	00 00       	bra	@r0		
     a6a:	03 3b       	jl	$-504    	;abs 0x872
     a6c:	44 00       	rrcm.a	#1,	r4	
     a6e:	00 00       	bra	@r0		
     a70:	01 01       	mova	@r1,	r1	
     a72:	29 60       	addc	@r0,	r9	
     a74:	00 00       	bra	@r0		
     a76:	00 01       	bra	@r1		
     a78:	07 00       	mova	@r0,	r7	
     a7a:	00 2a       	jnc	$-1022   	;abs 0x67c
     a7c:	28 00 00 00 	mova	&0x00000,r8	
     a80:	7f 02 00 28 	mova	r2,	10240(r15);0x2800(r15)
     a84:	32 03 00 00 	mova	#1,	r2	;r3 As==01
     a88:	03 4d       	.word	0x4d03;	????	Illegal as 2-op instr
     a8a:	0e 07       	mova	@r7,	r14	
     a8c:	00 00       	bra	@r0		
     a8e:	01 01       	mova	@r1,	r1	
     a90:	2b f0       	and	@r0,	r11	
     a92:	06 00       	mova	@r0,	r6	
     a94:	00 26       	jz	$-1022   	;abs 0x696
     a96:	e8 01       	adda	r1,	r8	
     a98:	00 00       	bra	@r0		
     a9a:	02 b1       	bit	r1,	r2	
     a9c:	03 e5       	.word	0xe503;	????	Illegal as 2-op instr
     a9e:	01 00       	mova	@r0,	r1	
     aa0:	00 a5       	dadd	r5,	r0	
     aa2:	06 00       	mova	@r0,	r6	
     aa4:	00 01       	bra	@r1		
     aa6:	01 26       	jz	$-1020   	;abs 0x6aa
     aa8:	2c 03 00 00 	mova	&0x30000,r12	
     aac:	02 b3       	bit	#0,	r2	;r3 As==00
     aae:	03 29       	jnc	$+520    	;abs 0xcb6
     ab0:	03 00       	.word	0x0003;	????	Illegal as address instr
     ab2:	00 a5       	dadd	r5,	r0	
     ab4:	06 00       	mova	@r0,	r6	
     ab6:	00 01       	bra	@r1		
     ab8:	01 2c       	jc	$+4      	;abs 0xabc
     aba:	af 01 00 00 	adda	#0x10000,r15	
     abe:	01 22       	jnz	$-1020   	;abs 0x6c2
     ac0:	44 00       	rrcm.a	#1,	r4	
     ac2:	00 00       	bra	@r0		
     ac4:	01 03       	mova	#2,	r1	;r3 As==10
     ac6:	03 02       	.word	0x0203;	????	Illegal as address instr
     ac8:	11 2c       	jc	$+36     	;abs 0xaec
     aca:	d0 02       	cmpa	r2,	r0	
     acc:	00 00       	bra	@r0		
     ace:	01 23       	jnz	$-508    	;abs 0x8d2
     ad0:	44 00       	rrcm.a	#1,	r4	
     ad2:	00 00       	bra	@r0		
     ad4:	01 03       	mova	#2,	r1	;r3 As==10
     ad6:	03 04       	.word	0x0403;	????	Illegal as address instr
     ad8:	11 2c       	jc	$+36     	;abs 0xafc
     ada:	9b 00 00 00 	cmpa	#0x00000,r11	
     ade:	01 24       	jz	$+4      	;abs 0xae2
     ae0:	44 00       	rrcm.a	#1,	r4	
     ae2:	00 00       	bra	@r0		
     ae4:	01 03       	mova	#2,	r1	;r3 As==10
     ae6:	03 00       	.word	0x0003;	????	Illegal as address instr
     ae8:	11 2c       	jc	$+36     	;abs 0xb0c
     aea:	10 03       	bra	#-1		;r3 As==11
     aec:	00 00       	bra	@r0		
     aee:	01 25       	jz	$+516    	;abs 0xcf2
     af0:	44 00       	rrcm.a	#1,	r4	
     af2:	00 00       	bra	@r0		
     af4:	01 03       	mova	#2,	r1	;r3 As==10
     af6:	03 06       	.word	0x0603;	????	Illegal as address instr
     af8:	11 2c       	jc	$+36     	;abs 0xb1c
     afa:	32 03 00 00 	mova	#1,	r2	;r3 As==01
     afe:	01 27       	jz	$-508    	;abs 0x902
     b00:	87 07 00 00 	mova	#0x70000,r7	
     b04:	01 03       	mova	#2,	r1	;r3 As==10
     b06:	03 12       	push	#0		;r3 As==00
     b08:	3b 2b       	jnc	$-392    	;abs 0x980
     b0a:	f0 06       	suba	r6,	r0	
     b0c:	00 00       	bra	@r0		
     b0e:	00 29       	jnc	$+514    	;abs 0xd10
     b10:	05 00       	mova	@r0,	r5	
     b12:	00 02       	bra	#4		;r2 As==10
     b14:	00 0a       	bra	@r10		
     b16:	04 00       	mova	@r0,	r4	
     b18:	00 02       	bra	#4		;r2 As==10
     b1a:	01 11       	rra	r1		
     b1c:	00 00       	bra	@r0		
     b1e:	00 01       	bra	@r1		
     b20:	65 04 00 00 	mova	r4,	&0x50000
     b24:	22 00 00 00 	mova	&0x00000,r2	
     b28:	92 3d       	jmp	$+806    	;abs 0xe4e
     b2a:	70 43       	br	#-1		;r3 As==11
     b2c:	bd 08 00 00 	suba	#0x80000,r13	
     b30:	02 02       	mova	#4,	r2	;r2 As==10
     b32:	03 0d       	.word	0x0d03;	????	Illegal as address instr
     b34:	30 00 00 00 	bra	0x0000		;PC rel. 0x00b36
     b38:	03 24       	jz	$+8      	;abs 0xb40
     b3a:	01 00       	mova	@r0,	r1	
     b3c:	00 00       	bra	@r0		
     b3e:	00 04       	bra	@r4		
     b40:	01 d6       	bis	r6,	r1	
     b42:	03 00       	.word	0x0003;	????	Illegal as address instr
     b44:	00 01       	bra	@r1		
     b46:	1f 01       	mova	@r1+,	r15	
     b48:	92 3d       	jmp	$+806    	;abs 0xe6e
     b4a:	98 3d       	jmp	$+818    	;abs 0xe7c
     b4c:	02 71       	subc	r1,	r2	
     b4e:	02 52       	rla	r2		
     b50:	00 00       	bra	@r0		
     b52:	00 05       	bra	@r5		
     b54:	96 03 00 00 	cmpa	#0x30000,r6	
     b58:	01 1f       	.word	0x1f01;	????	
     b5a:	52 00       	rrcm	#1,	r2	
     b5c:	00 00       	bra	@r0		
     b5e:	01 5f       	add	r15,	r1	
     b60:	00 06       	bra	@r6		
     b62:	01 06       	mova	@r6,	r1	
     b64:	8f 00 00 00 	mova	#0x00000,r15	
     b68:	07 01       	mova	@r1,	r7	
     b6a:	7c 04 00 00 	mova	r4,	0(r12)	;0x0000(r12)
     b6e:	01 24       	jz	$+4      	;abs 0xb72
     b70:	01 98       	cmp	r8,	r1	
     b72:	3d ac       	dadd	@r12+,	r13	
     b74:	3d 02 71 02 	mova	&0x0271,r13	
     b78:	08 01       	mova	@r1,	r8	
     b7a:	84 03 00 00 	mova	#0x30000,r4	
     b7e:	01 19 01 ac 	.rpt	#1
				daddx	r12,	r1	
     b82:	3d bc       	bit	@r12+,	r13	
     b84:	3d a1       	dadd	@r1+,	r13	
     b86:	09 00       	mova	@r0,	r9	
     b88:	00 8e       	sub	r14,	r0	
     b8a:	00 00       	bra	@r0		
     b8c:	00 09       	bra	@r9		
     b8e:	96 03 00 00 	cmpa	#0x30000,r6	
     b92:	01 19       	.word	0x1901;	????	
     b94:	52 00       	rrcm	#1,	r2	
     b96:	00 00       	bra	@r0		
     b98:	b5 09 00 00 	suba	#0x90000,r5	
     b9c:	00 07       	bra	@r7		
     b9e:	01 92       	cmp	r2,	r1	
     ba0:	04 00       	mova	@r0,	r4	
     ba2:	00 01       	bra	@r1		
     ba4:	2c 01 bc 3d 	mova	&0x13dbc,r12	
     ba8:	e2 3d       	jmp	$+966    	;abs 0xf6e
     baa:	02 71       	subc	r1,	r2	
     bac:	02 07       	mova	@r7,	r2	
     bae:	01 7b       	subc	r11,	r1	
     bb0:	03 00       	.word	0x0003;	????	Illegal as address instr
     bb2:	00 01       	bra	@r1		
     bb4:	39 01 e2 3d 	mova	15842(r1),r9	;0x3de2(r1)
     bb8:	fe 3d       	jmp	$+1022   	;abs 0xfb6
     bba:	02 71       	subc	r1,	r2	
     bbc:	02 0a       	mova	@r10,	r2	
     bbe:	01 85       	sub	r5,	r1	
     bc0:	04 00       	mova	@r0,	r4	
     bc2:	00 01       	bra	@r1		
     bc4:	43 01       	rram.a	#1,	#0	;r3 As==00
     bc6:	52 00       	rrcm	#1,	r2	
     bc8:	00 00       	bra	@r0		
     bca:	fe 3d       	jmp	$+1022   	;abs 0xfc8
     bcc:	3e 3e       	jmp	$-898    	;abs 0x84a
     bce:	d0 09       	cmpa	r9,	r0	
     bd0:	00 00       	bra	@r0		
     bd2:	d5 00       	cmpa	r0,	r5	
     bd4:	00 00       	bra	@r0		
     bd6:	0b 69       	addc	r9,	r11	
     bd8:	00 01       	bra	@r1		
     bda:	45 52       	add.b	r2,	r5	
     bdc:	00 00       	bra	@r0		
     bde:	00 e4       	xor	r4,	r0	
     be0:	09 00       	mova	@r0,	r9	
     be2:	00 00       	bra	@r0		
     be4:	04 01       	mova	@r1,	r4	
     be6:	31 04 00 00 	mova	0(r4),	r1	;0x0000(r4)
     bea:	01 54       	add	r4,	r1	
     bec:	01 3e       	jmp	$-1020   	;abs 0x7f0
     bee:	3e 6e       	addc	@r14+,	r14	
     bf0:	3e 02 71 02 	mova	&0x0271,r14	
     bf4:	f9 00       	suba	r0,	r9	
     bf6:	00 00       	bra	@r0		
     bf8:	09 42       	mov	r2,	r9	
     bfa:	03 00       	.word	0x0003;	????	Illegal as address instr
     bfc:	00 01       	bra	@r1		
     bfe:	54 52 00 00 	add.b	&0x0000,r4	
     c02:	00 0a       	bra	@r10		
     c04:	0a 00       	mova	@r0,	r10	
     c06:	00 00       	bra	@r0		
     c08:	08 01       	mova	@r1,	r8	
     c0a:	26 04 00 00 	mova	&0x40000,r6	
     c0e:	01 5f       	add	r15,	r1	
     c10:	01 6e       	addc	r14,	r1	
     c12:	3e ba       	bit	@r10+,	r14	
     c14:	3e 1c       	.word	0x1c3e;	????	
     c16:	0a 00       	mova	@r0,	r10	
     c18:	00 38       	jl	$+2      	;abs 0xc1a
     c1a:	01 00       	mova	@r0,	r1	
     c1c:	00 0c       	bra	@r12		
     c1e:	62 00 01 5f 	mova	r0,	&0x25f01
     c22:	52 00       	rrcm	#1,	r2	
     c24:	00 00       	bra	@r0		
     c26:	40 0a       	rlam.a	#3,	r0	
     c28:	00 00       	bra	@r0		
     c2a:	0d dd       	bis	r13,	r13	
     c2c:	02 00       	mova	@r0,	r2	
     c2e:	00 01       	bra	@r1		
     c30:	61 52       	add.b	#4,	r1	;r2 As==10
     c32:	00 00       	bra	@r0		
     c34:	00 52       	add	r2,	r0	
     c36:	0a 00       	mova	@r0,	r10	
     c38:	00 0b       	bra	@r11		
     c3a:	69 00 01 62 	mova	r0,	&0x96201
     c3e:	52 00       	rrcm	#1,	r2	
     c40:	00 00       	bra	@r0		
     c42:	75 0a 00 00 	mova	r10,	0(r5)	;0x0000(r5)
     c46:	00 0a       	bra	@r10		
     c48:	01 5f       	add	r15,	r1	
     c4a:	03 00       	.word	0x0003;	????	Illegal as address instr
     c4c:	00 01       	bra	@r1		
     c4e:	71 01 52 00 	mova	r1,	82(r1)	;0x0052(r1)
     c52:	00 00       	bra	@r0		
     c54:	ba 3e       	jmp	$-650    	;abs 0x9ca
     c56:	f8 3e       	jmp	$-526    	;abs 0xa48
     c58:	81 0a 00 00 	mova	#0xa0000,r1	
     c5c:	6e 01 00 00 	mova	r1,	&0xe0000
     c60:	0b 69       	addc	r9,	r11	
     c62:	00 01       	bra	@r1		
     c64:	73 52       	.word	0x5273;	????	Illegal as 2-op instr
     c66:	00 00       	bra	@r0		
     c68:	00 9d       	cmp	r13,	r0	
     c6a:	0a 00       	mova	@r0,	r10	
     c6c:	00 0b       	bra	@r11		
     c6e:	62 69       	addc.b	@r9,	r2	
     c70:	6e 00 01 74 	mova	r0,	&0xe7401
     c74:	52 00       	rrcm	#1,	r2	
     c76:	00 00       	bra	@r0		
     c78:	a9 0a 00 00 	adda	#0xa0000,r9	
     c7c:	00 0a       	bra	@r10		
     c7e:	01 4f       	mov	r15,	r1	
     c80:	03 00       	.word	0x0003;	????	Illegal as address instr
     c82:	00 01       	bra	@r1		
     c84:	8a 01 52 00 	mova	#0x10052,r10	
     c88:	00 00       	bra	@r0		
     c8a:	f8 3e       	jmp	$-526    	;abs 0xa7c
     c8c:	18 3f       	jmp	$-462    	;abs 0xabe
     c8e:	ca 0a       	mova	r10,	r10	
     c90:	00 00       	bra	@r0		
     c92:	97 01 00 00 	cmpa	#0x10000,r7	
     c96:	0d 8f       	sub	r15,	r13	
     c98:	03 00       	.word	0x0003;	????	Illegal as address instr
     c9a:	00 01       	bra	@r1		
     c9c:	8c 52 00 00 	add	r2,	0(r12)	;0x0000(r12)
     ca0:	00 de       	bis	r14,	r0	
     ca2:	0a 00       	mova	@r0,	r10	
     ca4:	00 00       	bra	@r0		
     ca6:	0a 01       	mova	@r1,	r10	
     ca8:	55 04       	rrcm	#2,	r5	
     caa:	00 00       	bra	@r0		
     cac:	01 96       	cmp	r6,	r1	
     cae:	01 52       	add	r2,	r1	
     cb0:	00 00       	bra	@r0		
     cb2:	00 18       	.word	0x1800;	????	
     cb4:	3f 3a       	jl	$-896    	;abs 0x934
     cb6:	3f f1       	and	@r1+,	r15	
     cb8:	0a 00       	mova	@r0,	r10	
     cba:	00 cd       	bic	r13,	r0	
     cbc:	01 00       	mova	@r0,	r1	
     cbe:	00 0c       	bra	@r12		
     cc0:	62 00 01 96 	mova	r0,	&0x29601
     cc4:	52 00       	rrcm	#1,	r2	
     cc6:	00 00       	bra	@r0		
     cc8:	05 0b       	mova	@r11,	r5	
     cca:	00 00       	bra	@r0		
     ccc:	0d 8f       	sub	r15,	r13	
     cce:	03 00       	.word	0x0003;	????	Illegal as address instr
     cd0:	00 01       	bra	@r1		
     cd2:	98 52 00 00 	add	&0x0000,4096(r8);0x1000(r8)
     cd6:	00 10 
     cd8:	0b 00       	mova	@r0,	r11	
     cda:	00 00       	bra	@r0		
     cdc:	0a 01       	mova	@r1,	r10	
     cde:	46 04       	rrcm.a	#2,	r6	
     ce0:	00 00       	bra	@r0		
     ce2:	01 a2       	dadd	r2,	r1	
     ce4:	01 52       	add	r2,	r1	
     ce6:	00 00       	bra	@r0		
     ce8:	00 3a       	jl	$-1022   	;abs 0x8ea
     cea:	3f 82       	sub	#8,	r15	;r2 As==11
     cec:	3f 23       	jnz	$-384    	;abs 0xb6c
     cee:	0b 00       	mova	@r0,	r11	
     cf0:	00 14       	pushm.a	#1,	r0	
     cf2:	02 00       	mova	@r0,	r2	
     cf4:	00 0c       	bra	@r12		
     cf6:	72 65       	addc.b	@r5+,	r2	
     cf8:	67 00 01 a2 	mova	r0,	&0x7a201
     cfc:	52 00       	rrcm	#1,	r2	
     cfe:	00 00       	bra	@r0		
     d00:	47 0b       	rrum.a	#3,	r7	
     d02:	00 00       	bra	@r0		
     d04:	0c 64       	addc	r4,	r12	
     d06:	61 74       	subc.b	@r4,	r1	
     d08:	00 01       	bra	@r1		
     d0a:	a2 52 00 00 	add	#4,	&0x0000	;r2 As==10
     d0e:	00 59       	add	r9,	r0	
     d10:	0b 00       	mova	@r0,	r11	
     d12:	00 0d       	bra	@r13		
     d14:	8f 03 00 00 	mova	#0x30000,r15	
     d18:	01 a4       	dadd	r4,	r1	
     d1a:	52 00       	rrcm	#1,	r2	
     d1c:	00 00       	bra	@r0		
     d1e:	6b 0b 00 00 	mova	r11,	&0xb0000
     d22:	00 0a       	bra	@r10		
     d24:	01 af       	dadd	r15,	r1	
     d26:	03 00       	.word	0x0003;	????	Illegal as address instr
     d28:	00 01       	bra	@r1		
     d2a:	b2 01 52 00 	suba	#0x10052,r2	
     d2e:	00 00       	bra	@r0		
     d30:	82 3f       	jmp	$-250    	;abs 0xc36
     d32:	ee 3f       	jmp	$-34     	;abs 0xd10
     d34:	c2 0b       	mova	r11,	r2	
     d36:	00 00       	bra	@r0		
     d38:	77 02 00 00 	mova	r2,	0(r7)	;0x0000(r7)
     d3c:	0c 72       	subc	r2,	r12	
     d3e:	65 67       	addc.b	@r7,	r5	
     d40:	00 01       	bra	@r1		
     d42:	b2 52 00 00 	add	#8,	&0x0000	;r2 As==11
     d46:	00 ee       	xor	r14,	r0	
     d48:	0b 00       	mova	@r0,	r11	
     d4a:	00 0c       	bra	@r12		
     d4c:	64 61       	addc.b	@r1,	r4	
     d4e:	74 00 01 b2 	mova	r0,	-19967(r4);0xb201(r4)
     d52:	77 02 00 00 	mova	r2,	0(r7)	;0x0000(r7)
     d56:	07 0c       	mova	@r12,	r7	
     d58:	00 00       	bra	@r0		
     d5a:	0c 6c       	rlc	r12		
     d5c:	65 6e       	addc.b	@r14,	r5	
     d5e:	00 01       	bra	@r1		
     d60:	b2 7d 02 00 	subc	@r13+,	&0x0002	
     d64:	00 20       	jnz	$+2      	;abs 0xd66
     d66:	0c 00       	mova	@r0,	r12	
     d68:	00 0b       	bra	@r11		
     d6a:	69 00 01 b4 	mova	r0,	&0x9b401
     d6e:	7d 02 00 00 	mova	r2,	0(r13)	;0x0000(r13)
     d72:	39 0c 00 00 	mova	0(r12),	r9	;0x0000(r12)
     d76:	0d 8f       	sub	r15,	r13	
     d78:	03 00       	.word	0x0003;	????	Illegal as address instr
     d7a:	00 01       	bra	@r1		
     d7c:	b4 7d 02 00 	subc	@r13+,	2(r4)	;0x0002(r4)
     d80:	00 66       	addc	r6,	r0	
     d82:	0c 00       	mova	@r0,	r12	
     d84:	00 00       	bra	@r0		
     d86:	0e 02       	mova	#4,	r14	;r2 As==10
     d88:	52 00       	rrcm	#1,	r2	
     d8a:	00 00       	bra	@r0		
     d8c:	0f 02       	mova	#4,	r15	;r2 As==10
     d8e:	05 69       	addc	r9,	r5	
     d90:	6e 74       	subc.b	@r4,	r14	
     d92:	00 0a       	bra	@r10		
     d94:	01 6b       	addc	r11,	r1	
     d96:	04 00       	mova	@r0,	r4	
     d98:	00 01       	bra	@r1		
     d9a:	c6 01       	mova	r1,	r6	
     d9c:	52 00       	rrcm	#1,	r2	
     d9e:	00 00       	bra	@r0		
     da0:	ee 3f       	jmp	$-34     	;abs 0xd7e
     da2:	6e 40       	mov.b	@r0,	r14	
     da4:	9c 0c 00 00 	cmpa	#0xc0000,r12	
     da8:	cb 02       	mova	r2,	r11	
     daa:	00 00       	bra	@r0		
     dac:	0c 72       	subc	r2,	r12	
     dae:	65 67       	addc.b	@r7,	r5	
     db0:	00 01       	bra	@r1		
     db2:	c6 7d 02 00 	subc.b	r13,	2(r6)	;0x0002(r6)
     db6:	00 d0       	bis	r0,	r0	
     db8:	0c 00       	mova	@r0,	r12	
     dba:	00 0c       	bra	@r12		
     dbc:	64 61       	addc.b	@r1,	r4	
     dbe:	74 00 01 c6 	mova	r0,	-14847(r4);0xc601(r4)
     dc2:	52 00       	rrcm	#1,	r2	
     dc4:	00 00       	bra	@r0		
     dc6:	e2 0c       	adda	r12,	r2	
     dc8:	00 00       	bra	@r0		
     dca:	0d 8f       	sub	r15,	r13	
     dcc:	03 00       	.word	0x0003;	????	Illegal as address instr
     dce:	00 01       	bra	@r1		
     dd0:	c8 52 00 00 	add.b	r2,	0(r8)	;0x0000(r8)
     dd4:	00 f4       	and	r4,	r0	
     dd6:	0c 00       	mova	@r0,	r12	
     dd8:	00 00       	bra	@r0		
     dda:	0a 01       	mova	@r1,	r10	
     ddc:	10 04       	bra	@r4+		
     dde:	00 00       	bra	@r0		
     de0:	01 d8       	bis	r8,	r1	
     de2:	01 52       	add	r2,	r1	
     de4:	00 00       	bra	@r0		
     de6:	00 6e       	addc	r14,	r0	
     de8:	40 06       	rlam.a	#2,	r0	
     dea:	41 6f       	addc.b	r15,	r1	
     dec:	0d 00       	mova	@r0,	r13	
     dee:	00 2e       	jc	$-1022   	;abs 0x9f0
     df0:	03 00       	.word	0x0003;	????	Illegal as address instr
     df2:	00 0c       	bra	@r12		
     df4:	72 65       	addc.b	@r5+,	r2	
     df6:	67 00 01 d8 	mova	r0,	&0x7d801
     dfa:	7d 02 00 00 	mova	r2,	0(r13)	;0x0000(r13)
     dfe:	9b 0d 00 00 	cmpa	#0xd0000,r11	
     e02:	0c 64       	addc	r4,	r12	
     e04:	61 74       	subc.b	@r4,	r1	
     e06:	00 01       	bra	@r1		
     e08:	d8 77 02 00 	subc.b	2(r7),	-21248(r8);0x0002(r7), 0xad00(r8)
     e0c:	00 ad 
     e0e:	0d 00       	mova	@r0,	r13	
     e10:	00 0c       	bra	@r12		
     e12:	6c 65       	addc.b	@r5,	r12	
     e14:	6e 00 01 d8 	mova	r0,	&0xed801
     e18:	7d 02 00 00 	mova	r2,	0(r13)	;0x0000(r13)
     e1c:	bf 0d 00 00 	suba	#0xd0000,r15	
     e20:	0b 69       	addc	r9,	r11	
     e22:	00 01       	bra	@r1		
     e24:	da 7d 02 00 	subc.b	2(r13),	-12032(r10);0x0002(r13), 0xd100(r10)
     e28:	00 d1 
     e2a:	0d 00       	mova	@r0,	r13	
     e2c:	00 0d       	bra	@r13		
     e2e:	8f 03 00 00 	mova	#0x30000,r15	
     e32:	01 da       	bis	r10,	r1	
     e34:	7d 02 00 00 	mova	r2,	0(r13)	;0x0000(r13)
     e38:	f6 0d       	suba	r13,	r6	
     e3a:	00 00       	bra	@r0		
     e3c:	00 0a       	bra	@r10		
     e3e:	01 a1       	dadd	r1,	r1	
     e40:	03 00       	.word	0x0003;	????	Illegal as address instr
     e42:	00 01       	bra	@r1		
     e44:	ee 01       	adda	r1,	r14	
     e46:	52 00       	rrcm	#1,	r2	
     e48:	00 00       	bra	@r0		
     e4a:	06 41       	mov	r1,	r6	
     e4c:	68 41       	mov.b	@r1,	r8	
     e4e:	25 0e 00 00 	mova	&0xe0000,r5	
     e52:	75 03 00 00 	mova	#0,	0(r5)	;r3 As==00, 0x0000(r5)
     e56:	0c 72       	subc	r2,	r12	
     e58:	65 67       	addc.b	@r7,	r5	
     e5a:	00 01       	bra	@r1		
     e5c:	ee 52 00 00 	add.b	#4,	0(r14)	;r2 As==10, 0x0000(r14)
     e60:	00 51       	add	r1,	r0	
     e62:	0e 00       	mova	@r0,	r14	
     e64:	00 0c       	bra	@r12		
     e66:	64 61       	addc.b	@r1,	r4	
     e68:	74 00 01 ee 	mova	r0,	-4607(r4);0xee01(r4)
     e6c:	77 02 00 00 	mova	r2,	0(r7)	;0x0000(r7)
     e70:	63 0e 00 00 	mova	r14,	&0x30000
     e74:	0d 8f       	sub	r15,	r13	
     e76:	03 00       	.word	0x0003;	????	Illegal as address instr
     e78:	00 01       	bra	@r1		
     e7a:	f0 52 00 00 	add.b	#8,	0x0000	;r2 As==11, PC rel. 0x00e7e
     e7e:	00 75       	subc	r5,	r0	
     e80:	0e 00       	mova	@r0,	r14	
     e82:	00 00       	bra	@r0		
     e84:	10 01       	reta			
     e86:	c3 03       	.word	0x03c3;	????	Illegal as address instr
     e88:	00 00       	bra	@r0		
     e8a:	01 01       	mova	@r1,	r1	
     e8c:	01 01       	mova	@r1,	r1	
     e8e:	52 00       	rrcm	#1,	r2	
     e90:	00 00       	bra	@r0		
     e92:	68 41       	mov.b	@r1,	r8	
     e94:	0a 42       	mov	r2,	r10	
     e96:	cc 0e       	mova	r14,	r12	
     e98:	00 00       	bra	@r0		
     e9a:	de 03       	tsta	r14		
     e9c:	00 00       	bra	@r0		
     e9e:	11 72 65 67 	subc	&0x6765,r1	
     ea2:	00 01       	bra	@r1		
     ea4:	01 01       	mova	@r1,	r1	
     ea6:	52 00       	rrcm	#1,	r2	
     ea8:	00 00       	bra	@r0		
     eaa:	f8 0e       	suba	r14,	r8	
     eac:	00 00       	bra	@r0		
     eae:	11 64 61 74 	addc	29793(r4),r1	;0x7461(r4)
     eb2:	00 01       	bra	@r1		
     eb4:	01 01       	mova	@r1,	r1	
     eb6:	77 02 00 00 	mova	r2,	0(r7)	;0x0000(r7)
     eba:	11 0f       	mova	@r15+,	r1	
     ebc:	00 00       	bra	@r0		
     ebe:	11 6c 65 6e 	addc	28261(r12),r1	;0x6e65(r12)
     ec2:	00 01       	bra	@r1		
     ec4:	01 01       	mova	@r1,	r1	
     ec6:	7d 02 00 00 	mova	r2,	0(r13)	;0x0000(r13)
     eca:	2a 0f 00 00 	mova	&0xf0000,r10	
     ece:	12 69 00 01 	addc	256(r9),r2	;0x0100(r9)
     ed2:	03 01       	.word	0x0103;	????	Illegal as address instr
     ed4:	7d 02 00 00 	mova	r2,	0(r13)	;0x0000(r13)
     ed8:	55 0f       	rrum	#4,	r5	
     eda:	00 00       	bra	@r0		
     edc:	13 8f       	.word	0x8f13;	????	Illegal as 2-op instr
     ede:	03 00       	.word	0x0003;	????	Illegal as address instr
     ee0:	00 01       	bra	@r1		
     ee2:	03 01       	.word	0x0103;	????	Illegal as address instr
     ee4:	7d 02 00 00 	mova	r2,	0(r13)	;0x0000(r13)
     ee8:	71 0f 00 00 	mova	r15,	0(r1)	;0x0000(r1)
     eec:	00 10       	rrc	r0		
     eee:	01 9c       	cmp	r12,	r1	
     ef0:	04 00       	mova	@r0,	r4	
     ef2:	00 01       	bra	@r1		
     ef4:	1b 01       	mova	@r1+,	r11	
     ef6:	01 52       	add	r2,	r1	
     ef8:	00 00       	bra	@r0		
     efa:	00 0a       	bra	@r10		
     efc:	42 a0       	dadd.b	r0,	r2	
     efe:	42 a0       	dadd.b	r0,	r2	
     f00:	0f 00       	mova	@r0,	r15	
     f02:	00 29       	jnc	$+514    	;abs 0x1104
     f04:	04 00       	mova	@r0,	r4	
     f06:	00 11       	rra	r0		
     f08:	72 65       	addc.b	@r5+,	r2	
     f0a:	67 00 01 1b 	mova	r0,	&0x71b01
     f0e:	01 7d       	subc	r13,	r1	
     f10:	02 00       	mova	@r0,	r2	
     f12:	00 d4       	bis	r4,	r0	
     f14:	0f 00       	mova	@r0,	r15	
     f16:	00 11       	rra	r0		
     f18:	64 61       	addc.b	@r1,	r4	
     f1a:	74 00 01 1b 	mova	r0,	6913(r4);0x1b01(r4)
     f1e:	01 77       	subc	r7,	r1	
     f20:	02 00       	mova	@r0,	r2	
     f22:	00 e6       	xor	r6,	r0	
     f24:	0f 00       	mova	@r0,	r15	
     f26:	00 13       	reti			
     f28:	8f 03 00 00 	mova	#0x30000,r15	
     f2c:	01 1d 01 52 	.rpt	#1
				addx	r2,	r1	
     f30:	00 00       	bra	@r0		
     f32:	00 f8       	and	r8,	r0	
     f34:	0f 00       	mova	@r0,	r15	
     f36:	00 00       	bra	@r0		
     f38:	10 01       	reta			
     f3a:	e9 03       	incda	r9		
     f3c:	00 00       	bra	@r0		
     f3e:	01 30       	jn	$+4      	;abs 0xf42
     f40:	01 01       	mova	@r1,	r1	
     f42:	52 00       	rrcm	#1,	r2	
     f44:	00 00       	bra	@r0		
     f46:	a0 42 70 43 	mov	#4,	0x4370	;r2 As==10, PC rel. 0x052ba
     f4a:	73 10       	rrc.b	#-1		;r3 As==11
     f4c:	00 00       	bra	@r0		
     f4e:	92 04 00 00 	cmpa	#0x40000,r2	
     f52:	11 72 65 67 	subc	&0x6765,r1	
     f56:	00 01       	bra	@r1		
     f58:	30 01 7d 02 	bra	637(r1)	;0x027d(r1)
     f5c:	00 00       	bra	@r0		
     f5e:	9f 10 00 00 	swpb	0(r15)		;0x0000(r15)
     f62:	11 64 61 74 	addc	29793(r4),r1	;0x7461(r4)
     f66:	00 01       	bra	@r1		
     f68:	30 01 77 02 	bra	631(r1)	;0x0277(r1)
     f6c:	00 00       	bra	@r0		
     f6e:	b8 10       	swpb	@r8+		
     f70:	00 00       	bra	@r0		
     f72:	11 6c 65 6e 	addc	28261(r12),r1	;0x6e65(r12)
     f76:	00 01       	bra	@r1		
     f78:	30 01 7d 02 	bra	637(r1)	;0x027d(r1)
     f7c:	00 00       	bra	@r0		
     f7e:	d1 10       	.word	0x10d1;	????	
     f80:	00 00       	bra	@r0		
     f82:	12 69 00 01 	addc	256(r9),r2	;0x0100(r9)
     f86:	32 01 7d 02 	mova	637(r1),r2	;0x027d(r1)
     f8a:	00 00       	bra	@r0		
     f8c:	fc 10       	.word	0x10fc;	????	
     f8e:	00 00       	bra	@r0		
     f90:	13 8f       	.word	0x8f13;	????	Illegal as 2-op instr
     f92:	03 00       	.word	0x0003;	????	Illegal as address instr
     f94:	00 01       	bra	@r1		
     f96:	32 01 7d 02 	mova	637(r1),r2	;0x027d(r1)
     f9a:	00 00       	bra	@r0		
     f9c:	18 11 00 00 	rra	0(r8)		;0x0000(r8)
     fa0:	00 14       	pushm.a	#1,	r0	
     fa2:	41 04       	rrcm.a	#2,	r1	
     fa4:	00 00       	bra	@r0		
     fa6:	02 6b       	addc	r11,	r2	
     fa8:	03 3e       	jmp	$-1016   	;abs 0xbb0
     faa:	04 00       	mova	@r0,	r4	
     fac:	00 a4       	dadd	r4,	r0	
     fae:	04 00       	mova	@r0,	r4	
     fb0:	00 01       	bra	@r1		
     fb2:	01 15       	pushm	#1,	r1	
     fb4:	a9 04 00 00 	adda	#0x40000,r9	
     fb8:	16 ae 04 00 	dadd	4(r14),	r6	;0x0004(r14)
     fbc:	00 06       	bra	@r6		
     fbe:	01 08       	mova	@r8,	r1	
     fc0:	86 00 00 00 	mova	#0x00000,r6	
     fc4:	14 6c 03 00 	addc	3(r12),	r4	;0x0003(r12)
     fc8:	00 02       	bra	#4		;r2 As==10
     fca:	6d 03 69 03 	mova	#0,	&0xd0369;r3 As==00
     fce:	00 00       	bra	@r0		
     fd0:	a9 04 00 00 	adda	#0x40000,r9	
     fd4:	01 01       	mova	@r1,	r1	
     fd6:	14 75 03 00 	subc	3(r5),	r4	;0x0003(r5)
     fda:	00 02       	bra	#4		;r2 As==10
     fdc:	6f 03 72 03 	mova	#0,	&0xf0372;r3 As==00
     fe0:	00 00       	bra	@r0		
     fe2:	a9 04 00 00 	adda	#0x40000,r9	
     fe6:	01 01       	mova	@r1,	r1	
     fe8:	17 fe 03 00 	and	3(r14),	r7	;0x0003(r14)
     fec:	00 01       	bra	@r1		
     fee:	12 52 00 00 	add	&0x0000,r2	
     ff2:	00 01       	bra	@r1		
     ff4:	01 14       	pushm.a	#1,	r1	
     ff6:	41 04       	rrcm.a	#2,	r1	
     ff8:	00 00       	bra	@r0		
     ffa:	02 6b       	addc	r11,	r2	
     ffc:	03 3e       	jmp	$-1016   	;abs 0xc04
     ffe:	04 00       	mova	@r0,	r4	
    1000:	00 a4       	dadd	r4,	r0	
    1002:	04 00       	mova	@r0,	r4	
    1004:	00 01       	bra	@r1		
    1006:	01 14       	pushm.a	#1,	r1	
    1008:	6c 03 00 00 	mova	#0,	&0xc0000;r3 As==00
    100c:	02 6d       	addc	r13,	r2	
    100e:	03 69       	.word	0x6903;	????	Illegal as 2-op instr
    1010:	03 00       	.word	0x0003;	????	Illegal as address instr
    1012:	00 a9       	dadd	r9,	r0	
    1014:	04 00       	mova	@r0,	r4	
    1016:	00 01       	bra	@r1		
    1018:	01 14       	pushm.a	#1,	r1	
    101a:	75 03 00 00 	mova	#0,	0(r5)	;r3 As==00, 0x0000(r5)
    101e:	02 6f       	addc	r15,	r2	
    1020:	03 72       	.word	0x7203;	????	Illegal as 2-op instr
    1022:	03 00       	.word	0x0003;	????	Illegal as address instr
    1024:	00 a9       	dadd	r9,	r0	
    1026:	04 00       	mova	@r0,	r4	
    1028:	00 01       	bra	@r1		
    102a:	01 18       	.word	0x1801;	????	
    102c:	fe 03       	decda	r14		
    102e:	00 00       	bra	@r0		
    1030:	01 12       	push	r1		
    1032:	52 00       	rrcm	#1,	r2	
    1034:	00 00       	bra	@r0		
    1036:	01 03       	mova	#2,	r1	;r3 As==10
    1038:	03 01       	.word	0x0103;	????	Illegal as address instr
    103a:	11 00       	mova	#0x00000,r1	
    103c:	ff 00       	suba	r0,	r15	
    103e:	00 00       	bra	@r0		
    1040:	02 00       	mova	@r0,	r2	
    1042:	84 05 00 00 	mova	#0x50000,r4	
    1046:	02 01       	mova	@r1,	r2	
    1048:	11 00       	mova	#0x00000,r1	
    104a:	00 00       	bra	@r0		
    104c:	01 ec       	xor	r12,	r1	
    104e:	04 00       	mova	@r0,	r4	
    1050:	00 be       	bit	r14,	r0	
    1052:	04 00       	mova	@r0,	r4	
    1054:	00 70       	subc	r0,	r0	
    1056:	43 90       	.word	0x9043;	????	Illegal as 2-op instr
    1058:	43 fd       	.word	0xfd43;	????	Illegal as 2-op instr
    105a:	0e 00       	mova	@r0,	r14	
    105c:	00 02       	bra	#4		;r2 As==10
    105e:	04 05       	mova	@r5,	r4	
    1060:	ec 00       	adda	r0,	r12	
    1062:	00 00       	bra	@r0		
    1064:	02 02       	mova	#4,	r2	;r2 As==10
    1066:	07 be       	bit	r14,	r7	
    1068:	00 00       	bra	@r0		
    106a:	00 03       	bra	#2		;r3 As==10
    106c:	02 05       	mova	@r5,	r2	
    106e:	69 6e       	addc.b	@r14,	r9	
    1070:	74 00 02 01 	mova	r0,	258(r4)	;0x0102(r4)
    1074:	06 88       	sub	r8,	r6	
    1076:	00 00       	bra	@r0		
    1078:	00 02       	bra	#4		;r2 As==10
    107a:	08 05       	mova	@r5,	r8	
    107c:	e7 00       	adda	r0,	r7	
    107e:	00 00       	bra	@r0		
    1080:	02 01       	mova	@r1,	r2	
    1082:	08 86       	sub	r6,	r8	
    1084:	00 00       	bra	@r0		
    1086:	00 02       	bra	#4		;r2 As==10
    1088:	04 07       	mova	@r7,	r4	
    108a:	b9 00 00 00 	suba	#0x00000,r9	
    108e:	02 08       	mova	@r8,	r2	
    1090:	07 b4       	bit	r4,	r7	
    1092:	00 00       	bra	@r0		
    1094:	00 02       	bra	#4		;r2 As==10
    1096:	02 07       	mova	@r7,	r2	
    1098:	5f 00       	rrcm	#1,	r15	
    109a:	00 00       	bra	@r0		
    109c:	02 01       	mova	@r1,	r2	
    109e:	06 8f       	sub	r15,	r6	
    10a0:	00 00       	bra	@r0		
    10a2:	00 04       	bra	@r4		
    10a4:	02 6d       	addc	r13,	r2	
    10a6:	00 00       	bra	@r0		
    10a8:	00 05       	bra	@r5		
    10aa:	60 00 00 00 	mova	r0,	&0x00000
    10ae:	06 fe       	and	r14,	r6	
    10b0:	04 00       	mova	@r0,	r4	
    10b2:	00 02       	bra	#4		;r2 As==10
    10b4:	28 7d       	subc	@r13,	r8	
    10b6:	00 00       	bra	@r0		
    10b8:	00 07       	bra	@r7		
    10ba:	02 ac       	dadd	r12,	r2	
    10bc:	04 00       	mova	@r0,	r4	
    10be:	00 06       	bra	@r6		
    10c0:	05 05       	mova	@r5,	r5	
    10c2:	00 00       	bra	@r0		
    10c4:	02 66       	addc	r6,	r2	
    10c6:	72 00 00 00 	mova	r0,	&0x0000	
    10ca:	08 01       	mova	@r1,	r8	
    10cc:	fa 05       	suba	r5,	r10	
    10ce:	00 00       	bra	@r0		
    10d0:	01 24       	jz	$+4      	;abs 0x10d4
    10d2:	01 2f       	jc	$-508    	;abs 0xed6
    10d4:	00 00       	bra	@r0		
    10d6:	00 70       	subc	r0,	r0	
    10d8:	43 82       	.word	0x8243;	????	Illegal as 2-op instr
    10da:	43 02       	rlam.a	#1,	#0	;r3 As==00
    10dc:	71 02 cf 00 	mova	r2,	207(r1)	;0x00cf(r1)
    10e0:	00 00       	bra	@r0		
    10e2:	09 66       	addc	r6,	r9	
    10e4:	6d 74       	subc.b	@r4,	r13	
    10e6:	00 01       	bra	@r1		
    10e8:	24 67       	addc	@r7,	r4	
    10ea:	00 00       	bra	@r0		
    10ec:	00 02       	bra	#4		;r2 As==10
    10ee:	91 02 0a 0b 	cmpa	#0x20b0a,r1	
    10f2:	0d 05       	mova	@r5,	r13	
    10f4:	00 00       	bra	@r0		
    10f6:	01 26       	jz	$-1020   	;abs 0xcfa
    10f8:	83 00       	.word	0x0083;	????	Illegal as address instr
    10fa:	00 00       	bra	@r0		
    10fc:	03 91       	.word	0x9103;	????	Illegal as 2-op instr
    10fe:	02 9f       	cmp	r15,	r2	
    1100:	0c 72       	subc	r2,	r12	
    1102:	63 00 01 27 	mova	r0,	&0x32701
    1106:	2f 00 00 00 	mova	&0x00000,r15	
    110a:	00 0d       	bra	@r13		
    110c:	01 e4       	xor	r4,	r1	
    110e:	04 00       	mova	@r0,	r4	
    1110:	00 01       	bra	@r1		
    1112:	30 01 2f 00 	bra	47(r1)		;0x002f(r1)
    1116:	00 00       	bra	@r0		
    1118:	82 43 90 43 	mov	#0,	&0x4390	;r3 As==00
    111c:	02 71       	subc	r1,	r2	
    111e:	02 0e       	mova	@r14,	r2	
    1120:	66 6d       	addc.b	@r13,	r6	
    1122:	74 00 01 30 	mova	r0,	12289(r4);0x3001(r4)
    1126:	67 00 00 00 	mova	r0,	&0x70000
    112a:	4e 11       	rra.b	r14		
    112c:	00 00       	bra	@r0		
    112e:	0f 0d       	mova	@r13,	r15	
    1130:	05 00       	mova	@r0,	r5	
    1132:	00 01       	bra	@r1		
    1134:	30 83       	sub	#-1,	r0	;r3 As==11
    1136:	00 00       	bra	@r0		
    1138:	00 60       	rlc	r0		
    113a:	11 00       	mova	#0x00000,r1	
    113c:	00 00       	bra	@r0		
    113e:	00 b1       	bit	r1,	r0	
    1140:	03 00       	.word	0x0003;	????	Illegal as address instr
    1142:	00 02       	bra	#4		;r2 As==10
    1144:	00 52       	add	r2,	r0	
    1146:	06 00       	mova	@r0,	r6	
    1148:	00 02       	bra	#4		;r2 As==10
    114a:	01 11       	rra	r1		
    114c:	00 00       	bra	@r0		
    114e:	00 01       	bra	@r1		
    1150:	1d 06       	mova	@r6+,	r13	
    1152:	00 00       	bra	@r0		
    1154:	be 04 00 00 	suba	#0x40000,r14	
    1158:	90 43 06 48 	mov	#1,	0x4806	;r3 As==01, PC rel. 0x05962
    115c:	93 0f       	.word	0x0f93;	????	Illegal as address instr
    115e:	00 00       	bra	@r0		
    1160:	02 04       	mova	@r4,	r2	
    1162:	05 ec       	xor	r12,	r5	
    1164:	00 00       	bra	@r0		
    1166:	00 02       	bra	#4		;r2 As==10
    1168:	02 07       	mova	@r7,	r2	
    116a:	be 00 00 00 	suba	#0x00000,r14	
    116e:	03 02       	.word	0x0203;	????	Illegal as address instr
    1170:	05 69       	addc	r9,	r5	
    1172:	6e 74       	subc.b	@r4,	r14	
    1174:	00 02       	bra	#4		;r2 As==10
    1176:	01 06       	mova	@r6,	r1	
    1178:	88 00 00 00 	mova	#0x00000,r8	
    117c:	04 d6       	bis	r6,	r4	
    117e:	05 00       	mova	@r0,	r5	
    1180:	00 02       	bra	#4		;r2 As==10
    1182:	27 2f       	jc	$-432    	;abs 0xfd2
    1184:	00 00       	bra	@r0		
    1186:	00 02       	bra	#4		;r2 As==10
    1188:	08 05       	mova	@r5,	r8	
    118a:	e7 00       	adda	r0,	r7	
    118c:	00 00       	bra	@r0		
    118e:	02 01       	mova	@r1,	r2	
    1190:	08 86       	sub	r6,	r8	
    1192:	00 00       	bra	@r0		
    1194:	00 02       	bra	#4		;r2 As==10
    1196:	04 07       	mova	@r7,	r4	
    1198:	b9 00 00 00 	suba	#0x00000,r9	
    119c:	02 08       	mova	@r8,	r2	
    119e:	07 b4       	bit	r4,	r7	
    11a0:	00 00       	bra	@r0		
    11a2:	00 04       	bra	@r4		
    11a4:	12 05       	mova	@r5+,	r2	
    11a6:	00 00       	bra	@r0		
    11a8:	02 56       	add	r6,	r2	
    11aa:	3d 00 00 00 	mova	0x0000,	r13	;PC rel. 0x011ac
    11ae:	02 02       	mova	#4,	r2	;r2 As==10
    11b0:	07 5f       	add	r15,	r7	
    11b2:	00 00       	bra	@r0		
    11b4:	00 05       	bra	@r5		
    11b6:	02 7c       	subc	r12,	r2	
    11b8:	00 00       	bra	@r0		
    11ba:	00 02       	bra	#4		;r2 As==10
    11bc:	01 06       	mova	@r6,	r1	
    11be:	8f 00 00 00 	mova	#0x00000,r15	
    11c2:	05 02       	mova	#4,	r5	;r2 As==10
    11c4:	89 00 00 00 	mova	#0x00000,r9	
    11c8:	06 7c       	subc	r12,	r6	
    11ca:	00 00       	bra	@r0		
    11cc:	00 04       	bra	@r4		
    11ce:	fe 04       	suba	r4,	r14	
    11d0:	00 00       	bra	@r0		
    11d2:	03 28       	jnc	$+8      	;abs 0x11da
    11d4:	99 00 00 00 	cmpa	#0x00000,r9	
    11d8:	07 02       	mova	#4,	r7	;r2 As==10
    11da:	ac 04 00 00 	adda	#0x40000,r12	
    11de:	04 05       	mova	@r5,	r4	
    11e0:	05 00       	mova	@r0,	r5	
    11e2:	00 03       	bra	#2		;r3 As==10
    11e4:	66 8e       	sub.b	@r14,	r6	
    11e6:	00 00       	bra	@r0		
    11e8:	00 08       	bra	@r8		
    11ea:	02 01       	mova	@r1,	r2	
    11ec:	34 38       	jl	$+106    	;abs 0x1256
    11ee:	01 00       	mova	@r0,	r1	
    11f0:	00 09       	bra	@r9		
    11f2:	81 05 00 00 	mova	#0x50000,r1	
    11f6:	01 36       	jge	$-1020   	;abs 0xdfa
    11f8:	28 00 00 00 	mova	&0x00000,r8	
    11fc:	02 01       	mova	@r1,	r2	
    11fe:	0f 02       	mova	#4,	r15	;r2 As==10
    1200:	23 00       	.word	0x0023;	????	Illegal as address instr
    1202:	09 01       	mova	@r1,	r9	
    1204:	06 00       	mova	@r0,	r6	
    1206:	00 01       	bra	@r1		
    1208:	37 28       	jnc	$+112    	;abs 0x1278
    120a:	00 00       	bra	@r0		
    120c:	00 02       	bra	#4		;r2 As==10
    120e:	01 0e       	mova	@r14,	r1	
    1210:	02 23       	jnz	$-506    	;abs 0x1016
    1212:	00 09       	bra	@r9		
    1214:	6c 05 00 00 	mova	r5,	&0xc0000
    1218:	01 38       	jl	$+4      	;abs 0x121c
    121a:	28 00 00 00 	mova	&0x00000,r8	
    121e:	02 01       	mova	@r1,	r2	
    1220:	0d 02       	mova	#4,	r13	;r2 As==10
    1222:	23 00       	.word	0x0023;	????	Illegal as address instr
    1224:	09 5a       	add	r10,	r9	
    1226:	05 00       	mova	@r0,	r5	
    1228:	00 01       	bra	@r1		
    122a:	39 28       	jnc	$+116    	;abs 0x129e
    122c:	00 00       	bra	@r0		
    122e:	00 02       	bra	#4		;r2 As==10
    1230:	01 0c       	mova	@r12,	r1	
    1232:	02 23       	jnz	$-506    	;abs 0x1038
    1234:	00 09       	bra	@r9		
    1236:	38 05 00 00 	mova	0(r5),	r8	;0x0000(r5)
    123a:	01 3a       	jl	$-1020   	;abs 0xe3e
    123c:	28 00 00 00 	mova	&0x00000,r8	
    1240:	02 01       	mova	@r1,	r2	
    1242:	0b 02       	mova	#4,	r11	;r2 As==10
    1244:	23 00       	.word	0x0023;	????	Illegal as address instr
    1246:	09 13       	reti			;return from interupt
    1248:	06 00       	mova	@r0,	r6	
    124a:	00 01       	bra	@r1		
    124c:	3b 28       	jnc	$+120    	;abs 0x12c4
    124e:	00 00       	bra	@r0		
    1250:	00 02       	bra	#4		;r2 As==10
    1252:	01 0a       	mova	@r10,	r1	
    1254:	02 23       	jnz	$-506    	;abs 0x105a
    1256:	00 09       	bra	@r9		
    1258:	77 05 00 00 	mova	r5,	0(r7)	;0x0000(r7)
    125c:	01 3c       	jmp	$+4      	;abs 0x1260
    125e:	28 00 00 00 	mova	&0x00000,r8	
    1262:	02 01       	mova	@r1,	r2	
    1264:	09 02       	mova	#4,	r9	;r2 As==10
    1266:	23 00       	.word	0x0023;	????	Illegal as address instr
    1268:	0a ee       	xor	r14,	r10	
    126a:	05 00       	mova	@r0,	r5	
    126c:	00 01       	bra	@r1		
    126e:	3d 7c       	subc	@r12+,	r13	
    1270:	00 00       	bra	@r0		
    1272:	00 02       	bra	#4		;r2 As==10
    1274:	23 01       	.word	0x0123;	????	Illegal as address instr
    1276:	00 04       	bra	@r4		
    1278:	0b 06       	mova	@r6,	r11	
    127a:	00 00       	bra	@r0		
    127c:	01 3e       	jmp	$-1020   	;abs 0xe80
    127e:	aa 00 00 00 	adda	#0x00000,r10	
    1282:	0b 61       	addc	r1,	r11	
    1284:	06 00       	mova	@r0,	r6	
    1286:	00 01       	bra	@r1		
    1288:	4b 01       	rram.a	#1,	r11	
    128a:	2f 00 00 00 	mova	&0x00000,r15	
    128e:	01 74       	subc	r4,	r1	
    1290:	01 00       	mova	@r0,	r1	
    1292:	00 0c       	bra	@r12		
    1294:	c2 05       	mova	r5,	r2	
    1296:	00 00       	bra	@r0		
    1298:	01 4b       	mov	r11,	r1	
    129a:	76 00 00 00 	mova	r0,	0(r6)	;0x0000(r6)
    129e:	0c b7       	bit	r7,	r12	
    12a0:	05 00       	mova	@r0,	r5	
    12a2:	00 01       	bra	@r1		
    12a4:	4b 38       	jl	$+152    	;abs 0x133c
    12a6:	01 00       	mova	@r0,	r1	
    12a8:	00 0d       	bra	@r13		
    12aa:	70 00 01 4d 	mova	r0,	0x4d01	;PC rel. 0x05fad
    12ae:	76 00 00 00 	mova	r0,	0(r6)	;0x0000(r6)
    12b2:	00 0e       	bra	@r14		
    12b4:	93 05       	.word	0x0593;	????	Illegal as address instr
    12b6:	00 00       	bra	@r0		
    12b8:	01 63       	adc	r1		
    12ba:	01 2f       	jc	$-508    	;abs 0x10be
    12bc:	00 00       	bra	@r0		
    12be:	00 90       	cmp	r0,	r0	
    12c0:	43 94       	.word	0x9443;	????	Illegal as 2-op instr
    12c2:	44 72       	subc.b	r2,	r4	
    12c4:	11 00       	mova	#0x00000,r1	
    12c6:	00 53       	add	#0,	r0	;r3 As==00
    12c8:	02 00       	mova	@r0,	r2	
    12ca:	00 0f       	bra	@r15		
    12cc:	2d 05 00 00 	mova	&0x50000,r13	
    12d0:	01 63       	adc	r1		
    12d2:	63 02 00 00 	mova	r2,	&0x30000
    12d6:	c6 11       	.word	0x11c6;	????	
    12d8:	00 00       	bra	@r0		
    12da:	0f 53       	add	#0,	r15	;r3 As==00
    12dc:	05 00       	mova	@r0,	r5	
    12de:	00 01       	bra	@r1		
    12e0:	63 83       	decd.b	#0		;r3 As==00
    12e2:	00 00       	bra	@r0		
    12e4:	00 d8       	bis	r8,	r0	
    12e6:	11 00       	mova	#0x00000,r1	
    12e8:	00 0f       	bra	@r15		
    12ea:	0b 02       	mova	#4,	r11	;r2 As==10
    12ec:	00 00       	bra	@r0		
    12ee:	01 63       	adc	r1		
    12f0:	28 00 00 00 	mova	&0x00000,r8	
    12f4:	f1 11       	.word	0x11f1;	????	
    12f6:	00 00       	bra	@r0		
    12f8:	0f b7       	bit	r7,	r15	
    12fa:	05 00       	mova	@r0,	r5	
    12fc:	00 01       	bra	@r1		
    12fe:	64 38       	jl	$+202    	;abs 0x13c8
    1300:	01 00       	mova	@r0,	r1	
    1302:	00 11       	rra	r0		
    1304:	12 00       	mova	#0x00000,r2	
    1306:	00 10       	rrc	r0		
    1308:	37 06 00 00 	mova	0(r6),	r7	;0x0000(r6)
    130c:	01 66       	addc	r6,	r1	
    130e:	2f 00 00 00 	mova	&0x00000,r15	
    1312:	1c 12 00 00 	push	0(r12)		;0x0000(r12)
    1316:	11 c2 05 00 	bic	&0x0005,r1	
    131a:	00 01       	bra	@r1		
    131c:	67 69       	addc.b	@r9,	r7	
    131e:	02 00       	mova	@r0,	r2	
    1320:	00 02       	bra	#4		;r2 As==10
    1322:	91 00 10 ac 	cmpa	#0x0ac10,r1	
    1326:	05 00       	mova	@r0,	r5	
    1328:	00 01       	bra	@r1		
    132a:	68 2f       	jc	$-302    	;abs 0x11fc
    132c:	00 00       	bra	@r0		
    132e:	00 6f       	addc	r15,	r0	
    1330:	12 00       	mova	#0x00000,r2	
    1332:	00 11       	rra	r0		
    1334:	48 05       	rram.a	#2,	r8	
    1336:	00 00       	bra	@r0		
    1338:	01 69       	addc	r9,	r1	
    133a:	2f 00 00 00 	mova	&0x00000,r15	
    133e:	01 56       	add	r6,	r1	
    1340:	12 43       	mov	#1,	r2	;r3 As==01
    1342:	01 00       	mova	@r0,	r1	
    1344:	00 ae       	dadd	r14,	r0	
    1346:	43 ea       	.word	0xea43;	????	Illegal as 2-op instr
    1348:	43 01       	rram.a	#1,	#0	;r3 As==00
    134a:	69 2e       	jc	$-812    	;abs 0x101e
    134c:	02 00       	mova	@r0,	r2	
    134e:	00 13       	reti			
    1350:	5f 01       	rram	#1,	r15	
    1352:	00 00       	bra	@r0		
    1354:	14 54 01 00 	add	1(r4),	r4	;0x0001(r4)
    1358:	00 ae       	dadd	r14,	r0	
    135a:	12 00       	mova	#0x00000,r2	
    135c:	00 15       	pushm	#1,	r0	
    135e:	ae 43 ea 43 	mov	#2,	17386(r14);r3 As==10, 0x43ea(r14)
    1362:	16 6a 01 00 	addc	1(r10),	r6	;0x0001(r10)
    1366:	00 c2       	bic	r2,	r0	
    1368:	12 00       	mova	#0x00000,r2	
    136a:	00 00       	bra	@r0		
    136c:	00 17       	popm	#1,	r0	
    136e:	30 00 00 00 	bra	0x0000		;PC rel. 0x01370
    1372:	10 20       	jnz	$+34     	;abs 0x1394
    1374:	05 00       	mova	@r0,	r5	
    1376:	00 01       	bra	@r1		
    1378:	6e 7c       	subc.b	@r12,	r14	
    137a:	00 00       	bra	@r0		
    137c:	00 fd       	and	r13,	r0	
    137e:	12 00       	mova	#0x00000,r2	
    1380:	00 18 6c 65 	addcx.a	@r5,	r12	
    1384:	6e 00 01 6f 	mova	r0,	&0xe6f01
    1388:	28 00 00 00 	mova	&0x00000,r8	
    138c:	18 13       	reti			;return from interupt
    138e:	00 00       	bra	@r0		
    1390:	00 00       	bra	@r0		
    1392:	19 01       	mova	@r1+,	r9	
    1394:	2f 00 00 00 	mova	&0x00000,r15	
    1398:	63 02 00 00 	mova	r2,	&0x30000
    139c:	1a 2f       	jc	$-458    	;abs 0x11d2
    139e:	00 00       	bra	@r0		
    13a0:	00 00       	bra	@r0		
    13a2:	05 02       	mova	#4,	r5	;r2 As==10
    13a4:	53 02       	rlam	#1,	#0	;r3 As==00
    13a6:	00 00       	bra	@r0		
    13a8:	1b 7c 00 00 	subc	0(r12),	r11	;0x0000(r12)
    13ac:	00 79       	subc	r9,	r0	
    13ae:	02 00       	mova	@r0,	r2	
    13b0:	00 1c       	.word	0x1c00;	????	
    13b2:	28 00 00 00 	mova	&0x00000,r8	
    13b6:	01 00       	mova	@r0,	r1	
    13b8:	1d 01       	mova	@r1+,	r13	
    13ba:	f8 05       	suba	r5,	r8	
    13bc:	00 00       	bra	@r0		
    13be:	01 c5       	bic	r5,	r1	
    13c0:	01 2f       	jc	$-508    	;abs 0x11c4
    13c2:	00 00       	bra	@r0		
    13c4:	00 9c       	cmp	r12,	r0	
    13c6:	44 06       	rlam.a	#2,	r4	
    13c8:	48 2a       	jnc	$-878    	;abs 0x105a
    13ca:	13 00       	.word	0x0013;	????	Illegal as address instr
    13cc:	00 a8       	dadd	r8,	r0	
    13ce:	03 00       	.word	0x0003;	????	Illegal as address instr
    13d0:	00 0f       	bra	@r15		
    13d2:	2d 05 00 00 	mova	&0x50000,r13	
    13d6:	01 c5       	bic	r5,	r1	
    13d8:	63 02 00 00 	mova	r2,	&0x30000
    13dc:	7e 13       	calla	@r14+		
    13de:	00 00       	bra	@r0		
    13e0:	0f 5a       	add	r10,	r15	
    13e2:	06 00       	mova	@r0,	r6	
    13e4:	00 01       	bra	@r1		
    13e6:	c5 83 00 00 	sub.b	#0,	0(r5)	;r3 As==00, 0x0000(r5)
    13ea:	00 91       	cmp	r1,	r0	
    13ec:	13 00       	.word	0x0013;	????	Illegal as address instr
    13ee:	00 0f       	bra	@r15		
    13f0:	bd 05 00 00 	suba	#0x50000,r13	
    13f4:	01 c5       	bic	r5,	r1	
    13f6:	9f 00 00 00 	cmpa	#0x00000,r15	
    13fa:	ab 13       	calla			
    13fc:	00 00       	bra	@r0		
    13fe:	10 37       	jge	$-478    	;abs 0x1220
    1400:	06 00       	mova	@r0,	r6	
    1402:	00 01       	bra	@r1		
    1404:	c7 2f       	jc	$-112    	;abs 0x1394
    1406:	00 00       	bra	@r0		
    1408:	00 26       	jz	$-1022   	;abs 0x100a
    140a:	14 00       	mova	#0x00000,r4	
    140c:	00 1e       	.word	0x1e00;	????	
    140e:	02 01       	mova	@r1,	r2	
    1410:	c9 e3 02 00 	xor.b	#0,	2(r9)	;r3 As==00, 0x0002(r9)
    1414:	00 1f       	.word	0x1f00;	????	
    1416:	47 06       	rlam.a	#2,	r7	
    1418:	00 00       	bra	@r0		
    141a:	00 1f       	.word	0x1f00;	????	
    141c:	89 05 00 00 	mova	#0x50000,r9	
    1420:	01 00       	mova	@r0,	r1	
    1422:	10 1b       	.word	0x1b10;	????	
    1424:	05 00       	mova	@r0,	r5	
    1426:	00 01       	bra	@r1		
    1428:	c9 ce 02 00 	bic.b	r14,	2(r9)	;0x0002(r9)
    142c:	00 42       	br	r2		
    142e:	14 00       	mova	#0x00000,r4	
    1430:	00 10       	rrc	r0		
    1432:	0b 02       	mova	#4,	r11	;r2 As==10
    1434:	00 00       	bra	@r0		
    1436:	01 ca       	bic	r10,	r1	
    1438:	28 00 00 00 	mova	&0x00000,r8	
    143c:	9f 14       	pushm.a	#10,	r15	
    143e:	00 00       	bra	@r0		
    1440:	11 b7 05 00 	bit	5(r7),	r1	;0x0005(r7)
    1444:	00 01       	bra	@r1		
    1446:	cb 38       	jl	$+408    	;abs 0x15de
    1448:	01 00       	mova	@r0,	r1	
    144a:	00 02       	bra	#4		;r2 As==10
    144c:	91 00 10 53 	cmpa	#0x05310,r1	
    1450:	05 00       	mova	@r0,	r5	
    1452:	00 01       	bra	@r1		
    1454:	cc 76 00 00 	subc.b	r6,	0(r12)	;0x0000(r12)
    1458:	00 f3       	and	#0,	r0	;r3 As==00
    145a:	14 00       	mova	#0x00000,r4	
    145c:	00 10       	rrc	r0		
    145e:	e4 05       	adda	r5,	r4	
    1460:	00 00       	bra	@r0		
    1462:	01 cd       	bic	r13,	r1	
    1464:	7c 00 00 00 	mova	r0,	0(r12)	;0x0000(r12)
    1468:	30 15       	pushm	#4,	r0	
    146a:	00 00       	bra	@r0		
    146c:	10 d0 05 00 	bis	0x0005,	r0	;PC rel. 0x01475
    1470:	00 01       	bra	@r1		
    1472:	ce 2f       	jc	$-98     	;abs 0x1410
    1474:	00 00       	bra	@r0		
    1476:	00 7f       	subc	r15,	r0	
    1478:	15 00       	mova	#0x00000,r5	
    147a:	00 10       	rrc	r0		
    147c:	a5 05 00 00 	adda	#0x50000,r5	
    1480:	01 cf       	bic	r15,	r1	
    1482:	21 00 00 00 	mova	&0x00000,r1	
    1486:	92 15       	pushm	#10,	r2	
    1488:	00 00       	bra	@r0		
    148a:	11 c9 05 00 	bic	5(r9),	r1	;0x0005(r9)
    148e:	00 01       	bra	@r1		
    1490:	d0 a8 03 00 	dadd.b	3(r8),	0x0200	;0x0003(r8), PC rel. 0x01696
    1494:	00 02 
    1496:	91 02 20 de 	cmpa	#0x2de20,r1	
    149a:	05 00       	mova	@r0,	r5	
    149c:	00 01       	bra	@r1		
    149e:	a0 01 c8 47 	adda	#0x147c8,r0	
    14a2:	20 4e       	br	@r14		
    14a4:	06 00       	mova	@r0,	r6	
    14a6:	00 01       	bra	@r1		
    14a8:	71 01 f4 46 	mova	r1,	18164(r1);0x46f4(r1)
    14ac:	20 9f       	cmp	@r15,	r0	
    14ae:	05 00       	mova	@r0,	r5	
    14b0:	00 01       	bra	@r1		
    14b2:	5f 01       	rram	#1,	r15	
    14b4:	b0 46 21 be 	mov	@r6+,	0xbe21	;PC rel. 0xfd2d9
    14b8:	45 ea       	xor.b	r10,	r5	
    14ba:	45 91       	cmp.b	r1,	r5	
    14bc:	03 00       	.word	0x0003;	????	Illegal as address instr
    14be:	00 22       	jnz	$-1022   	;abs 0x10c0
    14c0:	76 61       	addc.b	@r1+,	r6	
    14c2:	6c 00 01 0d 	mova	r0,	&0xc0d01
    14c6:	01 2f       	jc	$-508    	;abs 0x12ca
    14c8:	00 00       	bra	@r0		
    14ca:	00 ef       	xor	r15,	r0	
    14cc:	15 00       	mova	#0x00000,r5	
    14ce:	00 00       	bra	@r0		
    14d0:	15 2e       	jc	$-980    	;abs 0x10fc
    14d2:	47 9e       	cmp.b	r14,	r7	
    14d4:	47 23       	jnz	$-368    	;abs 0x1364
    14d6:	31 06 00 00 	mova	0(r6),	r1	;0x0000(r6)
    14da:	01 83       	sub	#0,	r1	;r3 As==00
    14dc:	01 2f       	jc	$-508    	;abs 0x12e0
    14de:	00 00       	bra	@r0		
    14e0:	00 fc       	and	r12,	r0	
    14e2:	15 00       	mova	#0x00000,r5	
    14e4:	00 00       	bra	@r0		
    14e6:	00 24       	jz	$+2      	;abs 0x14e8
    14e8:	7c 00 00 00 	mova	r0,	0(r12)	;0x0000(r12)
    14ec:	1c 28       	jnc	$+58     	;abs 0x1526
    14ee:	00 00       	bra	@r0		
    14f0:	00 0b       	bra	@r11		
	...

Disassembly of section .debug_abbrev:

00000000 <.debug_abbrev>:
   0:	01 11       	rra	r1		
   2:	01 25       	jz	$+516    	;abs 0x206
   4:	0e 13       	reti			;return from interupt
   6:	0b 03       	mova	#2,	r11	;r3 As==10
   8:	0e 1b 0e 11 	.rpt	#14
				rrax	r14		
   c:	01 52       	add	r2,	r1	
   e:	01 55       	add	r5,	r1	
  10:	06 10       	rrc	r6		
  12:	06 00       	mova	@r0,	r6	
  14:	00 02       	bra	#4		;r2 As==10
  16:	24 00 0b 0b 	mova	&0x00b0b,r4	
  1a:	3e 0b 03 0e 	mova	3587(r11),r14	;0x0e03(r11)
  1e:	00 00       	bra	@r0		
  20:	03 24       	jz	$+8      	;abs 0x28
  22:	00 0b       	bra	@r11		
  24:	0b 3e       	jmp	$-1000   	;abs 0xfc3c
  26:	0b 03       	mova	#2,	r11	;r3 As==10
  28:	08 00       	mova	@r0,	r8	
  2a:	00 04       	bra	@r4		
  2c:	2e 01 3f 0c 	mova	&0x10c3f,r14	
  30:	03 0e       	.word	0x0e03;	????	Illegal as address instr
  32:	3a 0b 3b 0b 	mova	2875(r11),r10	;0x0b3b(r11)
  36:	27 0c 49 13 	mova	&0xc1349,r7	
  3a:	11 01       	mova	@r1+,	r1	
  3c:	12 01       	mova	@r1+,	r2	
  3e:	40 06       	rlam.a	#2,	r0	
  40:	01 13       	reti			;return from interupt
  42:	00 00       	bra	@r0		
  44:	05 34       	jge	$+12     	;abs 0x50
  46:	00 03       	bra	#2		;r3 As==10
  48:	0e 3a       	jl	$-994    	;abs 0xfc66
  4a:	0b 3b       	jl	$-488    	;abs 0xfe62
  4c:	0b 49       	mov	r9,	r11	
  4e:	13 02       	.word	0x0213;	????	Illegal as address instr
  50:	06 00       	mova	@r0,	r6	
  52:	00 06       	bra	@r6		
  54:	34 00 03 0e 	mova	0x0e03,	r4	;PC rel. 0x00e59
  58:	3a 0b 3b 05 	mova	1339(r11),r10	;0x053b(r11)
  5c:	87 40 0e 49 	mov	r0,	18702(r7);0x490e(r7)
  60:	13 3f       	jmp	$-472    	;abs 0xfe88
  62:	0c 3c       	jmp	$+26     	;abs 0x7c
  64:	0c 00       	mova	@r0,	r12	
  66:	00 07       	bra	@r7		
  68:	35 00 49 13 	mova	0x1349,	r5	;PC rel. 0x013b3
  6c:	00 00       	bra	@r0		
  6e:	08 34       	jge	$+18     	;abs 0x80
  70:	00 03       	bra	#2		;r3 As==10
  72:	0e 3a       	jl	$-994    	;abs 0xfc90
  74:	0b 3b       	jl	$-488    	;abs 0xfe8c
  76:	0b 49       	mov	r9,	r11	
  78:	13 3f       	jmp	$-472    	;abs 0xfea0
  7a:	0c 3c       	jmp	$+26     	;abs 0x94
  7c:	0c 00       	mova	@r0,	r12	
  7e:	00 00       	bra	@r0		
  80:	00 01       	bra	@r1		
  82:	11 01       	mova	@r1+,	r1	
  84:	25 0e 13 0b 	mova	&0xe0b13,r5	
  88:	03 0e       	.word	0x0e03;	????	Illegal as address instr
  8a:	1b 0e       	mova	@r14+,	r11	
  8c:	11 01       	mova	@r1+,	r1	
  8e:	12 01       	mova	@r1+,	r2	
  90:	10 06       	bra	@r6+		
  92:	00 00       	bra	@r0		
  94:	02 04       	mova	@r4,	r2	
  96:	01 0b       	mova	@r11,	r1	
  98:	0b 3a       	jl	$-1000   	;abs 0xfcb0
  9a:	0b 3b       	jl	$-488    	;abs 0xfeb2
  9c:	0b 01       	mova	@r1,	r11	
  9e:	13 00       	.word	0x0013;	????	Illegal as address instr
  a0:	00 03       	bra	#2		;r3 As==10
  a2:	28 00 03 0e 	mova	&0x00e03,r8	
  a6:	1c 0d       	mova	@r13+,	r12	
  a8:	00 00       	bra	@r0		
  aa:	04 16       	popm.a	#1,	r4	
  ac:	00 03       	bra	#2		;r3 As==10
  ae:	0e 3a       	jl	$-994    	;abs 0xfccc
  b0:	0b 3b       	jl	$-488    	;abs 0xfec8
  b2:	0b 49       	mov	r9,	r11	
  b4:	13 00       	.word	0x0013;	????	Illegal as address instr
  b6:	00 05       	bra	@r5		
  b8:	2e 01 3f 0c 	mova	&0x10c3f,r14	
  bc:	03 0e       	.word	0x0e03;	????	Illegal as address instr
  be:	3a 0b 3b 0b 	mova	2875(r11),r10	;0x0b3b(r11)
  c2:	27 0c 11 01 	mova	&0xc0111,r7	
  c6:	12 01       	mova	@r1+,	r2	
  c8:	40 0a       	rlam.a	#3,	r0	
  ca:	01 13       	reti			;return from interupt
  cc:	00 00       	bra	@r0		
  ce:	06 34       	jge	$+14     	;abs 0xdc
  d0:	00 03       	bra	#2		;r3 As==10
  d2:	0e 3a       	jl	$-994    	;abs 0xfcf0
  d4:	0b 3b       	jl	$-488    	;abs 0xfeec
  d6:	0b 49       	mov	r9,	r11	
  d8:	13 1c       	.word	0x1c13;	????	
  da:	0b 00       	mova	@r0,	r11	
  dc:	00 07       	bra	@r7		
  de:	24 00 0b 0b 	mova	&0x00b0b,r4	
  e2:	3e 0b 03 0e 	mova	3587(r11),r14	;0x0e03(r11)
  e6:	00 00       	bra	@r0		
  e8:	08 05       	mova	@r5,	r8	
  ea:	00 03       	bra	#2		;r3 As==10
  ec:	0e 3a       	jl	$-994    	;abs 0xfd0a
  ee:	0b 3b       	jl	$-488    	;abs 0xff06
  f0:	0b 49       	mov	r9,	r11	
  f2:	13 02       	.word	0x0213;	????	Illegal as address instr
  f4:	0a 00       	mova	@r0,	r10	
  f6:	00 09       	bra	@r9		
  f8:	34 00 03 08 	mova	0x0803,	r4	;PC rel. 0x008fd
  fc:	3a 0b 3b 0b 	mova	2875(r11),r10	;0x0b3b(r11)
 100:	49 13       	calla	r9		
 102:	02 06       	mova	@r6,	r2	
 104:	00 00       	bra	@r0		
 106:	0a 24       	jz	$+22     	;abs 0x11c
 108:	00 0b       	bra	@r11		
 10a:	0b 3e       	jmp	$-1000   	;abs 0xfd22
 10c:	0b 03       	mova	#2,	r11	;r3 As==10
 10e:	08 00       	mova	@r0,	r8	
 110:	00 0b       	bra	@r11		
 112:	2e 01 3f 0c 	mova	&0x10c3f,r14	
 116:	03 0e       	.word	0x0e03;	????	Illegal as address instr
 118:	3a 0b 3b 0b 	mova	2875(r11),r10	;0x0b3b(r11)
 11c:	27 0c 11 01 	mova	&0xc0111,r7	
 120:	12 01       	mova	@r1+,	r2	
 122:	40 06       	rlam.a	#2,	r0	
 124:	01 13       	reti			;return from interupt
 126:	00 00       	bra	@r0		
 128:	0c 05       	mova	@r5,	r12	
 12a:	00 03       	bra	#2		;r3 As==10
 12c:	0e 3a       	jl	$-994    	;abs 0xfd4a
 12e:	0b 3b       	jl	$-488    	;abs 0xff46
 130:	0b 49       	mov	r9,	r11	
 132:	13 02       	.word	0x0213;	????	Illegal as address instr
 134:	06 00       	mova	@r0,	r6	
 136:	00 0d       	bra	@r13		
 138:	2e 01 3f 0c 	mova	&0x10c3f,r14	
 13c:	03 0e       	.word	0x0e03;	????	Illegal as address instr
 13e:	3a 0b 3b 0b 	mova	2875(r11),r10	;0x0b3b(r11)
 142:	27 0c 49 13 	mova	&0xc1349,r7	
 146:	11 01       	mova	@r1+,	r1	
 148:	12 01       	mova	@r1+,	r2	
 14a:	40 0a       	rlam.a	#3,	r0	
 14c:	01 13       	reti			;return from interupt
 14e:	00 00       	bra	@r0		
 150:	0e 01       	mova	@r1,	r14	
 152:	01 49       	mov	r9,	r1	
 154:	13 01       	.word	0x0113;	????	Illegal as address instr
 156:	13 00       	.word	0x0013;	????	Illegal as address instr
 158:	00 0f       	bra	@r15		
 15a:	21 00 49 13 	mova	&0x01349,r1	
 15e:	00 00       	bra	@r0		
 160:	10 34       	jge	$+34     	;abs 0x182
 162:	00 03       	bra	#2		;r3 As==10
 164:	0e 3a       	jl	$-994    	;abs 0xfd82
 166:	0b 3b       	jl	$-488    	;abs 0xff7e
 168:	0b 49       	mov	r9,	r11	
 16a:	13 3f       	jmp	$-472    	;abs 0xff92
 16c:	0c 3c       	jmp	$+26     	;abs 0x186
 16e:	0c 00       	mova	@r0,	r12	
 170:	00 11       	rra	r0		
 172:	35 00 49 13 	mova	0x1349,	r5	;PC rel. 0x014bd
 176:	00 00       	bra	@r0		
 178:	12 34       	jge	$+38     	;abs 0x19e
 17a:	00 03       	bra	#2		;r3 As==10
 17c:	0e 3a       	jl	$-994    	;abs 0xfd9a
 17e:	0b 3b       	jl	$-488    	;abs 0xff96
 180:	0b 49       	mov	r9,	r11	
 182:	13 3f       	jmp	$-472    	;abs 0xffaa
 184:	0c 02       	mova	#4,	r12	;r2 As==10
 186:	0a 00       	mova	@r0,	r10	
 188:	00 00       	bra	@r0		
 18a:	01 11       	rra	r1		
 18c:	01 25       	jz	$+516    	;abs 0x390
 18e:	0e 13       	reti			;return from interupt
 190:	0b 03       	mova	#2,	r11	;r3 As==10
 192:	0e 1b 0e 11 	.rpt	#14
				rrax	r14		
 196:	01 12       	push	r1		
 198:	01 10       	rrc	r1		
 19a:	06 00       	mova	@r0,	r6	
 19c:	00 02       	bra	#4		;r2 As==10
 19e:	24 00 0b 0b 	mova	&0x00b0b,r4	
 1a2:	3e 0b 03 0e 	mova	3587(r11),r14	;0x0e03(r11)
 1a6:	00 00       	bra	@r0		
 1a8:	03 24       	jz	$+8      	;abs 0x1b0
 1aa:	00 0b       	bra	@r11		
 1ac:	0b 3e       	jmp	$-1000   	;abs 0xfdc4
 1ae:	0b 03       	mova	#2,	r11	;r3 As==10
 1b0:	08 00       	mova	@r0,	r8	
 1b2:	00 04       	bra	@r4		
 1b4:	04 01       	mova	@r1,	r4	
 1b6:	0b 0b       	mova	@r11,	r11	
 1b8:	3a 0b 3b 0b 	mova	2875(r11),r10	;0x0b3b(r11)
 1bc:	01 13       	reti			;return from interupt
 1be:	00 00       	bra	@r0		
 1c0:	05 28       	jnc	$+12     	;abs 0x1cc
 1c2:	00 03       	bra	#2		;r3 As==10
 1c4:	0e 1c       	.word	0x1c0e;	????	
 1c6:	0d 00       	mova	@r0,	r13	
 1c8:	00 06       	bra	@r6		
 1ca:	2e 00 3f 0c 	mova	&0x00c3f,r14	
 1ce:	03 0e       	.word	0x0e03;	????	Illegal as address instr
 1d0:	3a 0b 3b 05 	mova	1339(r11),r10	;0x053b(r11)
 1d4:	27 0c 20 0b 	mova	&0xc0b20,r7	
 1d8:	00 00       	bra	@r0		
 1da:	07 2e       	jc	$-1008   	;abs 0xfdea
 1dc:	01 3f       	jmp	$-508    	;abs 0xffe0
 1de:	0c 03       	mova	#2,	r12	;r3 As==10
 1e0:	0e 3a       	jl	$-994    	;abs 0xfdfe
 1e2:	0b 3b       	jl	$-488    	;abs 0xfffa
 1e4:	05 27       	jz	$-500    	;abs 0xfff0
 1e6:	0c 20       	jnz	$+26     	;abs 0x200
 1e8:	0b 01       	mova	@r1,	r11	
 1ea:	13 00       	.word	0x0013;	????	Illegal as address instr
 1ec:	00 08       	bra	@r8		
 1ee:	05 00       	mova	@r0,	r5	
 1f0:	03 08       	.word	0x0803;	????	Illegal as address instr
 1f2:	3a 0b 3b 05 	mova	1339(r11),r10	;0x053b(r11)
 1f6:	49 13       	calla	r9		
 1f8:	00 00       	bra	@r0		
 1fa:	09 2e       	jc	$-1004   	;abs 0xfe0e
 1fc:	01 3f       	jmp	$-508    	;abs 0x0
 1fe:	0c 03       	mova	#2,	r12	;r3 As==10
 200:	0e 3a       	jl	$-994    	;abs 0xfe1e
 202:	0b 3b       	jl	$-488    	;abs 0x1a
 204:	0b 27       	jz	$-488    	;abs 0x1c
 206:	0c 11       	rra	r12		
 208:	01 12       	push	r1		
 20a:	01 40       	mov	r0,	r1	
 20c:	0a 01       	mova	@r1,	r10	
 20e:	13 00       	.word	0x0013;	????	Illegal as address instr
 210:	00 0a       	bra	@r10		
 212:	05 00       	mova	@r0,	r5	
 214:	03 0e       	.word	0x0e03;	????	Illegal as address instr
 216:	3a 0b 3b 0b 	mova	2875(r11),r10	;0x0b3b(r11)
 21a:	49 13       	calla	r9		
 21c:	02 0a       	mova	@r10,	r2	
 21e:	00 00       	bra	@r0		
 220:	0b 2e       	jc	$-1000   	;abs 0xfe38
 222:	01 3f       	jmp	$-508    	;abs 0x26
 224:	0c 03       	mova	#2,	r12	;r3 As==10
 226:	0e 3a       	jl	$-994    	;abs 0xfe44
 228:	0b 3b       	jl	$-488    	;abs 0x40
 22a:	0b 27       	jz	$-488    	;abs 0x42
 22c:	0c 11       	rra	r12		
 22e:	01 12       	push	r1		
 230:	01 40       	mov	r0,	r1	
 232:	06 01       	mova	@r1,	r6	
 234:	13 00       	.word	0x0013;	????	Illegal as address instr
 236:	00 0c       	bra	@r12		
 238:	05 00       	mova	@r0,	r5	
 23a:	03 08       	.word	0x0803;	????	Illegal as address instr
 23c:	3a 0b 3b 0b 	mova	2875(r11),r10	;0x0b3b(r11)
 240:	49 13       	calla	r9		
 242:	02 0a       	mova	@r10,	r2	
 244:	00 00       	bra	@r0		
 246:	0d 34       	jge	$+28     	;abs 0x262
 248:	00 03       	bra	#2		;r3 As==10
 24a:	0e 3a       	jl	$-994    	;abs 0xfe68
 24c:	0b 3b       	jl	$-488    	;abs 0x64
 24e:	0b 49       	mov	r9,	r11	
 250:	13 02       	.word	0x0213;	????	Illegal as address instr
 252:	06 00       	mova	@r0,	r6	
 254:	00 0e       	bra	@r14		
 256:	34 00 03 08 	mova	0x0803,	r4	;PC rel. 0x00a5b
 25a:	3a 0b 3b 0b 	mova	2875(r11),r10	;0x0b3b(r11)
 25e:	49 13       	calla	r9		
 260:	02 06       	mova	@r6,	r2	
 262:	00 00       	bra	@r0		
 264:	0f 2e       	jc	$-992    	;abs 0xfe84
 266:	01 3f       	jmp	$-508    	;abs 0x6a
 268:	0c 03       	mova	#2,	r12	;r3 As==10
 26a:	0e 3a       	jl	$-994    	;abs 0xfe88
 26c:	0b 3b       	jl	$-488    	;abs 0x84
 26e:	05 27       	jz	$-500    	;abs 0x7a
 270:	0c 11       	rra	r12		
 272:	01 12       	push	r1		
 274:	01 40       	mov	r0,	r1	
 276:	06 01       	mova	@r1,	r6	
 278:	13 00       	.word	0x0013;	????	Illegal as address instr
 27a:	00 10       	rrc	r0		
 27c:	05 00       	mova	@r0,	r5	
 27e:	03 0e       	.word	0x0e03;	????	Illegal as address instr
 280:	3a 0b 3b 05 	mova	1339(r11),r10	;0x053b(r11)
 284:	49 13       	calla	r9		
 286:	02 06       	mova	@r6,	r2	
 288:	00 00       	bra	@r0		
 28a:	11 05       	mova	@r5+,	r1	
 28c:	00 03       	bra	#2		;r3 As==10
 28e:	08 3a       	jl	$-1006   	;abs 0xfea0
 290:	0b 3b       	jl	$-488    	;abs 0xa8
 292:	05 49       	mov	r9,	r5	
 294:	13 02       	.word	0x0213;	????	Illegal as address instr
 296:	06 00       	mova	@r0,	r6	
 298:	00 12       	push	r0		
 29a:	05 00       	mova	@r0,	r5	
 29c:	03 0e       	.word	0x0e03;	????	Illegal as address instr
 29e:	3a 0b 3b 05 	mova	1339(r11),r10	;0x053b(r11)
 2a2:	49 13       	calla	r9		
 2a4:	02 0a       	mova	@r10,	r2	
 2a6:	00 00       	bra	@r0		
 2a8:	13 34       	jge	$+40     	;abs 0x2d0
 2aa:	00 03       	bra	#2		;r3 As==10
 2ac:	0e 3a       	jl	$-994    	;abs 0xfeca
 2ae:	0b 3b       	jl	$-488    	;abs 0xc6
 2b0:	05 49       	mov	r9,	r5	
 2b2:	13 02       	.word	0x0213;	????	Illegal as address instr
 2b4:	06 00       	mova	@r0,	r6	
 2b6:	00 14       	pushm.a	#1,	r0	
 2b8:	34 00 03 08 	mova	0x0803,	r4	;PC rel. 0x00abd
 2bc:	3a 0b 3b 05 	mova	1339(r11),r10	;0x053b(r11)
 2c0:	49 13       	calla	r9		
 2c2:	02 06       	mova	@r6,	r2	
 2c4:	00 00       	bra	@r0		
 2c6:	15 05       	mova	@r5+,	r5	
 2c8:	00 03       	bra	#2		;r3 As==10
 2ca:	0e 3a       	jl	$-994    	;abs 0xfee8
 2cc:	0b 3b       	jl	$-488    	;abs 0xe4
 2ce:	0b 49       	mov	r9,	r11	
 2d0:	13 02       	.word	0x0213;	????	Illegal as address instr
 2d2:	06 00       	mova	@r0,	r6	
 2d4:	00 16       	popm.a	#1,	r0	
 2d6:	0b 01       	mova	@r1,	r11	
 2d8:	11 01       	mova	@r1+,	r1	
 2da:	12 01       	mova	@r1+,	r2	
 2dc:	01 13       	reti			;return from interupt
 2de:	00 00       	bra	@r0		
 2e0:	17 0b       	mova	@r11+,	r7	
 2e2:	01 11       	rra	r1		
 2e4:	01 12       	push	r1		
 2e6:	01 00       	mova	@r0,	r1	
 2e8:	00 18       	.word	0x1800;	????	
 2ea:	05 00       	mova	@r0,	r5	
 2ec:	03 08       	.word	0x0803;	????	Illegal as address instr
 2ee:	3a 0b 3b 05 	mova	1339(r11),r10	;0x053b(r11)
 2f2:	49 13       	calla	r9		
 2f4:	02 0a       	mova	@r10,	r2	
 2f6:	00 00       	bra	@r0		
 2f8:	19 0f       	mova	@r15+,	r9	
 2fa:	00 0b       	bra	@r11		
 2fc:	0b 49       	mov	r9,	r11	
 2fe:	13 00       	.word	0x0013;	????	Illegal as address instr
 300:	00 1a       	.word	0x1a00;	????	
 302:	2e 00 31 13 	mova	&0x01331,r14	
 306:	11 01       	mova	@r1+,	r1	
 308:	12 01       	mova	@r1+,	r2	
 30a:	40 0a       	rlam.a	#3,	r0	
 30c:	00 00       	bra	@r0		
 30e:	1b 2e       	jc	$-968    	;abs 0xff46
 310:	01 31       	jn	$+516    	;abs 0x514
 312:	13 11       	rra	#1		;r3 As==01
 314:	01 12       	push	r1		
 316:	01 40       	mov	r0,	r1	
 318:	0a 01       	mova	@r1,	r10	
 31a:	13 00       	.word	0x0013;	????	Illegal as address instr
 31c:	00 1c       	.word	0x1c00;	????	
 31e:	05 00       	mova	@r0,	r5	
 320:	31 13       	reti			;return from interupt
 322:	02 06       	mova	@r6,	r2	
 324:	00 00       	bra	@r0		
 326:	1d 34       	jge	$+60     	;abs 0x362
 328:	00 03       	bra	#2		;r3 As==10
 32a:	08 3a       	jl	$-1006   	;abs 0xff3c
 32c:	0b 3b       	jl	$-488    	;abs 0x144
 32e:	05 49       	mov	r9,	r5	
 330:	13 00       	.word	0x0013;	????	Illegal as address instr
 332:	00 1e       	.word	0x1e00;	????	
 334:	2e 01 3f 0c 	mova	&0x10c3f,r14	
 338:	03 0e       	.word	0x0e03;	????	Illegal as address instr
 33a:	3a 0b 3b 05 	mova	1339(r11),r10	;0x053b(r11)
 33e:	27 0c 11 01 	mova	&0xc0111,r7	
 342:	12 01       	mova	@r1+,	r2	
 344:	40 0a       	rlam.a	#3,	r0	
 346:	01 13       	reti			;return from interupt
 348:	00 00       	bra	@r0		
 34a:	1f 1d       	.word	0x1d1f;	????	
 34c:	00 31       	jn	$+514    	;abs 0x54e
 34e:	13 52       	.word	0x5213;	????	Illegal as 2-op instr
 350:	01 55       	add	r5,	r1	
 352:	06 58       	add	r8,	r6	
 354:	0b 59       	add	r9,	r11	
 356:	05 00       	mova	@r0,	r5	
 358:	00 20       	jnz	$+2      	;abs 0x35a
 35a:	1d 00       	mova	#0x00000,r13	
 35c:	31 13       	reti			;return from interupt
 35e:	11 01       	mova	@r1+,	r1	
 360:	12 01       	mova	@r1+,	r2	
 362:	58 0b       	rrum	#3,	r8	
 364:	59 05       	rram	#2,	r9	
 366:	00 00       	bra	@r0		
 368:	21 2e       	jc	$-956    	;abs 0xffac
 36a:	01 3f       	jmp	$-508    	;abs 0x16e
 36c:	0c 03       	mova	#2,	r12	;r3 As==10
 36e:	0e 3a       	jl	$-994    	;abs 0xff8c
 370:	0b 3b       	jl	$-488    	;abs 0x188
 372:	0b 27       	jz	$-488    	;abs 0x18a
 374:	0c 49       	mov	r9,	r12	
 376:	13 11       	rra	#1		;r3 As==01
 378:	01 12       	push	r1		
 37a:	01 40       	mov	r0,	r1	
 37c:	0a 01       	mova	@r1,	r10	
 37e:	13 00       	.word	0x0013;	????	Illegal as address instr
 380:	00 22       	jnz	$-1022   	;abs 0xff82
 382:	05 00       	mova	@r0,	r5	
 384:	03 08       	.word	0x0803;	????	Illegal as address instr
 386:	3a 0b 3b 0b 	mova	2875(r11),r10	;0x0b3b(r11)
 38a:	49 13       	calla	r9		
 38c:	02 06       	mova	@r6,	r2	
 38e:	00 00       	bra	@r0		
 390:	23 0b       	.word	0x0b23;	????	Illegal as address instr
 392:	01 55       	add	r5,	r1	
 394:	06 00       	mova	@r0,	r6	
 396:	00 24       	jz	$+2      	;abs 0x398
 398:	34 00 03 0e 	mova	0x0e03,	r4	;PC rel. 0x0119d
 39c:	3a 0b 3b 05 	mova	1339(r11),r10	;0x053b(r11)
 3a0:	49 13       	calla	r9		
 3a2:	00 00       	bra	@r0		
 3a4:	25 1d       	.word	0x1d25;	????	
 3a6:	01 31       	jn	$+516    	;abs 0x5aa
 3a8:	13 52       	.word	0x5213;	????	Illegal as 2-op instr
 3aa:	01 55       	add	r5,	r1	
 3ac:	06 58       	add	r8,	r6	
 3ae:	0b 59       	add	r9,	r11	
 3b0:	05 00       	mova	@r0,	r5	
 3b2:	00 26       	jz	$-1022   	;abs 0xffb4
 3b4:	34 00 03 0e 	mova	0x0e03,	r4	;PC rel. 0x011b9
 3b8:	3a 0b 3b 05 	mova	1339(r11),r10	;0x053b(r11)
 3bc:	87 40 0e 49 	mov	r0,	18702(r7);0x490e(r7)
 3c0:	13 3f       	jmp	$-472    	;abs 0x1e8
 3c2:	0c 3c       	jmp	$+26     	;abs 0x3dc
 3c4:	0c 00       	mova	@r0,	r12	
 3c6:	00 27       	jz	$-510    	;abs 0x1c8
 3c8:	35 00 49 13 	mova	0x1349,	r5	;PC rel. 0x01713
 3cc:	00 00       	bra	@r0		
 3ce:	28 34       	jge	$+82     	;abs 0x420
 3d0:	00 03       	bra	#2		;r3 As==10
 3d2:	0e 3a       	jl	$-994    	;abs 0xfff0
 3d4:	0b 3b       	jl	$-488    	;abs 0x1ec
 3d6:	0b 49       	mov	r9,	r11	
 3d8:	13 3f       	jmp	$-472    	;abs 0x200
 3da:	0c 3c       	jmp	$+26     	;abs 0x3f4
 3dc:	0c 00       	mova	@r0,	r12	
 3de:	00 29       	jnc	$+514    	;abs 0x5e0
 3e0:	01 01       	mova	@r1,	r1	
 3e2:	49 13       	calla	r9		
 3e4:	01 13       	reti			;return from interupt
 3e6:	00 00       	bra	@r0		
 3e8:	2a 21       	jnz	$+598    	;abs 0x63e
 3ea:	00 49       	br	r9		
 3ec:	13 2f       	jc	$-472    	;abs 0x214
 3ee:	05 00       	mova	@r0,	r5	
 3f0:	00 2b       	jnc	$-510    	;abs 0x1f2
 3f2:	26 00 49 13 	mova	&0x01349,r6	
 3f6:	00 00       	bra	@r0		
 3f8:	2c 34       	jge	$+90     	;abs 0x452
 3fa:	00 03       	bra	#2		;r3 As==10
 3fc:	0e 3a       	jl	$-994    	;abs 0x1a
 3fe:	0b 3b       	jl	$-488    	;abs 0x216
 400:	0b 49       	mov	r9,	r11	
 402:	13 3f       	jmp	$-472    	;abs 0x22a
 404:	0c 02       	mova	#4,	r12	;r2 As==10
 406:	0a 00       	mova	@r0,	r10	
 408:	00 00       	bra	@r0		
 40a:	01 11       	rra	r1		
 40c:	01 25       	jz	$+516    	;abs 0x610
 40e:	0e 13       	reti			;return from interupt
 410:	0b 03       	mova	#2,	r11	;r3 As==10
 412:	0e 1b 0e 11 	.rpt	#14
				rrax	r14		
 416:	01 12       	push	r1		
 418:	01 10       	rrc	r1		
 41a:	06 00       	mova	@r0,	r6	
 41c:	00 02       	bra	#4		;r2 As==10
 41e:	04 01       	mova	@r1,	r4	
 420:	0b 0b       	mova	@r11,	r11	
 422:	3a 0b 3b 0b 	mova	2875(r11),r10	;0x0b3b(r11)
 426:	01 13       	reti			;return from interupt
 428:	00 00       	bra	@r0		
 42a:	03 28       	jnc	$+8      	;abs 0x432
 42c:	00 03       	bra	#2		;r3 As==10
 42e:	0e 1c       	.word	0x1c0e;	????	
 430:	0d 00       	mova	@r0,	r13	
 432:	00 04       	bra	@r4		
 434:	2e 01 3f 0c 	mova	&0x10c3f,r14	
 438:	03 0e       	.word	0x0e03;	????	Illegal as address instr
 43a:	3a 0b 3b 0b 	mova	2875(r11),r10	;0x0b3b(r11)
 43e:	27 0c 11 01 	mova	&0xc0111,r7	
 442:	12 01       	mova	@r1+,	r2	
 444:	40 0a       	rlam.a	#3,	r0	
 446:	01 13       	reti			;return from interupt
 448:	00 00       	bra	@r0		
 44a:	05 05       	mova	@r5,	r5	
 44c:	00 03       	bra	#2		;r3 As==10
 44e:	0e 3a       	jl	$-994    	;abs 0x6c
 450:	0b 3b       	jl	$-488    	;abs 0x268
 452:	0b 49       	mov	r9,	r11	
 454:	13 02       	.word	0x0213;	????	Illegal as address instr
 456:	0a 00       	mova	@r0,	r10	
 458:	00 06       	bra	@r6		
 45a:	24 00 0b 0b 	mova	&0x00b0b,r4	
 45e:	3e 0b 03 0e 	mova	3587(r11),r14	;0x0e03(r11)
 462:	00 00       	bra	@r0		
 464:	07 2e       	jc	$-1008   	;abs 0x74
 466:	00 3f       	jmp	$-510    	;abs 0x268
 468:	0c 03       	mova	#2,	r12	;r3 As==10
 46a:	0e 3a       	jl	$-994    	;abs 0x88
 46c:	0b 3b       	jl	$-488    	;abs 0x284
 46e:	0b 27       	jz	$-488    	;abs 0x286
 470:	0c 11       	rra	r12		
 472:	01 12       	push	r1		
 474:	01 40       	mov	r0,	r1	
 476:	0a 00       	mova	@r0,	r10	
 478:	00 08       	bra	@r8		
 47a:	2e 01 3f 0c 	mova	&0x10c3f,r14	
 47e:	03 0e       	.word	0x0e03;	????	Illegal as address instr
 480:	3a 0b 3b 0b 	mova	2875(r11),r10	;0x0b3b(r11)
 484:	27 0c 11 01 	mova	&0xc0111,r7	
 488:	12 01       	mova	@r1+,	r2	
 48a:	40 06       	rlam.a	#2,	r0	
 48c:	01 13       	reti			;return from interupt
 48e:	00 00       	bra	@r0		
 490:	09 05       	mova	@r5,	r9	
 492:	00 03       	bra	#2		;r3 As==10
 494:	0e 3a       	jl	$-994    	;abs 0xb2
 496:	0b 3b       	jl	$-488    	;abs 0x2ae
 498:	0b 49       	mov	r9,	r11	
 49a:	13 02       	.word	0x0213;	????	Illegal as address instr
 49c:	06 00       	mova	@r0,	r6	
 49e:	00 0a       	bra	@r10		
 4a0:	2e 01 3f 0c 	mova	&0x10c3f,r14	
 4a4:	03 0e       	.word	0x0e03;	????	Illegal as address instr
 4a6:	3a 0b 3b 0b 	mova	2875(r11),r10	;0x0b3b(r11)
 4aa:	27 0c 49 13 	mova	&0xc1349,r7	
 4ae:	11 01       	mova	@r1+,	r1	
 4b0:	12 01       	mova	@r1+,	r2	
 4b2:	40 06       	rlam.a	#2,	r0	
 4b4:	01 13       	reti			;return from interupt
 4b6:	00 00       	bra	@r0		
 4b8:	0b 34       	jge	$+24     	;abs 0x4d0
 4ba:	00 03       	bra	#2		;r3 As==10
 4bc:	08 3a       	jl	$-1006   	;abs 0xce
 4be:	0b 3b       	jl	$-488    	;abs 0x2d6
 4c0:	0b 49       	mov	r9,	r11	
 4c2:	13 02       	.word	0x0213;	????	Illegal as address instr
 4c4:	06 00       	mova	@r0,	r6	
 4c6:	00 0c       	bra	@r12		
 4c8:	05 00       	mova	@r0,	r5	
 4ca:	03 08       	.word	0x0803;	????	Illegal as address instr
 4cc:	3a 0b 3b 0b 	mova	2875(r11),r10	;0x0b3b(r11)
 4d0:	49 13       	calla	r9		
 4d2:	02 06       	mova	@r6,	r2	
 4d4:	00 00       	bra	@r0		
 4d6:	0d 34       	jge	$+28     	;abs 0x4f2
 4d8:	00 03       	bra	#2		;r3 As==10
 4da:	0e 3a       	jl	$-994    	;abs 0xf8
 4dc:	0b 3b       	jl	$-488    	;abs 0x2f4
 4de:	0b 49       	mov	r9,	r11	
 4e0:	13 02       	.word	0x0213;	????	Illegal as address instr
 4e2:	06 00       	mova	@r0,	r6	
 4e4:	00 0e       	bra	@r14		
 4e6:	0f 00       	mova	@r0,	r15	
 4e8:	0b 0b       	mova	@r11,	r11	
 4ea:	49 13       	calla	r9		
 4ec:	00 00       	bra	@r0		
 4ee:	0f 24       	jz	$+32     	;abs 0x50e
 4f0:	00 0b       	bra	@r11		
 4f2:	0b 3e       	jmp	$-1000   	;abs 0x10a
 4f4:	0b 03       	mova	#2,	r11	;r3 As==10
 4f6:	08 00       	mova	@r0,	r8	
 4f8:	00 10       	rrc	r0		
 4fa:	2e 01 3f 0c 	mova	&0x10c3f,r14	
 4fe:	03 0e       	.word	0x0e03;	????	Illegal as address instr
 500:	3a 0b 3b 05 	mova	1339(r11),r10	;0x053b(r11)
 504:	27 0c 49 13 	mova	&0xc1349,r7	
 508:	11 01       	mova	@r1+,	r1	
 50a:	12 01       	mova	@r1+,	r2	
 50c:	40 06       	rlam.a	#2,	r0	
 50e:	01 13       	reti			;return from interupt
 510:	00 00       	bra	@r0		
 512:	11 05       	mova	@r5+,	r1	
 514:	00 03       	bra	#2		;r3 As==10
 516:	08 3a       	jl	$-1006   	;abs 0x128
 518:	0b 3b       	jl	$-488    	;abs 0x330
 51a:	05 49       	mov	r9,	r5	
 51c:	13 02       	.word	0x0213;	????	Illegal as address instr
 51e:	06 00       	mova	@r0,	r6	
 520:	00 12       	push	r0		
 522:	34 00 03 08 	mova	0x0803,	r4	;PC rel. 0x00d27
 526:	3a 0b 3b 05 	mova	1339(r11),r10	;0x053b(r11)
 52a:	49 13       	calla	r9		
 52c:	02 06       	mova	@r6,	r2	
 52e:	00 00       	bra	@r0		
 530:	13 34       	jge	$+40     	;abs 0x558
 532:	00 03       	bra	#2		;r3 As==10
 534:	0e 3a       	jl	$-994    	;abs 0x152
 536:	0b 3b       	jl	$-488    	;abs 0x34e
 538:	05 49       	mov	r9,	r5	
 53a:	13 02       	.word	0x0213;	????	Illegal as address instr
 53c:	06 00       	mova	@r0,	r6	
 53e:	00 14       	pushm.a	#1,	r0	
 540:	34 00 03 0e 	mova	0x0e03,	r4	;PC rel. 0x01345
 544:	3a 0b 3b 05 	mova	1339(r11),r10	;0x053b(r11)
 548:	87 40 0e 49 	mov	r0,	18702(r7);0x490e(r7)
 54c:	13 3f       	jmp	$-472    	;abs 0x374
 54e:	0c 3c       	jmp	$+26     	;abs 0x568
 550:	0c 00       	mova	@r0,	r12	
 552:	00 15       	pushm	#1,	r0	
 554:	26 00 49 13 	mova	&0x01349,r6	
 558:	00 00       	bra	@r0		
 55a:	16 35       	jge	$+558    	;abs 0x788
 55c:	00 49       	br	r9		
 55e:	13 00       	.word	0x0013;	????	Illegal as address instr
 560:	00 17       	popm	#1,	r0	
 562:	34 00 03 0e 	mova	0x0e03,	r4	;PC rel. 0x01367
 566:	3a 0b 3b 0b 	mova	2875(r11),r10	;0x0b3b(r11)
 56a:	49 13       	calla	r9		
 56c:	3f 0c 3c 0c 	mova	3132(r12),r15	;0x0c3c(r12)
 570:	00 00       	bra	@r0		
 572:	18 34       	jge	$+50     	;abs 0x5a4
 574:	00 03       	bra	#2		;r3 As==10
 576:	0e 3a       	jl	$-994    	;abs 0x194
 578:	0b 3b       	jl	$-488    	;abs 0x390
 57a:	0b 49       	mov	r9,	r11	
 57c:	13 3f       	jmp	$-472    	;abs 0x3a4
 57e:	0c 02       	mova	#4,	r12	;r2 As==10
 580:	0a 00       	mova	@r0,	r10	
 582:	00 00       	bra	@r0		
 584:	01 11       	rra	r1		
 586:	01 25       	jz	$+516    	;abs 0x78a
 588:	0e 13       	reti			;return from interupt
 58a:	0b 03       	mova	#2,	r11	;r3 As==10
 58c:	0e 1b 0e 11 	.rpt	#14
				rrax	r14		
 590:	01 12       	push	r1		
 592:	01 10       	rrc	r1		
 594:	06 00       	mova	@r0,	r6	
 596:	00 02       	bra	#4		;r2 As==10
 598:	24 00 0b 0b 	mova	&0x00b0b,r4	
 59c:	3e 0b 03 0e 	mova	3587(r11),r14	;0x0e03(r11)
 5a0:	00 00       	bra	@r0		
 5a2:	03 24       	jz	$+8      	;abs 0x5aa
 5a4:	00 0b       	bra	@r11		
 5a6:	0b 3e       	jmp	$-1000   	;abs 0x1be
 5a8:	0b 03       	mova	#2,	r11	;r3 As==10
 5aa:	08 00       	mova	@r0,	r8	
 5ac:	00 04       	bra	@r4		
 5ae:	0f 00       	mova	@r0,	r15	
 5b0:	0b 0b       	mova	@r11,	r11	
 5b2:	49 13       	calla	r9		
 5b4:	00 00       	bra	@r0		
 5b6:	05 26       	jz	$-1012   	;abs 0x1c2
 5b8:	00 49       	br	r9		
 5ba:	13 00       	.word	0x0013;	????	Illegal as address instr
 5bc:	00 06       	bra	@r6		
 5be:	16 00       	mova	#0x00000,r6	
 5c0:	03 0e       	.word	0x0e03;	????	Illegal as address instr
 5c2:	3a 0b 3b 0b 	mova	2875(r11),r10	;0x0b3b(r11)
 5c6:	49 13       	calla	r9		
 5c8:	00 00       	bra	@r0		
 5ca:	07 0f       	mova	@r15,	r7	
 5cc:	00 0b       	bra	@r11		
 5ce:	0b 03       	mova	#2,	r11	;r3 As==10
 5d0:	0e 00       	mova	@r0,	r14	
 5d2:	00 08       	bra	@r8		
 5d4:	2e 01 3f 0c 	mova	&0x10c3f,r14	
 5d8:	03 0e       	.word	0x0e03;	????	Illegal as address instr
 5da:	3a 0b 3b 0b 	mova	2875(r11),r10	;0x0b3b(r11)
 5de:	27 0c 49 13 	mova	&0xc1349,r7	
 5e2:	11 01       	mova	@r1+,	r1	
 5e4:	12 01       	mova	@r1+,	r2	
 5e6:	40 0a       	rlam.a	#3,	r0	
 5e8:	01 13       	reti			;return from interupt
 5ea:	00 00       	bra	@r0		
 5ec:	09 05       	mova	@r5,	r9	
 5ee:	00 03       	bra	#2		;r3 As==10
 5f0:	08 3a       	jl	$-1006   	;abs 0x202
 5f2:	0b 3b       	jl	$-488    	;abs 0x40a
 5f4:	0b 49       	mov	r9,	r11	
 5f6:	13 02       	.word	0x0213;	????	Illegal as address instr
 5f8:	0a 00       	mova	@r0,	r10	
 5fa:	00 0a       	bra	@r10		
 5fc:	18 00       	mova	#0x00000,r8	
 5fe:	00 00       	bra	@r0		
 600:	0b 34       	jge	$+24     	;abs 0x618
 602:	00 03       	bra	#2		;r3 As==10
 604:	0e 3a       	jl	$-994    	;abs 0x222
 606:	0b 3b       	jl	$-488    	;abs 0x41e
 608:	0b 49       	mov	r9,	r11	
 60a:	13 02       	.word	0x0213;	????	Illegal as address instr
 60c:	0a 00       	mova	@r0,	r10	
 60e:	00 0c       	bra	@r12		
 610:	34 00 03 08 	mova	0x0803,	r4	;PC rel. 0x00e15
 614:	3a 0b 3b 0b 	mova	2875(r11),r10	;0x0b3b(r11)
 618:	49 13       	calla	r9		
 61a:	00 00       	bra	@r0		
 61c:	0d 2e       	jc	$-996    	;abs 0x238
 61e:	01 3f       	jmp	$-508    	;abs 0x422
 620:	0c 03       	mova	#2,	r12	;r3 As==10
 622:	0e 3a       	jl	$-994    	;abs 0x240
 624:	0b 3b       	jl	$-488    	;abs 0x43c
 626:	0b 27       	jz	$-488    	;abs 0x43e
 628:	0c 49       	mov	r9,	r12	
 62a:	13 11       	rra	#1		;r3 As==01
 62c:	01 12       	push	r1		
 62e:	01 40       	mov	r0,	r1	
 630:	0a 00       	mova	@r0,	r10	
 632:	00 0e       	bra	@r14		
 634:	05 00       	mova	@r0,	r5	
 636:	03 08       	.word	0x0803;	????	Illegal as address instr
 638:	3a 0b 3b 0b 	mova	2875(r11),r10	;0x0b3b(r11)
 63c:	49 13       	calla	r9		
 63e:	02 06       	mova	@r6,	r2	
 640:	00 00       	bra	@r0		
 642:	0f 05       	mova	@r5,	r15	
 644:	00 03       	bra	#2		;r3 As==10
 646:	0e 3a       	jl	$-994    	;abs 0x264
 648:	0b 3b       	jl	$-488    	;abs 0x460
 64a:	0b 49       	mov	r9,	r11	
 64c:	13 02       	.word	0x0213;	????	Illegal as address instr
 64e:	06 00       	mova	@r0,	r6	
 650:	00 00       	bra	@r0		
 652:	01 11       	rra	r1		
 654:	01 25       	jz	$+516    	;abs 0x858
 656:	0e 13       	reti			;return from interupt
 658:	0b 03       	mova	#2,	r11	;r3 As==10
 65a:	0e 1b 0e 11 	.rpt	#14
				rrax	r14		
 65e:	01 12       	push	r1		
 660:	01 10       	rrc	r1		
 662:	06 00       	mova	@r0,	r6	
 664:	00 02       	bra	#4		;r2 As==10
 666:	24 00 0b 0b 	mova	&0x00b0b,r4	
 66a:	3e 0b 03 0e 	mova	3587(r11),r14	;0x0e03(r11)
 66e:	00 00       	bra	@r0		
 670:	03 24       	jz	$+8      	;abs 0x678
 672:	00 0b       	bra	@r11		
 674:	0b 3e       	jmp	$-1000   	;abs 0x28c
 676:	0b 03       	mova	#2,	r11	;r3 As==10
 678:	08 00       	mova	@r0,	r8	
 67a:	00 04       	bra	@r4		
 67c:	16 00       	mova	#0x00000,r6	
 67e:	03 0e       	.word	0x0e03;	????	Illegal as address instr
 680:	3a 0b 3b 0b 	mova	2875(r11),r10	;0x0b3b(r11)
 684:	49 13       	calla	r9		
 686:	00 00       	bra	@r0		
 688:	05 0f       	mova	@r15,	r5	
 68a:	00 0b       	bra	@r11		
 68c:	0b 49       	mov	r9,	r11	
 68e:	13 00       	.word	0x0013;	????	Illegal as address instr
 690:	00 06       	bra	@r6		
 692:	26 00 49 13 	mova	&0x01349,r6	
 696:	00 00       	bra	@r0		
 698:	07 0f       	mova	@r15,	r7	
 69a:	00 0b       	bra	@r11		
 69c:	0b 03       	mova	#2,	r11	;r3 As==10
 69e:	0e 00       	mova	@r0,	r14	
 6a0:	00 08       	bra	@r8		
 6a2:	13 01       	.word	0x0113;	????	Illegal as address instr
 6a4:	0b 0b       	mova	@r11,	r11	
 6a6:	3a 0b 3b 0b 	mova	2875(r11),r10	;0x0b3b(r11)
 6aa:	01 13       	reti			;return from interupt
 6ac:	00 00       	bra	@r0		
 6ae:	09 0d       	mova	@r13,	r9	
 6b0:	00 03       	bra	#2		;r3 As==10
 6b2:	0e 3a       	jl	$-994    	;abs 0x2d0
 6b4:	0b 3b       	jl	$-488    	;abs 0x4cc
 6b6:	0b 49       	mov	r9,	r11	
 6b8:	13 0b       	.word	0x0b13;	????	Illegal as address instr
 6ba:	0b 0d       	mova	@r13,	r11	
 6bc:	0b 0c       	mova	@r12,	r11	
 6be:	0b 38       	jl	$+24     	;abs 0x6d6
 6c0:	0a 00       	mova	@r0,	r10	
 6c2:	00 0a       	bra	@r10		
 6c4:	0d 00       	mova	@r0,	r13	
 6c6:	03 0e       	.word	0x0e03;	????	Illegal as address instr
 6c8:	3a 0b 3b 0b 	mova	2875(r11),r10	;0x0b3b(r11)
 6cc:	49 13       	calla	r9		
 6ce:	38 0a 00 00 	mova	0(r10),	r8	;0x0000(r10)
 6d2:	0b 2e       	jc	$-1000   	;abs 0x2ea
 6d4:	01 03       	mova	#2,	r1	;r3 As==10
 6d6:	0e 3a       	jl	$-994    	;abs 0x2f4
 6d8:	0b 3b       	jl	$-488    	;abs 0x4f0
 6da:	0b 27       	jz	$-488    	;abs 0x4f2
 6dc:	0c 49       	mov	r9,	r12	
 6de:	13 20       	jnz	$+40     	;abs 0x706
 6e0:	0b 01       	mova	@r1,	r11	
 6e2:	13 00       	.word	0x0013;	????	Illegal as address instr
 6e4:	00 0c       	bra	@r12		
 6e6:	05 00       	mova	@r0,	r5	
 6e8:	03 0e       	.word	0x0e03;	????	Illegal as address instr
 6ea:	3a 0b 3b 0b 	mova	2875(r11),r10	;0x0b3b(r11)
 6ee:	49 13       	calla	r9		
 6f0:	00 00       	bra	@r0		
 6f2:	0d 34       	jge	$+28     	;abs 0x70e
 6f4:	00 03       	bra	#2		;r3 As==10
 6f6:	08 3a       	jl	$-1006   	;abs 0x308
 6f8:	0b 3b       	jl	$-488    	;abs 0x510
 6fa:	0b 49       	mov	r9,	r11	
 6fc:	13 00       	.word	0x0013;	????	Illegal as address instr
 6fe:	00 0e       	bra	@r14		
 700:	2e 01 03 0e 	mova	&0x10e03,r14	
 704:	3a 0b 3b 0b 	mova	2875(r11),r10	;0x0b3b(r11)
 708:	27 0c 49 13 	mova	&0xc1349,r7	
 70c:	11 01       	mova	@r1+,	r1	
 70e:	12 01       	mova	@r1+,	r2	
 710:	40 06       	rlam.a	#2,	r0	
 712:	01 13       	reti			;return from interupt
 714:	00 00       	bra	@r0		
 716:	0f 05       	mova	@r5,	r15	
 718:	00 03       	bra	#2		;r3 As==10
 71a:	0e 3a       	jl	$-994    	;abs 0x338
 71c:	0b 3b       	jl	$-488    	;abs 0x534
 71e:	0b 49       	mov	r9,	r11	
 720:	13 02       	.word	0x0213;	????	Illegal as address instr
 722:	06 00       	mova	@r0,	r6	
 724:	00 10       	rrc	r0		
 726:	34 00 03 0e 	mova	0x0e03,	r4	;PC rel. 0x0152b
 72a:	3a 0b 3b 0b 	mova	2875(r11),r10	;0x0b3b(r11)
 72e:	49 13       	calla	r9		
 730:	02 06       	mova	@r6,	r2	
 732:	00 00       	bra	@r0		
 734:	11 34       	jge	$+36     	;abs 0x758
 736:	00 03       	bra	#2		;r3 As==10
 738:	0e 3a       	jl	$-994    	;abs 0x356
 73a:	0b 3b       	jl	$-488    	;abs 0x552
 73c:	0b 49       	mov	r9,	r11	
 73e:	13 02       	.word	0x0213;	????	Illegal as address instr
 740:	0a 00       	mova	@r0,	r10	
 742:	00 12       	push	r0		
 744:	1d 01       	mova	@r1+,	r13	
 746:	31 13       	reti			;return from interupt
 748:	11 01       	mova	@r1+,	r1	
 74a:	12 01       	mova	@r1+,	r2	
 74c:	58 0b       	rrum	#3,	r8	
 74e:	59 0b       	rrum	#3,	r9	
 750:	01 13       	reti			;return from interupt
 752:	00 00       	bra	@r0		
 754:	13 05       	.word	0x0513;	????	Illegal as address instr
 756:	00 31       	jn	$+514    	;abs 0x958
 758:	13 00       	.word	0x0013;	????	Illegal as address instr
 75a:	00 14       	pushm.a	#1,	r0	
 75c:	05 00       	mova	@r0,	r5	
 75e:	31 13       	reti			;return from interupt
 760:	02 06       	mova	@r6,	r2	
 762:	00 00       	bra	@r0		
 764:	15 0b       	mova	@r11+,	r5	
 766:	01 11       	rra	r1		
 768:	01 12       	push	r1		
 76a:	01 00       	mova	@r0,	r1	
 76c:	00 16       	popm.a	#1,	r0	
 76e:	34 00 31 13 	mova	0x1331,	r4	;PC rel. 0x01aa1
 772:	02 06       	mova	@r6,	r2	
 774:	00 00       	bra	@r0		
 776:	17 0b       	mova	@r11+,	r7	
 778:	01 55       	add	r5,	r1	
 77a:	06 00       	mova	@r0,	r6	
 77c:	00 18       	.word	0x1800;	????	
 77e:	34 00 03 08 	mova	0x0803,	r4	;PC rel. 0x00f83
 782:	3a 0b 3b 0b 	mova	2875(r11),r10	;0x0b3b(r11)
 786:	49 13       	calla	r9		
 788:	02 06       	mova	@r6,	r2	
 78a:	00 00       	bra	@r0		
 78c:	19 15       	pushm	#2,	r9	
 78e:	01 27       	jz	$-508    	;abs 0x592
 790:	0c 49       	mov	r9,	r12	
 792:	13 01       	.word	0x0113;	????	Illegal as address instr
 794:	13 00       	.word	0x0013;	????	Illegal as address instr
 796:	00 1a       	.word	0x1a00;	????	
 798:	05 00       	mova	@r0,	r5	
 79a:	49 13       	calla	r9		
 79c:	00 00       	bra	@r0		
 79e:	1b 01       	mova	@r1+,	r11	
 7a0:	01 49       	mov	r9,	r1	
 7a2:	13 01       	.word	0x0113;	????	Illegal as address instr
 7a4:	13 00       	.word	0x0013;	????	Illegal as address instr
 7a6:	00 1c       	.word	0x1c00;	????	
 7a8:	21 00 49 13 	mova	&0x01349,r1	
 7ac:	2f 0b 00 00 	mova	&0xb0000,r15	
 7b0:	1d 2e       	jc	$-964    	;abs 0x3ec
 7b2:	01 3f       	jmp	$-508    	;abs 0x5b6
 7b4:	0c 03       	mova	#2,	r12	;r3 As==10
 7b6:	0e 3a       	jl	$-994    	;abs 0x3d4
 7b8:	0b 3b       	jl	$-488    	;abs 0x5d0
 7ba:	0b 27       	jz	$-488    	;abs 0x5d2
 7bc:	0c 49       	mov	r9,	r12	
 7be:	13 11       	rra	#1		;r3 As==01
 7c0:	01 12       	push	r1		
 7c2:	01 40       	mov	r0,	r1	
 7c4:	06 01       	mova	@r1,	r6	
 7c6:	13 00       	.word	0x0013;	????	Illegal as address instr
 7c8:	00 1e       	.word	0x1e00;	????	
 7ca:	04 01       	mova	@r1,	r4	
 7cc:	0b 0b       	mova	@r11,	r11	
 7ce:	3a 0b 3b 0b 	mova	2875(r11),r10	;0x0b3b(r11)
 7d2:	01 13       	reti			;return from interupt
 7d4:	00 00       	bra	@r0		
 7d6:	1f 28       	jnc	$+64     	;abs 0x816
 7d8:	00 03       	bra	#2		;r3 As==10
 7da:	0e 1c       	.word	0x1c0e;	????	
 7dc:	0d 00       	mova	@r0,	r13	
 7de:	00 20       	jnz	$+2      	;abs 0x7e0
 7e0:	0a 00       	mova	@r0,	r10	
 7e2:	03 0e       	.word	0x0e03;	????	Illegal as address instr
 7e4:	3a 0b 3b 05 	mova	1339(r11),r10	;0x053b(r11)
 7e8:	11 01       	mova	@r1+,	r1	
 7ea:	00 00       	bra	@r0		
 7ec:	21 0b 01 11 	mova	&0xb1101,r1	
 7f0:	01 12       	push	r1		
 7f2:	01 01       	mova	@r1,	r1	
 7f4:	13 00       	.word	0x0013;	????	Illegal as address instr
 7f6:	00 22       	jnz	$-1022   	;abs 0x3f8
 7f8:	34 00 03 08 	mova	0x0803,	r4	;PC rel. 0x00ffd
 7fc:	3a 0b 3b 05 	mova	1339(r11),r10	;0x053b(r11)
 800:	49 13       	calla	r9		
 802:	02 06       	mova	@r6,	r2	
 804:	00 00       	bra	@r0		
 806:	23 34       	jge	$+72     	;abs 0x84e
 808:	00 03       	bra	#2		;r3 As==10
 80a:	0e 3a       	jl	$-994    	;abs 0x428
 80c:	0b 3b       	jl	$-488    	;abs 0x624
 80e:	05 49       	mov	r9,	r5	
 810:	13 02       	.word	0x0213;	????	Illegal as address instr
 812:	06 00       	mova	@r0,	r6	
 814:	00 24       	jz	$+2      	;abs 0x816
 816:	01 01       	mova	@r1,	r1	
 818:	49 13       	calla	r9		
 81a:	00 00       	bra	@r0		
	...

Disassembly of section .debug_line:

00000000 <.debug_line>:
       0:	51 01       	rram	#1,	r1	
       2:	00 00       	bra	@r0		
       4:	02 00       	mova	@r0,	r2	
       6:	79 00 00 00 	mova	r0,	0(r9)	;0x0000(r9)
       a:	01 01       	mova	@r1,	r1	
       c:	f6 f5 0a 00 	and.b	@r5+,	10(r6)	;0x000a(r6)
      10:	01 01       	mova	@r1,	r1	
      12:	01 01       	mova	@r1,	r1	
      14:	00 00       	bra	@r0		
      16:	00 01       	bra	@r1		
      18:	63 3a       	jl	$-824    	;abs 0xfce0
      1a:	5c 6d 73 70 	addc.b	28787(r13),r12	;0x7073(r13)
      1e:	67 63       	addc.b	#2,	r7	;r3 As==10
      20:	63 5c       	.word	0x5c63;	????	Illegal as 2-op instr
      22:	62 69       	addc.b	@r9,	r2	
      24:	6e 5c       	add.b	@r12,	r14	
      26:	2e 2e       	jc	$-930    	;abs 0xfc84
      28:	2f 6c       	addc	@r12,	r15	
      2a:	69 62       	addc.b	#4,	r9	;r2 As==10
      2c:	2f 67       	addc	@r7,	r15	
      2e:	63 63       	.word	0x6363;	????	Illegal as 2-op instr
      30:	2f 6d       	addc	@r13,	r15	
      32:	73 70       	.word	0x7073;	????	Illegal as 2-op instr
      34:	34 33       	jn	$-406    	;abs 0xfe9e
      36:	30 2f       	jc	$-414    	;abs 0xfe98
      38:	34 2e       	jc	$-918    	;abs 0xfca2
      3a:	35 2e       	jc	$-916    	;abs 0xfca6
      3c:	33 2f       	jc	$-408    	;abs 0xfea4
      3e:	2e 2e       	jc	$-930    	;abs 0xfc9c
      40:	2f 2e       	jc	$-928    	;abs 0xfca0
      42:	2e 2f       	jc	$-418    	;abs 0xfea0
      44:	2e 2e       	jc	$-930    	;abs 0xfca2
      46:	2f 2e       	jc	$-928    	;abs 0xfca6
      48:	2e 2f       	jc	$-418    	;abs 0xfea6
      4a:	6d 73       	subc.b	#2,	r13	;r3 As==10
      4c:	70 34       	jge	$+226    	;abs 0x12e
      4e:	33 30       	jn	$+104    	;abs 0xb6
      50:	2f 69       	addc	@r9,	r15	
      52:	6e 63       	addc.b	#2,	r14	;r3 As==10
      54:	6c 75       	subc.b	@r5,	r12	
      56:	64 65       	addc.b	@r5,	r4	
      58:	00 00       	bra	@r0		
      5a:	6d 61       	addc.b	@r1,	r13	
      5c:	69 6e       	addc.b	@r14,	r9	
      5e:	2e 63       	addc	#2,	r14	;r3 As==10
      60:	00 00       	bra	@r0		
      62:	00 00       	bra	@r0		
      64:	6d 73       	subc.b	#2,	r13	;r3 As==10
      66:	70 34       	jge	$+226    	;abs 0x148
      68:	33 30       	jn	$+104    	;abs 0xd0
      6a:	66 32       	jn	$-818    	;abs 0xfd38
      6c:	36 31       	jn	$+622    	;abs 0x2da
      6e:	38 2e       	jc	$-910    	;abs 0xfce0
      70:	68 00 01 00 	mova	r0,	&0x80001
      74:	00 6c       	addc	r12,	r0	
      76:	63 64       	.word	0x6463;	????	Illegal as 2-op instr
      78:	36 31       	jn	$+622    	;abs 0x2e6
      7a:	30 30       	jn	$+98     	;abs 0xdc
      7c:	2e 68       	addc	@r8,	r14	
      7e:	00 00       	bra	@r0		
      80:	00 00       	bra	@r0		
      82:	00 00       	bra	@r0		
      84:	03 02       	.word	0x0203;	????	Illegal as address instr
      86:	80 32       	jn	$-766    	;abs 0xfd88
      88:	00 01       	bra	@r1		
      8a:	01 00       	mova	@r0,	r1	
      8c:	03 02       	.word	0x0203;	????	Illegal as address instr
      8e:	38 31       	jn	$+626    	;abs 0x300
      90:	1e 00       	mova	#0x00000,r14	
      92:	03 02       	.word	0x0203;	????	Illegal as address instr
      94:	3a 31       	jn	$+630    	;abs 0x30a
      96:	18 00       	mova	#0x00000,r8	
      98:	03 02       	.word	0x0203;	????	Illegal as address instr
      9a:	40 31       	jn	$+642    	;abs 0x31c
      9c:	16 00       	mova	#0x00000,r6	
      9e:	03 02       	.word	0x0203;	????	Illegal as address instr
      a0:	44 31       	jn	$+650    	;abs 0x32a
      a2:	15 00       	mova	#0x00000,r5	
      a4:	03 02       	.word	0x0203;	????	Illegal as address instr
      a6:	4a 31       	jn	$+662    	;abs 0x33c
      a8:	15 00       	mova	#0x00000,r5	
      aa:	03 02       	.word	0x0203;	????	Illegal as address instr
      ac:	50 31       	jn	$+674    	;abs 0x34e
      ae:	15 00       	mova	#0x00000,r5	
      b0:	03 02       	.word	0x0203;	????	Illegal as address instr
      b2:	56 31       	jn	$+686    	;abs 0x360
      b4:	16 00       	mova	#0x00000,r6	
      b6:	03 02       	.word	0x0203;	????	Illegal as address instr
      b8:	5e 31       	jn	$+702    	;abs 0x376
      ba:	16 00       	mova	#0x00000,r6	
      bc:	03 02       	.word	0x0203;	????	Illegal as address instr
      be:	62 31       	jn	$+710    	;abs 0x384
      c0:	15 00       	mova	#0x00000,r5	
      c2:	03 02       	.word	0x0203;	????	Illegal as address instr
      c4:	66 31       	jn	$+718    	;abs 0x392
      c6:	16 00       	mova	#0x00000,r6	
      c8:	03 02       	.word	0x0203;	????	Illegal as address instr
      ca:	6e 31       	jn	$+734    	;abs 0x3a8
      cc:	15 00       	mova	#0x00000,r5	
      ce:	03 02       	.word	0x0203;	????	Illegal as address instr
      d0:	76 31       	jn	$+750    	;abs 0x3be
      d2:	16 00       	mova	#0x00000,r6	
      d4:	03 02       	.word	0x0203;	????	Illegal as address instr
      d6:	7a 31       	jn	$+758    	;abs 0x3cc
      d8:	15 00       	mova	#0x00000,r5	
      da:	03 02       	.word	0x0203;	????	Illegal as address instr
      dc:	84 31       	jn	$+778    	;abs 0x3e6
      de:	18 00       	mova	#0x00000,r8	
      e0:	03 02       	.word	0x0203;	????	Illegal as address instr
      e2:	8c 31       	jn	$+794    	;abs 0x3fc
      e4:	15 00       	mova	#0x00000,r5	
      e6:	03 02       	.word	0x0203;	????	Illegal as address instr
      e8:	94 31       	jn	$+810    	;abs 0x412
      ea:	16 00       	mova	#0x00000,r6	
      ec:	03 02       	.word	0x0203;	????	Illegal as address instr
      ee:	a0 31       	jn	$+834    	;abs 0x430
      f0:	15 00       	mova	#0x00000,r5	
      f2:	03 02       	.word	0x0203;	????	Illegal as address instr
      f4:	a6 31       	jn	$+846    	;abs 0x442
      f6:	15 00       	mova	#0x00000,r5	
      f8:	03 02       	.word	0x0203;	????	Illegal as address instr
      fa:	b0 31       	jn	$+866    	;abs 0x45c
      fc:	15 00       	mova	#0x00000,r5	
      fe:	03 02       	.word	0x0203;	????	Illegal as address instr
     100:	c4 31       	jn	$+906    	;abs 0x48a
     102:	17 00       	mova	#0x00000,r7	
     104:	03 02       	.word	0x0203;	????	Illegal as address instr
     106:	ce 31       	jn	$+926    	;abs 0x4a4
     108:	15 00       	mova	#0x00000,r5	
     10a:	03 02       	.word	0x0203;	????	Illegal as address instr
     10c:	d6 31       	jn	$+942    	;abs 0x4ba
     10e:	15 00       	mova	#0x00000,r5	
     110:	03 02       	.word	0x0203;	????	Illegal as address instr
     112:	e0 31       	jn	$+962    	;abs 0x4d4
     114:	15 00       	mova	#0x00000,r5	
     116:	03 02       	.word	0x0203;	????	Illegal as address instr
     118:	e8 31       	jn	$+978    	;abs 0x4ea
     11a:	15 00       	mova	#0x00000,r5	
     11c:	03 02       	.word	0x0203;	????	Illegal as address instr
     11e:	f0 31       	jn	$+994    	;abs 0x500
     120:	15 00       	mova	#0x00000,r5	
     122:	03 02       	.word	0x0203;	????	Illegal as address instr
     124:	f8 31       	jn	$+1010   	;abs 0x516
     126:	16 00       	mova	#0x00000,r6	
     128:	03 02       	.word	0x0203;	????	Illegal as address instr
     12a:	00 32       	jn	$-1022   	;abs 0xfd2c
     12c:	15 00       	mova	#0x00000,r5	
     12e:	03 02       	.word	0x0203;	????	Illegal as address instr
     130:	12 32       	jn	$-986    	;abs 0xfd56
     132:	15 00       	mova	#0x00000,r5	
     134:	03 02       	.word	0x0203;	????	Illegal as address instr
     136:	1a 32       	jn	$-970    	;abs 0xfd6c
     138:	15 00       	mova	#0x00000,r5	
     13a:	03 02       	.word	0x0203;	????	Illegal as address instr
     13c:	2c 32       	jn	$-934    	;abs 0xfd96
     13e:	15 00       	mova	#0x00000,r5	
     140:	03 02       	.word	0x0203;	????	Illegal as address instr
     142:	34 32       	jn	$-918    	;abs 0xfdac
     144:	15 00       	mova	#0x00000,r5	
     146:	03 02       	.word	0x0203;	????	Illegal as address instr
     148:	48 32       	jn	$-878    	;abs 0xfdda
     14a:	03 69       	.word	0x6903;	????	Illegal as 2-op instr
     14c:	01 00       	mova	@r0,	r1	
     14e:	03 02       	.word	0x0203;	????	Illegal as address instr
     150:	54 32       	jn	$-854    	;abs 0xfdfa
     152:	00 01       	bra	@r1		
     154:	01 1e       	.word	0x1e01;	????	
     156:	00 00       	bra	@r0		
     158:	00 02       	bra	#4		;r2 As==10
     15a:	00 10       	rrc	r0		
     15c:	00 00       	bra	@r0		
     15e:	00 01       	bra	@r1		
     160:	01 f6       	and	r6,	r1	
     162:	f5 0a       	suba	r10,	r5	
     164:	00 01       	bra	@r1		
     166:	01 01       	mova	@r1,	r1	
     168:	01 00       	mova	@r0,	r1	
     16a:	00 00       	bra	@r0		
     16c:	01 00       	mova	@r0,	r1	
     16e:	00 00       	bra	@r0		
     170:	03 02       	.word	0x0203;	????	Illegal as address instr
     172:	80 32       	jn	$-766    	;abs 0xfe74
     174:	00 01       	bra	@r1		
     176:	01 a0       	dadd	r0,	r1	
     178:	00 00       	bra	@r0		
     17a:	00 02       	bra	#4		;r2 As==10
     17c:	00 26       	jz	$-1022   	;abs 0xfd7e
     17e:	00 00       	bra	@r0		
     180:	00 01       	bra	@r1		
     182:	01 f6       	and	r6,	r1	
     184:	f5 0a       	suba	r10,	r5	
     186:	00 01       	bra	@r1		
     188:	01 01       	mova	@r1,	r1	
     18a:	01 00       	mova	@r0,	r1	
     18c:	00 00       	bra	@r0		
     18e:	01 00       	mova	@r0,	r1	
     190:	64 65       	addc.b	@r5,	r4	
     192:	6c 61       	addc.b	@r1,	r12	
     194:	79 2e       	jc	$-780    	;abs 0xfe88
     196:	63 00 00 00 	mova	r0,	&0x30000
     19a:	00 64       	addc	r4,	r0	
     19c:	65 6c       	addc.b	@r12,	r5	
     19e:	61 79       	subc.b	@r9,	r1	
     1a0:	2e 68       	addc	@r8,	r14	
     1a2:	00 00       	bra	@r0		
     1a4:	00 00       	bra	@r0		
     1a6:	00 00       	bra	@r0		
     1a8:	03 02       	.word	0x0203;	????	Illegal as address instr
     1aa:	80 32       	jn	$-766    	;abs 0xfeac
     1ac:	25 00 03 02 	mova	&0x00203,r5	
     1b0:	80 32       	jn	$-766    	;abs 0xfeb2
     1b2:	19 00       	mova	#0x00000,r9	
     1b4:	03 02       	.word	0x0203;	????	Illegal as address instr
     1b6:	82 32       	jn	$-762    	;abs 0xfebc
     1b8:	17 00       	mova	#0x00000,r7	
     1ba:	03 02       	.word	0x0203;	????	Illegal as address instr
     1bc:	82 32       	jn	$-762    	;abs 0xfec2
     1be:	19 00       	mova	#0x00000,r9	
     1c0:	03 02       	.word	0x0203;	????	Illegal as address instr
     1c2:	84 32       	jn	$-758    	;abs 0xfecc
     1c4:	19 00       	mova	#0x00000,r9	
     1c6:	03 02       	.word	0x0203;	????	Illegal as address instr
     1c8:	84 32       	jn	$-758    	;abs 0xfed2
     1ca:	17 00       	mova	#0x00000,r7	
     1cc:	03 02       	.word	0x0203;	????	Illegal as address instr
     1ce:	88 32       	jn	$-750    	;abs 0xfee0
     1d0:	01 00       	mova	@r0,	r1	
     1d2:	03 02       	.word	0x0203;	????	Illegal as address instr
     1d4:	94 32       	jn	$-726    	;abs 0xfefe
     1d6:	1a 00       	mova	#0x00000,r10	
     1d8:	03 02       	.word	0x0203;	????	Illegal as address instr
     1da:	9a 32       	jn	$-714    	;abs 0xff10
     1dc:	17 00       	mova	#0x00000,r7	
     1de:	03 02       	.word	0x0203;	????	Illegal as address instr
     1e0:	9e 32       	jn	$-706    	;abs 0xff1e
     1e2:	01 00       	mova	@r0,	r1	
     1e4:	03 02       	.word	0x0203;	????	Illegal as address instr
     1e6:	ae 32       	jn	$-674    	;abs 0xff44
     1e8:	15 00       	mova	#0x00000,r5	
     1ea:	03 02       	.word	0x0203;	????	Illegal as address instr
     1ec:	b4 32       	jn	$-662    	;abs 0xff56
     1ee:	16 00       	mova	#0x00000,r6	
     1f0:	03 02       	.word	0x0203;	????	Illegal as address instr
     1f2:	b4 32       	jn	$-662    	;abs 0xff5c
     1f4:	15 00       	mova	#0x00000,r5	
     1f6:	03 02       	.word	0x0203;	????	Illegal as address instr
     1f8:	ba 32       	jn	$-650    	;abs 0xff6e
     1fa:	15 00       	mova	#0x00000,r5	
     1fc:	03 02       	.word	0x0203;	????	Illegal as address instr
     1fe:	bc 32       	jn	$-646    	;abs 0xff78
     200:	16 00       	mova	#0x00000,r6	
     202:	03 02       	.word	0x0203;	????	Illegal as address instr
     204:	bc 32       	jn	$-646    	;abs 0xff7e
     206:	15 00       	mova	#0x00000,r5	
     208:	03 02       	.word	0x0203;	????	Illegal as address instr
     20a:	c0 32       	jn	$-638    	;abs 0xff8c
     20c:	15 00       	mova	#0x00000,r5	
     20e:	03 02       	.word	0x0203;	????	Illegal as address instr
     210:	ca 32       	jn	$-618    	;abs 0xffa6
     212:	17 00       	mova	#0x00000,r7	
     214:	03 02       	.word	0x0203;	????	Illegal as address instr
     216:	cc 32       	jn	$-614    	;abs 0xffb0
     218:	00 01       	bra	@r1		
     21a:	01 9e       	cmp	r14,	r1	
     21c:	06 00       	mova	@r0,	r6	
     21e:	00 02       	bra	#4		;r2 As==10
     220:	00 92       	cmp	r2,	r0	
     222:	00 00       	bra	@r0		
     224:	00 01       	bra	@r1		
     226:	01 f6       	and	r6,	r1	
     228:	f5 0a       	suba	r10,	r5	
     22a:	00 01       	bra	@r1		
     22c:	01 01       	mova	@r1,	r1	
     22e:	01 00       	mova	@r0,	r1	
     230:	00 00       	bra	@r0		
     232:	01 63       	adc	r1		
     234:	3a 5c       	add	@r12+,	r10	
     236:	6d 73       	subc.b	#2,	r13	;r3 As==10
     238:	70 67       	addc.b	@r7+,	r0	
     23a:	63 63       	.word	0x6363;	????	Illegal as 2-op instr
     23c:	5c 62 69 6e 	addc.b	&0x6e69,r12	
     240:	5c 2e       	jc	$-838    	;abs 0xfefa
     242:	2e 2f       	jc	$-418    	;abs 0xa0
     244:	6c 69       	addc.b	@r9,	r12	
     246:	62 2f       	jc	$-314    	;abs 0x10c
     248:	67 63       	addc.b	#2,	r7	;r3 As==10
     24a:	63 2f       	jc	$-312    	;abs 0x112
     24c:	6d 73       	subc.b	#2,	r13	;r3 As==10
     24e:	70 34       	jge	$+226    	;abs 0x330
     250:	33 30       	jn	$+104    	;abs 0x2b8
     252:	2f 34       	jge	$+96     	;abs 0x2b2
     254:	2e 35       	jge	$+606    	;abs 0x4b2
     256:	2e 33       	jn	$-418    	;abs 0xb4
     258:	2f 2e       	jc	$-928    	;abs 0xfeb8
     25a:	2e 2f       	jc	$-418    	;abs 0xb8
     25c:	2e 2e       	jc	$-930    	;abs 0xfeba
     25e:	2f 2e       	jc	$-928    	;abs 0xfebe
     260:	2e 2f       	jc	$-418    	;abs 0xbe
     262:	2e 2e       	jc	$-930    	;abs 0xfec0
     264:	2f 6d       	addc	@r13,	r15	
     266:	73 70       	.word	0x7073;	????	Illegal as 2-op instr
     268:	34 33       	jn	$-406    	;abs 0xd2
     26a:	30 2f       	jc	$-414    	;abs 0xcc
     26c:	69 6e       	addc.b	@r14,	r9	
     26e:	63 6c       	.word	0x6c63;	????	Illegal as 2-op instr
     270:	75 64       	addc.b	@r4+,	r5	
     272:	65 00 00 6c 	mova	r0,	&0x56c00
     276:	63 64       	.word	0x6463;	????	Illegal as 2-op instr
     278:	36 31       	jn	$+622    	;abs 0x4e6
     27a:	30 30       	jn	$+98     	;abs 0x2dc
     27c:	2e 63       	addc	#2,	r14	;r3 As==10
     27e:	00 00       	bra	@r0		
     280:	00 00       	bra	@r0		
     282:	6d 73       	subc.b	#2,	r13	;r3 As==10
     284:	70 34       	jge	$+226    	;abs 0x366
     286:	33 30       	jn	$+104    	;abs 0x2ee
     288:	66 32       	jn	$-818    	;abs 0xff56
     28a:	36 31       	jn	$+622    	;abs 0x4f8
     28c:	38 2e       	jc	$-910    	;abs 0xfefe
     28e:	68 00 01 00 	mova	r0,	&0x80001
     292:	00 6c       	addc	r12,	r0	
     294:	63 64       	.word	0x6463;	????	Illegal as 2-op instr
     296:	36 31       	jn	$+622    	;abs 0x504
     298:	30 30       	jn	$+98     	;abs 0x2fa
     29a:	2e 68       	addc	@r8,	r14	
     29c:	00 00       	bra	@r0		
     29e:	00 00       	bra	@r0		
     2a0:	64 65       	addc.b	@r5,	r4	
     2a2:	6c 61       	addc.b	@r1,	r12	
     2a4:	79 2e       	jc	$-780    	;abs 0xff98
     2a6:	68 00 00 00 	mova	r0,	&0x80000
     2aa:	00 73       	sbc	r0		
     2ac:	74 64       	addc.b	@r4+,	r4	
     2ae:	69 6f       	addc.b	@r15,	r9	
     2b0:	2e 68       	addc	@r8,	r14	
     2b2:	00 01       	bra	@r1		
     2b4:	00 00       	bra	@r0		
     2b6:	00 00       	bra	@r0		
     2b8:	03 02       	.word	0x0203;	????	Illegal as address instr
     2ba:	cc 32       	jn	$-614    	;abs 0x54
     2bc:	c5 00       	mova	r0,	r5	
     2be:	03 02       	.word	0x0203;	????	Illegal as address instr
     2c0:	cc 32       	jn	$-614    	;abs 0x5a
     2c2:	15 00       	mova	#0x00000,r5	
     2c4:	03 02       	.word	0x0203;	????	Illegal as address instr
     2c6:	d0 32       	jn	$-606    	;abs 0x68
     2c8:	15 00       	mova	#0x00000,r5	
     2ca:	03 02       	.word	0x0203;	????	Illegal as address instr
     2cc:	d4 32       	jn	$-598    	;abs 0x76
     2ce:	15 00       	mova	#0x00000,r5	
     2d0:	03 02       	.word	0x0203;	????	Illegal as address instr
     2d2:	d6 32       	jn	$-594    	;abs 0x80
     2d4:	1d 00       	mova	#0x00000,r13	
     2d6:	03 02       	.word	0x0203;	????	Illegal as address instr
     2d8:	d8 32       	jn	$-590    	;abs 0x8a
     2da:	18 00       	mova	#0x00000,r8	
     2dc:	03 02       	.word	0x0203;	????	Illegal as address instr
     2de:	dc 32       	jn	$-582    	;abs 0x98
     2e0:	15 00       	mova	#0x00000,r5	
     2e2:	03 02       	.word	0x0203;	????	Illegal as address instr
     2e4:	e2 32       	jn	$-570    	;abs 0xaa
     2e6:	1a 00       	mova	#0x00000,r10	
     2e8:	03 02       	.word	0x0203;	????	Illegal as address instr
     2ea:	e8 32       	jn	$-558    	;abs 0xbc
     2ec:	15 00       	mova	#0x00000,r5	
     2ee:	03 02       	.word	0x0203;	????	Illegal as address instr
     2f0:	ec 32       	jn	$-550    	;abs 0xca
     2f2:	15 00       	mova	#0x00000,r5	
     2f4:	03 02       	.word	0x0203;	????	Illegal as address instr
     2f6:	f4 32       	jn	$-534    	;abs 0xe0
     2f8:	03 74       	.word	0x7403;	????	Illegal as 2-op instr
     2fa:	01 00       	mova	@r0,	r1	
     2fc:	03 02       	.word	0x0203;	????	Illegal as address instr
     2fe:	fa 32       	jn	$-522    	;abs 0xf4
     300:	24 00 03 02 	mova	&0x00203,r4	
     304:	fe 32       	jn	$-514    	;abs 0x102
     306:	19 00       	mova	#0x00000,r9	
     308:	03 02       	.word	0x0203;	????	Illegal as address instr
     30a:	02 33       	jn	$-506    	;abs 0x110
     30c:	15 00       	mova	#0x00000,r5	
     30e:	03 02       	.word	0x0203;	????	Illegal as address instr
     310:	0a 33       	jn	$-490    	;abs 0x126
     312:	0c 00       	mova	@r0,	r12	
     314:	03 02       	.word	0x0203;	????	Illegal as address instr
     316:	0c 33       	jn	$-486    	;abs 0x130
     318:	1d 00       	mova	#0x00000,r13	
     31a:	03 02       	.word	0x0203;	????	Illegal as address instr
     31c:	10 33       	jn	$-478    	;abs 0x13e
     31e:	0c 00       	mova	@r0,	r12	
     320:	03 02       	.word	0x0203;	????	Illegal as address instr
     322:	16 33       	jn	$-466    	;abs 0x150
     324:	18 00       	mova	#0x00000,r8	
     326:	03 02       	.word	0x0203;	????	Illegal as address instr
     328:	1e 33       	jn	$-450    	;abs 0x166
     32a:	1b 00       	mova	#0x00000,r11	
     32c:	03 02       	.word	0x0203;	????	Illegal as address instr
     32e:	22 33       	jn	$-442    	;abs 0x174
     330:	01 00       	mova	@r0,	r1	
     332:	03 02       	.word	0x0203;	????	Illegal as address instr
     334:	28 33       	jn	$-430    	;abs 0x186
     336:	17 00       	mova	#0x00000,r7	
     338:	03 02       	.word	0x0203;	????	Illegal as address instr
     33a:	2e 33       	jn	$-418    	;abs 0x198
     33c:	15 00       	mova	#0x00000,r5	
     33e:	03 02       	.word	0x0203;	????	Illegal as address instr
     340:	32 33       	jn	$-410    	;abs 0x1a6
     342:	15 00       	mova	#0x00000,r5	
     344:	03 02       	.word	0x0203;	????	Illegal as address instr
     346:	36 33       	jn	$-402    	;abs 0x1b4
     348:	03 68       	.word	0x6803;	????	Illegal as 2-op instr
     34a:	01 00       	mova	@r0,	r1	
     34c:	03 02       	.word	0x0203;	????	Illegal as address instr
     34e:	3c 33       	jn	$-390    	;abs 0x1c8
     350:	6e 00 03 02 	mova	r0,	&0xe0203
     354:	40 33       	jn	$-382    	;abs 0x1d6
     356:	15 00       	mova	#0x00000,r5	
     358:	03 02       	.word	0x0203;	????	Illegal as address instr
     35a:	48 33       	jn	$-366    	;abs 0x1ec
     35c:	15 00       	mova	#0x00000,r5	
     35e:	03 02       	.word	0x0203;	????	Illegal as address instr
     360:	50 33       	jn	$-350    	;abs 0x202
     362:	15 00       	mova	#0x00000,r5	
     364:	03 02       	.word	0x0203;	????	Illegal as address instr
     366:	54 33       	jn	$-342    	;abs 0x210
     368:	17 00       	mova	#0x00000,r7	
     36a:	03 02       	.word	0x0203;	????	Illegal as address instr
     36c:	5c 33       	jn	$-326    	;abs 0x226
     36e:	15 00       	mova	#0x00000,r5	
     370:	03 02       	.word	0x0203;	????	Illegal as address instr
     372:	64 33       	jn	$-310    	;abs 0x23c
     374:	15 00       	mova	#0x00000,r5	
     376:	03 02       	.word	0x0203;	????	Illegal as address instr
     378:	6c 33       	jn	$-294    	;abs 0x252
     37a:	15 00       	mova	#0x00000,r5	
     37c:	03 02       	.word	0x0203;	????	Illegal as address instr
     37e:	74 33       	jn	$-278    	;abs 0x268
     380:	15 00       	mova	#0x00000,r5	
     382:	03 02       	.word	0x0203;	????	Illegal as address instr
     384:	7a 33       	jn	$-266    	;abs 0x27a
     386:	17 00       	mova	#0x00000,r7	
     388:	03 02       	.word	0x0203;	????	Illegal as address instr
     38a:	8c 33       	jn	$-230    	;abs 0x2a4
     38c:	17 00       	mova	#0x00000,r7	
     38e:	03 02       	.word	0x0203;	????	Illegal as address instr
     390:	9c 33       	jn	$-198    	;abs 0x2ca
     392:	15 00       	mova	#0x00000,r5	
     394:	03 02       	.word	0x0203;	????	Illegal as address instr
     396:	ac 33       	jn	$-166    	;abs 0x2f0
     398:	16 00       	mova	#0x00000,r6	
     39a:	03 02       	.word	0x0203;	????	Illegal as address instr
     39c:	b8 33       	jn	$-142    	;abs 0x30e
     39e:	16 00       	mova	#0x00000,r6	
     3a0:	03 02       	.word	0x0203;	????	Illegal as address instr
     3a2:	cc 33       	jn	$-102    	;abs 0x33c
     3a4:	15 00       	mova	#0x00000,r5	
     3a6:	03 02       	.word	0x0203;	????	Illegal as address instr
     3a8:	d0 33       	jn	$-94     	;abs 0x34a
     3aa:	01 00       	mova	@r0,	r1	
     3ac:	03 02       	.word	0x0203;	????	Illegal as address instr
     3ae:	d2 33       	jn	$-90     	;abs 0x354
     3b0:	16 00       	mova	#0x00000,r6	
     3b2:	03 02       	.word	0x0203;	????	Illegal as address instr
     3b4:	da 33       	jn	$-74     	;abs 0x36a
     3b6:	12 00       	mova	#0x00000,r2	
     3b8:	03 02       	.word	0x0203;	????	Illegal as address instr
     3ba:	e0 33       	jn	$-62     	;abs 0x37c
     3bc:	19 00       	mova	#0x00000,r9	
     3be:	03 02       	.word	0x0203;	????	Illegal as address instr
     3c0:	e6 33       	jn	$-50     	;abs 0x38e
     3c2:	15 00       	mova	#0x00000,r5	
     3c4:	03 02       	.word	0x0203;	????	Illegal as address instr
     3c6:	ea 33       	jn	$-42     	;abs 0x39c
     3c8:	16 00       	mova	#0x00000,r6	
     3ca:	03 02       	.word	0x0203;	????	Illegal as address instr
     3cc:	f8 33       	jn	$-14     	;abs 0x3be
     3ce:	15 00       	mova	#0x00000,r5	
     3d0:	03 02       	.word	0x0203;	????	Illegal as address instr
     3d2:	06 34       	jge	$+14     	;abs 0x3e0
     3d4:	15 00       	mova	#0x00000,r5	
     3d6:	03 02       	.word	0x0203;	????	Illegal as address instr
     3d8:	10 34       	jge	$+34     	;abs 0x3fa
     3da:	03 5b       	.word	0x5b03;	????	Illegal as 2-op instr
     3dc:	01 00       	mova	@r0,	r1	
     3de:	03 02       	.word	0x0203;	????	Illegal as address instr
     3e0:	10 34       	jge	$+34     	;abs 0x402
     3e2:	15 00       	mova	#0x00000,r5	
     3e4:	03 02       	.word	0x0203;	????	Illegal as address instr
     3e6:	22 34       	jge	$+70     	;abs 0x42c
     3e8:	15 00       	mova	#0x00000,r5	
     3ea:	03 02       	.word	0x0203;	????	Illegal as address instr
     3ec:	24 34       	jge	$+74     	;abs 0x436
     3ee:	03 44       	.word	0x4403;	????	Illegal as 2-op instr
     3f0:	01 00       	mova	@r0,	r1	
     3f2:	03 02       	.word	0x0203;	????	Illegal as address instr
     3f4:	34 34       	jge	$+106    	;abs 0x45e
     3f6:	15 00       	mova	#0x00000,r5	
     3f8:	03 02       	.word	0x0203;	????	Illegal as address instr
     3fa:	3a 34       	jge	$+118    	;abs 0x470
     3fc:	16 00       	mova	#0x00000,r6	
     3fe:	03 02       	.word	0x0203;	????	Illegal as address instr
     400:	3e 34       	jge	$+126    	;abs 0x47e
     402:	15 00       	mova	#0x00000,r5	
     404:	03 02       	.word	0x0203;	????	Illegal as address instr
     406:	44 34       	jge	$+138    	;abs 0x490
     408:	15 00       	mova	#0x00000,r5	
     40a:	03 02       	.word	0x0203;	????	Illegal as address instr
     40c:	4a 34       	jge	$+150    	;abs 0x4a2
     40e:	16 00       	mova	#0x00000,r6	
     410:	03 02       	.word	0x0203;	????	Illegal as address instr
     412:	50 34       	jge	$+162    	;abs 0x4b4
     414:	15 00       	mova	#0x00000,r5	
     416:	03 02       	.word	0x0203;	????	Illegal as address instr
     418:	5a 34       	jge	$+182    	;abs 0x4ce
     41a:	15 00       	mova	#0x00000,r5	
     41c:	03 02       	.word	0x0203;	????	Illegal as address instr
     41e:	5e 34       	jge	$+190    	;abs 0x4dc
     420:	15 00       	mova	#0x00000,r5	
     422:	03 02       	.word	0x0203;	????	Illegal as address instr
     424:	64 34       	jge	$+202    	;abs 0x4ee
     426:	17 00       	mova	#0x00000,r7	
     428:	03 02       	.word	0x0203;	????	Illegal as address instr
     42a:	6e 34       	jge	$+222    	;abs 0x508
     42c:	16 00       	mova	#0x00000,r6	
     42e:	03 02       	.word	0x0203;	????	Illegal as address instr
     430:	7a 34       	jge	$+246    	;abs 0x526
     432:	16 00       	mova	#0x00000,r6	
     434:	03 02       	.word	0x0203;	????	Illegal as address instr
     436:	84 34       	jge	$+266    	;abs 0x540
     438:	15 00       	mova	#0x00000,r5	
     43a:	03 02       	.word	0x0203;	????	Illegal as address instr
     43c:	8e 34       	jge	$+286    	;abs 0x55a
     43e:	15 00       	mova	#0x00000,r5	
     440:	03 02       	.word	0x0203;	????	Illegal as address instr
     442:	96 34       	jge	$+302    	;abs 0x570
     444:	17 00       	mova	#0x00000,r7	
     446:	03 02       	.word	0x0203;	????	Illegal as address instr
     448:	a0 34       	jge	$+322    	;abs 0x58a
     44a:	16 00       	mova	#0x00000,r6	
     44c:	03 02       	.word	0x0203;	????	Illegal as address instr
     44e:	aa 34       	jge	$+342    	;abs 0x5a4
     450:	16 00       	mova	#0x00000,r6	
     452:	03 02       	.word	0x0203;	????	Illegal as address instr
     454:	b2 34       	jge	$+358    	;abs 0x5ba
     456:	15 00       	mova	#0x00000,r5	
     458:	03 02       	.word	0x0203;	????	Illegal as address instr
     45a:	ba 34       	jge	$+374    	;abs 0x5d0
     45c:	15 00       	mova	#0x00000,r5	
     45e:	03 02       	.word	0x0203;	????	Illegal as address instr
     460:	c6 34       	jge	$+398    	;abs 0x5ee
     462:	15 00       	mova	#0x00000,r5	
     464:	03 02       	.word	0x0203;	????	Illegal as address instr
     466:	d2 34       	jge	$+422    	;abs 0x60c
     468:	15 00       	mova	#0x00000,r5	
     46a:	03 02       	.word	0x0203;	????	Illegal as address instr
     46c:	de 34       	jge	$+446    	;abs 0x62a
     46e:	15 00       	mova	#0x00000,r5	
     470:	03 02       	.word	0x0203;	????	Illegal as address instr
     472:	ea 34       	jge	$+470    	;abs 0x648
     474:	15 00       	mova	#0x00000,r5	
     476:	03 02       	.word	0x0203;	????	Illegal as address instr
     478:	f6 34       	jge	$+494    	;abs 0x666
     47a:	15 00       	mova	#0x00000,r5	
     47c:	03 02       	.word	0x0203;	????	Illegal as address instr
     47e:	02 35       	jge	$+518    	;abs 0x684
     480:	16 00       	mova	#0x00000,r6	
     482:	03 02       	.word	0x0203;	????	Illegal as address instr
     484:	0a 35       	jge	$+534    	;abs 0x69a
     486:	15 00       	mova	#0x00000,r5	
     488:	03 02       	.word	0x0203;	????	Illegal as address instr
     48a:	12 35       	jge	$+550    	;abs 0x6b0
     48c:	15 00       	mova	#0x00000,r5	
     48e:	03 02       	.word	0x0203;	????	Illegal as address instr
     490:	1a 35       	jge	$+566    	;abs 0x6c6
     492:	15 00       	mova	#0x00000,r5	
     494:	03 02       	.word	0x0203;	????	Illegal as address instr
     496:	22 35       	jge	$+582    	;abs 0x6dc
     498:	15 00       	mova	#0x00000,r5	
     49a:	03 02       	.word	0x0203;	????	Illegal as address instr
     49c:	2a 35       	jge	$+598    	;abs 0x6f2
     49e:	15 00       	mova	#0x00000,r5	
     4a0:	03 02       	.word	0x0203;	????	Illegal as address instr
     4a2:	32 35       	jge	$+614    	;abs 0x708
     4a4:	15 00       	mova	#0x00000,r5	
     4a6:	03 02       	.word	0x0203;	????	Illegal as address instr
     4a8:	3a 35       	jge	$+630    	;abs 0x71e
     4aa:	15 00       	mova	#0x00000,r5	
     4ac:	03 02       	.word	0x0203;	????	Illegal as address instr
     4ae:	42 35       	jge	$+646    	;abs 0x734
     4b0:	16 00       	mova	#0x00000,r6	
     4b2:	03 02       	.word	0x0203;	????	Illegal as address instr
     4b4:	4a 35       	jge	$+662    	;abs 0x74a
     4b6:	15 00       	mova	#0x00000,r5	
     4b8:	03 02       	.word	0x0203;	????	Illegal as address instr
     4ba:	52 35       	jge	$+678    	;abs 0x760
     4bc:	15 00       	mova	#0x00000,r5	
     4be:	03 02       	.word	0x0203;	????	Illegal as address instr
     4c0:	5a 35       	jge	$+694    	;abs 0x776
     4c2:	15 00       	mova	#0x00000,r5	
     4c4:	03 02       	.word	0x0203;	????	Illegal as address instr
     4c6:	62 35       	jge	$+710    	;abs 0x78c
     4c8:	17 00       	mova	#0x00000,r7	
     4ca:	03 02       	.word	0x0203;	????	Illegal as address instr
     4cc:	6c 35       	jge	$+730    	;abs 0x7a6
     4ce:	16 00       	mova	#0x00000,r6	
     4d0:	03 02       	.word	0x0203;	????	Illegal as address instr
     4d2:	7e 35       	jge	$+766    	;abs 0x7d0
     4d4:	17 00       	mova	#0x00000,r7	
     4d6:	03 02       	.word	0x0203;	????	Illegal as address instr
     4d8:	8e 35       	jge	$+798    	;abs 0x7f6
     4da:	3f 00 03 02 	mova	0x0203,	r15	;PC rel. 0x006df
     4de:	ac 35       	jge	$+858    	;abs 0x838
     4e0:	19 00       	mova	#0x00000,r9	
     4e2:	03 02       	.word	0x0203;	????	Illegal as address instr
     4e4:	b0 35       	jge	$+866    	;abs 0x846
     4e6:	15 00       	mova	#0x00000,r5	
     4e8:	03 02       	.word	0x0203;	????	Illegal as address instr
     4ea:	ce 35       	jge	$+926    	;abs 0x888
     4ec:	15 00       	mova	#0x00000,r5	
     4ee:	03 02       	.word	0x0203;	????	Illegal as address instr
     4f0:	e2 35       	jge	$+966    	;abs 0x8b6
     4f2:	15 00       	mova	#0x00000,r5	
     4f4:	03 02       	.word	0x0203;	????	Illegal as address instr
     4f6:	f6 35       	jge	$+1006   	;abs 0x8e4
     4f8:	15 00       	mova	#0x00000,r5	
     4fa:	03 02       	.word	0x0203;	????	Illegal as address instr
     4fc:	0c 36       	jge	$-998    	;abs 0x116
     4fe:	15 00       	mova	#0x00000,r5	
     500:	03 02       	.word	0x0203;	????	Illegal as address instr
     502:	14 36       	jge	$-982    	;abs 0x12c
     504:	0b 00       	mova	@r0,	r11	
     506:	03 02       	.word	0x0203;	????	Illegal as address instr
     508:	1a 36       	jge	$-970    	;abs 0x13e
     50a:	16 00       	mova	#0x00000,r6	
     50c:	03 02       	.word	0x0203;	????	Illegal as address instr
     50e:	38 36       	jge	$-910    	;abs 0x180
     510:	15 00       	mova	#0x00000,r5	
     512:	03 02       	.word	0x0203;	????	Illegal as address instr
     514:	3e 36       	jge	$-898    	;abs 0x192
     516:	22 00 03 02 	mova	&0x00203,r2	
     51a:	46 36       	jge	$-882    	;abs 0x1a8
     51c:	0d 00       	mova	@r0,	r13	
     51e:	03 02       	.word	0x0203;	????	Illegal as address instr
     520:	4a 36       	jge	$-874    	;abs 0x1b6
     522:	15 00       	mova	#0x00000,r5	
     524:	03 02       	.word	0x0203;	????	Illegal as address instr
     526:	4e 36       	jge	$-866    	;abs 0x1c4
     528:	15 00       	mova	#0x00000,r5	
     52a:	03 02       	.word	0x0203;	????	Illegal as address instr
     52c:	52 36       	jge	$-858    	;abs 0x1d2
     52e:	15 00       	mova	#0x00000,r5	
     530:	03 02       	.word	0x0203;	????	Illegal as address instr
     532:	56 36       	jge	$-850    	;abs 0x1e0
     534:	16 00       	mova	#0x00000,r6	
     536:	03 02       	.word	0x0203;	????	Illegal as address instr
     538:	5a 36       	jge	$-842    	;abs 0x1ee
     53a:	17 00       	mova	#0x00000,r7	
     53c:	03 02       	.word	0x0203;	????	Illegal as address instr
     53e:	62 36       	jge	$-826    	;abs 0x204
     540:	03 6d       	.word	0x6d03;	????	Illegal as 2-op instr
     542:	01 00       	mova	@r0,	r1	
     544:	03 02       	.word	0x0203;	????	Illegal as address instr
     546:	6c 36       	jge	$-806    	;abs 0x220
     548:	27 00 03 02 	mova	&0x00203,r7	
     54c:	80 36       	jge	$-766    	;abs 0x24e
     54e:	15 00       	mova	#0x00000,r5	
     550:	03 02       	.word	0x0203;	????	Illegal as address instr
     552:	90 36       	jge	$-734    	;abs 0x274
     554:	15 00       	mova	#0x00000,r5	
     556:	03 02       	.word	0x0203;	????	Illegal as address instr
     558:	a6 36       	jge	$-690    	;abs 0x2a6
     55a:	15 00       	mova	#0x00000,r5	
     55c:	03 02       	.word	0x0203;	????	Illegal as address instr
     55e:	bc 36       	jge	$-646    	;abs 0x2d8
     560:	15 00       	mova	#0x00000,r5	
     562:	03 02       	.word	0x0203;	????	Illegal as address instr
     564:	d2 36       	jge	$-602    	;abs 0x30a
     566:	15 00       	mova	#0x00000,r5	
     568:	03 02       	.word	0x0203;	????	Illegal as address instr
     56a:	ee 36       	jge	$-546    	;abs 0x348
     56c:	15 00       	mova	#0x00000,r5	
     56e:	03 02       	.word	0x0203;	????	Illegal as address instr
     570:	fe 36       	jge	$-514    	;abs 0x36e
     572:	15 00       	mova	#0x00000,r5	
     574:	03 02       	.word	0x0203;	????	Illegal as address instr
     576:	10 37       	jge	$-478    	;abs 0x398
     578:	03 70       	.word	0x7003;	????	Illegal as 2-op instr
     57a:	01 00       	mova	@r0,	r1	
     57c:	03 02       	.word	0x0203;	????	Illegal as address instr
     57e:	18 37       	jge	$-462    	;abs 0x3b0
     580:	26 00 03 02 	mova	&0x00203,r6	
     584:	2e 37       	jge	$-418    	;abs 0x3e2
     586:	48 00       	rrcm.a	#1,	r8	
     588:	03 02       	.word	0x0203;	????	Illegal as address instr
     58a:	3a 37       	jge	$-394    	;abs 0x400
     58c:	15 00       	mova	#0x00000,r5	
     58e:	03 02       	.word	0x0203;	????	Illegal as address instr
     590:	48 37       	jge	$-366    	;abs 0x422
     592:	15 00       	mova	#0x00000,r5	
     594:	03 02       	.word	0x0203;	????	Illegal as address instr
     596:	56 37       	jge	$-338    	;abs 0x444
     598:	16 00       	mova	#0x00000,r6	
     59a:	03 02       	.word	0x0203;	????	Illegal as address instr
     59c:	62 37       	jge	$-314    	;abs 0x462
     59e:	15 00       	mova	#0x00000,r5	
     5a0:	03 02       	.word	0x0203;	????	Illegal as address instr
     5a2:	6a 37       	jge	$-298    	;abs 0x478
     5a4:	17 00       	mova	#0x00000,r7	
     5a6:	03 02       	.word	0x0203;	????	Illegal as address instr
     5a8:	70 37       	jge	$-286    	;abs 0x48a
     5aa:	15 00       	mova	#0x00000,r5	
     5ac:	03 02       	.word	0x0203;	????	Illegal as address instr
     5ae:	74 37       	jge	$-278    	;abs 0x498
     5b0:	16 00       	mova	#0x00000,r6	
     5b2:	03 02       	.word	0x0203;	????	Illegal as address instr
     5b4:	82 37       	jge	$-250    	;abs 0x4ba
     5b6:	15 00       	mova	#0x00000,r5	
     5b8:	03 02       	.word	0x0203;	????	Illegal as address instr
     5ba:	8c 37       	jge	$-230    	;abs 0x4d4
     5bc:	15 00       	mova	#0x00000,r5	
     5be:	03 02       	.word	0x0203;	????	Illegal as address instr
     5c0:	96 37       	jge	$-210    	;abs 0x4ee
     5c2:	03 41       	.word	0x4103;	????	Illegal as 2-op instr
     5c4:	01 00       	mova	@r0,	r1	
     5c6:	03 02       	.word	0x0203;	????	Illegal as address instr
     5c8:	b8 37       	jge	$-142    	;abs 0x53a
     5ca:	15 00       	mova	#0x00000,r5	
     5cc:	03 02       	.word	0x0203;	????	Illegal as address instr
     5ce:	bc 37       	jge	$-134    	;abs 0x548
     5d0:	15 00       	mova	#0x00000,r5	
     5d2:	03 02       	.word	0x0203;	????	Illegal as address instr
     5d4:	c0 37       	jge	$-126    	;abs 0x556
     5d6:	16 00       	mova	#0x00000,r6	
     5d8:	03 02       	.word	0x0203;	????	Illegal as address instr
     5da:	c4 37       	jge	$-118    	;abs 0x564
     5dc:	19 00       	mova	#0x00000,r9	
     5de:	03 02       	.word	0x0203;	????	Illegal as address instr
     5e0:	c6 37       	jge	$-114    	;abs 0x56e
     5e2:	16 00       	mova	#0x00000,r6	
     5e4:	03 02       	.word	0x0203;	????	Illegal as address instr
     5e6:	ca 37       	jge	$-106    	;abs 0x57c
     5e8:	19 00       	mova	#0x00000,r9	
     5ea:	03 02       	.word	0x0203;	????	Illegal as address instr
     5ec:	cc 37       	jge	$-102    	;abs 0x586
     5ee:	16 00       	mova	#0x00000,r6	
     5f0:	03 02       	.word	0x0203;	????	Illegal as address instr
     5f2:	ce 37       	jge	$-98     	;abs 0x590
     5f4:	15 00       	mova	#0x00000,r5	
     5f6:	03 02       	.word	0x0203;	????	Illegal as address instr
     5f8:	d0 37       	jge	$-94     	;abs 0x59a
     5fa:	16 00       	mova	#0x00000,r6	
     5fc:	03 02       	.word	0x0203;	????	Illegal as address instr
     5fe:	da 37       	jge	$-74     	;abs 0x5b4
     600:	16 00       	mova	#0x00000,r6	
     602:	03 02       	.word	0x0203;	????	Illegal as address instr
     604:	de 37       	jge	$-66     	;abs 0x5c2
     606:	16 00       	mova	#0x00000,r6	
     608:	03 02       	.word	0x0203;	????	Illegal as address instr
     60a:	e2 37       	jge	$-58     	;abs 0x5d0
     60c:	13 00       	.word	0x0013;	????	Illegal as address instr
     60e:	03 02       	.word	0x0203;	????	Illegal as address instr
     610:	ea 37       	jge	$-42     	;abs 0x5e6
     612:	03 68       	.word	0x6803;	????	Illegal as 2-op instr
     614:	01 00       	mova	@r0,	r1	
     616:	03 02       	.word	0x0203;	????	Illegal as address instr
     618:	ee 37       	jge	$-34     	;abs 0x5f6
     61a:	33 00       	.word	0x0033;	????	Illegal as address instr
     61c:	03 02       	.word	0x0203;	????	Illegal as address instr
     61e:	f0 37       	jge	$-30     	;abs 0x600
     620:	0f 00       	mova	@r0,	r15	
     622:	03 02       	.word	0x0203;	????	Illegal as address instr
     624:	f4 37       	jge	$-22     	;abs 0x60e
     626:	15 00       	mova	#0x00000,r5	
     628:	03 02       	.word	0x0203;	????	Illegal as address instr
     62a:	f6 37       	jge	$-18     	;abs 0x618
     62c:	15 00       	mova	#0x00000,r5	
     62e:	03 02       	.word	0x0203;	????	Illegal as address instr
     630:	f8 37       	jge	$-14     	;abs 0x622
     632:	18 00       	mova	#0x00000,r8	
     634:	03 02       	.word	0x0203;	????	Illegal as address instr
     636:	04 38       	jl	$+10     	;abs 0x640
     638:	03 60       	.word	0x6003;	????	Illegal as 2-op instr
     63a:	01 00       	mova	@r0,	r1	
     63c:	03 02       	.word	0x0203;	????	Illegal as address instr
     63e:	08 38       	jl	$+18     	;abs 0x650
     640:	2d 00 03 02 	mova	&0x00203,r13	
     644:	0c 38       	jl	$+26     	;abs 0x65e
     646:	2a 00 03 02 	mova	&0x00203,r10	
     64a:	20 38       	jl	$+66     	;abs 0x68c
     64c:	0a 00       	mova	@r0,	r10	
     64e:	03 02       	.word	0x0203;	????	Illegal as address instr
     650:	26 38       	jl	$+78     	;abs 0x69e
     652:	13 00       	.word	0x0013;	????	Illegal as address instr
     654:	03 02       	.word	0x0203;	????	Illegal as address instr
     656:	2e 38       	jl	$+94     	;abs 0x6b4
     658:	03 5c       	.word	0x5c03;	????	Illegal as 2-op instr
     65a:	01 00       	mova	@r0,	r1	
     65c:	03 02       	.word	0x0203;	????	Illegal as address instr
     65e:	32 38       	jl	$+102    	;abs 0x6c4
     660:	3f 00 03 02 	mova	0x0203,	r15	;PC rel. 0x00865
     664:	34 38       	jl	$+106    	;abs 0x6ce
     666:	0f 00       	mova	@r0,	r15	
     668:	03 02       	.word	0x0203;	????	Illegal as address instr
     66a:	38 38       	jl	$+114    	;abs 0x6dc
     66c:	15 00       	mova	#0x00000,r5	
     66e:	03 02       	.word	0x0203;	????	Illegal as address instr
     670:	3a 38       	jl	$+118    	;abs 0x6e6
     672:	15 00       	mova	#0x00000,r5	
     674:	03 02       	.word	0x0203;	????	Illegal as address instr
     676:	3c 38       	jl	$+122    	;abs 0x6f0
     678:	18 00       	mova	#0x00000,r8	
     67a:	03 02       	.word	0x0203;	????	Illegal as address instr
     67c:	48 38       	jl	$+146    	;abs 0x70e
     67e:	03 54       	.word	0x5403;	????	Illegal as 2-op instr
     680:	01 00       	mova	@r0,	r1	
     682:	03 02       	.word	0x0203;	????	Illegal as address instr
     684:	4c 38       	jl	$+154    	;abs 0x71e
     686:	39 00 03 02 	mova	0x0203,	r9	;PC rel. 0x0088b
     68a:	54 38       	jl	$+170    	;abs 0x734
     68c:	03 67       	.word	0x6703;	????	Illegal as 2-op instr
     68e:	01 00       	mova	@r0,	r1	
     690:	03 02       	.word	0x0203;	????	Illegal as address instr
     692:	58 38       	jl	$+178    	;abs 0x744
     694:	15 00       	mova	#0x00000,r5	
     696:	03 02       	.word	0x0203;	????	Illegal as address instr
     698:	5c 38       	jl	$+186    	;abs 0x752
     69a:	0c 00       	mova	@r0,	r12	
     69c:	03 02       	.word	0x0203;	????	Illegal as address instr
     69e:	60 38       	jl	$+194    	;abs 0x760
     6a0:	15 00       	mova	#0x00000,r5	
     6a2:	03 02       	.word	0x0203;	????	Illegal as address instr
     6a4:	64 38       	jl	$+202    	;abs 0x76e
     6a6:	50 00       	rrcm	#1,	r0	
     6a8:	03 02       	.word	0x0203;	????	Illegal as address instr
     6aa:	76 38       	jl	$+238    	;abs 0x798
     6ac:	17 00       	mova	#0x00000,r7	
     6ae:	03 02       	.word	0x0203;	????	Illegal as address instr
     6b0:	86 38       	jl	$+270    	;abs 0x7be
     6b2:	15 00       	mova	#0x00000,r5	
     6b4:	03 02       	.word	0x0203;	????	Illegal as address instr
     6b6:	96 38       	jl	$+302    	;abs 0x7e4
     6b8:	16 00       	mova	#0x00000,r6	
     6ba:	03 02       	.word	0x0203;	????	Illegal as address instr
     6bc:	a2 38       	jl	$+326    	;abs 0x802
     6be:	16 00       	mova	#0x00000,r6	
     6c0:	03 02       	.word	0x0203;	????	Illegal as address instr
     6c2:	b6 38       	jl	$+366    	;abs 0x830
     6c4:	15 00       	mova	#0x00000,r5	
     6c6:	03 02       	.word	0x0203;	????	Illegal as address instr
     6c8:	ba 38       	jl	$+374    	;abs 0x83e
     6ca:	01 00       	mova	@r0,	r1	
     6cc:	03 02       	.word	0x0203;	????	Illegal as address instr
     6ce:	bc 38       	jl	$+378    	;abs 0x848
     6d0:	0a 00       	mova	@r0,	r10	
     6d2:	03 02       	.word	0x0203;	????	Illegal as address instr
     6d4:	c0 38       	jl	$+386    	;abs 0x856
     6d6:	20 00 03 02 	bra	&0x00203	
     6da:	c8 38       	jl	$+402    	;abs 0x86c
     6dc:	12 00       	mova	#0x00000,r2	
     6de:	03 02       	.word	0x0203;	????	Illegal as address instr
     6e0:	ce 38       	jl	$+414    	;abs 0x87e
     6e2:	19 00       	mova	#0x00000,r9	
     6e4:	03 02       	.word	0x0203;	????	Illegal as address instr
     6e6:	d4 38       	jl	$+426    	;abs 0x890
     6e8:	15 00       	mova	#0x00000,r5	
     6ea:	03 02       	.word	0x0203;	????	Illegal as address instr
     6ec:	d8 38       	jl	$+434    	;abs 0x89e
     6ee:	16 00       	mova	#0x00000,r6	
     6f0:	03 02       	.word	0x0203;	????	Illegal as address instr
     6f2:	e6 38       	jl	$+462    	;abs 0x8c0
     6f4:	15 00       	mova	#0x00000,r5	
     6f6:	03 02       	.word	0x0203;	????	Illegal as address instr
     6f8:	f4 38       	jl	$+490    	;abs 0x8e2
     6fa:	15 00       	mova	#0x00000,r5	
     6fc:	03 02       	.word	0x0203;	????	Illegal as address instr
     6fe:	fe 38       	jl	$+510    	;abs 0x8fc
     700:	17 00       	mova	#0x00000,r7	
     702:	03 02       	.word	0x0203;	????	Illegal as address instr
     704:	fe 38       	jl	$+510    	;abs 0x902
     706:	15 00       	mova	#0x00000,r5	
     708:	03 02       	.word	0x0203;	????	Illegal as address instr
     70a:	0e 39       	jl	$+542    	;abs 0x928
     70c:	15 00       	mova	#0x00000,r5	
     70e:	03 02       	.word	0x0203;	????	Illegal as address instr
     710:	12 39       	jl	$+550    	;abs 0x936
     712:	16 00       	mova	#0x00000,r6	
     714:	03 02       	.word	0x0203;	????	Illegal as address instr
     716:	16 39       	jl	$+558    	;abs 0x944
     718:	15 00       	mova	#0x00000,r5	
     71a:	03 02       	.word	0x0203;	????	Illegal as address instr
     71c:	18 39       	jl	$+562    	;abs 0x94e
     71e:	17 00       	mova	#0x00000,r7	
     720:	03 02       	.word	0x0203;	????	Illegal as address instr
     722:	18 39       	jl	$+562    	;abs 0x954
     724:	15 00       	mova	#0x00000,r5	
     726:	03 02       	.word	0x0203;	????	Illegal as address instr
     728:	20 39       	jl	$+578    	;abs 0x96a
     72a:	15 00       	mova	#0x00000,r5	
     72c:	03 02       	.word	0x0203;	????	Illegal as address instr
     72e:	28 39       	jl	$+594    	;abs 0x980
     730:	16 00       	mova	#0x00000,r6	
     732:	03 02       	.word	0x0203;	????	Illegal as address instr
     734:	2c 39       	jl	$+602    	;abs 0x98e
     736:	15 00       	mova	#0x00000,r5	
     738:	03 02       	.word	0x0203;	????	Illegal as address instr
     73a:	30 39       	jl	$+610    	;abs 0x99c
     73c:	15 00       	mova	#0x00000,r5	
     73e:	03 02       	.word	0x0203;	????	Illegal as address instr
     740:	32 39       	jl	$+614    	;abs 0x9a6
     742:	17 00       	mova	#0x00000,r7	
     744:	03 02       	.word	0x0203;	????	Illegal as address instr
     746:	3e 39       	jl	$+638    	;abs 0x9c4
     748:	19 00       	mova	#0x00000,r9	
     74a:	03 02       	.word	0x0203;	????	Illegal as address instr
     74c:	4a 39       	jl	$+662    	;abs 0x9e2
     74e:	15 00       	mova	#0x00000,r5	
     750:	03 02       	.word	0x0203;	????	Illegal as address instr
     752:	58 39       	jl	$+690    	;abs 0xa04
     754:	15 00       	mova	#0x00000,r5	
     756:	03 02       	.word	0x0203;	????	Illegal as address instr
     758:	62 39       	jl	$+710    	;abs 0xa1e
     75a:	15 00       	mova	#0x00000,r5	
     75c:	03 02       	.word	0x0203;	????	Illegal as address instr
     75e:	72 39       	jl	$+742    	;abs 0xa44
     760:	18 00       	mova	#0x00000,r8	
     762:	03 02       	.word	0x0203;	????	Illegal as address instr
     764:	88 39       	jl	$+786    	;abs 0xa76
     766:	13 00       	.word	0x0013;	????	Illegal as address instr
     768:	03 02       	.word	0x0203;	????	Illegal as address instr
     76a:	94 39       	jl	$+810    	;abs 0xa94
     76c:	03 74       	.word	0x7403;	????	Illegal as 2-op instr
     76e:	01 00       	mova	@r0,	r1	
     770:	03 02       	.word	0x0203;	????	Illegal as address instr
     772:	96 39       	jl	$+814    	;abs 0xaa0
     774:	29 00 03 02 	mova	&0x00203,r9	
     778:	9c 39       	jl	$+826    	;abs 0xab2
     77a:	01 00       	mova	@r0,	r1	
     77c:	03 02       	.word	0x0203;	????	Illegal as address instr
     77e:	a6 39       	jl	$+846    	;abs 0xacc
     780:	01 00       	mova	@r0,	r1	
     782:	03 02       	.word	0x0203;	????	Illegal as address instr
     784:	a8 39       	jl	$+850    	;abs 0xad6
     786:	11 00       	mova	#0x00000,r1	
     788:	03 02       	.word	0x0203;	????	Illegal as address instr
     78a:	ac 39       	jl	$+858    	;abs 0xae4
     78c:	1a 00       	mova	#0x00000,r10	
     78e:	03 02       	.word	0x0203;	????	Illegal as address instr
     790:	b8 39       	jl	$+882    	;abs 0xb02
     792:	0b 00       	mova	@r0,	r11	
     794:	03 02       	.word	0x0203;	????	Illegal as address instr
     796:	ba 39       	jl	$+886    	;abs 0xb0c
     798:	1e 00       	mova	#0x00000,r14	
     79a:	03 02       	.word	0x0203;	????	Illegal as address instr
     79c:	be 39       	jl	$+894    	;abs 0xb1a
     79e:	10 00       	bra	#0x00000	
     7a0:	03 02       	.word	0x0203;	????	Illegal as address instr
     7a2:	c8 39       	jl	$+914    	;abs 0xb34
     7a4:	1a 00       	mova	#0x00000,r10	
     7a6:	03 02       	.word	0x0203;	????	Illegal as address instr
     7a8:	d4 39       	jl	$+938    	;abs 0xb52
     7aa:	17 00       	mova	#0x00000,r7	
     7ac:	03 02       	.word	0x0203;	????	Illegal as address instr
     7ae:	d6 39       	jl	$+942    	;abs 0xb5c
     7b0:	15 00       	mova	#0x00000,r5	
     7b2:	03 02       	.word	0x0203;	????	Illegal as address instr
     7b4:	e2 39       	jl	$+966    	;abs 0xb7a
     7b6:	1a 00       	mova	#0x00000,r10	
     7b8:	03 02       	.word	0x0203;	????	Illegal as address instr
     7ba:	f4 39       	jl	$+1002   	;abs 0xba4
     7bc:	03 4c       	.word	0x4c03;	????	Illegal as 2-op instr
     7be:	01 00       	mova	@r0,	r1	
     7c0:	03 02       	.word	0x0203;	????	Illegal as address instr
     7c2:	04 3a       	jl	$-1014   	;abs 0x3cc
     7c4:	17 00       	mova	#0x00000,r7	
     7c6:	03 02       	.word	0x0203;	????	Illegal as address instr
     7c8:	08 3a       	jl	$-1006   	;abs 0x3da
     7ca:	49 00       	rrcm.a	#1,	r9	
     7cc:	03 02       	.word	0x0203;	????	Illegal as address instr
     7ce:	0e 3a       	jl	$-994    	;abs 0x3ec
     7d0:	15 00       	mova	#0x00000,r5	
     7d2:	03 02       	.word	0x0203;	????	Illegal as address instr
     7d4:	14 3a       	jl	$-982    	;abs 0x3fe
     7d6:	03 47       	.word	0x4703;	????	Illegal as 2-op instr
     7d8:	01 00       	mova	@r0,	r1	
     7da:	03 02       	.word	0x0203;	????	Illegal as address instr
     7dc:	24 3a       	jl	$-950    	;abs 0x426
     7de:	15 00       	mova	#0x00000,r5	
     7e0:	03 02       	.word	0x0203;	????	Illegal as address instr
     7e2:	28 3a       	jl	$-942    	;abs 0x434
     7e4:	45 00       	rrcm.a	#1,	r5	
     7e6:	03 02       	.word	0x0203;	????	Illegal as address instr
     7e8:	2c 3a       	jl	$-934    	;abs 0x442
     7ea:	15 00       	mova	#0x00000,r5	
     7ec:	03 02       	.word	0x0203;	????	Illegal as address instr
     7ee:	2e 3a       	jl	$-930    	;abs 0x44c
     7f0:	03 4e       	.word	0x4e03;	????	Illegal as 2-op instr
     7f2:	01 00       	mova	@r0,	r1	
     7f4:	03 02       	.word	0x0203;	????	Illegal as address instr
     7f6:	34 3a       	jl	$-918    	;abs 0x460
     7f8:	47 00       	rrcm.a	#1,	r7	
     7fa:	03 02       	.word	0x0203;	????	Illegal as address instr
     7fc:	3a 3a       	jl	$-906    	;abs 0x472
     7fe:	03 be       	.word	0xbe03;	????	Illegal as 2-op instr
     800:	7d 01 00 03 	mova	r1,	768(r13);0x0300(r13)
     804:	02 3a       	jl	$-1018   	;abs 0x40a
     806:	3a 15       	pushm	#4,	r10	
     808:	00 03       	bra	#2		;r3 As==10
     80a:	02 3e       	jmp	$-1018   	;abs 0x410
     80c:	3a 16       	popm.a	#4,	r13	
     80e:	00 03       	bra	#2		;r3 As==10
     810:	02 42       	mov	r2,	r2	
     812:	3a 03 c9 02 	mova	#1,	r10	;r3 As==01
     816:	01 00       	mova	@r0,	r1	
     818:	03 02       	.word	0x0203;	????	Illegal as address instr
     81a:	50 3a       	jl	$-862    	;abs 0x4bc
     81c:	15 00       	mova	#0x00000,r5	
     81e:	03 02       	.word	0x0203;	????	Illegal as address instr
     820:	56 3a       	jl	$-850    	;abs 0x4ce
     822:	01 00       	mova	@r0,	r1	
     824:	03 02       	.word	0x0203;	????	Illegal as address instr
     826:	5a 3a       	jl	$-842    	;abs 0x4dc
     828:	01 00       	mova	@r0,	r1	
     82a:	03 02       	.word	0x0203;	????	Illegal as address instr
     82c:	66 3a       	jl	$-818    	;abs 0x4fa
     82e:	21 00 03 02 	mova	&0x00203,r1	
     832:	68 3a       	jl	$-814    	;abs 0x504
     834:	13 00       	.word	0x0013;	????	Illegal as address instr
     836:	03 02       	.word	0x0203;	????	Illegal as address instr
     838:	8c 3a       	jl	$-742    	;abs 0x552
     83a:	15 00       	mova	#0x00000,r5	
     83c:	03 02       	.word	0x0203;	????	Illegal as address instr
     83e:	9e 3a       	jl	$-706    	;abs 0x57c
     840:	15 00       	mova	#0x00000,r5	
     842:	03 02       	.word	0x0203;	????	Illegal as address instr
     844:	b4 3a       	jl	$-662    	;abs 0x5ae
     846:	16 00       	mova	#0x00000,r6	
     848:	03 02       	.word	0x0203;	????	Illegal as address instr
     84a:	c0 3a       	jl	$-638    	;abs 0x5cc
     84c:	10 00       	bra	#0x00000	
     84e:	03 02       	.word	0x0203;	????	Illegal as address instr
     850:	c4 3a       	jl	$-630    	;abs 0x5da
     852:	03 74       	.word	0x7403;	????	Illegal as 2-op instr
     854:	01 00       	mova	@r0,	r1	
     856:	03 02       	.word	0x0203;	????	Illegal as address instr
     858:	c6 3a       	jl	$-626    	;abs 0x5e6
     85a:	21 00 03 02 	mova	&0x00203,r1	
     85e:	c8 3a       	jl	$-622    	;abs 0x5f0
     860:	13 00       	.word	0x0013;	????	Illegal as address instr
     862:	03 02       	.word	0x0203;	????	Illegal as address instr
     864:	ce 3a       	jl	$-610    	;abs 0x602
     866:	1b 00       	mova	#0x00000,r11	
     868:	03 02       	.word	0x0203;	????	Illegal as address instr
     86a:	d6 3a       	jl	$-594    	;abs 0x618
     86c:	15 00       	mova	#0x00000,r5	
     86e:	03 02       	.word	0x0203;	????	Illegal as address instr
     870:	da 3a       	jl	$-586    	;abs 0x626
     872:	15 00       	mova	#0x00000,r5	
     874:	03 02       	.word	0x0203;	????	Illegal as address instr
     876:	e0 3a       	jl	$-574    	;abs 0x638
     878:	03 b4       	.word	0xb403;	????	Illegal as 2-op instr
     87a:	7f 01 00 03 	mova	r1,	768(r15);0x0300(r15)
     87e:	02 e8       	xor	r8,	r2	
     880:	3a 15       	pushm	#4,	r10	
     882:	00 03       	bra	#2		;r3 As==10
     884:	02 ee       	xor	r14,	r2	
     886:	3a 16       	popm.a	#4,	r13	
     888:	00 03       	bra	#2		;r3 As==10
     88a:	02 f2       	and	r2,	r2	
     88c:	3a 15       	pushm	#4,	r10	
     88e:	00 03       	bra	#2		;r3 As==10
     890:	02 f6       	and	r6,	r2	
     892:	3a 5e       	add	@r14+,	r10	
     894:	00 03       	bra	#2		;r3 As==10
     896:	02 fa       	and	r10,	r2	
     898:	3a 15       	pushm	#4,	r10	
     89a:	00 03       	bra	#2		;r3 As==10
     89c:	02 02       	mova	#4,	r2	;r2 As==10
     89e:	3b 15       	pushm	#4,	r11	
     8a0:	00 03       	bra	#2		;r3 As==10
     8a2:	02 04       	mova	@r4,	r2	
     8a4:	3b 12       	push	@r11+		
     8a6:	00 03       	bra	#2		;r3 As==10
     8a8:	02 08       	mova	@r8,	r2	
     8aa:	3b 18       	.word	0x183b;	????	
     8ac:	00 03       	bra	#2		;r3 As==10
     8ae:	02 0e       	mova	@r14,	r2	
     8b0:	3b 03 af 7f 	mova	#1,	r11	;r3 As==01
     8b4:	01 00       	mova	@r0,	r1	
     8b6:	03 02       	.word	0x0203;	????	Illegal as address instr
     8b8:	92 3d       	jmp	$+806    	;abs 0xbde
     8ba:	00 01       	bra	@r1		
     8bc:	01 3c       	jmp	$+4      	;abs 0x8c0
     8be:	06 00       	mova	@r0,	r6	
     8c0:	00 02       	bra	#4		;r2 As==10
     8c2:	00 76       	subc	r6,	r0	
     8c4:	00 00       	bra	@r0		
     8c6:	00 01       	bra	@r1		
     8c8:	01 f6       	and	r6,	r1	
     8ca:	f5 0a       	suba	r10,	r5	
     8cc:	00 01       	bra	@r1		
     8ce:	01 01       	mova	@r1,	r1	
     8d0:	01 00       	mova	@r0,	r1	
     8d2:	00 00       	bra	@r0		
     8d4:	01 63       	adc	r1		
     8d6:	3a 5c       	add	@r12+,	r10	
     8d8:	6d 73       	subc.b	#2,	r13	;r3 As==10
     8da:	70 67       	addc.b	@r7+,	r0	
     8dc:	63 63       	.word	0x6363;	????	Illegal as 2-op instr
     8de:	5c 62 69 6e 	addc.b	&0x6e69,r12	
     8e2:	5c 2e       	jc	$-838    	;abs 0x59c
     8e4:	2e 2f       	jc	$-418    	;abs 0x742
     8e6:	6c 69       	addc.b	@r9,	r12	
     8e8:	62 2f       	jc	$-314    	;abs 0x7ae
     8ea:	67 63       	addc.b	#2,	r7	;r3 As==10
     8ec:	63 2f       	jc	$-312    	;abs 0x7b4
     8ee:	6d 73       	subc.b	#2,	r13	;r3 As==10
     8f0:	70 34       	jge	$+226    	;abs 0x9d2
     8f2:	33 30       	jn	$+104    	;abs 0x95a
     8f4:	2f 34       	jge	$+96     	;abs 0x954
     8f6:	2e 35       	jge	$+606    	;abs 0xb54
     8f8:	2e 33       	jn	$-418    	;abs 0x756
     8fa:	2f 2e       	jc	$-928    	;abs 0x55a
     8fc:	2e 2f       	jc	$-418    	;abs 0x75a
     8fe:	2e 2e       	jc	$-930    	;abs 0x55c
     900:	2f 2e       	jc	$-928    	;abs 0x560
     902:	2e 2f       	jc	$-418    	;abs 0x760
     904:	2e 2e       	jc	$-930    	;abs 0x562
     906:	2f 6d       	addc	@r13,	r15	
     908:	73 70       	.word	0x7073;	????	Illegal as 2-op instr
     90a:	34 33       	jn	$-406    	;abs 0x774
     90c:	30 2f       	jc	$-414    	;abs 0x76e
     90e:	69 6e       	addc.b	@r14,	r9	
     910:	63 6c       	.word	0x6c63;	????	Illegal as 2-op instr
     912:	75 64       	addc.b	@r4+,	r5	
     914:	65 00 00 69 	mova	r0,	&0x56900
     918:	32 63       	addc	#-1,	r2	;r3 As==11
     91a:	2e 63       	addc	#2,	r14	;r3 As==10
     91c:	00 00       	bra	@r0		
     91e:	00 00       	bra	@r0		
     920:	6d 73       	subc.b	#2,	r13	;r3 As==10
     922:	70 34       	jge	$+226    	;abs 0xa04
     924:	33 30       	jn	$+104    	;abs 0x98c
     926:	66 32       	jn	$-818    	;abs 0x5f4
     928:	36 31       	jn	$+622    	;abs 0xb96
     92a:	38 2e       	jc	$-910    	;abs 0x59c
     92c:	68 00 01 00 	mova	r0,	&0x80001
     930:	00 64       	addc	r4,	r0	
     932:	65 6c       	addc.b	@r12,	r5	
     934:	61 79       	subc.b	@r9,	r1	
     936:	2e 68       	addc	@r8,	r14	
     938:	00 00       	bra	@r0		
     93a:	00 00       	bra	@r0		
     93c:	00 00       	bra	@r0		
     93e:	03 02       	.word	0x0203;	????	Illegal as address instr
     940:	92 3d       	jmp	$+806    	;abs 0xc66
     942:	33 00       	.word	0x0033;	????	Illegal as address instr
     944:	03 02       	.word	0x0203;	????	Illegal as address instr
     946:	92 3d       	jmp	$+806    	;abs 0xc6c
     948:	15 00       	mova	#0x00000,r5	
     94a:	03 02       	.word	0x0203;	????	Illegal as address instr
     94c:	96 3d       	jmp	$+814    	;abs 0xc7a
     94e:	15 00       	mova	#0x00000,r5	
     950:	03 02       	.word	0x0203;	????	Illegal as address instr
     952:	98 3d       	jmp	$+818    	;abs 0xc84
     954:	17 00       	mova	#0x00000,r7	
     956:	03 02       	.word	0x0203;	????	Illegal as address instr
     958:	98 3d       	jmp	$+818    	;abs 0xc8a
     95a:	15 00       	mova	#0x00000,r5	
     95c:	03 02       	.word	0x0203;	????	Illegal as address instr
     95e:	9e 3d       	jmp	$+830    	;abs 0xc9c
     960:	15 00       	mova	#0x00000,r5	
     962:	03 02       	.word	0x0203;	????	Illegal as address instr
     964:	a2 3d       	jmp	$+838    	;abs 0xcaa
     966:	15 00       	mova	#0x00000,r5	
     968:	03 02       	.word	0x0203;	????	Illegal as address instr
     96a:	a6 3d       	jmp	$+846    	;abs 0xcb8
     96c:	15 00       	mova	#0x00000,r5	
     96e:	03 02       	.word	0x0203;	????	Illegal as address instr
     970:	aa 3d       	jmp	$+854    	;abs 0xcc6
     972:	15 00       	mova	#0x00000,r5	
     974:	03 02       	.word	0x0203;	????	Illegal as address instr
     976:	ac 3d       	jmp	$+858    	;abs 0xcd0
     978:	03 70       	.word	0x7003;	????	Illegal as 2-op instr
     97a:	01 00       	mova	@r0,	r1	
     97c:	03 02       	.word	0x0203;	????	Illegal as address instr
     97e:	b0 3d       	jmp	$+866    	;abs 0xce0
     980:	15 00       	mova	#0x00000,r5	
     982:	03 02       	.word	0x0203;	????	Illegal as address instr
     984:	b4 3d       	jmp	$+874    	;abs 0xcee
     986:	15 00       	mova	#0x00000,r5	
     988:	03 02       	.word	0x0203;	????	Illegal as address instr
     98a:	b8 3d       	jmp	$+882    	;abs 0xcfc
     98c:	15 00       	mova	#0x00000,r5	
     98e:	03 02       	.word	0x0203;	????	Illegal as address instr
     990:	bc 3d       	jmp	$+890    	;abs 0xd0a
     992:	24 00 03 02 	mova	&0x00203,r4	
     996:	bc 3d       	jmp	$+890    	;abs 0xd10
     998:	15 00       	mova	#0x00000,r5	
     99a:	03 02       	.word	0x0203;	????	Illegal as address instr
     99c:	c0 3d       	jmp	$+898    	;abs 0xd1e
     99e:	15 00       	mova	#0x00000,r5	
     9a0:	03 02       	.word	0x0203;	????	Illegal as address instr
     9a2:	c4 3d       	jmp	$+906    	;abs 0xd2c
     9a4:	15 00       	mova	#0x00000,r5	
     9a6:	03 02       	.word	0x0203;	????	Illegal as address instr
     9a8:	c8 3d       	jmp	$+914    	;abs 0xd3a
     9aa:	15 00       	mova	#0x00000,r5	
     9ac:	03 02       	.word	0x0203;	????	Illegal as address instr
     9ae:	cc 3d       	jmp	$+922    	;abs 0xd48
     9b0:	16 00       	mova	#0x00000,r6	
     9b2:	03 02       	.word	0x0203;	????	Illegal as address instr
     9b4:	d2 3d       	jmp	$+934    	;abs 0xd5a
     9b6:	15 00       	mova	#0x00000,r5	
     9b8:	03 02       	.word	0x0203;	????	Illegal as address instr
     9ba:	d6 3d       	jmp	$+942    	;abs 0xd68
     9bc:	15 00       	mova	#0x00000,r5	
     9be:	03 02       	.word	0x0203;	????	Illegal as address instr
     9c0:	dc 3d       	jmp	$+954    	;abs 0xd7a
     9c2:	15 00       	mova	#0x00000,r5	
     9c4:	03 02       	.word	0x0203;	????	Illegal as address instr
     9c6:	e0 3d       	jmp	$+962    	;abs 0xd88
     9c8:	15 00       	mova	#0x00000,r5	
     9ca:	03 02       	.word	0x0203;	????	Illegal as address instr
     9cc:	e2 3d       	jmp	$+966    	;abs 0xd92
     9ce:	17 00       	mova	#0x00000,r7	
     9d0:	03 02       	.word	0x0203;	????	Illegal as address instr
     9d2:	e2 3d       	jmp	$+966    	;abs 0xd98
     9d4:	15 00       	mova	#0x00000,r5	
     9d6:	03 02       	.word	0x0203;	????	Illegal as address instr
     9d8:	e8 3d       	jmp	$+978    	;abs 0xdaa
     9da:	15 00       	mova	#0x00000,r5	
     9dc:	03 02       	.word	0x0203;	????	Illegal as address instr
     9de:	ec 3d       	jmp	$+986    	;abs 0xdb8
     9e0:	15 00       	mova	#0x00000,r5	
     9e2:	03 02       	.word	0x0203;	????	Illegal as address instr
     9e4:	f0 3d       	jmp	$+994    	;abs 0xdc6
     9e6:	15 00       	mova	#0x00000,r5	
     9e8:	03 02       	.word	0x0203;	????	Illegal as address instr
     9ea:	f4 3d       	jmp	$+1002   	;abs 0xdd4
     9ec:	15 00       	mova	#0x00000,r5	
     9ee:	03 02       	.word	0x0203;	????	Illegal as address instr
     9f0:	f8 3d       	jmp	$+1010   	;abs 0xde2
     9f2:	15 00       	mova	#0x00000,r5	
     9f4:	03 02       	.word	0x0203;	????	Illegal as address instr
     9f6:	fc 3d       	jmp	$+1018   	;abs 0xdf0
     9f8:	15 00       	mova	#0x00000,r5	
     9fa:	03 02       	.word	0x0203;	????	Illegal as address instr
     9fc:	fe 3d       	jmp	$+1022   	;abs 0xdfa
     9fe:	17 00       	mova	#0x00000,r7	
     a00:	03 02       	.word	0x0203;	????	Illegal as address instr
     a02:	00 3e       	jmp	$-1022   	;abs 0x604
     a04:	17 00       	mova	#0x00000,r7	
     a06:	03 02       	.word	0x0203;	????	Illegal as address instr
     a08:	06 3e       	jmp	$-1010   	;abs 0x616
     a0a:	15 00       	mova	#0x00000,r5	
     a0c:	03 02       	.word	0x0203;	????	Illegal as address instr
     a0e:	0a 3e       	jmp	$-1002   	;abs 0x624
     a10:	15 00       	mova	#0x00000,r5	
     a12:	03 02       	.word	0x0203;	????	Illegal as address instr
     a14:	0e 3e       	jmp	$-994    	;abs 0x632
     a16:	15 00       	mova	#0x00000,r5	
     a18:	03 02       	.word	0x0203;	????	Illegal as address instr
     a1a:	12 3e       	jmp	$-986    	;abs 0x640
     a1c:	15 00       	mova	#0x00000,r5	
     a1e:	03 02       	.word	0x0203;	????	Illegal as address instr
     a20:	16 3e       	jmp	$-978    	;abs 0x64e
     a22:	15 00       	mova	#0x00000,r5	
     a24:	03 02       	.word	0x0203;	????	Illegal as address instr
     a26:	1a 3e       	jmp	$-970    	;abs 0x65c
     a28:	15 00       	mova	#0x00000,r5	
     a2a:	03 02       	.word	0x0203;	????	Illegal as address instr
     a2c:	20 3e       	jmp	$-958    	;abs 0x66e
     a2e:	15 00       	mova	#0x00000,r5	
     a30:	03 02       	.word	0x0203;	????	Illegal as address instr
     a32:	24 3e       	jmp	$-950    	;abs 0x67c
     a34:	15 00       	mova	#0x00000,r5	
     a36:	03 02       	.word	0x0203;	????	Illegal as address instr
     a38:	2a 3e       	jmp	$-938    	;abs 0x68e
     a3a:	10 00       	bra	#0x00000	
     a3c:	03 02       	.word	0x0203;	????	Illegal as address instr
     a3e:	34 3e       	jmp	$-918    	;abs 0x6a8
     a40:	1b 00       	mova	#0x00000,r11	
     a42:	03 02       	.word	0x0203;	????	Illegal as address instr
     a44:	38 3e       	jmp	$-910    	;abs 0x6b6
     a46:	0d 00       	mova	@r0,	r13	
     a48:	03 02       	.word	0x0203;	????	Illegal as address instr
     a4a:	3a 3e       	jmp	$-906    	;abs 0x6c0
     a4c:	1b 00       	mova	#0x00000,r11	
     a4e:	03 02       	.word	0x0203;	????	Illegal as address instr
     a50:	3e 3e       	jmp	$-898    	;abs 0x6ce
     a52:	17 00       	mova	#0x00000,r7	
     a54:	03 02       	.word	0x0203;	????	Illegal as address instr
     a56:	3e 3e       	jmp	$-898    	;abs 0x6d4
     a58:	15 00       	mova	#0x00000,r5	
     a5a:	03 02       	.word	0x0203;	????	Illegal as address instr
     a5c:	44 3e       	jmp	$-886    	;abs 0x6e6
     a5e:	15 00       	mova	#0x00000,r5	
     a60:	03 02       	.word	0x0203;	????	Illegal as address instr
     a62:	48 3e       	jmp	$-878    	;abs 0x6f4
     a64:	01 00       	mova	@r0,	r1	
     a66:	03 02       	.word	0x0203;	????	Illegal as address instr
     a68:	4e 3e       	jmp	$-866    	;abs 0x706
     a6a:	15 00       	mova	#0x00000,r5	
     a6c:	03 02       	.word	0x0203;	????	Illegal as address instr
     a6e:	52 3e       	jmp	$-858    	;abs 0x714
     a70:	15 00       	mova	#0x00000,r5	
     a72:	03 02       	.word	0x0203;	????	Illegal as address instr
     a74:	56 3e       	jmp	$-850    	;abs 0x722
     a76:	15 00       	mova	#0x00000,r5	
     a78:	03 02       	.word	0x0203;	????	Illegal as address instr
     a7a:	5c 3e       	jmp	$-838    	;abs 0x734
     a7c:	15 00       	mova	#0x00000,r5	
     a7e:	03 02       	.word	0x0203;	????	Illegal as address instr
     a80:	60 3e       	jmp	$-830    	;abs 0x742
     a82:	15 00       	mova	#0x00000,r5	
     a84:	03 02       	.word	0x0203;	????	Illegal as address instr
     a86:	66 3e       	jmp	$-818    	;abs 0x754
     a88:	15 00       	mova	#0x00000,r5	
     a8a:	03 02       	.word	0x0203;	????	Illegal as address instr
     a8c:	68 3e       	jmp	$-814    	;abs 0x75e
     a8e:	0e 00       	mova	@r0,	r14	
     a90:	03 02       	.word	0x0203;	????	Illegal as address instr
     a92:	6e 3e       	jmp	$-802    	;abs 0x770
     a94:	1d 00       	mova	#0x00000,r13	
     a96:	03 02       	.word	0x0203;	????	Illegal as address instr
     a98:	76 3e       	jmp	$-786    	;abs 0x786
     a9a:	18 00       	mova	#0x00000,r8	
     a9c:	03 02       	.word	0x0203;	????	Illegal as address instr
     a9e:	7e 3e       	jmp	$-770    	;abs 0x79c
     aa0:	11 00       	mova	#0x00000,r1	
     aa2:	03 02       	.word	0x0203;	????	Illegal as address instr
     aa4:	84 3e       	jmp	$-758    	;abs 0x7ae
     aa6:	1a 00       	mova	#0x00000,r10	
     aa8:	03 02       	.word	0x0203;	????	Illegal as address instr
     aaa:	88 3e       	jmp	$-750    	;abs 0x7bc
     aac:	15 00       	mova	#0x00000,r5	
     aae:	03 02       	.word	0x0203;	????	Illegal as address instr
     ab0:	8c 3e       	jmp	$-742    	;abs 0x7ca
     ab2:	15 00       	mova	#0x00000,r5	
     ab4:	03 02       	.word	0x0203;	????	Illegal as address instr
     ab6:	90 3e       	jmp	$-734    	;abs 0x7d8
     ab8:	15 00       	mova	#0x00000,r5	
     aba:	03 02       	.word	0x0203;	????	Illegal as address instr
     abc:	94 3e       	jmp	$-726    	;abs 0x7e6
     abe:	15 00       	mova	#0x00000,r5	
     ac0:	03 02       	.word	0x0203;	????	Illegal as address instr
     ac2:	9a 3e       	jmp	$-714    	;abs 0x7f8
     ac4:	15 00       	mova	#0x00000,r5	
     ac6:	03 02       	.word	0x0203;	????	Illegal as address instr
     ac8:	a0 3e       	jmp	$-702    	;abs 0x80a
     aca:	0d 00       	mova	@r0,	r13	
     acc:	03 02       	.word	0x0203;	????	Illegal as address instr
     ace:	a2 3e       	jmp	$-698    	;abs 0x814
     ad0:	1c 00       	mova	#0x00000,r12	
     ad2:	03 02       	.word	0x0203;	????	Illegal as address instr
     ad4:	a4 3e       	jmp	$-694    	;abs 0x81e
     ad6:	0e 00       	mova	@r0,	r14	
     ad8:	03 02       	.word	0x0203;	????	Illegal as address instr
     ada:	aa 3e       	jmp	$-682    	;abs 0x830
     adc:	01 00       	mova	@r0,	r1	
     ade:	03 02       	.word	0x0203;	????	Illegal as address instr
     ae0:	b2 3e       	jmp	$-666    	;abs 0x846
     ae2:	1c 00       	mova	#0x00000,r12	
     ae4:	03 02       	.word	0x0203;	????	Illegal as address instr
     ae6:	ba 3e       	jmp	$-650    	;abs 0x85c
     ae8:	17 00       	mova	#0x00000,r7	
     aea:	03 02       	.word	0x0203;	????	Illegal as address instr
     aec:	be 3e       	jmp	$-642    	;abs 0x86a
     aee:	18 00       	mova	#0x00000,r8	
     af0:	03 02       	.word	0x0203;	????	Illegal as address instr
     af2:	c6 3e       	jmp	$-626    	;abs 0x880
     af4:	12 00       	mova	#0x00000,r2	
     af6:	03 02       	.word	0x0203;	????	Illegal as address instr
     af8:	c8 3e       	jmp	$-622    	;abs 0x88a
     afa:	19 00       	mova	#0x00000,r9	
     afc:	03 02       	.word	0x0203;	????	Illegal as address instr
     afe:	cc 3e       	jmp	$-614    	;abs 0x898
     b00:	15 00       	mova	#0x00000,r5	
     b02:	03 02       	.word	0x0203;	????	Illegal as address instr
     b04:	d0 3e       	jmp	$-606    	;abs 0x8a6
     b06:	15 00       	mova	#0x00000,r5	
     b08:	03 02       	.word	0x0203;	????	Illegal as address instr
     b0a:	d4 3e       	jmp	$-598    	;abs 0x8b4
     b0c:	15 00       	mova	#0x00000,r5	
     b0e:	03 02       	.word	0x0203;	????	Illegal as address instr
     b10:	dc 3e       	jmp	$-582    	;abs 0x8ca
     b12:	01 00       	mova	@r0,	r1	
     b14:	03 02       	.word	0x0203;	????	Illegal as address instr
     b16:	de 3e       	jmp	$-578    	;abs 0x8d4
     b18:	15 00       	mova	#0x00000,r5	
     b1a:	03 02       	.word	0x0203;	????	Illegal as address instr
     b1c:	e2 3e       	jmp	$-570    	;abs 0x8e2
     b1e:	15 00       	mova	#0x00000,r5	
     b20:	03 02       	.word	0x0203;	????	Illegal as address instr
     b22:	e8 3e       	jmp	$-558    	;abs 0x8f4
     b24:	15 00       	mova	#0x00000,r5	
     b26:	03 02       	.word	0x0203;	????	Illegal as address instr
     b28:	ee 3e       	jmp	$-546    	;abs 0x906
     b2a:	0c 00       	mova	@r0,	r12	
     b2c:	03 02       	.word	0x0203;	????	Illegal as address instr
     b2e:	f0 3e       	jmp	$-542    	;abs 0x910
     b30:	20 00 03 02 	bra	&0x00203	
     b34:	f8 3e       	jmp	$-526    	;abs 0x926
     b36:	1c 00       	mova	#0x00000,r12	
     b38:	03 02       	.word	0x0203;	????	Illegal as address instr
     b3a:	fa 3e       	jmp	$-522    	;abs 0x930
     b3c:	17 00       	mova	#0x00000,r7	
     b3e:	03 02       	.word	0x0203;	????	Illegal as address instr
     b40:	fe 3e       	jmp	$-514    	;abs 0x93e
     b42:	15 00       	mova	#0x00000,r5	
     b44:	03 02       	.word	0x0203;	????	Illegal as address instr
     b46:	06 3f       	jmp	$-498    	;abs 0x954
     b48:	15 00       	mova	#0x00000,r5	
     b4a:	03 02       	.word	0x0203;	????	Illegal as address instr
     b4c:	0a 3f       	jmp	$-490    	;abs 0x962
     b4e:	15 00       	mova	#0x00000,r5	
     b50:	03 02       	.word	0x0203;	????	Illegal as address instr
     b52:	12 3f       	jmp	$-474    	;abs 0x978
     b54:	17 00       	mova	#0x00000,r7	
     b56:	03 02       	.word	0x0203;	????	Illegal as address instr
     b58:	18 3f       	jmp	$-462    	;abs 0x98a
     b5a:	17 00       	mova	#0x00000,r7	
     b5c:	03 02       	.word	0x0203;	????	Illegal as address instr
     b5e:	1a 3f       	jmp	$-458    	;abs 0x994
     b60:	17 00       	mova	#0x00000,r7	
     b62:	03 02       	.word	0x0203;	????	Illegal as address instr
     b64:	22 3f       	jmp	$-442    	;abs 0x9aa
     b66:	15 00       	mova	#0x00000,r5	
     b68:	03 02       	.word	0x0203;	????	Illegal as address instr
     b6a:	28 3f       	jmp	$-430    	;abs 0x9bc
     b6c:	15 00       	mova	#0x00000,r5	
     b6e:	03 02       	.word	0x0203;	????	Illegal as address instr
     b70:	2c 3f       	jmp	$-422    	;abs 0x9ca
     b72:	15 00       	mova	#0x00000,r5	
     b74:	03 02       	.word	0x0203;	????	Illegal as address instr
     b76:	34 3f       	jmp	$-406    	;abs 0x9e0
     b78:	17 00       	mova	#0x00000,r7	
     b7a:	03 02       	.word	0x0203;	????	Illegal as address instr
     b7c:	3a 3f       	jmp	$-394    	;abs 0x9f2
     b7e:	17 00       	mova	#0x00000,r7	
     b80:	03 02       	.word	0x0203;	????	Illegal as address instr
     b82:	44 3f       	jmp	$-374    	;abs 0xa0c
     b84:	17 00       	mova	#0x00000,r7	
     b86:	03 02       	.word	0x0203;	????	Illegal as address instr
     b88:	48 3f       	jmp	$-366    	;abs 0xa1a
     b8a:	15 00       	mova	#0x00000,r5	
     b8c:	03 02       	.word	0x0203;	????	Illegal as address instr
     b8e:	50 3f       	jmp	$-350    	;abs 0xa30
     b90:	15 00       	mova	#0x00000,r5	
     b92:	03 02       	.word	0x0203;	????	Illegal as address instr
     b94:	56 3f       	jmp	$-338    	;abs 0xa42
     b96:	15 00       	mova	#0x00000,r5	
     b98:	03 02       	.word	0x0203;	????	Illegal as address instr
     b9a:	5c 3f       	jmp	$-326    	;abs 0xa54
     b9c:	15 00       	mova	#0x00000,r5	
     b9e:	03 02       	.word	0x0203;	????	Illegal as address instr
     ba0:	62 3f       	jmp	$-314    	;abs 0xa66
     ba2:	15 00       	mova	#0x00000,r5	
     ba4:	03 02       	.word	0x0203;	????	Illegal as address instr
     ba6:	68 3f       	jmp	$-302    	;abs 0xa78
     ba8:	15 00       	mova	#0x00000,r5	
     baa:	03 02       	.word	0x0203;	????	Illegal as address instr
     bac:	6e 3f       	jmp	$-290    	;abs 0xa8a
     bae:	15 00       	mova	#0x00000,r5	
     bb0:	03 02       	.word	0x0203;	????	Illegal as address instr
     bb2:	72 3f       	jmp	$-282    	;abs 0xa98
     bb4:	11 00       	mova	#0x00000,r1	
     bb6:	03 02       	.word	0x0203;	????	Illegal as address instr
     bb8:	76 3f       	jmp	$-274    	;abs 0xaa6
     bba:	1a 00       	mova	#0x00000,r10	
     bbc:	03 02       	.word	0x0203;	????	Illegal as address instr
     bbe:	82 3f       	jmp	$-250    	;abs 0xac4
     bc0:	17 00       	mova	#0x00000,r7	
     bc2:	03 02       	.word	0x0203;	????	Illegal as address instr
     bc4:	90 3f       	jmp	$-222    	;abs 0xae6
     bc6:	17 00       	mova	#0x00000,r7	
     bc8:	03 02       	.word	0x0203;	????	Illegal as address instr
     bca:	94 3f       	jmp	$-214    	;abs 0xaf4
     bcc:	15 00       	mova	#0x00000,r5	
     bce:	03 02       	.word	0x0203;	????	Illegal as address instr
     bd0:	9c 3f       	jmp	$-198    	;abs 0xb0a
     bd2:	15 00       	mova	#0x00000,r5	
     bd4:	03 02       	.word	0x0203;	????	Illegal as address instr
     bd6:	a2 3f       	jmp	$-186    	;abs 0xb1c
     bd8:	15 00       	mova	#0x00000,r5	
     bda:	03 02       	.word	0x0203;	????	Illegal as address instr
     bdc:	a8 3f       	jmp	$-174    	;abs 0xb2e
     bde:	15 00       	mova	#0x00000,r5	
     be0:	03 02       	.word	0x0203;	????	Illegal as address instr
     be2:	b0 3f       	jmp	$-158    	;abs 0xb44
     be4:	12 00       	mova	#0x00000,r2	
     be6:	03 02       	.word	0x0203;	????	Illegal as address instr
     be8:	b4 3f       	jmp	$-150    	;abs 0xb52
     bea:	16 00       	mova	#0x00000,r6	
     bec:	03 02       	.word	0x0203;	????	Illegal as address instr
     bee:	b6 3f       	jmp	$-146    	;abs 0xb5c
     bf0:	15 00       	mova	#0x00000,r5	
     bf2:	03 02       	.word	0x0203;	????	Illegal as address instr
     bf4:	c0 3f       	jmp	$-126    	;abs 0xb76
     bf6:	16 00       	mova	#0x00000,r6	
     bf8:	03 02       	.word	0x0203;	????	Illegal as address instr
     bfa:	c2 3f       	jmp	$-122    	;abs 0xb80
     bfc:	12 00       	mova	#0x00000,r2	
     bfe:	03 02       	.word	0x0203;	????	Illegal as address instr
     c00:	c6 3f       	jmp	$-114    	;abs 0xb8e
     c02:	0b 00       	mova	@r0,	r11	
     c04:	03 02       	.word	0x0203;	????	Illegal as address instr
     c06:	ca 3f       	jmp	$-106    	;abs 0xb9c
     c08:	1f 00       	mova	#0x00000,r15	
     c0a:	03 02       	.word	0x0203;	????	Illegal as address instr
     c0c:	d0 3f       	jmp	$-94     	;abs 0xbae
     c0e:	15 00       	mova	#0x00000,r5	
     c10:	03 02       	.word	0x0203;	????	Illegal as address instr
     c12:	d6 3f       	jmp	$-82     	;abs 0xbc0
     c14:	11 00       	mova	#0x00000,r1	
     c16:	03 02       	.word	0x0203;	????	Illegal as address instr
     c18:	da 3f       	jmp	$-74     	;abs 0xbce
     c1a:	19 00       	mova	#0x00000,r9	
     c1c:	03 02       	.word	0x0203;	????	Illegal as address instr
     c1e:	de 3f       	jmp	$-66     	;abs 0xbdc
     c20:	18 00       	mova	#0x00000,r8	
     c22:	03 02       	.word	0x0203;	????	Illegal as address instr
     c24:	ea 3f       	jmp	$-42     	;abs 0xbfa
     c26:	0b 00       	mova	@r0,	r11	
     c28:	03 02       	.word	0x0203;	????	Illegal as address instr
     c2a:	ee 3f       	jmp	$-34     	;abs 0xc08
     c2c:	20 00 03 02 	bra	&0x00203	
     c30:	fc 3f       	jmp	$-6      	;abs 0xc2a
     c32:	17 00       	mova	#0x00000,r7	
     c34:	03 02       	.word	0x0203;	????	Illegal as address instr
     c36:	00 40       	br	r0		
     c38:	15 00       	mova	#0x00000,r5	
     c3a:	03 02       	.word	0x0203;	????	Illegal as address instr
     c3c:	08 40       	mov	r0,	r8	
     c3e:	15 00       	mova	#0x00000,r5	
     c40:	03 02       	.word	0x0203;	????	Illegal as address instr
     c42:	0e 40       	mov	r0,	r14	
     c44:	15 00       	mova	#0x00000,r5	
     c46:	03 02       	.word	0x0203;	????	Illegal as address instr
     c48:	22 40       	mov	@r0,	r2	
     c4a:	15 00       	mova	#0x00000,r5	
     c4c:	03 02       	.word	0x0203;	????	Illegal as address instr
     c4e:	28 40       	mov	@r0,	r8	
     c50:	15 00       	mova	#0x00000,r5	
     c52:	03 02       	.word	0x0203;	????	Illegal as address instr
     c54:	42 40       	mov.b	r0,	r2	
     c56:	15 00       	mova	#0x00000,r5	
     c58:	03 02       	.word	0x0203;	????	Illegal as address instr
     c5a:	48 40       	mov.b	r0,	r8	
     c5c:	15 00       	mova	#0x00000,r5	
     c5e:	03 02       	.word	0x0203;	????	Illegal as address instr
     c60:	4e 40       	mov.b	r0,	r14	
     c62:	15 00       	mova	#0x00000,r5	
     c64:	03 02       	.word	0x0203;	????	Illegal as address instr
     c66:	54 40 15 00 	mov.b	0x0015,	r4	;PC rel. 0x00c7f
     c6a:	03 02       	.word	0x0203;	????	Illegal as address instr
     c6c:	58 40 0f 00 	mov.b	0x000f,	r8	;PC rel. 0x00c7f
     c70:	03 02       	.word	0x0203;	????	Illegal as address instr
     c72:	5c 40 16 00 	mov.b	0x0016,	r12	;PC rel. 0x00c8c
     c76:	03 02       	.word	0x0203;	????	Illegal as address instr
     c78:	5e 40 1a 00 	mov.b	0x001a,	r14	;PC rel. 0x00c96
     c7c:	03 02       	.word	0x0203;	????	Illegal as address instr
     c7e:	6e 40       	mov.b	@r0,	r14	
     c80:	17 00       	mova	#0x00000,r7	
     c82:	03 02       	.word	0x0203;	????	Illegal as address instr
     c84:	7c 40 17 00 	mov.b	#23,	r12	;#0x0017
     c88:	03 02       	.word	0x0203;	????	Illegal as address instr
     c8a:	80 40 15 00 	mov	r0,	0x0015	;PC rel. 0x00ca3
     c8e:	03 02       	.word	0x0203;	????	Illegal as address instr
     c90:	88 40 15 00 	mov	r0,	21(r8)	;0x0015(r8)
     c94:	03 02       	.word	0x0203;	????	Illegal as address instr
     c96:	8e 40 15 00 	mov	r0,	21(r14)	;0x0015(r14)
     c9a:	03 02       	.word	0x0203;	????	Illegal as address instr
     c9c:	a2 40 15 00 	mov	@r0,	&0x0015	
     ca0:	03 02       	.word	0x0203;	????	Illegal as address instr
     ca2:	aa 40 12 00 	mov	@r0,	18(r10)	;0x0012(r10)
     ca6:	03 02       	.word	0x0203;	????	Illegal as address instr
     ca8:	ae 40 16 00 	mov	@r0,	22(r14)	;0x0016(r14)
     cac:	03 02       	.word	0x0203;	????	Illegal as address instr
     cae:	b2 40 15 00 	mov	#21,	&0x0203	;#0x0015
     cb2:	03 02 
     cb4:	ca 40 15 00 	mov.b	r0,	21(r10)	;0x0015(r10)
     cb8:	03 02       	.word	0x0203;	????	Illegal as address instr
     cba:	d2 40 15 00 	mov.b	0x0015,	&0x0203	;PC rel. 0x00cd3
     cbe:	03 02 
     cc0:	dc 40 16 00 	mov.b	0x0016,	515(r12);PC rel. 0x00cda, 0x0203(r12)
     cc4:	03 02 
     cc6:	de 40 12 00 	mov.b	0x0012,	515(r14);PC rel. 0x00cdc, 0x0203(r14)
     cca:	03 02 
     ccc:	e2 40 03 75 	mov.b	@r0,	&0x7503	
     cd0:	01 00       	mova	@r0,	r1	
     cd2:	03 02       	.word	0x0203;	????	Illegal as address instr
     cd4:	e6 40 21 00 	mov.b	@r0,	33(r6)	;0x0021(r6)
     cd8:	03 02       	.word	0x0203;	????	Illegal as address instr
     cda:	ec 40 15 00 	mov.b	@r0,	21(r12)	;0x0015(r12)
     cde:	03 02       	.word	0x0203;	????	Illegal as address instr
     ce0:	f2 40 11 00 	mov.b	#17,	&0x0203	;#0x0011
     ce4:	03 02 
     ce6:	f6 40 19 00 	mov.b	#25,	515(r6)	;#0x0019, 0x0203(r6)
     cea:	03 02 
     cec:	fa 40 18 00 	mov.b	#24,	515(r10);#0x0018, 0x0203(r10)
     cf0:	03 02 
     cf2:	06 41       	mov	r1,	r6	
     cf4:	17 00       	mova	#0x00000,r7	
     cf6:	03 02       	.word	0x0203;	????	Illegal as address instr
     cf8:	12 41 17 00 	mov	23(r1),	r2	;0x0017(r1)
     cfc:	03 02       	.word	0x0203;	????	Illegal as address instr
     cfe:	16 41 15 00 	mov	21(r1),	r6	;0x0015(r1)
     d02:	03 02       	.word	0x0203;	????	Illegal as address instr
     d04:	1e 41 15 00 	mov	21(r1),	r14	;0x0015(r1)
     d08:	03 02       	.word	0x0203;	????	Illegal as address instr
     d0a:	24 41       	mov	@r1,	r4	
     d0c:	15 00       	mova	#0x00000,r5	
     d0e:	03 02       	.word	0x0203;	????	Illegal as address instr
     d10:	2a 41       	mov	@r1,	r10	
     d12:	15 00       	mova	#0x00000,r5	
     d14:	03 02       	.word	0x0203;	????	Illegal as address instr
     d16:	30 41       	ret			
     d18:	15 00       	mova	#0x00000,r5	
     d1a:	03 02       	.word	0x0203;	????	Illegal as address instr
     d1c:	34 41       	pop	r4		
     d1e:	15 00       	mova	#0x00000,r5	
     d20:	03 02       	.word	0x0203;	????	Illegal as address instr
     d22:	3e 41       	pop	r14		
     d24:	15 00       	mova	#0x00000,r5	
     d26:	03 02       	.word	0x0203;	????	Illegal as address instr
     d28:	44 41       	mov.b	r1,	r4	
     d2a:	15 00       	mova	#0x00000,r5	
     d2c:	03 02       	.word	0x0203;	????	Illegal as address instr
     d2e:	4c 41       	mov.b	r1,	r12	
     d30:	15 00       	mova	#0x00000,r5	
     d32:	03 02       	.word	0x0203;	????	Illegal as address instr
     d34:	52 41 15 00 	mov.b	21(r1),	r2	;0x0015(r1)
     d38:	03 02       	.word	0x0203;	????	Illegal as address instr
     d3a:	56 41 0e 00 	mov.b	14(r1),	r6	;0x000e(r1)
     d3e:	03 02       	.word	0x0203;	????	Illegal as address instr
     d40:	5a 41 1d 00 	mov.b	29(r1),	r10	;0x001d(r1)
     d44:	03 02       	.word	0x0203;	????	Illegal as address instr
     d46:	68 41       	mov.b	@r1,	r8	
     d48:	17 00       	mova	#0x00000,r7	
     d4a:	03 02       	.word	0x0203;	????	Illegal as address instr
     d4c:	76 41       	pop.b	r6		
     d4e:	17 00       	mova	#0x00000,r7	
     d50:	03 02       	.word	0x0203;	????	Illegal as address instr
     d52:	7a 41       	pop.b	r10		
     d54:	15 00       	mova	#0x00000,r5	
     d56:	03 02       	.word	0x0203;	????	Illegal as address instr
     d58:	82 41 15 00 	mov	r1,	&0x0015	
     d5c:	03 02       	.word	0x0203;	????	Illegal as address instr
     d5e:	88 41 15 00 	mov	r1,	21(r8)	;0x0015(r8)
     d62:	03 02       	.word	0x0203;	????	Illegal as address instr
     d64:	8e 41 15 00 	mov	r1,	21(r14)	;0x0015(r14)
     d68:	03 02       	.word	0x0203;	????	Illegal as address instr
     d6a:	96 41 12 00 	mov	18(r1),	515(r6)	;0x0012(r1), 0x0203(r6)
     d6e:	03 02 
     d70:	98 41 16 00 	mov	22(r1),	515(r8)	;0x0016(r1), 0x0203(r8)
     d74:	03 02 
     d76:	9a 41 15 00 	mov	21(r1),	515(r10);0x0015(r1), 0x0203(r10)
     d7a:	03 02 
     d7c:	9e 41 15 00 	mov	21(r1),	515(r14);0x0015(r1), 0x0203(r14)
     d80:	03 02 
     d82:	a8 41 15 00 	mov	@r1,	21(r8)	;0x0015(r8)
     d86:	03 02       	.word	0x0203;	????	Illegal as address instr
     d88:	b0 41 16 00 	pop	0x0016		;PC rel. 0x00da2
     d8c:	03 02       	.word	0x0203;	????	Illegal as address instr
     d8e:	b8 41 16 00 	pop	22(r8)		;0x0016(r8)
     d92:	03 02       	.word	0x0203;	????	Illegal as address instr
     d94:	c0 41 15 00 	mov.b	r1,	0x0015	;PC rel. 0x00dad
     d98:	03 02       	.word	0x0203;	????	Illegal as address instr
     d9a:	c6 41 15 00 	mov.b	r1,	21(r6)	;0x0015(r6)
     d9e:	03 02       	.word	0x0203;	????	Illegal as address instr
     da0:	ca 41 12 00 	mov.b	r1,	18(r10)	;0x0012(r10)
     da4:	03 02       	.word	0x0203;	????	Illegal as address instr
     da6:	ce 41 03 71 	mov.b	r1,	28931(r14);0x7103(r14)
     daa:	01 00       	mova	@r0,	r1	
     dac:	03 02       	.word	0x0203;	????	Illegal as address instr
     dae:	d2 41 23 00 	mov.b	35(r1),	&0x0203	;0x0023(r1)
     db2:	03 02 
     db4:	d6 41 15 00 	mov.b	21(r1),	515(r6)	;0x0015(r1), 0x0203(r6)
     db8:	03 02 
     dba:	dc 41 15 00 	mov.b	21(r1),	515(r12);0x0015(r1), 0x0203(r12)
     dbe:	03 02 
     dc0:	de 41 10 00 	mov.b	16(r1),	515(r14);0x0010(r1), 0x0203(r14)
     dc4:	03 02 
     dc6:	e2 41 1a 00 	mov.b	@r1,	&0x001a	
     dca:	03 02       	.word	0x0203;	????	Illegal as address instr
     dcc:	ec 41 15 00 	mov.b	@r1,	21(r12)	;0x0015(r12)
     dd0:	03 02       	.word	0x0203;	????	Illegal as address instr
     dd2:	f2 41 15 00 	pop.b	&0x0015	
     dd6:	03 02       	.word	0x0203;	????	Illegal as address instr
     dd8:	f6 41 17 00 	pop.b	23(r6)		;0x0017(r6)
     ddc:	03 02       	.word	0x0203;	????	Illegal as address instr
     dde:	02 42       	mov	r2,	r2	
     de0:	03 75       	.word	0x7503;	????	Illegal as 2-op instr
     de2:	01 00       	mova	@r0,	r1	
     de4:	03 02       	.word	0x0203;	????	Illegal as address instr
     de6:	0a 42       	mov	r2,	r10	
     de8:	22 00 03 02 	mova	&0x00203,r2	
     dec:	18 42 17 00 	mov	&0x0017,r8	
     df0:	03 02       	.word	0x0203;	????	Illegal as address instr
     df2:	1c 42 15 00 	mov	&0x0015,r12	
     df6:	03 02       	.word	0x0203;	????	Illegal as address instr
     df8:	24 42       	mov	#4,	r4	;r2 As==10
     dfa:	15 00       	mova	#0x00000,r5	
     dfc:	03 02       	.word	0x0203;	????	Illegal as address instr
     dfe:	2a 42       	mov	#4,	r10	;r2 As==10
     e00:	15 00       	mova	#0x00000,r5	
     e02:	03 02       	.word	0x0203;	????	Illegal as address instr
     e04:	3e 42       	mov	#8,	r14	;r2 As==11
     e06:	15 00       	mova	#0x00000,r5	
     e08:	03 02       	.word	0x0203;	????	Illegal as address instr
     e0a:	44 42       	mov.b	r2,	r4	
     e0c:	15 00       	mova	#0x00000,r5	
     e0e:	03 02       	.word	0x0203;	????	Illegal as address instr
     e10:	5e 42 15 00 	mov.b	&0x0015,r14	
     e14:	03 02       	.word	0x0203;	????	Illegal as address instr
     e16:	64 42       	mov.b	#4,	r4	;r2 As==10
     e18:	15 00       	mova	#0x00000,r5	
     e1a:	03 02       	.word	0x0203;	????	Illegal as address instr
     e1c:	68 42       	mov.b	#4,	r8	;r2 As==10
     e1e:	15 00       	mova	#0x00000,r5	
     e20:	03 02       	.word	0x0203;	????	Illegal as address instr
     e22:	72 42       	mov.b	#8,	r2	;r2 As==11
     e24:	15 00       	mova	#0x00000,r5	
     e26:	03 02       	.word	0x0203;	????	Illegal as address instr
     e28:	78 42       	mov.b	#8,	r8	;r2 As==11
     e2a:	15 00       	mova	#0x00000,r5	
     e2c:	03 02       	.word	0x0203;	????	Illegal as address instr
     e2e:	80 42 15 00 	mov	r2,	0x0015	;PC rel. 0x00e47
     e32:	03 02       	.word	0x0203;	????	Illegal as address instr
     e34:	86 42 15 00 	mov	r2,	21(r6)	;0x0015(r6)
     e38:	03 02       	.word	0x0203;	????	Illegal as address instr
     e3a:	8a 42 0c 00 	mov	r2,	12(r10)	;0x000c(r10)
     e3e:	03 02       	.word	0x0203;	????	Illegal as address instr
     e40:	8e 42 16 00 	mov	r2,	22(r14)	;0x0016(r14)
     e44:	03 02       	.word	0x0203;	????	Illegal as address instr
     e46:	90 42 1d 00 	mov	&0x001d,0x0203	;PC rel. 0x0104f
     e4a:	03 02 
     e4c:	a0 42 17 00 	mov	#4,	0x0017	;r2 As==10, PC rel. 0x00e67
     e50:	03 02       	.word	0x0203;	????	Illegal as address instr
     e52:	ae 42 17 00 	mov	#4,	23(r14)	;r2 As==10, 0x0017(r14)
     e56:	03 02       	.word	0x0203;	????	Illegal as address instr
     e58:	b2 42 15 00 	mov	#8,	&0x0015	;r2 As==11
     e5c:	03 02       	.word	0x0203;	????	Illegal as address instr
     e5e:	ba 42 15 00 	mov	#8,	21(r10)	;r2 As==11, 0x0015(r10)
     e62:	03 02       	.word	0x0203;	????	Illegal as address instr
     e64:	c0 42 15 00 	mov.b	r2,	0x0015	;PC rel. 0x00e7d
     e68:	03 02       	.word	0x0203;	????	Illegal as address instr
     e6a:	d4 42 15 00 	mov.b	&0x0015,515(r4)	;0x0203(r4)
     e6e:	03 02 
     e70:	dc 42 12 00 	mov.b	&0x0012,515(r12);0x0203(r12)
     e74:	03 02 
     e76:	de 42 16 00 	mov.b	&0x0016,515(r14);0x0203(r14)
     e7a:	03 02 
     e7c:	e0 42 15 00 	mov.b	#4,	0x0015	;r2 As==10, PC rel. 0x00e95
     e80:	03 02       	.word	0x0203;	????	Illegal as address instr
     e82:	f8 42 15 00 	mov.b	#8,	21(r8)	;r2 As==11, 0x0015(r8)
     e86:	03 02       	.word	0x0203;	????	Illegal as address instr
     e88:	00 43       	clr	r0		
     e8a:	15 00       	mova	#0x00000,r5	
     e8c:	03 02       	.word	0x0203;	????	Illegal as address instr
     e8e:	04 43       	clr	r4		
     e90:	15 00       	mova	#0x00000,r5	
     e92:	03 02       	.word	0x0203;	????	Illegal as address instr
     e94:	0e 43       	clr	r14		
     e96:	15 00       	mova	#0x00000,r5	
     e98:	03 02       	.word	0x0203;	????	Illegal as address instr
     e9a:	16 43       	mov	#1,	r6	;r3 As==01
     e9c:	16 00       	mova	#0x00000,r6	
     e9e:	03 02       	.word	0x0203;	????	Illegal as address instr
     ea0:	1e 43       	mov	#1,	r14	;r3 As==01
     ea2:	16 00       	mova	#0x00000,r6	
     ea4:	03 02       	.word	0x0203;	????	Illegal as address instr
     ea6:	26 43       	mov	#2,	r6	;r3 As==10
     ea8:	15 00       	mova	#0x00000,r5	
     eaa:	03 02       	.word	0x0203;	????	Illegal as address instr
     eac:	2c 43       	mov	#2,	r12	;r3 As==10
     eae:	15 00       	mova	#0x00000,r5	
     eb0:	03 02       	.word	0x0203;	????	Illegal as address instr
     eb2:	30 43       	br	#-1		;r3 As==11
     eb4:	12 00       	mova	#0x00000,r2	
     eb6:	03 02       	.word	0x0203;	????	Illegal as address instr
     eb8:	34 43       	mov	#-1,	r4	;r3 As==11
     eba:	03 6f       	.word	0x6f03;	????	Illegal as 2-op instr
     ebc:	01 00       	mova	@r0,	r1	
     ebe:	03 02       	.word	0x0203;	????	Illegal as address instr
     ec0:	38 43       	mov	#-1,	r8	;r3 As==11
     ec2:	25 00 03 02 	mova	&0x00203,r5	
     ec6:	3c 43       	mov	#-1,	r12	;r3 As==11
     ec8:	15 00       	mova	#0x00000,r5	
     eca:	03 02       	.word	0x0203;	????	Illegal as address instr
     ecc:	42 43       	clr.b	r2		
     ece:	15 00       	mova	#0x00000,r5	
     ed0:	03 02       	.word	0x0203;	????	Illegal as address instr
     ed2:	44 43       	clr.b	r4		
     ed4:	10 00       	bra	#0x00000	
     ed6:	03 02       	.word	0x0203;	????	Illegal as address instr
     ed8:	48 43       	clr.b	r8		
     eda:	1a 00       	mova	#0x00000,r10	
     edc:	03 02       	.word	0x0203;	????	Illegal as address instr
     ede:	52 43       	mov.b	#1,	r2	;r3 As==01
     ee0:	15 00       	mova	#0x00000,r5	
     ee2:	03 02       	.word	0x0203;	????	Illegal as address instr
     ee4:	58 43       	mov.b	#1,	r8	;r3 As==01
     ee6:	15 00       	mova	#0x00000,r5	
     ee8:	03 02       	.word	0x0203;	????	Illegal as address instr
     eea:	5c 43       	mov.b	#1,	r12	;r3 As==01
     eec:	17 00       	mova	#0x00000,r7	
     eee:	03 02       	.word	0x0203;	????	Illegal as address instr
     ef0:	68 43       	mov.b	#2,	r8	;r3 As==10
     ef2:	03 75       	.word	0x7503;	????	Illegal as 2-op instr
     ef4:	01 00       	mova	@r0,	r1	
     ef6:	03 02       	.word	0x0203;	????	Illegal as address instr
     ef8:	70 43       	br	#-1		;r3 As==11
     efa:	00 01       	bra	@r1		
     efc:	01 92       	cmp	r2,	r1	
     efe:	00 00       	bra	@r0		
     f00:	00 02       	bra	#4		;r2 As==10
     f02:	00 60       	rlc	r0		
     f04:	00 00       	bra	@r0		
     f06:	00 01       	bra	@r1		
     f08:	01 f6       	and	r6,	r1	
     f0a:	f5 0a       	suba	r10,	r5	
     f0c:	00 01       	bra	@r1		
     f0e:	01 01       	mova	@r1,	r1	
     f10:	01 00       	mova	@r0,	r1	
     f12:	00 00       	bra	@r0		
     f14:	01 2f       	jc	$-508    	;abs 0xd18
     f16:	6f 70       	subc.b	@r0,	r15	
     f18:	74 2f       	jc	$-278    	;abs 0xe02
     f1a:	6d 73       	subc.b	#2,	r13	;r3 As==10
     f1c:	70 67       	addc.b	@r7+,	r0	
     f1e:	63 63       	.word	0x6363;	????	Illegal as 2-op instr
     f20:	34 2f       	jc	$-406    	;abs 0xd8a
     f22:	62 69       	addc.b	@r9,	r2	
     f24:	6e 2f       	jc	$-290    	;abs 0xe02
     f26:	2e 2e       	jc	$-930    	;abs 0xb84
     f28:	2f 6c       	addc	@r12,	r15	
     f2a:	69 62       	addc.b	#4,	r9	;r2 As==10
     f2c:	2f 67       	addc	@r7,	r15	
     f2e:	63 63       	.word	0x6363;	????	Illegal as 2-op instr
     f30:	2f 6d       	addc	@r13,	r15	
     f32:	73 70       	.word	0x7073;	????	Illegal as 2-op instr
     f34:	34 33       	jn	$-406    	;abs 0xd9e
     f36:	30 2f       	jc	$-414    	;abs 0xd98
     f38:	34 2e       	jc	$-918    	;abs 0xba2
     f3a:	35 2e       	jc	$-916    	;abs 0xba6
     f3c:	33 2f       	jc	$-408    	;abs 0xda4
     f3e:	69 6e       	addc.b	@r14,	r9	
     f40:	63 6c       	.word	0x6c63;	????	Illegal as 2-op instr
     f42:	75 64       	addc.b	@r4+,	r5	
     f44:	65 00 73 74 	mova	r0,	&0x57473
     f48:	64 6c       	addc.b	@r12,	r4	
     f4a:	69 62       	addc.b	#4,	r9	;r2 As==10
     f4c:	00 00       	bra	@r0		
     f4e:	70 72       	subc.b	#8,	r0	;r2 As==11
     f50:	69 6e       	addc.b	@r14,	r9	
     f52:	74 66       	addc.b	@r6+,	r4	
     f54:	2e 63       	addc	#2,	r14	;r3 As==10
     f56:	00 02       	bra	#4		;r2 As==10
     f58:	00 00       	bra	@r0		
     f5a:	73 74       	.word	0x7473;	????	Illegal as 2-op instr
     f5c:	64 61       	addc.b	@r1,	r4	
     f5e:	72 67       	addc.b	@r7+,	r2	
     f60:	2e 68       	addc	@r8,	r14	
     f62:	00 01       	bra	@r1		
     f64:	00 00       	bra	@r0		
     f66:	00 00       	bra	@r0		
     f68:	03 02       	.word	0x0203;	????	Illegal as address instr
     f6a:	70 43       	br	#-1		;r3 As==11
     f6c:	38 00 03 02 	mova	0x0203,	r8	;PC rel. 0x01171
     f70:	70 43       	br	#-1		;r3 As==11
     f72:	19 00       	mova	#0x00000,r9	
     f74:	03 02       	.word	0x0203;	????	Illegal as address instr
     f76:	80 43 17 00 	mov	#0,	0x0017	;r3 As==00, PC rel. 0x00f91
     f7a:	03 02       	.word	0x0203;	????	Illegal as address instr
     f7c:	82 43 18 00 	mov	#0,	&0x0018	;r3 As==00
     f80:	03 02       	.word	0x0203;	????	Illegal as address instr
     f82:	82 43 15 00 	mov	#0,	&0x0015	;r3 As==00
     f86:	03 02       	.word	0x0203;	????	Illegal as address instr
     f88:	8e 43 15 00 	mov	#0,	21(r14)	;r3 As==00, 0x0015(r14)
     f8c:	03 02       	.word	0x0203;	????	Illegal as address instr
     f8e:	90 43 00 01 	mov	#1,	0x0100	;r3 As==01, PC rel. 0x01092
     f92:	01 58       	add	r8,	r1	
     f94:	03 00       	.word	0x0003;	????	Illegal as address instr
     f96:	00 02       	bra	#4		;r2 As==10
     f98:	00 79       	subc	r9,	r0	
     f9a:	00 00       	bra	@r0		
     f9c:	00 01       	bra	@r1		
     f9e:	01 f6       	and	r6,	r1	
     fa0:	f5 0a       	suba	r10,	r5	
     fa2:	00 01       	bra	@r1		
     fa4:	01 01       	mova	@r1,	r1	
     fa6:	01 00       	mova	@r0,	r1	
     fa8:	00 00       	bra	@r0		
     faa:	01 2e       	jc	$-1020   	;abs 0xbae
     fac:	2e 2f       	jc	$-418    	;abs 0xe0a
     fae:	69 6e       	addc.b	@r14,	r9	
     fb0:	63 6c       	.word	0x6c63;	????	Illegal as 2-op instr
     fb2:	75 64       	addc.b	@r4+,	r5	
     fb4:	65 00 2f 6f 	mova	r0,	&0x56f2f
     fb8:	70 74       	subc.b	@r4+,	r0	
     fba:	2f 6d       	addc	@r13,	r15	
     fbc:	73 70       	.word	0x7073;	????	Illegal as 2-op instr
     fbe:	67 63       	addc.b	#2,	r7	;r3 As==10
     fc0:	63 34       	jge	$+200    	;abs 0x1088
     fc2:	2f 62       	addc	#4,	r15	;r2 As==10
     fc4:	69 6e       	addc.b	@r14,	r9	
     fc6:	2f 2e       	jc	$-928    	;abs 0xc26
     fc8:	2e 2f       	jc	$-418    	;abs 0xe26
     fca:	6c 69       	addc.b	@r9,	r12	
     fcc:	62 2f       	jc	$-314    	;abs 0xe92
     fce:	67 63       	addc.b	#2,	r7	;r3 As==10
     fd0:	63 2f       	jc	$-312    	;abs 0xe98
     fd2:	6d 73       	subc.b	#2,	r13	;r3 As==10
     fd4:	70 34       	jge	$+226    	;abs 0x10b6
     fd6:	33 30       	jn	$+104    	;abs 0x103e
     fd8:	2f 34       	jge	$+96     	;abs 0x1038
     fda:	2e 35       	jge	$+606    	;abs 0x1238
     fdc:	2e 33       	jn	$-418    	;abs 0xe3a
     fde:	2f 69       	addc	@r9,	r15	
     fe0:	6e 63       	addc.b	#2,	r14	;r3 As==10
     fe2:	6c 75       	subc.b	@r5,	r12	
     fe4:	64 65       	addc.b	@r5,	r4	
     fe6:	00 73       	sbc	r0		
     fe8:	74 64       	addc.b	@r4+,	r4	
     fea:	6c 69       	addc.b	@r9,	r12	
     fec:	62 00 00 76 	mova	r0,	&0x27600
     ff0:	75 70 72 69 	subc.b	#26994,	r5	;#0x6972
     ff4:	6e 74       	subc.b	@r4,	r14	
     ff6:	66 2e       	jc	$-818    	;abs 0xcc4
     ff8:	63 00 03 00 	mova	r0,	&0x30003
     ffc:	00 73       	sbc	r0		
     ffe:	74 64       	addc.b	@r4+,	r4	
    1000:	69 6e       	addc.b	@r14,	r9	
    1002:	74 2e       	jc	$-790    	;abs 0xcec
    1004:	68 00 01 00 	mova	r0,	&0x80001
    1008:	00 73       	sbc	r0		
    100a:	74 64       	addc.b	@r4+,	r4	
    100c:	61 72       	subc.b	#4,	r1	;r2 As==10
    100e:	67 2e       	jc	$-816    	;abs 0xcde
    1010:	68 00 02 00 	mova	r0,	&0x80002
    1014:	00 00       	bra	@r0		
    1016:	00 03       	bra	#2		;r3 As==10
    1018:	02 90       	cmp	r0,	r2	
    101a:	43 78       	.word	0x7843;	????	Illegal as 2-op instr
    101c:	00 03       	bra	#2		;r3 As==10
    101e:	02 a8       	dadd	r8,	r2	
    1020:	43 15       	pushm	#5,	#0	;r3 As==00
    1022:	00 03       	bra	#2		;r3 As==10
    1024:	02 ae       	dadd	r14,	r2	
    1026:	43 03       	rrum.a	#1,	#0	;r3 As==00
    1028:	68 01 00 03 	mova	r1,	&0x80300
    102c:	02 b8       	bit	r8,	r2	
    102e:	43 16       	popm.a	#5,	r7	
    1030:	00 03       	bra	#2		;r3 As==10
    1032:	02 be       	bit	r14,	r2	
    1034:	43 15       	pushm	#5,	#0	;r3 As==00
    1036:	00 03       	bra	#2		;r3 As==10
    1038:	02 d8       	bis	r8,	r2	
    103a:	43 16       	popm.a	#5,	r7	
    103c:	00 03       	bra	#2		;r3 As==10
    103e:	02 dc       	bis	r12,	r2	
    1040:	43 15       	pushm	#5,	#0	;r3 As==00
    1042:	00 03       	bra	#2		;r3 As==10
    1044:	02 e6       	xor	r6,	r2	
    1046:	43 0d       	rram.a	#4,	#0	;r3 As==00
    1048:	00 03       	bra	#2		;r3 As==10
    104a:	02 e8       	xor	r8,	r2	
    104c:	43 1c       	.word	0x1c43;	????	
    104e:	00 03       	bra	#2		;r3 As==10
    1050:	02 ea       	xor	r10,	r2	
    1052:	43 2b       	jnc	$-376    	;abs 0xeda
    1054:	00 03       	bra	#2		;r3 As==10
    1056:	02 ee       	xor	r14,	r2	
    1058:	43 17       	popm	#5,	r7	
    105a:	00 03       	bra	#2		;r3 As==10
    105c:	02 fe       	and	r14,	r2	
    105e:	43 16       	popm.a	#5,	r7	
    1060:	00 03       	bra	#2		;r3 As==10
    1062:	02 02       	mova	#4,	r2	;r2 As==10
    1064:	44 15       	pushm	#5,	r4	
    1066:	00 03       	bra	#2		;r3 As==10
    1068:	02 06       	mova	@r6,	r2	
    106a:	44 16       	popm.a	#5,	r8	
    106c:	00 03       	bra	#2		;r3 As==10
    106e:	02 08       	mova	@r8,	r2	
    1070:	44 17       	popm	#5,	r8	
    1072:	00 03       	bra	#2		;r3 As==10
    1074:	02 0e       	mova	@r14,	r2	
    1076:	44 01       	rram.a	#1,	r4	
    1078:	00 03       	bra	#2		;r3 As==10
    107a:	02 12       	push	r2		
    107c:	44 03       	rrum.a	#1,	r4	
    107e:	6c 01 00 03 	mova	r1,	&0xc0300
    1082:	02 16       	popm.a	#1,	r2	
    1084:	44 2d       	jc	$+650    	;abs 0x130e
    1086:	00 03       	bra	#2		;r3 As==10
    1088:	02 1e       	.word	0x1e02;	????	
    108a:	44 13       	calla	r4		
    108c:	00 03       	bra	#2		;r3 As==10
    108e:	02 22       	jnz	$-1018   	;abs 0xc94
    1090:	44 01       	rram.a	#1,	r4	
    1092:	00 03       	bra	#2		;r3 As==10
    1094:	02 24       	jz	$+6      	;abs 0x109a
    1096:	44 12       	push.b	r4		
    1098:	00 03       	bra	#2		;r3 As==10
    109a:	02 2a       	jnc	$-1018   	;abs 0xca0
    109c:	44 03       	rrum.a	#1,	r4	
    109e:	75 01 00 03 	mova	r1,	768(r5)	;0x0300(r5)
    10a2:	02 2e       	jc	$-1018   	;abs 0xca8
    10a4:	44 0e       	rlam.a	#4,	r4	
    10a6:	00 03       	bra	#2		;r3 As==10
    10a8:	02 30       	jn	$+6      	;abs 0x10ae
    10aa:	44 12       	push.b	r4		
    10ac:	00 03       	bra	#2		;r3 As==10
    10ae:	02 34       	jge	$+6      	;abs 0x10b4
    10b0:	44 2f       	jc	$-374    	;abs 0xf3a
    10b2:	00 03       	bra	#2		;r3 As==10
    10b4:	02 3a       	jl	$-1018   	;abs 0xcba
    10b6:	44 15       	pushm	#5,	r4	
    10b8:	00 03       	bra	#2		;r3 As==10
    10ba:	02 3c       	jmp	$+6      	;abs 0x10c0
    10bc:	44 15       	pushm	#5,	r4	
    10be:	00 03       	bra	#2		;r3 As==10
    10c0:	02 3e       	jmp	$-1018   	;abs 0xcc6
    10c2:	44 10       	rrc.b	r4		
    10c4:	00 03       	bra	#2		;r3 As==10
    10c6:	02 44       	mov	r4,	r2	
    10c8:	44 03       	rrum.a	#1,	r4	
    10ca:	69 01 00 03 	mova	r1,	&0x90300
    10ce:	02 46       	mov	r6,	r2	
    10d0:	44 12       	push.b	r4		
    10d2:	00 03       	bra	#2		;r3 As==10
    10d4:	02 48       	mov	r8,	r2	
    10d6:	44 11       	rra.b	r4		
    10d8:	00 03       	bra	#2		;r3 As==10
    10da:	02 4c       	mov	r12,	r2	
    10dc:	44 3b       	jl	$-374    	;abs 0xf66
    10de:	00 03       	bra	#2		;r3 As==10
    10e0:	02 4e       	mov	r14,	r2	
    10e2:	44 15       	pushm	#5,	r4	
    10e4:	00 03       	bra	#2		;r3 As==10
    10e6:	02 56       	add	r6,	r2	
    10e8:	44 03       	rrum.a	#1,	r4	
    10ea:	58 01       	rram	#1,	r8	
    10ec:	00 03       	bra	#2		;r3 As==10
    10ee:	02 5a       	add	r10,	r2	
    10f0:	44 39       	jl	$+650    	;abs 0x137a
    10f2:	00 03       	bra	#2		;r3 As==10
    10f4:	02 60       	addc	r0,	r2	
    10f6:	44 1d       	.word	0x1d44;	????	
    10f8:	00 03       	bra	#2		;r3 As==10
    10fa:	02 66       	addc	r6,	r2	
    10fc:	44 15       	pushm	#5,	r4	
    10fe:	00 03       	bra	#2		;r3 As==10
    1100:	02 68       	addc	r8,	r2	
    1102:	44 15       	pushm	#5,	r4	
    1104:	00 03       	bra	#2		;r3 As==10
    1106:	02 6a       	addc	r10,	r2	
    1108:	44 10       	rrc.b	r4		
    110a:	00 03       	bra	#2		;r3 As==10
    110c:	02 72       	subc	r2,	r2	
    110e:	44 1d       	.word	0x1d44;	????	
    1110:	00 03       	bra	#2		;r3 As==10
    1112:	02 78       	subc	r8,	r2	
    1114:	44 15       	pushm	#5,	r4	
    1116:	00 03       	bra	#2		;r3 As==10
    1118:	02 7a       	subc	r10,	r2	
    111a:	44 11       	rra.b	r4		
    111c:	00 03       	bra	#2		;r3 As==10
    111e:	02 7e       	subc	r14,	r2	
    1120:	44 1b       	.word	0x1b44;	????	
    1122:	00 03       	bra	#2		;r3 As==10
    1124:	02 9c       	cmp	r12,	r2	
    1126:	44 3d       	jmp	$+650    	;abs 0x13b0
    1128:	00 03       	bra	#2		;r3 As==10
    112a:	02 bc       	bit	r12,	r2	
    112c:	44 18       	.word	0x1844;	????	
    112e:	00 03       	bra	#2		;r3 As==10
    1130:	02 c0       	bic	r0,	r2	
    1132:	44 13       	calla	r4		
    1134:	00 03       	bra	#2		;r3 As==10
    1136:	02 c4       	bic	r4,	r2	
    1138:	44 12       	push.b	r4		
    113a:	00 03       	bra	#2		;r3 As==10
    113c:	02 c8       	bic	r8,	r2	
    113e:	44 1f       	.word	0x1f44;	????	
    1140:	00 03       	bra	#2		;r3 As==10
    1142:	02 cc       	bic	r12,	r2	
    1144:	44 16       	popm.a	#5,	r8	
    1146:	00 03       	bra	#2		;r3 As==10
    1148:	02 d0       	bis	r0,	r2	
    114a:	44 18       	.word	0x1844;	????	
    114c:	00 03       	bra	#2		;r3 As==10
    114e:	02 da       	bis	r10,	r2	
    1150:	44 17       	popm	#5,	r8	
    1152:	00 03       	bra	#2		;r3 As==10
    1154:	02 de       	bis	r14,	r2	
    1156:	44 13       	calla	r4		
    1158:	00 03       	bra	#2		;r3 As==10
    115a:	02 e6       	xor	r6,	r2	
    115c:	44 20       	jnz	$+138    	;abs 0x11e6
    115e:	00 03       	bra	#2		;r3 As==10
    1160:	02 86       	sub	r6,	r2	
    1162:	45 1c       	.word	0x1c45;	????	
    1164:	00 03       	bra	#2		;r3 As==10
    1166:	02 8e       	sub	r14,	r2	
    1168:	45 19       	.word	0x1945;	????	
    116a:	00 03       	bra	#2		;r3 As==10
    116c:	02 96       	cmp	r6,	r2	
    116e:	45 19       	.word	0x1945;	????	
    1170:	00 03       	bra	#2		;r3 As==10
    1172:	02 9e       	cmp	r14,	r2	
    1174:	45 19       	.word	0x1945;	????	
    1176:	00 03       	bra	#2		;r3 As==10
    1178:	02 a8       	dadd	r8,	r2	
    117a:	45 1a       	.word	0x1a45;	????	
    117c:	00 03       	bra	#2		;r3 As==10
    117e:	02 b4       	bit	r4,	r2	
    1180:	45 16       	popm.a	#5,	r9	
    1182:	00 03       	bra	#2		;r3 As==10
    1184:	02 be       	bit	r14,	r2	
    1186:	45 1c       	.word	0x1c45;	????	
    1188:	00 03       	bra	#2		;r3 As==10
    118a:	02 ca       	bic	r10,	r2	
    118c:	45 16       	popm.a	#5,	r9	
    118e:	00 03       	bra	#2		;r3 As==10
    1190:	02 ce       	bic	r14,	r2	
    1192:	45 15       	pushm	#5,	r5	
    1194:	00 03       	bra	#2		;r3 As==10
    1196:	02 d4       	bis	r4,	r2	
    1198:	45 17       	popm	#5,	r9	
    119a:	00 03       	bra	#2		;r3 As==10
    119c:	02 d8       	bis	r8,	r2	
    119e:	45 15       	pushm	#5,	r5	
    11a0:	00 03       	bra	#2		;r3 As==10
    11a2:	02 e2       	xor	r2,	r2	
    11a4:	45 0d       	rram.a	#4,	r5	
    11a6:	00 03       	bra	#2		;r3 As==10
    11a8:	02 ea       	xor	r10,	r2	
    11aa:	45 27       	jz	$-372    	;abs 0x1036
    11ac:	00 03       	bra	#2		;r3 As==10
    11ae:	02 f0       	and	r0,	r2	
    11b0:	45 16       	popm.a	#5,	r9	
    11b2:	00 03       	bra	#2		;r3 As==10
    11b4:	02 14       	pushm.a	#1,	r2	
    11b6:	46 20       	jnz	$+142    	;abs 0x1244
    11b8:	00 03       	bra	#2		;r3 As==10
    11ba:	02 22       	jnz	$-1018   	;abs 0xdc0
    11bc:	46 15       	pushm	#5,	r6	
    11be:	00 03       	bra	#2		;r3 As==10
    11c0:	02 32       	jn	$-1018   	;abs 0xdc6
    11c2:	46 19       	.word	0x1946;	????	
    11c4:	00 03       	bra	#2		;r3 As==10
    11c6:	02 3e       	jmp	$-1018   	;abs 0xdcc
    11c8:	46 15       	pushm	#5,	r6	
    11ca:	00 03       	bra	#2		;r3 As==10
    11cc:	02 40       	mov	r0,	r2	
    11ce:	46 19       	.word	0x1946;	????	
    11d0:	00 03       	bra	#2		;r3 As==10
    11d2:	02 4c       	mov	r12,	r2	
    11d4:	46 17       	popm	#5,	r10	
    11d6:	00 03       	bra	#2		;r3 As==10
    11d8:	02 54       	add	r4,	r2	
    11da:	46 01       	rram.a	#1,	r6	
    11dc:	00 03       	bra	#2		;r3 As==10
    11de:	02 66       	addc	r6,	r2	
    11e0:	46 11       	rra.b	r6		
    11e2:	00 03       	bra	#2		;r3 As==10
    11e4:	02 6c       	addc	r12,	r2	
    11e6:	46 22       	jnz	$-882    	;abs 0xe74
    11e8:	00 03       	bra	#2		;r3 As==10
    11ea:	02 84       	sub	r4,	r2	
    11ec:	46 15       	pushm	#5,	r6	
    11ee:	00 03       	bra	#2		;r3 As==10
    11f0:	02 90       	cmp	r0,	r2	
    11f2:	46 16       	popm.a	#5,	r10	
    11f4:	00 03       	bra	#2		;r3 As==10
    11f6:	02 94       	cmp	r4,	r2	
    11f8:	46 11       	rra.b	r6		
    11fa:	00 03       	bra	#2		;r3 As==10
    11fc:	02 9a       	cmp	r10,	r2	
    11fe:	46 1c       	.word	0x1c46;	????	
    1200:	00 03       	bra	#2		;r3 As==10
    1202:	02 a2       	dadd	r2,	r2	
    1204:	46 1d       	.word	0x1d46;	????	
    1206:	00 03       	bra	#2		;r3 As==10
    1208:	02 a6       	dadd	r6,	r2	
    120a:	46 18       	.word	0x1846;	????	
    120c:	00 03       	bra	#2		;r3 As==10
    120e:	02 ac       	dadd	r12,	r2	
    1210:	46 0a       	rlam.a	#3,	r6	
    1212:	00 03       	bra	#2		;r3 As==10
    1214:	02 b0       	bit	r0,	r2	
    1216:	46 21       	jnz	$+654    	;abs 0x14a4
    1218:	00 03       	bra	#2		;r3 As==10
    121a:	02 b8       	bit	r8,	r2	
    121c:	46 16       	popm.a	#5,	r10	
    121e:	00 03       	bra	#2		;r3 As==10
    1220:	02 ca       	bic	r10,	r2	
    1222:	46 18       	.word	0x1846;	????	
    1224:	00 03       	bra	#2		;r3 As==10
    1226:	02 d6       	bis	r6,	r2	
    1228:	46 16       	popm.a	#5,	r10	
    122a:	00 03       	bra	#2		;r3 As==10
    122c:	02 e8       	xor	r8,	r2	
    122e:	46 18       	.word	0x1846;	????	
    1230:	00 03       	bra	#2		;r3 As==10
    1232:	02 f4       	and	r4,	r2	
    1234:	46 1b       	.word	0x1b46;	????	
    1236:	00 03       	bra	#2		;r3 As==10
    1238:	02 fa       	and	r10,	r2	
    123a:	46 01       	rram.a	#1,	r6	
    123c:	00 03       	bra	#2		;r3 As==10
    123e:	02 08       	mova	@r8,	r2	
    1240:	47 15       	pushm	#5,	r7	
    1242:	00 03       	bra	#2		;r3 As==10
    1244:	02 0e       	mova	@r14,	r2	
    1246:	47 13       	calla	r7		
    1248:	00 03       	bra	#2		;r3 As==10
    124a:	02 12       	push	r2		
    124c:	47 16       	popm.a	#5,	r11	
    124e:	00 03       	bra	#2		;r3 As==10
    1250:	02 18       	.word	0x1802;	????	
    1252:	47 01       	rram.a	#1,	r7	
    1254:	00 03       	bra	#2		;r3 As==10
    1256:	02 1c       	.word	0x1c02;	????	
    1258:	47 17       	popm	#5,	r11	
    125a:	00 03       	bra	#2		;r3 As==10
    125c:	02 22       	jnz	$-1018   	;abs 0xe62
    125e:	47 15       	pushm	#5,	r7	
    1260:	00 03       	bra	#2		;r3 As==10
    1262:	02 2a       	jnc	$-1018   	;abs 0xe68
    1264:	47 19       	.word	0x1947;	????	
    1266:	00 03       	bra	#2		;r3 As==10
    1268:	02 2e       	jc	$-1018   	;abs 0xe6e
    126a:	47 21       	jnz	$+656    	;abs 0x14fa
    126c:	00 03       	bra	#2		;r3 As==10
    126e:	02 3e       	jmp	$-1018   	;abs 0xe74
    1270:	47 0c       	rrcm.a	#4,	r7	
    1272:	00 03       	bra	#2		;r3 As==10
    1274:	02 4c       	mov	r12,	r2	
    1276:	47 03       	rrum.a	#1,	r7	
    1278:	c2 7e 01 00 	subc.b	r14,	&0x0001	
    127c:	03 02       	.word	0x0203;	????	Illegal as address instr
    127e:	54 47 d2 00 	mov.b	210(r7),r4	;0x00d2(r7)
    1282:	03 02       	.word	0x0203;	????	Illegal as address instr
    1284:	62 47       	mov.b	@r7,	r2	
    1286:	15 00       	mova	#0x00000,r5	
    1288:	03 02       	.word	0x0203;	????	Illegal as address instr
    128a:	6a 47       	mov.b	@r7,	r10	
    128c:	16 00       	mova	#0x00000,r6	
    128e:	03 02       	.word	0x0203;	????	Illegal as address instr
    1290:	74 47       	mov.b	@r7+,	r4	
    1292:	18 00       	mova	#0x00000,r8	
    1294:	03 02       	.word	0x0203;	????	Illegal as address instr
    1296:	84 47 01 00 	mov	r7,	1(r4)	;0x0001(r4)
    129a:	03 02       	.word	0x0203;	????	Illegal as address instr
    129c:	8a 47 17 00 	mov	r7,	23(r10)	;0x0017(r10)
    12a0:	03 02       	.word	0x0203;	????	Illegal as address instr
    12a2:	9e 47 16 00 	mov	22(r7),	515(r14);0x0016(r7), 0x0203(r14)
    12a6:	03 02 
    12a8:	a6 47 17 00 	mov	@r7,	23(r6)	;0x0017(r6)
    12ac:	03 02       	.word	0x0203;	????	Illegal as address instr
    12ae:	ac 47 16 00 	mov	@r7,	22(r12)	;0x0016(r12)
    12b2:	03 02       	.word	0x0203;	????	Illegal as address instr
    12b4:	b0 47 18 00 	mov	@r7+,	0x0018	;PC rel. 0x012d0
    12b8:	03 02       	.word	0x0203;	????	Illegal as address instr
    12ba:	c8 47 1d 00 	mov.b	r7,	29(r8)	;0x001d(r8)
    12be:	03 02       	.word	0x0203;	????	Illegal as address instr
    12c0:	d0 47 15 00 	mov.b	21(r7),	0x0203	;0x0015(r7), PC rel. 0x014c9
    12c4:	03 02 
    12c6:	d4 47 15 00 	mov.b	21(r7),	515(r4)	;0x0015(r7), 0x0203(r4)
    12ca:	03 02 
    12cc:	d8 47 03 e0 	mov.b	-8189(r7),382(r8)	;0xe003(r7), 0x017e(r8)
    12d0:	7e 01 
    12d2:	00 03       	bra	#2		;r3 As==10
    12d4:	02 da       	bis	r10,	r2	
    12d6:	47 b7       	bit.b	r7,	r7	
    12d8:	00 03       	bra	#2		;r3 As==10
    12da:	02 de       	bis	r14,	r2	
    12dc:	47 03       	rrum.a	#1,	r7	
    12de:	ac 7e 01 00 	subc	@r14,	1(r12)	;0x0001(r12)
    12e2:	03 02       	.word	0x0203;	????	Illegal as address instr
    12e4:	ec 47 eb 00 	mov.b	@r7,	235(r12);0x00eb(r12)
    12e8:	03 02       	.word	0x0203;	????	Illegal as address instr
    12ea:	06 48       	mov	r8,	r6	
    12ec:	00 01       	bra	@r1		
    12ee:	01 63       	Address 0x000012ee is out of bounds.
Address 0x000012f0 is out of bounds.
and.b	@r15+,	-1(r15)	;0xffff(r15)

Disassembly of section .debug_frame:

00000000 <.debug_frame>:
   0:	0e 00       	mova	@r0,	r14	
   2:	00 00       	bra	@r0		
   4:	ff ff ff ff 	and.b	@r15+,	-1(r15)	;0xffff(r15)
   8:	01 00       	mova	@r0,	r1	
   a:	01 7e       	subc	r14,	r1	
   c:	00 0c       	bra	@r12		
   e:	01 02       	mova	#4,	r1	;r2 As==10
  10:	80 01 4c 00 	bra	#0x1004c	
  14:	00 00       	bra	@r0		
  16:	00 00       	bra	@r0		
  18:	00 00       	bra	@r0		
  1a:	38 31       	jn	$+626    	;abs 0x28c
  1c:	1c 01       	mova	@r1+,	r12	
  1e:	42 0e       	rlam.a	#4,	r2	
  20:	06 02       	mova	#4,	r6	;r2 As==10
  22:	44 0e       	rlam.a	#4,	r4	
  24:	08 40       	mov	r0,	r8	
  26:	2e 02 46 0e 	mova	&0x20e46,r14	
  2a:	06 44       	mov	r4,	r6	
  2c:	2e 00 02 80 	mova	&0x08002,r14	
  30:	0e 08       	mova	@r8,	r14	
  32:	44 0e       	rlam.a	#4,	r4	
  34:	0a 40       	mov	r0,	r10	
  36:	2e 04 46 0e 	mova	&0x40e46,r14	
  3a:	06 44       	mov	r4,	r6	
  3c:	2e 00 4c 0e 	mova	&0x00e4c,r14	
  40:	08 44       	mov	r4,	r8	
  42:	0e 0a       	mova	@r10,	r14	
  44:	40 2e       	jc	$-894    	;abs 0xfcc6
  46:	04 46       	mov	r6,	r4	
  48:	0e 06       	mova	@r6,	r14	
  4a:	44 2e       	jc	$-886    	;abs 0xfcd4
  4c:	00 4c       	br	r12		
  4e:	0e 08       	mova	@r8,	r14	
  50:	44 0e       	rlam.a	#4,	r4	
  52:	0a 40       	mov	r0,	r10	
  54:	2e 04 46 0e 	mova	&0x40e46,r14	
  58:	06 46       	mov	r6,	r6	
  5a:	0e 08       	mova	@r8,	r14	
  5c:	40 2e       	jc	$-894    	;abs 0xfcde
  5e:	02 46       	mov	r6,	r2	
  60:	0e 06       	mova	@r6,	r14	
  62:	0e 00       	mova	@r0,	r14	
  64:	00 00       	bra	@r0		
  66:	ff ff ff ff 	and.b	@r15+,	-1(r15)	;0xffff(r15)
  6a:	01 00       	mova	@r0,	r1	
  6c:	01 7e       	subc	r14,	r1	
  6e:	00 0c       	bra	@r12		
  70:	01 02       	mova	#4,	r1	;r2 As==10
  72:	80 01 08 00 	bra	#0x10008	
  76:	00 00       	bra	@r0		
  78:	62 00 00 00 	mova	r0,	&0x20000
  7c:	80 32       	jn	$-766    	;abs 0xfd7e
  7e:	02 00       	mova	@r0,	r2	
  80:	08 00       	mova	@r0,	r8	
  82:	00 00       	bra	@r0		
  84:	62 00 00 00 	mova	r0,	&0x20000
  88:	82 32       	jn	$-762    	;abs 0xfd8e
  8a:	02 00       	mova	@r0,	r2	
  8c:	08 00       	mova	@r0,	r8	
  8e:	00 00       	bra	@r0		
  90:	62 00 00 00 	mova	r0,	&0x20000
  94:	84 32       	jn	$-758    	;abs 0xfd9e
  96:	10 00       	bra	#0x00000	
  98:	12 00       	mova	#0x00000,r2	
  9a:	00 00       	bra	@r0		
  9c:	62 00 00 00 	mova	r0,	&0x20000
  a0:	94 32       	jn	$-726    	;abs 0xfdca
  a2:	20 00 42 0e 	bra	&0x00e42	
  a6:	04 42       	mov	r2,	r4	
  a8:	0e 06       	mova	@r6,	r14	
  aa:	8a 03 8b 02 	mova	#0x3028b,r10	
  ae:	08 00       	mova	@r0,	r8	
  b0:	00 00       	bra	@r0		
  b2:	62 00 00 00 	mova	r0,	&0x20000
  b6:	b4 32       	jn	$-662    	;abs 0xfe20
  b8:	08 00       	mova	@r0,	r8	
  ba:	08 00       	mova	@r0,	r8	
  bc:	00 00       	bra	@r0		
  be:	62 00 00 00 	mova	r0,	&0x20000
  c2:	bc 32       	jn	$-646    	;abs 0xfe3c
  c4:	10 00       	bra	#0x00000	
  c6:	0e 00       	mova	@r0,	r14	
  c8:	00 00       	bra	@r0		
  ca:	ff ff ff ff 	and.b	@r15+,	-1(r15)	;0xffff(r15)
  ce:	01 00       	mova	@r0,	r1	
  d0:	01 7e       	subc	r14,	r1	
  d2:	00 0c       	bra	@r12		
  d4:	01 02       	mova	#4,	r1	;r2 As==10
  d6:	80 01 08 00 	bra	#0x10008	
  da:	00 00       	bra	@r0		
  dc:	c6 00       	mova	r0,	r6	
  de:	00 00       	bra	@r0		
  e0:	cc 32       	jn	$-614    	;abs 0xfe7a
  e2:	0a 00       	mova	@r0,	r10	
  e4:	0e 00       	mova	@r0,	r14	
  e6:	00 00       	bra	@r0		
  e8:	c6 00       	mova	r0,	r6	
  ea:	00 00       	bra	@r0		
  ec:	d6 32       	jn	$-594    	;abs 0xfe9a
  ee:	66 00 42 0e 	mova	r0,	&0x60e42
  f2:	04 8b       	sub	r11,	r4	
  f4:	02 00       	mova	@r0,	r2	
  f6:	0e 00       	mova	@r0,	r14	
  f8:	00 00       	bra	@r0		
  fa:	c6 00       	mova	r0,	r6	
  fc:	00 00       	bra	@r0		
  fe:	3c 33       	jn	$-390    	;abs 0xff78
 100:	18 00       	mova	#0x00000,r8	
 102:	42 0e       	rlam.a	#4,	r2	
 104:	04 8b       	sub	r11,	r4	
 106:	02 00       	mova	@r0,	r2	
 108:	12 00       	mova	#0x00000,r2	
 10a:	00 00       	bra	@r0		
 10c:	c6 00       	mova	r0,	r6	
 10e:	00 00       	bra	@r0		
 110:	54 33       	jn	$-342    	;abs 0xffba
 112:	26 00 42 0e 	mova	&0x00e42,r6	
 116:	04 42       	mov	r2,	r4	
 118:	0e 06       	mova	@r6,	r14	
 11a:	8a 03 8b 02 	mova	#0x3028b,r10	
 11e:	22 00 00 00 	mova	&0x00000,r2	
 122:	c6 00       	mova	r0,	r6	
 124:	00 00       	bra	@r0		
 126:	7a 33       	jn	$-266    	;abs 0x1c
 128:	96 00 42 0e 	cmpa	#0x00e42,r6	
 12c:	04 42       	mov	r2,	r4	
 12e:	0e 06       	mova	@r6,	r14	
 130:	42 0e       	rlam.a	#4,	r2	
 132:	08 42       	mov	r2,	r8	
 134:	0e 0a       	mova	@r10,	r14	
 136:	88 05 89 04 	mova	#0x50489,r8	
 13a:	8a 03 8b 02 	mova	#0x3028b,r10	
 13e:	7c 0e 0c 4e 	mova	r14,	19980(r12);0x4e0c(r12)
 142:	0e 0a       	mova	@r10,	r14	
 144:	12 00       	mova	#0x00000,r2	
 146:	00 00       	bra	@r0		
 148:	c6 00       	mova	r0,	r6	
 14a:	00 00       	bra	@r0		
 14c:	10 34       	jge	$+34     	;abs 0x16e
 14e:	14 00       	mova	#0x00000,r4	
 150:	42 0e       	rlam.a	#4,	r2	
 152:	04 4a       	mov	r10,	r4	
 154:	2e 02 46 0e 	mova	&0x20e46,r14	
 158:	02 00       	mova	@r0,	r2	
 15a:	36 00 00 00 	mova	0x0000,	r6	;PC rel. 0x0015c
 15e:	c6 00       	mova	r0,	r6	
 160:	00 00       	bra	@r0		
 162:	24 34       	jge	$+74     	;abs 0x1ac
 164:	6a 01 42 0e 	mova	r1,	&0xa0e42
 168:	04 42       	mov	r2,	r4	
 16a:	0e 06       	mova	@r6,	r14	
 16c:	42 0e       	rlam.a	#4,	r2	
 16e:	08 42       	mov	r2,	r8	
 170:	0e 0a       	mova	@r10,	r14	
 172:	42 0e       	rlam.a	#4,	r2	
 174:	0c 42       	mov	r2,	r12	
 176:	0e 0e       	mova	@r14,	r14	
 178:	42 0e       	rlam.a	#4,	r2	
 17a:	10 85 08 86 	sub	-31224(r5),r0	;0x8608(r5)
 17e:	07 87       	sub	r7,	r7	
 180:	06 88       	sub	r8,	r6	
 182:	05 89       	sub	r9,	r5	
 184:	04 8a       	sub	r10,	r4	
 186:	03 8b       	.word	0x8b03;	????	Illegal as 2-op instr
 188:	02 03       	mova	#2,	r2	;r3 As==10
 18a:	3c 01 0e 12 	mova	4622(r1),r12	;0x120e(r1)
 18e:	4a 2e       	jc	$-874    	;abs 0xfe24
 190:	02 46       	mov	r6,	r2	
 192:	0e 10       	rrc	r14		
 194:	46 00       	rrcm.a	#1,	r6	
 196:	00 00       	bra	@r0		
 198:	c6 00       	mova	r0,	r6	
 19a:	00 00       	bra	@r0		
 19c:	8e 35       	jge	$+798    	;abs 0x4ba
 19e:	a0 01 42 0e 	adda	#0x10e42,r0	
 1a2:	04 42       	mov	r2,	r4	
 1a4:	0e 06       	mova	@r6,	r14	
 1a6:	42 0e       	rlam.a	#4,	r2	
 1a8:	08 42       	mov	r2,	r8	
 1aa:	0e 0a       	mova	@r10,	r14	
 1ac:	42 0e       	rlam.a	#4,	r2	
 1ae:	0c 42       	mov	r2,	r12	
 1b0:	0e 0e       	mova	@r14,	r14	
 1b2:	42 0e       	rlam.a	#4,	r2	
 1b4:	10 42 0e 12 	br	&0x120e	
 1b8:	44 0e       	rlam.a	#4,	r4	
 1ba:	1c 84 09 85 	sub	-31479(r4),r12	;0x8509(r4)
 1be:	08 86       	sub	r6,	r8	
 1c0:	07 87       	sub	r7,	r7	
 1c2:	06 88       	sub	r8,	r6	
 1c4:	05 89       	sub	r9,	r5	
 1c6:	04 8a       	sub	r10,	r4	
 1c8:	03 8b       	.word	0x8b03;	????	Illegal as 2-op instr
 1ca:	02 5e       	add	r14,	r2	
 1cc:	0e 1e       	.word	0x1e0e;	????	
 1ce:	4a 2e       	jc	$-874    	;abs 0xfe64
 1d0:	02 02       	mova	#4,	r2	;r2 As==10
 1d2:	42 0e       	rlam.a	#4,	r2	
 1d4:	1c 02       	mova	#8,	r12	;r2 As==11
 1d6:	62 0e 1e 02 	mova	r14,	&0x2021e
 1da:	a2 0e 1c 00 	adda	#0xe001c,r2	
 1de:	1c 00       	mova	#0x00000,r12	
 1e0:	00 00       	bra	@r0		
 1e2:	c6 00       	mova	r0,	r6	
 1e4:	00 00       	bra	@r0		
 1e6:	2e 37       	jge	$-418    	;abs 0x44
 1e8:	68 00 42 0e 	mova	r0,	&0x80e42
 1ec:	04 42       	mov	r2,	r4	
 1ee:	0e 06       	mova	@r6,	r14	
 1f0:	42 0e       	rlam.a	#4,	r2	
 1f2:	08 42       	mov	r2,	r8	
 1f4:	0e 0a       	mova	@r10,	r14	
 1f6:	88 05 89 04 	mova	#0x50489,r8	
 1fa:	8a 03 8b 02 	mova	#0x3028b,r10	
 1fe:	34 00 00 00 	mova	0x0000,	r4	;PC rel. 0x00200
 202:	c6 00       	mova	r0,	r6	
 204:	00 00       	bra	@r0		
 206:	96 37       	jge	$-210    	;abs 0x134
 208:	ce 00       	mova	r0,	r14	
 20a:	42 0e       	rlam.a	#4,	r2	
 20c:	04 42       	mov	r2,	r4	
 20e:	0e 06       	mova	@r6,	r14	
 210:	42 0e       	rlam.a	#4,	r2	
 212:	08 42       	mov	r2,	r8	
 214:	0e 0a       	mova	@r10,	r14	
 216:	42 0e       	rlam.a	#4,	r2	
 218:	0c 42       	mov	r2,	r12	
 21a:	0e 0e       	mova	@r14,	r14	
 21c:	42 0e       	rlam.a	#4,	r2	
 21e:	10 42 0e 12 	br	&0x120e	
 222:	42 0e       	rlam.a	#4,	r2	
 224:	16 84 09 85 	sub	-31479(r4),r6	;0x8509(r4)
 228:	08 86       	sub	r6,	r8	
 22a:	07 87       	sub	r7,	r7	
 22c:	06 88       	sub	r8,	r6	
 22e:	05 89       	sub	r9,	r5	
 230:	04 8a       	sub	r10,	r4	
 232:	03 8b       	.word	0x8b03;	????	Illegal as 2-op instr
 234:	02 00       	mova	@r0,	r2	
 236:	22 00 00 00 	mova	&0x00000,r2	
 23a:	c6 00       	mova	r0,	r6	
 23c:	00 00       	bra	@r0		
 23e:	64 38       	jl	$+202    	;abs 0x308
 240:	9a 00 42 0e 	cmpa	#0x00e42,r10	
 244:	04 42       	mov	r2,	r4	
 246:	0e 06       	mova	@r6,	r14	
 248:	42 0e       	rlam.a	#4,	r2	
 24a:	08 42       	mov	r2,	r8	
 24c:	0e 0a       	mova	@r10,	r14	
 24e:	88 05 89 04 	mova	#0x50489,r8	
 252:	8a 03 8b 02 	mova	#0x3028b,r10	
 256:	7c 0e 0c 4e 	mova	r14,	19980(r12);0x4e0c(r12)
 25a:	0e 0a       	mova	@r10,	r14	
 25c:	08 00       	mova	@r0,	r8	
 25e:	00 00       	bra	@r0		
 260:	c6 00       	mova	r0,	r6	
 262:	00 00       	bra	@r0		
 264:	fe 38       	jl	$+510    	;abs 0x462
 266:	1a 00       	mova	#0x00000,r10	
 268:	08 00       	mova	@r0,	r8	
 26a:	00 00       	bra	@r0		
 26c:	c6 00       	mova	r0,	r6	
 26e:	00 00       	bra	@r0		
 270:	18 39       	jl	$+562    	;abs 0x4a2
 272:	1a 00       	mova	#0x00000,r10	
 274:	22 00 00 00 	mova	&0x00000,r2	
 278:	c6 00       	mova	r0,	r6	
 27a:	00 00       	bra	@r0		
 27c:	32 39       	jl	$+614    	;abs 0x4e2
 27e:	a2 00 42 0e 	adda	#0x00e42,r2	
 282:	04 42       	mov	r2,	r4	
 284:	0e 06       	mova	@r6,	r14	
 286:	42 0e       	rlam.a	#4,	r2	
 288:	08 42       	mov	r2,	r8	
 28a:	0e 0a       	mova	@r10,	r14	
 28c:	42 0e       	rlam.a	#4,	r2	
 28e:	0c 87       	sub	r7,	r12	
 290:	06 88       	sub	r8,	r6	
 292:	05 89       	sub	r9,	r5	
 294:	04 8a       	sub	r10,	r4	
 296:	03 8b       	.word	0x8b03;	????	Illegal as 2-op instr
 298:	02 00       	mova	@r0,	r2	
 29a:	08 00       	mova	@r0,	r8	
 29c:	00 00       	bra	@r0		
 29e:	c6 00       	mova	r0,	r6	
 2a0:	00 00       	bra	@r0		
 2a2:	d4 39       	jl	$+938    	;abs 0x64c
 2a4:	66 00 08 00 	mova	r0,	&0x60008
 2a8:	00 00       	bra	@r0		
 2aa:	c6 00       	mova	r0,	r6	
 2ac:	00 00       	bra	@r0		
 2ae:	3a 3a       	jl	$-906    	;abs 0xff24
 2b0:	08 00       	mova	@r0,	r8	
 2b2:	36 00 00 00 	mova	0x0000,	r6	;PC rel. 0x002b4
 2b6:	c6 00       	mova	r0,	r6	
 2b8:	00 00       	bra	@r0		
 2ba:	42 3a       	jl	$-890    	;abs 0xff40
 2bc:	8c 00 42 0e 	mova	#0x00e42,r12	
 2c0:	04 42       	mov	r2,	r4	
 2c2:	0e 06       	mova	@r6,	r14	
 2c4:	42 0e       	rlam.a	#4,	r2	
 2c6:	08 42       	mov	r2,	r8	
 2c8:	0e 0a       	mova	@r10,	r14	
 2ca:	42 0e       	rlam.a	#4,	r2	
 2cc:	0c 87       	sub	r7,	r12	
 2ce:	06 88       	sub	r8,	r6	
 2d0:	05 89       	sub	r9,	r5	
 2d2:	04 8a       	sub	r10,	r4	
 2d4:	03 8b       	.word	0x8b03;	????	Illegal as 2-op instr
 2d6:	02 66       	addc	r6,	r2	
 2d8:	0e 0e       	mova	@r14,	r14	
 2da:	4e 0e       	rlam.a	#4,	r14	
 2dc:	0c 54       	add	r4,	r12	
 2de:	0e 0e       	mova	@r14,	r14	
 2e0:	44 2e       	jc	$-886    	;abs 0xff6a
 2e2:	02 46       	mov	r6,	r2	
 2e4:	0e 0c       	mova	@r12,	r14	
 2e6:	44 0e       	rlam.a	#4,	r4	
 2e8:	0e 52       	add	r2,	r14	
 2ea:	0e 0c       	mova	@r12,	r14	
 2ec:	12 00       	mova	#0x00000,r2	
 2ee:	00 00       	bra	@r0		
 2f0:	c6 00       	mova	r0,	r6	
 2f2:	00 00       	bra	@r0		
 2f4:	ce 3a       	jl	$-610    	;abs 0x92
 2f6:	44 00       	rrcm.a	#1,	r4	
 2f8:	42 0e       	rlam.a	#4,	r2	
 2fa:	04 42       	mov	r2,	r4	
 2fc:	0e 06       	mova	@r6,	r14	
 2fe:	8a 03 8b 02 	mova	#0x3028b,r10	
 302:	0e 00       	mova	@r0,	r14	
 304:	00 00       	bra	@r0		
 306:	ff ff ff ff 	and.b	@r15+,	-1(r15)	;0xffff(r15)
 30a:	01 00       	mova	@r0,	r1	
 30c:	01 7e       	subc	r14,	r1	
 30e:	00 0c       	bra	@r12		
 310:	01 02       	mova	#4,	r1	;r2 As==10
 312:	80 01 08 00 	bra	#0x10008	
 316:	00 00       	bra	@r0		
 318:	02 03       	mova	#2,	r2	;r3 As==10
 31a:	00 00       	bra	@r0		
 31c:	92 3d       	jmp	$+806    	;abs 0x642
 31e:	06 00       	mova	@r0,	r6	
 320:	08 00       	mova	@r0,	r8	
 322:	00 00       	bra	@r0		
 324:	02 03       	mova	#2,	r2	;r3 As==10
 326:	00 00       	bra	@r0		
 328:	98 3d       	jmp	$+818    	;abs 0x65a
 32a:	14 00       	mova	#0x00000,r4	
 32c:	0e 00       	mova	@r0,	r14	
 32e:	00 00       	bra	@r0		
 330:	02 03       	mova	#2,	r2	;r3 As==10
 332:	00 00       	bra	@r0		
 334:	ac 3d       	jmp	$+858    	;abs 0x68e
 336:	10 00       	bra	#0x00000	
 338:	42 0e       	rlam.a	#4,	r2	
 33a:	04 8b       	sub	r11,	r4	
 33c:	02 00       	mova	@r0,	r2	
 33e:	08 00       	mova	@r0,	r8	
 340:	00 00       	bra	@r0		
 342:	02 03       	mova	#2,	r2	;r3 As==10
 344:	00 00       	bra	@r0		
 346:	bc 3d       	jmp	$+890    	;abs 0x6c0
 348:	26 00 08 00 	mova	&0x00008,r6	
 34c:	00 00       	bra	@r0		
 34e:	02 03       	mova	#2,	r2	;r3 As==10
 350:	00 00       	bra	@r0		
 352:	e2 3d       	jmp	$+966    	;abs 0x718
 354:	1c 00       	mova	#0x00000,r12	
 356:	0e 00       	mova	@r0,	r14	
 358:	00 00       	bra	@r0		
 35a:	02 03       	mova	#2,	r2	;r3 As==10
 35c:	00 00       	bra	@r0		
 35e:	fe 3d       	jmp	$+1022   	;abs 0x75c
 360:	40 00       	rrcm.a	#1,	r0	
 362:	42 0e       	rlam.a	#4,	r2	
 364:	04 8b       	sub	r11,	r4	
 366:	02 00       	mova	@r0,	r2	
 368:	08 00       	mova	@r0,	r8	
 36a:	00 00       	bra	@r0		
 36c:	02 03       	mova	#2,	r2	;r3 As==10
 36e:	00 00       	bra	@r0		
 370:	3e 3e       	jmp	$-898    	;abs 0xffee
 372:	30 00 18 00 	bra	0x0018		;PC rel. 0x0038c
 376:	00 00       	bra	@r0		
 378:	02 03       	mova	#2,	r2	;r3 As==10
 37a:	00 00       	bra	@r0		
 37c:	6e 3e       	jmp	$-802    	;abs 0x5a
 37e:	4c 00       	rrcm.a	#1,	r12	
 380:	42 0e       	rlam.a	#4,	r2	
 382:	04 42       	mov	r2,	r4	
 384:	0e 06       	mova	@r6,	r14	
 386:	42 0e       	rlam.a	#4,	r2	
 388:	08 89       	sub	r9,	r8	
 38a:	04 8a       	sub	r10,	r4	
 38c:	03 8b       	.word	0x8b03;	????	Illegal as 2-op instr
 38e:	02 00       	mova	@r0,	r2	
 390:	12 00       	mova	#0x00000,r2	
 392:	00 00       	bra	@r0		
 394:	02 03       	mova	#2,	r2	;r3 As==10
 396:	00 00       	bra	@r0		
 398:	ba 3e       	jmp	$-650    	;abs 0x10e
 39a:	3e 00 42 0e 	mova	0x0e42,	r14	;PC rel. 0x011de
 39e:	04 42       	mov	r2,	r4	
 3a0:	0e 06       	mova	@r6,	r14	
 3a2:	8a 03 8b 02 	mova	#0x3028b,r10	
 3a6:	0c 00       	mova	@r0,	r12	
 3a8:	00 00       	bra	@r0		
 3aa:	02 03       	mova	#2,	r2	;r3 As==10
 3ac:	00 00       	bra	@r0		
 3ae:	f8 3e       	jmp	$-526    	;abs 0x1a0
 3b0:	20 00 42 0e 	bra	&0x00e42	
 3b4:	04 00       	mova	@r0,	r4	
 3b6:	0c 00       	mova	@r0,	r12	
 3b8:	00 00       	bra	@r0		
 3ba:	02 03       	mova	#2,	r2	;r3 As==10
 3bc:	00 00       	bra	@r0		
 3be:	18 3f       	jmp	$-462    	;abs 0x1f0
 3c0:	22 00 42 0e 	mova	&0x00e42,r2	
 3c4:	04 00       	mova	@r0,	r4	
 3c6:	18 00       	mova	#0x00000,r8	
 3c8:	00 00       	bra	@r0		
 3ca:	02 03       	mova	#2,	r2	;r3 As==10
 3cc:	00 00       	bra	@r0		
 3ce:	3a 3f       	jmp	$-394    	;abs 0x244
 3d0:	48 00       	rrcm.a	#1,	r8	
 3d2:	42 0e       	rlam.a	#4,	r2	
 3d4:	04 42       	mov	r2,	r4	
 3d6:	0e 06       	mova	@r6,	r14	
 3d8:	42 0e       	rlam.a	#4,	r2	
 3da:	08 89       	sub	r9,	r8	
 3dc:	04 8a       	sub	r10,	r4	
 3de:	03 8b       	.word	0x8b03;	????	Illegal as 2-op instr
 3e0:	02 00       	mova	@r0,	r2	
 3e2:	1c 00       	mova	#0x00000,r12	
 3e4:	00 00       	bra	@r0		
 3e6:	02 03       	mova	#2,	r2	;r3 As==10
 3e8:	00 00       	bra	@r0		
 3ea:	82 3f       	jmp	$-250    	;abs 0x2f0
 3ec:	6c 00 42 0e 	mova	r0,	&0xc0e42
 3f0:	04 42       	mov	r2,	r4	
 3f2:	0e 06       	mova	@r6,	r14	
 3f4:	42 0e       	rlam.a	#4,	r2	
 3f6:	08 42       	mov	r2,	r8	
 3f8:	0e 0a       	mova	@r10,	r14	
 3fa:	88 05 89 04 	mova	#0x50489,r8	
 3fe:	8a 03 8b 02 	mova	#0x3028b,r10	
 402:	22 00 00 00 	mova	&0x00000,r2	
 406:	02 03       	mova	#2,	r2	;r3 As==10
 408:	00 00       	bra	@r0		
 40a:	ee 3f       	jmp	$-34     	;abs 0x3e8
 40c:	80 00 42 0e 	bra	#0x00e42	
 410:	04 42       	mov	r2,	r4	
 412:	0e 06       	mova	@r6,	r14	
 414:	42 0e       	rlam.a	#4,	r2	
 416:	08 42       	mov	r2,	r8	
 418:	0e 0a       	mova	@r10,	r14	
 41a:	42 0e       	rlam.a	#4,	r2	
 41c:	0c 87       	sub	r7,	r12	
 41e:	06 88       	sub	r8,	r6	
 420:	05 89       	sub	r9,	r5	
 422:	04 8a       	sub	r10,	r4	
 424:	03 8b       	.word	0x8b03;	????	Illegal as 2-op instr
 426:	02 00       	mova	@r0,	r2	
 428:	1c 00       	mova	#0x00000,r12	
 42a:	00 00       	bra	@r0		
 42c:	02 03       	mova	#2,	r2	;r3 As==10
 42e:	00 00       	bra	@r0		
 430:	6e 40       	mov.b	@r0,	r14	
 432:	98 00 42 0e 	cmpa	#0x00e42,r8	
 436:	04 42       	mov	r2,	r4	
 438:	0e 06       	mova	@r6,	r14	
 43a:	42 0e       	rlam.a	#4,	r2	
 43c:	08 42       	mov	r2,	r8	
 43e:	0e 0a       	mova	@r10,	r14	
 440:	88 05 89 04 	mova	#0x50489,r8	
 444:	8a 03 8b 02 	mova	#0x3028b,r10	
 448:	1c 00       	mova	#0x00000,r12	
 44a:	00 00       	bra	@r0		
 44c:	02 03       	mova	#2,	r2	;r3 As==10
 44e:	00 00       	bra	@r0		
 450:	06 41       	mov	r1,	r6	
 452:	62 00 42 0e 	mova	r0,	&0x20e42
 456:	04 42       	mov	r2,	r4	
 458:	0e 06       	mova	@r6,	r14	
 45a:	42 0e       	rlam.a	#4,	r2	
 45c:	08 42       	mov	r2,	r8	
 45e:	0e 0a       	mova	@r10,	r14	
 460:	88 05 89 04 	mova	#0x50489,r8	
 464:	8a 03 8b 02 	mova	#0x3028b,r10	
 468:	1c 00       	mova	#0x00000,r12	
 46a:	00 00       	bra	@r0		
 46c:	02 03       	mova	#2,	r2	;r3 As==10
 46e:	00 00       	bra	@r0		
 470:	68 41       	mov.b	@r1,	r8	
 472:	a2 00 42 0e 	adda	#0x00e42,r2	
 476:	04 42       	mov	r2,	r4	
 478:	0e 06       	mova	@r6,	r14	
 47a:	42 0e       	rlam.a	#4,	r2	
 47c:	08 42       	mov	r2,	r8	
 47e:	0e 0a       	mova	@r10,	r14	
 480:	88 05 89 04 	mova	#0x50489,r8	
 484:	8a 03 8b 02 	mova	#0x3028b,r10	
 488:	22 00 00 00 	mova	&0x00000,r2	
 48c:	02 03       	mova	#2,	r2	;r3 As==10
 48e:	00 00       	bra	@r0		
 490:	0a 42       	mov	r2,	r10	
 492:	96 00 42 0e 	cmpa	#0x00e42,r6	
 496:	04 42       	mov	r2,	r4	
 498:	0e 06       	mova	@r6,	r14	
 49a:	42 0e       	rlam.a	#4,	r2	
 49c:	08 42       	mov	r2,	r8	
 49e:	0e 0a       	mova	@r10,	r14	
 4a0:	42 0e       	rlam.a	#4,	r2	
 4a2:	0c 87       	sub	r7,	r12	
 4a4:	06 88       	sub	r8,	r6	
 4a6:	05 89       	sub	r9,	r5	
 4a8:	04 8a       	sub	r10,	r4	
 4aa:	03 8b       	.word	0x8b03;	????	Illegal as 2-op instr
 4ac:	02 00       	mova	@r0,	r2	
 4ae:	1c 00       	mova	#0x00000,r12	
 4b0:	00 00       	bra	@r0		
 4b2:	02 03       	mova	#2,	r2	;r3 As==10
 4b4:	00 00       	bra	@r0		
 4b6:	a0 42 d0 00 	mov	#4,	0x00d0	;r2 As==10, PC rel. 0x0058a
 4ba:	42 0e       	rlam.a	#4,	r2	
 4bc:	04 42       	mov	r2,	r4	
 4be:	0e 06       	mova	@r6,	r14	
 4c0:	42 0e       	rlam.a	#4,	r2	
 4c2:	08 42       	mov	r2,	r8	
 4c4:	0e 0a       	mova	@r10,	r14	
 4c6:	88 05 89 04 	mova	#0x50489,r8	
 4ca:	8a 03 8b 02 	mova	#0x3028b,r10	
 4ce:	0e 00       	mova	@r0,	r14	
 4d0:	00 00       	bra	@r0		
 4d2:	ff ff ff ff 	and.b	@r15+,	-1(r15)	;0xffff(r15)
 4d6:	01 00       	mova	@r0,	r1	
 4d8:	01 7e       	subc	r14,	r1	
 4da:	00 0c       	bra	@r12		
 4dc:	01 02       	mova	#4,	r1	;r2 As==10
 4de:	80 01 08 00 	bra	#0x10008	
 4e2:	00 00       	bra	@r0		
 4e4:	ce 04       	mova	r4,	r14	
 4e6:	00 00       	bra	@r0		
 4e8:	70 43       	br	#-1		;r3 As==11
 4ea:	12 00       	mova	#0x00000,r2	
 4ec:	08 00       	mova	@r0,	r8	
 4ee:	00 00       	bra	@r0		
 4f0:	ce 04       	mova	r4,	r14	
 4f2:	00 00       	bra	@r0		
 4f4:	82 43 0e 00 	mov	#0,	&0x000e	;r3 As==00
 4f8:	0e 00       	mova	@r0,	r14	
 4fa:	00 00       	bra	@r0		
 4fc:	ff ff ff ff 	and.b	@r15+,	-1(r15)	;0xffff(r15)
 500:	01 00       	mova	@r0,	r1	
 502:	01 7e       	subc	r14,	r1	
 504:	00 0c       	bra	@r12		
 506:	01 02       	mova	#4,	r1	;r2 As==10
 508:	80 01 34 00 	bra	#0x10034	
 50c:	00 00       	bra	@r0		
 50e:	f8 04       	suba	r4,	r8	
 510:	00 00       	bra	@r0		
 512:	90 43 04 01 	mov	#1,	0x0104	;r3 As==01, PC rel. 0x0061a
 516:	42 0e       	rlam.a	#4,	r2	
 518:	04 42       	mov	r2,	r4	
 51a:	0e 06       	mova	@r6,	r14	
 51c:	42 0e       	rlam.a	#4,	r2	
 51e:	08 42       	mov	r2,	r8	
 520:	0e 0a       	mova	@r10,	r14	
 522:	42 0e       	rlam.a	#4,	r2	
 524:	0c 42       	mov	r2,	r12	
 526:	0e 0e       	mova	@r14,	r14	
 528:	42 0e       	rlam.a	#4,	r2	
 52a:	10 42 0e 12 	br	&0x120e	
 52e:	42 0e       	rlam.a	#4,	r2	
 530:	14 84 09 85 	sub	-31479(r4),r4	;0x8509(r4)
 534:	08 86       	sub	r6,	r8	
 536:	07 87       	sub	r7,	r7	
 538:	06 88       	sub	r8,	r6	
 53a:	05 89       	sub	r9,	r5	
 53c:	04 8a       	sub	r10,	r4	
 53e:	03 8b       	.word	0x8b03;	????	Illegal as 2-op instr
 540:	02 00       	mova	@r0,	r2	
 542:	34 00 00 00 	mova	0x0000,	r4	;PC rel. 0x00544
 546:	f8 04       	suba	r4,	r8	
 548:	00 00       	bra	@r0		
 54a:	9c 44 6a 03 	mov	874(r4),3650(r12);0x036a(r4), 0x0e42(r12)
 54e:	42 0e 
 550:	04 42       	mov	r2,	r4	
 552:	0e 06       	mova	@r6,	r14	
 554:	42 0e       	rlam.a	#4,	r2	
 556:	08 42       	mov	r2,	r8	
 558:	0e 0a       	mova	@r10,	r14	
 55a:	42 0e       	rlam.a	#4,	r2	
 55c:	0c 42       	mov	r2,	r12	
 55e:	0e 0e       	mova	@r14,	r14	
 560:	42 0e       	rlam.a	#4,	r2	
 562:	10 42 0e 12 	br	&0x120e	
 566:	44 0e       	rlam.a	#4,	r4	
 568:	34 84       	sub	@r4+,	r4	
 56a:	09 85       	sub	r5,	r9	
 56c:	08 86       	sub	r6,	r8	
 56e:	07 87       	sub	r7,	r7	
 570:	06 88       	sub	r8,	r6	
 572:	05 89       	sub	r9,	r5	
 574:	04 8a       	sub	r10,	r4	
 576:	03 8b       	.word	0x8b03;	????	Illegal as 2-op instr
 578:	02 00       	mova	@r0,	r2	

Disassembly of section .debug_str:

00000000 <.debug_str>:
   0:	2a 5f       	add	@r15,	r10	
   2:	5f 44 43 4f 	mov.b	20291(r4),r15	;0x4f43(r4)
   6:	43 54       	.word	0x5443;	????	Illegal as 2-op instr
   8:	4c 00       	rrcm.a	#1,	r12	
   a:	79 5f       	add.b	@r15+,	r9	
   c:	61 78       	subc.b	@r8,	r1	
   e:	69 73       	subc.b	#2,	r9	;r3 As==10
  10:	00 47       	br	r7		
  12:	4e 55       	add.b	r5,	r14	
  14:	20 43       	br	#2		;r3 As==10
  16:	20 34       	jge	$+66     	;abs 0x58
  18:	2e 35       	jge	$+606    	;abs 0x276
  1a:	2e 33       	jn	$-418    	;abs 0xfe78
  1c:	00 72       	subc	r2,	r0	
  1e:	65 73       	subc.b	#2,	r5	;r3 As==10
  20:	70 00 43 3a 	mova	r0,	0x3a43	;PC rel. 0x03a65
  24:	5c 55 73 65 	add.b	25971(r5),r12	;0x6573(r5)
  28:	72 73       	subc.b	#-1,	r2	;r3 As==11
  2a:	5c 66 6c 61 	addc.b	24940(r6),r12	;0x616c(r6)
  2e:	76 69       	addc.b	@r9+,	r6	
  30:	6f 68       	addc.b	@r8,	r15	
  32:	70 6f       	addc.b	@r15+,	r0	
  34:	5c 44 65 73 	mov.b	29541(r4),r12	;0x7365(r4)
  38:	6b 74       	subc.b	@r4,	r11	
  3a:	6f 70       	subc.b	@r0,	r15	
  3c:	5c 6d 69 6e 	addc.b	28265(r13),r12	;0x6e69(r13)
  40:	69 71       	subc.b	@r1,	r9	
  42:	75 61       	addc.b	@r1+,	r5	
  44:	64 5c       	add.b	@r12,	r4	
  46:	6d 69       	addc.b	@r9,	r13	
  48:	6e 69       	addc.b	@r9,	r14	
  4a:	71 75       	subc.b	@r5+,	r1	
  4c:	61 64       	addc.b	@r4,	r1	
  4e:	5c 56 69 62 	add.b	25193(r6),r12	;0x6269(r6)
  52:	72 61       	addc.b	@r1+,	r2	
  54:	74 69       	addc.b	@r9+,	r4	
  56:	6f 6e       	addc.b	@r14,	r15	
  58:	54 65 73 74 	addc.b	29811(r5),r4	;0x7473(r5)
  5c:	65 72       	subc.b	#4,	r5	;r2 As==10
  5e:	00 73       	sbc	r0		
  60:	68 6f       	addc.b	@r15,	r8	
  62:	72 74       	subc.b	@r4+,	r2	
  64:	20 75       	subc	@r5,	r0	
  66:	6e 73       	subc.b	#2,	r14	;r3 As==10
  68:	69 67       	addc.b	@r7,	r9	
  6a:	6e 65       	addc.b	@r5,	r14	
  6c:	64 20       	jnz	$+202    	;abs 0x136
  6e:	69 6e       	addc.b	@r14,	r9	
  70:	74 00 2a 5f 	mova	r0,	24362(r4);0x5f2a(r4)
  74:	5f 42 43 53 	mov.b	&0x5343,r15	
  78:	43 54       	.word	0x5443;	????	Illegal as 2-op instr
  7a:	4c 31       	jn	$+666    	;abs 0x314
  7c:	00 2a       	jnc	$-1022   	;abs 0xfc7e
  7e:	5f 5f 50 32 	add.b	12880(r15),r15	;0x3250(r15)
  82:	4f 55       	add.b	r5,	r15	
  84:	54 00       	rrcm	#1,	r4	
  86:	75 6e       	addc.b	@r14+,	r5	
  88:	73 69       	.word	0x6973;	????	Illegal as 2-op instr
  8a:	67 6e       	addc.b	@r14,	r7	
  8c:	65 64       	addc.b	@r4,	r5	
  8e:	20 63       	addc	#2,	r0	;r3 As==10
  90:	68 61       	addc.b	@r1,	r8	
  92:	72 00 7a 5f 	mova	r0,	&0x5f7a	
  96:	61 78       	subc.b	@r8,	r1	
  98:	69 73       	subc.b	#2,	r9	;r3 As==10
  9a:	00 4c       	br	r12		
  9c:	43 44       	.word	0x4443;	????	Illegal as 2-op instr
  9e:	42 61       	addc.b	r1,	r2	
  a0:	63 6b       	.word	0x6b63;	????	Illegal as 2-op instr
  a2:	43 6f       	.word	0x6f43;	????	Illegal as 2-op instr
  a4:	6c 6f       	addc.b	@r15,	r12	
  a6:	72 00 64 6f 	mova	r0,	&0x6f64	
  aa:	75 62       	addc.b	#8,	r5	;r2 As==11
  ac:	6c 65       	addc.b	@r5,	r12	
  ae:	00 6d       	addc	r13,	r0	
  b0:	61 69       	addc.b	@r9,	r1	
  b2:	6e 00 6c 6f 	mova	r0,	&0xe6f6c
  b6:	6e 67       	addc.b	@r7,	r14	
  b8:	20 6c       	addc	@r12,	r0	
  ba:	6f 6e       	addc.b	@r14,	r15	
  bc:	67 20       	jnz	$+208    	;abs 0x18c
  be:	75 6e       	addc.b	@r14+,	r5	
  c0:	73 69       	.word	0x6973;	????	Illegal as 2-op instr
  c2:	67 6e       	addc.b	@r14,	r7	
  c4:	65 64       	addc.b	@r4,	r5	
  c6:	20 69       	addc	@r9,	r0	
  c8:	6e 74       	subc.b	@r4,	r14	
  ca:	00 2a       	jnc	$-1022   	;abs 0xfccc
  cc:	5f 5f 57 44 	add.b	17495(r15),r15	;0x4457(r15)
  d0:	54 43       	mov.b	#1,	r4	;r3 As==01
  d2:	54 4c 00 78 	mov.b	30720(r12),r4	;0x7800(r12)
  d6:	5f 61 78 69 	addc.b	27000(r1),r15	;0x6978(r1)
  da:	73 00       	.word	0x0073;	????	Illegal as address instr
  dc:	2a 5f       	add	@r15,	r10	
  de:	5f 42 43 53 	mov.b	&0x5343,r15	
  e2:	43 54       	.word	0x5443;	????	Illegal as 2-op instr
  e4:	4c 33       	jn	$-358    	;abs 0xff7e
  e6:	00 6c       	addc	r12,	r0	
  e8:	6f 6e       	addc.b	@r14,	r15	
  ea:	67 20       	jnz	$+208    	;abs 0x1ba
  ec:	6c 6f       	addc.b	@r15,	r12	
  ee:	6e 67       	addc.b	@r7,	r14	
  f0:	20 69       	addc	@r9,	r0	
  f2:	6e 74       	subc.b	@r4,	r14	
  f4:	00 6d       	addc	r13,	r0	
  f6:	61 69       	addc.b	@r9,	r1	
  f8:	6e 2e       	jc	$-802    	;abs 0xfdd6
  fa:	63 00 73 68 	mova	r0,	&0x36873
  fe:	6f 72       	subc.b	#4,	r15	;r2 As==10
 100:	74 20       	jnz	$+234    	;abs 0x1ea
 102:	69 6e       	addc.b	@r14,	r9	
 104:	74 00 2a 5f 	mova	r0,	24362(r4);0x5f2a(r4)
 108:	5f 42 43 53 	mov.b	&0x5343,r15	
 10c:	43 54       	.word	0x5443;	????	Illegal as 2-op instr
 10e:	4c 32       	jn	$-870    	;abs 0xfda8
 110:	00 2a       	jnc	$-1022   	;abs 0xfd12
 112:	5f 5f 50 32 	add.b	12880(r15),r15	;0x3250(r15)
 116:	44 49       	mov.b	r9,	r4	
 118:	52 00       	rrcm	#1,	r2	
 11a:	54 69 6d 65 	addc.b	25965(r9),r4	;0x656d(r9)
 11e:	44 65       	addc.b	r5,	r4	
 120:	6c 61       	addc.b	@r1,	r12	
 122:	79 00 54 49 	mova	r0,	18772(r9);0x4954(r9)
 126:	4d 45       	mov.b	r5,	r13	
 128:	44 45       	mov.b	r5,	r4	
 12a:	4c 41       	mov.b	r1,	r12	
 12c:	59 5f 4c 45 	add.b	17740(r15),r9	;0x454c(r15)
 130:	4e 00       	rrcm.a	#1,	r14	
 132:	74 65       	addc.b	@r5+,	r4	
 134:	6d 70       	subc.b	@r0,	r13	
 136:	6f 00 73 65 	mova	r0,	&0xf6573
 13a:	74 5f       	add.b	@r15+,	r4	
 13c:	64 65       	addc.b	@r5,	r4	
 13e:	6c 61       	addc.b	@r1,	r12	
 140:	79 00 64 65 	mova	r0,	25956(r9);0x6564(r9)
 144:	6c 61       	addc.b	@r1,	r12	
 146:	79 6d       	addc.b	@r13+,	r9	
 148:	73 00       	.word	0x0073;	????	Illegal as address instr
 14a:	64 65       	addc.b	@r5,	r4	
 14c:	6c 61       	addc.b	@r1,	r12	
 14e:	79 35       	jge	$+756    	;abs 0x442
 150:	75 73       	subc.b	#-1,	r5	;r3 As==11
 152:	00 44       	br	r4		
 154:	45 4c       	mov.b	r12,	r5	
 156:	41 59       	add.b	r9,	r1	
 158:	5f 49 4e 44 	mov.b	17486(r9),r15	;0x444e(r9)
 15c:	45 58       	add.b	r8,	r5	
 15e:	00 69       	addc	r9,	r0	
 160:	6e 64       	addc.b	@r4,	r14	
 162:	65 78       	subc.b	@r8,	r5	
 164:	00 64       	addc	r4,	r0	
 166:	65 6c       	addc.b	@r12,	r5	
 168:	61 79       	subc.b	@r9,	r1	
 16a:	75 73       	subc.b	#-1,	r5	;r3 As==11
 16c:	00 64       	addc	r4,	r0	
 16e:	65 6c       	addc.b	@r12,	r5	
 170:	61 79       	subc.b	@r9,	r1	
 172:	2e 63       	addc	#2,	r14	;r3 As==10
 174:	00 74       	subc	r4,	r0	
 176:	69 6d       	addc.b	@r13,	r9	
 178:	65 00 67 65 	mova	r0,	&0x56567
 17c:	74 5f       	add.b	@r15+,	r4	
 17e:	64 65       	addc.b	@r5,	r4	
 180:	6c 61       	addc.b	@r1,	r12	
 182:	79 00 64 65 	mova	r0,	25956(r9);0x6564(r9)
 186:	6c 61       	addc.b	@r1,	r12	
 188:	79 32       	jn	$-780    	;abs 0xfe7c
 18a:	75 73       	subc.b	#-1,	r5	;r3 As==11
 18c:	00 63       	adc	r0		
 18e:	6f 6d       	addc.b	@r13,	r15	
 190:	6d 00 6c 63 	mova	r0,	&0xd636c
 194:	64 5f       	add.b	@r15,	r4	
 196:	6e 65       	addc.b	@r5,	r14	
 198:	77 6c       	addc.b	@r12+,	r7	
 19a:	69 6e       	addc.b	@r14,	r9	
 19c:	65 00 62 61 	mova	r0,	&0x56162
 1a0:	63 6b       	.word	0x6b63;	????	Illegal as 2-op instr
 1a2:	67 72       	subc.b	#4,	r7	;r2 As==10
 1a4:	6f 75       	subc.b	@r5,	r15	
 1a6:	6e 64       	addc.b	@r4,	r14	
 1a8:	5f 63       	addc.b	#1,	r15	;r3 As==01
 1aa:	6f 6c       	addc.b	@r12,	r15	
 1ac:	6f 72       	subc.b	#4,	r15	;r2 As==10
 1ae:	00 4c       	br	r12		
 1b0:	43 44       	.word	0x4443;	????	Illegal as 2-op instr
 1b2:	4c 69       	addc.b	r9,	r12	
 1b4:	6e 65       	addc.b	@r5,	r14	
 1b6:	43 6f       	.word	0x6f43;	????	Illegal as 2-op instr
 1b8:	75 6e       	addc.b	@r14+,	r5	
 1ba:	74 00 73 74 	mova	r0,	29811(r4);0x7473(r4)
 1be:	65 70       	subc.b	@r0,	r5	
 1c0:	78 00 6e 36 	mova	r0,	13934(r8);0x366e(r8)
 1c4:	31 30       	jn	$+100    	;abs 0x228
 1c6:	30 5f       	add	@r15+,	r0	
 1c8:	73 65       	.word	0x6573;	????	Illegal as 2-op instr
 1ca:	6e 64       	addc.b	@r4,	r14	
 1cc:	00 6c       	addc	r12,	r0	
 1ce:	63 64       	.word	0x6463;	????	Illegal as 2-op instr
 1d0:	5f 64 72 61 	addc.b	24946(r4),r15	;0x6172(r4)
 1d4:	77 70 6f 69 	subc.b	#26991,	r7	;#0x696f
 1d8:	6e 74       	subc.b	@r4,	r14	
 1da:	00 6c       	addc	r12,	r0	
 1dc:	63 64       	.word	0x6463;	????	Illegal as 2-op instr
 1de:	36 31       	jn	$+622    	;abs 0x44c
 1e0:	30 30       	jn	$+98     	;abs 0x242
 1e2:	2e 63       	addc	#2,	r14	;r3 As==10
 1e4:	00 2a       	jnc	$-1022   	;abs 0xfde6
 1e6:	5f 5f 50 35 	add.b	13648(r15),r15	;0x3550(r15)
 1ea:	4f 55       	add.b	r5,	r15	
 1ec:	54 00       	rrcm	#1,	r4	
 1ee:	6c 63       	addc.b	#2,	r12	;r3 As==10
 1f0:	64 5f       	add.b	@r15,	r4	
 1f2:	77 72       	subc.b	#8,	r7	;r2 As==11
 1f4:	63 68       	.word	0x6863;	????	Illegal as 2-op instr
 1f6:	61 72       	subc.b	#4,	r1	;r2 As==10
 1f8:	00 6c       	addc	r12,	r0	
 1fa:	63 64       	.word	0x6463;	????	Illegal as 2-op instr
 1fc:	5f 69 6e 69 	addc.b	26990(r9),r15	;0x696e(r9)
 200:	74 00 66 72 	mova	r0,	29286(r4);0x7266(r4)
 204:	61 63       	addc.b	#2,	r1	;r3 As==10
 206:	74 69       	addc.b	@r9+,	r4	
 208:	6f 6e       	addc.b	@r14,	r15	
 20a:	00 77       	subc	r7,	r0	
 20c:	69 64       	addc.b	@r4,	r9	
 20e:	74 68       	addc.b	@r8+,	r4	
 210:	00 63       	adc	r0		
 212:	6f 6c       	addc.b	@r12,	r15	
 214:	6f 72       	subc.b	#4,	r15	;r2 As==10
 216:	70 72       	subc.b	#8,	r0	;r2 As==11
 218:	6f 67       	addc.b	@r7,	r15	
 21a:	72 65       	addc.b	@r5+,	r2	
 21c:	73 73       	.word	0x7373;	????	Illegal as 2-op instr
 21e:	00 6c       	addc	r12,	r0	
 220:	78 5f       	add.b	@r15+,	r8	
 222:	70 72       	subc.b	#8,	r0	;r2 As==11
 224:	6f 67       	addc.b	@r7,	r15	
 226:	72 65       	addc.b	@r5+,	r2	
 228:	73 73       	.word	0x7373;	????	Illegal as 2-op instr
 22a:	00 6c       	addc	r12,	r0	
 22c:	63 64       	.word	0x6463;	????	Illegal as 2-op instr
 22e:	5f 67 6f 74 	addc.b	29807(r7),r15	;0x746f(r7)
 232:	6f 00 6c 63 	mova	r0,	&0xf636c
 236:	64 5f       	add.b	@r15,	r4	
 238:	70 75       	subc.b	@r5+,	r0	
 23a:	74 64       	addc.b	@r4+,	r4	
 23c:	6f 74       	subc.b	@r4,	r15	
 23e:	00 6e       	addc	r14,	r0	
 240:	36 31       	jn	$+622    	;abs 0x4ae
 242:	30 30       	jn	$+98     	;abs 0x2a4
 244:	5f 73       	subc.b	#1,	r15	;r3 As==01
 246:	65 6e       	addc.b	@r14,	r5	
 248:	64 63       	addc.b	#2,	r4	;r3 As==10
 24a:	6f 6d       	addc.b	@r13,	r15	
 24c:	31 00 6e 36 	mova	0x366e,	r1	;PC rel. 0x038bc
 250:	31 30       	jn	$+100    	;abs 0x2b4
 252:	30 5f       	add	@r15+,	r0	
 254:	73 65       	.word	0x6573;	????	Illegal as 2-op instr
 256:	6e 64       	addc.b	@r4,	r14	
 258:	63 6f       	.word	0x6f63;	????	Illegal as 2-op instr
 25a:	6d 32       	jn	$-804    	;abs 0xff36
 25c:	00 72       	subc	r2,	r0	
 25e:	61 64       	addc.b	@r4,	r1	
 260:	69 75       	subc.b	@r5,	r9	
 262:	73 00       	.word	0x0073;	????	Illegal as address instr
 264:	64 61       	addc.b	@r1,	r4	
 266:	74 31       	jn	$+746    	;abs 0x550
 268:	00 6c       	addc	r12,	r0	
 26a:	63 64       	.word	0x6463;	????	Illegal as 2-op instr
 26c:	5f 73       	subc.b	#1,	r15	;r3 As==01
 26e:	65 74       	subc.b	@r4,	r5	
 270:	63 6f       	.word	0x6f63;	????	Illegal as 2-op instr
 272:	6c 6f       	addc.b	@r15,	r12	
 274:	72 00 73 74 	mova	r0,	&0x7473	
 278:	65 70       	subc.b	@r0,	r5	
 27a:	79 00 6c 63 	mova	r0,	25452(r9);0x636c(r9)
 27e:	64 5f       	add.b	@r15,	r4	
 280:	64 72       	subc.b	#4,	r4	;r2 As==10
 282:	61 77       	subc.b	@r7,	r1	
 284:	63 69       	.word	0x6963;	????	Illegal as 2-op instr
 286:	72 63       	addc.b	#-1,	r2	;r3 As==11
 288:	6c 65       	addc.b	@r5,	r12	
 28a:	00 6c       	addc	r12,	r0	
 28c:	63 64       	.word	0x6463;	????	Illegal as 2-op instr
 28e:	5f 63       	addc.b	#1,	r15	;r3 As==01
 290:	6c 65       	addc.b	@r5,	r12	
 292:	61 72       	subc.b	#4,	r1	;r2 As==10
 294:	00 64       	addc	r4,	r0	
 296:	61 74       	subc.b	@r4,	r1	
 298:	61 00 66 6f 	mova	r0,	&0x16f66
 29c:	72 65       	addc.b	@r5+,	r2	
 29e:	67 72       	subc.b	#4,	r7	;r2 As==10
 2a0:	6f 75       	subc.b	@r5,	r15	
 2a2:	6e 64       	addc.b	@r4,	r14	
 2a4:	5f 63       	addc.b	#1,	r15	;r3 As==01
 2a6:	6f 6c       	addc.b	@r12,	r15	
 2a8:	6f 72       	subc.b	#4,	r15	;r2 As==10
 2aa:	00 6c       	addc	r12,	r0	
 2ac:	63 64       	.word	0x6463;	????	Illegal as 2-op instr
 2ae:	5f 64 72 61 	addc.b	24946(r4),r15	;0x6172(r4)
 2b2:	77 70 72 6f 	subc.b	#28530,	r7	;#0x6f72
 2b6:	67 72       	subc.b	#4,	r7	;r2 As==10
 2b8:	65 73       	subc.b	#2,	r5	;r3 As==10
 2ba:	73 62       	.word	0x6273;	????	Illegal as 2-op instr
 2bc:	61 72       	subc.b	#4,	r1	;r2 As==10
 2be:	00 64       	addc	r4,	r0	
 2c0:	64 46       	mov.b	@r6,	r4	
 2c2:	5f 78 00 64 	subc.b	25600(r8),r15	;0x6400(r8)
 2c6:	64 46       	mov.b	@r6,	r4	
 2c8:	5f 79 00 64 	subc.b	25600(r9),r15	;0x6400(r9)
 2cc:	61 74       	subc.b	@r4,	r1	
 2ce:	32 00 4c 43 	mova	0x434c,	r2	;PC rel. 0x0461c
 2d2:	44 43       	clr.b	r4		
 2d4:	68 61       	addc.b	@r1,	r8	
 2d6:	72 43       	mov.b	#-1,	r2	;r3 As==11
 2d8:	6f 75       	subc.b	@r5,	r15	
 2da:	6e 74       	subc.b	@r4,	r14	
 2dc:	00 6d       	addc	r13,	r0	
 2de:	61 73       	subc.b	#2,	r1	;r3 As==10
 2e0:	6b 00 6c 63 	mova	r0,	&0xb636c
 2e4:	64 5f       	add.b	@r15,	r4	
 2e6:	70 75       	subc.b	@r5+,	r0	
 2e8:	74 63       	addc.b	#-1,	r4	;r3 As==11
 2ea:	68 61       	addc.b	@r1,	r8	
 2ec:	72 00 70 65 	mova	r0,	&0x6570	
 2f0:	72 63       	addc.b	#-1,	r2	;r3 As==11
 2f2:	65 6e       	addc.b	@r14,	r5	
 2f4:	74 00 6c 63 	mova	r0,	25452(r4);0x636c(r4)
 2f8:	64 5f       	add.b	@r15,	r4	
 2fa:	64 72       	subc.b	#4,	r4	;r2 As==10
 2fc:	61 77       	subc.b	@r7,	r1	
 2fe:	6c 69       	addc.b	@r9,	r12	
 300:	6e 65       	addc.b	@r5,	r14	
 302:	00 6c       	addc	r12,	r0	
 304:	63 64       	.word	0x6463;	????	Illegal as 2-op instr
 306:	5f 66 69 6c 	addc.b	27753(r6),r15	;0x6c69(r6)
 30a:	6c 72       	subc.b	#4,	r12	;r2 As==10
 30c:	65 63       	addc.b	#2,	r5	;r3 As==10
 30e:	74 00 4c 43 	mova	r0,	17228(r4);0x434c(r4)
 312:	44 46       	mov.b	r6,	r4	
 314:	6f 72       	subc.b	#4,	r15	;r2 As==10
 316:	65 43       	mov.b	#2,	r5	;r3 As==10
 318:	6f 6c       	addc.b	@r12,	r15	
 31a:	6f 72       	subc.b	#4,	r15	;r2 As==10
 31c:	00 6c       	addc	r12,	r0	
 31e:	63 64       	.word	0x6463;	????	Illegal as 2-op instr
 320:	5f 70 75 74 	subc.b	0x7475,	r15	;PC rel. 0x07799
 324:	6c 6f       	addc.b	@r15,	r12	
 326:	67 6f       	addc.b	@r15,	r7	
 328:	00 2a       	jnc	$-1022   	;abs 0xff2a
 32a:	5f 5f 50 35 	add.b	13648(r15),r15	;0x3550(r15)
 32e:	44 49       	mov.b	r9,	r4	
 330:	52 00       	rrcm	#1,	r2	
 332:	61 73       	subc.b	#2,	r1	;r3 As==10
 334:	63 69       	.word	0x6963;	????	Illegal as 2-op instr
 336:	69 74       	subc.b	@r4,	r9	
 338:	61 62       	addc.b	#4,	r1	;r2 As==10
 33a:	6c 65       	addc.b	@r5,	r12	
 33c:	00 66       	addc	r6,	r0	
 33e:	72 6f       	addc.b	@r15+,	r2	
 340:	6d 00 63 6f 	mova	r0,	&0xd6f63
 344:	6e 66       	addc.b	@r6,	r14	
 346:	69 72       	subc.b	#4,	r9	;r2 As==10
 348:	6d 61       	addc.b	@r1,	r13	
 34a:	74 69       	addc.b	@r9+,	r4	
 34c:	6f 6e       	addc.b	@r14,	r15	
 34e:	00 69       	addc	r9,	r0	
 350:	32 63       	addc	#-1,	r2	;r3 As==11
 352:	5f 66 69 6e 	addc.b	28265(r6),r15	;0x6e69(r6)
 356:	64 5f       	add.b	@r15,	r4	
 358:	64 65       	addc.b	@r5,	r4	
 35a:	76 69       	addc.b	@r9+,	r6	
 35c:	63 65       	.word	0x6563;	????	Illegal as 2-op instr
 35e:	00 69       	addc	r9,	r0	
 360:	32 63       	addc	#-1,	r2	;r3 As==11
 362:	5f 62 72 65 	addc.b	&0x6572,r15	
 366:	61 64       	addc.b	@r4,	r1	
 368:	00 2a       	jnc	$-1022   	;abs 0xff6a
 36a:	5f 5f 50 31 	add.b	12624(r15),r15	;0x3150(r15)
 36e:	4f 55       	add.b	r5,	r15	
 370:	54 00       	rrcm	#1,	r4	
 372:	2a 5f       	add	@r15,	r10	
 374:	5f 50 31 44 	add.b	0x4431,	r15	;PC rel. 0x047a9
 378:	49 52       	add.b	r2,	r9	
 37a:	00 69       	addc	r9,	r0	
 37c:	32 63       	addc	#-1,	r2	;r3 As==11
 37e:	5f 73       	subc.b	#1,	r15	;r3 As==01
 380:	74 6f       	addc.b	@r15+,	r4	
 382:	70 00 69 32 	mova	r0,	0x3269	;PC rel. 0x035ed
 386:	63 5f       	.word	0x5f63;	????	Illegal as 2-op instr
 388:	63 6f       	.word	0x6f63;	????	Illegal as 2-op instr
 38a:	6e 66       	addc.b	@r6,	r14	
 38c:	69 67       	addc.b	@r7,	r9	
 38e:	00 73       	sbc	r0		
 390:	74 61       	addc.b	@r1+,	r4	
 392:	74 75       	subc.b	@r5+,	r4	
 394:	73 00       	.word	0x0073;	????	Illegal as address instr
 396:	73 6c       	.word	0x6c73;	????	Illegal as 2-op instr
 398:	61 76       	subc.b	@r6,	r1	
 39a:	65 5f       	add.b	@r15,	r5	
 39c:	61 64       	addc.b	@r4,	r1	
 39e:	64 72       	subc.b	#4,	r4	;r2 As==10
 3a0:	00 69       	addc	r9,	r0	
 3a2:	32 63       	addc	#-1,	r2	;r3 As==11
 3a4:	5f 72 65 61 	subc.b	&0x6165,r15	
 3a8:	64 5f       	add.b	@r15,	r4	
 3aa:	62 79       	subc.b	@r9,	r2	
 3ac:	74 65       	addc.b	@r5+,	r4	
 3ae:	00 69       	addc	r9,	r0	
 3b0:	32 63       	addc	#-1,	r2	;r3 As==11
 3b2:	5f 77 72 69 	subc.b	26994(r7),r15	;0x6972(r7)
 3b6:	74 65       	addc.b	@r5+,	r4	
 3b8:	5f 6d 75 6c 	addc.b	27765(r13),r15	;0x6c75(r13)
 3bc:	74 69       	addc.b	@r9+,	r4	
 3be:	70 6c       	addc.b	@r12+,	r0	
 3c0:	65 73       	subc.b	#2,	r5	;r3 As==10
 3c2:	00 69       	addc	r9,	r0	
 3c4:	32 63       	addc	#-1,	r2	;r3 As==11
 3c6:	5f 72 65 61 	subc.b	&0x6165,r15	
 3ca:	64 5f       	add.b	@r15,	r4	
 3cc:	6d 75       	subc.b	@r5,	r13	
 3ce:	6c 74       	subc.b	@r4,	r12	
 3d0:	69 70       	subc.b	@r0,	r9	
 3d2:	6c 65       	addc.b	@r5,	r12	
 3d4:	73 00       	.word	0x0073;	????	Illegal as address instr
 3d6:	69 32       	jn	$-812    	;abs 0xaa
 3d8:	63 5f       	.word	0x5f63;	????	Illegal as 2-op instr
 3da:	63 68       	.word	0x6863;	????	Illegal as 2-op instr
 3dc:	61 6e       	addc.b	@r14,	r1	
 3de:	67 65       	addc.b	@r5,	r7	
 3e0:	5f 61 64 64 	addc.b	25700(r1),r15	;0x6464(r1)
 3e4:	72 65       	addc.b	@r5+,	r2	
 3e6:	73 73       	.word	0x7373;	????	Illegal as 2-op instr
 3e8:	00 69       	addc	r9,	r0	
 3ea:	32 63       	addc	#-1,	r2	;r3 As==11
 3ec:	5f 72 65 61 	subc.b	&0x6165,r15	
 3f0:	64 31       	jn	$+714    	;abs 0x6ba
 3f2:	36 5f       	add	@r15+,	r6	
 3f4:	6d 75       	subc.b	@r5,	r13	
 3f6:	6c 74       	subc.b	@r4,	r12	
 3f8:	69 70       	subc.b	@r0,	r9	
 3fa:	6c 65       	addc.b	@r5,	r12	
 3fc:	73 00       	.word	0x0073;	????	Illegal as address instr
 3fe:	69 32       	jn	$-812    	;abs 0xd2
 400:	63 5f       	.word	0x5f63;	????	Illegal as 2-op instr
 402:	73 6c       	.word	0x6c73;	????	Illegal as 2-op instr
 404:	61 76       	subc.b	@r6,	r1	
 406:	65 5f       	add.b	@r15,	r5	
 408:	61 64       	addc.b	@r4,	r1	
 40a:	64 72       	subc.b	#4,	r4	;r2 As==10
 40c:	65 73       	subc.b	#2,	r5	;r3 As==10
 40e:	73 00       	.word	0x0073;	????	Illegal as address instr
 410:	69 32       	jn	$-812    	;abs 0xe4
 412:	63 5f       	.word	0x5f63;	????	Illegal as 2-op instr
 414:	77 72       	subc.b	#8,	r7	;r2 As==11
 416:	69 74       	subc.b	@r4,	r9	
 418:	65 31       	jn	$+716    	;abs 0x6e4
 41a:	36 5f       	add	@r15+,	r6	
 41c:	6d 75       	subc.b	@r5,	r13	
 41e:	6c 74       	subc.b	@r4,	r12	
 420:	69 70       	subc.b	@r0,	r9	
 422:	6c 65       	addc.b	@r5,	r12	
 424:	73 00       	.word	0x0073;	????	Illegal as address instr
 426:	69 32       	jn	$-812    	;abs 0xfa
 428:	63 5f       	.word	0x5f63;	????	Illegal as 2-op instr
 42a:	62 77       	subc.b	@r7,	r2	
 42c:	72 69       	addc.b	@r9+,	r2	
 42e:	74 65       	addc.b	@r5+,	r4	
 430:	00 69       	addc	r9,	r0	
 432:	32 63       	addc	#-1,	r2	;r3 As==11
 434:	5f 73       	subc.b	#1,	r15	;r3 As==01
 436:	65 6e       	addc.b	@r14,	r5	
 438:	64 5f       	add.b	@r15,	r4	
 43a:	61 63       	addc.b	#2,	r1	;r3 As==10
 43c:	6b 00 2a 5f 	mova	r0,	&0xb5f2a
 440:	5f 50 31 49 	add.b	0x4931,	r15	;PC rel. 0x04d75
 444:	4e 00       	rrcm.a	#1,	r14	
 446:	69 32       	jn	$-812    	;abs 0x11a
 448:	63 5f       	.word	0x5f63;	????	Illegal as 2-op instr
 44a:	77 72       	subc.b	#8,	r7	;r2 As==11
 44c:	69 74       	subc.b	@r4,	r9	
 44e:	65 5f       	add.b	@r15,	r5	
 450:	62 79       	subc.b	@r9,	r2	
 452:	74 65       	addc.b	@r5+,	r4	
 454:	00 69       	addc	r9,	r0	
 456:	32 63       	addc	#-1,	r2	;r3 As==11
 458:	5f 77 72 69 	subc.b	26994(r7),r15	;0x6972(r7)
 45c:	74 65       	addc.b	@r5+,	r4	
 45e:	5f 64 75 6d 	addc.b	28021(r4),r15	;0x6d75(r4)
 462:	6d 79       	subc.b	@r9,	r13	
 464:	00 69       	addc	r9,	r0	
 466:	32 63       	addc	#-1,	r2	;r3 As==11
 468:	2e 63       	addc	#2,	r14	;r3 As==10
 46a:	00 69       	addc	r9,	r0	
 46c:	32 63       	addc	#-1,	r2	;r3 As==11
 46e:	5f 77 72 69 	subc.b	26994(r7),r15	;0x6972(r7)
 472:	74 65       	addc.b	@r5+,	r4	
 474:	31 36       	jge	$-924    	;abs 0xd8
 476:	5f 62 79 74 	addc.b	&0x7479,r15	
 47a:	65 00 69 32 	mova	r0,	&0x53269
 47e:	63 5f       	.word	0x5f63;	????	Illegal as 2-op instr
 480:	69 6e       	addc.b	@r14,	r9	
 482:	69 74       	subc.b	@r4,	r9	
 484:	00 69       	addc	r9,	r0	
 486:	32 63       	addc	#-1,	r2	;r3 As==11
 488:	5f 72 65 63 	subc.b	&0x6365,r15	
 48c:	76 5f       	add.b	@r15+,	r6	
 48e:	61 63       	addc.b	#2,	r1	;r3 As==10
 490:	6b 00 69 32 	mova	r0,	&0xb3269
 494:	63 5f       	.word	0x5f63;	????	Illegal as 2-op instr
 496:	73 74       	.word	0x7473;	????	Illegal as 2-op instr
 498:	61 72       	subc.b	#4,	r1	;r2 As==10
 49a:	74 00 69 32 	mova	r0,	12905(r4);0x3269(r4)
 49e:	63 5f       	.word	0x5f63;	????	Illegal as 2-op instr
 4a0:	72 65       	addc.b	@r5+,	r2	
 4a2:	61 64       	addc.b	@r4,	r1	
 4a4:	31 36       	jge	$-924    	;abs 0x108
 4a6:	5f 62 79 74 	addc.b	&0x7479,r15	
 4aa:	65 00 5f 5f 	mova	r0,	&0x55f5f
 4ae:	62 75       	subc.b	@r5,	r2	
 4b0:	69 6c       	addc.b	@r12,	r9	
 4b2:	74 69       	addc.b	@r9+,	r4	
 4b4:	6e 5f       	add.b	@r15,	r14	
 4b6:	76 61       	addc.b	@r1+,	r6	
 4b8:	5f 6c 69 73 	addc.b	29545(r12),r15	;0x7369(r12)
 4bc:	74 00 2f 72 	mova	r0,	29231(r4);0x722f(r4)
 4c0:	6f 6f       	addc.b	@r15,	r15	
 4c2:	74 2f       	jc	$-278    	;abs 0x3ac
 4c4:	6d 73       	subc.b	#2,	r13	;r3 As==10
 4c6:	70 67       	addc.b	@r7+,	r0	
 4c8:	63 63       	.word	0x6363;	????	Illegal as 2-op instr
 4ca:	2d 32       	jn	$-932    	;abs 0x126
 4cc:	30 31       	jn	$+610    	;abs 0x72e
 4ce:	31 30       	jn	$+100    	;abs 0x532
 4d0:	37 31       	jn	$+624    	;abs 0x740
 4d2:	36 2f       	jc	$-402    	;abs 0x340
 4d4:	6d 73       	subc.b	#2,	r13	;r3 As==10
 4d6:	70 34       	jge	$+226    	;abs 0x5b8
 4d8:	33 30       	jn	$+104    	;abs 0x540
 4da:	2d 6c       	addc	@r12,	r13	
 4dc:	69 62       	addc.b	#4,	r9	;r2 As==10
 4de:	63 2f       	jc	$-312    	;abs 0x3a6
 4e0:	73 72       	.word	0x7273;	????	Illegal as 2-op instr
 4e2:	63 00 76 70 	mova	r0,	&0x37076
 4e6:	72 69       	addc.b	@r9+,	r2	
 4e8:	6e 74       	subc.b	@r4,	r14	
 4ea:	66 00 2e 2f 	mova	r0,	&0x62f2e
 4ee:	73 74       	.word	0x7473;	????	Illegal as 2-op instr
 4f0:	64 6c       	addc.b	@r12,	r4	
 4f2:	69 62       	addc.b	#4,	r9	;r2 As==10
 4f4:	2f 70       	subc	@r0,	r15	
 4f6:	72 69       	addc.b	@r9+,	r2	
 4f8:	6e 74       	subc.b	@r4,	r14	
 4fa:	66 2e       	jc	$-818    	;abs 0x1c8
 4fc:	63 00 5f 5f 	mova	r0,	&0x35f5f
 500:	67 6e       	addc.b	@r14,	r7	
 502:	75 63       	addc.b	#-1,	r5	;r3 As==11
 504:	5f 76 61 5f 	subc.b	24417(r6),r15	;0x5f61(r6)
 508:	6c 69       	addc.b	@r9,	r12	
 50a:	73 74       	.word	0x7473;	????	Illegal as 2-op instr
 50c:	00 61       	addc	r1,	r0	
 50e:	72 67       	addc.b	@r7+,	r2	
 510:	70 00 69 6e 	mova	r0,	0x6e69	;PC rel. 0x0737b
 514:	74 70 74 72 	subc.b	#29300,	r4	;#0x7274
 518:	5f 74 00 6d 	subc.b	27904(r4),r15	;0x6d00(r4)
 51c:	6f 64       	addc.b	@r4,	r15	
 51e:	65 00 6c 65 	mova	r0,	&0x5656c
 522:	61 64       	addc.b	@r4,	r1	
 524:	69 6e       	addc.b	@r14,	r9	
 526:	67 5f       	add.b	@r15,	r7	
 528:	66 69       	addc.b	@r9,	r6	
 52a:	6c 6c       	addc.b	@r12,	r12	
 52c:	00 77       	subc	r7,	r0	
 52e:	72 69       	addc.b	@r9+,	r2	
 530:	74 65       	addc.b	@r5+,	r4	
 532:	5f 63       	addc.b	#1,	r15	;r3 As==01
 534:	68 61       	addc.b	@r1,	r8	
 536:	72 00 65 6d 	mova	r0,	&0x6d65	
 53a:	69 74       	subc.b	@r4,	r9	
 53c:	5f 68 65 78 	addc.b	30821(r8),r15	;0x7865(r8)
 540:	5f 70 72 65 	subc.b	0x6572,	r15	;PC rel. 0x06ab6
 544:	66 69       	addc.b	@r9,	r6	
 546:	78 00 70 72 	mova	r0,	29296(r8);0x7270(r8)
 54a:	65 66       	addc.b	@r6,	r5	
 54c:	69 78       	subc.b	@r8,	r9	
 54e:	5f 6c 65 6e 	addc.b	28261(r12),r15	;0x6e65(r12)
 552:	00 63       	adc	r0		
 554:	68 61       	addc.b	@r1,	r8	
 556:	72 5f       	add.b	@r15+,	r2	
 558:	70 00 69 73 	mova	r0,	0x7369	;PC rel. 0x078c3
 55c:	5f 61 6c 74 	addc.b	29804(r1),r15	;0x746c(r1)
 560:	65 72       	subc.b	#4,	r5	;r2 As==10
 562:	6e 61       	addc.b	@r1,	r14	
 564:	74 65       	addc.b	@r5+,	r4	
 566:	5f 66 6f 72 	addc.b	29295(r6),r15	;0x726f(r6)
 56a:	6d 00 6c 65 	mova	r0,	&0xd656c
 56e:	66 74       	subc.b	@r4,	r6	
 570:	5f 61 6c 69 	addc.b	26988(r1),r15	;0x696c(r1)
 574:	67 6e       	addc.b	@r14,	r7	
 576:	00 75       	subc	r5,	r0	
 578:	70 70 65 72 	subc.b	#29285,	r0	;#0x7265
 57c:	63 61       	.word	0x6163;	????	Illegal as 2-op instr
 57e:	73 65       	.word	0x6573;	????	Illegal as 2-op instr
 580:	00 69       	addc	r9,	r0	
 582:	73 5f       	.word	0x5f73;	????	Illegal as 2-op instr
 584:	6c 6f       	addc.b	@r15,	r12	
 586:	6e 67       	addc.b	@r7,	r14	
 588:	00 46       	br	r6		
 58a:	4f 52       	add.b	r2,	r15	
 58c:	4d 41       	mov.b	r1,	r13	
 58e:	54 49 4e 47 	mov.b	18254(r9),r4	;0x474e(r9)
 592:	00 70       	subc	r0,	r0	
 594:	72 69       	addc.b	@r9+,	r2	
 596:	6e 74       	subc.b	@r4,	r14	
 598:	5f 66 69 65 	addc.b	25961(r6),r15	;0x6569(r6)
 59c:	6c 64       	addc.b	@r4,	r12	
 59e:	00 66       	addc	r6,	r0	
 5a0:	65 74       	subc.b	@r4,	r5	
 5a2:	63 68       	.word	0x6863;	????	Illegal as 2-op instr
 5a4:	5f 6e 75 6d 	addc.b	28021(r14),r15	;0x6d75(r14)
 5a8:	62 65       	addc.b	@r5,	r2	
 5aa:	72 00 70 72 	mova	r0,	&0x7270	
 5ae:	65 66       	addc.b	@r6,	r5	
 5b0:	69 78       	subc.b	@r8,	r9	
 5b2:	5f 69 64 78 	addc.b	30820(r9),r15	;0x7864(r9)
 5b6:	00 66       	addc	r6,	r0	
 5b8:	6c 61       	addc.b	@r1,	r12	
 5ba:	67 73       	subc.b	#2,	r7	;r3 As==10
 5bc:	00 61       	addc	r1,	r0	
 5be:	72 67       	addc.b	@r7+,	r2	
 5c0:	73 00       	.word	0x0073;	????	Illegal as address instr
 5c2:	70 72       	subc.b	#8,	r0	;r2 As==11
 5c4:	65 66       	addc.b	@r6,	r5	
 5c6:	69 78       	subc.b	@r8,	r9	
 5c8:	5f 62 75 66 	addc.b	&0x6675,r15	
 5cc:	66 65       	addc.b	@r5,	r6	
 5ce:	72 00 72 61 	mova	r0,	&0x6172	
 5d2:	64 69       	addc.b	@r9,	r4	
 5d4:	78 00 69 6e 	mova	r0,	28265(r8);0x6e69(r8)
 5d8:	74 31       	jn	$+746    	;abs 0x8c2
 5da:	36 5f       	add	@r15+,	r6	
 5dc:	74 00 77 72 	mova	r0,	29303(r4);0x7277(r4)
 5e0:	69 74       	subc.b	@r4,	r9	
 5e2:	65 5f       	add.b	@r15,	r5	
 5e4:	63 68       	.word	0x6863;	????	Illegal as 2-op instr
 5e6:	61 72       	subc.b	#4,	r1	;r2 As==10
 5e8:	61 63       	addc.b	#2,	r1	;r3 As==10
 5ea:	74 65       	addc.b	@r5+,	r4	
 5ec:	72 00 73 69 	mova	r0,	&0x6973	
 5f0:	67 6e       	addc.b	@r14,	r7	
 5f2:	5f 63       	addc.b	#1,	r15	;r3 As==01
 5f4:	68 61       	addc.b	@r1,	r8	
 5f6:	72 00 76 75 	mova	r0,	&0x7576	
 5fa:	70 72       	subc.b	#8,	r0	;r2 As==11
 5fc:	69 6e       	addc.b	@r14,	r9	
 5fe:	74 66       	addc.b	@r6+,	r4	
 600:	00 69       	addc	r9,	r0	
 602:	73 5f       	.word	0x5f73;	????	Illegal as 2-op instr
 604:	73 69       	.word	0x6973;	????	Illegal as 2-op instr
 606:	67 6e       	addc.b	@r14,	r7	
 608:	65 64       	addc.b	@r4,	r5	
 60a:	00 66       	addc	r6,	r0	
 60c:	6c 61       	addc.b	@r1,	r12	
 60e:	67 73       	subc.b	#2,	r7	;r3 As==10
 610:	5f 74 00 66 	subc.b	26112(r4),r15	;0x6600(r4)
 614:	69 6c       	addc.b	@r12,	r9	
 616:	6c 5f       	add.b	@r15,	r12	
 618:	7a 65       	addc.b	@r5+,	r10	
 61a:	72 6f       	addc.b	@r15+,	r2	
 61c:	00 2e       	jc	$-1022   	;abs 0x21e
 61e:	2f 73       	subc	#2,	r15	;r3 As==10
 620:	74 64       	addc.b	@r4+,	r4	
 622:	6c 69       	addc.b	@r9,	r12	
 624:	62 2f       	jc	$-314    	;abs 0x4ea
 626:	76 75       	subc.b	@r5+,	r6	
 628:	70 72       	subc.b	#8,	r0	;r2 As==11
 62a:	69 6e       	addc.b	@r14,	r9	
 62c:	74 66       	addc.b	@r6+,	r4	
 62e:	2e 63       	addc	#2,	r14	;r3 As==10
 630:	00 64       	addc	r4,	r0	
 632:	69 67       	addc.b	@r7,	r9	
 634:	69 74       	subc.b	@r4,	r9	
 636:	00 63       	adc	r0		
 638:	68 61       	addc.b	@r1,	r8	
 63a:	72 61       	addc.b	@r1+,	r2	
 63c:	63 74       	.word	0x7463;	????	Illegal as 2-op instr
 63e:	65 72       	subc.b	#4,	r5	;r2 As==10
 640:	5f 63       	addc.b	#1,	r15	;r3 As==01
 642:	6f 75       	subc.b	@r5,	r15	
 644:	6e 74       	subc.b	@r4,	r14	
 646:	00 44       	br	r4		
 648:	49 52       	add.b	r2,	r9	
 64a:	45 43       	clr.b	r5		
 64c:	54 00       	rrcm	#1,	r4	
 64e:	65 6d       	addc.b	@r13,	r5	
 650:	69 74       	subc.b	@r4,	r9	
 652:	5f 6e 75 6d 	addc.b	28021(r14),r15	;0x6d75(r14)
 656:	62 65       	addc.b	@r5,	r2	
 658:	72 00 66 6f 	mova	r0,	&0x6f66	
 65c:	72 6d       	addc.b	@r13+,	r2	
 65e:	61 74       	subc.b	@r4,	r1	
 660:	00 62       	addc	r2,	r0	
 662:	75 69       	addc.b	@r9+,	r5	
 664:	6c 64       	addc.b	@r4,	r12	
 666:	5f 6e 75 6d 	addc.b	28021(r14),r15	;0x6d75(r14)
 66a:	65 72       	subc.b	#4,	r5	;r2 As==10
 66c:	69 63       	addc.b	#2,	r9	;r3 As==10
 66e:	5f 70 72 65 	subc.b	0x6572,	r15	;PC rel. 0x06be4
 672:	66 69       	addc.b	@r9,	r6	
 674:	78 00 3c 38 	Address 0x00000676 is out of bounds.
mova	r0,	-1(r8)	;0xffff(r8)

Disassembly of section .debug_loc:

00000000 <.debug_loc>:
       0:	38 31       	jn	$+626    	;abs 0x272
       2:	3a 31       	jn	$+630    	;abs 0x278
       4:	02 00       	mova	@r0,	r2	
       6:	71 02 3a 31 	mova	r2,	12602(r1);0x313a(r1)
       a:	7e 31       	jn	$+766    	;abs 0x308
       c:	02 00       	mova	@r0,	r2	
       e:	71 06 7e 31 	mova	r6,	12670(r1);0x317e(r1)
      12:	84 31       	jn	$+778    	;abs 0x31c
      14:	02 00       	mova	@r0,	r2	
      16:	71 08 84 31 	mova	r8,	12676(r1);0x3184(r1)
      1a:	08 32       	jn	$-1006   	;abs 0xfc2c
      1c:	02 00       	mova	@r0,	r2	
      1e:	71 06 08 32 	mova	r6,	12808(r1);0x3208(r1)
      22:	0c 32       	jn	$-998    	;abs 0xfc3c
      24:	02 00       	mova	@r0,	r2	
      26:	71 08 0c 32 	mova	r8,	12812(r1);0x320c(r1)
      2a:	12 32       	jn	$-986    	;abs 0xfc50
      2c:	02 00       	mova	@r0,	r2	
      2e:	71 0a 12 32 	mova	r10,	12818(r1);0x3212(r1)
      32:	22 32       	jn	$-954    	;abs 0xfc78
      34:	02 00       	mova	@r0,	r2	
      36:	71 06 22 32 	mova	r6,	12834(r1);0x3222(r1)
      3a:	26 32       	jn	$-946    	;abs 0xfc88
      3c:	02 00       	mova	@r0,	r2	
      3e:	71 08 26 32 	mova	r8,	12838(r1);0x3226(r1)
      42:	2c 32       	jn	$-934    	;abs 0xfc9c
      44:	02 00       	mova	@r0,	r2	
      46:	71 0a 2c 32 	mova	r10,	12844(r1);0x322c(r1)
      4a:	3c 32       	jn	$-902    	;abs 0xfcc4
      4c:	02 00       	mova	@r0,	r2	
      4e:	71 06 3c 32 	mova	r6,	12860(r1);0x323c(r1)
      52:	40 32       	jn	$-894    	;abs 0xfcd4
      54:	02 00       	mova	@r0,	r2	
      56:	71 08 40 32 	mova	r8,	12864(r1);0x3240(r1)
      5a:	46 32       	jn	$-882    	;abs 0xfce8
      5c:	02 00       	mova	@r0,	r2	
      5e:	71 0a 46 32 	mova	r10,	12870(r1);0x3246(r1)
      62:	4c 32       	jn	$-870    	;abs 0xfcfc
      64:	02 00       	mova	@r0,	r2	
      66:	71 06 4c 32 	mova	r6,	12876(r1);0x324c(r1)
      6a:	52 32       	jn	$-858    	;abs 0xfd10
      6c:	02 00       	mova	@r0,	r2	
      6e:	71 08 52 32 	mova	r8,	12882(r1);0x3252(r1)
      72:	54 32       	jn	$-854    	;abs 0xfd1c
      74:	02 00       	mova	@r0,	r2	
      76:	71 06 00 00 	mova	r6,	0(r1)	;0x0000(r1)
      7a:	00 00       	bra	@r0		
      7c:	72 31       	jn	$+742    	;abs 0x362
      7e:	81 31       	jn	$+772    	;abs 0x382
      80:	01 00       	mova	@r0,	r1	
      82:	5f 81 31 54 	sub.b	21553(r1),r15	;0x5431(r1)
      86:	32 02 00 91 	mova	&0x9100,r2	
      8a:	7a 00 00 00 	mova	r0,	0(r10)	;0x0000(r10)
      8e:	00 00       	bra	@r0		
      90:	32 06 32 02 	mova	562(r6),r2	;0x0232(r6)
      94:	00 91       	cmp	r1,	r0	
      96:	7b 08 32 0f 	mova	r8,	3890(r11);0x0f32(r11)
      9a:	32 01 00 5f 	mova	24320(r1),r2	;0x5f00(r1)
      9e:	00 00       	bra	@r0		
      a0:	00 00       	bra	@r0		
      a2:	1a 32       	jn	$-970    	;abs 0xfcd8
      a4:	20 32       	jn	$-958    	;abs 0xfce6
      a6:	02 00       	mova	@r0,	r2	
      a8:	91 7c 22 32 	subc	12834(r12),12841(r1);0x3222(r12), 0x3229(r1)
      ac:	29 32 
      ae:	01 00       	mova	@r0,	r1	
      b0:	5f 00       	rrcm	#1,	r15	
      b2:	00 00       	bra	@r0		
      b4:	00 34       	jge	$+2      	;abs 0xb6
      b6:	32 3a       	jl	$-922    	;abs 0xfd1c
      b8:	32 02 00 91 	mova	&0x9100,r2	
      bc:	7d 3c       	jmp	$+252    	;abs 0x1b8
      be:	32 43       	mov	#-1,	r2	;r3 As==11
      c0:	32 01 00 5f 	mova	24320(r1),r2	;0x5f00(r1)
      c4:	00 00       	bra	@r0		
      c6:	00 00       	bra	@r0		
      c8:	04 00       	mova	@r0,	r4	
      ca:	0a 00       	mova	@r0,	r10	
      cc:	02 00       	mova	@r0,	r2	
      ce:	30 9f       	cmp	@r15+,	r0	
      d0:	0e 00       	mova	@r0,	r14	
      d2:	12 00       	mova	#0x00000,r2	
      d4:	01 00       	mova	@r0,	r1	
      d6:	5e 00       	rrcm	#1,	r14	
      d8:	00 00       	bra	@r0		
      da:	00 14       	pushm.a	#1,	r0	
      dc:	00 16       	popm.a	#1,	r0	
      de:	00 02       	bra	#4		;r2 As==10
      e0:	00 71       	subc	r1,	r0	
      e2:	02 16       	popm.a	#1,	r2	
      e4:	00 18       	.word	0x1800;	????	
      e6:	00 02       	bra	#4		;r2 As==10
      e8:	00 71       	subc	r1,	r0	
      ea:	04 18       	.word	0x1804;	????	
      ec:	00 34       	jge	$+2      	;abs 0xee
      ee:	00 02       	bra	#4		;r2 As==10
      f0:	00 71       	subc	r1,	r0	
      f2:	06 00       	mova	@r0,	r6	
      f4:	00 00       	bra	@r0		
      f6:	00 14       	pushm.a	#1,	r0	
      f8:	00 1e       	.word	0x1e00;	????	
      fa:	00 01       	bra	@r1		
      fc:	00 5f       	add	r15,	r0	
      fe:	1e 00       	mova	#0x00000,r14	
     100:	30 00 01 00 	bra	0x0001		;PC rel. 0x00103
     104:	5a 00       	rrcm	#1,	r10	
     106:	00 00       	bra	@r0		
     108:	00 1a       	.word	0x1a00;	????	
     10a:	00 20       	jnz	$+2      	;abs 0x10c
     10c:	00 02       	bra	#4		;r2 As==10
     10e:	00 30       	jn	$+2      	;abs 0x110
     110:	9f 2a       	jnc	$-704    	;abs 0xfe50
     112:	00 2e       	jc	$-1022   	;abs 0xfd14
     114:	00 01       	bra	@r1		
     116:	00 5b       	add	r11,	r0	
     118:	00 00       	bra	@r0		
     11a:	00 00       	bra	@r0		
     11c:	34 00 36 00 	mova	0x0036,	r4	;PC rel. 0x00154
     120:	01 00       	mova	@r0,	r1	
     122:	5f 00       	rrcm	#1,	r15	
     124:	00 00       	bra	@r0		
     126:	00 3c       	jmp	$+2      	;abs 0x128
     128:	00 42       	br	r2		
     12a:	00 01       	bra	@r1		
     12c:	00 5f       	add	r15,	r0	
     12e:	00 00       	bra	@r0		
     130:	00 00       	bra	@r0		
     132:	0a 00       	mova	@r0,	r10	
     134:	0c 00       	mova	@r0,	r12	
     136:	02 00       	mova	@r0,	r2	
     138:	71 02 0c 00 	mova	r2,	12(r1)	;0x000c(r1)
     13c:	70 00 02 00 	mova	r0,	0x0002	;PC rel. 0x00140
     140:	71 04 00 00 	mova	r4,	0(r1)	;0x0000(r1)
     144:	00 00       	bra	@r0		
     146:	0c 00       	mova	@r0,	r12	
     148:	2e 00 03 00 	mova	&0x00003,r14	
     14c:	09 80       	sub	r0,	r9	
     14e:	9f 3c       	jmp	$+320    	;abs 0x28e
     150:	00 44       	br	r4		
     152:	00 05       	bra	@r5		
     154:	00 7c       	subc	r12,	r0	
     156:	00 31       	jn	$+514    	;abs 0x358
     158:	25 9f       	cmp	@r15,	r5	
     15a:	52 00       	rrcm	#1,	r2	
     15c:	6a 00 05 00 	mova	r0,	&0xa0005
     160:	7c 00 31 25 	mova	r0,	9521(r12);0x2531(r12)
     164:	9f 6a 00 70 	addc	28672(r10),768(r15);0x7000(r10), 0x0300(r15)
     168:	00 03 
     16a:	00 09       	bra	@r9		
     16c:	80 9f 00 00 	cmp	r15,	0x0000	;PC rel. 0x00170
     170:	00 00       	bra	@r0		
     172:	26 00 2e 00 	mova	&0x0002e,r6	
     176:	02 00       	mova	@r0,	r2	
     178:	30 9f       	cmp	@r15+,	r0	
     17a:	00 00       	bra	@r0		
     17c:	00 00       	bra	@r0		
     17e:	70 00 72 00 	mova	r0,	0x0072	;PC rel. 0x001f2
     182:	02 00       	mova	@r0,	r2	
     184:	71 02 72 00 	mova	r2,	114(r1)	;0x0072(r1)
     188:	88 00 02 00 	mova	#0x00002,r8	
     18c:	71 04 00 00 	mova	r4,	0(r1)	;0x0000(r1)
     190:	00 00       	bra	@r0		
     192:	70 00 7b 00 	mova	r0,	0x007b	;PC rel. 0x0020f
     196:	01 00       	mova	@r0,	r1	
     198:	5f 00       	rrcm	#1,	r15	
     19a:	00 00       	bra	@r0		
     19c:	00 70       	subc	r0,	r0	
     19e:	00 78       	subc	r8,	r0	
     1a0:	00 01       	bra	@r1		
     1a2:	00 5e       	add	r14,	r0	
     1a4:	78 00 86 00 	mova	r0,	134(r8)	;0x0086(r8)
     1a8:	01 00       	mova	@r0,	r1	
     1aa:	5b 00       	rrcm	#1,	r11	
     1ac:	00 00       	bra	@r0		
     1ae:	00 88       	sub	r8,	r0	
     1b0:	00 8a       	sub	r10,	r0	
     1b2:	00 02       	bra	#4		;r2 As==10
     1b4:	00 71       	subc	r1,	r0	
     1b6:	02 8a       	sub	r10,	r2	
     1b8:	00 8c       	sub	r12,	r0	
     1ba:	00 02       	bra	#4		;r2 As==10
     1bc:	00 71       	subc	r1,	r0	
     1be:	04 8c       	sub	r12,	r4	
     1c0:	00 ae       	dadd	r14,	r0	
     1c2:	00 02       	bra	#4		;r2 As==10
     1c4:	00 71       	subc	r1,	r0	
     1c6:	06 00       	mova	@r0,	r6	
     1c8:	00 00       	bra	@r0		
     1ca:	00 88       	sub	r8,	r0	
     1cc:	00 97       	cmp	r7,	r0	
     1ce:	00 01       	bra	@r1		
     1d0:	00 5f       	add	r15,	r0	
     1d2:	00 00       	bra	@r0		
     1d4:	00 00       	bra	@r0		
     1d6:	88 00 94 00 	mova	#0x00094,r8	
     1da:	01 00       	mova	@r0,	r1	
     1dc:	5e 94 00 aa 	cmp.b	-22016(r4),r14	;0xaa00(r4)
     1e0:	00 01       	bra	@r1		
     1e2:	00 5a       	add	r10,	r0	
     1e4:	00 00       	bra	@r0		
     1e6:	00 00       	bra	@r0		
     1e8:	88 00 97 00 	mova	#0x00097,r8	
     1ec:	01 00       	mova	@r0,	r1	
     1ee:	5d 97 00 ac 	cmp.b	-21504(r7),r13	;0xac00(r7)
     1f2:	00 01       	bra	@r1		
     1f4:	00 5b       	add	r11,	r0	
     1f6:	00 00       	bra	@r0		
     1f8:	00 00       	bra	@r0		
     1fa:	ae 00 b0 00 	adda	#0x000b0,r14	
     1fe:	02 00       	mova	@r0,	r2	
     200:	71 02 b0 00 	mova	r2,	176(r1)	;0x00b0(r1)
     204:	b2 00 02 00 	suba	#0x00002,r2	
     208:	71 04 b2 00 	mova	r4,	178(r1)	;0x00b2(r1)
     20c:	b4 00 02 00 	suba	#0x00002,r4	
     210:	71 06 b4 00 	mova	r6,	180(r1)	;0x00b4(r1)
     214:	b6 00 02 00 	suba	#0x00002,r6	
     218:	71 08 b6 00 	mova	r8,	182(r1)	;0x00b6(r1)
     21c:	f2 00       	suba	r0,	r2	
     21e:	02 00       	mova	@r0,	r2	
     220:	71 0a f2 00 	mova	r10,	242(r1)	;0x00f2(r1)
     224:	00 01       	bra	@r1		
     226:	02 00       	mova	@r0,	r2	
     228:	71 0c 00 01 	mova	r12,	256(r1)	;0x0100(r1)
     22c:	44 01       	rram.a	#1,	r4	
     22e:	02 00       	mova	@r0,	r2	
     230:	71 0a 00 00 	mova	r10,	0(r1)	;0x0000(r1)
     234:	00 00       	bra	@r0		
     236:	ae 00 cc 00 	adda	#0x000cc,r14	
     23a:	01 00       	mova	@r0,	r1	
     23c:	5f cc 00 cf 	bic.b	-12544(r12),r15	;0xcf00(r12)
     240:	00 01       	bra	@r1		
     242:	00 5e       	add	r14,	r0	
     244:	00 00       	bra	@r0		
     246:	00 00       	bra	@r0		
     248:	ae 00 c8 00 	adda	#0x000c8,r14	
     24c:	01 00       	mova	@r0,	r1	
     24e:	5e c8 00 3c 	bic.b	15360(r8),r14	;0x3c00(r8)
     252:	01 01       	mova	@r1,	r1	
     254:	00 58       	add	r8,	r0	
     256:	00 00       	bra	@r0		
     258:	00 00       	bra	@r0		
     25a:	ae 00 c2 00 	adda	#0x000c2,r14	
     25e:	01 00       	mova	@r0,	r1	
     260:	5d c2 00 06 	bic.b	&0x0600,r13	
     264:	01 01       	mova	@r1,	r1	
     266:	00 5b       	add	r11,	r0	
     268:	00 00       	bra	@r0		
     26a:	00 00       	bra	@r0		
     26c:	ae 00 cf 00 	adda	#0x000cf,r14	
     270:	01 00       	mova	@r0,	r1	
     272:	5c cf 00 fe 	bic.b	-512(r15),r12	;0xfe00(r15)
     276:	00 01       	bra	@r1		
     278:	00 5a       	add	r10,	r0	
     27a:	fe 00       	suba	r0,	r14	
     27c:	06 01       	mova	@r1,	r6	
     27e:	03 00       	.word	0x0003;	????	Illegal as address instr
     280:	03 30       	jn	$+8      	;abs 0x288
     282:	01 00       	mova	@r0,	r1	
     284:	00 00       	bra	@r0		
     286:	00 00       	bra	@r0		
     288:	01 06       	mova	@r6,	r1	
     28a:	01 02       	mova	#4,	r1	;r2 As==10
     28c:	00 30       	jn	$+2      	;abs 0x28e
     28e:	9f 10 01 14 	swpb	5121(r15)	;0x1401(r15)
     292:	01 01       	mova	@r1,	r1	
     294:	00 5b       	add	r11,	r0	
     296:	00 00       	bra	@r0		
     298:	00 00       	bra	@r0		
     29a:	00 01       	bra	@r1		
     29c:	40 01       	rram.a	#1,	r0	
     29e:	01 00       	mova	@r0,	r1	
     2a0:	5a 00       	rrcm	#1,	r10	
     2a2:	00 00       	bra	@r0		
     2a4:	00 44       	br	r4		
     2a6:	01 46       	mov	r6,	r1	
     2a8:	01 02       	mova	#4,	r1	;r2 As==10
     2aa:	00 71       	subc	r1,	r0	
     2ac:	02 46       	mov	r6,	r2	
     2ae:	01 56       	add	r6,	r1	
     2b0:	01 02       	mova	#4,	r1	;r2 As==10
     2b2:	00 71       	subc	r1,	r0	
     2b4:	04 56       	add	r6,	r4	
     2b6:	01 58       	add	r8,	r1	
     2b8:	01 02       	mova	#4,	r1	;r2 As==10
     2ba:	00 71       	subc	r1,	r0	
     2bc:	02 00       	mova	@r0,	r2	
     2be:	00 00       	bra	@r0		
     2c0:	00 44       	br	r4		
     2c2:	01 50       	add	r0,	r1	
     2c4:	01 01       	mova	@r1,	r1	
     2c6:	00 5f       	add	r15,	r0	
     2c8:	50 01       	rram	#1,	r0	
     2ca:	53 01       	rram	#1,	#0	;r3 As==00
     2cc:	02 00       	mova	@r0,	r2	
     2ce:	91 7a 00 00 	subc	0(r10),	0(r1)	;0x0000(r10), 0x0000(r1)
     2d2:	00 00 
     2d4:	58 01       	rram	#1,	r8	
     2d6:	5a 01       	rram	#1,	r10	
     2d8:	02 00       	mova	@r0,	r2	
     2da:	71 02 5a 01 	mova	r2,	346(r1)	;0x015a(r1)
     2de:	5c 01       	rram	#1,	r12	
     2e0:	02 00       	mova	@r0,	r2	
     2e2:	71 04 5c 01 	mova	r4,	348(r1)	;0x015c(r1)
     2e6:	5e 01       	rram	#1,	r14	
     2e8:	02 00       	mova	@r0,	r2	
     2ea:	71 06 5e 01 	mova	r6,	350(r1)	;0x015e(r1)
     2ee:	60 01 02 00 	mova	r1,	&0x00002
     2f2:	71 08 60 01 	mova	r8,	352(r1)	;0x0160(r1)
     2f6:	62 01 02 00 	mova	r1,	&0x20002
     2fa:	71 0a 62 01 	mova	r10,	354(r1)	;0x0162(r1)
     2fe:	64 01 02 00 	mova	r1,	&0x40002
     302:	71 0c 64 01 	mova	r12,	356(r1)	;0x0164(r1)
     306:	66 01 02 00 	mova	r1,	&0x60002
     30a:	71 0e 66 01 	mova	r14,	358(r1)	;0x0166(r1)
     30e:	a2 02 02 00 	adda	#0x20002,r2	
     312:	71 10       	rrc.b	@r1+		
     314:	a2 02 b2 02 	adda	#0x202b2,r2	
     318:	02 00       	mova	@r0,	r2	
     31a:	71 12       	push.b	@r1+		
     31c:	b2 02 c2 02 	suba	#0x202c2,r2	
     320:	02 00       	mova	@r0,	r2	
     322:	71 10       	rrc.b	@r1+		
     324:	00 00       	bra	@r0		
     326:	00 00       	bra	@r0		
     328:	58 01       	rram	#1,	r8	
     32a:	8a 01 01 00 	mova	#0x10001,r10	
     32e:	5f 8a 01 b4 	sub.b	-19455(r10),r15	;0xb401(r10)
     332:	02 01       	mova	@r1,	r2	
     334:	00 55       	add	r5,	r0	
     336:	00 00       	bra	@r0		
     338:	00 00       	bra	@r0		
     33a:	c2 02       	mova	r2,	r2	
     33c:	c4 02       	mova	r2,	r4	
     33e:	02 00       	mova	@r0,	r2	
     340:	71 02 c4 02 	mova	r2,	708(r1)	;0x02c4(r1)
     344:	c6 02       	mova	r2,	r6	
     346:	02 00       	mova	@r0,	r2	
     348:	71 04 c6 02 	mova	r4,	710(r1)	;0x02c6(r1)
     34c:	c8 02       	mova	r2,	r8	
     34e:	02 00       	mova	@r0,	r2	
     350:	71 06 c8 02 	mova	r6,	712(r1)	;0x02c8(r1)
     354:	ca 02       	mova	r2,	r10	
     356:	02 00       	mova	@r0,	r2	
     358:	71 08 ca 02 	mova	r8,	714(r1)	;0x02ca(r1)
     35c:	cc 02       	mova	r2,	r12	
     35e:	02 00       	mova	@r0,	r2	
     360:	71 0a cc 02 	mova	r10,	716(r1)	;0x02cc(r1)
     364:	ce 02       	mova	r2,	r14	
     366:	02 00       	mova	@r0,	r2	
     368:	71 0c ce 02 	mova	r12,	718(r1)	;0x02ce(r1)
     36c:	d0 02       	cmpa	r2,	r0	
     36e:	02 00       	mova	@r0,	r2	
     370:	71 0e d0 02 	mova	r14,	720(r1)	;0x02d0(r1)
     374:	d2 02       	cmpa	r2,	r2	
     376:	02 00       	mova	@r0,	r2	
     378:	71 10       	rrc.b	@r1+		
     37a:	d2 02       	cmpa	r2,	r2	
     37c:	d6 02       	cmpa	r2,	r6	
     37e:	02 00       	mova	@r0,	r2	
     380:	71 12       	push.b	@r1+		
     382:	d6 02       	cmpa	r2,	r6	
     384:	f4 02       	suba	r2,	r4	
     386:	02 00       	mova	@r0,	r2	
     388:	71 1c       	.word	0x1c71;	????	
     38a:	f4 02       	suba	r2,	r4	
     38c:	40 03       	rrum.a	#1,	r0	
     38e:	02 00       	mova	@r0,	r2	
     390:	71 1e       	.word	0x1e71;	????	
     392:	40 03       	rrum.a	#1,	r0	
     394:	a2 03 02 00 	adda	#0x30002,r2	
     398:	71 1c       	.word	0x1c71;	????	
     39a:	a2 03 44 04 	adda	#0x30444,r2	
     39e:	02 00       	mova	@r0,	r2	
     3a0:	71 1e       	.word	0x1e71;	????	
     3a2:	44 04       	rrcm.a	#2,	r4	
     3a4:	62 04 02 00 	mova	r4,	&0x20002
     3a8:	71 1c       	.word	0x1c71;	????	
     3aa:	00 00       	bra	@r0		
     3ac:	00 00       	bra	@r0		
     3ae:	c2 02       	mova	r2,	r2	
     3b0:	01 03       	mova	#2,	r1	;r3 As==10
     3b2:	01 00       	mova	@r0,	r1	
     3b4:	5f 01       	rram	#1,	r15	
     3b6:	03 72       	.word	0x7203;	????	Illegal as 2-op instr
     3b8:	03 01       	.word	0x0103;	????	Illegal as address instr
     3ba:	00 58       	add	r8,	r0	
     3bc:	00 00       	bra	@r0		
     3be:	00 00       	bra	@r0		
     3c0:	c2 02       	mova	r2,	r2	
     3c2:	fa 02       	suba	r2,	r10	
     3c4:	01 00       	mova	@r0,	r1	
     3c6:	5e fa 02 72 	and.b	29186(r10),r14	;0x7202(r10)
     3ca:	03 01       	.word	0x0103;	????	Illegal as address instr
     3cc:	00 59       	add	r9,	r0	
     3ce:	00 00       	bra	@r0		
     3d0:	00 00       	bra	@r0		
     3d2:	c2 02       	mova	r2,	r2	
     3d4:	f8 02       	suba	r2,	r8	
     3d6:	01 00       	mova	@r0,	r1	
     3d8:	5d 72 03 62 	subc.b	&0x6203,r13	
     3dc:	04 02       	mova	#4,	r4	;r2 As==10
     3de:	00 91       	cmp	r1,	r0	
     3e0:	68 00 00 00 	mova	r0,	&0x80000
     3e4:	00 c2       	bic	r2,	r0	
     3e6:	02 f6       	and	r6,	r2	
     3e8:	02 01       	mova	@r1,	r2	
     3ea:	00 5c       	add	r12,	r0	
     3ec:	f6 02       	suba	r2,	r6	
     3ee:	54 04       	rrcm	#2,	r4	
     3f0:	01 00       	mova	@r0,	r1	
     3f2:	55 00       	rrcm	#1,	r5	
     3f4:	00 00       	bra	@r0		
     3f6:	00 e0       	xor	r0,	r0	
     3f8:	02 f8       	and	r8,	r2	
     3fa:	02 05       	mova	@r5,	r2	
     3fc:	00 31       	jn	$+514    	;abs 0x5fe
     3fe:	7d 00 1c 9f 	mova	r0,	-24804(r13);0x9f1c(r13)
     402:	f8 02       	suba	r2,	r8	
     404:	72 03 06 00 	mova	#0,	&0x0006	;r3 As==00
     408:	31 91       	cmp	@r1+,	r1	
     40a:	68 06 1c 9f 	mova	r6,	&0x89f1c
     40e:	8a 03 8e 03 	mova	#0x3038e,r10	
     412:	01 00       	mova	@r0,	r1	
     414:	54 00       	rrcm	#1,	r4	
     416:	00 00       	bra	@r0		
     418:	00 e0       	xor	r0,	r0	
     41a:	02 72       	subc	r2,	r2	
     41c:	03 02       	.word	0x0203;	????	Illegal as address instr
     41e:	00 30       	jn	$+2      	;abs 0x420
     420:	9f 00 00 00 	cmpa	#0x00000,r15	
     424:	00 e0       	xor	r0,	r0	
     426:	02 f8       	and	r8,	r2	
     428:	02 06       	mova	@r6,	r2	
     42a:	00 7d       	subc	r13,	r0	
     42c:	00 09       	bra	@r9		
     42e:	fe 1e 9f f8 	andx	-167422(r8),-129277(r15);0xd7202(r8), 0xe0703(r15)
     432:	02 72 03 07 
     436:	00 91       	cmp	r1,	r0	
     438:	68 06 09 fe 	mova	r6,	&0x8fe09
     43c:	1e 9f 72 03 	cmp	882(r15),r14	;0x0372(r15)
     440:	7a 03 02 00 	mova	#0,	2(r10)	;r3 As==00, 0x0002(r10)
     444:	91 6c 86 03 	addc	902(r12),906(r1)	;0x0386(r12), 0x038a(r1)
     448:	8a 03 
     44a:	02 00       	mova	@r0,	r2	
     44c:	91 6c 8a 03 	addc	906(r12),1100(r1);0x038a(r12), 0x044c(r1)
     450:	4c 04 
     452:	02 00       	mova	@r0,	r2	
     454:	91 6c 00 00 	addc	0(r12),	0(r1)	;0x0000(r12), 0x0000(r1)
     458:	00 00 
     45a:	e0 02       	adda	r2,	r0	
     45c:	72 03 02 00 	mova	#0,	&0x0002	;r3 As==00
     460:	30 9f       	cmp	@r15+,	r0	
     462:	72 03 7a 03 	mova	#0,	&0x037a	;r3 As==00
     466:	02 00       	mova	@r0,	r2	
     468:	91 66 8e 03 	addc	910(r6),1100(r1);0x038e(r6), 0x044c(r1)
     46c:	4c 04 
     46e:	02 00       	mova	@r0,	r2	
     470:	91 66 00 00 	addc	0(r6),	0(r1)	;0x0000(r6), 0x0000(r1)
     474:	00 00 
     476:	e4 02       	adda	r2,	r4	
     478:	f8 02       	suba	r2,	r8	
     47a:	01 00       	mova	@r0,	r1	
     47c:	5d f8 02 62 	and.b	25090(r8),r13	;0x6202(r8)
     480:	04 02       	mova	#4,	r4	;r2 As==10
     482:	00 91       	cmp	r1,	r0	
     484:	68 00 00 00 	mova	r0,	&0x80000
     488:	00 62       	addc	r2,	r0	
     48a:	04 64       	rlc	r4		
     48c:	04 02       	mova	#4,	r4	;r2 As==10
     48e:	00 71       	subc	r1,	r0	
     490:	02 64       	addc	r4,	r2	
     492:	04 66       	addc	r6,	r4	
     494:	04 02       	mova	#4,	r4	;r2 As==10
     496:	00 71       	subc	r1,	r0	
     498:	04 66       	addc	r6,	r4	
     49a:	04 68       	addc	r8,	r4	
     49c:	04 02       	mova	#4,	r4	;r2 As==10
     49e:	00 71       	subc	r1,	r0	
     4a0:	06 68       	addc	r8,	r6	
     4a2:	04 6a       	addc	r10,	r4	
     4a4:	04 02       	mova	#4,	r4	;r2 As==10
     4a6:	00 71       	subc	r1,	r0	
     4a8:	08 6a       	addc	r10,	r8	
     4aa:	04 ca       	bic	r10,	r4	
     4ac:	04 02       	mova	#4,	r4	;r2 As==10
     4ae:	00 71       	subc	r1,	r0	
     4b0:	0a 00       	mova	@r0,	r10	
     4b2:	00 00       	bra	@r0		
     4b4:	00 62       	addc	r2,	r0	
     4b6:	04 78       	subc	r8,	r4	
     4b8:	04 01       	mova	@r1,	r4	
     4ba:	00 5f       	add	r15,	r0	
     4bc:	78 04 7b 04 	mova	r4,	1147(r8);0x047b(r8)
     4c0:	01 00       	mova	@r0,	r1	
     4c2:	5d 00       	rrcm	#1,	r13	
     4c4:	00 00       	bra	@r0		
     4c6:	00 62       	addc	r2,	r0	
     4c8:	04 76       	subc	r6,	r4	
     4ca:	04 01       	mova	@r1,	r4	
     4cc:	00 5e       	add	r14,	r0	
     4ce:	76 04 c2 04 	mova	r4,	1218(r6);0x04c2(r6)
     4d2:	01 00       	mova	@r0,	r1	
     4d4:	58 00       	rrcm	#1,	r8	
     4d6:	00 00       	bra	@r0		
     4d8:	00 62       	addc	r2,	r0	
     4da:	04 74       	subc	r4,	r4	
     4dc:	04 01       	mova	@r1,	r4	
     4de:	00 5d       	add	r13,	r0	
     4e0:	74 04 ac 04 	mova	r4,	1196(r4);0x04ac(r4)
     4e4:	01 00       	mova	@r0,	r1	
     4e6:	5a 00       	rrcm	#1,	r10	
     4e8:	00 00       	bra	@r0		
     4ea:	00 ca       	bic	r10,	r0	
     4ec:	04 cc       	bic	r12,	r4	
     4ee:	04 02       	mova	#4,	r4	;r2 As==10
     4f0:	00 71       	subc	r1,	r0	
     4f2:	02 cc       	bic	r12,	r2	
     4f4:	04 ce       	bic	r14,	r4	
     4f6:	04 02       	mova	#4,	r4	;r2 As==10
     4f8:	00 71       	subc	r1,	r0	
     4fa:	04 ce       	bic	r14,	r4	
     4fc:	04 d0       	bis	r0,	r4	
     4fe:	04 02       	mova	#4,	r4	;r2 As==10
     500:	00 71       	subc	r1,	r0	
     502:	06 d0       	bis	r0,	r6	
     504:	04 d2       	bis	r2,	r4	
     506:	04 02       	mova	#4,	r4	;r2 As==10
     508:	00 71       	subc	r1,	r0	
     50a:	08 d2       	bis	r2,	r8	
     50c:	04 d4       	bis	r4,	r4	
     50e:	04 02       	mova	#4,	r4	;r2 As==10
     510:	00 71       	subc	r1,	r0	
     512:	0a d4       	bis	r4,	r10	
     514:	04 d6       	bis	r6,	r4	
     516:	04 02       	mova	#4,	r4	;r2 As==10
     518:	00 71       	subc	r1,	r0	
     51a:	0c d6       	bis	r6,	r12	
     51c:	04 d8       	bis	r8,	r4	
     51e:	04 02       	mova	#4,	r4	;r2 As==10
     520:	00 71       	subc	r1,	r0	
     522:	0e d8       	bis	r8,	r14	
     524:	04 da       	bis	r10,	r4	
     526:	04 02       	mova	#4,	r4	;r2 As==10
     528:	00 71       	subc	r1,	r0	
     52a:	10 da 04 dc 	bis	-9212(r10),r0	;0xdc04(r10)
     52e:	04 02       	mova	#4,	r4	;r2 As==10
     530:	00 71       	subc	r1,	r0	
     532:	12 dc 04 98 	bis	-26620(r12),r2	;0x9804(r12)
     536:	05 02       	mova	#4,	r5	;r2 As==10
     538:	00 71       	subc	r1,	r0	
     53a:	16 00       	mova	#0x00000,r6	
     53c:	00 00       	bra	@r0		
     53e:	00 ca       	bic	r10,	r0	
     540:	04 f8       	and	r8,	r4	
     542:	04 01       	mova	@r1,	r4	
     544:	00 5f       	add	r15,	r0	
     546:	f8 04       	suba	r4,	r8	
     548:	20 05 01 00 	bra	&0x50001	
     54c:	59 54 05 6e 	add.b	28165(r4),r9	;0x6e05(r4)
     550:	05 01       	mova	@r1,	r5	
     552:	00 59       	add	r9,	r0	
     554:	6e 05 98 05 	mova	r5,	&0xe0598
     558:	01 00       	mova	@r0,	r1	
     55a:	59 00       	rrcm	#1,	r9	
     55c:	00 00       	bra	@r0		
     55e:	00 ca       	bic	r10,	r0	
     560:	04 f8       	and	r8,	r4	
     562:	04 01       	mova	@r1,	r4	
     564:	00 5e       	add	r14,	r0	
     566:	f8 04       	suba	r4,	r8	
     568:	2a 05 01 00 	mova	&0x50001,r10	
     56c:	5a 2a       	jnc	$-842    	;abs 0x222
     56e:	05 40       	mov	r0,	r5	
     570:	05 01       	mova	@r1,	r5	
     572:	00 5a       	add	r10,	r0	
     574:	54 05       	rram	#2,	r4	
     576:	64 05 01 00 	mova	r5,	&0x40001
     57a:	5a 88 05 98 	sub.b	-26619(r8),r10	;0x9805(r8)
     57e:	05 01       	mova	@r1,	r5	
     580:	00 5a       	add	r10,	r0	
     582:	00 00       	bra	@r0		
     584:	00 00       	bra	@r0		
     586:	ca 04       	mova	r4,	r10	
     588:	06 05       	mova	@r5,	r6	
     58a:	01 00       	mova	@r0,	r1	
     58c:	5d 06       	rlam	#2,	r13	
     58e:	05 42       	mov	r2,	r5	
     590:	05 02       	mova	#4,	r5	;r2 As==10
     592:	00 71       	subc	r1,	r0	
     594:	00 42       	br	r2		
     596:	05 54       	add	r4,	r5	
     598:	05 02       	mova	#4,	r5	;r2 As==10
     59a:	00 91       	cmp	r1,	r0	
     59c:	6a 54       	add.b	@r4,	r10	
     59e:	05 98       	cmp	r8,	r5	
     5a0:	05 02       	mova	#4,	r5	;r2 As==10
     5a2:	00 71       	subc	r1,	r0	
     5a4:	00 00       	bra	@r0		
     5a6:	00 00       	bra	@r0		
     5a8:	00 ca       	bic	r10,	r0	
     5aa:	04 0d       	mova	@r13,	r4	
     5ac:	05 01       	mova	@r1,	r5	
     5ae:	00 5c       	add	r12,	r0	
     5b0:	0d 05       	mova	@r5,	r13	
     5b2:	98 05 02 00 	cmpa	#0x50002,r8	
     5b6:	91 6c 00 00 	addc	0(r12),	0(r1)	;0x0000(r12), 0x0000(r1)
     5ba:	00 00 
     5bc:	f0 04       	suba	r4,	r0	
     5be:	02 05       	mova	@r5,	r2	
     5c0:	01 00       	mova	@r0,	r1	
     5c2:	55 02       	rlam	#1,	r5	
     5c4:	05 46       	mov	r6,	r5	
     5c6:	05 01       	mova	@r1,	r5	
     5c8:	00 55       	add	r5,	r0	
     5ca:	54 05       	rram	#2,	r4	
     5cc:	92 05 01 00 	cmpa	#0x50001,r2	
     5d0:	55 92 05 94 	cmp.b	&0x9405,r5	
     5d4:	05 04       	mova	@r4,	r5	
     5d6:	00 75       	subc	r5,	r0	
     5d8:	00 20       	jnz	$+2      	;abs 0x5da
     5da:	9f 94 05 98 	cmp	-26619(r4),261(r15);0x9805(r4), 0x0105(r15)
     5de:	05 01 
     5e0:	00 55       	add	r5,	r0	
     5e2:	00 00       	bra	@r0		
     5e4:	00 00       	bra	@r0		
     5e6:	f4 04       	suba	r4,	r4	
     5e8:	04 05       	mova	@r5,	r4	
     5ea:	01 00       	mova	@r0,	r1	
     5ec:	56 04       	rrcm	#2,	r6	
     5ee:	05 48       	mov	r8,	r5	
     5f0:	05 01       	mova	@r1,	r5	
     5f2:	00 56       	add	r6,	r0	
     5f4:	54 05       	rram	#2,	r4	
     5f6:	8a 05 01 00 	mova	#0x50001,r10	
     5fa:	56 8a 05 8c 	sub.b	-29691(r10),r6	;0x8c05(r10)
     5fe:	05 04       	mova	@r4,	r5	
     600:	00 76       	subc	r6,	r0	
     602:	00 20       	jnz	$+2      	;abs 0x604
     604:	9f 8c 05 98 	sub	-26619(r12),261(r15);0x9805(r12), 0x0105(r15)
     608:	05 01 
     60a:	00 56       	add	r6,	r0	
     60c:	00 00       	bra	@r0		
     60e:	00 00       	bra	@r0		
     610:	00 05       	bra	@r5		
     612:	4a 05       	rram.a	#2,	r10	
     614:	01 00       	mova	@r0,	r1	
     616:	57 54 05 88 	add.b	-30715(r4),r7	;0x8805(r4)
     61a:	05 01       	mova	@r1,	r5	
     61c:	00 57       	add	r7,	r0	
     61e:	8c 05 90 05 	mova	#0x50590,r12	
     622:	03 00       	.word	0x0003;	????	Illegal as address instr
     624:	09 ff       	and	r15,	r9	
     626:	9f 00 00 00 	cmpa	#0x00000,r15	
     62a:	00 fa       	and	r10,	r0	
     62c:	04 4c       	mov	r12,	r4	
     62e:	05 01       	mova	@r1,	r5	
     630:	00 58       	add	r8,	r0	
     632:	54 05       	rram	#2,	r4	
     634:	90 05 01 00 	cmpa	#0x50001,r0	
     638:	58 94 05 98 	cmp.b	-26619(r4),r8	;0x9805(r4)
     63c:	05 03       	mova	#2,	r5	;r3 As==10
     63e:	00 09       	bra	@r9		
     640:	ff 9f 00 00 	cmp.b	@r15+,	0(r15)	;0x0000(r15)
     644:	00 00       	bra	@r0		
     646:	12 05       	mova	@r5+,	r2	
     648:	22 05 08 00 	mova	&0x50008,r2	
     64c:	75 00 76 00 	mova	r0,	118(r5)	;0x0076(r5)
     650:	31 26       	jz	$-924    	;abs 0x2b4
     652:	1c 9f 22 05 	cmp	1314(r15),r12	;0x0522(r15)
     656:	24 05 06 00 	mova	&0x50006,r4	
     65a:	7b 00 75 00 	mova	r0,	117(r11);0x0075(r11)
     65e:	22 9f       	cmp	@r15,	r2	
     660:	2c 05 40 05 	mova	&0x50540,r12	
     664:	06 00       	mova	@r0,	r6	
     666:	7b 00 75 00 	mova	r0,	117(r11);0x0075(r11)
     66a:	22 9f       	cmp	@r15,	r2	
     66c:	00 00       	bra	@r0		
     66e:	00 00       	bra	@r0		
     670:	54 05       	rram	#2,	r4	
     672:	66 05 08 00 	mova	r5,	&0x60008
     676:	76 00 75 00 	mova	r0,	117(r6)	;0x0075(r6)
     67a:	31 26       	jz	$-924    	;abs 0x2de
     67c:	1c 9f 66 05 	cmp	1382(r15),r12	;0x0566(r15)
     680:	68 05 06 00 	mova	r5,	&0x80006
     684:	7b 00 76 00 	mova	r0,	118(r11);0x0076(r11)
     688:	22 9f       	cmp	@r15,	r2	
     68a:	70 05 88 05 	mova	r5,	0x0588	;PC rel. 0x00c14
     68e:	06 00       	mova	@r0,	r6	
     690:	7b 00 76 00 	mova	r0,	118(r11);0x0076(r11)
     694:	22 9f       	cmp	@r15,	r2	
     696:	00 00       	bra	@r0		
     698:	00 00       	bra	@r0		
     69a:	98 05 9a 05 	cmpa	#0x5059a,r8	
     69e:	02 00       	mova	@r0,	r2	
     6a0:	71 02 9a 05 	mova	r2,	1434(r1);0x059a(r1)
     6a4:	9c 05 02 00 	cmpa	#0x50002,r12	
     6a8:	71 04 9c 05 	mova	r4,	1436(r1);0x059c(r1)
     6ac:	9e 05 02 00 	cmpa	#0x50002,r14	
     6b0:	71 06 9e 05 	mova	r6,	1438(r1);0x059e(r1)
     6b4:	a0 05 02 00 	adda	#0x50002,r0	
     6b8:	71 08 a0 05 	mova	r8,	1440(r1);0x05a0(r1)
     6bc:	dc 05       	cmpa	r5,	r12	
     6be:	02 00       	mova	@r0,	r2	
     6c0:	71 0a dc 05 	mova	r10,	1500(r1);0x05dc(r1)
     6c4:	ea 05       	adda	r5,	r10	
     6c6:	02 00       	mova	@r0,	r2	
     6c8:	71 0c ea 05 	mova	r12,	1514(r1);0x05ea(r1)
     6cc:	32 06 02 00 	mova	2(r6),	r2	;0x0002(r6)
     6d0:	71 0a 00 00 	mova	r10,	0(r1)	;0x0000(r1)
     6d4:	00 00       	bra	@r0		
     6d6:	98 05 b6 05 	cmpa	#0x505b6,r8	
     6da:	01 00       	mova	@r0,	r1	
     6dc:	5f b6 05 b9 	bit.b	-18171(r6),r15	;0xb905(r6)
     6e0:	05 01       	mova	@r1,	r5	
     6e2:	00 5e       	add	r14,	r0	
     6e4:	00 00       	bra	@r0		
     6e6:	00 00       	bra	@r0		
     6e8:	98 05 b2 05 	cmpa	#0x505b2,r8	
     6ec:	01 00       	mova	@r0,	r1	
     6ee:	5e b2 05 2a 	bit.b	&0x2a05,r14	
     6f2:	06 01       	mova	@r1,	r6	
     6f4:	00 58       	add	r8,	r0	
     6f6:	00 00       	bra	@r0		
     6f8:	00 00       	bra	@r0		
     6fa:	98 05 ac 05 	cmpa	#0x505ac,r8	
     6fe:	01 00       	mova	@r0,	r1	
     700:	5d ac 05 f0 	dadd.b	-4091(r12),r13	;0xf005(r12)
     704:	05 01       	mova	@r1,	r5	
     706:	00 5b       	add	r11,	r0	
     708:	00 00       	bra	@r0		
     70a:	00 00       	bra	@r0		
     70c:	98 05 b9 05 	cmpa	#0x505b9,r8	
     710:	01 00       	mova	@r0,	r1	
     712:	5c b9 05 e8 	bit.b	-6139(r9),r12	;0xe805(r9)
     716:	05 01       	mova	@r1,	r5	
     718:	00 5a       	add	r10,	r0	
     71a:	e8 05       	adda	r5,	r8	
     71c:	f0 05       	suba	r5,	r0	
     71e:	03 00       	.word	0x0003;	????	Illegal as address instr
     720:	03 30       	jn	$+8      	;abs 0x728
     722:	01 00       	mova	@r0,	r1	
     724:	00 00       	bra	@r0		
     726:	00 ea       	xor	r10,	r0	
     728:	05 f0       	and	r0,	r5	
     72a:	05 02       	mova	#4,	r5	;r2 As==10
     72c:	00 30       	jn	$+2      	;abs 0x72e
     72e:	9f fe 05 02 	and	517(r14),262(r15);0x0205(r14), 0x0106(r15)
     732:	06 01 
     734:	00 5b       	add	r11,	r0	
     736:	00 00       	bra	@r0		
     738:	00 00       	bra	@r0		
     73a:	ea 05       	adda	r5,	r10	
     73c:	2e 06 01 00 	mova	&0x60001,r14	
     740:	5a 00       	rrcm	#1,	r10	
     742:	00 00       	bra	@r0		
     744:	00 4c       	br	r12		
     746:	06 54       	add	r4,	r6	
     748:	06 01       	mova	@r1,	r6	
     74a:	00 5f       	add	r15,	r0	
     74c:	54 06       	rlam	#2,	r4	
     74e:	66 06 01 00 	mova	r6,	&0x60001
     752:	5f 00       	rrcm	#1,	r15	
     754:	00 00       	bra	@r0		
     756:	00 4c       	br	r12		
     758:	06 5c       	add	r12,	r6	
     75a:	06 01       	mova	@r1,	r6	
     75c:	00 5e       	add	r14,	r0	
     75e:	5c 06       	rlam	#2,	r12	
     760:	66 06 01 00 	mova	r6,	&0x60001
     764:	5e 00       	rrcm	#1,	r14	
     766:	00 00       	bra	@r0		
     768:	00 66       	addc	r6,	r0	
     76a:	06 68       	addc	r8,	r6	
     76c:	06 02       	mova	#4,	r6	;r2 As==10
     76e:	00 71       	subc	r1,	r0	
     770:	02 68       	addc	r8,	r2	
     772:	06 6a       	addc	r10,	r6	
     774:	06 02       	mova	#4,	r6	;r2 As==10
     776:	00 71       	subc	r1,	r0	
     778:	04 6a       	addc	r10,	r4	
     77a:	06 6c       	addc	r12,	r6	
     77c:	06 02       	mova	#4,	r6	;r2 As==10
     77e:	00 71       	subc	r1,	r0	
     780:	06 6c       	addc	r12,	r6	
     782:	06 6e       	addc	r14,	r6	
     784:	06 02       	mova	#4,	r6	;r2 As==10
     786:	00 71       	subc	r1,	r0	
     788:	08 6e       	addc	r14,	r8	
     78a:	06 70       	subc	r0,	r6	
     78c:	06 02       	mova	#4,	r6	;r2 As==10
     78e:	00 71       	subc	r1,	r0	
     790:	0a 70       	subc	r0,	r10	
     792:	06 08       	mova	@r8,	r6	
     794:	07 02       	mova	#4,	r7	;r2 As==10
     796:	00 71       	subc	r1,	r0	
     798:	0c 00       	mova	@r0,	r12	
     79a:	00 00       	bra	@r0		
     79c:	00 66       	addc	r6,	r0	
     79e:	06 88       	sub	r8,	r6	
     7a0:	06 01       	mova	@r1,	r6	
     7a2:	00 5f       	add	r15,	r0	
     7a4:	88 06 c8 06 	mova	#0x606c8,r8	
     7a8:	01 00       	mova	@r0,	r1	
     7aa:	5b 00       	rrcm	#1,	r11	
     7ac:	00 00       	bra	@r0		
     7ae:	00 7e       	subc	r14,	r0	
     7b0:	06 8b       	sub	r11,	r6	
     7b2:	06 01       	mova	@r1,	r6	
     7b4:	00 5e       	add	r14,	r0	
     7b6:	96 06 9e 06 	cmpa	#0x6069e,r6	
     7ba:	03 00       	.word	0x0003;	????	Illegal as address instr
     7bc:	7e 02 9f 9e 	mova	r2,	-24929(r14);0x9e9f(r14)
     7c0:	06 a5       	dadd	r5,	r6	
     7c2:	06 03       	mova	#2,	r6	;r3 As==10
     7c4:	00 7d       	subc	r13,	r0	
     7c6:	79 9f       	cmp.b	@r15+,	r9	
     7c8:	c8 06       	mova	r6,	r8	
     7ca:	ca 06       	mova	r6,	r10	
     7cc:	02 00       	mova	@r0,	r2	
     7ce:	30 9f       	cmp	@r15+,	r0	
     7d0:	00 00       	bra	@r0		
     7d2:	00 00       	bra	@r0		
     7d4:	b0 06 c8 06 	suba	#0x606c8,r0	
     7d8:	02 00       	mova	@r0,	r2	
     7da:	30 9f       	cmp	@r15+,	r0	
     7dc:	00 00       	bra	@r0		
     7de:	00 00       	bra	@r0		
     7e0:	ca 06       	mova	r6,	r10	
     7e2:	d9 06       	cmpa	r6,	r9	
     7e4:	02 00       	mova	@r0,	r2	
     7e6:	7b 00 f2 06 	mova	r0,	1778(r11);0x06f2(r11)
     7ea:	f9 06       	suba	r6,	r9	
     7ec:	02 00       	mova	@r0,	r2	
     7ee:	7b 00 00 00 	mova	r0,	0(r11)	;0x0000(r11)
     7f2:	00 00       	bra	@r0		
     7f4:	a6 06 c8 06 	adda	#0x606c8,r6	
     7f8:	02 00       	mova	@r0,	r2	
     7fa:	31 9f       	cmp	@r15+,	r1	
     7fc:	ea 06       	adda	r6,	r10	
     7fe:	f0 06       	suba	r6,	r0	
     800:	05 00       	mova	@r0,	r5	
     802:	7a 00 31 24 	mova	r0,	9265(r10);0x2431(r10)
     806:	9f f0 06 f2 	and	0xf206,	262(r15);PC rel. 0xffa10, 0x0106(r15)
     80a:	06 01 
     80c:	00 5a       	add	r10,	r0	
     80e:	fc 06       	suba	r6,	r12	
     810:	04 07       	mova	@r7,	r4	
     812:	05 00       	mova	@r0,	r5	
     814:	7a 00 31 24 	mova	r0,	9265(r10);0x2431(r10)
     818:	9f 00 00 00 	cmpa	#0x00000,r15	
     81c:	00 08       	bra	@r8		
     81e:	07 10       	rrc	r7		
     820:	07 01       	mova	@r1,	r7	
     822:	00 5f       	add	r15,	r0	
     824:	10 07       	bra	@r7+		
     826:	41 07       	rrum.a	#2,	r1	
     828:	01 00       	mova	@r0,	r1	
     82a:	5e 48 07 6b 	mov.b	27399(r8),r14	;0x6b07(r8)
     82e:	07 01       	mova	@r1,	r7	
     830:	00 5e       	add	r14,	r0	
     832:	00 00       	bra	@r0		
     834:	00 00       	bra	@r0		
     836:	6e 07 71 07 	mova	r7,	&0xe0771
     83a:	01 00       	mova	@r0,	r1	
     83c:	5f 00       	rrcm	#1,	r15	
     83e:	00 00       	bra	@r0		
     840:	00 76       	subc	r6,	r0	
     842:	07 78       	subc	r8,	r7	
     844:	07 02       	mova	#4,	r7	;r2 As==10
     846:	00 71       	subc	r1,	r0	
     848:	02 78       	subc	r8,	r2	
     84a:	07 7a       	subc	r10,	r7	
     84c:	07 02       	mova	#4,	r7	;r2 As==10
     84e:	00 71       	subc	r1,	r0	
     850:	04 7a       	subc	r10,	r4	
     852:	07 7c       	subc	r12,	r7	
     854:	07 02       	mova	#4,	r7	;r2 As==10
     856:	00 71       	subc	r1,	r0	
     858:	06 7c       	subc	r12,	r6	
     85a:	07 7e       	subc	r14,	r7	
     85c:	07 02       	mova	#4,	r7	;r2 As==10
     85e:	00 71       	subc	r1,	r0	
     860:	08 7e       	subc	r14,	r8	
     862:	07 80       	sub	r0,	r7	
     864:	07 02       	mova	#4,	r7	;r2 As==10
     866:	00 71       	subc	r1,	r0	
     868:	0a 80       	sub	r0,	r10	
     86a:	07 a6       	dadd	r6,	r7	
     86c:	07 02       	mova	#4,	r7	;r2 As==10
     86e:	00 71       	subc	r1,	r0	
     870:	0c a6       	dadd	r6,	r12	
     872:	07 b4       	bit	r4,	r7	
     874:	07 02       	mova	#4,	r7	;r2 As==10
     876:	00 71       	subc	r1,	r0	
     878:	0e b4       	bit	r4,	r14	
     87a:	07 c8       	bic	r8,	r7	
     87c:	07 02       	mova	#4,	r7	;r2 As==10
     87e:	00 71       	subc	r1,	r0	
     880:	0c c8       	bic	r8,	r12	
     882:	07 d2       	bis	r2,	r7	
     884:	07 02       	mova	#4,	r7	;r2 As==10
     886:	00 71       	subc	r1,	r0	
     888:	0e d2       	bis	r2,	r14	
     88a:	07 d6       	bis	r6,	r7	
     88c:	07 02       	mova	#4,	r7	;r2 As==10
     88e:	00 71       	subc	r1,	r0	
     890:	0c d6       	bis	r6,	r12	
     892:	07 e8       	xor	r8,	r7	
     894:	07 02       	mova	#4,	r7	;r2 As==10
     896:	00 71       	subc	r1,	r0	
     898:	0e e8       	xor	r8,	r14	
     89a:	07 02       	mova	#4,	r7	;r2 As==10
     89c:	08 02       	mova	#4,	r8	;r2 As==10
     89e:	00 71       	subc	r1,	r0	
     8a0:	0c 00       	mova	@r0,	r12	
     8a2:	00 00       	bra	@r0		
     8a4:	00 76       	subc	r6,	r0	
     8a6:	07 cf       	bic	r15,	r7	
     8a8:	07 01       	mova	@r1,	r7	
     8aa:	00 5f       	add	r15,	r0	
     8ac:	f4 07       	suba	r7,	r4	
     8ae:	02 08       	mova	@r8,	r2	
     8b0:	01 00       	mova	@r0,	r1	
     8b2:	5f 00       	rrcm	#1,	r15	
     8b4:	00 00       	bra	@r0		
     8b6:	00 76       	subc	r6,	r0	
     8b8:	07 8a       	sub	r10,	r7	
     8ba:	07 01       	mova	@r1,	r7	
     8bc:	00 5e       	add	r14,	r0	
     8be:	8a 07 ec 07 	mova	#0x707ec,r10	
     8c2:	01 00       	mova	@r0,	r1	
     8c4:	58 f4 07 02 	and.b	519(r4),r8	;0x0207(r4)
     8c8:	08 01       	mova	@r1,	r8	
     8ca:	00 58       	add	r8,	r0	
     8cc:	00 00       	bra	@r0		
     8ce:	00 00       	bra	@r0		
     8d0:	76 07 86 07 	mova	r7,	1926(r6);0x0786(r6)
     8d4:	01 00       	mova	@r0,	r1	
     8d6:	5d 86 07 ee 	sub.b	-4601(r6),r13	;0xee07(r6)
     8da:	07 01       	mova	@r1,	r7	
     8dc:	00 59       	add	r9,	r0	
     8de:	f4 07       	suba	r7,	r4	
     8e0:	02 08       	mova	@r8,	r2	
     8e2:	01 00       	mova	@r0,	r1	
     8e4:	59 00       	rrcm	#1,	r9	
     8e6:	00 00       	bra	@r0		
     8e8:	00 76       	subc	r6,	r0	
     8ea:	07 b6       	bit	r6,	r7	
     8ec:	07 01       	mova	@r1,	r7	
     8ee:	00 5c       	add	r12,	r0	
     8f0:	f4 07       	suba	r7,	r4	
     8f2:	02 08       	mova	@r8,	r2	
     8f4:	01 00       	mova	@r0,	r1	
     8f6:	5c 00       	rrcm	#1,	r12	
     8f8:	00 00       	bra	@r0		
     8fa:	00 76       	subc	r6,	r0	
     8fc:	07 9a       	cmp	r10,	r7	
     8fe:	07 02       	mova	#4,	r7	;r2 As==10
     900:	00 91       	cmp	r1,	r0	
     902:	10 f8 07 fa 	and	-1529(r8),r0	;0xfa07(r8)
     906:	07 02       	mova	#4,	r7	;r2 As==10
     908:	00 91       	cmp	r1,	r0	
     90a:	10 00       	bra	#0x00000	
     90c:	00 00       	bra	@r0		
     90e:	00 02       	bra	#4		;r2 As==10
     910:	08 04       	mova	@r4,	r8	
     912:	08 02       	mova	#4,	r8	;r2 As==10
     914:	00 71       	subc	r1,	r0	
     916:	02 04       	mova	@r4,	r2	
     918:	08 06       	mova	@r6,	r8	
     91a:	08 02       	mova	#4,	r8	;r2 As==10
     91c:	00 71       	subc	r1,	r0	
     91e:	04 06       	mova	@r6,	r4	
     920:	08 46       	mov	r6,	r8	
     922:	08 02       	mova	#4,	r8	;r2 As==10
     924:	00 71       	subc	r1,	r0	
     926:	06 00       	mova	@r0,	r6	
     928:	00 00       	bra	@r0		
     92a:	00 02       	bra	#4		;r2 As==10
     92c:	08 0e       	mova	@r14,	r8	
     92e:	08 01       	mova	@r1,	r8	
     930:	00 5f       	add	r15,	r0	
     932:	0e 08       	mova	@r8,	r14	
     934:	38 08 01 00 	mova	1(r8),	r8	;0x0001(r8)
     938:	5b 38       	jl	$+184    	;abs 0x9f0
     93a:	08 40       	mov	r0,	r8	
     93c:	08 01       	mova	@r1,	r8	
     93e:	00 5b       	add	r11,	r0	
     940:	42 08       	rrcm.a	#3,	r2	
     942:	46 08       	rrcm.a	#3,	r6	
     944:	01 00       	mova	@r0,	r1	
     946:	5b 00       	rrcm	#1,	r11	
     948:	00 00       	bra	@r0		
     94a:	00 02       	bra	#4		;r2 As==10
     94c:	08 0e       	mova	@r14,	r8	
     94e:	08 01       	mova	@r1,	r8	
     950:	00 5e       	add	r14,	r0	
     952:	0e 08       	mova	@r8,	r14	
     954:	3e 08 01 00 	mova	1(r8),	r14	;0x0001(r8)
     958:	5a 42 08 46 	mov.b	&0x4608,r10	
     95c:	08 01       	mova	@r1,	r8	
     95e:	00 5a       	add	r10,	r0	
     960:	00 00       	bra	@r0		
     962:	00 00       	bra	@r0		
     964:	14 08       	mova	@r8+,	r4	
     966:	22 08 03 00 	mova	&0x80003,r2	
     96a:	03 02       	.word	0x0203;	????	Illegal as address instr
     96c:	11 22       	jnz	$-988    	;abs 0x590
     96e:	08 2e       	jc	$-1006   	;abs 0x580
     970:	08 01       	mova	@r1,	r8	
     972:	00 5f       	add	r15,	r0	
     974:	42 08       	rrcm.a	#3,	r2	
     976:	44 08       	rrcm.a	#3,	r4	
     978:	01 00       	mova	@r0,	r1	
     97a:	5f 44 08 46 	mov.b	17928(r4),r15	;0x4608(r4)
     97e:	08 03       	mova	#2,	r8	;r3 As==10
     980:	00 03       	bra	#2		;r3 As==10
     982:	02 11       	rra	r2		
     984:	00 00       	bra	@r0		
     986:	00 00       	bra	@r0		
     988:	14 08       	mova	@r8+,	r4	
     98a:	1c 08       	mova	@r8+,	r12	
     98c:	01 00       	mova	@r0,	r1	
     98e:	5b 1c       	.word	0x1c5b;	????	
     990:	08 2e       	jc	$-1006   	;abs 0x5a2
     992:	08 01       	mova	@r1,	r8	
     994:	00 5e       	add	r14,	r0	
     996:	42 08       	rrcm.a	#3,	r2	
     998:	46 08       	rrcm.a	#3,	r6	
     99a:	01 00       	mova	@r0,	r1	
     99c:	5e 00       	rrcm	#1,	r14	
     99e:	00 00       	bra	@r0		
     9a0:	00 1a       	.word	0x1a00;	????	
     9a2:	00 1c       	.word	0x1c00;	????	
     9a4:	00 02       	bra	#4		;r2 As==10
     9a6:	00 71       	subc	r1,	r0	
     9a8:	02 1c       	.word	0x1c02;	????	
     9aa:	00 2a       	jnc	$-1022   	;abs 0x5ac
     9ac:	00 02       	bra	#4		;r2 As==10
     9ae:	00 71       	subc	r1,	r0	
     9b0:	04 00       	mova	@r0,	r4	
     9b2:	00 00       	bra	@r0		
     9b4:	00 1a       	.word	0x1a00;	????	
     9b6:	00 21       	jnz	$+514    	;abs 0xbb8
     9b8:	00 01       	bra	@r1		
     9ba:	00 5f       	add	r15,	r0	
     9bc:	21 00 28 00 	mova	&0x00028,r1	
     9c0:	01 00       	mova	@r0,	r1	
     9c2:	5b 28       	jnc	$+184    	;abs 0xa7a
     9c4:	00 2a       	jnc	$-1022   	;abs 0x5c6
     9c6:	00 03       	bra	#2		;r3 As==10
     9c8:	00 03       	bra	#2		;r3 As==10
     9ca:	01 11       	rra	r1		
     9cc:	00 00       	bra	@r0		
     9ce:	00 00       	bra	@r0		
     9d0:	6c 00 6e 00 	mova	r0,	&0xc006e
     9d4:	02 00       	mova	@r0,	r2	
     9d6:	71 02 6e 00 	mova	r2,	110(r1)	;0x006e(r1)
     9da:	ac 00 02 00 	adda	#0x00002,r12	
     9de:	71 04 00 00 	mova	r4,	0(r1)	;0x0000(r1)
     9e2:	00 00       	bra	@r0		
     9e4:	84 00 a4 00 	mova	#0x000a4,r4	
     9e8:	0b 00       	mova	@r0,	r11	
     9ea:	7b 00 34 1a 	mova	r0,	6708(r11);0x1a34(r11)
     9ee:	38 24       	jz	$+114    	;abs 0xa60
     9f0:	38 25       	jz	$+626    	;abs 0xc62
     9f2:	30 2e       	jc	$-926    	;abs 0x654
     9f4:	9f a6 00 aa 	dadd	-22016(r6),2816(r15);0xaa00(r6), 0x0b00(r15)
     9f8:	00 0b 
     9fa:	00 7b       	subc	r11,	r0	
     9fc:	00 34       	jge	$+2      	;abs 0x9fe
     9fe:	1a 38       	jl	$+54     	;abs 0xa34
     a00:	24 38       	jl	$+74     	;abs 0xa4a
     a02:	25 30       	jn	$+76     	;abs 0xa4e
     a04:	2e 9f       	cmp	@r15,	r14	
     a06:	00 00       	bra	@r0		
     a08:	00 00       	bra	@r0		
     a0a:	ac 00 c3 00 	adda	#0x000c3,r12	
     a0e:	01 00       	mova	@r0,	r1	
     a10:	5f d6 00 dc 	bis.b	-9216(r6),r15	;0xdc00(r6)
     a14:	00 01       	bra	@r1		
     a16:	00 5f       	add	r15,	r0	
     a18:	00 00       	bra	@r0		
     a1a:	00 00       	bra	@r0		
     a1c:	dc 00       	cmpa	r0,	r12	
     a1e:	de 00       	cmpa	r0,	r14	
     a20:	02 00       	mova	@r0,	r2	
     a22:	71 02 de 00 	mova	r2,	222(r1)	;0x00de(r1)
     a26:	e0 00       	adda	r0,	r0	
     a28:	02 00       	mova	@r0,	r2	
     a2a:	71 04 e0 00 	mova	r4,	224(r1)	;0x00e0(r1)
     a2e:	e2 00       	adda	r0,	r2	
     a30:	02 00       	mova	@r0,	r2	
     a32:	71 06 e2 00 	mova	r6,	226(r1)	;0x00e2(r1)
     a36:	28 01 02 00 	mova	&0x10002,r8	
     a3a:	71 08 00 00 	mova	r8,	0(r1)	;0x0000(r1)
     a3e:	00 00       	bra	@r0		
     a40:	dc 00       	cmpa	r0,	r12	
     a42:	f2 00       	suba	r0,	r2	
     a44:	01 00       	mova	@r0,	r1	
     a46:	5f f2 00 22 	and.b	&0x2200,r15	
     a4a:	01 01       	mova	@r1,	r1	
     a4c:	00 59       	add	r9,	r0	
     a4e:	00 00       	bra	@r0		
     a50:	00 00       	bra	@r0		
     a52:	e4 00       	adda	r0,	r4	
     a54:	f2 00       	suba	r0,	r2	
     a56:	03 00       	.word	0x0003;	????	Illegal as address instr
     a58:	09 80       	sub	r0,	r9	
     a5a:	9f 0c 01 12 	cmpa	#0xc1201,r15	
     a5e:	01 05       	mova	@r5,	r1	
     a60:	00 7a       	subc	r10,	r0	
     a62:	00 31       	jn	$+514    	;abs 0xc64
     a64:	26 9f       	cmp	@r15,	r6	
     a66:	20 01 24 01 	bra	&0x10124	
     a6a:	05 00       	mova	@r0,	r5	
     a6c:	7a 00 31 26 	mova	r0,	9777(r10);0x2631(r10)
     a70:	9f 00 00 00 	cmpa	#0x00000,r15	
     a74:	00 ea       	xor	r10,	r0	
     a76:	00 f2       	and	r2,	r0	
     a78:	00 02       	bra	#4		;r2 As==10
     a7a:	00 30       	jn	$+2      	;abs 0xa7c
     a7c:	9f 00 00 00 	cmpa	#0x00000,r15	
     a80:	00 28       	jnc	$+2      	;abs 0xa82
     a82:	01 2a       	jnc	$-1020   	;abs 0x686
     a84:	01 02       	mova	#4,	r1	;r2 As==10
     a86:	00 71       	subc	r1,	r0	
     a88:	02 2a       	jnc	$-1018   	;abs 0x68e
     a8a:	01 2c       	jc	$+4      	;abs 0xa8e
     a8c:	01 02       	mova	#4,	r1	;r2 As==10
     a8e:	00 71       	subc	r1,	r0	
     a90:	04 2c       	jc	$+10     	;abs 0xa9a
     a92:	01 66       	addc	r6,	r1	
     a94:	01 02       	mova	#4,	r1	;r2 As==10
     a96:	00 71       	subc	r1,	r0	
     a98:	06 00       	mova	@r0,	r6	
     a9a:	00 00       	bra	@r0		
     a9c:	00 32       	jn	$-1022   	;abs 0x69e
     a9e:	01 36       	jge	$-1020   	;abs 0x6a2
     aa0:	01 02       	mova	#4,	r1	;r2 As==10
     aa2:	00 30       	jn	$+2      	;abs 0xaa4
     aa4:	9f 00 00 00 	cmpa	#0x00000,r15	
     aa8:	00 2c       	jc	$+2      	;abs 0xaaa
     aaa:	01 36       	jge	$-1020   	;abs 0x6ae
     aac:	01 02       	mova	#4,	r1	;r2 As==10
     aae:	00 30       	jn	$+2      	;abs 0xab0
     ab0:	9f 3a       	jl	$-704    	;abs 0x7f0
     ab2:	01 4c       	mov	r12,	r1	
     ab4:	01 01       	mova	@r1,	r1	
     ab6:	00 5b       	add	r11,	r0	
     ab8:	4c 01       	rram.a	#1,	r12	
     aba:	64 01 01 00 	mova	r1,	&0x40001
     abe:	5b 64 01 66 	addc.b	26113(r4),r11	;0x6601(r4)
     ac2:	01 01       	mova	@r1,	r1	
     ac4:	00 5f       	add	r15,	r0	
     ac6:	00 00       	bra	@r0		
     ac8:	00 00       	bra	@r0		
     aca:	66 01 68 01 	mova	r1,	&0x60168
     ace:	02 00       	mova	@r0,	r2	
     ad0:	71 02 68 01 	mova	r2,	360(r1)	;0x0168(r1)
     ad4:	86 01 02 00 	mova	#0x10002,r6	
     ad8:	71 04 00 00 	mova	r4,	0(r1)	;0x0000(r1)
     adc:	00 00       	bra	@r0		
     ade:	68 01 78 01 	mova	r1,	&0x80178
     ae2:	02 00       	mova	@r0,	r2	
     ae4:	30 9f       	cmp	@r15+,	r0	
     ae6:	78 01 7f 01 	mova	r1,	383(r8)	;0x017f(r8)
     aea:	01 00       	mova	@r0,	r1	
     aec:	5f 00       	rrcm	#1,	r15	
     aee:	00 00       	bra	@r0		
     af0:	00 86       	sub	r6,	r0	
     af2:	01 88       	sub	r8,	r1	
     af4:	01 02       	mova	#4,	r1	;r2 As==10
     af6:	00 71       	subc	r1,	r0	
     af8:	02 88       	sub	r8,	r2	
     afa:	01 a8       	dadd	r8,	r1	
     afc:	01 02       	mova	#4,	r1	;r2 As==10
     afe:	00 71       	subc	r1,	r0	
     b00:	04 00       	mova	@r0,	r4	
     b02:	00 00       	bra	@r0		
     b04:	00 86       	sub	r6,	r0	
     b06:	01 8f       	sub	r15,	r1	
     b08:	01 01       	mova	@r1,	r1	
     b0a:	00 5f       	add	r15,	r0	
     b0c:	00 00       	bra	@r0		
     b0e:	00 00       	bra	@r0		
     b10:	88 01 9a 01 	mova	#0x1019a,r8	
     b14:	02 00       	mova	@r0,	r2	
     b16:	30 9f       	cmp	@r15+,	r0	
     b18:	9a 01 a1 01 	cmpa	#0x101a1,r10	
     b1c:	01 00       	mova	@r0,	r1	
     b1e:	5f 00       	rrcm	#1,	r15	
     b20:	00 00       	bra	@r0		
     b22:	00 a8       	dadd	r8,	r0	
     b24:	01 aa       	dadd	r10,	r1	
     b26:	01 02       	mova	#4,	r1	;r2 As==10
     b28:	00 71       	subc	r1,	r0	
     b2a:	02 aa       	dadd	r10,	r2	
     b2c:	01 ac       	dadd	r12,	r1	
     b2e:	01 02       	mova	#4,	r1	;r2 As==10
     b30:	00 71       	subc	r1,	r0	
     b32:	04 ac       	dadd	r12,	r4	
     b34:	01 ae       	dadd	r14,	r1	
     b36:	01 02       	mova	#4,	r1	;r2 As==10
     b38:	00 71       	subc	r1,	r0	
     b3a:	06 ae       	dadd	r14,	r6	
     b3c:	01 f0       	and	r0,	r1	
     b3e:	01 02       	mova	#4,	r1	;r2 As==10
     b40:	00 71       	subc	r1,	r0	
     b42:	08 00       	mova	@r0,	r8	
     b44:	00 00       	bra	@r0		
     b46:	00 a8       	dadd	r8,	r0	
     b48:	01 b5       	bit	r5,	r1	
     b4a:	01 01       	mova	@r1,	r1	
     b4c:	00 5f       	add	r15,	r0	
     b4e:	b5 01 d0 01 	suba	#0x101d0,r5	
     b52:	01 00       	mova	@r0,	r1	
     b54:	59 00       	rrcm	#1,	r9	
     b56:	00 00       	bra	@r0		
     b58:	00 a8       	dadd	r8,	r0	
     b5a:	01 b5       	bit	r5,	r1	
     b5c:	01 01       	mova	@r1,	r1	
     b5e:	00 5e       	add	r14,	r0	
     b60:	b5 01 dc 01 	suba	#0x101dc,r5	
     b64:	01 00       	mova	@r0,	r1	
     b66:	5b 00       	rrcm	#1,	r11	
     b68:	00 00       	bra	@r0		
     b6a:	00 b2       	bit	r2,	r0	
     b6c:	01 c4       	bic	r4,	r1	
     b6e:	01 02       	mova	#4,	r1	;r2 As==10
     b70:	00 30       	jn	$+2      	;abs 0xb72
     b72:	9f c4 01 c6 	bic	-14847(r4),257(r15);0xc601(r4), 0x0101(r15)
     b76:	01 01 
     b78:	00 5f       	add	r15,	r0	
     b7a:	c6 01       	mova	r1,	r6	
     b7c:	d0 01       	cmpa	r1,	r0	
     b7e:	01 00       	mova	@r0,	r1	
     b80:	5a d0 01 d2 	bis.b	0xd201,	r10	;PC rel. 0xfdd85
     b84:	01 06       	mova	@r6,	r1	
     b86:	00 7f       	subc	r15,	r0	
     b88:	00 7a       	subc	r10,	r0	
     b8a:	00 22       	jnz	$-1022   	;abs 0x78c
     b8c:	9f d2 01 dc 	bis	&0xdc01,1537(r15);0x0601(r15)
     b90:	01 06 
     b92:	00 79       	subc	r9,	r0	
     b94:	00 7a       	subc	r10,	r0	
     b96:	00 22       	jnz	$-1022   	;abs 0x798
     b98:	9f dc 01 df 	bis	-8447(r12),2305(r15);0xdf01(r12), 0x0901(r15)
     b9c:	01 09 
     b9e:	00 79       	subc	r9,	r0	
     ba0:	00 7a       	subc	r10,	r0	
     ba2:	00 22       	jnz	$-1022   	;abs 0x7a4
     ba4:	7f 00 22 9f 	mova	r0,	-24798(r15);0x9f22(r15)
     ba8:	df 01       	cmpa	r1,	r15	
     baa:	ea 01       	adda	r1,	r10	
     bac:	09 00       	mova	@r0,	r9	
     bae:	79 00 7a 00 	mova	r0,	122(r9)	;0x007a(r9)
     bb2:	22 7b       	subc	@r11,	r2	
     bb4:	00 22       	jnz	$-1022   	;abs 0x7b6
     bb6:	9f ea 01 f0 	xor	-4095(r10),257(r15);0xf001(r10), 0x0101(r15)
     bba:	01 01 
     bbc:	00 5f       	add	r15,	r0	
     bbe:	00 00       	bra	@r0		
     bc0:	00 00       	bra	@r0		
     bc2:	f0 01       	suba	r1,	r0	
     bc4:	f2 01       	suba	r1,	r2	
     bc6:	02 00       	mova	@r0,	r2	
     bc8:	71 02 f2 01 	mova	r2,	498(r1)	;0x01f2(r1)
     bcc:	f4 01       	suba	r1,	r4	
     bce:	02 00       	mova	@r0,	r2	
     bd0:	71 04 f4 01 	mova	r4,	500(r1)	;0x01f4(r1)
     bd4:	f6 01       	suba	r1,	r6	
     bd6:	02 00       	mova	@r0,	r2	
     bd8:	71 06 f6 01 	mova	r6,	502(r1)	;0x01f6(r1)
     bdc:	f8 01       	suba	r1,	r8	
     bde:	02 00       	mova	@r0,	r2	
     be0:	71 08 f8 01 	mova	r8,	504(r1)	;0x01f8(r1)
     be4:	5c 02       	rlam	#1,	r12	
     be6:	02 00       	mova	@r0,	r2	
     be8:	71 0a 00 00 	mova	r10,	0(r1)	;0x0000(r1)
     bec:	00 00       	bra	@r0		
     bee:	f0 01       	suba	r1,	r0	
     bf0:	01 02       	mova	#4,	r1	;r2 As==10
     bf2:	01 00       	mova	@r0,	r1	
     bf4:	5f 01       	rram	#1,	r15	
     bf6:	02 50       	add	r0,	r2	
     bf8:	02 01       	mova	@r1,	r2	
     bfa:	00 58       	add	r8,	r0	
     bfc:	58 02       	rlam	#1,	r8	
     bfe:	5c 02       	rlam	#1,	r12	
     c00:	01 00       	mova	@r0,	r1	
     c02:	58 00       	rrcm	#1,	r8	
     c04:	00 00       	bra	@r0		
     c06:	00 f0       	and	r0,	r0	
     c08:	01 01       	mova	@r1,	r1	
     c0a:	02 01       	mova	@r1,	r2	
     c0c:	00 5e       	add	r14,	r0	
     c0e:	01 02       	mova	#4,	r1	;r2 As==10
     c10:	52 02       	rlam	#1,	r2	
     c12:	01 00       	mova	@r0,	r1	
     c14:	59 58 02 5c 	add.b	23554(r8),r9	;0x5c02(r8)
     c18:	02 01       	mova	@r1,	r2	
     c1a:	00 59       	add	r9,	r0	
     c1c:	00 00       	bra	@r0		
     c1e:	00 00       	bra	@r0		
     c20:	f0 01       	suba	r1,	r0	
     c22:	01 02       	mova	#4,	r1	;r2 As==10
     c24:	01 00       	mova	@r0,	r1	
     c26:	5d 01       	rram	#1,	r13	
     c28:	02 54       	add	r4,	r2	
     c2a:	02 01       	mova	@r1,	r2	
     c2c:	00 5a       	add	r10,	r0	
     c2e:	58 02       	rlam	#1,	r8	
     c30:	5c 02       	rlam	#1,	r12	
     c32:	01 00       	mova	@r0,	r1	
     c34:	5a 00       	rrcm	#1,	r10	
     c36:	00 00       	bra	@r0		
     c38:	00 fe       	and	r14,	r0	
     c3a:	01 2e       	jc	$-1020   	;abs 0x83e
     c3c:	02 02       	mova	#4,	r2	;r2 As==10
     c3e:	00 30       	jn	$+2      	;abs 0xc40
     c40:	9f 2e       	jc	$-704    	;abs 0x980
     c42:	02 30       	jn	$+6      	;abs 0xc48
     c44:	02 03       	mova	#2,	r2	;r3 As==10
     c46:	00 7b       	subc	r11,	r0	
     c48:	01 9f       	cmp	r15,	r1	
     c4a:	30 02 34 02 	bra	&0x0234	
     c4e:	01 00       	mova	@r0,	r1	
     c50:	5b 34       	jge	$+184    	;abs 0xd08
     c52:	02 46       	mov	r6,	r2	
     c54:	02 03       	mova	#2,	r2	;r3 As==10
     c56:	00 7b       	subc	r11,	r0	
     c58:	01 9f       	cmp	r15,	r1	
     c5a:	58 02       	rlam	#1,	r8	
     c5c:	5c 02       	rlam	#1,	r12	
     c5e:	02 00       	mova	@r0,	r2	
     c60:	30 9f       	cmp	@r15+,	r0	
     c62:	00 00       	bra	@r0		
     c64:	00 00       	bra	@r0		
     c66:	fe 01       	suba	r1,	r14	
     c68:	10 02       	bra	#8		;r2 As==11
     c6a:	02 00       	mova	@r0,	r2	
     c6c:	30 9f       	cmp	@r15+,	r0	
     c6e:	10 02       	bra	#8		;r2 As==11
     c70:	12 02       	mova	#8,	r2	;r2 As==11
     c72:	01 00       	mova	@r0,	r1	
     c74:	5f 12 02 24 	push.b	9218(r15)	;0x2402(r15)
     c78:	02 01       	mova	@r1,	r2	
     c7a:	00 5b       	add	r11,	r0	
     c7c:	24 02 2e 02 	mova	&0x2022e,r4	
     c80:	01 00       	mova	@r0,	r1	
     c82:	5e 2e       	jc	$-834    	;abs 0x940
     c84:	02 34       	jge	$+6      	;abs 0xc8a
     c86:	02 01       	mova	@r1,	r2	
     c88:	00 5f       	add	r15,	r0	
     c8a:	44 02       	rlam.a	#1,	r4	
     c8c:	48 02       	rlam.a	#1,	r8	
     c8e:	01 00       	mova	@r0,	r1	
     c90:	5f 58 02 5c 	add.b	23554(r8),r15	;0x5c02(r8)
     c94:	02 01       	mova	@r1,	r2	
     c96:	00 5e       	add	r14,	r0	
     c98:	00 00       	bra	@r0		
     c9a:	00 00       	bra	@r0		
     c9c:	5c 02       	rlam	#1,	r12	
     c9e:	5e 02       	rlam	#1,	r14	
     ca0:	02 00       	mova	@r0,	r2	
     ca2:	71 02 5e 02 	mova	r2,	606(r1)	;0x025e(r1)
     ca6:	60 02 02 00 	mova	r2,	&0x00002
     caa:	71 04 60 02 	mova	r4,	608(r1)	;0x0260(r1)
     cae:	62 02 02 00 	mova	r2,	&0x20002
     cb2:	71 06 62 02 	mova	r6,	610(r1)	;0x0262(r1)
     cb6:	64 02 02 00 	mova	r2,	&0x40002
     cba:	71 08 64 02 	mova	r8,	612(r1)	;0x0264(r1)
     cbe:	66 02 02 00 	mova	r2,	&0x60002
     cc2:	71 0a 66 02 	mova	r10,	614(r1)	;0x0266(r1)
     cc6:	dc 02       	cmpa	r2,	r12	
     cc8:	02 00       	mova	@r0,	r2	
     cca:	71 0c 00 00 	mova	r12,	0(r1)	;0x0000(r1)
     cce:	00 00       	bra	@r0		
     cd0:	5c 02       	rlam	#1,	r12	
     cd2:	6d 02 01 00 	mova	r2,	&0xd0001
     cd6:	5f 6d 02 c2 	addc.b	-15870(r13),r15	;0xc202(r13)
     cda:	02 01       	mova	@r1,	r2	
     cdc:	00 5b       	add	r11,	r0	
     cde:	00 00       	bra	@r0		
     ce0:	00 00       	bra	@r0		
     ce2:	5c 02       	rlam	#1,	r12	
     ce4:	6d 02 01 00 	mova	r2,	&0xd0001
     ce8:	5e 6d 02 d2 	addc.b	-11774(r13),r14	;0xd202(r13)
     cec:	02 01       	mova	@r1,	r2	
     cee:	00 57       	add	r7,	r0	
     cf0:	00 00       	bra	@r0		
     cf2:	00 00       	bra	@r0		
     cf4:	6a 02 7c 02 	mova	r2,	&0xa027c
     cf8:	02 00       	mova	@r0,	r2	
     cfa:	30 9f       	cmp	@r15+,	r0	
     cfc:	7c 02 8c 02 	mova	r2,	652(r12);0x028c(r12)
     d00:	01 00       	mova	@r0,	r1	
     d02:	5f 8c 02 96 	sub.b	-27134(r12),r15	;0x9602(r12)
     d06:	02 01       	mova	@r1,	r2	
     d08:	00 59       	add	r9,	r0	
     d0a:	96 02 ac 02 	cmpa	#0x202ac,r6	
     d0e:	06 00       	mova	@r0,	r6	
     d10:	7f 00 79 00 	mova	r0,	121(r15);0x0079(r15)
     d14:	22 9f       	cmp	@r15,	r2	
     d16:	ac 02 b6 02 	adda	#0x202b6,r12	
     d1a:	06 00       	mova	@r0,	r6	
     d1c:	78 00 79 00 	mova	r0,	121(r8)	;0x0079(r8)
     d20:	22 9f       	cmp	@r15,	r2	
     d22:	b6 02 b8 02 	suba	#0x202b8,r6	
     d26:	09 00       	mova	@r0,	r9	
     d28:	78 00 79 00 	mova	r0,	121(r8)	;0x0079(r8)
     d2c:	22 7f       	subc	@r15,	r2	
     d2e:	00 22       	jnz	$-1022   	;abs 0x930
     d30:	9f b8 02 c2 	bit	-15870(r8),2306(r15);0xc202(r8), 0x0902(r15)
     d34:	02 09 
     d36:	00 78       	subc	r8,	r0	
     d38:	00 79       	subc	r9,	r0	
     d3a:	00 22       	jnz	$-1022   	;abs 0x93c
     d3c:	7a 00 22 9f 	mova	r0,	-24798(r10);0x9f22(r10)
     d40:	c2 02       	mova	r2,	r2	
     d42:	c5 02       	mova	r2,	r5	
     d44:	0c 00       	mova	@r0,	r12	
     d46:	78 00 79 00 	mova	r0,	121(r8)	;0x0079(r8)
     d4a:	22 7a       	subc	@r10,	r2	
     d4c:	00 22       	jnz	$-1022   	;abs 0x94e
     d4e:	7f 00 22 9f 	mova	r0,	-24798(r15);0x9f22(r15)
     d52:	c5 02       	mova	r2,	r5	
     d54:	d4 02       	cmpa	r2,	r4	
     d56:	0c 00       	mova	@r0,	r12	
     d58:	78 00 79 00 	mova	r0,	121(r8)	;0x0079(r8)
     d5c:	22 7a       	subc	@r10,	r2	
     d5e:	00 22       	jnz	$-1022   	;abs 0x960
     d60:	7b 00 22 9f 	mova	r0,	-24798(r11);0x9f22(r11)
     d64:	d4 02       	cmpa	r2,	r4	
     d66:	dc 02       	cmpa	r2,	r12	
     d68:	01 00       	mova	@r0,	r1	
     d6a:	5f 00       	rrcm	#1,	r15	
     d6c:	00 00       	bra	@r0		
     d6e:	00 dc       	bis	r12,	r0	
     d70:	02 de       	bis	r14,	r2	
     d72:	02 02       	mova	#4,	r2	;r2 As==10
     d74:	00 71       	subc	r1,	r0	
     d76:	02 de       	bis	r14,	r2	
     d78:	02 e0       	xor	r0,	r2	
     d7a:	02 02       	mova	#4,	r2	;r2 As==10
     d7c:	00 71       	subc	r1,	r0	
     d7e:	04 e0       	xor	r0,	r4	
     d80:	02 e2       	xor	r2,	r2	
     d82:	02 02       	mova	#4,	r2	;r2 As==10
     d84:	00 71       	subc	r1,	r0	
     d86:	06 e2       	xor	r2,	r6	
     d88:	02 e4       	xor	r4,	r2	
     d8a:	02 02       	mova	#4,	r2	;r2 As==10
     d8c:	00 71       	subc	r1,	r0	
     d8e:	08 e4       	xor	r4,	r8	
     d90:	02 74       	subc	r4,	r2	
     d92:	03 02       	.word	0x0203;	????	Illegal as address instr
     d94:	00 71       	subc	r1,	r0	
     d96:	0a 00       	mova	@r0,	r10	
     d98:	00 00       	bra	@r0		
     d9a:	00 dc       	bis	r12,	r0	
     d9c:	02 ed       	xor	r13,	r2	
     d9e:	02 01       	mova	@r1,	r2	
     da0:	00 5f       	add	r15,	r0	
     da2:	ed 02       	adda	r2,	r13	
     da4:	6c 03 01 00 	mova	#0,	&0xc0001;r3 As==00
     da8:	58 00       	rrcm	#1,	r8	
     daa:	00 00       	bra	@r0		
     dac:	00 dc       	bis	r12,	r0	
     dae:	02 ed       	xor	r13,	r2	
     db0:	02 01       	mova	@r1,	r2	
     db2:	00 5e       	add	r14,	r0	
     db4:	ed 02       	adda	r2,	r13	
     db6:	6e 03 01 00 	mova	#0,	&0xe0001;r3 As==00
     dba:	59 00       	rrcm	#1,	r9	
     dbc:	00 00       	bra	@r0		
     dbe:	00 dc       	bis	r12,	r0	
     dc0:	02 ed       	xor	r13,	r2	
     dc2:	02 01       	mova	@r1,	r2	
     dc4:	00 5d       	add	r13,	r0	
     dc6:	ed 02       	adda	r2,	r13	
     dc8:	70 03 01 00 	mova	#0,	0x0001	;r3 As==00, PC rel. 0x00dcb
     dcc:	5a 00       	rrcm	#1,	r10	
     dce:	00 00       	bra	@r0		
     dd0:	00 ea       	xor	r10,	r0	
     dd2:	02 4a       	mov	r10,	r2	
     dd4:	03 02       	.word	0x0203;	????	Illegal as address instr
     dd6:	00 30       	jn	$+2      	;abs 0xdd8
     dd8:	9f 4a 03 4c 	mov	19459(r10),771(r15);0x4c03(r10), 0x0303(r15)
     ddc:	03 03 
     dde:	00 7b       	subc	r11,	r0	
     de0:	01 9f       	cmp	r15,	r1	
     de2:	4c 03       	rrum.a	#1,	r12	
     de4:	50 03       	rrum	#1,	r0	
     de6:	01 00       	mova	@r0,	r1	
     de8:	5b 50 03 62 	add.b	0x6203,	r11	;PC rel. 0x06fef
     dec:	03 03       	.word	0x0303;	????	Illegal as address instr
     dee:	00 7b       	subc	r11,	r0	
     df0:	01 9f       	cmp	r15,	r1	
     df2:	00 00       	bra	@r0		
     df4:	00 00       	bra	@r0		
     df6:	ea 02       	adda	r2,	r10	
     df8:	fc 02       	suba	r2,	r12	
     dfa:	02 00       	mova	@r0,	r2	
     dfc:	30 9f       	cmp	@r15+,	r0	
     dfe:	fc 02       	suba	r2,	r12	
     e00:	0c 03       	mova	#2,	r12	;r3 As==10
     e02:	01 00       	mova	@r0,	r1	
     e04:	5f 0c       	rrcm	#4,	r15	
     e06:	03 1e       	.word	0x1e03;	????	
     e08:	03 01       	.word	0x0103;	????	Illegal as address instr
     e0a:	00 5b       	add	r11,	r0	
     e0c:	20 03 40 03 	bra	&0x30340	
     e10:	01 00       	mova	@r0,	r1	
     e12:	5b 40 03 52 	mov.b	0x5203,	r11	;PC rel. 0x06019
     e16:	03 01       	.word	0x0103;	????	Illegal as address instr
     e18:	00 5f       	add	r15,	r0	
     e1a:	60 03 67 03 	mova	#0,	&0x00367;r3 As==00
     e1e:	01 00       	mova	@r0,	r1	
     e20:	5f 00       	rrcm	#1,	r15	
     e22:	00 00       	bra	@r0		
     e24:	00 74       	subc	r4,	r0	
     e26:	03 76       	.word	0x7603;	????	Illegal as 2-op instr
     e28:	03 02       	.word	0x0203;	????	Illegal as address instr
     e2a:	00 71       	subc	r1,	r0	
     e2c:	02 76       	subc	r6,	r2	
     e2e:	03 78       	.word	0x7803;	????	Illegal as 2-op instr
     e30:	03 02       	.word	0x0203;	????	Illegal as address instr
     e32:	00 71       	subc	r1,	r0	
     e34:	04 78       	subc	r8,	r4	
     e36:	03 7a       	.word	0x7a03;	????	Illegal as 2-op instr
     e38:	03 02       	.word	0x0203;	????	Illegal as address instr
     e3a:	00 71       	subc	r1,	r0	
     e3c:	06 7a       	subc	r10,	r6	
     e3e:	03 7c       	.word	0x7c03;	????	Illegal as 2-op instr
     e40:	03 02       	.word	0x0203;	????	Illegal as address instr
     e42:	00 71       	subc	r1,	r0	
     e44:	08 7c       	subc	r12,	r8	
     e46:	03 d6       	.word	0xd603;	????	Illegal as 2-op instr
     e48:	03 02       	.word	0x0203;	????	Illegal as address instr
     e4a:	00 71       	subc	r1,	r0	
     e4c:	0a 00       	mova	@r0,	r10	
     e4e:	00 00       	bra	@r0		
     e50:	00 74       	subc	r4,	r0	
     e52:	03 83       	.word	0x8303;	????	Illegal as 2-op instr
     e54:	03 01       	.word	0x0103;	????	Illegal as address instr
     e56:	00 5f       	add	r15,	r0	
     e58:	83 03       	.word	0x0383;	????	Illegal as address instr
     e5a:	b2 03 01 00 	suba	#0x30001,r2	
     e5e:	5a 00       	rrcm	#1,	r10	
     e60:	00 00       	bra	@r0		
     e62:	00 74       	subc	r4,	r0	
     e64:	03 83       	.word	0x8303;	????	Illegal as 2-op instr
     e66:	03 01       	.word	0x0103;	????	Illegal as address instr
     e68:	00 5e       	add	r14,	r0	
     e6a:	83 03       	.word	0x0383;	????	Illegal as address instr
     e6c:	d4 03       	tsta	r4		
     e6e:	01 00       	mova	@r0,	r1	
     e70:	5b 00       	rrcm	#1,	r11	
     e72:	00 00       	bra	@r0		
     e74:	00 80       	sub	r0,	r0	
     e76:	03 92       	.word	0x9203;	????	Illegal as 2-op instr
     e78:	03 02       	.word	0x0203;	????	Illegal as address instr
     e7a:	00 30       	jn	$+2      	;abs 0xe7c
     e7c:	9f 92 03 94 	cmp	&0x9403,259(r15);0x0103(r15)
     e80:	03 01 
     e82:	00 5f       	add	r15,	r0	
     e84:	94 03 9e 03 	cmpa	#0x3039e,r4	
     e88:	01 00       	mova	@r0,	r1	
     e8a:	59 9e 03 a1 	cmp.b	-24317(r14),r9	;0xa103(r14)
     e8e:	03 06       	.word	0x0603;	????	Illegal as address instr
     e90:	00 7f       	subc	r15,	r0	
     e92:	00 79       	subc	r9,	r0	
     e94:	00 22       	jnz	$-1022   	;abs 0xa96
     e96:	9f a1 03 b2 	dadd	-19965(r1),1539(r15);0xb203(r1), 0x0603(r15)
     e9a:	03 06 
     e9c:	00 78       	subc	r8,	r0	
     e9e:	00 79       	subc	r9,	r0	
     ea0:	00 22       	jnz	$-1022   	;abs 0xaa2
     ea2:	9f b2 03 b5 	bit	&0xb503,2307(r15);0x0903(r15)
     ea6:	03 09 
     ea8:	00 78       	subc	r8,	r0	
     eaa:	00 79       	subc	r9,	r0	
     eac:	00 22       	jnz	$-1022   	;abs 0xaae
     eae:	7f 00 22 9f 	mova	r0,	-24798(r15);0x9f22(r15)
     eb2:	b5 03 ce 03 	suba	#0x303ce,r5	
     eb6:	09 00       	mova	@r0,	r9	
     eb8:	78 00 79 00 	mova	r0,	121(r8)	;0x0079(r8)
     ebc:	22 7a       	subc	@r10,	r2	
     ebe:	00 22       	jnz	$-1022   	;abs 0xac0
     ec0:	9f ce 03 d6 	bic	-10749(r14),259(r15);0xd603(r14), 0x0103(r15)
     ec4:	03 01 
     ec6:	00 5f       	add	r15,	r0	
     ec8:	00 00       	bra	@r0		
     eca:	00 00       	bra	@r0		
     ecc:	d6 03       	tsta	r6		
     ece:	d8 03       	tsta	r8		
     ed0:	02 00       	mova	@r0,	r2	
     ed2:	71 02 d8 03 	mova	r2,	984(r1)	;0x03d8(r1)
     ed6:	da 03       	tsta	r10		
     ed8:	02 00       	mova	@r0,	r2	
     eda:	71 04 da 03 	mova	r4,	986(r1)	;0x03da(r1)
     ede:	dc 03       	tsta	r12		
     ee0:	02 00       	mova	@r0,	r2	
     ee2:	71 06 dc 03 	mova	r6,	988(r1)	;0x03dc(r1)
     ee6:	de 03       	tsta	r14		
     ee8:	02 00       	mova	@r0,	r2	
     eea:	71 08 de 03 	mova	r8,	990(r1)	;0x03de(r1)
     eee:	78 04 02 00 	mova	r4,	2(r8)	;0x0002(r8)
     ef2:	71 0a 00 00 	mova	r10,	0(r1)	;0x0000(r1)
     ef6:	00 00       	bra	@r0		
     ef8:	d6 03       	tsta	r6		
     efa:	e7 03       	incda	r7		
     efc:	01 00       	mova	@r0,	r1	
     efe:	5f e7 03 36 	xor.b	13827(r7),r15	;0x3603(r7)
     f02:	04 01       	mova	@r1,	r4	
     f04:	00 5b       	add	r11,	r0	
     f06:	70 04 78 04 	mova	r4,	0x0478	;PC rel. 0x01380
     f0a:	01 00       	mova	@r0,	r1	
     f0c:	5b 00       	rrcm	#1,	r11	
     f0e:	00 00       	bra	@r0		
     f10:	00 d6       	bis	r6,	r0	
     f12:	03 e7       	.word	0xe703;	????	Illegal as 2-op instr
     f14:	03 01       	.word	0x0103;	????	Illegal as address instr
     f16:	00 5e       	add	r14,	r0	
     f18:	e7 03       	incda	r7		
     f1a:	56 04       	rrcm	#2,	r6	
     f1c:	01 00       	mova	@r0,	r1	
     f1e:	5a 70 04 78 	subc.b	0x7804,	r10	;PC rel. 0x08726
     f22:	04 01       	mova	@r1,	r4	
     f24:	00 5a       	add	r10,	r0	
     f26:	00 00       	bra	@r0		
     f28:	00 00       	bra	@r0		
     f2a:	d6 03       	tsta	r6		
     f2c:	e7 03       	incda	r7		
     f2e:	01 00       	mova	@r0,	r1	
     f30:	5d e7 03 22 	xor.b	8707(r7),r13	;0x2203(r7)
     f34:	04 01       	mova	@r1,	r4	
     f36:	00 59       	add	r9,	r0	
     f38:	22 04 50 04 	mova	&0x40450,r2	
     f3c:	03 00       	.word	0x0003;	????	Illegal as address instr
     f3e:	79 01 9f 70 	mova	r1,	28831(r9);0x709f(r9)
     f42:	04 72       	subc	r2,	r4	
     f44:	04 01       	mova	@r1,	r4	
     f46:	00 59       	add	r9,	r0	
     f48:	74 04 76 04 	mova	r4,	1142(r4);0x0476(r4)
     f4c:	03 00       	.word	0x0003;	????	Illegal as address instr
     f4e:	79 01 9f 00 	mova	r1,	159(r9)	;0x009f(r9)
     f52:	00 00       	bra	@r0		
     f54:	00 e4       	xor	r4,	r0	
     f56:	03 34       	jge	$+8      	;abs 0xf5e
     f58:	04 02       	mova	#4,	r4	;r2 As==10
     f5a:	00 30       	jn	$+2      	;abs 0xf5c
     f5c:	9f 34       	jge	$+320    	;abs 0x109c
     f5e:	04 38       	jl	$+10     	;abs 0xf68
     f60:	04 02       	mova	#4,	r4	;r2 As==10
     f62:	00 31       	jn	$+514    	;abs 0x1164
     f64:	9f 70 04 78 	subc	0x7804,	516(r15);PC rel. 0x0876c, 0x0204(r15)
     f68:	04 02 
     f6a:	00 30       	jn	$+2      	;abs 0xf6c
     f6c:	9f 00 00 00 	cmpa	#0x00000,r15	
     f70:	00 e4       	xor	r4,	r0	
     f72:	03 f6       	.word	0xf603;	????	Illegal as 2-op instr
     f74:	03 02       	.word	0x0203;	????	Illegal as address instr
     f76:	00 30       	jn	$+2      	;abs 0xf78
     f78:	9f f6 03 f8 	and	-2045(r6),259(r15);0xf803(r6), 0x0103(r15)
     f7c:	03 01 
     f7e:	00 5f       	add	r15,	r0	
     f80:	f8 03       	decda	r8		
     f82:	06 04       	mova	@r4,	r6	
     f84:	01 00       	mova	@r0,	r1	
     f86:	58 08       	rrcm	#3,	r8	
     f88:	04 1e       	.word	0x1e04;	????	
     f8a:	04 01       	mova	@r1,	r4	
     f8c:	00 58       	add	r8,	r0	
     f8e:	1e 04       	mova	@r4+,	r14	
     f90:	68 04 01 00 	mova	r4,	&0x80001
     f94:	58 70 04 78 	subc.b	0x7804,	r8	;PC rel. 0x0879c
     f98:	04 01       	mova	@r1,	r4	
     f9a:	00 58       	add	r8,	r0	
     f9c:	00 00       	bra	@r0		
     f9e:	00 00       	bra	@r0		
     fa0:	78 04 7a 04 	mova	r4,	1146(r8);0x047a(r8)
     fa4:	02 00       	mova	@r0,	r2	
     fa6:	71 02 7a 04 	mova	r2,	1146(r1);0x047a(r1)
     faa:	7c 04 02 00 	mova	r4,	2(r12)	;0x0002(r12)
     fae:	71 04 7c 04 	mova	r4,	1148(r1);0x047c(r1)
     fb2:	7e 04 02 00 	mova	r4,	2(r14)	;0x0002(r14)
     fb6:	71 06 7e 04 	mova	r6,	1150(r1);0x047e(r1)
     fba:	80 04 02 00 	bra	#0x40002	
     fbe:	71 08 80 04 	mova	r8,	1152(r1);0x0480(r1)
     fc2:	82 04 02 00 	mova	#0x40002,r2	
     fc6:	71 0a 82 04 	mova	r10,	1154(r1);0x0482(r1)
     fca:	0e 05       	mova	@r5,	r14	
     fcc:	02 00       	mova	@r0,	r2	
     fce:	71 0c 00 00 	mova	r12,	0(r1)	;0x0000(r1)
     fd2:	00 00       	bra	@r0		
     fd4:	78 04 89 04 	mova	r4,	1161(r8);0x0489(r8)
     fd8:	01 00       	mova	@r0,	r1	
     fda:	5f 89 04 e6 	sub.b	-6652(r9),r15	;0xe604(r9)
     fde:	04 01       	mova	@r1,	r4	
     fe0:	00 5b       	add	r11,	r0	
     fe2:	00 00       	bra	@r0		
     fe4:	00 00       	bra	@r0		
     fe6:	78 04 89 04 	mova	r4,	1161(r8);0x0489(r8)
     fea:	01 00       	mova	@r0,	r1	
     fec:	5e 89 04 0a 	sub.b	2564(r9),r14	;0x0a04(r9)
     ff0:	05 01       	mova	@r1,	r5	
     ff2:	00 5a       	add	r10,	r0	
     ff4:	00 00       	bra	@r0		
     ff6:	00 00       	bra	@r0		
     ff8:	86 04 98 04 	mova	#0x40498,r6	
     ffc:	02 00       	mova	@r0,	r2	
     ffe:	30 9f       	cmp	@r15+,	r0	
    1000:	98 04 a8 04 	cmpa	#0x404a8,r8	
    1004:	01 00       	mova	@r0,	r1	
    1006:	5f a8 04 b2 	dadd.b	-19964(r8),r15	;0xb204(r8)
    100a:	04 01       	mova	@r1,	r4	
    100c:	00 58       	add	r8,	r0	
    100e:	b2 04 c8 04 	suba	#0x404c8,r2	
    1012:	06 00       	mova	@r0,	r6	
    1014:	7f 00 78 00 	mova	r0,	120(r15);0x0078(r15)
    1018:	22 9f       	cmp	@r15,	r2	
    101a:	c8 04       	mova	r4,	r8	
    101c:	d2 04       	cmpa	r4,	r2	
    101e:	06 00       	mova	@r0,	r6	
    1020:	77 00 78 00 	mova	r0,	120(r7)	;0x0078(r7)
    1024:	22 9f       	cmp	@r15,	r2	
    1026:	d2 04       	cmpa	r4,	r2	
    1028:	d5 04       	cmpa	r4,	r5	
    102a:	09 00       	mova	@r0,	r9	
    102c:	77 00 78 00 	mova	r0,	120(r7)	;0x0078(r7)
    1030:	22 7f       	subc	@r15,	r2	
    1032:	00 22       	jnz	$-1022   	;abs 0xc34
    1034:	9f d5 04 e6 	bis	-6652(r5),2308(r15);0xe604(r5), 0x0904(r15)
    1038:	04 09 
    103a:	00 77       	subc	r7,	r0	
    103c:	00 78       	subc	r8,	r0	
    103e:	00 22       	jnz	$-1022   	;abs 0xc40
    1040:	79 00 22 9f 	mova	r0,	-24798(r9);0x9f22(r9)
    1044:	e6 04       	adda	r4,	r6	
    1046:	e9 04       	adda	r4,	r9	
    1048:	0c 00       	mova	@r0,	r12	
    104a:	77 00 78 00 	mova	r0,	120(r7)	;0x0078(r7)
    104e:	22 79       	subc	@r9,	r2	
    1050:	00 22       	jnz	$-1022   	;abs 0xc52
    1052:	7f 00 22 9f 	mova	r0,	-24798(r15);0x9f22(r15)
    1056:	e9 04       	adda	r4,	r9	
    1058:	04 05       	mova	@r5,	r4	
    105a:	0c 00       	mova	@r0,	r12	
    105c:	77 00 78 00 	mova	r0,	120(r7)	;0x0078(r7)
    1060:	22 79       	subc	@r9,	r2	
    1062:	00 22       	jnz	$-1022   	;abs 0xc64
    1064:	7b 00 22 9f 	mova	r0,	-24798(r11);0x9f22(r11)
    1068:	04 05       	mova	@r5,	r4	
    106a:	0e 05       	mova	@r5,	r14	
    106c:	01 00       	mova	@r0,	r1	
    106e:	5f 00       	rrcm	#1,	r15	
    1070:	00 00       	bra	@r0		
    1072:	00 0e       	bra	@r14		
    1074:	05 10       	rrc	r5		
    1076:	05 02       	mova	#4,	r5	;r2 As==10
    1078:	00 71       	subc	r1,	r0	
    107a:	02 10       	rrc	r2		
    107c:	05 12       	push	r5		
    107e:	05 02       	mova	#4,	r5	;r2 As==10
    1080:	00 71       	subc	r1,	r0	
    1082:	04 12       	push	r4		
    1084:	05 14       	pushm.a	#1,	r5	
    1086:	05 02       	mova	#4,	r5	;r2 As==10
    1088:	00 71       	subc	r1,	r0	
    108a:	06 14       	pushm.a	#1,	r6	
    108c:	05 16       	popm.a	#1,	r5	
    108e:	05 02       	mova	#4,	r5	;r2 As==10
    1090:	00 71       	subc	r1,	r0	
    1092:	08 16       	popm.a	#1,	r8	
    1094:	05 de       	bis	r14,	r5	
    1096:	05 02       	mova	#4,	r5	;r2 As==10
    1098:	00 71       	subc	r1,	r0	
    109a:	0a 00       	mova	@r0,	r10	
    109c:	00 00       	bra	@r0		
    109e:	00 0e       	bra	@r14		
    10a0:	05 1f       	.word	0x1f05;	????	
    10a2:	05 01       	mova	@r1,	r5	
    10a4:	00 5f       	add	r15,	r0	
    10a6:	1f 05       	mova	@r5+,	r15	
    10a8:	9c 05 01 00 	cmpa	#0x50001,r12	
    10ac:	5b d6 05 de 	bis.b	-8699(r6),r11	;0xde05(r6)
    10b0:	05 01       	mova	@r1,	r5	
    10b2:	00 5b       	add	r11,	r0	
    10b4:	00 00       	bra	@r0		
    10b6:	00 00       	bra	@r0		
    10b8:	0e 05       	mova	@r5,	r14	
    10ba:	1f 05       	mova	@r5+,	r15	
    10bc:	01 00       	mova	@r0,	r1	
    10be:	5e 1f 05 bc 	.rpt	#14
				bitx	r12,	r5	
    10c2:	05 01       	mova	@r1,	r5	
    10c4:	00 5a       	add	r10,	r0	
    10c6:	d6 05       	cmpa	r5,	r6	
    10c8:	de 05       	cmpa	r5,	r14	
    10ca:	01 00       	mova	@r0,	r1	
    10cc:	5a 00       	rrcm	#1,	r10	
    10ce:	00 00       	bra	@r0		
    10d0:	00 0e       	bra	@r14		
    10d2:	05 1f       	.word	0x1f05;	????	
    10d4:	05 01       	mova	@r1,	r5	
    10d6:	00 5d       	add	r13,	r0	
    10d8:	1f 05       	mova	@r5+,	r15	
    10da:	88 05 01 00 	mova	#0x50001,r8	
    10de:	59 88 05 b6 	sub.b	-18939(r8),r9	;0xb605(r8)
    10e2:	05 03       	mova	#2,	r5	;r3 As==10
    10e4:	00 79       	subc	r9,	r0	
    10e6:	01 9f       	cmp	r15,	r1	
    10e8:	d6 05       	cmpa	r5,	r6	
    10ea:	d8 05       	cmpa	r5,	r8	
    10ec:	01 00       	mova	@r0,	r1	
    10ee:	59 da 05 dc 	bis.b	-9211(r10),r9	;0xdc05(r10)
    10f2:	05 03       	mova	#2,	r5	;r3 As==10
    10f4:	00 79       	subc	r9,	r0	
    10f6:	01 9f       	cmp	r15,	r1	
    10f8:	00 00       	bra	@r0		
    10fa:	00 00       	bra	@r0		
    10fc:	1c 05       	mova	@r5+,	r12	
    10fe:	9a 05 02 00 	cmpa	#0x50002,r10	
    1102:	30 9f       	cmp	@r15+,	r0	
    1104:	9a 05 9e 05 	cmpa	#0x5059e,r10	
    1108:	02 00       	mova	@r0,	r2	
    110a:	31 9f       	cmp	@r15+,	r1	
    110c:	d6 05       	cmpa	r5,	r6	
    110e:	de 05       	cmpa	r5,	r14	
    1110:	02 00       	mova	@r0,	r2	
    1112:	30 9f       	cmp	@r15+,	r0	
    1114:	00 00       	bra	@r0		
    1116:	00 00       	bra	@r0		
    1118:	1c 05       	mova	@r5+,	r12	
    111a:	2e 05 02 00 	mova	&0x50002,r14	
    111e:	30 9f       	cmp	@r15+,	r0	
    1120:	2e 05 3e 05 	mova	&0x5053e,r14	
    1124:	01 00       	mova	@r0,	r1	
    1126:	5f 3e       	jmp	$-832    	;abs 0xde6
    1128:	05 4c       	mov	r12,	r5	
    112a:	05 01       	mova	@r1,	r5	
    112c:	00 58       	add	r8,	r0	
    112e:	4e 05       	rram.a	#2,	r14	
    1130:	6e 05 01 00 	mova	r5,	&0xe0001
    1134:	58 6e 05 84 	addc.b	-31739(r14),r8	;0x8405(r14)
    1138:	05 01       	mova	@r1,	r5	
    113a:	00 58       	add	r8,	r0	
    113c:	84 05 ce 05 	mova	#0x505ce,r4	
    1140:	01 00       	mova	@r0,	r1	
    1142:	58 d6 05 de 	bis.b	-8699(r6),r8	;0xde05(r6)
    1146:	05 01       	mova	@r1,	r5	
    1148:	00 58       	add	r8,	r0	
    114a:	00 00       	bra	@r0		
    114c:	00 00       	bra	@r0		
    114e:	12 00       	mova	#0x00000,r2	
    1150:	1a 00       	mova	#0x00000,r10	
    1152:	01 00       	mova	@r0,	r1	
    1154:	5f 1a       	.word	0x1a5f;	????	
    1156:	00 1d       	.word	0x1d00;	????	
    1158:	00 01       	bra	@r1		
    115a:	00 5e       	add	r14,	r0	
    115c:	00 00       	bra	@r0		
    115e:	00 00       	bra	@r0		
    1160:	12 00       	mova	#0x00000,r2	
    1162:	16 00       	mova	#0x00000,r6	
    1164:	01 00       	mova	@r0,	r1	
    1166:	5e 16       	popm.a	#6,	#0	;r3 As==00
    1168:	00 1d       	.word	0x1d00;	????	
    116a:	00 01       	bra	@r1		
    116c:	00 5d       	add	r13,	r0	
    116e:	00 00       	bra	@r0		
    1170:	00 00       	bra	@r0		
    1172:	00 00       	bra	@r0		
    1174:	02 00       	mova	@r0,	r2	
    1176:	02 00       	mova	@r0,	r2	
    1178:	71 02 02 00 	mova	r2,	2(r1)	;0x0002(r1)
    117c:	04 00       	mova	@r0,	r4	
    117e:	02 00       	mova	@r0,	r2	
    1180:	71 04 04 00 	mova	r4,	4(r1)	;0x0004(r1)
    1184:	06 00       	mova	@r0,	r6	
    1186:	02 00       	mova	@r0,	r2	
    1188:	71 06 06 00 	mova	r6,	6(r1)	;0x0006(r1)
    118c:	08 00       	mova	@r0,	r8	
    118e:	02 00       	mova	@r0,	r2	
    1190:	71 08 08 00 	mova	r8,	8(r1)	;0x0008(r1)
    1194:	0a 00       	mova	@r0,	r10	
    1196:	02 00       	mova	@r0,	r2	
    1198:	71 0a 0a 00 	mova	r10,	10(r1)	;0x000a(r1)
    119c:	0c 00       	mova	@r0,	r12	
    119e:	02 00       	mova	@r0,	r2	
    11a0:	71 0c 0c 00 	mova	r12,	12(r1)	;0x000c(r1)
    11a4:	0e 00       	mova	@r0,	r14	
    11a6:	02 00       	mova	@r0,	r2	
    11a8:	71 0e 0e 00 	mova	r14,	14(r1)	;0x000e(r1)
    11ac:	10 00       	bra	#0x00000	
    11ae:	02 00       	mova	@r0,	r2	
    11b0:	71 10       	rrc.b	@r1+		
    11b2:	10 00       	bra	#0x00000	
    11b4:	12 00       	mova	#0x00000,r2	
    11b6:	02 00       	mova	@r0,	r2	
    11b8:	71 12       	push.b	@r1+		
    11ba:	12 00       	mova	#0x00000,r2	
    11bc:	04 01       	mova	@r1,	r4	
    11be:	02 00       	mova	@r0,	r2	
    11c0:	71 14       	pushm.a	#8,	r1	
    11c2:	00 00       	bra	@r0		
    11c4:	00 00       	bra	@r0		
    11c6:	00 00       	bra	@r0		
    11c8:	1a 00       	mova	#0x00000,r10	
    11ca:	01 00       	mova	@r0,	r1	
    11cc:	5f 1a       	.word	0x1a5f;	????	
    11ce:	00 00       	bra	@r0		
    11d0:	01 01       	mova	@r1,	r1	
    11d2:	00 5a       	add	r10,	r0	
    11d4:	00 00       	bra	@r0		
    11d6:	00 00       	bra	@r0		
    11d8:	00 00       	bra	@r0		
    11da:	22 00 01 00 	mova	&0x00001,r2	
    11de:	5e 22       	jnz	$-834    	;abs 0xe9c
    11e0:	00 d8       	bis	r8,	r0	
    11e2:	00 01       	bra	@r1		
    11e4:	00 58       	add	r8,	r0	
    11e6:	d8 00       	cmpa	r0,	r8	
    11e8:	fc 00       	suba	r0,	r12	
    11ea:	01 00       	mova	@r0,	r1	
    11ec:	58 00       	rrcm	#1,	r8	
    11ee:	00 00       	bra	@r0		
    11f0:	00 00       	bra	@r0		
    11f2:	00 20       	jnz	$+2      	;abs 0x11f4
    11f4:	00 01       	bra	@r1		
    11f6:	00 5d       	add	r13,	r0	
    11f8:	20 00 74 00 	bra	&0x00074	
    11fc:	01 00       	mova	@r0,	r1	
    11fe:	57 74 00 78 	subc.b	30720(r4),r7	;0x7800(r4)
    1202:	00 01       	bra	@r1		
    1204:	00 57       	add	r7,	r0	
    1206:	78 00 fa 00 	mova	r0,	250(r8)	;0x00fa(r8)
    120a:	01 00       	mova	@r0,	r1	
    120c:	57 00       	rrcm	#1,	r7	
    120e:	00 00       	bra	@r0		
    1210:	00 00       	bra	@r0		
    1212:	00 1c       	.word	0x1c00;	????	
    1214:	00 01       	bra	@r1		
    1216:	00 5c       	add	r12,	r0	
    1218:	00 00       	bra	@r0		
    121a:	00 00       	bra	@r0		
    121c:	1e 00       	mova	#0x00000,r14	
    121e:	a4 00 02 00 	adda	#0x00002,r4	
    1222:	30 9f       	cmp	@r15+,	r0	
    1224:	a4 00 ac 00 	adda	#0x000ac,r4	
    1228:	01 00       	mova	@r0,	r1	
    122a:	5b ac 00 ae 	dadd.b	-20992(r12),r11	;0xae00(r12)
    122e:	00 01       	bra	@r1		
    1230:	00 5b       	add	r11,	r0	
    1232:	ae 00 b4 00 	adda	#0x000b4,r14	
    1236:	01 00       	mova	@r0,	r1	
    1238:	5b b4 00 b8 	bit.b	-18432(r4),r11	;0xb800(r4)
    123c:	00 02       	bra	#4		;r2 As==10
    123e:	00 30       	jn	$+2      	;abs 0x1240
    1240:	9f bc 00 be 	bit	-16896(r12),256(r15);0xbe00(r12), 0x0100(r15)
    1244:	00 01 
    1246:	00 5b       	add	r11,	r0	
    1248:	be 00 c6 00 	suba	#0x000c6,r14	
    124c:	01 00       	mova	@r0,	r1	
    124e:	5b c6 00 da 	bic.b	-9728(r6),r11	;0xda00(r6)
    1252:	00 01       	bra	@r1		
    1254:	00 5b       	add	r11,	r0	
    1256:	da 00       	cmpa	r0,	r10	
    1258:	ea 00       	adda	r0,	r10	
    125a:	01 00       	mova	@r0,	r1	
    125c:	5b ea 00 02 	xor.b	512(r10),r11	;0x0200(r10)
    1260:	01 01       	mova	@r1,	r1	
    1262:	00 5b       	add	r11,	r0	
    1264:	02 01       	mova	@r1,	r2	
    1266:	04 01       	mova	@r1,	r4	
    1268:	01 00       	mova	@r0,	r1	
    126a:	5f 00       	rrcm	#1,	r15	
    126c:	00 00       	bra	@r0		
    126e:	00 1e 00 82 	subx	r2,	r0	
    1272:	00 02       	bra	#4		;r2 As==10
    1274:	00 30       	jn	$+2      	;abs 0x1276
    1276:	9f 82 00 8c 	sub	&0x8c00,256(r15);0x0100(r15)
    127a:	00 01 
    127c:	00 59       	add	r9,	r0	
    127e:	8c 00 8e 00 	mova	#0x0008e,r12	
    1282:	01 00       	mova	@r0,	r1	
    1284:	59 8e 00 9a 	sub.b	-26112(r14),r9	;0x9a00(r14)
    1288:	00 01       	bra	@r1		
    128a:	00 59       	add	r9,	r0	
    128c:	9a 00 a4 00 	cmpa	#0x000a4,r10	
    1290:	02 00       	mova	@r0,	r2	
    1292:	30 9f       	cmp	@r15+,	r0	
    1294:	a4 00 ae 00 	adda	#0x000ae,r4	
    1298:	01 00       	mova	@r0,	r1	
    129a:	59 ae 00 b4 	dadd.b	-19456(r14),r9	;0xb400(r14)
    129e:	00 01       	bra	@r1		
    12a0:	00 59       	add	r9,	r0	
    12a2:	b4 00 b8 00 	suba	#0x000b8,r4	
    12a6:	02 00       	mova	@r0,	r2	
    12a8:	30 9f       	cmp	@r15+,	r0	
    12aa:	00 00       	bra	@r0		
    12ac:	00 00       	bra	@r0		
    12ae:	1e 00       	mova	#0x00000,r14	
    12b0:	f2 00       	suba	r0,	r2	
    12b2:	01 00       	mova	@r0,	r1	
    12b4:	51 f2 00 04 	and.b	&0x0400,r1	
    12b8:	01 03       	mova	#2,	r1	;r3 As==10
    12ba:	00 91       	cmp	r1,	r0	
    12bc:	6c 9f       	cmp.b	@r15,	r12	
    12be:	00 00       	bra	@r0		
    12c0:	00 00       	bra	@r0		
    12c2:	1e 00       	mova	#0x00000,r14	
    12c4:	2e 00 01 00 	mova	&0x00001,r14	
    12c8:	51 2e       	jc	$-860    	;abs 0xf6c
    12ca:	00 42       	br	r2		
    12cc:	00 03       	bra	#2		;r3 As==10
    12ce:	00 91       	cmp	r1,	r0	
    12d0:	6d 9f       	cmp.b	@r15,	r13	
    12d2:	42 00       	rrcm.a	#1,	r2	
    12d4:	48 00       	rrcm.a	#1,	r8	
    12d6:	03 00       	.word	0x0003;	????	Illegal as address instr
    12d8:	91 6e 9f 48 	addc	18591(r14),20480(r1);0x489f(r14), 0x5000(r1)
    12dc:	00 50 
    12de:	00 01       	bra	@r1		
    12e0:	00 51       	add	r1,	r0	
    12e2:	50 00       	rrcm	#1,	r0	
    12e4:	56 00       	rrcm	#1,	r6	
    12e6:	03 00       	.word	0x0003;	????	Illegal as address instr
    12e8:	91 6d 9f 56 	addc	22175(r13),22528(r1);0x569f(r13), 0x5800(r1)
    12ec:	00 58 
    12ee:	00 01       	bra	@r1		
    12f0:	00 51       	add	r1,	r0	
    12f2:	58 00       	rrcm	#1,	r8	
    12f4:	5a 00       	rrcm	#1,	r10	
    12f6:	01 00       	mova	@r0,	r1	
    12f8:	56 00       	rrcm	#1,	r6	
    12fa:	00 00       	bra	@r0		
    12fc:	00 5e       	add	r14,	r0	
    12fe:	00 a4       	dadd	r4,	r0	
    1300:	00 03       	bra	#2		;r3 As==10
    1302:	00 08       	bra	@r8		
    1304:	20 9f       	cmp	@r15,	r0	
    1306:	a4 00 ae 00 	adda	#0x000ae,r4	
    130a:	01 00       	mova	@r0,	r1	
    130c:	54 ae 00 b4 	dadd.b	-19456(r14),r4	;0xb400(r14)
    1310:	00 01       	bra	@r1		
    1312:	00 54       	add	r4,	r0	
    1314:	00 00       	bra	@r0		
    1316:	00 00       	bra	@r0		
    1318:	6e 00 ae 00 	mova	r0,	&0xe00ae
    131c:	01 00       	mova	@r0,	r1	
    131e:	55 ae 00 b4 	dadd.b	-19456(r14),r5	;0xb400(r14)
    1322:	00 01       	bra	@r1		
    1324:	00 55       	add	r5,	r0	
    1326:	00 00       	bra	@r0		
    1328:	00 00       	bra	@r0		
    132a:	0c 01       	mova	@r1,	r12	
    132c:	0e 01       	mova	@r1,	r14	
    132e:	02 00       	mova	@r0,	r2	
    1330:	71 02 0e 01 	mova	r2,	270(r1)	;0x010e(r1)
    1334:	10 01       	reta			
    1336:	02 00       	mova	@r0,	r2	
    1338:	71 04 10 01 	mova	r4,	272(r1)	;0x0110(r1)
    133c:	12 01       	mova	@r1+,	r2	
    133e:	02 00       	mova	@r0,	r2	
    1340:	71 06 12 01 	mova	r6,	274(r1)	;0x0112(r1)
    1344:	14 01       	mova	@r1+,	r4	
    1346:	02 00       	mova	@r0,	r2	
    1348:	71 08 14 01 	mova	r8,	276(r1)	;0x0114(r1)
    134c:	16 01       	mova	@r1+,	r6	
    134e:	02 00       	mova	@r0,	r2	
    1350:	71 0a 16 01 	mova	r10,	278(r1)	;0x0116(r1)
    1354:	18 01       	mova	@r1+,	r8	
    1356:	02 00       	mova	@r0,	r2	
    1358:	71 0c 18 01 	mova	r12,	280(r1)	;0x0118(r1)
    135c:	1a 01       	mova	@r1+,	r10	
    135e:	02 00       	mova	@r0,	r2	
    1360:	71 0e 1a 01 	mova	r14,	282(r1)	;0x011a(r1)
    1364:	1c 01       	mova	@r1+,	r12	
    1366:	02 00       	mova	@r0,	r2	
    1368:	71 10       	rrc.b	@r1+		
    136a:	1c 01       	mova	@r1+,	r12	
    136c:	20 01 02 00 	bra	&0x10002	
    1370:	71 12       	push.b	@r1+		
    1372:	20 01 76 04 	bra	&0x10476	
    1376:	02 00       	mova	@r0,	r2	
    1378:	71 34       	jge	$+228    	;abs 0x145c
    137a:	00 00       	bra	@r0		
    137c:	00 00       	bra	@r0		
    137e:	0c 01       	mova	@r1,	r12	
    1380:	3c 01 01 00 	mova	1(r1),	r12	;0x0001(r1)
    1384:	5f 3c       	jmp	$+192    	;abs 0x1444
    1386:	01 76       	subc	r6,	r1	
    1388:	04 02       	mova	#4,	r4	;r2 As==10
    138a:	00 91       	cmp	r1,	r0	
    138c:	64 00 00 00 	mova	r0,	&0x40000
    1390:	00 0c       	bra	@r12		
    1392:	01 3c       	jmp	$+4      	;abs 0x1396
    1394:	01 01       	mova	@r1,	r1	
    1396:	00 5e       	add	r14,	r0	
    1398:	3c 01 60 01 	mova	352(r1),r12	;0x0160(r1)
    139c:	01 00       	mova	@r0,	r1	
    139e:	5f 60 01 76 	addc.b	0x7601,	r15	;PC rel. 0x089a3
    13a2:	04 02       	mova	#4,	r4	;r2 As==10
    13a4:	00 91       	cmp	r1,	r0	
    13a6:	66 00 00 00 	mova	r0,	&0x60000
    13aa:	00 0c       	bra	@r12		
    13ac:	01 3c       	jmp	$+4      	;abs 0x13b0
    13ae:	01 01       	mova	@r1,	r1	
    13b0:	00 5d       	add	r13,	r0	
    13b2:	3c 01 34 02 	mova	564(r1),r12	;0x0234(r1)
    13b6:	02 00       	mova	@r0,	r2	
    13b8:	91 5a 34 02 	add	564(r10),602(r1)	;0x0234(r10), 0x025a(r1)
    13bc:	5a 02 
    13be:	01 00       	mova	@r0,	r1	
    13c0:	5c 5a 02 a2 	add.b	-24062(r10),r12	;0xa202(r10)
    13c4:	02 02       	mova	#4,	r2	;r2 As==10
    13c6:	00 91       	cmp	r1,	r0	
    13c8:	5a a2 02 b0 	dadd.b	&0xb002,r10	
    13cc:	02 06       	mova	@r6,	r2	
    13ce:	00 91       	cmp	r1,	r0	
    13d0:	5a 06       	rlam	#2,	r10	
    13d2:	23 02       	.word	0x0223;	????	Illegal as address instr
    13d4:	9f b0 02 b6 	bit	0xb602,	514(r15);PC rel. 0xfc9da, 0x0202(r15)
    13d8:	02 02 
    13da:	00 91       	cmp	r1,	r0	
    13dc:	5a b6 02 dc 	bit.b	-9214(r6),r10	;0xdc02(r6)
    13e0:	02 01       	mova	@r1,	r2	
    13e2:	00 5b       	add	r11,	r0	
    13e4:	dc 02       	cmpa	r2,	r12	
    13e6:	0a 03       	mova	#2,	r10	;r3 As==10
    13e8:	06 00       	mova	@r0,	r6	
    13ea:	91 5a 06 23 	add	8966(r10),-24830(r1);0x2306(r10), 0x9f02(r1)
    13ee:	02 9f 
    13f0:	0a 03       	mova	#2,	r10	;r3 As==10
    13f2:	28 03 02 00 	mova	&0x30002,r8	
    13f6:	91 5a 28 03 	add	808(r10),826(r1)	;0x0328(r10), 0x033a(r1)
    13fa:	3a 03 
    13fc:	06 00       	mova	@r0,	r6	
    13fe:	91 5a 06 23 	add	8966(r10),-24828(r1);0x2306(r10), 0x9f04(r1)
    1402:	04 9f 
    1404:	3a 03 46 03 	mova	#1,	r10	;r3 As==01
    1408:	02 00       	mova	@r0,	r2	
    140a:	91 5a 46 03 	add	838(r10),856(r1)	;0x0346(r10), 0x0358(r1)
    140e:	58 03 
    1410:	01 00       	mova	@r0,	r1	
    1412:	5a 58 03 64 	add.b	25603(r8),r10	;0x6403(r8)
    1416:	03 01       	.word	0x0103;	????	Illegal as address instr
    1418:	00 5a       	add	r10,	r0	
    141a:	64 03 76 04 	mova	#0,	&0x40476;r3 As==00
    141e:	02 00       	mova	@r0,	r2	
    1420:	91 5a 00 00 	add	0(r10),	0(r1)	;0x0000(r10), 0x0000(r1)
    1424:	00 00 
    1426:	2c 01 3c 01 	mova	&0x1013c,r12	
    142a:	02 00       	mova	@r0,	r2	
    142c:	30 9f       	cmp	@r15+,	r0	
    142e:	3c 01 4e 04 	mova	1102(r1),r12	;0x044e(r1)
    1432:	02 00       	mova	@r0,	r2	
    1434:	91 5e 4e 04 	add	1102(r14),1142(r1);0x044e(r14), 0x0476(r1)
    1438:	76 04 
    143a:	02 00       	mova	@r0,	r2	
    143c:	91 5e 00 00 	add	0(r14),	0(r1)	;0x0000(r14), 0x0000(r1)
    1440:	00 00 
    1442:	2c 01 3c 01 	mova	&0x1013c,r12	
    1446:	02 00       	mova	@r0,	r2	
    1448:	30 9f       	cmp	@r15+,	r0	
    144a:	3c 01 4e 01 	mova	334(r1),r12	;0x014e(r1)
    144e:	01 00       	mova	@r0,	r1	
    1450:	5a 4e 01 56 	mov.b	22017(r14),r10	;0x5601(r14)
    1454:	01 02       	mova	#4,	r1	;r2 As==10
    1456:	00 31       	jn	$+514    	;abs 0x1658
    1458:	9f 56 01 66 	add	26113(r6),258(r15);0x6601(r6), 0x0102(r15)
    145c:	02 01 
    145e:	00 5a       	add	r10,	r0	
    1460:	a2 02 d6 02 	adda	#0x202d6,r2	
    1464:	01 00       	mova	@r0,	r1	
    1466:	5a d6 02 dc 	bis.b	-9214(r6),r10	;0xdc02(r6)
    146a:	02 02       	mova	#4,	r2	;r2 As==10
    146c:	00 30       	jn	$+2      	;abs 0x146e
    146e:	9f dc 02 40 	bis	16386(r12),259(r15);0x4002(r12), 0x0103(r15)
    1472:	03 01 
    1474:	00 5a       	add	r10,	r0	
    1476:	36 04 38 04 	mova	1080(r4),r6	;0x0438(r4)
    147a:	02 00       	mova	@r0,	r2	
    147c:	30 9f       	cmp	@r15+,	r0	
    147e:	38 04 44 04 	mova	1092(r4),r8	;0x0444(r4)
    1482:	01 00       	mova	@r0,	r1	
    1484:	5a 44 04 48 	mov.b	18436(r4),r10	;0x4804(r4)
    1488:	04 02       	mova	#4,	r4	;r2 As==10
    148a:	00 30       	jn	$+2      	;abs 0x148c
    148c:	9f 4a 04 4e 	mov	19972(r10),260(r15);0x4e04(r10), 0x0104(r15)
    1490:	04 01 
    1492:	00 5a       	add	r10,	r0	
    1494:	4e 04       	rrcm.a	#2,	r14	
    1496:	72 04 01 00 	mova	r4,	&0x0001	
    149a:	5a 00       	rrcm	#1,	r10	
    149c:	00 00       	bra	@r0		
    149e:	00 2c       	jc	$+2      	;abs 0x14a0
    14a0:	01 3c       	jmp	$+4      	;abs 0x14a4
    14a2:	01 02       	mova	#4,	r1	;r2 As==10
    14a4:	00 30       	jn	$+2      	;abs 0x14a6
    14a6:	9f 3c       	jmp	$+320    	;abs 0x15e6
    14a8:	01 4a       	mov	r10,	r1	
    14aa:	01 02       	mova	#4,	r1	;r2 As==10
    14ac:	00 91       	cmp	r1,	r0	
    14ae:	5c 4a 01 56 	mov.b	22017(r10),r12	;0x5601(r10)
    14b2:	01 02       	mova	#4,	r1	;r2 As==10
    14b4:	00 30       	jn	$+2      	;abs 0x14b6
    14b6:	9f 56 01 42 	add	16897(r6),514(r15);0x4201(r6), 0x0202(r15)
    14ba:	02 02 
    14bc:	00 91       	cmp	r1,	r0	
    14be:	5c 42 02 44 	mov.b	&0x4402,r12	
    14c2:	02 03       	mova	#2,	r2	;r3 As==10
    14c4:	00 91       	cmp	r1,	r0	
    14c6:	5a 06       	rlam	#2,	r10	
    14c8:	44 02       	rlam.a	#1,	r4	
    14ca:	92 02 02 00 	cmpa	#0x20002,r2	
    14ce:	91 5c 92 02 	add	658(r12),672(r1)	;0x0292(r12), 0x02a0(r1)
    14d2:	a0 02 
    14d4:	01 00       	mova	@r0,	r1	
    14d6:	5b a0 02 48 	dadd.b	0x4802,	r11	;PC rel. 0x05cdc
    14da:	04 02       	mova	#4,	r4	;r2 As==10
    14dc:	00 91       	cmp	r1,	r0	
    14de:	5c 4a 04 4e 	mov.b	19972(r10),r12	;0x4e04(r10)
    14e2:	04 02       	mova	#4,	r4	;r2 As==10
    14e4:	00 91       	cmp	r1,	r0	
    14e6:	5c 4e 04 76 	mov.b	30212(r14),r12	;0x7604(r14)
    14ea:	04 02       	mova	#4,	r4	;r2 As==10
    14ec:	00 91       	cmp	r1,	r0	
    14ee:	5c 00       	rrcm	#1,	r12	
    14f0:	00 00       	bra	@r0		
    14f2:	00 bc       	bit	r12,	r0	
    14f4:	02 d1       	bis	r1,	r2	
    14f6:	02 03       	mova	#2,	r2	;r3 As==10
    14f8:	00 91       	cmp	r1,	r0	
    14fa:	5a 06       	rlam	#2,	r10	
    14fc:	9a 03 9e 03 	cmpa	#0x3039e,r10	
    1500:	03 00       	.word	0x0003;	????	Illegal as address instr
    1502:	91 59 9f 9e 	add	-24929(r9),-17405(r1);0x9e9f(r9), 0xbc03(r1)
    1506:	03 bc 
    1508:	03 03       	.word	0x0303;	????	Illegal as address instr
    150a:	00 91       	cmp	r1,	r0	
    150c:	58 9f c4 03 	cmp.b	964(r15),r8	;0x03c4(r15)
    1510:	d6 03       	tsta	r6		
    1512:	01 00       	mova	@r0,	r1	
    1514:	5f d6 03 e2 	bis.b	-7677(r6),r15	;0xe203(r6)
    1518:	03 02       	.word	0x0203;	????	Illegal as address instr
    151a:	00 91       	cmp	r1,	r0	
    151c:	6c e2       	xor.b	#4,	r12	;r2 As==10
    151e:	03 e4       	.word	0xe403;	????	Illegal as 2-op instr
    1520:	03 01       	.word	0x0103;	????	Illegal as address instr
    1522:	00 57       	add	r7,	r0	
    1524:	e4 03       	incda	r4		
    1526:	fa 03       	decda	r10		
    1528:	02 00       	mova	@r0,	r2	
    152a:	91 6c 00 00 	addc	0(r12),	0(r1)	;0x0000(r12), 0x0000(r1)
    152e:	00 00 
    1530:	3c 01 3a 02 	mova	570(r1),r12	;0x023a(r1)
    1534:	01 00       	mova	@r0,	r1	
    1536:	5e 3a       	jl	$-834    	;abs 0x11f4
    1538:	02 a8       	dadd	r8,	r2	
    153a:	02 03       	mova	#2,	r2	;r3 As==10
    153c:	00 91       	cmp	r1,	r0	
    153e:	66 06 a8 02 	mova	r6,	&0x602a8
    1542:	b0 02 03 00 	suba	#0x20003,r0	
    1546:	91 5a 06 b0 	add	-20474(r10),-12030(r1);0xb006(r10), 0xd102(r1)
    154a:	02 d1 
    154c:	02 03       	mova	#2,	r2	;r3 As==10
    154e:	00 91       	cmp	r1,	r0	
    1550:	66 06 dc 02 	mova	r6,	&0x602dc
    1554:	bc 03 01 00 	suba	#0x30001,r12	
    1558:	5e bc 03 31 	bit.b	12547(r12),r14	;0x3103(r12)
    155c:	04 03       	mova	#2,	r4	;r3 As==10
    155e:	00 91       	cmp	r1,	r0	
    1560:	66 06 38 04 	mova	r6,	&0x60438
    1564:	3a 04 01 00 	mova	1(r4),	r10	;0x0001(r4)
    1568:	5e 48 04 4a 	mov.b	18948(r8),r14	;0x4a04(r8)
    156c:	04 03       	mova	#2,	r4	;r3 As==10
    156e:	00 91       	cmp	r1,	r0	
    1570:	66 06 54 04 	mova	r6,	&0x60454
    1574:	76 04 03 00 	mova	r4,	3(r6)	;0x0003(r6)
    1578:	91 66 06 00 	addc	6(r6),	0(r1)	;0x0006(r6), 0x0000(r1)
    157c:	00 00 
    157e:	00 00       	bra	@r0		
    1580:	03 0a       	.word	0x0a03;	????	Illegal as address instr
    1582:	03 02       	.word	0x0203;	????	Illegal as address instr
    1584:	00 40       	br	r0		
    1586:	9f 20       	jnz	$+320    	;abs 0x16c6
    1588:	03 6a       	.word	0x6a03;	????	Illegal as 2-op instr
    158a:	03 01       	.word	0x0103;	????	Illegal as address instr
    158c:	00 54       	add	r4,	r0	
    158e:	00 00       	bra	@r0		
    1590:	00 00       	bra	@r0		
    1592:	f4 02       	suba	r2,	r4	
    1594:	00 03       	bra	#2		;r3 As==10
    1596:	02 00       	mova	@r0,	r2	
    1598:	91 60 00 03 	addc	0x0300,	778(r1)	;PC rel. 0x0189c, 0x030a(r1)
    159c:	0a 03 
    159e:	06 00       	mova	@r0,	r6	
    15a0:	55 93       	cmp.b	#1,	r5	;r3 As==01
    15a2:	02 56       	add	r6,	r2	
    15a4:	93 02       	.word	0x0293;	????	Illegal as address instr
    15a6:	32 03 3a 03 	mova	#1,	r2	;r3 As==01
    15aa:	03 00       	.word	0x0003;	????	Illegal as address instr
    15ac:	91 5a 06 56 	add	22022(r10),22531(r1);0x5606(r10), 0x5803(r1)
    15b0:	03 58 
    15b2:	03 06       	.word	0x0603;	????	Illegal as address instr
    15b4:	00 55       	add	r5,	r0	
    15b6:	93 02       	.word	0x0293;	????	Illegal as address instr
    15b8:	56 93       	cmp.b	#1,	r6	;r3 As==01
    15ba:	02 60       	addc	r0,	r2	
    15bc:	03 96       	.word	0x9603;	????	Illegal as 2-op instr
    15be:	03 06       	.word	0x0603;	????	Illegal as address instr
    15c0:	00 55       	add	r5,	r0	
    15c2:	93 02       	.word	0x0293;	????	Illegal as address instr
    15c4:	56 93       	cmp.b	#1,	r6	;r3 As==01
    15c6:	02 9a       	cmp	r10,	r2	
    15c8:	03 0c       	.word	0x0c03;	????	Illegal as address instr
    15ca:	04 06       	mova	@r6,	r4	
    15cc:	00 55       	add	r5,	r0	
    15ce:	93 02       	.word	0x0293;	????	Illegal as address instr
    15d0:	56 93       	cmp.b	#1,	r6	;r3 As==01
    15d2:	02 0c       	mova	@r12,	r2	
    15d4:	04 22       	jnz	$-1014   	;abs 0x11de
    15d6:	04 06       	mova	@r6,	r4	
    15d8:	00 5c       	add	r12,	r0	
    15da:	93 02       	.word	0x0293;	????	Illegal as address instr
    15dc:	5d 93       	cmp.b	#1,	r13	;r3 As==01
    15de:	02 22       	jnz	$-1018   	;abs 0x11e4
    15e0:	04 38       	jl	$+10     	;abs 0x15ea
    15e2:	04 06       	mova	@r6,	r4	
    15e4:	00 55       	add	r5,	r0	
    15e6:	93 02       	.word	0x0293;	????	Illegal as address instr
    15e8:	56 93       	cmp.b	#1,	r6	;r3 As==01
    15ea:	02 00       	mova	@r0,	r2	
    15ec:	00 00       	bra	@r0		
    15ee:	00 3a       	jl	$-1022   	;abs 0x11f0
    15f0:	02 5a       	add	r10,	r2	
    15f2:	02 03       	mova	#2,	r2	;r3 As==10
    15f4:	00 91       	cmp	r1,	r0	
    15f6:	5a 06       	rlam	#2,	r10	
    15f8:	00 00       	bra	@r0		
    15fa:	00 00       	bra	@r0		
    15fc:	d2 03       	tsta	r2		
    15fe:	de 03       	tsta	r14		
    1600:	01 00       	mova	@r0,	r1	
    1602:	5e e4 03 fa 	xor.b	-1533(r4),r14	;0xfa03(r4)
    1606:	03 01       	.word	0x0103;	????	Illegal as address instr
    1608:	00 5e       	add	r14,	r0	
    160a:	00 00       	bra	@r0		
	...

Disassembly of section .debug_pubtypes:

00000000 <.debug_pubtypes>:
   0:	0e 00       	mova	@r0,	r14	
   2:	00 00       	bra	@r0		
   4:	02 00       	mova	@r0,	r2	
   6:	00 00       	bra	@r0		
   8:	00 00       	bra	@r0		
   a:	f0 01       	suba	r1,	r0	
   c:	00 00       	bra	@r0		
   e:	00 00       	bra	@r0		
  10:	00 00       	bra	@r0		
  12:	1e 00       	mova	#0x00000,r14	
  14:	00 00       	bra	@r0		
  16:	02 00       	mova	@r0,	r2	
  18:	f0 01       	suba	r1,	r0	
  1a:	00 00       	bra	@r0		
  1c:	92 01 00 00 	cmpa	#0x10000,r2	
  20:	30 00 00 00 	bra	0x0000		;PC rel. 0x00022
  24:	44 45       	mov.b	r5,	r4	
  26:	4c 41       	mov.b	r1,	r12	
  28:	59 5f 49 4e 	add.b	20041(r15),r9	;0x4e49(r15)
  2c:	44 45       	mov.b	r5,	r4	
  2e:	58 00       	rrcm	#1,	r8	
  30:	00 00       	bra	@r0		
  32:	00 00       	bra	@r0		
  34:	0e 00       	mova	@r0,	r14	
  36:	00 00       	bra	@r0		
  38:	02 00       	mova	@r0,	r2	
  3a:	82 03 00 00 	mova	#0x30000,r2	
  3e:	8d 07 00 00 	mova	#0x70000,r13	
  42:	00 00       	bra	@r0		
  44:	00 00       	bra	@r0		
  46:	0e 00       	mova	@r0,	r14	
  48:	00 00       	bra	@r0		
  4a:	02 00       	mova	@r0,	r2	
  4c:	0f 0b       	mova	@r11,	r15	
  4e:	00 00       	bra	@r0		
  50:	2d 05 00 00 	mova	&0x50000,r13	
  54:	00 00       	bra	@r0		
  56:	00 00       	bra	@r0		
  58:	2d 00 00 00 	mova	&0x00000,r13	
  5c:	02 00       	mova	@r0,	r2	
  5e:	3c 10       	rrc	@r12+		
  60:	00 00       	bra	@r0		
  62:	03 01       	.word	0x0103;	????	Illegal as address instr
  64:	00 00       	bra	@r0		
  66:	72 00 00 00 	mova	r0,	&0x0000	
  6a:	5f 5f 67 6e 	add.b	28263(r15),r15	;0x6e67(r15)
  6e:	75 63       	addc.b	#-1,	r5	;r3 As==11
  70:	5f 76 61 5f 	subc.b	24417(r6),r15	;0x5f61(r6)
  74:	6c 69       	addc.b	@r9,	r12	
  76:	73 74       	.word	0x7473;	????	Illegal as 2-op instr
  78:	00 83       	sub	#0,	r0	;r3 As==00
  7a:	00 00       	bra	@r0		
  7c:	00 76       	subc	r6,	r0	
  7e:	61 5f       	add.b	@r15,	r1	
  80:	6c 69       	addc.b	@r9,	r12	
  82:	73 74       	.word	0x7473;	????	Illegal as 2-op instr
  84:	00 00       	bra	@r0		
  86:	00 00       	bra	@r0		
  88:	00 52       	add	r2,	r0	
  8a:	00 00       	bra	@r0		
  8c:	00 02       	bra	#4		;r2 As==10
  8e:	00 3f       	jmp	$-510    	;abs 0xfe90
  90:	11 00       	mova	#0x00000,r1	
  92:	00 b5       	bit	r5,	r0	
  94:	03 00       	.word	0x0003;	????	Illegal as address instr
  96:	00 3d       	jmp	$+514    	;abs 0x298
  98:	00 00       	bra	@r0		
  9a:	00 69       	addc	r9,	r0	
  9c:	6e 74       	subc.b	@r4,	r14	
  9e:	31 36       	jge	$-924    	;abs 0xfd02
  a0:	5f 74 00 64 	subc.b	25600(r4),r15	;0x6400(r4)
  a4:	00 00       	bra	@r0		
  a6:	00 69       	addc	r9,	r0	
  a8:	6e 74       	subc.b	@r4,	r14	
  aa:	70 74       	subc.b	@r4+,	r0	
  ac:	72 5f       	add.b	@r15+,	r2	
  ae:	74 00 8e 00 	mova	r0,	142(r4)	;0x008e(r4)
  b2:	00 00       	bra	@r0		
  b4:	5f 5f 67 6e 	add.b	28263(r15),r15	;0x6e67(r15)
  b8:	75 63       	addc.b	#-1,	r5	;r3 As==11
  ba:	5f 76 61 5f 	subc.b	24417(r6),r15	;0x5f61(r6)
  be:	6c 69       	addc.b	@r9,	r12	
  c0:	73 74       	.word	0x7473;	????	Illegal as 2-op instr
  c2:	00 9f       	cmp	r15,	r0	
  c4:	00 00       	bra	@r0		
  c6:	00 76       	subc	r6,	r0	
  c8:	61 5f       	add.b	@r15,	r1	
  ca:	6c 69       	addc.b	@r9,	r12	
  cc:	73 74       	.word	0x7473;	????	Illegal as 2-op instr
  ce:	00 38       	jl	$+2      	;abs 0xd0
  d0:	01 00       	mova	@r0,	r1	
  d2:	00 66       	addc	r6,	r0	
  d4:	6c 61       	addc.b	@r1,	r12	
  d6:	67 73       	subc.b	#2,	r7	;r3 As==10
  d8:	5f 74 00 00 	subc.b	0(r4),	r15	;0x0000(r4)
  dc:	00 00       	bra	@r0		
	...

Disassembly of section .debug_ranges:

00000000 <.debug_ranges>:
   0:	38 31       	jn	$+626    	;abs 0x272
   2:	54 32       	jn	$-854    	;abs 0xfcac
   4:	00 00       	bra	@r0		
   6:	00 00       	bra	@r0		
   8:	28 07 3c 07 	mova	&0x7073c,r8	
   c:	62 07 68 07 	mova	r7,	&0x20768
  10:	00 00       	bra	@r0		
  12:	00 00       	bra	@r0		
  14:	9a 07 e8 07 	cmpa	#0x707e8,r10	
  18:	fa 07       	suba	r7,	r10	
  1a:	02 08       	mova	@r8,	r2	
  1c:	f4 07       	suba	r7,	r4	
  1e:	f8 07       	suba	r7,	r8	
  20:	00 00       	bra	@r0		
  22:	00 00       	bra	@r0		
  24:	14 08       	mova	@r8+,	r4	
  26:	2a 08 42 08 	mova	&0x80842,r10	
  2a:	46 08       	rrcm.a	#3,	r6	
  2c:	00 00       	bra	@r0		
  2e:	00 00       	bra	@r0		
  30:	5e 00       	rrcm	#1,	r14	
  32:	b4 00 b8 00 	suba	#0x000b8,r4	
  36:	bc 00 00 00 	suba	#0x00000,r12	
	...
