
main.o:     file format elf32-msp430


Disassembly of section .text:

00003100 <__init_stack>:
    3100:	31 40 00 31 	mov	#12544,	r1	;#0x3100

00003104 <__low_level_init>:
    3104:	15 42 20 01 	mov	&0x0120,r5	
    3108:	75 f3       	and.b	#-1,	r5	;r3 As==11
    310a:	35 d0 08 5a 	bis	#23048,	r5	;#0x5a08

0000310e <__do_copy_data>:
    310e:	3f 40 02 00 	mov	#2,	r15	;#0x0002
    3112:	0f 93       	tst	r15		
    3114:	07 24       	jz	$+16     	;abs 0x3124
    3116:	82 45 20 01 	mov	r5,	&0x0120	
    311a:	2f 83       	decd	r15		
    311c:	9f 4f c8 48 	mov	18632(r15),4352(r15);0x48c8(r15), 0x1100(r15)
    3120:	00 11 
    3122:	f9 23       	jnz	$-12     	;abs 0x3116

00003124 <__do_clear_bss>:
    3124:	3f 40 54 00 	mov	#84,	r15	;#0x0054
    3128:	0f 93       	tst	r15		
    312a:	06 24       	jz	$+14     	;abs 0x3138
    312c:	82 45 20 01 	mov	r5,	&0x0120	
    3130:	1f 83       	dec	r15		
    3132:	cf 43 02 11 	mov.b	#0,	4354(r15);r3 As==00, 0x1102(r15)
    3136:	fa 23       	jnz	$-10     	;abs 0x312c

00003138 <main>:

TEST_RESULT LastResult;
unsigned int Current = 0, Voltage = 0;
int Load = 0, LoadOffset = 0;
    
int main(void){
    3138:	31 50 a4 ff 	add	#-92,	r1	;#0xffa4
       
    SM_TEST TestStep =  INICIANDO;
                 
    WDTCTL = WDTPW + WDTHOLD;   // desabilita watchdog
    313c:	b2 40 80 5a 	mov	#23168,	&0x0120	;#0x5a80
    3140:	20 01 
    
    setup();
    3142:	b0 12 a4 36 	call	#0x36a4	
        
    unsigned int Counter = 0;
    unsigned int SampleIndex = 0;
    unsigned int MedianaIndex = 0;
    
    analog_refresh_channel(LOAD_AN_CH);
    3146:	2f 42       	mov	#4,	r15	;r2 As==10
    3148:	b0 12 2c 43 	call	#0x432c	
    LoadOffset = AnalogValue[LOAD_AN_CH];
    314c:	92 42 28 11 	mov	&0x1128,&0x1108	
    3150:	08 11 
    unsigned int VoltageMedianas[NUM_MEDIANAS];
    unsigned int LoadMedianas[NUM_MEDIANAS];
        
    unsigned int Counter = 0;
    unsigned int SampleIndex = 0;
    unsigned int MedianaIndex = 0;
    3152:	81 43 4a 00 	mov	#0,	74(r1)	;r3 As==00, 0x004a(r1)
    unsigned int CurrentMedianas[NUM_MEDIANAS];
    unsigned int VoltageMedianas[NUM_MEDIANAS];
    unsigned int LoadMedianas[NUM_MEDIANAS];
        
    unsigned int Counter = 0;
    unsigned int SampleIndex = 0;
    3156:	91 41 4a 00 	mov	74(r1),	76(r1)	;0x004a(r1), 0x004c(r1)
    315a:	4c 00 
    
    unsigned int CurrentMedianas[NUM_MEDIANAS];
    unsigned int VoltageMedianas[NUM_MEDIANAS];
    unsigned int LoadMedianas[NUM_MEDIANAS];
        
    unsigned int Counter = 0;
    315c:	91 41 4a 00 	mov	74(r1),	72(r1)	;0x004a(r1), 0x0048(r1)
    3160:	48 00 
unsigned int Current = 0, Voltage = 0;
int Load = 0, LoadOffset = 0;
    
int main(void){
       
    SM_TEST TestStep =  INICIANDO;
    3162:	91 41 4a 00 	mov	74(r1),	82(r1)	;0x004a(r1), 0x0052(r1)
    3166:	52 00 
    3168:	0e 41       	mov	r1,	r14	
    316a:	3e 50 2c 00 	add	#44,	r14	;#0x002c
    316e:	81 4e 56 00 	mov	r14,	86(r1)	;0x0056(r1)
    3172:	0f 41       	mov	r1,	r15	
    3174:	3f 50 3a 00 	add	#58,	r15	;#0x003a
    3178:	81 4f 5a 00 	mov	r15,	90(r1)	;0x005a(r1)
    317c:	3e 50 1c 00 	add	#28,	r14	;#0x001c
    3180:	81 4e 58 00 	mov	r14,	88(r1)	;0x0058(r1)
    3184:	91 41 4a 00 	mov	74(r1),	84(r1)	;0x004a(r1), 0x0054(r1)
    3188:	54 00 
    analog_refresh_channel(LOAD_AN_CH);
    LoadOffset = AnalogValue[LOAD_AN_CH];
    
    while(1){
        
        Counter++;
    318a:	91 53 48 00 	inc	72(r1)		;0x0048(r1)
        
        delayms(2);
    318e:	2f 43       	mov	#2,	r15	;r3 As==10
    3190:	b0 12 e0 41 	call	#0x41e0	
        
        analog_refresh_channel(SPEED_AN_CH);
    3194:	3f 40 05 00 	mov	#5,	r15	;#0x0005
    3198:	b0 12 2c 43 	call	#0x432c	
        analog_refresh_channel(LOAD_AN_CH);
    319c:	2f 42       	mov	#4,	r15	;r2 As==10
    319e:	b0 12 2c 43 	call	#0x432c	
        analog_refresh_channel(CURRENT_AN_CH);
    31a2:	3f 40 03 00 	mov	#3,	r15	;#0x0003
    31a6:	b0 12 2c 43 	call	#0x432c	
        analog_refresh_channel(VOLTAGE_AN_CH);
    31aa:	3f 40 07 00 	mov	#7,	r15	;#0x0007
    31ae:	b0 12 2c 43 	call	#0x432c	
        
        TBCCR1 = constrain(((AnalogValue[SPEED_AN_CH] >> 1) + 2000), 2000, 3999);        
    31b2:	1f 42 2a 11 	mov	&0x112a,r15	
    31b6:	0f 11       	rra	r15		
    31b8:	0f 93       	tst	r15		
    31ba:	02 34       	jge	$+6      	;abs 0x31c0
    31bc:	30 40 c4 33 	br	#0x33c4	
    31c0:	3e 40 cf 07 	mov	#1999,	r14	;#0x07cf
    31c4:	0e 9f       	cmp	r15,	r14	
    31c6:	83 38       	jl	$+264    	;abs 0x32ce
    31c8:	3f 50 d0 07 	add	#2000,	r15	;#0x07d0
    31cc:	82 4f 94 01 	mov	r15,	&0x0194	
        CurrentSamples[SampleIndex] = AnalogValue[CURRENT_AN_CH];
    31d0:	1f 41 4c 00 	mov	76(r1),	r15	;0x004c(r1)
    31d4:	0f 5f       	rla	r15		
    31d6:	0f 51       	add	r1,	r15	
    31d8:	9f 42 26 11 	mov	&0x1126,0(r15)	;0x0000(r15)
    31dc:	00 00 
        VoltageSamples[SampleIndex] = AnalogValue[VOLTAGE_AN_CH];
    31de:	9f 42 2e 11 	mov	&0x112e,10(r15)	;0x000a(r15)
    31e2:	0a 00 
        LoadSamples[SampleIndex] = AnalogValue[LOAD_AN_CH] - LoadOffset;
    31e4:	1e 42 28 11 	mov	&0x1128,r14	
    31e8:	1e 82 08 11 	sub	&0x1108,r14	
    31ec:	8f 4e 14 00 	mov	r14,	20(r15)	;0x0014(r15)

        CurrentMedianas[MedianaIndex] = Mediana(CurrentSamples);
    31f0:	0f 41       	mov	r1,	r15	
    31f2:	b0 12 fc 35 	call	#0x35fc	
    31f6:	1b 41 4a 00 	mov	74(r1),	r11	;0x004a(r1)
    31fa:	0b 5b       	rla	r11		
    31fc:	0b 51       	add	r1,	r11	
    31fe:	8b 4f 1e 00 	mov	r15,	30(r11)	;0x001e(r11)
        VoltageMedianas[MedianaIndex] = Mediana(VoltageSamples);
    3202:	0f 41       	mov	r1,	r15	
    3204:	3f 50 0a 00 	add	#10,	r15	;#0x000a
    3208:	b0 12 fc 35 	call	#0x35fc	
    320c:	8b 4f 2c 00 	mov	r15,	44(r11)	;0x002c(r11)
        LoadMedianas[MedianaIndex] = Mediana(LoadSamples);
    3210:	0f 41       	mov	r1,	r15	
    3212:	3f 50 14 00 	add	#20,	r15	;#0x0014
    3216:	b0 12 fc 35 	call	#0x35fc	
    321a:	8b 4f 3a 00 	mov	r15,	58(r11)	;0x003a(r11)
    321e:	0f 41       	mov	r1,	r15	
    3220:	3f 50 1e 00 	add	#30,	r15	;#0x001e
    // retorna o valor NUM_SAMPLES / 2
    return Samples[NUM_SAMPLES >> 1];
}

unsigned int Media(unsigned int Samples[NUM_MEDIANAS]){
    long Total = 0;
    3224:	0c 43       	clr	r12		
    3226:	0d 43       	clr	r13		
    int i = 0;
    while(i < NUM_MEDIANAS){
        Total += Samples[i];
    3228:	26 4f       	mov	@r15,	r6	
    322a:	07 43       	clr	r7		
    322c:	0c 56       	add	r6,	r12	
    322e:	0d 67       	addc	r7,	r13	
    3230:	2f 53       	incd	r15		
}

unsigned int Media(unsigned int Samples[NUM_MEDIANAS]){
    long Total = 0;
    int i = 0;
    while(i < NUM_MEDIANAS){
    3232:	1f 91 56 00 	cmp	86(r1),	r15	;0x0056(r1)
    3236:	f8 23       	jnz	$-14     	;abs 0x3228
        Total += Samples[i];
        i++;
    }       
    
    return (unsigned int)(Total / NUM_MEDIANAS);
    3238:	3a 40 07 00 	mov	#7,	r10	;#0x0007
    323c:	0b 43       	clr	r11		
    323e:	b0 12 52 48 	call	#0x4852	
    3242:	82 4c 02 11 	mov	r12,	&0x1102	
        LoadMedianas[MedianaIndex] = Mediana(LoadSamples);
                
        SampleIndex = (SampleIndex + 1) % NUM_SAMPLES;
        MedianaIndex = (MedianaIndex + 1) % NUM_MEDIANAS;
        
        Current = Media(CurrentMedianas);
    3246:	0f 41       	mov	r1,	r15	
    3248:	3f 50 3a 00 	add	#58,	r15	;#0x003a
    // retorna o valor NUM_SAMPLES / 2
    return Samples[NUM_SAMPLES >> 1];
}

unsigned int Media(unsigned int Samples[NUM_MEDIANAS]){
    long Total = 0;
    324c:	0c 43       	clr	r12		
    324e:	0d 43       	clr	r13		
    int i = 0;
    while(i < NUM_MEDIANAS){
        Total += Samples[i];
    3250:	24 4f       	mov	@r15,	r4	
    3252:	05 43       	clr	r5		
    3254:	0c 54       	add	r4,	r12	
    3256:	0d 65       	addc	r5,	r13	
    3258:	2f 53       	incd	r15		
}

unsigned int Media(unsigned int Samples[NUM_MEDIANAS]){
    long Total = 0;
    int i = 0;
    while(i < NUM_MEDIANAS){
    325a:	81 9f 58 00 	cmp	r15,	88(r1)	;0x0058(r1)
    325e:	f8 23       	jnz	$-14     	;abs 0x3250
        Total += Samples[i];
        i++;
    }       
    
    return (unsigned int)(Total / NUM_MEDIANAS);
    3260:	3a 40 07 00 	mov	#7,	r10	;#0x0007
    3264:	0b 43       	clr	r11		
    3266:	b0 12 52 48 	call	#0x4852	
    326a:	82 4c 06 11 	mov	r12,	&0x1106	
                
        SampleIndex = (SampleIndex + 1) % NUM_SAMPLES;
        MedianaIndex = (MedianaIndex + 1) % NUM_MEDIANAS;
        
        Current = Media(CurrentMedianas);
        Load = (int)Media(LoadMedianas);
    326e:	0f 41       	mov	r1,	r15	
    3270:	3f 50 2c 00 	add	#44,	r15	;#0x002c
    // retorna o valor NUM_SAMPLES / 2
    return Samples[NUM_SAMPLES >> 1];
}

unsigned int Media(unsigned int Samples[NUM_MEDIANAS]){
    long Total = 0;
    3274:	0c 43       	clr	r12		
    3276:	0d 43       	clr	r13		
    3278:	0b 4f       	mov	r15,	r11	
    int i = 0;
    while(i < NUM_MEDIANAS){
        Total += Samples[i];
    327a:	2e 4b       	mov	@r11,	r14	
    327c:	0f 43       	clr	r15		
    327e:	0c 5e       	add	r14,	r12	
    3280:	0d 6f       	addc	r15,	r13	
    3282:	2b 53       	incd	r11		
}

unsigned int Media(unsigned int Samples[NUM_MEDIANAS]){
    long Total = 0;
    int i = 0;
    while(i < NUM_MEDIANAS){
    3284:	81 9b 5a 00 	cmp	r11,	90(r1)	;0x005a(r1)
    3288:	f8 23       	jnz	$-14     	;abs 0x327a
    328a:	81 4e 4e 00 	mov	r14,	78(r1)	;0x004e(r1)
    328e:	81 4f 50 00 	mov	r15,	80(r1)	;0x0050(r1)
        Total += Samples[i];
        i++;
    }       
    
    return (unsigned int)(Total / NUM_MEDIANAS);
    3292:	3a 40 07 00 	mov	#7,	r10	;#0x0007
    3296:	0b 43       	clr	r11		
    3298:	b0 12 52 48 	call	#0x4852	
    329c:	82 4c 04 11 	mov	r12,	&0x1104	
        
        Current = Media(CurrentMedianas);
        Load = (int)Media(LoadMedianas);
        Voltage = Media(VoltageMedianas);
        
        if(Counter == 50){
    32a0:	b1 90 32 00 	cmp	#50,	72(r1)	;#0x0032, 0x0048(r1)
    32a4:	48 00 
    32a6:	16 24       	jz	$+46     	;abs 0x32d4

        CurrentMedianas[MedianaIndex] = Mediana(CurrentSamples);
        VoltageMedianas[MedianaIndex] = Mediana(VoltageSamples);
        LoadMedianas[MedianaIndex] = Mediana(LoadSamples);
                
        SampleIndex = (SampleIndex + 1) % NUM_SAMPLES;
    32a8:	1c 41 4c 00 	mov	76(r1),	r12	;0x004c(r1)
    32ac:	1c 53       	inc	r12		
    32ae:	3a 40 05 00 	mov	#5,	r10	;#0x0005
    32b2:	b0 12 00 48 	call	#0x4800	
    32b6:	81 4e 4c 00 	mov	r14,	76(r1)	;0x004c(r1)
        MedianaIndex = (MedianaIndex + 1) % NUM_MEDIANAS;
    32ba:	1c 41 4a 00 	mov	74(r1),	r12	;0x004a(r1)
    32be:	1c 53       	inc	r12		
    32c0:	3a 40 07 00 	mov	#7,	r10	;#0x0007
    32c4:	b0 12 00 48 	call	#0x4800	
    32c8:	81 4e 4a 00 	mov	r14,	74(r1)	;0x004a(r1)
    32cc:	5e 3f       	jmp	$-322    	;abs 0x318a
        analog_refresh_channel(SPEED_AN_CH);
        analog_refresh_channel(LOAD_AN_CH);
        analog_refresh_channel(CURRENT_AN_CH);
        analog_refresh_channel(VOLTAGE_AN_CH);
        
        TBCCR1 = constrain(((AnalogValue[SPEED_AN_CH] >> 1) + 2000), 2000, 3999);        
    32ce:	3f 40 9f 0f 	mov	#3999,	r15	;#0x0f9f
    32d2:	7c 3f       	jmp	$-262    	;abs 0x31cc
        Voltage = Media(VoltageMedianas);
        
        if(Counter == 50){
            Counter = 0;
                        
            switch(TestStep){
    32d4:	3f 40 05 00 	mov	#5,	r15	;#0x0005
    32d8:	1f 91 52 00 	cmp	82(r1),	r15	;0x0052(r1)
    32dc:	0c 28       	jnc	$+26     	;abs 0x32f6
    32de:	1e 41 54 00 	mov	84(r1),	r14	;0x0054(r1)
    32e2:	10 4e f2 36 	br	14066(r14)	;0x36f2(r14)
                        TestStep = TESTANDO_4000;
                    }
                break;
                
                case TESTANDO_4000:
                    mostra_atual();
    32e6:	b0 12 44 34 	call	#0x3444	
                    if(TBCCR1 > 3950){
    32ea:	1f 42 94 01 	mov	&0x0194,r15	
    32ee:	3e 40 6e 0f 	mov	#3950,	r14	;#0x0f6e
    32f2:	0e 9f       	cmp	r15,	r14	
    32f4:	6b 28       	jnc	$+216    	;abs 0x33cc
        Current = Media(CurrentMedianas);
        Load = (int)Media(LoadMedianas);
        Voltage = Media(VoltageMedianas);
        
        if(Counter == 50){
            Counter = 0;
    32f6:	81 43 48 00 	mov	#0,	72(r1)	;r3 As==00, 0x0048(r1)
    32fa:	d6 3f       	jmp	$-82     	;abs 0x32a8
                        TestStep = TESTANDO_3500;
                    }
                break;
                
                case TESTANDO_3500:
                    mostra_atual();
    32fc:	b0 12 44 34 	call	#0x3444	
                    if(TBCCR1 > 3500){
    3300:	1f 42 94 01 	mov	&0x0194,r15	
    3304:	3e 40 ac 0d 	mov	#3500,	r14	;#0x0dac
    3308:	0e 9f       	cmp	r15,	r14	
    330a:	f5 2f       	jc	$-20     	;abs 0x32f6
                        
                        LastResult.Currents[2] = Current;
    330c:	92 42 02 11 	mov	&0x1102,&0x1134	
    3310:	34 11 
                        LastResult.Loads[2] = Load;
    3312:	92 42 06 11 	mov	&0x1106,&0x1144	
    3316:	44 11 
                        LastResult.Voltages[2] = Voltage;
    3318:	92 42 04 11 	mov	&0x1104,&0x113c	
    331c:	3c 11 
        Current = Media(CurrentMedianas);
        Load = (int)Media(LoadMedianas);
        Voltage = Media(VoltageMedianas);
        
        if(Counter == 50){
            Counter = 0;
    331e:	81 43 48 00 	mov	#0,	72(r1)	;r3 As==00, 0x0048(r1)
                        
                        LastResult.Currents[2] = Current;
                        LastResult.Loads[2] = Load;
                        LastResult.Voltages[2] = Voltage;
                        
                        TestStep = TESTANDO_4000;
    3322:	a1 42 52 00 	mov	#4,	82(r1)	;r2 As==10, 0x0052(r1)
    3326:	b1 42 54 00 	mov	#8,	84(r1)	;r2 As==11, 0x0054(r1)
    332a:	be 3f       	jmp	$-130    	;abs 0x32a8
                        TestStep = TESTANDO_3000;
                    }
                break;
                
                case TESTANDO_3000:
                                    mostra_atual();
    332c:	b0 12 44 34 	call	#0x3444	
                    if(TBCCR1 > 3000){
    3330:	1f 42 94 01 	mov	&0x0194,r15	
    3334:	3e 40 b8 0b 	mov	#3000,	r14	;#0x0bb8
    3338:	0e 9f       	cmp	r15,	r14	
    333a:	dd 2f       	jc	$-68     	;abs 0x32f6
                        
                        LastResult.Currents[1] = Current;
    333c:	92 42 02 11 	mov	&0x1102,&0x1132	
    3340:	32 11 
                        LastResult.Loads[1] = Load;
    3342:	92 42 06 11 	mov	&0x1106,&0x1142	
    3346:	42 11 
                        LastResult.Voltages[1] = Voltage;
    3348:	92 42 04 11 	mov	&0x1104,&0x113a	
    334c:	3a 11 
        Current = Media(CurrentMedianas);
        Load = (int)Media(LoadMedianas);
        Voltage = Media(VoltageMedianas);
        
        if(Counter == 50){
            Counter = 0;
    334e:	81 43 48 00 	mov	#0,	72(r1)	;r3 As==00, 0x0048(r1)
                        
                        LastResult.Currents[1] = Current;
                        LastResult.Loads[1] = Load;
                        LastResult.Voltages[1] = Voltage;
                        
                        TestStep = TESTANDO_3500;
    3352:	b1 40 03 00 	mov	#3,	82(r1)	;#0x0003, 0x0052(r1)
    3356:	52 00 
    3358:	b1 40 06 00 	mov	#6,	84(r1)	;#0x0006, 0x0054(r1)
    335c:	54 00 
    335e:	a4 3f       	jmp	$-182    	;abs 0x32a8
                    lcd_clear(LCDBackColor);
                    TestStep = TESTANDO_2500;
                break;
                
                case TESTANDO_2500:
                    mostra_atual();
    3360:	b0 12 44 34 	call	#0x3444	
                    if(TBCCR1 > 2500){
    3364:	1f 42 94 01 	mov	&0x0194,r15	
    3368:	3e 40 c4 09 	mov	#2500,	r14	;#0x09c4
    336c:	0e 9f       	cmp	r15,	r14	
    336e:	c3 2f       	jc	$-120    	;abs 0x32f6
                        
                        LastResult.Currents[0] = Current;
    3370:	92 42 02 11 	mov	&0x1102,&0x1130	
    3374:	30 11 
                        LastResult.Loads[0] = Load;
    3376:	92 42 06 11 	mov	&0x1106,&0x1140	
    337a:	40 11 
                        LastResult.Voltages[0] = Voltage;
    337c:	92 42 04 11 	mov	&0x1104,&0x1138	
    3380:	38 11 
        Current = Media(CurrentMedianas);
        Load = (int)Media(LoadMedianas);
        Voltage = Media(VoltageMedianas);
        
        if(Counter == 50){
            Counter = 0;
    3382:	81 43 48 00 	mov	#0,	72(r1)	;r3 As==00, 0x0048(r1)
                        
                        LastResult.Currents[0] = Current;
                        LastResult.Loads[0] = Load;
                        LastResult.Voltages[0] = Voltage;
                        
                        TestStep = TESTANDO_3000;
    3386:	a1 43 52 00 	mov	#2,	82(r1)	;r3 As==10, 0x0052(r1)
    338a:	a1 42 54 00 	mov	#4,	84(r1)	;r2 As==10, 0x0054(r1)
    338e:	8c 3f       	jmp	$-230    	;abs 0x32a8
        if(Counter == 50){
            Counter = 0;
                        
            switch(TestStep){
                case INICIANDO:
                    lcd_clear(LCDBackColor);
    3390:	5f 42 00 11 	mov.b	&0x1100,r15	
    3394:	b0 12 4a 38 	call	#0x384a	
        Current = Media(CurrentMedianas);
        Load = (int)Media(LoadMedianas);
        Voltage = Media(VoltageMedianas);
        
        if(Counter == 50){
            Counter = 0;
    3398:	81 43 48 00 	mov	#0,	72(r1)	;r3 As==00, 0x0048(r1)
                        
            switch(TestStep){
                case INICIANDO:
                    lcd_clear(LCDBackColor);
                    TestStep = TESTANDO_2500;
    339c:	91 43 52 00 	mov	#1,	82(r1)	;r3 As==01, 0x0052(r1)
    33a0:	a1 43 54 00 	mov	#2,	84(r1)	;r3 As==10, 0x0054(r1)
                break;
    33a4:	81 3f       	jmp	$-252    	;abs 0x32a8
                        TestStep = AGUARDA_2000;
                    }
                break;
                
                case AGUARDA_2000:
                    if(TBCCR1 < 2050){
    33a6:	1f 42 94 01 	mov	&0x0194,r15	
    33aa:	3e 40 01 08 	mov	#2049,	r14	;#0x0801
    33ae:	0e 9f       	cmp	r15,	r14	
    33b0:	a2 2b       	jnc	$-186    	;abs 0x32f6
        Current = Media(CurrentMedianas);
        Load = (int)Media(LoadMedianas);
        Voltage = Media(VoltageMedianas);
        
        if(Counter == 50){
            Counter = 0;
    33b2:	81 43 52 00 	mov	#0,	82(r1)	;r3 As==00, 0x0052(r1)
                break;
                
                case AGUARDA_2000:
                    if(TBCCR1 < 2050){
                        
                        TestStep = INICIANDO;
    33b6:	91 41 52 00 	mov	82(r1),	72(r1)	;0x0052(r1), 0x0048(r1)
    33ba:	48 00 
    33bc:	91 41 52 00 	mov	82(r1),	84(r1)	;0x0052(r1), 0x0054(r1)
    33c0:	54 00 
    33c2:	72 3f       	jmp	$-282    	;abs 0x32a8
        analog_refresh_channel(SPEED_AN_CH);
        analog_refresh_channel(LOAD_AN_CH);
        analog_refresh_channel(CURRENT_AN_CH);
        analog_refresh_channel(VOLTAGE_AN_CH);
        
        TBCCR1 = constrain(((AnalogValue[SPEED_AN_CH] >> 1) + 2000), 2000, 3999);        
    33c4:	3f 40 d0 07 	mov	#2000,	r15	;#0x07d0
    33c8:	30 40 cc 31 	br	#0x31cc	
                
                case TESTANDO_4000:
                    mostra_atual();
                    if(TBCCR1 > 3950){
                        
                        LastResult.Currents[3] = Current;
    33cc:	92 42 02 11 	mov	&0x1102,&0x1136	
    33d0:	36 11 
                        LastResult.Loads[3] = Load;
    33d2:	92 42 06 11 	mov	&0x1106,&0x1146	
    33d6:	46 11 
                        LastResult.Voltages[3] = Voltage;
    33d8:	92 42 04 11 	mov	&0x1104,&0x113e	
    33dc:	3e 11 
                        
                        mostra_resultado();
    33de:	b0 12 50 35 	call	#0x3550	
        Current = Media(CurrentMedianas);
        Load = (int)Media(LoadMedianas);
        Voltage = Media(VoltageMedianas);
        
        if(Counter == 50){
            Counter = 0;
    33e2:	81 43 48 00 	mov	#0,	72(r1)	;r3 As==00, 0x0048(r1)
                        LastResult.Loads[3] = Load;
                        LastResult.Voltages[3] = Voltage;
                        
                        mostra_resultado();
                        
                        TestStep = AGUARDA_2000;
    33e6:	b1 40 05 00 	mov	#5,	82(r1)	;#0x0005, 0x0052(r1)
    33ea:	52 00 
    33ec:	b1 40 0a 00 	mov	#10,	84(r1)	;#0x000a, 0x0054(r1)
    33f0:	54 00 
    33f2:	5a 3f       	jmp	$-330    	;abs 0x32a8

000033f4 <__stop_progExec__>:
    33f4:	32 d0 f0 00 	bis	#240,	r2	;#0x00f0
    33f8:	fd 3f       	jmp	$-4      	;abs 0x33f4

000033fa <__ctors_end>:
    33fa:	30 40 c6 48 	br	#0x48c6	
    33fe:	54 45 53 54 	mov.b	21587(r5),r4	;0x5453(r5)
    3402:	49 4e       	mov.b	r14,	r9	
    3404:	47 3a       	jl	$-880    	;abs 0x3094
    3406:	20 20       	jnz	$+66     	;abs 0x3448
    3408:	20 20       	jnz	$+66     	;abs 0x344a
    340a:	20 20       	jnz	$+66     	;abs 0x344c
    340c:	00 53       	add	#0,	r0	;r3 As==00
    340e:	70 65       	addc.b	@r5+,	r0	
    3410:	65 64       	addc.b	@r4,	r5	
    3412:	3a 20       	jnz	$+118    	;abs 0x3488
    3414:	25 64       	addc	@r4,	r5	
    3416:	20 20       	jnz	$+66     	;abs 0x3458
    3418:	20 20       	jnz	$+66     	;abs 0x345a
    341a:	00 53       	add	#0,	r0	;r3 As==00
    341c:	48 55       	add.b	r5,	r8	
    341e:	4e 54       	add.b	r4,	r14	
    3420:	3a 20       	jnz	$+118    	;abs 0x3496
    3422:	25 64       	addc	@r4,	r5	
    3424:	20 20       	jnz	$+66     	;abs 0x3466
    3426:	20 20       	jnz	$+66     	;abs 0x3468
    3428:	00 4c       	br	r12		
    342a:	6f 61       	addc.b	@r1,	r15	
    342c:	64 3a       	jl	$-822    	;abs 0x30f6
    342e:	20 25       	jz	$+578    	;abs 0x3670
    3430:	64 20       	jnz	$+202    	;abs 0x34fa
    3432:	20 20       	jnz	$+66     	;abs 0x3474
    3434:	20 00 56 6f 	bra	&0x06f56	
    3438:	6c 74       	subc.b	@r4,	r12	
    343a:	3a 20       	jnz	$+118    	;abs 0x34b0
    343c:	25 64       	addc	@r4,	r5	
    343e:	20 20       	jnz	$+66     	;abs 0x3480
    3440:	20 20       	jnz	$+66     	;abs 0x3482
	...

00003444 <mostra_atual>:
            }
        }
    }
}

void mostra_atual(void){
    3444:	0b 12       	push	r11		
    3446:	0a 12       	push	r10		

    lcd_goto(0,0);
    3448:	4e 43       	clr.b	r14		
    344a:	4f 4e       	mov.b	r14,	r15	
    344c:	b0 12 52 3d 	call	#0x3d52	
    printf("TESTING:      ");  
    3450:	30 12 fe 33 	push	#13310		;#0x33fe
    3454:	b0 12 6a 43 	call	#0x436a	
    3458:	21 53       	incd	r1		
    lcd_goto(0,2);
    345a:	6e 43       	mov.b	#2,	r14	;r3 As==10
    345c:	4f 43       	clr.b	r15		
    345e:	b0 12 52 3d 	call	#0x3d52	
    printf("Speed: %d    ", (TBCCR1 - 2000) / 20);
    3462:	1c 42 94 01 	mov	&0x0194,r12	
    3466:	3c 50 30 f8 	add	#-2000,	r12	;#0xf830
    346a:	3a 40 14 00 	mov	#20,	r10	;#0x0014
    346e:	b0 12 00 48 	call	#0x4800	
    3472:	0c 12       	push	r12		
    3474:	30 12 0d 34 	push	#13325		;#0x340d
    3478:	b0 12 6a 43 	call	#0x436a	
    347c:	21 52       	add	#4,	r1	;r2 As==10
    lcd_goto(0,3);
    347e:	7e 40 03 00 	mov.b	#3,	r14	;#0x0003
    3482:	4f 43       	clr.b	r15		
    3484:	b0 12 52 3d 	call	#0x3d52	
    printf("SHUNT: %d    ", Current);
    3488:	12 12 02 11 	push	&0x1102	
    348c:	30 12 1b 34 	push	#13339		;#0x341b
    3490:	b0 12 6a 43 	call	#0x436a	
    3494:	21 52       	add	#4,	r1	;r2 As==10
    lcd_goto(0,4);
    3496:	6e 42       	mov.b	#4,	r14	;r2 As==10
    3498:	4f 43       	clr.b	r15		
    349a:	b0 12 52 3d 	call	#0x3d52	
    printf("Load: %d    ", Load);
    349e:	12 12 06 11 	push	&0x1106	
    34a2:	30 12 29 34 	push	#13353		;#0x3429
    34a6:	b0 12 6a 43 	call	#0x436a	
    34aa:	21 52       	add	#4,	r1	;r2 As==10
    lcd_goto(0,5);
    34ac:	7e 40 05 00 	mov.b	#5,	r14	;#0x0005
    34b0:	4f 43       	clr.b	r15		
    34b2:	b0 12 52 3d 	call	#0x3d52	
    printf("Volt: %d    ", (Voltage * 9) >> 1);
    34b6:	1e 42 04 11 	mov	&0x1104,r14	
    34ba:	0f 4e       	mov	r14,	r15	
    34bc:	0f 5f       	rla	r15		
    34be:	0f 5f       	rla	r15		
    34c0:	0f 5f       	rla	r15		
    34c2:	0f 5e       	add	r14,	r15	
    34c4:	12 c3       	clrc			
    34c6:	0f 10       	rrc	r15		
    34c8:	0f 12       	push	r15		
    34ca:	30 12 36 34 	push	#13366		;#0x3436
    34ce:	b0 12 6a 43 	call	#0x436a	
    34d2:	21 52       	add	#4,	r1	;r2 As==10

}
    34d4:	3a 41       	pop	r10		
    34d6:	3b 41       	pop	r11		
    34d8:	30 41       	ret			
    34da:	4c 41       	mov.b	r1,	r12	
    34dc:	53 54       	.word	0x5453;	????	Illegal as 2-op instr
    34de:	20 54       	add	@r4,	r0	
    34e0:	45 53       	add.b	#0,	r5	;r3 As==00
    34e2:	54 3a       	jl	$-854    	;abs 0x318c
    34e4:	20 20       	jnz	$+66     	;abs 0x3526
    34e6:	20 20       	jnz	$+66     	;abs 0x3528
    34e8:	20 20       	jnz	$+66     	;abs 0x352a
    34ea:	00 53       	add	#0,	r0	;r3 As==00
    34ec:	50 45 45 20 	br	8261(r5)	;0x2045(r5)
    34f0:	43 55       	.word	0x5543;	????	Illegal as 2-op instr
    34f2:	52 52 20 4c 	add.b	&0x4c20,r2	
    34f6:	4f 41       	mov.b	r1,	r15	
    34f8:	44 20       	jnz	$+138    	;abs 0x3582
    34fa:	56 4f 4c 54 	mov.b	21580(r15),r6	;0x544c(r15)
    34fe:	20 00 32 35 	bra	&0x03532	
    3502:	30 30       	jn	$+98     	;abs 0x3564
    3504:	20 25       	jz	$+578    	;abs 0x3746
    3506:	30 34       	jge	$+98     	;abs 0x3568
    3508:	64 20       	jnz	$+202    	;abs 0x35d2
    350a:	25 30       	jn	$+76     	;abs 0x3556
    350c:	34 64       	addc	@r4+,	r4	
    350e:	20 25       	jz	$+578    	;abs 0x3750
    3510:	30 34       	jge	$+98     	;abs 0x3572
    3512:	64 00 33 30 	mova	r0,	&0x43033
    3516:	30 30       	jn	$+98     	;abs 0x3578
    3518:	20 25       	jz	$+578    	;abs 0x375a
    351a:	30 34       	jge	$+98     	;abs 0x357c
    351c:	64 20       	jnz	$+202    	;abs 0x35e6
    351e:	25 30       	jn	$+76     	;abs 0x356a
    3520:	34 64       	addc	@r4+,	r4	
    3522:	20 25       	jz	$+578    	;abs 0x3764
    3524:	30 34       	jge	$+98     	;abs 0x3586
    3526:	64 00 33 35 	mova	r0,	&0x43533
    352a:	30 30       	jn	$+98     	;abs 0x358c
    352c:	20 25       	jz	$+578    	;abs 0x376e
    352e:	30 34       	jge	$+98     	;abs 0x3590
    3530:	64 20       	jnz	$+202    	;abs 0x35fa
    3532:	25 30       	jn	$+76     	;abs 0x357e
    3534:	34 64       	addc	@r4+,	r4	
    3536:	20 25       	jz	$+578    	;abs 0x3778
    3538:	30 34       	jge	$+98     	;abs 0x359a
    353a:	64 00 34 30 	mova	r0,	&0x43034
    353e:	30 30       	jn	$+98     	;abs 0x35a0
    3540:	20 25       	jz	$+578    	;abs 0x3782
    3542:	30 34       	jge	$+98     	;abs 0x35a4
    3544:	64 20       	jnz	$+202    	;abs 0x360e
    3546:	25 30       	jn	$+76     	;abs 0x3592
    3548:	34 64       	addc	@r4+,	r4	
    354a:	20 25       	jz	$+578    	;abs 0x378c
    354c:	30 34       	jge	$+98     	;abs 0x35ae
    354e:	64 00 0b 12 	mova	r0,	&0x4120b

00003550 <mostra_resultado>:

void mostra_resultado(void){
    3550:	0b 12       	push	r11		
    lcd_goto(0,0);
    3552:	4e 43       	clr.b	r14		
    3554:	4f 4e       	mov.b	r14,	r15	
    3556:	b0 12 52 3d 	call	#0x3d52	
    printf("LAST TEST:      ");
    355a:	30 12 da 34 	push	#13530		;#0x34da
    355e:	b0 12 6a 43 	call	#0x436a	
    3562:	21 53       	incd	r1		
    lcd_goto(0,2);
    3564:	6e 43       	mov.b	#2,	r14	;r3 As==10
    3566:	4f 43       	clr.b	r15		
    3568:	b0 12 52 3d 	call	#0x3d52	
    printf("SPEE CURR LOAD VOLT ");
    356c:	30 12 eb 34 	push	#13547		;#0x34eb
    3570:	b0 12 6a 43 	call	#0x436a	
    3574:	21 53       	incd	r1		
    lcd_goto(0,3);
    3576:	7e 40 03 00 	mov.b	#3,	r14	;#0x0003
    357a:	4f 43       	clr.b	r15		
    357c:	b0 12 52 3d 	call	#0x3d52	
    printf("2500 %04d %04d %04d", LastResult.Currents[0], LastResult.Loads[0], LastResult.Voltages[0]);
    3580:	3f 40 38 11 	mov	#4408,	r15	;#0x1138
    3584:	2f 12       	push	@r15		
    3586:	1f 12 08 00 	push	8(r15)		;0x0008(r15)
    358a:	3b 40 30 11 	mov	#4400,	r11	;#0x1130
    358e:	2b 12       	push	@r11		
    3590:	30 12 00 35 	push	#13568		;#0x3500
    3594:	b0 12 6a 43 	call	#0x436a	
    3598:	31 52       	add	#8,	r1	;r2 As==11
    lcd_goto(0,4);
    359a:	6e 42       	mov.b	#4,	r14	;r2 As==10
    359c:	4f 43       	clr.b	r15		
    359e:	b0 12 52 3d 	call	#0x3d52	
    printf("3000 %04d %04d %04d", LastResult.Currents[1], LastResult.Loads[1], LastResult.Voltages[1]);
    35a2:	1b 12 0a 00 	push	10(r11)	;0x000a(r11)
    35a6:	1b 12 12 00 	push	18(r11)	;0x0012(r11)
    35aa:	1b 12 02 00 	push	2(r11)		;0x0002(r11)
    35ae:	30 12 14 35 	push	#13588		;#0x3514
    35b2:	b0 12 6a 43 	call	#0x436a	
    35b6:	31 52       	add	#8,	r1	;r2 As==11
    lcd_goto(0,5);
    35b8:	7e 40 05 00 	mov.b	#5,	r14	;#0x0005
    35bc:	4f 43       	clr.b	r15		
    35be:	b0 12 52 3d 	call	#0x3d52	
    printf("3500 %04d %04d %04d", LastResult.Currents[2], LastResult.Loads[2], LastResult.Voltages[2]);
    35c2:	1b 12 0c 00 	push	12(r11)	;0x000c(r11)
    35c6:	1b 12 14 00 	push	20(r11)	;0x0014(r11)
    35ca:	1b 12 04 00 	push	4(r11)		;0x0004(r11)
    35ce:	30 12 28 35 	push	#13608		;#0x3528
    35d2:	b0 12 6a 43 	call	#0x436a	
    35d6:	31 52       	add	#8,	r1	;r2 As==11
    lcd_goto(0,6);
    35d8:	7e 40 06 00 	mov.b	#6,	r14	;#0x0006
    35dc:	4f 43       	clr.b	r15		
    35de:	b0 12 52 3d 	call	#0x3d52	
    printf("4000 %04d %04d %04d", LastResult.Currents[3], LastResult.Loads[3], LastResult.Voltages[3]);
    35e2:	1b 12 0e 00 	push	14(r11)	;0x000e(r11)
    35e6:	1b 12 16 00 	push	22(r11)	;0x0016(r11)
    35ea:	1b 12 06 00 	push	6(r11)		;0x0006(r11)
    35ee:	30 12 3c 35 	push	#13628		;#0x353c
    35f2:	b0 12 6a 43 	call	#0x436a	
    35f6:	31 52       	add	#8,	r1	;r2 As==11
}
    35f8:	3b 41       	pop	r11		
    35fa:	30 41       	ret			

000035fc <Mediana>:
unsigned int Mediana(unsigned int Samples[NUM_SAMPLES]){
    35fc:	0b 12       	push	r11		
    35fe:	0a 12       	push	r10		
    // ordena o vetor 
    int i, j;
    unsigned int Aux;
    for(i = 0; i<NUM_SAMPLES; i++){
    3600:	0a 43       	clr	r10		
    3602:	0e 4f       	mov	r15,	r14	
    lcd_goto(0,5);
    printf("3500 %04d %04d %04d", LastResult.Currents[2], LastResult.Loads[2], LastResult.Voltages[2]);
    lcd_goto(0,6);
    printf("4000 %04d %04d %04d", LastResult.Currents[3], LastResult.Loads[3], LastResult.Voltages[3]);
}
unsigned int Mediana(unsigned int Samples[NUM_SAMPLES]){
    3604:	0d 43       	clr	r13		
    // ordena o vetor 
    int i, j;
    unsigned int Aux;
    for(i = 0; i<NUM_SAMPLES; i++){
        for(j = 0; j < (NUM_SAMPLES - 1); j++){
            if(Samples[j] > Samples[j+1]){
    3606:	2c 4e       	mov	@r14,	r12	
    3608:	1b 4e 02 00 	mov	2(r14),	r11	;0x0002(r14)
    360c:	0b 9c       	cmp	r12,	r11	
    360e:	04 2c       	jc	$+10     	;abs 0x3618
                Aux = Samples[j];
                Samples[j] = Samples[j+1];
    3610:	8e 4b 00 00 	mov	r11,	0(r14)	;0x0000(r14)
                Samples[j+1] = Aux;
    3614:	8e 4c 02 00 	mov	r12,	2(r14)	;0x0002(r14)
unsigned int Mediana(unsigned int Samples[NUM_SAMPLES]){
    // ordena o vetor 
    int i, j;
    unsigned int Aux;
    for(i = 0; i<NUM_SAMPLES; i++){
        for(j = 0; j < (NUM_SAMPLES - 1); j++){
    3618:	1d 53       	inc	r13		
    361a:	2e 53       	incd	r14		
    361c:	2d 92       	cmp	#4,	r13	;r2 As==10
    361e:	f3 23       	jnz	$-24     	;abs 0x3606
}
unsigned int Mediana(unsigned int Samples[NUM_SAMPLES]){
    // ordena o vetor 
    int i, j;
    unsigned int Aux;
    for(i = 0; i<NUM_SAMPLES; i++){
    3620:	1a 53       	inc	r10		
    3622:	3a 90 05 00 	cmp	#5,	r10	;#0x0005
    3626:	ed 23       	jnz	$-36     	;abs 0x3602
            }
        }
    }
    // retorna o valor NUM_SAMPLES / 2
    return Samples[NUM_SAMPLES >> 1];
}
    3628:	1f 4f 04 00 	mov	4(r15),	r15	;0x0004(r15)
    362c:	3a 41       	pop	r10		
    362e:	3b 41       	pop	r11		
    3630:	30 41       	ret			

00003632 <Media>:

unsigned int Media(unsigned int Samples[NUM_MEDIANAS]){
    3632:	0b 12       	push	r11		
    3634:	0a 12       	push	r10		
    3636:	09 12       	push	r9		
    3638:	08 12       	push	r8		
    363a:	0e 43       	clr	r14		
    long Total = 0;
    363c:	0c 43       	clr	r12		
    363e:	0d 43       	clr	r13		
    }
    // retorna o valor NUM_SAMPLES / 2
    return Samples[NUM_SAMPLES >> 1];
}

unsigned int Media(unsigned int Samples[NUM_MEDIANAS]){
    3640:	09 4f       	mov	r15,	r9	
    3642:	09 5e       	add	r14,	r9	
    long Total = 0;
    int i = 0;
    while(i < NUM_MEDIANAS){
        Total += Samples[i];
    3644:	2a 49       	mov	@r9,	r10	
    3646:	0b 43       	clr	r11		
    3648:	0c 5a       	add	r10,	r12	
    364a:	0d 6b       	addc	r11,	r13	
    364c:	2e 53       	incd	r14		
}

unsigned int Media(unsigned int Samples[NUM_MEDIANAS]){
    long Total = 0;
    int i = 0;
    while(i < NUM_MEDIANAS){
    364e:	3e 90 0e 00 	cmp	#14,	r14	;#0x000e
    3652:	f6 23       	jnz	$-18     	;abs 0x3640
        Total += Samples[i];
        i++;
    }       
    
    return (unsigned int)(Total / NUM_MEDIANAS);
    3654:	3a 40 07 00 	mov	#7,	r10	;#0x0007
    3658:	0b 43       	clr	r11		
    365a:	b0 12 52 48 	call	#0x4852	
}
    365e:	0f 4c       	mov	r12,	r15	
    3660:	38 41       	pop	r8		
    3662:	39 41       	pop	r9		
    3664:	3a 41       	pop	r10		
    3666:	3b 41       	pop	r11		
    3668:	30 41       	ret			

0000366a <clock_init>:

// esta funcao utiliza registrador do uC diretamente
// tudo para 16MHz
void clock_init(void){
    BCSCTL2 = SELM_0 + DIVM_0 + DIVS_0;
    366a:	c2 43 58 00 	mov.b	#0,	&0x0058	;r3 As==00
    DCOCTL = 0x77;      
    366e:	f2 40 77 00 	mov.b	#119,	&0x0056	;#0x0077
    3672:	56 00 
    BCSCTL1 = 0xCF;     
    3674:	f2 40 cf ff 	mov.b	#-49,	&0x0057	;#0xffcf
    3678:	57 00 
    BCSCTL3 = 0xA0;
    367a:	f2 40 a0 ff 	mov.b	#-96,	&0x0053	;#0xffa0
    367e:	53 00 
}
    3680:	30 41       	ret			

00003682 <timer_init>:
     * CM_0 -- No Capture
     * CCIS_0 -- CCIxA
     * OUTMOD_7 -- PWM output mode: 7 - PWM reset/set
     */

    TBCCTL1 = CM_0 + CCIS_0 + CLLD_0 + OUTMOD_7;
    3682:	b2 40 e0 00 	mov	#224,	&0x0184	;#0x00e0
    3686:	84 01 

    /* TBCCR0, Timer_B Capture/Compare Register 0 */
    TBCCR0 = 4000; // 0.05ms = 20000hz
    3688:	b2 40 a0 0f 	mov	#4000,	&0x0192	;#0x0fa0
    368c:	92 01 

    /* TBCCR1, Timer_B Capture/Compare Register 1 */
    TBCCR1 = 2000; 
    368e:	b2 40 d0 07 	mov	#2000,	&0x0194	;#0x07d0
    3692:	94 01 
     * CNTL_0 -- 16-bit, TBR(max) = 0FFFFh
     * TBSSEL_1 -- ACLK
     * ID_3 -- Divider - /8
     * MC_1 -- Up Mode
     */
    TBCTL = TBCLGRP_0 + CNTL_0 + TBSSEL_1 + ID_3 + MC_1 + TBIE;
    3694:	b2 40 d2 01 	mov	#466,	&0x0180	;#0x01d2
    3698:	80 01 
    
    /* configura saidas do timerB - P4.1 */
    P4SEL = 0x02;
    369a:	e2 43 1f 00 	mov.b	#2,	&0x001f	;r3 As==10
    P4DIR = 0x02;
    369e:	e2 43 1e 00 	mov.b	#2,	&0x001e	;r3 As==10
    
}
    36a2:	30 41       	ret			

000036a4 <setup>:

// esta funcao utiliza registrador do uC diretamente
void setup(void){   
    P2DIR |= 0x08;
    36a4:	f2 d2 2a 00 	bis.b	#8,	&0x002a	;r2 As==11
    P2OUT |= 0x08;
    36a8:	f2 d2 29 00 	bis.b	#8,	&0x0029	;r2 As==11
}

// esta funcao utiliza registrador do uC diretamente
// tudo para 16MHz
void clock_init(void){
    BCSCTL2 = SELM_0 + DIVM_0 + DIVS_0;
    36ac:	c2 43 58 00 	mov.b	#0,	&0x0058	;r3 As==00
    DCOCTL = 0x77;      
    36b0:	f2 40 77 00 	mov.b	#119,	&0x0056	;#0x0077
    36b4:	56 00 
    BCSCTL1 = 0xCF;     
    36b6:	f2 40 cf ff 	mov.b	#-49,	&0x0057	;#0xffcf
    36ba:	57 00 
    BCSCTL3 = 0xA0;
    36bc:	f2 40 a0 ff 	mov.b	#-96,	&0x0053	;#0xffa0
    36c0:	53 00 
     * CM_0 -- No Capture
     * CCIS_0 -- CCIxA
     * OUTMOD_7 -- PWM output mode: 7 - PWM reset/set
     */

    TBCCTL1 = CM_0 + CCIS_0 + CLLD_0 + OUTMOD_7;
    36c2:	b2 40 e0 00 	mov	#224,	&0x0184	;#0x00e0
    36c6:	84 01 

    /* TBCCR0, Timer_B Capture/Compare Register 0 */
    TBCCR0 = 4000; // 0.05ms = 20000hz
    36c8:	b2 40 a0 0f 	mov	#4000,	&0x0192	;#0x0fa0
    36cc:	92 01 

    /* TBCCR1, Timer_B Capture/Compare Register 1 */
    TBCCR1 = 2000; 
    36ce:	b2 40 d0 07 	mov	#2000,	&0x0194	;#0x07d0
    36d2:	94 01 
     * CNTL_0 -- 16-bit, TBR(max) = 0FFFFh
     * TBSSEL_1 -- ACLK
     * ID_3 -- Divider - /8
     * MC_1 -- Up Mode
     */
    TBCTL = TBCLGRP_0 + CNTL_0 + TBSSEL_1 + ID_3 + MC_1 + TBIE;
    36d4:	b2 40 d2 01 	mov	#466,	&0x0180	;#0x01d2
    36d8:	80 01 
    
    /* configura saidas do timerB - P4.1 */
    P4SEL = 0x02;
    36da:	e2 43 1f 00 	mov.b	#2,	&0x001f	;r3 As==10
    P4DIR = 0x02;
    36de:	e2 43 1e 00 	mov.b	#2,	&0x001e	;r3 As==10
    P2DIR |= 0x08;
    P2OUT |= 0x08;
    
    clock_init();
    timer_init(); // inicia com 0 ppm no ESC (ESC fica esperando sinal valido beep --- beep --- beep)
    analog_init();
    36e2:	b0 12 44 42 	call	#0x4244	
    
    eint(); // habilita interrupt
    36e6:	32 d2       	eint			

    lcd_init(LCDBackColor);    
    36e8:	5f 42 00 11 	mov.b	&0x1100,r15	
    36ec:	b0 12 5e 38 	call	#0x385e	

}
    36f0:	30 41       	ret			
    36f2:	90 33       	jn	$-222    	;abs 0x3614
    36f4:	60 33       	jn	$-318    	;abs 0x35b6
    36f6:	2c 33       	jn	$-422    	;abs 0x3550
    36f8:	fc 32       	jn	$-518    	;abs 0x34f2
    36fa:	e6 32       	jn	$-562    	;abs 0x34c8
    36fc:	a6 33       	jn	$-178    	;abs 0x364a

000036fe <TIMERB1_ISR_HOOK>:

// sample rate 20000hz
interrupt (TIMERB1_VECTOR) TIMERB1_ISR_HOOK(void){ 

    TBCTL &= ~0x01;
    36fe:	b2 f0 fe ff 	and	#-2,	&0x0180	;#0xfffe
    3702:	80 01 
}
    3704:	00 13       	reti			

00003706 <lcd_setcolor>:
    return 0;
}
                         
void lcd_setcolor(unsigned char foreground_color, unsigned char background_color)
{
    LCDBackColor = background_color;
    3706:	c2 4e 00 11 	mov.b	r14,	&0x1100	
    LCDForeColor = foreground_color;
    370a:	c2 4f 0e 11 	mov.b	r15,	&0x110e	
}
    370e:	30 41       	ret			

00003710 <n6100_send>:
    cmd = 1 writedata without stop
    cmd = 2 writecommand with stop
    cmd = 3 writecommand without stop
*/
 void n6100_send(unsigned char data, unsigned char cmd)
{
    3710:	0b 12       	push	r11		
    unsigned char mask = 0x80;
    unsigned char i;
    
    if(cmd > 1){ 
    3712:	6e 93       	cmp.b	#2,	r14	;r3 As==10
    3714:	2d 28       	jnc	$+92     	;abs 0x3770
        P5OUT &= ~SDA; // comando
    3716:	f2 f0 fd ff 	and.b	#-3,	&0x0031	;#0xfffd
    371a:	31 00 
    }
    else{
        P5OUT |= SDA; // dado
    }
    
    P5OUT &= ~CSX;
    371c:	f2 f0 fe ff 	and.b	#-2,	&0x0031	;#0xfffe
    3720:	31 00 
    P5OUT |= SCLK;
    3722:	f2 d2 31 00 	bis.b	#8,	&0x0031	;r2 As==11
    P5OUT &= ~SCLK;
    3726:	f2 f0 f7 ff 	and.b	#-9,	&0x0031	;#0xfff7
    372a:	31 00 
    372c:	7d 42       	mov.b	#8,	r13	;r2 As==11
    cmd = 2 writecommand with stop
    cmd = 3 writecommand without stop
*/
 void n6100_send(unsigned char data, unsigned char cmd)
{
    unsigned char mask = 0x80;
    372e:	7c 40 80 ff 	mov.b	#-128,	r12	;#0xff80
    3732:	0b 3c       	jmp	$+24     	;abs 0x374a
    P5OUT |= SCLK;
    P5OUT &= ~SCLK;
    
    for (i=0; i<8; i++){
        if(data & mask){
            P5OUT |= SDA; 
    3734:	e2 d3 31 00 	bis.b	#2,	&0x0031	;r3 As==10
        }
        else{
            P5OUT &= ~SDA;
        }
        P5OUT |= SCLK;
    3738:	f2 d2 31 00 	bis.b	#8,	&0x0031	;r2 As==11
        P5OUT &= ~SCLK;
    373c:	f2 f0 f7 ff 	and.b	#-9,	&0x0031	;#0xfff7
    3740:	31 00 
    3742:	7d 53       	add.b	#-1,	r13	;r3 As==11
    
    P5OUT &= ~CSX;
    P5OUT |= SCLK;
    P5OUT &= ~SCLK;
    
    for (i=0; i<8; i++){
    3744:	09 24       	jz	$+20     	;abs 0x3758
        else{
            P5OUT &= ~SDA;
        }
        P5OUT |= SCLK;
        P5OUT &= ~SCLK;
        mask >>= 1;
    3746:	12 c3       	clrc			
    3748:	4c 10       	rrc.b	r12		
    P5OUT &= ~CSX;
    P5OUT |= SCLK;
    P5OUT &= ~SCLK;
    
    for (i=0; i<8; i++){
        if(data & mask){
    374a:	4b 4c       	mov.b	r12,	r11	
    374c:	4b ff       	and.b	r15,	r11	
    374e:	f2 23       	jnz	$-26     	;abs 0x3734
            P5OUT |= SDA; 
        }
        else{
            P5OUT &= ~SDA;
    3750:	f2 f0 fd ff 	and.b	#-3,	&0x0031	;#0xfffd
    3754:	31 00 
    3756:	f0 3f       	jmp	$-30     	;abs 0x3738
        P5OUT |= SCLK;
        P5OUT &= ~SCLK;
        mask >>= 1;
    }
    
    if(cmd == 1 || cmd == 3)
    3758:	5e 93       	cmp.b	#1,	r14	;r3 As==01
    375a:	08 24       	jz	$+18     	;abs 0x376c
    375c:	7e 90 03 00 	cmp.b	#3,	r14	;#0x0003
    3760:	05 24       	jz	$+12     	;abs 0x376c
        return;
        
    P5OUT &= ~SDA;
    3762:	f2 f0 fd ff 	and.b	#-3,	&0x0031	;#0xfffd
    3766:	31 00 
    P5OUT |= CSX;
    3768:	d2 d3 31 00 	bis.b	#1,	&0x0031	;r3 As==01
}
    376c:	3b 41       	pop	r11		
    376e:	30 41       	ret			
    
    if(cmd > 1){ 
        P5OUT &= ~SDA; // comando
    }
    else{
        P5OUT |= SDA; // dado
    3770:	e2 d3 31 00 	bis.b	#2,	&0x0031	;r3 As==10
    3774:	d3 3f       	jmp	$-88     	;abs 0x371c

00003776 <n6100_sendcom1>:
{
  lcd_fillrect(0, 0, 132, 132, color);
}

 void n6100_sendcom1(unsigned char comm, unsigned char dat)
{
    3776:	0b 12       	push	r11		
    3778:	4b 4e       	mov.b	r14,	r11	
    n6100_send(comm, 3);
    377a:	7e 40 03 00 	mov.b	#3,	r14	;#0x0003
    377e:	b0 12 10 37 	call	#0x3710	
    n6100_send(dat, 0);
    3782:	4e 43       	clr.b	r14		
    3784:	4f 4b       	mov.b	r11,	r15	
    3786:	b0 12 10 37 	call	#0x3710	
}
    378a:	3b 41       	pop	r11		
    378c:	30 41       	ret			

0000378e <n6100_sendcom2>:

 void n6100_sendcom2(unsigned char comm, unsigned char dat1, unsigned char dat2)
{
    378e:	0b 12       	push	r11		
    3790:	0a 12       	push	r10		
    3792:	4a 4e       	mov.b	r14,	r10	
    3794:	4b 4d       	mov.b	r13,	r11	
    n6100_send(comm, 3);
    3796:	7e 40 03 00 	mov.b	#3,	r14	;#0x0003
    379a:	b0 12 10 37 	call	#0x3710	
    n6100_send(dat1, 1);
    379e:	5e 43       	mov.b	#1,	r14	;r3 As==01
    37a0:	4f 4a       	mov.b	r10,	r15	
    37a2:	b0 12 10 37 	call	#0x3710	
    n6100_send(dat2, 0);
    37a6:	4e 43       	clr.b	r14		
    37a8:	4f 4b       	mov.b	r11,	r15	
    37aa:	b0 12 10 37 	call	#0x3710	
}
    37ae:	3a 41       	pop	r10		
    37b0:	3b 41       	pop	r11		
    37b2:	30 41       	ret			

000037b4 <lcd_fillrect>:

 void lcd_fillrect(unsigned char x, unsigned char y, unsigned char lx, unsigned char ly, unsigned char color)
{
    37b4:	0b 12       	push	r11		
    37b6:	0a 12       	push	r10		
    37b8:	09 12       	push	r9		
    37ba:	08 12       	push	r8		
    37bc:	48 4e       	mov.b	r14,	r8	
    37be:	4b 4d       	mov.b	r13,	r11	
    37c0:	4a 4c       	mov.b	r12,	r10	
    37c2:	59 41 0a 00 	mov.b	10(r1),	r9	;0x000a(r1)
    unsigned int addr, max;
    
    n6100_sendcom2(0x2a, x, x+lx-1);
    37c6:	4d 4f       	mov.b	r15,	r13	
    37c8:	7d 53       	add.b	#-1,	r13	;r3 As==11
    37ca:	4d 5b       	add.b	r11,	r13	
    37cc:	4e 4f       	mov.b	r15,	r14	
    37ce:	7f 40 2a 00 	mov.b	#42,	r15	;#0x002a
    37d2:	b0 12 8e 37 	call	#0x378e	
    n6100_sendcom2(0x2b, y, y+ly-1);
    37d6:	4d 48       	mov.b	r8,	r13	
    37d8:	7d 53       	add.b	#-1,	r13	;r3 As==11
    37da:	4d 5a       	add.b	r10,	r13	
    37dc:	4e 48       	mov.b	r8,	r14	
    37de:	7f 40 2b 00 	mov.b	#43,	r15	;#0x002b
    37e2:	b0 12 8e 37 	call	#0x378e	
    
    n6100_send(0x2c, 3);
    37e6:	7e 40 03 00 	mov.b	#3,	r14	;#0x0003
    37ea:	7f 40 2c 00 	mov.b	#44,	r15	;#0x002c
    37ee:	b0 12 10 37 	call	#0x3710	
    
    max = lx*ly;
    37f2:	02 12       	push	r2		
    37f4:	32 c2       	dint			
    37f6:	03 43       	nop			
    37f8:	c2 4a 30 01 	mov.b	r10,	&0x0130	
    37fc:	c2 4b 38 01 	mov.b	r11,	&0x0138	
    3800:	1a 42 3a 01 	mov	&0x013a,r10	
    3804:	32 41       	pop	r2		
    for(addr=0; addr<max; addr++)
    3806:	0a 93       	tst	r10		
    3808:	08 24       	jz	$+18     	;abs 0x381a
    380a:	0b 43       	clr	r11		
    {
      n6100_send(color, 1);
    380c:	5e 43       	mov.b	#1,	r14	;r3 As==01
    380e:	4f 49       	mov.b	r9,	r15	
    3810:	b0 12 10 37 	call	#0x3710	
    n6100_sendcom2(0x2b, y, y+ly-1);
    
    n6100_send(0x2c, 3);
    
    max = lx*ly;
    for(addr=0; addr<max; addr++)
    3814:	1b 53       	inc	r11		
    3816:	0b 9a       	cmp	r10,	r11	
    3818:	f9 2b       	jnc	$-12     	;abs 0x380c
    {
      n6100_send(color, 1);
    }
    
    P5OUT &= ~SDA;
    381a:	f2 f0 fd ff 	and.b	#-3,	&0x0031	;#0xfffd
    381e:	31 00 
    P5OUT |= CSX;
    3820:	d2 d3 31 00 	bis.b	#1,	&0x0031	;r3 As==01
    
    n6100_sendcom2(0x2a, 0, 0x83);
    3824:	7d 40 83 ff 	mov.b	#-125,	r13	;#0xff83
    3828:	4e 43       	clr.b	r14		
    382a:	7f 40 2a 00 	mov.b	#42,	r15	;#0x002a
    382e:	b0 12 8e 37 	call	#0x378e	
    n6100_sendcom2(0x2b, 0, 0x83);
    3832:	7d 40 83 ff 	mov.b	#-125,	r13	;#0xff83
    3836:	4e 43       	clr.b	r14		
    3838:	7f 40 2b 00 	mov.b	#43,	r15	;#0x002b
    383c:	b0 12 8e 37 	call	#0x378e	
}
    3840:	38 41       	pop	r8		
    3842:	39 41       	pop	r9		
    3844:	3a 41       	pop	r10		
    3846:	3b 41       	pop	r11		
    3848:	30 41       	ret			

0000384a <lcd_clear>:
  //delayms(4000);
}

void lcd_clear(unsigned char color) 
{
  lcd_fillrect(0, 0, 132, 132, color);
    384a:	4f 12       	push.b	r15		
    384c:	7c 40 84 ff 	mov.b	#-124,	r12	;#0xff84
    3850:	4d 4c       	mov.b	r12,	r13	
    3852:	4e 43       	clr.b	r14		
    3854:	4f 4e       	mov.b	r14,	r15	
    3856:	b0 12 b4 37 	call	#0x37b4	
    385a:	21 53       	incd	r1		
}
    385c:	30 41       	ret			

0000385e <lcd_init>:
    P5OUT &= ~SDA;
    P5OUT |= CSX;
}

void lcd_init(unsigned char color)
{
    385e:	0b 12       	push	r11		
    3860:	0a 12       	push	r10		
    3862:	09 12       	push	r9		
    3864:	08 12       	push	r8		
    3866:	07 12       	push	r7		
    3868:	06 12       	push	r6		
    386a:	05 12       	push	r5		
    386c:	45 4f       	mov.b	r15,	r5	
    P5DIR |= CSX + SDA + SCLK + RESX;
    386e:	f2 d0 0f 00 	bis.b	#15,	&0x0032	;#0x000f
    3872:	32 00 
    
  P5OUT |= CSX;
    3874:	d2 d3 31 00 	bis.b	#1,	&0x0031	;r3 As==01
  P5OUT &= ~SDA;
    3878:	f2 f0 fd ff 	and.b	#-3,	&0x0031	;#0xfffd
    387c:	31 00 
  P5OUT &= ~SCLK;
    387e:	f2 f0 f7 ff 	and.b	#-9,	&0x0031	;#0xfff7
    3882:	31 00 

  P5OUT &= ~RESX;
    3884:	f2 f0 fb ff 	and.b	#-5,	&0x0031	;#0xfffb
    3888:	31 00 
  delayms(20);
    388a:	3b 40 14 00 	mov	#20,	r11	;#0x0014
    388e:	0f 4b       	mov	r11,	r15	
    3890:	b0 12 e0 41 	call	#0x41e0	
  P5OUT |= RESX;
    3894:	e2 d2 31 00 	bis.b	#4,	&0x0031	;r2 As==10
  delayms(20);
    3898:	0f 4b       	mov	r11,	r15	
    389a:	b0 12 e0 41 	call	#0x41e0	

  // Sleep out...
  n6100_send(0x11,2);   
    389e:	6e 43       	mov.b	#2,	r14	;r3 As==10
    38a0:	7f 40 11 00 	mov.b	#17,	r15	;#0x0011
    38a4:	b0 12 10 37 	call	#0x3710	
  // Ajusta o contraste...
  n6100_sendcom1(0x25, 0x50);
    38a8:	7e 40 50 00 	mov.b	#80,	r14	;#0x0050
    38ac:	7f 40 25 00 	mov.b	#37,	r15	;#0x0025
    38b0:	b0 12 76 37 	call	#0x3776	
  // Liga o display e o booster...    
  n6100_send(0x29,2);
    38b4:	6e 43       	mov.b	#2,	r14	;r3 As==10
    38b6:	7f 40 29 00 	mov.b	#41,	r15	;#0x0029
    38ba:	b0 12 10 37 	call	#0x3710	
  n6100_send(0x03,2);
    38be:	6e 43       	mov.b	#2,	r14	;r3 As==10
    38c0:	7f 40 03 00 	mov.b	#3,	r15	;#0x0003
    38c4:	b0 12 10 37 	call	#0x3710	
  delayms(10);  
    38c8:	3f 40 0a 00 	mov	#10,	r15	;#0x000a
    38cc:	b0 12 e0 41 	call	#0x41e0	
    
  // Color Format... (8bits/pixel)
  n6100_sendcom1(0x3a, 0x02);
    38d0:	6e 43       	mov.b	#2,	r14	;r3 As==10
    38d2:	7f 40 3a 00 	mov.b	#58,	r15	;#0x003a
    38d6:	b0 12 76 37 	call	#0x3776	
  // Inicializa a tabela de cores 8bits/pixel
  n6100_send(0x2d,2);
    38da:	6e 43       	mov.b	#2,	r14	;r3 As==10
    38dc:	7f 40 2d 00 	mov.b	#45,	r15	;#0x002d
    38e0:	b0 12 10 37 	call	#0x3710	
  // red
  n6100_send(0x00,0);
    38e4:	4e 43       	clr.b	r14		
    38e6:	4f 4e       	mov.b	r14,	r15	
    38e8:	b0 12 10 37 	call	#0x3710	
  n6100_send(0x02,0);
    38ec:	4e 43       	clr.b	r14		
    38ee:	6f 43       	mov.b	#2,	r15	;r3 As==10
    38f0:	b0 12 10 37 	call	#0x3710	
  n6100_send(0x05,0);
    38f4:	79 40 05 00 	mov.b	#5,	r9	;#0x0005
    38f8:	4e 43       	clr.b	r14		
    38fa:	4f 49       	mov.b	r9,	r15	
    38fc:	b0 12 10 37 	call	#0x3710	
  n6100_send(0x07,0);
    3900:	76 40 07 00 	mov.b	#7,	r6	;#0x0007
    3904:	4e 43       	clr.b	r14		
    3906:	4f 46       	mov.b	r6,	r15	
    3908:	b0 12 10 37 	call	#0x3710	
  n6100_send(0x09,0);
    390c:	77 40 09 00 	mov.b	#9,	r7	;#0x0009
    3910:	4e 43       	clr.b	r14		
    3912:	4f 47       	mov.b	r7,	r15	
    3914:	b0 12 10 37 	call	#0x3710	
  n6100_send(0x0b,0);
    3918:	7a 40 0b 00 	mov.b	#11,	r10	;#0x000b
    391c:	4e 43       	clr.b	r14		
    391e:	4f 4a       	mov.b	r10,	r15	
    3920:	b0 12 10 37 	call	#0x3710	
  n6100_send(0x0d,0);
    3924:	78 40 0d 00 	mov.b	#13,	r8	;#0x000d
    3928:	4e 43       	clr.b	r14		
    392a:	4f 48       	mov.b	r8,	r15	
    392c:	b0 12 10 37 	call	#0x3710	
  n6100_send(0x0f,0);
    3930:	7b 50 fb ff 	add.b	#-5,	r11	;#0xfffb
    3934:	4e 43       	clr.b	r14		
    3936:	4f 4b       	mov.b	r11,	r15	
    3938:	b0 12 10 37 	call	#0x3710	
  // green
  n6100_send(0x00,0);
    393c:	4e 43       	clr.b	r14		
    393e:	4f 4e       	mov.b	r14,	r15	
    3940:	b0 12 10 37 	call	#0x3710	
  n6100_send(0x02,0);
    3944:	4e 43       	clr.b	r14		
    3946:	6f 43       	mov.b	#2,	r15	;r3 As==10
    3948:	b0 12 10 37 	call	#0x3710	
  n6100_send(0x05,0);
    394c:	4e 43       	clr.b	r14		
    394e:	4f 49       	mov.b	r9,	r15	
    3950:	b0 12 10 37 	call	#0x3710	
  n6100_send(0x07,0);
    3954:	4e 43       	clr.b	r14		
    3956:	4f 46       	mov.b	r6,	r15	
    3958:	b0 12 10 37 	call	#0x3710	
  n6100_send(0x09,0);
    395c:	4e 43       	clr.b	r14		
    395e:	4f 47       	mov.b	r7,	r15	
    3960:	b0 12 10 37 	call	#0x3710	
  n6100_send(0x0b,0);
    3964:	4e 43       	clr.b	r14		
    3966:	4f 4a       	mov.b	r10,	r15	
    3968:	b0 12 10 37 	call	#0x3710	
  n6100_send(0x0d,0);
    396c:	4e 43       	clr.b	r14		
    396e:	4f 48       	mov.b	r8,	r15	
    3970:	b0 12 10 37 	call	#0x3710	
  n6100_send(0x0f,0);
    3974:	4e 43       	clr.b	r14		
    3976:	4f 4b       	mov.b	r11,	r15	
    3978:	b0 12 10 37 	call	#0x3710	
  // blue
  n6100_send(0x00,0);
    397c:	4e 43       	clr.b	r14		
    397e:	4f 4e       	mov.b	r14,	r15	
    3980:	b0 12 10 37 	call	#0x3710	
  n6100_send(0x05,0);
    3984:	4e 43       	clr.b	r14		
    3986:	4f 49       	mov.b	r9,	r15	
    3988:	b0 12 10 37 	call	#0x3710	
  n6100_send(0x0b,0);
    398c:	4e 43       	clr.b	r14		
    398e:	4f 4a       	mov.b	r10,	r15	
    3990:	b0 12 10 37 	call	#0x3710	
  n6100_send(0x0f,0);
    3994:	4e 43       	clr.b	r14		
    3996:	4f 4b       	mov.b	r11,	r15	
    3998:	b0 12 10 37 	call	#0x3710	

  // Memory Access Control...  
  n6100_sendcom1(0x36, invertido);
    399c:	4e 43       	clr.b	r14		
    399e:	7f 40 36 00 	mov.b	#54,	r15	;#0x0036
    39a2:	b0 12 76 37 	call	#0x3776	
  // Agradecimentos...
  lcd_fillrect(0, 0, 132, 132, color);
    39a6:	45 12       	push.b	r5		
    39a8:	7c 40 84 ff 	mov.b	#-124,	r12	;#0xff84
    39ac:	4d 4c       	mov.b	r12,	r13	
    39ae:	4e 43       	clr.b	r14		
    39b0:	4f 4e       	mov.b	r14,	r15	
    39b2:	b0 12 b4 37 	call	#0x37b4	
    39b6:	21 53       	incd	r1		
  //n6100_putlogo(2, 2, 128, 128, (unsigned char *)Matrix);
  //delayms(4000);
}
    39b8:	35 41       	pop	r5		
    39ba:	36 41       	pop	r6		
    39bc:	37 41       	pop	r7		
    39be:	38 41       	pop	r8		
    39c0:	39 41       	pop	r9		
    39c2:	3a 41       	pop	r10		
    39c4:	3b 41       	pop	r11		
    39c6:	30 41       	ret			

000039c8 <lcd_drawcircle>:
    n6100_sendcom2(0x2a, 0, 0x83);
    n6100_sendcom2(0x2b, 0, 0x83);
}


 void lcd_drawcircle(unsigned int x0, unsigned int y0, unsigned int radius, unsigned char color, int width){
    39c8:	0b 12       	push	r11		
    39ca:	0a 12       	push	r10		
    39cc:	09 12       	push	r9		
    39ce:	08 12       	push	r8		
    39d0:	07 12       	push	r7		
    39d2:	06 12       	push	r6		
    39d4:	05 12       	push	r5		
    39d6:	04 12       	push	r4		
    39d8:	31 50 f6 ff 	add	#-10,	r1	;#0xfff6
    39dc:	08 4f       	mov	r15,	r8	
    39de:	09 4e       	mov	r14,	r9	
    39e0:	45 4c       	mov.b	r12,	r5	
    39e2:	1b 41 1c 00 	mov	28(r1),	r11	;0x001c(r1)
    int f = 1 - radius;
    int ddF_x = 0;
    int ddF_y = -2 * radius;
    int x = 0;
    int y = radius;
    39e6:	81 4d 04 00 	mov	r13,	4(r1)	;0x0004(r1)
    lcd_fillrect(x0, y0 + radius,width,width, color);
    39ea:	46 4b       	mov.b	r11,	r6	
    39ec:	c1 4e 00 00 	mov.b	r14,	0(r1)	;0x0000(r1)
    39f0:	5a 41 04 00 	mov.b	4(r1),	r10	;0x0004(r1)
    39f4:	c1 4f 01 00 	mov.b	r15,	1(r1)	;0x0001(r1)
    39f8:	4c 12       	push.b	r12		
    39fa:	4c 4b       	mov.b	r11,	r12	
    39fc:	4d 4b       	mov.b	r11,	r13	
    39fe:	4e 4a       	mov.b	r10,	r14	
    3a00:	5e 51 02 00 	add.b	2(r1),	r14	;0x0002(r1)
    3a04:	b0 12 b4 37 	call	#0x37b4	
    lcd_fillrect(x0, y0 - radius,width,width, color);
    3a08:	c1 45 00 00 	mov.b	r5,	0(r1)	;0x0000(r1)
    3a0c:	4c 4b       	mov.b	r11,	r12	
    3a0e:	4d 4b       	mov.b	r11,	r13	
    3a10:	5e 41 02 00 	mov.b	2(r1),	r14	;0x0002(r1)
    3a14:	4e 8a       	sub.b	r10,	r14	
    3a16:	4f 48       	mov.b	r8,	r15	
    3a18:	b0 12 b4 37 	call	#0x37b4	
    lcd_fillrect(x0 + radius, y0,width,width, color);
    3a1c:	c1 45 00 00 	mov.b	r5,	0(r1)	;0x0000(r1)
    3a20:	4c 4b       	mov.b	r11,	r12	
    3a22:	4d 4b       	mov.b	r11,	r13	
    3a24:	4e 49       	mov.b	r9,	r14	
    3a26:	4f 4a       	mov.b	r10,	r15	
    3a28:	5f 51 03 00 	add.b	3(r1),	r15	;0x0003(r1)
    3a2c:	b0 12 b4 37 	call	#0x37b4	
    lcd_fillrect(x0 - radius, y0,width,width, color);
    3a30:	c1 45 00 00 	mov.b	r5,	0(r1)	;0x0000(r1)
    3a34:	4c 4b       	mov.b	r11,	r12	
    3a36:	4d 4b       	mov.b	r11,	r13	
    3a38:	4e 49       	mov.b	r9,	r14	
    3a3a:	5f 41 03 00 	mov.b	3(r1),	r15	;0x0003(r1)
    3a3e:	4f 8a       	sub.b	r10,	r15	
    3a40:	b0 12 b4 37 	call	#0x37b4	
    3a44:	21 53       	incd	r1		
    while (x < y) {
    3a46:	0f 43       	clr	r15		
    3a48:	1f 91 04 00 	cmp	4(r1),	r15	;0x0004(r1)
    3a4c:	82 34       	jge	$+262    	;abs 0x3b52
    n6100_sendcom2(0x2b, 0, 0x83);
}


 void lcd_drawcircle(unsigned int x0, unsigned int y0, unsigned int radius, unsigned char color, int width){
    int f = 1 - radius;
    3a4e:	14 43       	mov	#1,	r4	;r3 As==01
    3a50:	14 81 04 00 	sub	4(r1),	r4	;0x0004(r1)
    int ddF_x = 0;
    int ddF_y = -2 * radius;
    3a54:	1e 41 04 00 	mov	4(r1),	r14	;0x0004(r1)
    3a58:	0e 11       	rra	r14		
    3a5a:	0e 43       	clr	r14		
    3a5c:	0e 10       	rrc	r14		
    3a5e:	1e 81 04 00 	sub	4(r1),	r14	;0x0004(r1)
    3a62:	81 4e 08 00 	mov	r14,	8(r1)	;0x0008(r1)
    3a66:	91 51 08 00 	rla	8(r1)		;0x0008(r1)
    3a6a:	08 00 
    3a6c:	b1 40 03 00 	mov	#3,	6(r1)	;#0x0003, 0x0006(r1)
    3a70:	06 00 
    int x = 0;
    3a72:	81 4f 02 00 	mov	r15,	2(r1)	;0x0002(r1)
    3a76:	04 3c       	jmp	$+10     	;abs 0x3a80
            ddF_y += 2;
            f += ddF_y;
        }
        x++;
        ddF_x += 2;
        f += ddF_x + 1;
    3a78:	14 51 06 00 	add	6(r1),	r4	;0x0006(r1)
    3a7c:	a1 53 06 00 	incd	6(r1)		;0x0006(r1)
    lcd_fillrect(x0, y0 + radius,width,width, color);
    lcd_fillrect(x0, y0 - radius,width,width, color);
    lcd_fillrect(x0 + radius, y0,width,width, color);
    lcd_fillrect(x0 - radius, y0,width,width, color);
    while (x < y) {
        if (f >= 0) {
    3a80:	04 93       	tst	r4		
    3a82:	06 38       	jl	$+14     	;abs 0x3a90
            y--;
    3a84:	b1 53 04 00 	add	#-1,	4(r1)	;r3 As==11, 0x0004(r1)
            ddF_y += 2;
    3a88:	a1 53 08 00 	incd	8(r1)		;0x0008(r1)
            f += ddF_y;
    3a8c:	14 51 08 00 	add	8(r1),	r4	;0x0008(r1)
        }
        x++;
    3a90:	91 53 02 00 	inc	2(r1)		;0x0002(r1)
        ddF_x += 2;
        f += ddF_x + 1;
        lcd_fillrect(x0 + x, y0 + y,width,width, color);
    3a94:	5a 41 04 00 	mov.b	4(r1),	r10	;0x0004(r1)
    3a98:	6b 41       	mov.b	@r1,	r11	
    3a9a:	4b 5a       	add.b	r10,	r11	
    n6100_sendcom2(0x2a, 0, 0x83);
    n6100_sendcom2(0x2b, 0, 0x83);
}


 void lcd_drawcircle(unsigned int x0, unsigned int y0, unsigned int radius, unsigned char color, int width){
    3a9c:	58 41 02 00 	mov.b	2(r1),	r8	;0x0002(r1)
    3aa0:	57 41 01 00 	mov.b	1(r1),	r7	;0x0001(r1)
    3aa4:	47 58       	add.b	r8,	r7	
            f += ddF_y;
        }
        x++;
        ddF_x += 2;
        f += ddF_x + 1;
        lcd_fillrect(x0 + x, y0 + y,width,width, color);
    3aa6:	45 12       	push.b	r5		
    3aa8:	4c 46       	mov.b	r6,	r12	
    3aaa:	4d 46       	mov.b	r6,	r13	
    3aac:	4e 4b       	mov.b	r11,	r14	
    3aae:	4f 47       	mov.b	r7,	r15	
    3ab0:	b0 12 b4 37 	call	#0x37b4	
    3ab4:	59 41 03 00 	mov.b	3(r1),	r9	;0x0003(r1)
    3ab8:	49 88       	sub.b	r8,	r9	
        lcd_fillrect(x0 - x, y0 + y,width,width, color);
    3aba:	c1 45 00 00 	mov.b	r5,	0(r1)	;0x0000(r1)
    3abe:	4c 46       	mov.b	r6,	r12	
    3ac0:	4d 46       	mov.b	r6,	r13	
    3ac2:	4e 4b       	mov.b	r11,	r14	
    3ac4:	4f 49       	mov.b	r9,	r15	
    3ac6:	b0 12 b4 37 	call	#0x37b4	
        lcd_fillrect(x0 + x, y0 - y,width,width, color);
    3aca:	5b 41 02 00 	mov.b	2(r1),	r11	;0x0002(r1)
    3ace:	4b 8a       	sub.b	r10,	r11	
    3ad0:	c1 45 00 00 	mov.b	r5,	0(r1)	;0x0000(r1)
    3ad4:	4c 46       	mov.b	r6,	r12	
    3ad6:	4d 46       	mov.b	r6,	r13	
    3ad8:	4e 4b       	mov.b	r11,	r14	
    3ada:	4f 47       	mov.b	r7,	r15	
    3adc:	b0 12 b4 37 	call	#0x37b4	
        lcd_fillrect(x0 - x, y0 - y,width,width, color);
    3ae0:	c1 45 00 00 	mov.b	r5,	0(r1)	;0x0000(r1)
    3ae4:	4c 46       	mov.b	r6,	r12	
    3ae6:	4d 46       	mov.b	r6,	r13	
    3ae8:	4e 4b       	mov.b	r11,	r14	
    3aea:	4f 49       	mov.b	r9,	r15	
    3aec:	b0 12 b4 37 	call	#0x37b4	
    3af0:	5b 41 02 00 	mov.b	2(r1),	r11	;0x0002(r1)
    3af4:	4b 58       	add.b	r8,	r11	
        lcd_fillrect(x0 + y, y0 + x,width,width, color);
    3af6:	59 41 03 00 	mov.b	3(r1),	r9	;0x0003(r1)
    3afa:	49 5a       	add.b	r10,	r9	
    3afc:	c1 45 00 00 	mov.b	r5,	0(r1)	;0x0000(r1)
    3b00:	4c 46       	mov.b	r6,	r12	
    3b02:	4d 46       	mov.b	r6,	r13	
    3b04:	4e 4b       	mov.b	r11,	r14	
    3b06:	4f 49       	mov.b	r9,	r15	
    3b08:	b0 12 b4 37 	call	#0x37b4	
        lcd_fillrect(x0 - y, y0 + x,width,width, color);
    3b0c:	5f 41 03 00 	mov.b	3(r1),	r15	;0x0003(r1)
    3b10:	4f 8a       	sub.b	r10,	r15	
    3b12:	4a 4f       	mov.b	r15,	r10	
    3b14:	c1 45 00 00 	mov.b	r5,	0(r1)	;0x0000(r1)
    3b18:	4c 46       	mov.b	r6,	r12	
    3b1a:	4d 46       	mov.b	r6,	r13	
    3b1c:	4e 4b       	mov.b	r11,	r14	
    3b1e:	b0 12 b4 37 	call	#0x37b4	
    3b22:	5b 41 02 00 	mov.b	2(r1),	r11	;0x0002(r1)
    3b26:	4b 88       	sub.b	r8,	r11	
        lcd_fillrect(x0 + y, y0 - x,width,width, color);
    3b28:	c1 45 00 00 	mov.b	r5,	0(r1)	;0x0000(r1)
    3b2c:	4c 46       	mov.b	r6,	r12	
    3b2e:	4d 46       	mov.b	r6,	r13	
    3b30:	4e 4b       	mov.b	r11,	r14	
    3b32:	4f 49       	mov.b	r9,	r15	
    3b34:	b0 12 b4 37 	call	#0x37b4	
        lcd_fillrect(x0 - y,y0 - x,width,width, color);   
    3b38:	c1 45 00 00 	mov.b	r5,	0(r1)	;0x0000(r1)
    3b3c:	4c 46       	mov.b	r6,	r12	
    3b3e:	4d 46       	mov.b	r6,	r13	
    3b40:	4e 4b       	mov.b	r11,	r14	
    3b42:	4f 4a       	mov.b	r10,	r15	
    3b44:	b0 12 b4 37 	call	#0x37b4	
    3b48:	21 53       	incd	r1		
    int y = radius;
    lcd_fillrect(x0, y0 + radius,width,width, color);
    lcd_fillrect(x0, y0 - radius,width,width, color);
    lcd_fillrect(x0 + radius, y0,width,width, color);
    lcd_fillrect(x0 - radius, y0,width,width, color);
    while (x < y) {
    3b4a:	91 91 04 00 	cmp	4(r1),	2(r1)	;0x0004(r1), 0x0002(r1)
    3b4e:	02 00 
    3b50:	93 3b       	jl	$-216    	;abs 0x3a78
        lcd_fillrect(x0 + y, y0 + x,width,width, color);
        lcd_fillrect(x0 - y, y0 + x,width,width, color);
        lcd_fillrect(x0 + y, y0 - x,width,width, color);
        lcd_fillrect(x0 - y,y0 - x,width,width, color);   
    }
}
    3b52:	31 50 0a 00 	add	#10,	r1	;#0x000a
    3b56:	34 41       	pop	r4		
    3b58:	35 41       	pop	r5		
    3b5a:	36 41       	pop	r6		
    3b5c:	37 41       	pop	r7		
    3b5e:	38 41       	pop	r8		
    3b60:	39 41       	pop	r9		
    3b62:	3a 41       	pop	r10		
    3b64:	3b 41       	pop	r11		
    3b66:	30 41       	ret			

00003b68 <lcd_drawpoint>:
        }
    }
}

 void lcd_drawpoint(unsigned char x, unsigned char y, unsigned char color)
{
    3b68:	0b 12       	push	r11		
    3b6a:	0a 12       	push	r10		
    3b6c:	09 12       	push	r9		
    3b6e:	08 12       	push	r8		
    3b70:	48 4e       	mov.b	r14,	r8	
    3b72:	4a 4d       	mov.b	r13,	r10	
    n6100_sendcom2(0x2a, x, x);
    3b74:	79 40 2a 00 	mov.b	#42,	r9	;#0x002a
    3b78:	4d 4f       	mov.b	r15,	r13	
    3b7a:	4e 4f       	mov.b	r15,	r14	
    3b7c:	4f 49       	mov.b	r9,	r15	
    3b7e:	b0 12 8e 37 	call	#0x378e	
    n6100_sendcom2(0x2b, y, y);
    3b82:	7b 40 2b 00 	mov.b	#43,	r11	;#0x002b
    3b86:	4d 48       	mov.b	r8,	r13	
    3b88:	4e 48       	mov.b	r8,	r14	
    3b8a:	4f 4b       	mov.b	r11,	r15	
    3b8c:	b0 12 8e 37 	call	#0x378e	
    
    n6100_send(0x2c, 3);
    3b90:	7e 40 03 00 	mov.b	#3,	r14	;#0x0003
    3b94:	7f 40 2c 00 	mov.b	#44,	r15	;#0x002c
    3b98:	b0 12 10 37 	call	#0x3710	
    n6100_send((unsigned char)color, 1);
    3b9c:	5e 43       	mov.b	#1,	r14	;r3 As==01
    3b9e:	4f 4a       	mov.b	r10,	r15	
    3ba0:	b0 12 10 37 	call	#0x3710	

    
    P5OUT &= ~SDA;
    3ba4:	f2 f0 fd ff 	and.b	#-3,	&0x0031	;#0xfffd
    3ba8:	31 00 
    P5OUT |= CSX;
    3baa:	d2 d3 31 00 	bis.b	#1,	&0x0031	;r3 As==01
    
    n6100_sendcom2(0x2a, 0, 0x83);
    3bae:	7a 40 83 ff 	mov.b	#-125,	r10	;#0xff83
    3bb2:	4d 4a       	mov.b	r10,	r13	
    3bb4:	4e 43       	clr.b	r14		
    3bb6:	4f 49       	mov.b	r9,	r15	
    3bb8:	b0 12 8e 37 	call	#0x378e	
    n6100_sendcom2(0x2b, 0, 0x83);
    3bbc:	4d 4a       	mov.b	r10,	r13	
    3bbe:	4e 43       	clr.b	r14		
    3bc0:	4f 4b       	mov.b	r11,	r15	
    3bc2:	b0 12 8e 37 	call	#0x378e	
}
    3bc6:	38 41       	pop	r8		
    3bc8:	39 41       	pop	r9		
    3bca:	3a 41       	pop	r10		
    3bcc:	3b 41       	pop	r11		
    3bce:	30 41       	ret			

00003bd0 <lcd_drawline>:
        lcd_fillrect(x0 + y, y0 - x,width,width, color);
        lcd_fillrect(x0 - y,y0 - x,width,width, color);   
    }
}

 void lcd_drawline(int x0, int y0, int x1, int y1, unsigned char color) {
    3bd0:	0b 12       	push	r11		
    3bd2:	0a 12       	push	r10		
    3bd4:	09 12       	push	r9		
    3bd6:	08 12       	push	r8		
    3bd8:	07 12       	push	r7		
    3bda:	06 12       	push	r6		
    3bdc:	05 12       	push	r5		
    3bde:	04 12       	push	r4		
    3be0:	21 82       	sub	#4,	r1	;r2 As==10
    3be2:	09 4f       	mov	r15,	r9	
    3be4:	0a 4e       	mov	r14,	r10	
    3be6:	81 4d 00 00 	mov	r13,	0(r1)	;0x0000(r1)
    3bea:	81 4c 02 00 	mov	r12,	2(r1)	;0x0002(r1)
    3bee:	54 41 16 00 	mov.b	22(r1),	r4	;0x0016(r1)
    int dy = y1 - y0;
    3bf2:	05 4c       	mov	r12,	r5	
    3bf4:	05 8e       	sub	r14,	r5	
    int dx = x1 - x0;
    3bf6:	06 4d       	mov	r13,	r6	
    3bf8:	06 8f       	sub	r15,	r6	
    int stepx, stepy;
    if (dy < 0) { 
    3bfa:	05 93       	tst	r5		
    3bfc:	4c 38       	jl	$+154    	;abs 0x3c96
        dy = -dy; 
        stepy = -1; 
    } 
    else { 
        stepy = 1; 
    3bfe:	18 43       	mov	#1,	r8	;r3 As==01
    }
    if (dx < 0) {
    3c00:	06 93       	tst	r6		
    3c02:	45 38       	jl	$+140    	;abs 0x3c8e
        dx = -dx; 
        stepx = -1; 
    } 
    else { 
        stepx = 1; 
    3c04:	17 43       	mov	#1,	r7	;r3 As==01
    }
    dy <<= 1; // dy is now 2*dy
    3c06:	05 55       	rla	r5		
    dx <<= 1; // dx is now 2*dx
    3c08:	06 56       	rla	r6		
    
    lcd_drawpoint(x0, y0, color);
    3c0a:	4d 44       	mov.b	r4,	r13	
    3c0c:	4e 4a       	mov.b	r10,	r14	
    3c0e:	4f 49       	mov.b	r9,	r15	
    3c10:	b0 12 68 3b 	call	#0x3b68	

    if (dx > dy) {
    3c14:	05 96       	cmp	r6,	r5	
    3c16:	21 34       	jge	$+68     	;abs 0x3c5a
        int fraction = dy - (dx >> 1); // same as 2*dy - dx
        while (x0 != x1) {
    3c18:	29 91       	cmp	@r1,	r9	
    3c1a:	15 24       	jz	$+44     	;abs 0x3c46
    dx <<= 1; // dx is now 2*dx
    
    lcd_drawpoint(x0, y0, color);

    if (dx > dy) {
        int fraction = dy - (dx >> 1); // same as 2*dy - dx
    3c1c:	0f 46       	mov	r6,	r15	
    3c1e:	0f 11       	rra	r15		
    3c20:	0b 45       	mov	r5,	r11	
    3c22:	0b 8f       	sub	r15,	r11	
        lcd_fillrect(x0 + y, y0 - x,width,width, color);
        lcd_fillrect(x0 - y,y0 - x,width,width, color);   
    }
}

 void lcd_drawline(int x0, int y0, int x1, int y1, unsigned char color) {
    3c24:	09 57       	add	r7,	r9	
    3c26:	01 3c       	jmp	$+4      	;abs 0x3c2a
            if (fraction >= 0) {
                y0 += stepy;
                fraction -= dx; // same as fraction -= 2*dx
            }
            x0 += stepx;
            fraction += dy; // same as fraction -= 2*dy
    3c28:	0b 55       	add	r5,	r11	
    lcd_drawpoint(x0, y0, color);

    if (dx > dy) {
        int fraction = dy - (dx >> 1); // same as 2*dy - dx
        while (x0 != x1) {
            if (fraction >= 0) {
    3c2a:	0b 93       	tst	r11		
    3c2c:	02 38       	jl	$+6      	;abs 0x3c32
                y0 += stepy;
    3c2e:	0a 58       	add	r8,	r10	
                fraction -= dx; // same as fraction -= 2*dx
    3c30:	0b 86       	sub	r6,	r11	
            }
            x0 += stepx;
            fraction += dy; // same as fraction -= 2*dy
            lcd_drawpoint(x0, y0, color);
    3c32:	4d 44       	mov.b	r4,	r13	
    3c34:	4e 4a       	mov.b	r10,	r14	
    3c36:	4f 49       	mov.b	r9,	r15	
    3c38:	b0 12 68 3b 	call	#0x3b68	
    3c3c:	09 57       	add	r7,	r9	
        lcd_fillrect(x0 + y, y0 - x,width,width, color);
        lcd_fillrect(x0 - y,y0 - x,width,width, color);   
    }
}

 void lcd_drawline(int x0, int y0, int x1, int y1, unsigned char color) {
    3c3e:	0f 49       	mov	r9,	r15	
    3c40:	0f 87       	sub	r7,	r15	
    
    lcd_drawpoint(x0, y0, color);

    if (dx > dy) {
        int fraction = dy - (dx >> 1); // same as 2*dy - dx
        while (x0 != x1) {
    3c42:	2f 91       	cmp	@r1,	r15	
    3c44:	f1 23       	jnz	$-28     	;abs 0x3c28
            y0 += stepy;
            fraction += dx;
            lcd_drawpoint(x0, y0, color);
        }
    }
}
    3c46:	21 52       	add	#4,	r1	;r2 As==10
    3c48:	34 41       	pop	r4		
    3c4a:	35 41       	pop	r5		
    3c4c:	36 41       	pop	r6		
    3c4e:	37 41       	pop	r7		
    3c50:	38 41       	pop	r8		
    3c52:	39 41       	pop	r9		
    3c54:	3a 41       	pop	r10		
    3c56:	3b 41       	pop	r11		
    3c58:	30 41       	ret			
            lcd_drawpoint(x0, y0, color);
        }
    } 
    else {
        int fraction = dx - (dy >> 1);
        while (y0 != y1) {
    3c5a:	81 9a 02 00 	cmp	r10,	2(r1)	;0x0002(r1)
    3c5e:	f3 27       	jz	$-24     	;abs 0x3c46
            fraction += dy; // same as fraction -= 2*dy
            lcd_drawpoint(x0, y0, color);
        }
    } 
    else {
        int fraction = dx - (dy >> 1);
    3c60:	0f 45       	mov	r5,	r15	
    3c62:	0f 11       	rra	r15		
    3c64:	0b 46       	mov	r6,	r11	
    3c66:	0b 8f       	sub	r15,	r11	
        lcd_fillrect(x0 + y, y0 - x,width,width, color);
        lcd_fillrect(x0 - y,y0 - x,width,width, color);   
    }
}

 void lcd_drawline(int x0, int y0, int x1, int y1, unsigned char color) {
    3c68:	0a 58       	add	r8,	r10	
    3c6a:	01 3c       	jmp	$+4      	;abs 0x3c6e
            if (fraction >= 0) {
                x0 += stepx;
                fraction -= dy;
            }
            y0 += stepy;
            fraction += dx;
    3c6c:	0b 56       	add	r6,	r11	
        }
    } 
    else {
        int fraction = dx - (dy >> 1);
        while (y0 != y1) {
            if (fraction >= 0) {
    3c6e:	0b 93       	tst	r11		
    3c70:	02 38       	jl	$+6      	;abs 0x3c76
                x0 += stepx;
    3c72:	09 57       	add	r7,	r9	
                fraction -= dy;
    3c74:	0b 85       	sub	r5,	r11	
            }
            y0 += stepy;
            fraction += dx;
            lcd_drawpoint(x0, y0, color);
    3c76:	4d 44       	mov.b	r4,	r13	
    3c78:	4e 4a       	mov.b	r10,	r14	
    3c7a:	4f 49       	mov.b	r9,	r15	
    3c7c:	b0 12 68 3b 	call	#0x3b68	
    3c80:	0a 58       	add	r8,	r10	
        lcd_fillrect(x0 + y, y0 - x,width,width, color);
        lcd_fillrect(x0 - y,y0 - x,width,width, color);   
    }
}

 void lcd_drawline(int x0, int y0, int x1, int y1, unsigned char color) {
    3c82:	0f 4a       	mov	r10,	r15	
    3c84:	0f 88       	sub	r8,	r15	
            lcd_drawpoint(x0, y0, color);
        }
    } 
    else {
        int fraction = dx - (dy >> 1);
        while (y0 != y1) {
    3c86:	81 9f 02 00 	cmp	r15,	2(r1)	;0x0002(r1)
    3c8a:	f0 23       	jnz	$-30     	;abs 0x3c6c
    3c8c:	dc 3f       	jmp	$-70     	;abs 0x3c46
    } 
    else { 
        stepy = 1; 
    }
    if (dx < 0) {
        dx = -dx; 
    3c8e:	36 e3       	inv	r6		
    3c90:	16 53       	inc	r6		
        stepx = -1; 
    3c92:	37 43       	mov	#-1,	r7	;r3 As==11
    3c94:	b8 3f       	jmp	$-142    	;abs 0x3c06
 void lcd_drawline(int x0, int y0, int x1, int y1, unsigned char color) {
    int dy = y1 - y0;
    int dx = x1 - x0;
    int stepx, stepy;
    if (dy < 0) { 
        dy = -dy; 
    3c96:	35 e3       	inv	r5		
    3c98:	15 53       	inc	r5		
        stepy = -1; 
    3c9a:	38 43       	mov	#-1,	r8	;r3 As==11
    3c9c:	b1 3f       	jmp	$-156    	;abs 0x3c00

00003c9e <lcd_putlogo>:
    n6100_sendcom2(0x2a, 0, 0x83);
    n6100_sendcom2(0x2b, 0, 0x83);
}

void lcd_putlogo(unsigned char x, unsigned char y, unsigned char lx, unsigned char ly, unsigned char p[])
{
    3c9e:	0b 12       	push	r11		
    3ca0:	0a 12       	push	r10		
    3ca2:	09 12       	push	r9		
    3ca4:	08 12       	push	r8		
    3ca6:	48 4e       	mov.b	r14,	r8	
    3ca8:	4b 4d       	mov.b	r13,	r11	
    3caa:	4a 4c       	mov.b	r12,	r10	
    3cac:	19 41 0a 00 	mov	10(r1),	r9	;0x000a(r1)
    unsigned int addr, max;

    n6100_sendcom2(0x2a, x, x+lx-1);
    3cb0:	4d 4f       	mov.b	r15,	r13	
    3cb2:	7d 53       	add.b	#-1,	r13	;r3 As==11
    3cb4:	4d 5b       	add.b	r11,	r13	
    3cb6:	4e 4f       	mov.b	r15,	r14	
    3cb8:	7f 40 2a 00 	mov.b	#42,	r15	;#0x002a
    3cbc:	b0 12 8e 37 	call	#0x378e	
    n6100_sendcom2(0x2b, y, y+ly-1);
    3cc0:	4d 48       	mov.b	r8,	r13	
    3cc2:	7d 53       	add.b	#-1,	r13	;r3 As==11
    3cc4:	4d 5a       	add.b	r10,	r13	
    3cc6:	4e 48       	mov.b	r8,	r14	
    3cc8:	7f 40 2b 00 	mov.b	#43,	r15	;#0x002b
    3ccc:	b0 12 8e 37 	call	#0x378e	
    
    n6100_send(0x2c, 3);
    3cd0:	7e 40 03 00 	mov.b	#3,	r14	;#0x0003
    3cd4:	7f 40 2c 00 	mov.b	#44,	r15	;#0x002c
    3cd8:	b0 12 10 37 	call	#0x3710	
    
    max = lx*ly;
    3cdc:	02 12       	push	r2		
    3cde:	32 c2       	dint			
    3ce0:	03 43       	nop			
    3ce2:	c2 4a 30 01 	mov.b	r10,	&0x0130	
    3ce6:	c2 4b 38 01 	mov.b	r11,	&0x0138	
    3cea:	1a 42 3a 01 	mov	&0x013a,r10	
    3cee:	32 41       	pop	r2		
    for(addr=0; addr<max; addr++)
    3cf0:	0a 93       	tst	r10		
    3cf2:	0a 24       	jz	$+22     	;abs 0x3d08
    3cf4:	0b 43       	clr	r11		
    
    n6100_sendcom2(0x2a, 0, 0x83);
    n6100_sendcom2(0x2b, 0, 0x83);
}

void lcd_putlogo(unsigned char x, unsigned char y, unsigned char lx, unsigned char ly, unsigned char p[])
    3cf6:	0f 49       	mov	r9,	r15	
    3cf8:	0f 5b       	add	r11,	r15	
    n6100_send(0x2c, 3);
    
    max = lx*ly;
    for(addr=0; addr<max; addr++)
    {
        n6100_send(p[addr], 1);
    3cfa:	5e 43       	mov.b	#1,	r14	;r3 As==01
    3cfc:	6f 4f       	mov.b	@r15,	r15	
    3cfe:	b0 12 10 37 	call	#0x3710	
    n6100_sendcom2(0x2b, y, y+ly-1);
    
    n6100_send(0x2c, 3);
    
    max = lx*ly;
    for(addr=0; addr<max; addr++)
    3d02:	1b 53       	inc	r11		
    3d04:	0b 9a       	cmp	r10,	r11	
    3d06:	f7 2b       	jnc	$-16     	;abs 0x3cf6
    {
        n6100_send(p[addr], 1);
    }
    
    P5OUT &= ~SDA;
    3d08:	f2 f0 fd ff 	and.b	#-3,	&0x0031	;#0xfffd
    3d0c:	31 00 
    P5OUT |= CSX;
    3d0e:	d2 d3 31 00 	bis.b	#1,	&0x0031	;r3 As==01
    
    n6100_sendcom2(0x2a, 0, 0x83);
    3d12:	7d 40 83 ff 	mov.b	#-125,	r13	;#0xff83
    3d16:	4e 43       	clr.b	r14		
    3d18:	7f 40 2a 00 	mov.b	#42,	r15	;#0x002a
    3d1c:	b0 12 8e 37 	call	#0x378e	
    n6100_sendcom2(0x2b, 0, 0x83);
    3d20:	7d 40 83 ff 	mov.b	#-125,	r13	;#0xff83
    3d24:	4e 43       	clr.b	r14		
    3d26:	7f 40 2b 00 	mov.b	#43,	r15	;#0x002b
    3d2a:	b0 12 8e 37 	call	#0x378e	
}
    3d2e:	38 41       	pop	r8		
    3d30:	39 41       	pop	r9		
    3d32:	3a 41       	pop	r10		
    3d34:	3b 41       	pop	r11		
    3d36:	30 41       	ret			

00003d38 <lcd_newline>:

void lcd_newline(void)
{
    if (++LCDLineCount == LCD_NLINE){
    3d38:	5f 42 0a 11 	mov.b	&0x110a,r15	
    3d3c:	5f 53       	inc.b	r15		
    3d3e:	c2 4f 0a 11 	mov.b	r15,	&0x110a	
    3d42:	7f 90 10 00 	cmp.b	#16,	r15	;#0x0010
    3d46:	02 20       	jnz	$+6      	;abs 0x3d4c
        LCDLineCount = 0; 
    3d48:	c2 43 0a 11 	mov.b	#0,	&0x110a	;r3 As==00
    }
    LCDCharCount = 0;
    3d4c:	c2 43 0c 11 	mov.b	#0,	&0x110c	;r3 As==00
}
    3d50:	30 41       	ret			

00003d52 <lcd_goto>:

void lcd_goto(unsigned char x, unsigned char y)
{
    if (x > LCD_NCHAR-1) x = 0;
    3d52:	7f 90 15 00 	cmp.b	#21,	r15	;#0x0015
    3d56:	01 28       	jnc	$+4      	;abs 0x3d5a
    3d58:	4f 43       	clr.b	r15		
    if (y > LCD_NLINE-1) y = 0;
    3d5a:	7e 90 10 00 	cmp.b	#16,	r14	;#0x0010
    3d5e:	01 28       	jnc	$+4      	;abs 0x3d62
    3d60:	4e 43       	clr.b	r14		
    
    LCDCharCount = x;
    3d62:	c2 4f 0c 11 	mov.b	r15,	&0x110c	
    LCDLineCount = y;
    3d66:	c2 4e 0a 11 	mov.b	r14,	&0x110a	
}
    3d6a:	30 41       	ret			

00003d6c <lcd_wrchar>:

void lcd_wrchar(unsigned char c)
{
    3d6c:	0b 12       	push	r11		
    3d6e:	0a 12       	push	r10		
    3d70:	09 12       	push	r9		
    3d72:	08 12       	push	r8		
    3d74:	07 12       	push	r7		
    3d76:	4b 4f       	mov.b	r15,	r11	
  unsigned int j;
  unsigned char i, k, v, mask;

  // Posiciona rea para copiar...
  i=6*LCDCharCount;
    3d78:	5e 42 0c 11 	mov.b	&0x110c,r14	
    3d7c:	4e 5e       	rla.b	r14		
    3d7e:	5e 52 0c 11 	add.b	&0x110c,r14	
    3d82:	4e 5e       	rla.b	r14		
  n6100_sendcom2(0x2a, i, i+5);
    3d84:	4d 4e       	mov.b	r14,	r13	
    3d86:	7d 50 05 00 	add.b	#5,	r13	;#0x0005
    3d8a:	7f 40 2a 00 	mov.b	#42,	r15	;#0x002a
    3d8e:	b0 12 8e 37 	call	#0x378e	
  i=8*(LCDLineCount)+2;
    3d92:	5e 42 0a 11 	mov.b	&0x110a,r14	
    3d96:	4e 5e       	rla.b	r14		
    3d98:	4e 5e       	rla.b	r14		
    3d9a:	4e 5e       	rla.b	r14		
  n6100_sendcom2(0x2b, i, i+7);
    3d9c:	4d 4e       	mov.b	r14,	r13	
    3d9e:	7d 50 09 00 	add.b	#9,	r13	;#0x0009
    3da2:	6e 53       	incd.b	r14		
    3da4:	7f 40 2b 00 	mov.b	#43,	r15	;#0x002b
    3da8:	b0 12 8e 37 	call	#0x378e	

  // Rotina de escrita na memria...
  mask = 0x01;
  n6100_send(0x2c,2);
    3dac:	6e 43       	mov.b	#2,	r14	;r3 As==10
    3dae:	7f 40 2c 00 	mov.b	#44,	r15	;#0x002c
    3db2:	b0 12 10 37 	call	#0x3710	
    3db6:	4f 4b       	mov.b	r11,	r15	
    3db8:	09 4f       	mov	r15,	r9	
    3dba:	09 59       	rla	r9		
    3dbc:	09 59       	rla	r9		
    3dbe:	09 5f       	add	r15,	r9	
    3dc0:	78 42       	mov.b	#8,	r8	;r2 As==11
  n6100_sendcom2(0x2a, i, i+5);
  i=8*(LCDLineCount)+2;
  n6100_sendcom2(0x2b, i, i+7);

  // Rotina de escrita na memria...
  mask = 0x01;
    3dc2:	5a 43       	mov.b	#1,	r10	;r3 As==01
    3dc4:	07 49       	mov	r9,	r7	
    3dc6:	37 50 4c 3f 	add	#16204,	r7	;#0x3f4c
    3dca:	39 50 51 3f 	add	#16209,	r9	;#0x3f51
    
    LCDCharCount = x;
    LCDLineCount = y;
}

void lcd_wrchar(unsigned char c)
    3dce:	0b 47       	mov	r7,	r11	
  {
    j = (unsigned int) c * 5;
    for (i=0; i<5; i++)
    {
      v = asciitable[j];
      if(v & mask) n6100_send((unsigned char)LCDForeColor,0); else n6100_send((unsigned char)LCDBackColor,0);
    3dd0:	4e 4a       	mov.b	r10,	r14	
    3dd2:	6e fb       	and.b	@r11,	r14	
    3dd4:	11 24       	jz	$+36     	;abs 0x3df8
    3dd6:	4e 43       	clr.b	r14		
    3dd8:	5f 42 0e 11 	mov.b	&0x110e,r15	
    3ddc:	b0 12 10 37 	call	#0x3710	
    3de0:	1b 53       	inc	r11		
  n6100_send(0x2c,2);

  for (k=0; k<8; k++)
  {
    j = (unsigned int) c * 5;
    for (i=0; i<5; i++)
    3de2:	0b 99       	cmp	r9,	r11	
    3de4:	f5 23       	jnz	$-20     	;abs 0x3dd0
    {
      v = asciitable[j];
      if(v & mask) n6100_send((unsigned char)LCDForeColor,0); else n6100_send((unsigned char)LCDBackColor,0);
      j += 1;
    }
    n6100_send((unsigned char)LCDBackColor,0);
    3de6:	4e 43       	clr.b	r14		
    3de8:	5f 42 00 11 	mov.b	&0x1100,r15	
    3dec:	b0 12 10 37 	call	#0x3710	
    3df0:	78 53       	add.b	#-1,	r8	;r3 As==11

  // Rotina de escrita na memria...
  mask = 0x01;
  n6100_send(0x2c,2);

  for (k=0; k<8; k++)
    3df2:	07 24       	jz	$+16     	;abs 0x3e02
      v = asciitable[j];
      if(v & mask) n6100_send((unsigned char)LCDForeColor,0); else n6100_send((unsigned char)LCDBackColor,0);
      j += 1;
    }
    n6100_send((unsigned char)LCDBackColor,0);
    mask <<= 1;
    3df4:	4a 5a       	rla.b	r10		
    3df6:	eb 3f       	jmp	$-40     	;abs 0x3dce
  {
    j = (unsigned int) c * 5;
    for (i=0; i<5; i++)
    {
      v = asciitable[j];
      if(v & mask) n6100_send((unsigned char)LCDForeColor,0); else n6100_send((unsigned char)LCDBackColor,0);
    3df8:	5f 42 00 11 	mov.b	&0x1100,r15	
    3dfc:	b0 12 10 37 	call	#0x3710	
    3e00:	ef 3f       	jmp	$-32     	;abs 0x3de0
      j += 1;
    }
    n6100_send((unsigned char)LCDBackColor,0);
    mask <<= 1;
  }
}
    3e02:	37 41       	pop	r7		
    3e04:	38 41       	pop	r8		
    3e06:	39 41       	pop	r9		
    3e08:	3a 41       	pop	r10		
    3e0a:	3b 41       	pop	r11		
    3e0c:	30 41       	ret			

00003e0e <lcd_putchar>:

void lcd_putchar(unsigned char c)
{
    3e0e:	4e 4f       	mov.b	r15,	r14	
  switch (c)
    3e10:	7f 90 0a 00 	cmp.b	#10,	r15	;#0x000a
    3e14:	1c 24       	jz	$+58     	;abs 0x3e4e
    3e16:	7f 90 0d 00 	cmp.b	#13,	r15	;#0x000d
    3e1a:	23 24       	jz	$+72     	;abs 0x3e62
  {
    case 10 : lcd_newline();
              break;
    case 13 : LCDCharCount = 0;
              break;
    default : if (LCDCharCount++ < LCD_NCHAR) lcd_wrchar(c);
    3e1c:	5d 42 0c 11 	mov.b	&0x110c,r13	
    3e20:	4c 4d       	mov.b	r13,	r12	
    3e22:	5c 53       	inc.b	r12		
    3e24:	c2 4c 0c 11 	mov.b	r12,	&0x110c	
    3e28:	7d 90 15 00 	cmp.b	#21,	r13	;#0x0015
    3e2c:	20 28       	jnc	$+66     	;abs 0x3e6e
    n6100_sendcom2(0x2b, 0, 0x83);
}

void lcd_newline(void)
{
    if (++LCDLineCount == LCD_NLINE){
    3e2e:	5f 42 0a 11 	mov.b	&0x110a,r15	
    3e32:	5f 53       	inc.b	r15		
    3e34:	c2 4f 0a 11 	mov.b	r15,	&0x110a	
    3e38:	7f 90 10 00 	cmp.b	#16,	r15	;#0x0010
    3e3c:	15 24       	jz	$+44     	;abs 0x3e68
        LCDLineCount = 0; 
    }
    LCDCharCount = 0;
    3e3e:	c2 43 0c 11 	mov.b	#0,	&0x110c	;r3 As==00
              break;
    default : if (LCDCharCount++ < LCD_NCHAR) lcd_wrchar(c);
              else
              {
                lcd_newline();
                lcd_wrchar(c);
    3e42:	4f 4e       	mov.b	r14,	r15	
    3e44:	b0 12 6c 3d 	call	#0x3d6c	
                LCDCharCount++;
    3e48:	d2 53 0c 11 	inc.b	&0x110c	
    3e4c:	30 41       	ret			
    n6100_sendcom2(0x2b, 0, 0x83);
}

void lcd_newline(void)
{
    if (++LCDLineCount == LCD_NLINE){
    3e4e:	5f 42 0a 11 	mov.b	&0x110a,r15	
    3e52:	5f 53       	inc.b	r15		
    3e54:	c2 4f 0a 11 	mov.b	r15,	&0x110a	
    3e58:	7f 90 10 00 	cmp.b	#16,	r15	;#0x0010
    3e5c:	02 20       	jnz	$+6      	;abs 0x3e62
        LCDLineCount = 0; 
    3e5e:	c2 43 0a 11 	mov.b	#0,	&0x110a	;r3 As==00
{
  switch (c)
  {
    case 10 : lcd_newline();
              break;
    case 13 : LCDCharCount = 0;
    3e62:	c2 43 0c 11 	mov.b	#0,	&0x110c	;r3 As==00
              break;
    3e66:	30 41       	ret			
}

void lcd_newline(void)
{
    if (++LCDLineCount == LCD_NLINE){
        LCDLineCount = 0; 
    3e68:	c2 43 0a 11 	mov.b	#0,	&0x110a	;r3 As==00
    3e6c:	e8 3f       	jmp	$-46     	;abs 0x3e3e
  {
    case 10 : lcd_newline();
              break;
    case 13 : LCDCharCount = 0;
              break;
    default : if (LCDCharCount++ < LCD_NCHAR) lcd_wrchar(c);
    3e6e:	b0 12 6c 3d 	call	#0x3d6c	
    3e72:	30 41       	ret			

00003e74 <putchar>:
                         };

// printf para LCDNOKIA
int putchar(int c)
{
    lcd_putchar(c);
    3e74:	b0 12 0e 3e 	call	#0x3e0e	
    return 0;
}
    3e78:	0f 43       	clr	r15		
    3e7a:	30 41       	ret			

00003e7c <lcd_drawprogressbar>:
                LCDCharCount++;
              }
  }
}

void lcd_drawprogressbar(int x, int y, int lx, int ly, unsigned char color, unsigned char colorprogress, int percent){
    3e7c:	0b 12       	push	r11		
    3e7e:	0a 12       	push	r10		
    3e80:	09 12       	push	r9		
    3e82:	08 12       	push	r8		
    3e84:	07 12       	push	r7		
    3e86:	08 4e       	mov	r14,	r8	
    3e88:	09 4d       	mov	r13,	r9	
    if(ly < 1 || lx < 1){
    3e8a:	0d 43       	clr	r13		
    3e8c:	0d 9c       	cmp	r12,	r13	
    3e8e:	2f 34       	jge	$+96     	;abs 0x3eee
    3e90:	0d 99       	cmp	r9,	r13	
    3e92:	2d 34       	jge	$+92     	;abs 0x3eee
    3e94:	1d 41 10 00 	mov	16(r1),	r13	;0x0010(r1)
    3e98:	3e 40 64 00 	mov	#100,	r14	;#0x0064
    3e9c:	0e 9d       	cmp	r13,	r14	
    3e9e:	2f 38       	jl	$+96     	;abs 0x3efe
            if(percent > 100){
                percent = 100;
            }
        }
        int lx_progress = (lx * percent) / 100;
        lcd_fillrect(x, y, lx_progress, ly, color);
    3ea0:	47 4c       	mov.b	r12,	r7	
        else{
            if(percent > 100){
                percent = 100;
            }
        }
        int lx_progress = (lx * percent) / 100;
    3ea2:	0d 93       	tst	r13		
    3ea4:	2a 38       	jl	$+86     	;abs 0x3efa
    3ea6:	02 12       	push	r2		
    3ea8:	32 c2       	dint			
    3eaa:	03 43       	nop			
    3eac:	82 4d 32 01 	mov	r13,	&0x0132	
    3eb0:	82 49 38 01 	mov	r9,	&0x0138	
    3eb4:	1d 42 3a 01 	mov	&0x013a,r13	
    3eb8:	32 41       	pop	r2		
    3eba:	0c 4d       	mov	r13,	r12	
    3ebc:	3a 40 64 00 	mov	#100,	r10	;#0x0064
    3ec0:	b0 12 1c 48 	call	#0x481c	
    3ec4:	0d 4c       	mov	r12,	r13	
        lcd_fillrect(x, y, lx_progress, ly, color);
    3ec6:	4b 4c       	mov.b	r12,	r11	
    3ec8:	4a 4f       	mov.b	r15,	r10	
    3eca:	51 12 0e 00 	push.b	14(r1)		;0x000e(r1)
    3ece:	4c 47       	mov.b	r7,	r12	
    3ed0:	4e 48       	mov.b	r8,	r14	
    3ed2:	b0 12 b4 37 	call	#0x37b4	
    3ed6:	21 53       	incd	r1		
        lcd_fillrect(x + lx_progress, y, lx - lx_progress, ly, colorprogress);
    3ed8:	51 12 10 00 	push.b	16(r1)		;0x0010(r1)
    3edc:	4c 47       	mov.b	r7,	r12	
    3ede:	4d 49       	mov.b	r9,	r13	
    3ee0:	4d 8b       	sub.b	r11,	r13	
    3ee2:	4e 48       	mov.b	r8,	r14	
    3ee4:	4f 4b       	mov.b	r11,	r15	
    3ee6:	4f 5a       	add.b	r10,	r15	
    3ee8:	b0 12 b4 37 	call	#0x37b4	
    3eec:	21 53       	incd	r1		
    }
}
    3eee:	37 41       	pop	r7		
    3ef0:	38 41       	pop	r8		
    3ef2:	39 41       	pop	r9		
    3ef4:	3a 41       	pop	r10		
    3ef6:	3b 41       	pop	r11		
    3ef8:	30 41       	ret			
        else{
            if(percent > 100){
                percent = 100;
            }
        }
        int lx_progress = (lx * percent) / 100;
    3efa:	0d 43       	clr	r13		
    3efc:	d4 3f       	jmp	$-86     	;abs 0x3ea6
              }
  }
}

void lcd_drawprogressbar(int x, int y, int lx, int ly, unsigned char color, unsigned char colorprogress, int percent){
    if(ly < 1 || lx < 1){
    3efe:	0d 4e       	mov	r14,	r13	
            if(percent > 100){
                percent = 100;
            }
        }
        int lx_progress = (lx * percent) / 100;
        lcd_fillrect(x, y, lx_progress, ly, color);
    3f00:	47 4c       	mov.b	r12,	r7	
        else{
            if(percent > 100){
                percent = 100;
            }
        }
        int lx_progress = (lx * percent) / 100;
    3f02:	0d 93       	tst	r13		
    3f04:	d0 37       	jge	$-94     	;abs 0x3ea6
    3f06:	f9 3f       	jmp	$-12     	;abs 0x3efa

00003f08 <lcd_putdot>:
        lcd_fillrect(x + lx_progress, y, lx - lx_progress, ly, colorprogress);
    }
}


void lcd_putdot(int from, int to){
    3f08:	0b 12       	push	r11		
    3f0a:	0a 12       	push	r10		
    3f0c:	0b 4f       	mov	r15,	r11	
    3f0e:	0a 4e       	mov	r14,	r10	
    if(from > to) return;
    3f10:	0e 9f       	cmp	r15,	r14	
    3f12:	17 38       	jl	$+48     	;abs 0x3f42
    lcd_goto(from, LCDLineCount);
    3f14:	5f 42 0a 11 	mov.b	&0x110a,r15	
    3f18:	4e 4b       	mov.b	r11,	r14	
    LCDCharCount = 0;
}

void lcd_goto(unsigned char x, unsigned char y)
{
    if (x > LCD_NCHAR-1) x = 0;
    3f1a:	7b 90 15 00 	cmp.b	#21,	r11	;#0x0015
    3f1e:	01 28       	jnc	$+4      	;abs 0x3f22
    3f20:	4e 43       	clr.b	r14		
    if (y > LCD_NLINE-1) y = 0;
    3f22:	7f 90 10 00 	cmp.b	#16,	r15	;#0x0010
    3f26:	10 2c       	jc	$+34     	;abs 0x3f48
    
    LCDCharCount = x;
    3f28:	c2 4e 0c 11 	mov.b	r14,	&0x110c	
    LCDLineCount = y;
    3f2c:	c2 4f 0a 11 	mov.b	r15,	&0x110a	

void lcd_putdot(int from, int to){
    if(from > to) return;
    lcd_goto(from, LCDLineCount);
    
    while(from < to){
    3f30:	0b 9a       	cmp	r10,	r11	
    3f32:	07 34       	jge	$+16     	;abs 0x3f42
        lcd_putchar('.');
    3f34:	7f 40 2e 00 	mov.b	#46,	r15	;#0x002e
    3f38:	b0 12 0e 3e 	call	#0x3e0e	
        from++;
    3f3c:	1b 53       	inc	r11		

void lcd_putdot(int from, int to){
    if(from > to) return;
    lcd_goto(from, LCDLineCount);
    
    while(from < to){
    3f3e:	0b 9a       	cmp	r10,	r11	
    3f40:	f9 3b       	jl	$-12     	;abs 0x3f34
        lcd_putchar('.');
        from++;
    }
}
    3f42:	3a 41       	pop	r10		
    3f44:	3b 41       	pop	r11		
    3f46:	30 41       	ret			
}

void lcd_goto(unsigned char x, unsigned char y)
{
    if (x > LCD_NCHAR-1) x = 0;
    if (y > LCD_NLINE-1) y = 0;
    3f48:	4f 43       	clr.b	r15		
    3f4a:	ee 3f       	jmp	$-34     	;abs 0x3f28

00003f4c <asciitable>:
    3f4c:	00 00       	bra	@r0		
    3f4e:	00 00       	bra	@r0		
    3f50:	00 3e       	jmp	$-1022   	;abs 0x3b52
    3f52:	0a 34       	jge	$+22     	;abs 0x3f68
    3f54:	00 3e       	jmp	$-1022   	;abs 0x3b56
    3f56:	18 3e       	jmp	$-974    	;abs 0x3b88
    3f58:	00 3e       	jmp	$-1022   	;abs 0x3b5a
    3f5a:	22 00 3e 20 	mova	&0x0203e,r2	
    3f5e:	20 00 22 1c 	bra	&0x01c22	
    3f62:	00 24       	jz	$+2      	;abs 0x3f64
    3f64:	2a 00 08 38 	mova	&0x03808,r10	
    3f68:	38 08 1c 22 	mova	8732(r8),r8	;0x221c(r8)
    3f6c:	22 22       	jnz	$-954    	;abs 0x3bb2
    3f6e:	1c 00       	mova	#0x00000,r12	
    3f70:	38 38       	jl	$+114    	;abs 0x3fe2
    3f72:	44 82       	sub.b	r2,	r4	
    3f74:	1c 3e       	jmp	$-966    	;abs 0x3bae
    3f76:	62 62       	addc.b	#4,	r2	;r2 As==10
    3f78:	32 2e       	jc	$-922    	;abs 0x3bde
    3f7a:	26 23       	jnz	$-434    	;abs 0x3dc8
    3f7c:	23 22       	jnz	$-952    	;abs 0x3bc4
    3f7e:	00 00       	bra	@r0		
    3f80:	00 00       	bra	@r0		
    3f82:	00 1c       	.word	0x1c00;	????	
    3f84:	3e 36       	jge	$-898    	;abs 0x3c02
    3f86:	22 36       	jge	$-954    	;abs 0x3bcc
    3f88:	3e 3e       	jmp	$-898    	;abs 0x3c06
    3f8a:	36 36       	jge	$-914    	;abs 0x3bf8
    3f8c:	36 00 00 00 	mova	0x0000,	r6	;PC rel. 0x03f8e
    3f90:	00 00       	bra	@r0		
    3f92:	18 08       	mova	@r8+,	r8	
    3f94:	1c 22       	jnz	$-966    	;abs 0x3bce
    3f96:	22 63       	addc	#2,	r2	;r3 As==10
    3f98:	55 4d 55 6b 	mov.b	27477(r13),r5	;0x6b55(r13)
    3f9c:	00 3e       	jmp	$-1022   	;abs 0x3b9e
    3f9e:	0a 04       	mova	@r4,	r10	
    3fa0:	78 00 3e 0a 	mova	r0,	2622(r8);0x0a3e(r8)
    3fa4:	04 78       	subc	r8,	r4	
    3fa6:	00 38       	jl	$+2      	;abs 0x3fa8
    3fa8:	44 5f       	add.b	r15,	r4	
    3faa:	4e 00       	rrcm.a	#1,	r14	
    3fac:	38 44       	mov	@r4+,	r8	
    3fae:	44 5f       	add.b	r15,	r4	
    3fb0:	00 3c       	jmp	$+2      	;abs 0x3fb2
    3fb2:	3c 3c       	jmp	$+122    	;abs 0x402c
    3fb4:	3c 00 3e 0a 	mova	0x0a3e,	r12	;PC rel. 0x049f4
    3fb8:	04 78       	subc	r8,	r4	
    3fba:	18 24       	jz	$+50     	;abs 0x3fec
    3fbc:	42 24       	jz	$+134    	;abs 0x4042
    3fbe:	18 18 3c 7e 	subcx	@r14+,	r12	
    3fc2:	3c 18 c0 f0 	andx.a	r0,	0xcf0fc	;PC rel. 0xd30c4
    3fc6:	fc f0 
    3fc8:	c0 03       	bra	#0		;r3 As==00
    3fca:	0f 3f       	jmp	$-480    	;abs 0x3dea
    3fcc:	0f 03       	mova	#2,	r15	;r3 As==10
    3fce:	ff 7e 3c 18 	subc.b	@r14+,	6204(r15);0x183c(r15)
    3fd2:	00 00       	bra	@r0		
    3fd4:	18 3c       	jmp	$+50     	;abs 0x4006
    3fd6:	7e ff       	and.b	@r15+,	r14	
    3fd8:	00 3c       	jmp	$+2      	;abs 0x3fda
    3fda:	20 00 00 08 	bra	&0x00800	
    3fde:	14 00       	mova	#0x00000,r4	
    3fe0:	14 08       	mova	@r8+,	r4	
    3fe2:	08 0c       	mova	@r12,	r8	
    3fe4:	0e 0c       	mova	@r12,	r14	
    3fe6:	08 08       	mova	@r8,	r8	
    3fe8:	18 38       	jl	$+50     	;abs 0x401a
    3fea:	18 08       	mova	@r8+,	r8	
    3fec:	00 00       	bra	@r0		
    3fee:	00 00       	bra	@r0		
    3ff0:	00 00       	bra	@r0		
    3ff2:	00 5f       	add	r15,	r0	
    3ff4:	00 00       	bra	@r0		
    3ff6:	00 07       	bra	@r7		
    3ff8:	00 07       	bra	@r7		
    3ffa:	00 14       	pushm.a	#1,	r0	
    3ffc:	7f 14       	pushm.a	#8,	r15	
    3ffe:	7f 14       	pushm.a	#8,	r15	
    4000:	24 2a       	jnc	$-950    	;abs 0x3c4a
    4002:	7f 2a       	jnc	$-768    	;abs 0x3d02
    4004:	12 23       	jnz	$-474    	;abs 0x3e2a
    4006:	13 08       	.word	0x0813;	????	Illegal as address instr
    4008:	64 62       	addc.b	#4,	r4	;r2 As==10
    400a:	36 49       	mov	@r9+,	r6	
    400c:	55 22       	jnz	$-852    	;abs 0x3cb8
    400e:	50 00       	rrcm	#1,	r0	
    4010:	05 03       	mova	#2,	r5	;r3 As==10
    4012:	00 00       	bra	@r0		
    4014:	00 1c 22 41 	movx	@r1,	r2	
    4018:	00 00       	bra	@r0		
    401a:	41 22       	jnz	$-892    	;abs 0x3c9e
    401c:	1c 00       	mova	#0x00000,r12	
    401e:	14 08       	mova	@r8+,	r4	
    4020:	3e 08 14 08 	mova	2068(r8),r14	;0x0814(r8)
    4024:	08 3e       	jmp	$-1006   	;abs 0x3c36
    4026:	08 08       	mova	@r8,	r8	
    4028:	00 50       	rla	r0		
    402a:	30 00 00 08 	bra	0x0800		;PC rel. 0x0482c
    402e:	08 08       	mova	@r8,	r8	
    4030:	08 08       	mova	@r8,	r8	
    4032:	00 60       	rlc	r0		
    4034:	60 00 00 20 	mova	r0,	&0x02000
    4038:	10 08       	bra	@r8+		
    403a:	04 02       	mova	#4,	r4	;r2 As==10
    403c:	3e 51       	add	@r1+,	r14	
    403e:	49 45       	mov.b	r5,	r9	
    4040:	3e 00 42 7f 	mova	0x7f42,	r14	;PC rel. 0x0bf84
    4044:	40 00       	rrcm.a	#1,	r0	
    4046:	42 61       	addc.b	r1,	r2	
    4048:	51 49 46 21 	mov.b	8518(r9),r1	;0x2146(r9)
    404c:	41 45       	mov.b	r5,	r1	
    404e:	4b 31       	jn	$+664    	;abs 0x42e6
    4050:	18 14       	pushm.a	#2,	r8	
    4052:	12 7f 10 27 	subc	10000(r15),r2	;0x2710(r15)
    4056:	45 45       	mov.b	r5,	r5	
    4058:	45 39       	jl	$+652    	;abs 0x42e4
    405a:	3c 4a       	mov	@r10+,	r12	
    405c:	49 49       	mov.b	r9,	r9	
    405e:	30 01 71 09 	bra	2417(r1)	;0x0971(r1)
    4062:	05 03       	mova	#2,	r5	;r3 As==10
    4064:	36 49       	mov	@r9+,	r6	
    4066:	49 49       	mov.b	r9,	r9	
    4068:	36 06 49 49 	mova	18761(r6),r6	;0x4949(r6)
    406c:	29 1e       	.word	0x1e29;	????	
    406e:	00 36       	jge	$-1022   	;abs 0x3c70
    4070:	36 00 00 00 	mova	0x0000,	r6	;PC rel. 0x04072
    4074:	56 36       	jge	$-850    	;abs 0x3d22
    4076:	00 00       	bra	@r0		
    4078:	08 14       	pushm.a	#1,	r8	
    407a:	22 41       	mov	@r1,	r2	
    407c:	00 14       	pushm.a	#1,	r0	
    407e:	14 14       	pushm.a	#2,	r4	
    4080:	14 14       	pushm.a	#2,	r4	
    4082:	00 41       	br	r1		
    4084:	22 14       	pushm.a	#3,	r2	
    4086:	08 02       	mova	#4,	r8	;r2 As==10
    4088:	01 51       	rla	r1		
    408a:	09 06       	mova	@r6,	r9	
    408c:	32 49       	mov	@r9+,	r2	
    408e:	79 41       	pop.b	r9		
    4090:	3e 7e       	subc	@r14+,	r14	
    4092:	11 11 11 7e 	rra	32273(r1)	;0x7e11(r1)
    4096:	7f 49       	mov.b	@r9+,	r15	
    4098:	49 49       	mov.b	r9,	r9	
    409a:	36 3e       	jmp	$-914    	;abs 0x3d08
    409c:	41 41       	mov.b	r1,	r1	
    409e:	41 22       	jnz	$-892    	;abs 0x3d22
    40a0:	7f 41       	pop.b	r15		
    40a2:	41 22       	jnz	$-892    	;abs 0x3d26
    40a4:	1c 7f 49 49 	subc	18761(r15),r12	;0x4949(r15)
    40a8:	49 41       	mov.b	r1,	r9	
    40aa:	7f 09 09 09 	mova	r9,	2313(r15);0x0909(r15)
    40ae:	01 3e       	jmp	$-1020   	;abs 0x3cb2
    40b0:	41 49       	mov.b	r9,	r1	
    40b2:	49 7a       	subc.b	r10,	r9	
    40b4:	7f 08 08 08 	mova	r8,	2056(r15);0x0808(r15)
    40b8:	7f 00 41 7f 	mova	r0,	32577(r15);0x7f41(r15)
    40bc:	41 00       	rrcm.a	#1,	r1	
    40be:	20 40       	br	@r0		
    40c0:	41 3f       	jmp	$-380    	;abs 0x3f44
    40c2:	01 7f       	subc	r15,	r1	
    40c4:	08 14       	pushm.a	#1,	r8	
    40c6:	22 41       	mov	@r1,	r2	
    40c8:	7f 40 40 40 	mov.b	#16448,	r15	;#0x4040
    40cc:	40 7f       	subc.b	r15,	r0	
    40ce:	02 0c       	mova	@r12,	r2	
    40d0:	02 7f       	subc	r15,	r2	
    40d2:	7f 04 08 10 	mova	r4,	4104(r15);0x1008(r15)
    40d6:	7f 3e       	jmp	$-768    	;abs 0x3dd6
    40d8:	41 41       	mov.b	r1,	r1	
    40da:	41 3e       	jmp	$-892    	;abs 0x3d5e
    40dc:	7f 09 09 09 	mova	r9,	2313(r15);0x0909(r15)
    40e0:	06 3e       	jmp	$-1010   	;abs 0x3cee
    40e2:	41 51       	rla.b	r1		
    40e4:	21 5e       	add	@r14,	r1	
    40e6:	7f 09 19 29 	mova	r9,	10521(r15);0x2919(r15)
    40ea:	46 46       	mov.b	r6,	r6	
    40ec:	49 49       	mov.b	r9,	r9	
    40ee:	49 31       	jn	$+660    	;abs 0x4382
    40f0:	01 01       	mova	@r1,	r1	
    40f2:	7f 01 01 3f 	mova	r1,	16129(r15);0x3f01(r15)
    40f6:	40 40       	br	r0		
    40f8:	40 3f       	jmp	$-382    	;abs 0x3f7a
    40fa:	1f 20       	jnz	$+64     	;abs 0x413a
    40fc:	40 20       	jnz	$+130    	;abs 0x417e
    40fe:	1f 3f       	jmp	$-448    	;abs 0x3f3e
    4100:	40 38       	jl	$+130    	;abs 0x4182
    4102:	40 3f       	jmp	$-382    	;abs 0x3f84
    4104:	63 14       	pushm.a	#7,	#0	;r3 As==00
    4106:	08 14       	pushm.a	#1,	r8	
    4108:	63 07 08 70 	mova	r7,	&0x37008
    410c:	08 07       	mova	@r7,	r8	
    410e:	61 51       	add.b	@r1,	r1	
    4110:	49 45       	mov.b	r5,	r9	
    4112:	43 00       	rrcm.a	#1,	#0	;r3 As==00
    4114:	7f 41       	pop.b	r15		
    4116:	41 00       	rrcm.a	#1,	r1	
    4118:	02 04       	mova	@r4,	r2	
    411a:	08 10       	rrc	r8		
    411c:	20 00 41 41 	bra	&0x04141	
    4120:	7f 00 04 02 	mova	r0,	516(r15);0x0204(r15)
    4124:	01 02       	mova	#4,	r1	;r2 As==10
    4126:	04 40       	mov	r0,	r4	
    4128:	40 40       	br	r0		
    412a:	40 40       	br	r0		
    412c:	00 01       	bra	@r1		
    412e:	02 04       	mova	@r4,	r2	
    4130:	00 20       	jnz	$+2      	;abs 0x4132
    4132:	54 54 54 78 	add.b	30804(r4),r4	;0x7854(r4)
    4136:	7f 48       	mov.b	@r8+,	r15	
    4138:	44 44       	mov.b	r4,	r4	
    413a:	38 38       	jl	$+114    	;abs 0x41ac
    413c:	44 44       	mov.b	r4,	r4	
    413e:	44 20       	jnz	$+138    	;abs 0x41c8
    4140:	38 44       	mov	@r4+,	r8	
    4142:	44 48       	mov.b	r8,	r4	
    4144:	7f 38       	jl	$+256    	;abs 0x4244
    4146:	54 54 54 18 	add.b	6228(r4),r4	;0x1854(r4)
    414a:	08 7e       	subc	r14,	r8	
    414c:	09 01       	mova	@r1,	r9	
    414e:	02 0c       	mova	@r12,	r2	
    4150:	52 52 52 3e 	add.b	&0x3e52,r2	
    4154:	7f 08 04 04 	mova	r8,	1028(r15);0x0404(r15)
    4158:	78 00 44 7d 	mova	r0,	32068(r8);0x7d44(r8)
    415c:	40 00       	rrcm.a	#1,	r0	
    415e:	20 40       	br	@r0		
    4160:	44 3d       	jmp	$+650    	;abs 0x43ea
    4162:	00 7f       	subc	r15,	r0	
    4164:	10 28       	jnc	$+34     	;abs 0x4186
    4166:	44 00       	rrcm.a	#1,	r4	
    4168:	00 41       	br	r1		
    416a:	7f 40 00 7c 	mov.b	#31744,	r15	;#0x7c00
    416e:	04 18 04 78 	.rpt	#4
				subcx	r8,	r4	
    4172:	7c 08 04 04 	mova	r8,	1028(r12);0x0404(r12)
    4176:	78 38       	jl	$+242    	;abs 0x4268
    4178:	44 44       	mov.b	r4,	r4	
    417a:	44 38       	jl	$+138    	;abs 0x4204
    417c:	7c 14       	pushm.a	#8,	r12	
    417e:	14 14       	pushm.a	#2,	r4	
    4180:	08 08       	mova	@r8,	r8	
    4182:	14 14       	pushm.a	#2,	r4	
    4184:	18 7c 7c 08 	subc	2172(r12),r8	;0x087c(r12)
    4188:	04 04       	mova	@r4,	r4	
    418a:	08 48       	mov	r8,	r8	
    418c:	54 54 54 20 	add.b	8276(r4),r4	;0x2054(r4)
    4190:	04 3f       	jmp	$-502    	;abs 0x3f9a
    4192:	44 40       	mov.b	r0,	r4	
    4194:	20 3c       	jmp	$+66     	;abs 0x41d6
    4196:	40 40       	br	r0		
    4198:	20 7c       	subc	@r12,	r0	
    419a:	1c 20       	jnz	$+58     	;abs 0x41d4
    419c:	40 20       	jnz	$+130    	;abs 0x421e
    419e:	1c 3c       	jmp	$+58     	;abs 0x41d8
    41a0:	40 30       	jn	$+130    	;abs 0x4222
    41a2:	40 3c       	jmp	$+130    	;abs 0x4224
    41a4:	44 28       	jnc	$+138    	;abs 0x422e
    41a6:	10 28       	jnc	$+34     	;abs 0x41c8
    41a8:	44 0c       	rrcm.a	#4,	r4	
    41aa:	50 50 50 3c 	add.b	0x3c50,	r0	;PC rel. 0x07dfe
    41ae:	44 64       	rlc.b	r4		
    41b0:	54 4c 44 00 	mov.b	68(r12),r4	;0x0044(r12)
    41b4:	00 36       	jge	$-1022   	;abs 0x3db6
    41b6:	41 00       	rrcm.a	#1,	r1	
    41b8:	00 00       	bra	@r0		
    41ba:	7f 00 00 00 	mova	r0,	0(r15)	;0x0000(r15)
    41be:	41 36       	jge	$-892    	;abs 0x3e42
    41c0:	08 00       	mova	@r0,	r8	
    41c2:	10 08       	bra	@r8+		
    41c4:	08 10       	rrc	r8		
    41c6:	08 78       	subc	r8,	r8	
    41c8:	46 41       	mov.b	r1,	r6	
    41ca:	46 78       	subc.b	r8,	r6	

000041cc <delay2us>:
{
  unsigned int tempo = 6;

  do (tempo--);
  while (tempo != 0);
}
    41cc:	30 41       	ret			

000041ce <delay5us>:
{
  unsigned int tempo = 17;

  do (tempo--);
  while (tempo != 0);
}
    41ce:	30 41       	ret			

000041d0 <delayus>:
//
void delayus(unsigned int tempo)
{
  int i;
    
  for(i = 0; i < tempo; i++) nop();
    41d0:	0f 93       	tst	r15		
    41d2:	05 24       	jz	$+12     	;abs 0x41de
    41d4:	0e 43       	clr	r14		
    41d6:	03 43       	nop			
    41d8:	1e 53       	inc	r14		
    41da:	0e 9f       	cmp	r15,	r14	
    41dc:	fc 2b       	jnc	$-6      	;abs 0x41d6
    41de:	30 41       	ret			

000041e0 <delayms>:
}

// Aproximadamente 1ms...
//
void delayms(unsigned int tempo)
{
    41e0:	0b 12       	push	r11		
    41e2:	0a 12       	push	r10		
    41e4:	0a 4f       	mov	r15,	r10	
  int i;
    
  for(i = 0; i < tempo; i++) delayus(3420);
    41e6:	0f 93       	tst	r15		
    41e8:	08 24       	jz	$+18     	;abs 0x41fa
    41ea:	0b 43       	clr	r11		
    41ec:	3f 40 5c 0d 	mov	#3420,	r15	;#0x0d5c
    41f0:	b0 12 d0 41 	call	#0x41d0	
    41f4:	1b 53       	inc	r11		
    41f6:	0b 9a       	cmp	r10,	r11	
    41f8:	f9 2b       	jnc	$-12     	;abs 0x41ec
}
    41fa:	3a 41       	pop	r10		
    41fc:	3b 41       	pop	r11		
    41fe:	30 41       	ret			

00004200 <set_delay>:

void set_delay(DELAY_INDEX index, unsigned int time){
    TimeDelay[index]=time;
    4200:	0f 5f       	rla	r15		
    4202:	8f 4e 48 11 	mov	r14,	4424(r15);0x1148(r15)
}
    4206:	30 41       	ret			

00004208 <get_delay>:

unsigned char get_delay(DELAY_INDEX index){
    if(TimeDelay[index] == 0){
    4208:	0e 4f       	mov	r15,	r14	
    420a:	0e 5e       	rla	r14		
        return 1;
    420c:	5f 43       	mov.b	#1,	r15	;r3 As==01
    420e:	8e 93 48 11 	tst	4424(r14)	;0x1148(r14)
    4212:	01 24       	jz	$+4      	;abs 0x4216
    4214:	4f 43       	clr.b	r15		
    }
    return 0;
}
    4216:	30 41       	ret			

00004218 <TIMERA1_ISR_HOOK>:


// delay
interrupt (TIMERA1_VECTOR) TIMERA1_ISR_HOOK(void){ // 2ms
    4218:	0f 12       	push	r15		
    421a:	0e 12       	push	r14		
    int i = 0;
    i = TIMEDELAY_LEN;
    421c:	3e 40 07 00 	mov	#7,	r14	;#0x0007
           
    do{
        i--;
    4220:	3e 53       	add	#-1,	r14	;r3 As==11
        if(TimeDelay[i] > 0){
    4222:	0f 4e       	mov	r14,	r15	
    4224:	0f 5f       	rla	r15		
    4226:	3f 50 48 11 	add	#4424,	r15	;#0x1148
    422a:	8f 93 00 00 	tst	0(r15)		;0x0000(r15)
    422e:	02 24       	jz	$+6      	;abs 0x4234
            TimeDelay[i]--;
    4230:	bf 53 00 00 	add	#-1,	0(r15)	;r3 As==11, 0x0000(r15)
        }
    }while(i);
    4234:	0e 93       	tst	r14		
    4236:	f4 23       	jnz	$-22     	;abs 0x4220
    // ver no datasheet se tem q zerar o flag da interrupt
    TACTL &= ~0x01;
    4238:	b2 f0 fe ff 	and	#-2,	&0x0160	;#0xfffe
    423c:	60 01 
}
    423e:	3e 41       	pop	r14		
    4240:	3f 41       	pop	r15		
    4242:	00 13       	reti			

00004244 <analog_init>:

int16 AnalogOffset[8] = {0,0,0,0,0,0,0,0};
int16 AnalogValue[8] = {0,0,0,0,0,0,0,0}; 

void analog_init(void){
    P6SEL = ANALOG_ENABLE;
    4244:	f2 43 37 00 	mov.b	#-1,	&0x0037	;r3 As==11
    
    ADC12CTL0 &= ~ENC;
    4248:	b2 f0 fd ff 	and	#-3,	&0x01a0	;#0xfffd
    424c:	a0 01 
    ADC12CTL0 = REFON + ADC12ON;
    424e:	b2 40 30 00 	mov	#48,	&0x01a0	;#0x0030
    4252:	a0 01 
    ADC12CTL1 = SHP;
    4254:	b2 40 00 02 	mov	#512,	&0x01a2	;#0x0200
    4258:	a2 01 
    ADC12CTL0 |= ENC;
    425a:	a2 d3 a0 01 	bis	#2,	&0x01a0	;r3 As==10
}
    425e:	30 41       	ret			

00004260 <analog_calibrate_channel>:

void analog_calibrate_channel(int i){
    4260:	0b 12       	push	r11		
    4262:	0a 12       	push	r10		
    4264:	09 12       	push	r9		
    4266:	08 12       	push	r8		
    4268:	07 12       	push	r7		
    426a:	06 12       	push	r6		
    426c:	05 12       	push	r5		
    426e:	04 12       	push	r4		
    4270:	04 4f       	mov	r15,	r4	
    int k = 0;
    long Soma = 0;
    
    if((0x01 << i) & P6SEL){
    4272:	5e 42 37 00 	mov.b	&0x0037,r14	
    4276:	0f 93       	tst	r15		
    4278:	03 24       	jz	$+8      	;abs 0x4280
    427a:	0e 11       	rra	r14		
    427c:	1f 83       	dec	r15		
    427e:	fd 23       	jnz	$-4      	;abs 0x427a
    4280:	1e f3       	and	#1,	r14	;r3 As==01
    4282:	27 24       	jz	$+80     	;abs 0x42d2
    4284:	45 44       	mov.b	r4,	r5	
    4286:	36 40 64 00 	mov	#100,	r6	;#0x0064
    428a:	09 43       	clr	r9		
    428c:	0a 43       	clr	r10		
        Soma = 0;
        for(k = 0; k < 100; k++ ){
            ADC12CTL0 &= ~ENC;
    428e:	b2 f0 fd ff 	and	#-3,	&0x01a0	;#0xfffd
    4292:	a0 01 
            ADC12MCTL0 = i;
    4294:	c2 45 80 00 	mov.b	r5,	&0x0080	
            ADC12CTL0 |= ENC;
    4298:	a2 d3 a0 01 	bis	#2,	&0x01a0	;r3 As==10
            ADC12CTL0 |= ADC12SC;
    429c:	92 d3 a0 01 	bis	#1,	&0x01a0	;r3 As==01
            while(ADC12CTL1 & ADC12BUSY);
    42a0:	1b 42 a2 01 	mov	&0x01a2,r11	
    42a4:	1b f3       	and	#1,	r11	;r3 As==01
    42a6:	fc 23       	jnz	$-6      	;abs 0x42a0
            delayms(1);
    42a8:	1f 43       	mov	#1,	r15	;r3 As==01
    42aa:	b0 12 e0 41 	call	#0x41e0	
            Soma += ADC12MEM0;
    42ae:	17 42 40 01 	mov	&0x0140,r7	
    42b2:	08 4b       	mov	r11,	r8	
    42b4:	09 57       	add	r7,	r9	
    42b6:	0a 68       	addc	r8,	r10	
    42b8:	36 53       	add	#-1,	r6	;r3 As==11
    int k = 0;
    long Soma = 0;
    
    if((0x01 << i) & P6SEL){
        Soma = 0;
        for(k = 0; k < 100; k++ ){
    42ba:	06 9b       	cmp	r11,	r6	
    42bc:	e8 23       	jnz	$-46     	;abs 0x428e
            ADC12CTL0 |= ADC12SC;
            while(ADC12CTL1 & ADC12BUSY);
            delayms(1);
            Soma += ADC12MEM0;
        }
        AnalogOffset[i] = (int16)(Soma / 100);
    42be:	04 54       	rla	r4		
    42c0:	0c 49       	mov	r9,	r12	
    42c2:	0d 4a       	mov	r10,	r13	
    42c4:	3a 40 64 00 	mov	#100,	r10	;#0x0064
    42c8:	0b 43       	clr	r11		
    42ca:	b0 12 52 48 	call	#0x4852	
    42ce:	84 4c 10 11 	mov	r12,	4368(r4);0x1110(r4)
    }
}
    42d2:	34 41       	pop	r4		
    42d4:	35 41       	pop	r5		
    42d6:	36 41       	pop	r6		
    42d8:	37 41       	pop	r7		
    42da:	38 41       	pop	r8		
    42dc:	39 41       	pop	r9		
    42de:	3a 41       	pop	r10		
    42e0:	3b 41       	pop	r11		
    42e2:	30 41       	ret			

000042e4 <analog_refresh_all>:

inline void analog_refresh_all(void){
    int i;
    for(i = 0; i < 8; i++){
    42e4:	3d 40 20 11 	mov	#4384,	r13	;#0x1120
    42e8:	0e 43       	clr	r14		
        if((0x01 << i) & P6SEL){
    42ea:	5f 42 37 00 	mov.b	&0x0037,r15	
    42ee:	0c 4e       	mov	r14,	r12	
    42f0:	0c 93       	tst	r12		
    42f2:	03 24       	jz	$+8      	;abs 0x42fa
    42f4:	0f 11       	rra	r15		
    42f6:	1c 83       	dec	r12		
    42f8:	fd 23       	jnz	$-4      	;abs 0x42f4
    42fa:	1f f3       	and	#1,	r15	;r3 As==01
    42fc:	14 24       	jz	$+42     	;abs 0x4326
            ADC12CTL0 &= ~ENC;
    42fe:	b2 f0 fd ff 	and	#-3,	&0x01a0	;#0xfffd
    4302:	a0 01 
            ADC12MCTL0 = i;
    4304:	c2 4e 80 00 	mov.b	r14,	&0x0080	
            ADC12CTL0 |= ENC;
    4308:	a2 d3 a0 01 	bis	#2,	&0x01a0	;r3 As==10
            ADC12CTL0 |= ADC12SC;
    430c:	92 d3 a0 01 	bis	#1,	&0x01a0	;r3 As==01
            while(ADC12CTL1 & ADC12BUSY);
    4310:	92 b3 a2 01 	bit	#1,	&0x01a2	;r3 As==01
    4314:	fd 23       	jnz	$-4      	;abs 0x4310
            AnalogValue[i] = ADC12MEM0;   
    4316:	9d 42 40 01 	mov	&0x0140,0(r13)	;0x0000(r13)
    431a:	00 00 
    }
}

inline void analog_refresh_all(void){
    int i;
    for(i = 0; i < 8; i++){
    431c:	1e 53       	inc	r14		
    431e:	2d 53       	incd	r13		
    4320:	3e 92       	cmp	#8,	r14	;r2 As==11
    4322:	e3 23       	jnz	$-56     	;abs 0x42ea
        }
        else{
            AnalogValue[i] = 0;
        }
    }
}
    4324:	30 41       	ret			
            ADC12CTL0 |= ADC12SC;
            while(ADC12CTL1 & ADC12BUSY);
            AnalogValue[i] = ADC12MEM0;   
        }
        else{
            AnalogValue[i] = 0;
    4326:	8d 4f 00 00 	mov	r15,	0(r13)	;0x0000(r13)
    432a:	f8 3f       	jmp	$-14     	;abs 0x431c

0000432c <analog_refresh_channel>:
        }
    }
}

inline void analog_refresh_channel(int i){
    if((0x01 << i) & P6SEL){
    432c:	5e 42 37 00 	mov.b	&0x0037,r14	
    4330:	0d 4f       	mov	r15,	r13	
    4332:	0d 93       	tst	r13		
    4334:	03 24       	jz	$+8      	;abs 0x433c
    4336:	0e 11       	rra	r14		
    4338:	1d 83       	dec	r13		
    433a:	fd 23       	jnz	$-4      	;abs 0x4336
    433c:	1e f3       	and	#1,	r14	;r3 As==01
    433e:	11 24       	jz	$+36     	;abs 0x4362
        ADC12CTL0 &= ~ENC;
    4340:	b2 f0 fd ff 	and	#-3,	&0x01a0	;#0xfffd
    4344:	a0 01 
        ADC12MCTL0 = i;
    4346:	c2 4f 80 00 	mov.b	r15,	&0x0080	
        ADC12CTL0 |= ENC;
    434a:	a2 d3 a0 01 	bis	#2,	&0x01a0	;r3 As==10
        ADC12CTL0 |= ADC12SC;
    434e:	92 d3 a0 01 	bis	#1,	&0x01a0	;r3 As==01
        while(ADC12CTL1 & ADC12BUSY);
    4352:	92 b3 a2 01 	bit	#1,	&0x01a2	;r3 As==01
    4356:	fd 23       	jnz	$-4      	;abs 0x4352
        AnalogValue[i] = ADC12MEM0;   
    4358:	0f 5f       	rla	r15		
    435a:	9f 42 40 01 	mov	&0x0140,4384(r15);0x1120(r15)
    435e:	20 11 
    4360:	30 41       	ret			
    }
    else{
        AnalogValue[i] = 0;
    4362:	0f 5f       	rla	r15		
    4364:	8f 4e 20 11 	mov	r14,	4384(r15);0x1120(r15)
    4368:	30 41       	ret			

0000436a <printf>:
    436a:	0d 41       	mov	r1,	r13	
    436c:	2d 52       	add	#4,	r13	;r2 As==10
    436e:	1e 41 02 00 	mov	2(r1),	r14	;0x0002(r1)
    4372:	3f 40 74 3e 	mov	#15988,	r15	;#0x3e74
    4376:	b0 12 96 44 	call	#0x4496	
    437a:	30 41       	ret			

0000437c <vprintf>:
    437c:	0d 4e       	mov	r14,	r13	
    437e:	0e 4f       	mov	r15,	r14	
    4380:	3f 40 74 3e 	mov	#15988,	r15	;#0x3e74
    4384:	b0 12 96 44 	call	#0x4496	
    4388:	30 41       	ret			

0000438a <print_field>:
    438a:	0b 12       	push	r11		
    438c:	0a 12       	push	r10		
    438e:	09 12       	push	r9		
    4390:	08 12       	push	r8		
    4392:	07 12       	push	r7		
    4394:	06 12       	push	r6		
    4396:	05 12       	push	r5		
    4398:	04 12       	push	r4		
    439a:	21 83       	decd	r1		
    439c:	0a 4f       	mov	r15,	r10	
    439e:	08 4e       	mov	r14,	r8	
    43a0:	07 4d       	mov	r13,	r7	
    43a2:	0f 4c       	mov	r12,	r15	
    43a4:	8f 10       	swpb	r15		
    43a6:	8f 11       	sxt	r15		
    43a8:	4d 4c       	mov.b	r12,	r13	
    43aa:	4e 4c       	mov.b	r12,	r14	
    43ac:	7e f0 10 00 	and.b	#16,	r14	;#0x0010
    43b0:	10 24       	jz	$+34     	;abs 0x43d2
    43b2:	f1 40 30 00 	mov.b	#48,	0(r1)	;#0x0030, 0x0000(r1)
    43b6:	00 00 
    43b8:	7d f0 40 00 	and.b	#64,	r13	;#0x0040
    43bc:	03 24       	jz	$+8      	;abs 0x43c4
    43be:	7f 40 58 00 	mov.b	#88,	r15	;#0x0058
    43c2:	02 3c       	jmp	$+6      	;abs 0x43c8
    43c4:	7f 40 78 00 	mov.b	#120,	r15	;#0x0078
    43c8:	c1 4f 01 00 	mov.b	r15,	1(r1)	;0x0001(r1)
    43cc:	06 41       	mov	r1,	r6	
    43ce:	26 53       	incd	r6		
    43d0:	08 3c       	jmp	$+18     	;abs 0x43e2
    43d2:	4f 9e       	cmp.b	r14,	r15	
    43d4:	05 24       	jz	$+12     	;abs 0x43e0
    43d6:	c1 4f 00 00 	mov.b	r15,	0(r1)	;0x0000(r1)
    43da:	06 41       	mov	r1,	r6	
    43dc:	16 53       	inc	r6		
    43de:	01 3c       	jmp	$+4      	;abs 0x43e2
    43e0:	06 41       	mov	r1,	r6	
    43e2:	06 81       	sub	r1,	r6	
    43e4:	6c b2       	bit.b	#4,	r12	;r2 As==10
    43e6:	2b 20       	jnz	$+88     	;abs 0x443e
    43e8:	0f 48       	mov	r8,	r15	
    43ea:	3f 53       	add	#-1,	r15	;r3 As==11
    43ec:	1f 53       	inc	r15		
    43ee:	cf 93 00 00 	tst.b	0(r15)		;0x0000(r15)
    43f2:	fc 23       	jnz	$-6      	;abs 0x43ec
    43f4:	05 4f       	mov	r15,	r5	
    43f6:	05 88       	sub	r8,	r5	
    43f8:	07 96       	cmp	r6,	r7	
    43fa:	02 28       	jnc	$+6      	;abs 0x4400
    43fc:	07 86       	sub	r6,	r7	
    43fe:	01 3c       	jmp	$+4      	;abs 0x4402
    4400:	07 43       	clr	r7		
    4402:	7c f0 20 00 	and.b	#32,	r12	;#0x0020
    4406:	0e 24       	jz	$+30     	;abs 0x4424
    4408:	09 43       	clr	r9		
    440a:	06 3c       	jmp	$+14     	;abs 0x4418
    440c:	0f 41       	mov	r1,	r15	
    440e:	0f 59       	add	r9,	r15	
    4410:	6f 4f       	mov.b	@r15,	r15	
    4412:	8f 11       	sxt	r15		
    4414:	19 53       	inc	r9		
    4416:	8a 12       	call	r10		
    4418:	09 96       	cmp	r6,	r9	
    441a:	f8 3b       	jl	$-14     	;abs 0x440c
    441c:	0b 46       	mov	r6,	r11	
    441e:	74 40 30 00 	mov.b	#48,	r4	;#0x0030
    4422:	0a 3c       	jmp	$+22     	;abs 0x4438
    4424:	74 40 20 00 	mov.b	#32,	r4	;#0x0020
    4428:	09 43       	clr	r9		
    442a:	0b 49       	mov	r9,	r11	
    442c:	05 3c       	jmp	$+12     	;abs 0x4438
    442e:	4f 44       	mov.b	r4,	r15	
    4430:	8f 11       	sxt	r15		
    4432:	8a 12       	call	r10		
    4434:	1b 53       	inc	r11		
    4436:	15 53       	inc	r5		
    4438:	05 97       	cmp	r7,	r5	
    443a:	f9 2b       	jnc	$-12     	;abs 0x442e
    443c:	02 3c       	jmp	$+6      	;abs 0x4442
    443e:	09 43       	clr	r9		
    4440:	0b 49       	mov	r9,	r11	
    4442:	09 51       	add	r1,	r9	
    4444:	05 3c       	jmp	$+12     	;abs 0x4450
    4446:	1b 53       	inc	r11		
    4448:	6f 49       	mov.b	@r9,	r15	
    444a:	8f 11       	sxt	r15		
    444c:	8a 12       	call	r10		
    444e:	19 53       	inc	r9		
    4450:	0f 49       	mov	r9,	r15	
    4452:	0f 81       	sub	r1,	r15	
    4454:	0f 96       	cmp	r6,	r15	
    4456:	f7 3b       	jl	$-16     	;abs 0x4446
    4458:	05 3c       	jmp	$+12     	;abs 0x4464
    445a:	6f 48       	mov.b	@r8,	r15	
    445c:	8f 11       	sxt	r15		
    445e:	8a 12       	call	r10		
    4460:	18 53       	inc	r8		
    4462:	1b 53       	inc	r11		
    4464:	c8 93 00 00 	tst.b	0(r8)		;0x0000(r8)
    4468:	f8 23       	jnz	$-14     	;abs 0x445a
    446a:	04 3c       	jmp	$+10     	;abs 0x4474
    446c:	3f 40 20 00 	mov	#32,	r15	;#0x0020
    4470:	8a 12       	call	r10		
    4472:	1b 53       	inc	r11		
    4474:	0b 97       	cmp	r7,	r11	
    4476:	fa 2b       	jnc	$-10     	;abs 0x446c
    4478:	0f 4b       	mov	r11,	r15	
    447a:	21 53       	incd	r1		
    447c:	34 41       	pop	r4		
    447e:	35 41       	pop	r5		
    4480:	36 41       	pop	r6		
    4482:	37 41       	pop	r7		
    4484:	38 41       	pop	r8		
    4486:	39 41       	pop	r9		
    4488:	3a 41       	pop	r10		
    448a:	3b 41       	pop	r11		
    448c:	30 41       	ret			
    448e:	28 6e       	addc	@r14,	r8	
    4490:	75 6c       	addc.b	@r12+,	r5	
    4492:	6c 29       	jnc	$+730    	;abs 0x476c
	...

00004496 <vuprintf>:
    4496:	0b 12       	push	r11		
    4498:	0a 12       	push	r10		
    449a:	09 12       	push	r9		
    449c:	08 12       	push	r8		
    449e:	07 12       	push	r7		
    44a0:	06 12       	push	r6		
    44a2:	05 12       	push	r5		
    44a4:	04 12       	push	r4		
    44a6:	31 50 de ff 	add	#-34,	r1	;#0xffde
    44aa:	81 4f 18 00 	mov	r15,	24(r1)	;0x0018(r1)
    44ae:	81 4e 1a 00 	mov	r14,	26(r1)	;0x001a(r1)
    44b2:	81 4d 0e 00 	mov	r13,	14(r1)	;0x000e(r1)
    44b6:	81 43 10 00 	mov	#0,	16(r1)	;r3 As==00, 0x0010(r1)
    44ba:	1a 41 10 00 	mov	16(r1),	r10	;0x0010(r1)
    44be:	81 4a 12 00 	mov	r10,	18(r1)	;0x0012(r1)
    44c2:	30 40 d8 47 	br	#0x47d8	
    44c6:	0a 93       	tst	r10		
    44c8:	0b 20       	jnz	$+24     	;abs 0x44e0
    44ca:	7e 90 25 00 	cmp.b	#37,	r14	;#0x0025
    44ce:	02 24       	jz	$+6      	;abs 0x44d4
    44d0:	30 40 c2 47 	br	#0x47c2	
    44d4:	81 4a 00 00 	mov	r10,	0(r1)	;0x0000(r1)
    44d8:	81 4a 10 00 	mov	r10,	16(r1)	;0x0010(r1)
    44dc:	30 40 d2 47 	br	#0x47d2	
    44e0:	7e 90 63 00 	cmp.b	#99,	r14	;#0x0063
    44e4:	a3 24       	jz	$+328    	;abs 0x462c
    44e6:	7f 40 63 00 	mov.b	#99,	r15	;#0x0063
    44ea:	4f 9e       	cmp.b	r14,	r15	
    44ec:	2a 38       	jl	$+86     	;abs 0x4542
    44ee:	7e 90 30 00 	cmp.b	#48,	r14	;#0x0030
    44f2:	78 24       	jz	$+242    	;abs 0x45e4
    44f4:	7f 50 cd ff 	add.b	#-51,	r15	;#0xffcd
    44f8:	4f 9e       	cmp.b	r14,	r15	
    44fa:	19 38       	jl	$+52     	;abs 0x452e
    44fc:	7e 90 2a 00 	cmp.b	#42,	r14	;#0x002a
    4500:	5b 24       	jz	$+184    	;abs 0x45b8
    4502:	7f 50 fa ff 	add.b	#-6,	r15	;#0xfffa
    4506:	4f 9e       	cmp.b	r14,	r15	
    4508:	09 38       	jl	$+20     	;abs 0x451c
    450a:	7e 90 20 00 	cmp.b	#32,	r14	;#0x0020
    450e:	49 24       	jz	$+148    	;abs 0x45a2
    4510:	7e 90 23 00 	cmp.b	#35,	r14	;#0x0023
    4514:	02 24       	jz	$+6      	;abs 0x451a
    4516:	30 40 c2 47 	br	#0x47c2	
    451a:	32 3c       	jmp	$+102    	;abs 0x4580
    451c:	7e 90 2b 00 	cmp.b	#43,	r14	;#0x002b
    4520:	3b 24       	jz	$+120    	;abs 0x4598
    4522:	7e 90 2d 00 	cmp.b	#45,	r14	;#0x002d
    4526:	02 24       	jz	$+6      	;abs 0x452c
    4528:	30 40 c2 47 	br	#0x47c2	
    452c:	31 3c       	jmp	$+100    	;abs 0x4590
    452e:	7f 40 39 00 	mov.b	#57,	r15	;#0x0039
    4532:	4f 9e       	cmp.b	r14,	r15	
    4534:	6c 34       	jge	$+218    	;abs 0x460e
    4536:	7e 90 58 00 	cmp.b	#88,	r14	;#0x0058
    453a:	02 24       	jz	$+6      	;abs 0x4540
    453c:	30 40 c2 47 	br	#0x47c2	
    4540:	a9 3c       	jmp	$+340    	;abs 0x4694
    4542:	7e 90 70 00 	cmp.b	#112,	r14	;#0x0070
    4546:	8f 24       	jz	$+288    	;abs 0x4666
    4548:	7f 40 70 00 	mov.b	#112,	r15	;#0x0070
    454c:	4f 9e       	cmp.b	r14,	r15	
    454e:	0c 38       	jl	$+26     	;abs 0x4568
    4550:	7e 90 69 00 	cmp.b	#105,	r14	;#0x0069
    4554:	a3 24       	jz	$+328    	;abs 0x469c
    4556:	7e 90 6c 00 	cmp.b	#108,	r14	;#0x006c
    455a:	16 24       	jz	$+46     	;abs 0x4588
    455c:	7e 90 64 00 	cmp.b	#100,	r14	;#0x0064
    4560:	02 24       	jz	$+6      	;abs 0x4566
    4562:	30 40 c2 47 	br	#0x47c2	
    4566:	9a 3c       	jmp	$+310    	;abs 0x469c
    4568:	7e 90 75 00 	cmp.b	#117,	r14	;#0x0075
    456c:	99 24       	jz	$+308    	;abs 0x46a0
    456e:	7e 90 78 00 	cmp.b	#120,	r14	;#0x0078
    4572:	99 24       	jz	$+308    	;abs 0x46a6
    4574:	7e 90 73 00 	cmp.b	#115,	r14	;#0x0073
    4578:	02 24       	jz	$+6      	;abs 0x457e
    457a:	30 40 c2 47 	br	#0x47c2	
    457e:	5d 3c       	jmp	$+188    	;abs 0x463a
    4580:	f1 d2 00 00 	bis.b	#8,	0(r1)	;r2 As==11, 0x0000(r1)
    4584:	30 40 d2 47 	br	#0x47d2	
    4588:	d1 d3 00 00 	bis.b	#1,	0(r1)	;r3 As==01, 0x0000(r1)
    458c:	30 40 d2 47 	br	#0x47d2	
    4590:	e1 d2 00 00 	bis.b	#4,	0(r1)	;r2 As==10, 0x0000(r1)
    4594:	30 40 d2 47 	br	#0x47d2	
    4598:	f1 40 2b 00 	mov.b	#43,	1(r1)	;#0x002b, 0x0001(r1)
    459c:	01 00 
    459e:	30 40 d2 47 	br	#0x47d2	
    45a2:	f1 90 2b 00 	cmp.b	#43,	1(r1)	;#0x002b, 0x0001(r1)
    45a6:	01 00 
    45a8:	02 20       	jnz	$+6      	;abs 0x45ae
    45aa:	30 40 d2 47 	br	#0x47d2	
    45ae:	f1 40 20 00 	mov.b	#32,	1(r1)	;#0x0020, 0x0001(r1)
    45b2:	01 00 
    45b4:	30 40 d2 47 	br	#0x47d2	
    45b8:	1c 41 0e 00 	mov	14(r1),	r12	;0x000e(r1)
    45bc:	2c 53       	incd	r12		
    45be:	1f 41 0e 00 	mov	14(r1),	r15	;0x000e(r1)
    45c2:	2e 4f       	mov	@r15,	r14	
    45c4:	0e 93       	tst	r14		
    45c6:	03 38       	jl	$+8      	;abs 0x45ce
    45c8:	81 4e 10 00 	mov	r14,	16(r1)	;0x0010(r1)
    45cc:	07 3c       	jmp	$+16     	;abs 0x45dc
    45ce:	e1 d2 00 00 	bis.b	#4,	0(r1)	;r2 As==10, 0x0000(r1)
    45d2:	3e e3       	inv	r14		
    45d4:	81 4e 10 00 	mov	r14,	16(r1)	;0x0010(r1)
    45d8:	91 53 10 00 	inc	16(r1)		;0x0010(r1)
    45dc:	81 4c 0e 00 	mov	r12,	14(r1)	;0x000e(r1)
    45e0:	30 40 d2 47 	br	#0x47d2	
    45e4:	81 93 10 00 	tst	16(r1)		;0x0010(r1)
    45e8:	12 20       	jnz	$+38     	;abs 0x460e
    45ea:	6b 41       	mov.b	@r1,	r11	
    45ec:	6b f2       	and.b	#4,	r11	;r2 As==10
    45ee:	5a 43       	mov.b	#1,	r10	;r3 As==01
    45f0:	02 24       	jz	$+6      	;abs 0x45f6
    45f2:	5a 41 10 00 	mov.b	16(r1),	r10	;0x0010(r1)
    45f6:	5a f3       	and.b	#1,	r10	;r3 As==01
    45f8:	4a 5a       	rla.b	r10		
    45fa:	4a 5a       	rla.b	r10		
    45fc:	4a 5a       	rla.b	r10		
    45fe:	4a 5a       	rla.b	r10		
    4600:	4a 5a       	rla.b	r10		
    4602:	6b 41       	mov.b	@r1,	r11	
    4604:	7b f0 df ff 	and.b	#-33,	r11	;#0xffdf
    4608:	4b da       	bis.b	r10,	r11	
    460a:	c1 4b 00 00 	mov.b	r11,	0(r1)	;0x0000(r1)
    460e:	1b 41 10 00 	mov	16(r1),	r11	;0x0010(r1)
    4612:	0b 5b       	rla	r11		
    4614:	0b 5b       	rla	r11		
    4616:	1b 51 10 00 	add	16(r1),	r11	;0x0010(r1)
    461a:	0b 5b       	rla	r11		
    461c:	8e 11       	sxt	r14		
    461e:	3e 50 d0 ff 	add	#-48,	r14	;#0xffd0
    4622:	81 4e 10 00 	mov	r14,	16(r1)	;0x0010(r1)
    4626:	81 5b 10 00 	add	r11,	16(r1)	;0x0010(r1)
    462a:	d3 3c       	jmp	$+424    	;abs 0x47d2
    462c:	1f 41 0e 00 	mov	14(r1),	r15	;0x000e(r1)
    4630:	6e 4f       	mov.b	@r15,	r14	
    4632:	2f 53       	incd	r15		
    4634:	81 4f 0e 00 	mov	r15,	14(r1)	;0x000e(r1)
    4638:	c4 3c       	jmp	$+394    	;abs 0x47c2
    463a:	1b 41 0e 00 	mov	14(r1),	r11	;0x000e(r1)
    463e:	2b 53       	incd	r11		
    4640:	1f 41 0e 00 	mov	14(r1),	r15	;0x000e(r1)
    4644:	2e 4f       	mov	@r15,	r14	
    4646:	0e 93       	tst	r14		
    4648:	02 20       	jnz	$+6      	;abs 0x464e
    464a:	3e 40 8e 44 	mov	#17550,	r14	;#0x448e
    464e:	2c 41       	mov	@r1,	r12	
    4650:	1d 41 10 00 	mov	16(r1),	r13	;0x0010(r1)
    4654:	1f 41 18 00 	mov	24(r1),	r15	;0x0018(r1)
    4658:	b0 12 8a 43 	call	#0x438a	
    465c:	81 5f 12 00 	add	r15,	18(r1)	;0x0012(r1)
    4660:	81 4b 0e 00 	mov	r11,	14(r1)	;0x000e(r1)
    4664:	b4 3c       	jmp	$+362    	;abs 0x47ce
    4666:	1f 41 0e 00 	mov	14(r1),	r15	;0x000e(r1)
    466a:	a1 4f 14 00 	mov	@r15,	20(r1)	;0x0014(r1)
    466e:	1f 41 14 00 	mov	20(r1),	r15	;0x0014(r1)
    4672:	8f 10       	swpb	r15		
    4674:	8f 11       	sxt	r15		
    4676:	8f 10       	swpb	r15		
    4678:	8f 11       	sxt	r15		
    467a:	81 4f 16 00 	mov	r15,	22(r1)	;0x0016(r1)
    467e:	15 41 14 00 	mov	20(r1),	r5	;0x0014(r1)
    4682:	16 41 16 00 	mov	22(r1),	r6	;0x0016(r1)
    4686:	35 f3       	and	#-1,	r5	;r3 As==11
    4688:	06 f3       	and	#0,	r6	;r3 As==00
    468a:	f1 d2 00 00 	bis.b	#8,	0(r1)	;r2 As==11, 0x0000(r1)
    468e:	a1 53 0e 00 	incd	14(r1)		;0x000e(r1)
    4692:	30 3c       	jmp	$+98     	;abs 0x46f4
    4694:	f1 d0 40 00 	bis.b	#64,	0(r1)	;#0x0040, 0x0000(r1)
    4698:	00 00 
    469a:	05 3c       	jmp	$+12     	;abs 0x46a6
    469c:	e1 d3 00 00 	bis.b	#2,	0(r1)	;r3 As==10, 0x0000(r1)
    46a0:	34 40 0a 00 	mov	#10,	r4	;#0x000a
    46a4:	02 3c       	jmp	$+6      	;abs 0x46aa
    46a6:	34 40 10 00 	mov	#16,	r4	;#0x0010
    46aa:	6b 41       	mov.b	@r1,	r11	
    46ac:	4c 4b       	mov.b	r11,	r12	
    46ae:	5c f3       	and.b	#1,	r12	;r3 As==01
    46b0:	09 24       	jz	$+20     	;abs 0x46c4
    46b2:	1f 41 0e 00 	mov	14(r1),	r15	;0x000e(r1)
    46b6:	25 4f       	mov	@r15,	r5	
    46b8:	16 4f 02 00 	mov	2(r15),	r6	;0x0002(r15)
    46bc:	2f 52       	add	#4,	r15	;r2 As==10
    46be:	81 4f 0e 00 	mov	r15,	14(r1)	;0x000e(r1)
    46c2:	15 3c       	jmp	$+44     	;abs 0x46ee
    46c4:	6b f3       	and.b	#2,	r11	;r3 As==10
    46c6:	1a 41 0e 00 	mov	14(r1),	r10	;0x000e(r1)
    46ca:	2a 53       	incd	r10		
    46cc:	4b 9c       	cmp.b	r12,	r11	
    46ce:	09 24       	jz	$+20     	;abs 0x46e2
    46d0:	1f 41 0e 00 	mov	14(r1),	r15	;0x000e(r1)
    46d4:	25 4f       	mov	@r15,	r5	
    46d6:	06 45       	mov	r5,	r6	
    46d8:	86 10       	swpb	r6		
    46da:	86 11       	sxt	r6		
    46dc:	86 10       	swpb	r6		
    46de:	86 11       	sxt	r6		
    46e0:	04 3c       	jmp	$+10     	;abs 0x46ea
    46e2:	1f 41 0e 00 	mov	14(r1),	r15	;0x000e(r1)
    46e6:	25 4f       	mov	@r15,	r5	
    46e8:	06 43       	clr	r6		
    46ea:	81 4a 0e 00 	mov	r10,	14(r1)	;0x000e(r1)
    46ee:	34 90 10 00 	cmp	#16,	r4	;#0x0010
    46f2:	0c 20       	jnz	$+26     	;abs 0x470c
    46f4:	05 93       	tst	r5		
    46f6:	02 20       	jnz	$+6      	;abs 0x46fc
    46f8:	06 93       	tst	r6		
    46fa:	06 24       	jz	$+14     	;abs 0x4708
    46fc:	f1 b2 00 00 	bit.b	#8,	0(r1)	;r2 As==11, 0x0000(r1)
    4700:	03 24       	jz	$+8      	;abs 0x4708
    4702:	f1 d0 10 00 	bis.b	#16,	0(r1)	;#0x0010, 0x0000(r1)
    4706:	00 00 
    4708:	34 40 10 00 	mov	#16,	r4	;#0x0010
    470c:	e1 b3 00 00 	bit.b	#2,	0(r1)	;r3 As==10, 0x0000(r1)
    4710:	09 24       	jz	$+20     	;abs 0x4724
    4712:	06 93       	tst	r6		
    4714:	07 34       	jge	$+16     	;abs 0x4724
    4716:	f1 40 2d 00 	mov.b	#45,	1(r1)	;#0x002d, 0x0001(r1)
    471a:	01 00 
    471c:	35 e3       	inv	r5		
    471e:	36 e3       	inv	r6		
    4720:	15 53       	inc	r5		
    4722:	06 63       	adc	r6		
    4724:	c1 43 0d 00 	mov.b	#0,	13(r1)	;r3 As==00, 0x000d(r1)
    4728:	6f 41       	mov.b	@r1,	r15	
    472a:	7f f0 40 00 	and.b	#64,	r15	;#0x0040
    472e:	c1 4f 1e 00 	mov.b	r15,	30(r1)	;0x001e(r1)
    4732:	07 41       	mov	r1,	r7	
    4734:	37 50 0b 00 	add	#11,	r7	;#0x000b
    4738:	0f 44       	mov	r4,	r15	
    473a:	8f 10       	swpb	r15		
    473c:	8f 11       	sxt	r15		
    473e:	8f 10       	swpb	r15		
    4740:	8f 11       	sxt	r15		
    4742:	81 4f 1c 00 	mov	r15,	28(r1)	;0x001c(r1)
    4746:	0f 47       	mov	r7,	r15	
    4748:	1f 53       	inc	r15		
    474a:	81 4f 20 00 	mov	r15,	32(r1)	;0x0020(r1)
    474e:	0c 45       	mov	r5,	r12	
    4750:	0d 46       	mov	r6,	r13	
    4752:	0a 44       	mov	r4,	r10	
    4754:	1b 41 1c 00 	mov	28(r1),	r11	;0x001c(r1)
    4758:	b0 12 9c 48 	call	#0x489c	
    475c:	3f 40 09 00 	mov	#9,	r15	;#0x0009
    4760:	0f 9e       	cmp	r14,	r15	
    4762:	05 38       	jl	$+12     	;abs 0x476e
    4764:	7e 50 30 00 	add.b	#48,	r14	;#0x0030
    4768:	c7 4e 01 00 	mov.b	r14,	1(r7)	;0x0001(r7)
    476c:	0b 3c       	jmp	$+24     	;abs 0x4784
    476e:	c1 93 1e 00 	tst.b	30(r1)		;0x001e(r1)
    4772:	03 24       	jz	$+8      	;abs 0x477a
    4774:	7f 40 37 00 	mov.b	#55,	r15	;#0x0037
    4778:	02 3c       	jmp	$+6      	;abs 0x477e
    477a:	7f 40 57 00 	mov.b	#87,	r15	;#0x0057
    477e:	4f 5e       	add.b	r14,	r15	
    4780:	c7 4f 01 00 	mov.b	r15,	1(r7)	;0x0001(r7)
    4784:	0c 45       	mov	r5,	r12	
    4786:	0d 46       	mov	r6,	r13	
    4788:	0a 44       	mov	r4,	r10	
    478a:	1b 41 1c 00 	mov	28(r1),	r11	;0x001c(r1)
    478e:	b0 12 9c 48 	call	#0x489c	
    4792:	05 4c       	mov	r12,	r5	
    4794:	06 4d       	mov	r13,	r6	
    4796:	37 53       	add	#-1,	r7	;r3 As==11
    4798:	0c 93       	tst	r12		
    479a:	d5 23       	jnz	$-84     	;abs 0x4746
    479c:	06 93       	tst	r6		
    479e:	d3 23       	jnz	$-88     	;abs 0x4746
    47a0:	34 90 0a 00 	cmp	#10,	r4	;#0x000a
    47a4:	02 24       	jz	$+6      	;abs 0x47aa
    47a6:	c1 43 01 00 	mov.b	#0,	1(r1)	;r3 As==00, 0x0001(r1)
    47aa:	2c 41       	mov	@r1,	r12	
    47ac:	1d 41 10 00 	mov	16(r1),	r13	;0x0010(r1)
    47b0:	1e 41 20 00 	mov	32(r1),	r14	;0x0020(r1)
    47b4:	1f 41 18 00 	mov	24(r1),	r15	;0x0018(r1)
    47b8:	b0 12 8a 43 	call	#0x438a	
    47bc:	81 5f 12 00 	add	r15,	18(r1)	;0x0012(r1)
    47c0:	06 3c       	jmp	$+14     	;abs 0x47ce
    47c2:	8e 11       	sxt	r14		
    47c4:	0f 4e       	mov	r14,	r15	
    47c6:	91 12 1a 00 	call	26(r1)		;0x001a(r1)
    47ca:	91 53 12 00 	inc	18(r1)		;0x0012(r1)
    47ce:	0a 43       	clr	r10		
    47d0:	01 3c       	jmp	$+4      	;abs 0x47d4
    47d2:	1a 43       	mov	#1,	r10	;r3 As==01
    47d4:	91 53 1a 00 	inc	26(r1)		;0x001a(r1)
    47d8:	1f 41 1a 00 	mov	26(r1),	r15	;0x001a(r1)
    47dc:	6e 4f       	mov.b	@r15,	r14	
    47de:	4e 93       	tst.b	r14		
    47e0:	02 24       	jz	$+6      	;abs 0x47e6
    47e2:	30 40 c6 44 	br	#0x44c6	
    47e6:	1f 41 12 00 	mov	18(r1),	r15	;0x0012(r1)
    47ea:	31 50 22 00 	add	#34,	r1	;#0x0022
    47ee:	34 41       	pop	r4		
    47f0:	35 41       	pop	r5		
    47f2:	36 41       	pop	r6		
    47f4:	37 41       	pop	r7		
    47f6:	38 41       	pop	r8		
    47f8:	39 41       	pop	r9		
    47fa:	3a 41       	pop	r10		
    47fc:	3b 41       	pop	r11		
    47fe:	30 41       	ret			

00004800 <__udivmodhi4>:
    4800:	0e ee       	xor	r14,	r14	
    4802:	3b 40 11 00 	mov	#17,	r11	;#0x0011
    4806:	05 3c       	jmp	$+12     	;abs 0x4812
    4808:	0d 10       	rrc	r13		
    480a:	0e 6e       	rlc	r14		
    480c:	0e 9a       	cmp	r10,	r14	
    480e:	01 28       	jnc	$+4      	;abs 0x4812
    4810:	0e 8a       	sub	r10,	r14	
    4812:	0c 6c       	rlc	r12		
    4814:	0d 6d       	rlc	r13		
    4816:	1b 83       	dec	r11		
    4818:	f7 23       	jnz	$-16     	;abs 0x4808
    481a:	30 41       	ret			

0000481c <__divmodhi4>:
    481c:	0d 43       	clr	r13		
    481e:	3c b0 00 80 	bit	#-32768,r12	;#0x8000
    4822:	03 28       	jnc	$+8      	;abs 0x482a
    4824:	3c e3       	inv	r12		
    4826:	1c 53       	inc	r12		
    4828:	2d d2       	bis	#4,	r13	;r2 As==10
    482a:	3a b0 00 80 	bit	#-32768,r10	;#0x8000
    482e:	03 28       	jnc	$+8      	;abs 0x4836
    4830:	3a e3       	inv	r10		
    4832:	1a 53       	inc	r10		
    4834:	3d d2       	bis	#8,	r13	;r2 As==11
    4836:	b0 12 00 48 	call	#0x4800	
    483a:	0d 10       	rrc	r13		
    483c:	2d b2       	bit	#4,	r13	;r2 As==10
    483e:	04 28       	jnc	$+10     	;abs 0x4848
    4840:	3e e3       	inv	r14		
    4842:	1e 53       	inc	r14		
    4844:	3c e3       	inv	r12		
    4846:	1c 53       	inc	r12		
    4848:	3d b2       	bit	#8,	r13	;r2 As==11
    484a:	02 28       	jnc	$+6      	;abs 0x4850
    484c:	3c e3       	inv	r12		
    484e:	1c 53       	inc	r12		
    4850:	30 41       	ret			

00004852 <__divmodsi4>:
    4852:	08 43       	clr	r8		
    4854:	3d b0 00 80 	bit	#-32768,r13	;#0x8000
    4858:	05 24       	jz	$+12     	;abs 0x4864
    485a:	3d e3       	inv	r13		
    485c:	3c e3       	inv	r12		
    485e:	1c 53       	inc	r12		
    4860:	0d 63       	adc	r13		
    4862:	28 d2       	bis	#4,	r8	;r2 As==10
    4864:	3b b0 00 80 	bit	#-32768,r11	;#0x8000
    4868:	05 24       	jz	$+12     	;abs 0x4874
    486a:	3b e3       	inv	r11		
    486c:	3a e3       	inv	r10		
    486e:	1a 53       	inc	r10		
    4870:	0b 63       	adc	r11		
    4872:	38 d2       	bis	#8,	r8	;r2 As==11
    4874:	b0 12 9c 48 	call	#0x489c	
    4878:	08 10       	rrc	r8		
    487a:	28 b2       	bit	#4,	r8	;r2 As==10
    487c:	08 24       	jz	$+18     	;abs 0x488e
    487e:	3e e3       	inv	r14		
    4880:	3f e3       	inv	r15		
    4882:	1e 53       	inc	r14		
    4884:	0f 63       	adc	r15		
    4886:	3c e3       	inv	r12		
    4888:	3d e3       	inv	r13		
    488a:	1c 53       	inc	r12		
    488c:	0d 63       	adc	r13		
    488e:	38 b2       	bit	#8,	r8	;r2 As==11
    4890:	04 24       	jz	$+10     	;abs 0x489a
    4892:	3c e3       	inv	r12		
    4894:	3d e3       	inv	r13		
    4896:	1c 53       	inc	r12		
    4898:	0d 63       	adc	r13		
    489a:	30 41       	ret			

0000489c <__udivmodsi4>:
    489c:	0f ef       	xor	r15,	r15	
    489e:	0e ee       	xor	r14,	r14	
    48a0:	39 40 21 00 	mov	#33,	r9	;#0x0021
    48a4:	0a 3c       	jmp	$+22     	;abs 0x48ba
    48a6:	08 10       	rrc	r8		
    48a8:	0e 6e       	rlc	r14		
    48aa:	0f 6f       	rlc	r15		
    48ac:	0f 9b       	cmp	r11,	r15	
    48ae:	05 28       	jnc	$+12     	;abs 0x48ba
    48b0:	02 20       	jnz	$+6      	;abs 0x48b6
    48b2:	0e 9a       	cmp	r10,	r14	
    48b4:	02 28       	jnc	$+6      	;abs 0x48ba
    48b6:	0e 8a       	sub	r10,	r14	
    48b8:	0f 7b       	subc	r11,	r15	
    48ba:	0c 6c       	rlc	r12		
    48bc:	0d 6d       	rlc	r13		
    48be:	08 68       	rlc	r8		
    48c0:	19 83       	dec	r9		
    48c2:	f1 23       	jnz	$-28     	;abs 0x48a6
    48c4:	30 41       	ret			

000048c6 <_unexpected_>:
    48c6:	00 13       	reti			

Disassembly of section .data:

00001100 <LCDBackColor>:
    1100:	ff 00       	suba	r0,	r15	

Disassembly of section .bss:

00001102 <Current>:
	...

00001104 <Voltage>:
	...

00001106 <Load>:
	...

00001108 <LoadOffset>:
	...

0000110a <LCDLineCount>:
	...

0000110c <LCDCharCount>:
	...

0000110e <LCDForeColor>:
	...

00001110 <AnalogOffset>:
	...

00001120 <AnalogValue>:
	...

00001130 <LastResult>:
	...

00001148 <TimeDelay>:
	...

Disassembly of section .vectors:

0000ffc0 <__ivtbl_32>:
    ffc0:	fa 33       	jn	$-10     	;abs 0xffb6
    ffc2:	fa 33       	jn	$-10     	;abs 0xffb8
    ffc4:	fa 33       	jn	$-10     	;abs 0xffba
    ffc6:	fa 33       	jn	$-10     	;abs 0xffbc
    ffc8:	fa 33       	jn	$-10     	;abs 0xffbe
    ffca:	fa 33       	jn	$-10     	;abs 0xffc0
    ffcc:	fa 33       	jn	$-10     	;abs 0xffc2
    ffce:	fa 33       	jn	$-10     	;abs 0xffc4
    ffd0:	fa 33       	jn	$-10     	;abs 0xffc6
    ffd2:	fa 33       	jn	$-10     	;abs 0xffc8
    ffd4:	fa 33       	jn	$-10     	;abs 0xffca
    ffd6:	fa 33       	jn	$-10     	;abs 0xffcc
    ffd8:	fa 33       	jn	$-10     	;abs 0xffce
    ffda:	fa 33       	jn	$-10     	;abs 0xffd0
    ffdc:	fa 33       	jn	$-10     	;abs 0xffd2
    ffde:	fa 33       	jn	$-10     	;abs 0xffd4
    ffe0:	fa 33       	jn	$-10     	;abs 0xffd6
    ffe2:	fa 33       	jn	$-10     	;abs 0xffd8
    ffe4:	fa 33       	jn	$-10     	;abs 0xffda
    ffe6:	fa 33       	jn	$-10     	;abs 0xffdc
    ffe8:	fa 33       	jn	$-10     	;abs 0xffde
    ffea:	fa 33       	jn	$-10     	;abs 0xffe0
    ffec:	fa 33       	jn	$-10     	;abs 0xffe2
    ffee:	fa 33       	jn	$-10     	;abs 0xffe4
    fff0:	18 42 fa 33 	mov	&0x33fa,r8	
    fff4:	fa 33       	jn	$-10     	;abs 0xffea
    fff6:	fa 33       	jn	$-10     	;abs 0xffec
    fff8:	fe 36       	jge	$-514    	;abs 0xfdf6
    fffa:	fa 33       	jn	$-10     	;abs 0xfff0
    fffc:	fa 33       	jn	$-10     	;abs 0xfff2
    fffe:	00 31       	jn	$+514    	;abs 0x200

Disassembly of section .debug_aranges:

00000000 <.debug_aranges>:
   0:	14 00       	mova	#0x00000,r4	
   2:	00 00       	bra	@r0		
   4:	02 00       	mova	@r0,	r2	
   6:	00 00       	bra	@r0		
   8:	00 00       	bra	@r0		
   a:	02 00       	mova	@r0,	r2	
   c:	fe 33       	jn	$-2      	;abs 0xa
   e:	08 03       	mova	#2,	r8	;r3 As==10
  10:	38 31       	jn	$+626    	;abs 0x282
  12:	bc 02 00 00 	suba	#0x20000,r12	
  16:	00 00       	bra	@r0		
  18:	10 00       	bra	#0x00000	
  1a:	00 00       	bra	@r0		
  1c:	02 00       	mova	@r0,	r2	
  1e:	86 06 00 00 	mova	#0x60000,r6	
  22:	02 00       	mova	@r0,	r2	
  24:	06 37       	jge	$-498    	;abs 0xfe32
  26:	c6 0a       	mova	r10,	r6	
  28:	00 00       	bra	@r0		
  2a:	00 00       	bra	@r0		
  2c:	10 00       	bra	#0x00000	
  2e:	00 00       	bra	@r0		
  30:	02 00       	mova	@r0,	r2	
  32:	3d 0e 00 00 	mova	0(r14),	r13	;0x0000(r14)
  36:	02 00       	mova	@r0,	r2	
  38:	cc 41 78 00 	mov.b	r1,	120(r12);0x0078(r12)
  3c:	00 00       	bra	@r0		
  3e:	00 00       	bra	@r0		
  40:	10 00       	bra	#0x00000	
  42:	00 00       	bra	@r0		
  44:	02 00       	mova	@r0,	r2	
  46:	37 10       	rrc	@r7+		
  48:	00 00       	bra	@r0		
  4a:	02 00       	mova	@r0,	r2	
  4c:	44 42       	mov.b	r2,	r4	
  4e:	26 01 00 00 	mova	&0x10000,r6	
  52:	00 00       	bra	@r0		
  54:	10 00       	bra	#0x00000	
  56:	00 00       	bra	@r0		
  58:	02 00       	mova	@r0,	r2	
  5a:	4c 12       	push.b	r12		
  5c:	00 00       	bra	@r0		
  5e:	02 00       	mova	@r0,	r2	
  60:	6a 43       	mov.b	#2,	r10	;r3 As==10
  62:	20 00 00 00 	bra	&0x00000	
  66:	00 00       	bra	@r0		
  68:	10 00       	bra	#0x00000	
  6a:	00 00       	bra	@r0		
  6c:	02 00       	mova	@r0,	r2	
  6e:	4f 13       	calla	r15		
  70:	00 00       	bra	@r0		
  72:	02 00       	mova	@r0,	r2	
  74:	8a 43 76 04 	mov	#0,	1142(r10);r3 As==00, 0x0476(r10)
  78:	00 00       	bra	@r0		
	...

Disassembly of section .debug_pubnames:

00000000 <.debug_pubnames>:
   0:	cf 00       	mova	r0,	r15	
   2:	00 00       	bra	@r0		
   4:	02 00       	mova	@r0,	r2	
   6:	00 00       	bra	@r0		
   8:	00 00       	bra	@r0		
   a:	86 06 00 00 	mova	#0x60000,r6	
   e:	81 01 00 00 	mova	#0x10000,r1	
  12:	6d 6f       	addc.b	@r15,	r13	
  14:	73 74       	.word	0x7473;	????	Illegal as 2-op instr
  16:	72 61       	addc.b	@r1+,	r2	
  18:	5f 61 74 75 	addc.b	30068(r1),r15	;0x7574(r1)
  1c:	61 6c       	addc.b	@r12,	r1	
  1e:	00 92       	cmp	r2,	r0	
  20:	01 00       	mova	@r0,	r1	
  22:	00 6d       	addc	r13,	r0	
  24:	6f 73       	subc.b	#2,	r15	;r3 As==10
  26:	74 72       	subc.b	#8,	r4	;r2 As==11
  28:	61 5f       	add.b	@r15,	r1	
  2a:	72 65       	addc.b	@r5+,	r2	
  2c:	73 75       	.word	0x7573;	????	Illegal as 2-op instr
  2e:	6c 74       	subc.b	@r4,	r12	
  30:	61 64       	addc.b	@r4,	r1	
  32:	6f 00 a3 01 	mova	r0,	&0xf01a3
  36:	00 00       	bra	@r0		
  38:	4d 65       	addc.b	r5,	r13	
  3a:	64 69       	addc.b	@r9,	r4	
  3c:	61 6e       	addc.b	@r14,	r1	
  3e:	61 00 f5 01 	mova	r0,	&0x101f5
  42:	00 00       	bra	@r0		
  44:	4d 65       	addc.b	r5,	r13	
  46:	64 69       	addc.b	@r9,	r4	
  48:	61 00 22 02 	mova	r0,	&0x10222
  4c:	00 00       	bra	@r0		
  4e:	63 6c       	.word	0x6c63;	????	Illegal as 2-op instr
  50:	6f 63       	addc.b	#2,	r15	;r3 As==10
  52:	6b 5f       	add.b	@r15,	r11	
  54:	69 6e       	addc.b	@r14,	r9	
  56:	69 74       	subc.b	@r4,	r9	
  58:	00 2e       	jc	$-1022   	;abs 0xfc5a
  5a:	02 00       	mova	@r0,	r2	
  5c:	00 74       	subc	r4,	r0	
  5e:	69 6d       	addc.b	@r13,	r9	
  60:	65 72       	subc.b	#4,	r5	;r2 As==10
  62:	5f 69 6e 69 	addc.b	26990(r9),r15	;0x696e(r9)
  66:	74 00 3a 02 	mova	r0,	570(r4)	;0x023a(r4)
  6a:	00 00       	bra	@r0		
  6c:	73 65       	.word	0x6573;	????	Illegal as 2-op instr
  6e:	74 75       	subc.b	@r5+,	r4	
  70:	70 00 68 02 	mova	r0,	0x0268	;PC rel. 0x002da
  74:	00 00       	bra	@r0		
  76:	6d 61       	addc.b	@r1,	r13	
  78:	69 6e       	addc.b	@r14,	r9	
  7a:	00 c1       	bic	r1,	r0	
  7c:	03 00       	.word	0x0003;	????	Illegal as address instr
  7e:	00 54       	add	r4,	r0	
  80:	49 4d       	mov.b	r13,	r9	
  82:	45 52       	add.b	r2,	r5	
  84:	42 31       	jn	$+646    	;abs 0x30a
  86:	5f 49 53 52 	mov.b	21075(r9),r15	;0x5253(r9)
  8a:	5f 48 4f 4f 	mov.b	20303(r8),r15	;0x4f4f(r8)
  8e:	4b 00       	rrcm.a	#1,	r11	
  90:	35 06 00 00 	mova	0(r6),	r5	;0x0000(r6)
  94:	4c 61       	addc.b	r1,	r12	
  96:	73 74       	.word	0x7473;	????	Illegal as 2-op instr
  98:	52 65 73 75 	addc.b	30067(r5),r2	;0x7573(r5)
  9c:	6c 74       	subc.b	@r4,	r12	
  9e:	00 45       	br	r5		
  a0:	06 00       	mova	@r0,	r6	
  a2:	00 43       	clr	r0		
  a4:	75 72       	subc.b	#8,	r5	;r2 As==11
  a6:	72 65       	addc.b	@r5+,	r2	
  a8:	6e 74       	subc.b	@r4,	r14	
  aa:	00 55       	add	r5,	r0	
  ac:	06 00       	mova	@r0,	r6	
  ae:	00 56       	add	r6,	r0	
  b0:	6f 6c       	addc.b	@r12,	r15	
  b2:	74 61       	addc.b	@r1+,	r4	
  b4:	67 65       	addc.b	@r5,	r7	
  b6:	00 65       	addc	r5,	r0	
  b8:	06 00       	mova	@r0,	r6	
  ba:	00 4c       	br	r12		
  bc:	6f 61       	addc.b	@r1,	r15	
  be:	64 00 75 06 	mova	r0,	&0x40675
  c2:	00 00       	bra	@r0		
  c4:	4c 6f       	addc.b	r15,	r12	
  c6:	61 64       	addc.b	@r4,	r1	
  c8:	4f 66       	addc.b	r6,	r15	
  ca:	66 73       	subc.b	#2,	r6	;r3 As==10
  cc:	65 74       	subc.b	@r4,	r5	
  ce:	00 00       	bra	@r0		
  d0:	00 00       	bra	@r0		
  d2:	00 88       	sub	r8,	r0	
  d4:	01 00       	mova	@r0,	r1	
  d6:	00 02       	bra	#4		;r2 As==10
  d8:	00 86       	sub	r6,	r0	
  da:	06 00       	mova	@r0,	r6	
  dc:	00 b7       	bit	r7,	r0	
  de:	07 00       	mova	@r0,	r7	
  e0:	00 cf       	bic	r15,	r0	
  e2:	00 00       	bra	@r0		
  e4:	00 6c       	addc	r12,	r0	
  e6:	63 64       	.word	0x6463;	????	Illegal as 2-op instr
  e8:	5f 73       	subc.b	#1,	r15	;r3 As==01
  ea:	65 74       	subc.b	@r4,	r5	
  ec:	63 6f       	.word	0x6f63;	????	Illegal as 2-op instr
  ee:	6c 6f       	addc.b	@r15,	r12	
  f0:	72 00 fe 00 	mova	r0,	&0x00fe	
  f4:	00 00       	bra	@r0		
  f6:	6e 36       	jge	$-802    	;abs 0xfdd4
  f8:	31 30       	jn	$+100    	;abs 0x15c
  fa:	30 5f       	add	@r15+,	r0	
  fc:	73 65       	.word	0x6573;	????	Illegal as 2-op instr
  fe:	6e 64       	addc.b	@r4,	r14	
 100:	00 4a       	br	r10		
 102:	01 00       	mova	@r0,	r1	
 104:	00 6e       	addc	r14,	r0	
 106:	36 31       	jn	$+622    	;abs 0x374
 108:	30 30       	jn	$+98     	;abs 0x16a
 10a:	5f 73       	subc.b	#1,	r15	;r3 As==01
 10c:	65 6e       	addc.b	@r14,	r5	
 10e:	64 63       	addc.b	#2,	r4	;r3 As==10
 110:	6f 6d       	addc.b	@r13,	r15	
 112:	31 00 81 01 	mova	0x0181,	r1	;PC rel. 0x00295
 116:	00 00       	bra	@r0		
 118:	6e 36       	jge	$-802    	;abs 0xfdf6
 11a:	31 30       	jn	$+100    	;abs 0x17e
 11c:	30 5f       	add	@r15+,	r0	
 11e:	73 65       	.word	0x6573;	????	Illegal as 2-op instr
 120:	6e 64       	addc.b	@r4,	r14	
 122:	63 6f       	.word	0x6f63;	????	Illegal as 2-op instr
 124:	6d 32       	jn	$-804    	;abs 0xfe00
 126:	00 c8       	bic	r8,	r0	
 128:	01 00       	mova	@r0,	r1	
 12a:	00 6c       	addc	r12,	r0	
 12c:	63 64       	.word	0x6463;	????	Illegal as 2-op instr
 12e:	5f 66 69 6c 	addc.b	27753(r6),r15	;0x6c69(r6)
 132:	6c 72       	subc.b	#4,	r12	;r2 As==10
 134:	65 63       	addc.b	#2,	r5	;r3 As==10
 136:	74 00 48 02 	mova	r0,	584(r4)	;0x0248(r4)
 13a:	00 00       	bra	@r0		
 13c:	6c 63       	addc.b	#2,	r12	;r3 As==10
 13e:	64 5f       	add.b	@r15,	r4	
 140:	63 6c       	.word	0x6c63;	????	Illegal as 2-op instr
 142:	65 61       	addc.b	@r1,	r5	
 144:	72 00 6f 02 	mova	r0,	&0x026f	
 148:	00 00       	bra	@r0		
 14a:	6c 63       	addc.b	#2,	r12	;r3 As==10
 14c:	64 5f       	add.b	@r15,	r4	
 14e:	69 6e       	addc.b	@r14,	r9	
 150:	69 74       	subc.b	@r4,	r9	
 152:	00 94       	cmp	r4,	r0	
 154:	02 00       	mova	@r0,	r2	
 156:	00 6c       	addc	r12,	r0	
 158:	63 64       	.word	0x6463;	????	Illegal as 2-op instr
 15a:	5f 64 72 61 	addc.b	24946(r4),r15	;0x6172(r4)
 15e:	77 63       	addc.b	#-1,	r7	;r3 As==11
 160:	69 72       	subc.b	#4,	r9	;r2 As==10
 162:	63 6c       	.word	0x6c63;	????	Illegal as 2-op instr
 164:	65 00 42 03 	mova	r0,	&0x50342
 168:	00 00       	bra	@r0		
 16a:	6c 63       	addc.b	#2,	r12	;r3 As==10
 16c:	64 5f       	add.b	@r15,	r4	
 16e:	64 72       	subc.b	#4,	r4	;r2 As==10
 170:	61 77       	subc.b	@r7,	r1	
 172:	70 6f       	addc.b	@r15+,	r0	
 174:	69 6e       	addc.b	@r14,	r9	
 176:	74 00 85 03 	mova	r0,	901(r4)	;0x0385(r4)
 17a:	00 00       	bra	@r0		
 17c:	6c 63       	addc.b	#2,	r12	;r3 As==10
 17e:	64 5f       	add.b	@r15,	r4	
 180:	64 72       	subc.b	#4,	r4	;r2 As==10
 182:	61 77       	subc.b	@r7,	r1	
 184:	6c 69       	addc.b	@r9,	r12	
 186:	6e 65       	addc.b	@r5,	r14	
 188:	00 55       	add	r5,	r0	
 18a:	04 00       	mova	@r0,	r4	
 18c:	00 6c       	addc	r12,	r0	
 18e:	63 64       	.word	0x6463;	????	Illegal as 2-op instr
 190:	5f 70 75 74 	subc.b	0x7475,	r15	;PC rel. 0x07609
 194:	6c 6f       	addc.b	@r15,	r12	
 196:	67 6f       	addc.b	@r15,	r7	
 198:	00 d9       	bis	r9,	r0	
 19a:	04 00       	mova	@r0,	r4	
 19c:	00 6c       	addc	r12,	r0	
 19e:	63 64       	.word	0x6463;	????	Illegal as 2-op instr
 1a0:	5f 6e 65 77 	addc.b	30565(r14),r15	;0x7765(r14)
 1a4:	6c 69       	addc.b	@r9,	r12	
 1a6:	6e 65       	addc.b	@r5,	r14	
 1a8:	00 e5       	xor	r5,	r0	
 1aa:	04 00       	mova	@r0,	r4	
 1ac:	00 6c       	addc	r12,	r0	
 1ae:	63 64       	.word	0x6463;	????	Illegal as 2-op instr
 1b0:	5f 67 6f 74 	addc.b	29807(r7),r15	;0x746f(r7)
 1b4:	6f 00 08 05 	mova	r0,	&0xf0508
 1b8:	00 00       	bra	@r0		
 1ba:	6c 63       	addc.b	#2,	r12	;r3 As==10
 1bc:	64 5f       	add.b	@r15,	r4	
 1be:	77 72       	subc.b	#8,	r7	;r2 As==11
 1c0:	63 68       	.word	0x6863;	????	Illegal as 2-op instr
 1c2:	61 72       	subc.b	#4,	r1	;r2 As==10
 1c4:	00 71       	subc	r1,	r0	
 1c6:	05 00       	mova	@r0,	r5	
 1c8:	00 6c       	addc	r12,	r0	
 1ca:	63 64       	.word	0x6463;	????	Illegal as 2-op instr
 1cc:	5f 70 75 74 	subc.b	0x7475,	r15	;PC rel. 0x07645
 1d0:	63 68       	.word	0x6863;	????	Illegal as 2-op instr
 1d2:	61 72       	subc.b	#4,	r1	;r2 As==10
 1d4:	00 af       	dadd	r15,	r0	
 1d6:	05 00       	mova	@r0,	r5	
 1d8:	00 70       	subc	r0,	r0	
 1da:	75 74       	subc.b	@r4+,	r5	
 1dc:	63 68       	.word	0x6863;	????	Illegal as 2-op instr
 1de:	61 72       	subc.b	#4,	r1	;r2 As==10
 1e0:	00 d5       	bis	r5,	r0	
 1e2:	05 00       	mova	@r0,	r5	
 1e4:	00 6c       	addc	r12,	r0	
 1e6:	63 64       	.word	0x6463;	????	Illegal as 2-op instr
 1e8:	5f 64 72 61 	addc.b	24946(r4),r15	;0x6172(r4)
 1ec:	77 70 72 6f 	subc.b	#28530,	r7	;#0x6f72
 1f0:	67 72       	subc.b	#4,	r7	;r2 As==10
 1f2:	65 73       	subc.b	#2,	r5	;r3 As==10
 1f4:	73 62       	.word	0x6273;	????	Illegal as 2-op instr
 1f6:	61 72       	subc.b	#4,	r1	;r2 As==10
 1f8:	00 66       	addc	r6,	r0	
 1fa:	06 00       	mova	@r0,	r6	
 1fc:	00 6c       	addc	r12,	r0	
 1fe:	63 64       	.word	0x6463;	????	Illegal as 2-op instr
 200:	5f 70 75 74 	subc.b	0x7475,	r15	;PC rel. 0x07679
 204:	64 6f       	addc.b	@r15,	r4	
 206:	74 00 61 07 	mova	r0,	1889(r4);0x0761(r4)
 20a:	00 00       	bra	@r0		
 20c:	4c 43       	clr.b	r12		
 20e:	44 4c       	mov.b	r12,	r4	
 210:	69 6e       	addc.b	@r14,	r9	
 212:	65 43       	mov.b	#2,	r5	;r3 As==10
 214:	6f 75       	subc.b	@r5,	r15	
 216:	6e 74       	subc.b	@r4,	r14	
 218:	00 71       	subc	r1,	r0	
 21a:	07 00       	mova	@r0,	r7	
 21c:	00 4c       	br	r12		
 21e:	43 44       	.word	0x4443;	????	Illegal as 2-op instr
 220:	43 68       	.word	0x6843;	????	Illegal as 2-op instr
 222:	61 72       	subc.b	#4,	r1	;r2 As==10
 224:	43 6f       	.word	0x6f43;	????	Illegal as 2-op instr
 226:	75 6e       	addc.b	@r14+,	r5	
 228:	74 00 81 07 	mova	r0,	1921(r4);0x0781(r4)
 22c:	00 00       	bra	@r0		
 22e:	4c 43       	clr.b	r12		
 230:	44 42       	mov.b	r2,	r4	
 232:	61 63       	addc.b	#2,	r1	;r3 As==10
 234:	6b 43       	mov.b	#2,	r11	;r3 As==10
 236:	6f 6c       	addc.b	@r12,	r15	
 238:	6f 72       	subc.b	#4,	r15	;r2 As==10
 23a:	00 91       	cmp	r1,	r0	
 23c:	07 00       	mova	@r0,	r7	
 23e:	00 4c       	br	r12		
 240:	43 44       	.word	0x4443;	????	Illegal as 2-op instr
 242:	46 6f       	addc.b	r15,	r6	
 244:	72 65       	addc.b	@r5+,	r2	
 246:	43 6f       	.word	0x6f43;	????	Illegal as 2-op instr
 248:	6c 6f       	addc.b	@r15,	r12	
 24a:	72 00 a1 07 	mova	r0,	&0x07a1	
 24e:	00 00       	bra	@r0		
 250:	61 73       	subc.b	#2,	r1	;r3 As==10
 252:	63 69       	.word	0x6963;	????	Illegal as 2-op instr
 254:	69 74       	subc.b	@r4,	r9	
 256:	61 62       	addc.b	#4,	r1	;r2 As==10
 258:	6c 65       	addc.b	@r5,	r12	
 25a:	00 00       	bra	@r0		
 25c:	00 00       	bra	@r0		
 25e:	00 7f       	subc	r15,	r0	
 260:	00 00       	bra	@r0		
 262:	00 02       	bra	#4		;r2 As==10
 264:	00 3d       	jmp	$+514    	;abs 0x466
 266:	0e 00       	mova	@r0,	r14	
 268:	00 fa       	and	r10,	r0	
 26a:	01 00       	mova	@r0,	r1	
 26c:	00 65       	addc	r5,	r0	
 26e:	00 00       	bra	@r0		
 270:	00 64       	addc	r4,	r0	
 272:	65 6c       	addc.b	@r12,	r5	
 274:	61 79       	subc.b	@r9,	r1	
 276:	32 75       	subc	@r5+,	r2	
 278:	73 00       	.word	0x0073;	????	Illegal as address instr
 27a:	8d 00 00 00 	mova	#0x00000,r13	
 27e:	64 65       	addc.b	@r5,	r4	
 280:	6c 61       	addc.b	@r1,	r12	
 282:	79 35       	jge	$+756    	;abs 0x576
 284:	75 73       	subc.b	#-1,	r5	;r3 As==11
 286:	00 ae       	dadd	r14,	r0	
 288:	00 00       	bra	@r0		
 28a:	00 64       	addc	r4,	r0	
 28c:	65 6c       	addc.b	@r12,	r5	
 28e:	61 79       	subc.b	@r9,	r1	
 290:	75 73       	subc.b	#-1,	r5	;r3 As==11
 292:	00 e4       	xor	r4,	r0	
 294:	00 00       	bra	@r0		
 296:	00 64       	addc	r4,	r0	
 298:	65 6c       	addc.b	@r12,	r5	
 29a:	61 79       	subc.b	@r9,	r1	
 29c:	6d 73       	subc.b	#2,	r13	;r3 As==10
 29e:	00 16       	popm.a	#1,	r0	
 2a0:	01 00       	mova	@r0,	r1	
 2a2:	00 73       	sbc	r0		
 2a4:	65 74       	subc.b	@r4,	r5	
 2a6:	5f 64 65 6c 	addc.b	27749(r4),r15	;0x6c65(r4)
 2aa:	61 79       	subc.b	@r9,	r1	
 2ac:	00 47       	br	r7		
 2ae:	01 00       	mova	@r0,	r1	
 2b0:	00 67       	addc	r7,	r0	
 2b2:	65 74       	subc.b	@r4,	r5	
 2b4:	5f 64 65 6c 	addc.b	27749(r4),r15	;0x6c65(r4)
 2b8:	61 79       	subc.b	@r9,	r1	
 2ba:	00 76       	subc	r6,	r0	
 2bc:	01 00       	mova	@r0,	r1	
 2be:	00 54       	add	r4,	r0	
 2c0:	49 4d       	mov.b	r13,	r9	
 2c2:	45 52       	add.b	r2,	r5	
 2c4:	41 31       	jn	$+644    	;abs 0x548
 2c6:	5f 49 53 52 	mov.b	21075(r9),r15	;0x5253(r9)
 2ca:	5f 48 4f 4f 	mov.b	20303(r8),r15	;0x4f4f(r8)
 2ce:	4b 00       	rrcm.a	#1,	r11	
 2d0:	e4 01       	adda	r1,	r4	
 2d2:	00 00       	bra	@r0		
 2d4:	54 69 6d 65 	addc.b	25965(r9),r4	;0x656d(r9)
 2d8:	44 65       	addc.b	r5,	r4	
 2da:	6c 61       	addc.b	@r1,	r12	
 2dc:	79 00 00 00 	mova	r0,	0(r9)	;0x0000(r9)
 2e0:	00 00       	bra	@r0		
 2e2:	8e 00 00 00 	mova	#0x00000,r14	
 2e6:	02 00       	mova	@r0,	r2	
 2e8:	37 10       	rrc	@r7+		
 2ea:	00 00       	bra	@r0		
 2ec:	15 02       	mova	#8,	r5	;r2 As==11
 2ee:	00 00       	bra	@r0		
 2f0:	7a 00 00 00 	mova	r0,	0(r10)	;0x0000(r10)
 2f4:	61 6e       	addc.b	@r14,	r1	
 2f6:	61 6c       	addc.b	@r12,	r1	
 2f8:	6f 67       	addc.b	@r7,	r15	
 2fa:	5f 69 6e 69 	addc.b	26990(r9),r15	;0x696e(r9)
 2fe:	74 00 8a 00 	mova	r0,	138(r4)	;0x008a(r4)
 302:	00 00       	bra	@r0		
 304:	61 6e       	addc.b	@r14,	r1	
 306:	61 6c       	addc.b	@r12,	r1	
 308:	6f 67       	addc.b	@r7,	r15	
 30a:	5f 63       	addc.b	#1,	r15	;r3 As==01
 30c:	61 6c       	addc.b	@r12,	r1	
 30e:	69 62       	addc.b	#4,	r9	;r2 As==10
 310:	72 61       	addc.b	@r1+,	r2	
 312:	74 65       	addc.b	@r5+,	r4	
 314:	5f 63       	addc.b	#1,	r15	;r3 As==01
 316:	68 61       	addc.b	@r1,	r8	
 318:	6e 6e       	addc.b	@r14,	r14	
 31a:	65 6c       	addc.b	@r12,	r5	
 31c:	00 d0       	bis	r0,	r0	
 31e:	00 00       	bra	@r0		
 320:	00 61       	addc	r1,	r0	
 322:	6e 61       	addc.b	@r1,	r14	
 324:	6c 6f       	addc.b	@r15,	r12	
 326:	67 5f       	add.b	@r15,	r7	
 328:	72 65       	addc.b	@r5+,	r2	
 32a:	66 72       	subc.b	#4,	r6	;r2 As==10
 32c:	65 73       	subc.b	#2,	r5	;r3 As==10
 32e:	68 5f       	add.b	@r15,	r8	
 330:	61 6c       	addc.b	@r12,	r1	
 332:	6c 00 f2 00 	mova	r0,	&0xc00f2
 336:	00 00       	bra	@r0		
 338:	61 6e       	addc.b	@r14,	r1	
 33a:	61 6c       	addc.b	@r12,	r1	
 33c:	6f 67       	addc.b	@r7,	r15	
 33e:	5f 72 65 66 	subc.b	&0x6665,r15	
 342:	72 65       	addc.b	@r5+,	r2	
 344:	73 68       	.word	0x6873;	????	Illegal as 2-op instr
 346:	5f 63       	addc.b	#1,	r15	;r3 As==01
 348:	68 61       	addc.b	@r1,	r8	
 34a:	6e 6e       	addc.b	@r14,	r14	
 34c:	65 6c       	addc.b	@r12,	r5	
 34e:	00 f4       	and	r4,	r0	
 350:	01 00       	mova	@r0,	r1	
 352:	00 41       	br	r1		
 354:	6e 61       	addc.b	@r1,	r14	
 356:	6c 6f       	addc.b	@r15,	r12	
 358:	67 4f       	mov.b	@r15,	r7	
 35a:	66 66       	addc.b	@r6,	r6	
 35c:	73 65       	.word	0x6573;	????	Illegal as 2-op instr
 35e:	74 00 04 02 	mova	r0,	516(r4)	;0x0204(r4)
 362:	00 00       	bra	@r0		
 364:	41 6e       	addc.b	r14,	r1	
 366:	61 6c       	addc.b	@r12,	r1	
 368:	6f 67       	addc.b	@r7,	r15	
 36a:	56 61 6c 75 	addc.b	30060(r1),r6	;0x756c(r1)
 36e:	65 00 00 00 	mova	r0,	&0x50000
 372:	00 00       	bra	@r0		
 374:	25 00 00 00 	mova	&0x00000,r5	
 378:	02 00       	mova	@r0,	r2	
 37a:	4c 12       	push.b	r12		
 37c:	00 00       	bra	@r0		
 37e:	03 01       	.word	0x0103;	????	Illegal as address instr
 380:	00 00       	bra	@r0		
 382:	8e 00 00 00 	mova	#0x00000,r14	
 386:	70 72       	subc.b	#8,	r0	;r2 As==11
 388:	69 6e       	addc.b	@r14,	r9	
 38a:	74 66       	addc.b	@r6+,	r4	
 38c:	00 cf       	bic	r15,	r0	
 38e:	00 00       	bra	@r0		
 390:	00 76       	subc	r6,	r0	
 392:	70 72       	subc.b	#8,	r0	;r2 As==11
 394:	69 6e       	addc.b	@r14,	r9	
 396:	74 66       	addc.b	@r6+,	r4	
 398:	00 00       	bra	@r0		
 39a:	00 00       	bra	@r0		
 39c:	00 1b       	.word	0x1b00;	????	
 39e:	00 00       	bra	@r0		
 3a0:	00 02       	bra	#4		;r2 As==10
 3a2:	00 4f       	br	r15		
 3a4:	13 00       	.word	0x0013;	????	Illegal as address instr
 3a6:	00 b5       	bit	r5,	r0	
 3a8:	03 00       	.word	0x0003;	????	Illegal as address instr
 3aa:	00 79       	subc	r9,	r0	
 3ac:	02 00       	mova	@r0,	r2	
 3ae:	00 76       	subc	r6,	r0	
 3b0:	75 70 72 69 	subc.b	#26994,	r5	;#0x6972
 3b4:	6e 74       	subc.b	@r4,	r14	
 3b6:	66 00 00 00 	mova	r0,	&0x60000
	...

Disassembly of section .debug_info:

00000000 <.debug_info>:
       0:	82 06 00 00 	mova	#0x60000,r2	
       4:	02 00       	mova	@r0,	r2	
       6:	00 00       	bra	@r0		
       8:	00 00       	bra	@r0		
       a:	02 01       	mova	@r1,	r2	
       c:	27 03 00 00 	mova	&0x30000,r7	
      10:	01 3f       	jmp	$-508    	;abs 0xfe14
      12:	01 00       	mova	@r0,	r1	
      14:	00 3b       	jl	$-510    	;abs 0xfe16
      16:	02 00       	mova	@r0,	r2	
	...
      24:	00 02       	bra	#4		;r2 As==10
      26:	04 05       	mova	@r5,	r4	
      28:	65 00 00 00 	mova	r0,	&0x50000
      2c:	02 02       	mova	#4,	r2	;r2 As==10
      2e:	07 3b       	jl	$-496    	;abs 0xfe3e
      30:	00 00       	bra	@r0		
      32:	00 03       	bra	#2		;r3 As==10
      34:	02 05       	mova	@r5,	r2	
      36:	69 6e       	addc.b	@r14,	r9	
      38:	74 00 02 01 	mova	r0,	258(r4)	;0x0102(r4)
      3c:	06 29       	jnc	$+526    	;abs 0x24a
      3e:	02 00       	mova	@r0,	r2	
      40:	00 02       	bra	#4		;r2 As==10
      42:	08 05       	mova	@r5,	r8	
      44:	60 00 00 00 	mova	r0,	&0x00000
      48:	02 01       	mova	@r1,	r2	
      4a:	08 27       	jz	$-494    	;abs 0xfe5c
      4c:	02 00       	mova	@r0,	r2	
      4e:	00 02       	bra	#4		;r2 As==10
      50:	04 07       	mova	@r7,	r4	
      52:	36 00 00 00 	mova	0x0000,	r6	;PC rel. 0x00054
      56:	02 08       	mova	@r8,	r2	
      58:	07 31       	jn	$+528    	;abs 0x268
      5a:	00 00       	bra	@r0		
      5c:	00 02       	bra	#4		;r2 As==10
      5e:	02 07       	mova	@r7,	r2	
      60:	2c 01 00 00 	mova	&0x10000,r12	
      64:	02 01       	mova	@r1,	r2	
      66:	06 30       	jn	$+14     	;abs 0x74
      68:	02 00       	mova	@r0,	r2	
      6a:	00 04       	bra	@r4		
      6c:	02 02       	mova	#4,	r2	;r2 As==10
      6e:	0d a4       	dadd	r4,	r13	
      70:	00 00       	bra	@r0		
      72:	00 05       	bra	@r5		
      74:	0b 02       	mova	#4,	r11	;r2 As==10
      76:	00 00       	bra	@r0		
      78:	00 05       	bra	@r5		
      7a:	a9 01 00 00 	adda	#0x10000,r9	
      7e:	01 05       	mova	@r5,	r1	
      80:	e6 01       	adda	r1,	r6	
      82:	00 00       	bra	@r0		
      84:	02 05       	mova	@r5,	r2	
      86:	ed 00       	adda	r0,	r13	
      88:	00 00       	bra	@r0		
      8a:	03 05       	.word	0x0503;	????	Illegal as address instr
      8c:	c9 00       	mova	r0,	r9	
      8e:	00 00       	bra	@r0		
      90:	04 05       	mova	@r5,	r4	
      92:	84 00 00 00 	mova	#0x00000,r4	
      96:	05 05       	mova	@r5,	r5	
      98:	1a 01       	mova	@r1+,	r10	
      9a:	00 00       	bra	@r0		
      9c:	06 05       	mova	@r5,	r6	
      9e:	01 01       	mova	@r1,	r1	
      a0:	00 00       	bra	@r0		
      a2:	07 00       	mova	@r0,	r7	
      a4:	06 21       	jnz	$+526    	;abs 0x2b2
      a6:	03 00       	.word	0x0003;	????	Illegal as address instr
      a8:	00 03       	bra	#2		;r3 As==10
      aa:	08 33       	jn	$-494    	;abs 0xfebc
      ac:	00 00       	bra	@r0		
      ae:	00 04       	bra	@r4		
      b0:	02 01       	mova	@r1,	r2	
      b2:	17 dc 00 00 	bis	0(r12),	r7	;0x0000(r12)
      b6:	00 05       	bra	@r5		
      b8:	bf 00 00 00 	suba	#0x00000,r15	
      bc:	00 05       	bra	@r5		
      be:	b1 00 00 00 	suba	#0x00000,r1	
      c2:	01 05       	mova	@r5,	r1	
      c4:	00 00       	bra	@r0		
      c6:	00 00       	bra	@r0		
      c8:	02 05       	mova	@r5,	r2	
      ca:	52 00       	rrcm	#1,	r2	
      cc:	00 00       	bra	@r0		
      ce:	03 05       	.word	0x0503;	????	Illegal as address instr
      d0:	13 03       	.word	0x0313;	????	Illegal as address instr
      d2:	00 00       	bra	@r0		
      d4:	04 05       	mova	@r5,	r4	
      d6:	5d 01       	rram	#1,	r13	
      d8:	00 00       	bra	@r0		
      da:	05 00       	mova	@r0,	r5	
      dc:	06 94       	cmp	r4,	r6	
      de:	02 00       	mova	@r0,	r2	
      e0:	00 01       	bra	@r1		
      e2:	1e af 00 00 	dadd	0(r15),	r14	;0x0000(r15)
      e6:	00 07       	bra	@r7		
      e8:	18 01       	mova	@r1+,	r8	
      ea:	20 1a       	.word	0x1a20;	????	
      ec:	01 00       	mova	@r0,	r1	
      ee:	00 08       	bra	@r8		
      f0:	79 01 00 00 	mova	r1,	0(r9)	;0x0000(r9)
      f4:	01 21       	jnz	$+516    	;abs 0x2f8
      f6:	1a 01       	mova	@r1+,	r10	
      f8:	00 00       	bra	@r0		
      fa:	02 23       	jnz	$-506    	;abs 0xff00
      fc:	00 08       	bra	@r8		
      fe:	00 03       	bra	#2		;r3 As==10
     100:	00 00       	bra	@r0		
     102:	01 22       	jnz	$-1020   	;abs 0xfd06
     104:	1a 01       	mova	@r1+,	r10	
     106:	00 00       	bra	@r0		
     108:	02 23       	jnz	$-506    	;abs 0xff0e
     10a:	08 08       	mova	@r8,	r8	
     10c:	bd 02 00 00 	suba	#0x20000,r13	
     110:	01 23       	jnz	$-508    	;abs 0xff14
     112:	1a 01       	mova	@r1+,	r10	
     114:	00 00       	bra	@r0		
     116:	02 23       	jnz	$-506    	;abs 0xff1c
     118:	10 00       	bra	#0x00000	
     11a:	09 33       	jn	$-492    	;abs 0xff2e
     11c:	00 00       	bra	@r0		
     11e:	00 2a       	jnc	$-1022   	;abs 0xfd20
     120:	01 00       	mova	@r0,	r1	
     122:	00 0a       	bra	@r10		
     124:	2c 00 00 00 	mova	&0x00000,r12	
     128:	03 00       	.word	0x0003;	????	Illegal as address instr
     12a:	06 b1       	bit	r1,	r6	
     12c:	02 00       	mova	@r0,	r2	
     12e:	00 01       	bra	@r1		
     130:	24 e7       	xor	@r7,	r4	
     132:	00 00       	bra	@r0		
     134:	00 0b       	bra	@r11		
     136:	01 e2       	xor	r2,	r1	
     138:	00 00       	bra	@r0		
     13a:	00 01       	bra	@r1		
     13c:	e5 01       	adda	r1,	r5	
     13e:	01 0b       	mova	@r11,	r1	
     140:	01 46       	mov	r6,	r1	
     142:	01 00       	mova	@r0,	r1	
     144:	00 01       	bra	@r1		
     146:	ed 01       	adda	r1,	r13	
     148:	01 0c       	mova	@r12,	r1	
     14a:	01 35       	jge	$+516    	;abs 0x34e
     14c:	02 00       	mova	@r0,	r2	
     14e:	00 01       	bra	@r1		
     150:	d8 01       	cmpa	r1,	r8	
     152:	2c 00 00 00 	mova	&0x00000,r12	
     156:	01 7b       	subc	r11,	r1	
     158:	01 00       	mova	@r0,	r1	
     15a:	00 0d       	bra	@r13		
     15c:	55 01       	rram	#1,	r5	
     15e:	00 00       	bra	@r0		
     160:	01 d8       	bis	r8,	r1	
     162:	7b 01 00 00 	mova	r1,	0(r11)	;0x0000(r11)
     166:	0e 1b       	.word	0x1b0e;	????	
     168:	00 00       	bra	@r0		
     16a:	00 01       	bra	@r1		
     16c:	d9 25       	jz	$+948    	;abs 0x520
     16e:	00 00       	bra	@r0		
     170:	00 0f       	bra	@r15		
     172:	69 00 01 da 	mova	r0,	&0x9da01
     176:	33 00       	.word	0x0033;	????	Illegal as address instr
     178:	00 00       	bra	@r0		
     17a:	00 10       	rrc	r0		
     17c:	02 2c       	jc	$+6      	;abs 0x182
     17e:	00 00       	bra	@r0		
     180:	00 11       	rra	r0		
     182:	01 0e       	mova	@r14,	r1	
     184:	00 00       	bra	@r0		
     186:	00 01       	bra	@r1		
     188:	aa 01 44 34 	adda	#0x13444,r10	
     18c:	da 34       	jge	$+438    	;abs 0x342
     18e:	00 00       	bra	@r0		
     190:	00 00       	bra	@r0		
     192:	11 01       	mova	@r1+,	r1	
     194:	c3 02       	.word	0x02c3;	????	Illegal as address instr
     196:	00 00       	bra	@r0		
     198:	01 b9       	bit	r9,	r1	
     19a:	01 50       	add	r0,	r1	
     19c:	35 fc       	and	@r12+,	r5	
     19e:	35 8c       	sub	@r12+,	r5	
     1a0:	00 00       	bra	@r0		
     1a2:	00 12       	push	r0		
     1a4:	01 29       	jnc	$+516    	;abs 0x3a8
     1a6:	00 00       	bra	@r0		
     1a8:	00 01       	bra	@r1		
     1aa:	c7 01       	mova	r1,	r7	
     1ac:	2c 00 00 00 	mova	&0x00000,r12	
     1b0:	fc 35       	jge	$+1018   	;abs 0x5aa
     1b2:	32 36       	jge	$-922    	;abs 0xfe18
     1b4:	60 01 00 00 	mova	r1,	&0x00000
     1b8:	f5 01       	suba	r1,	r5	
     1ba:	00 00       	bra	@r0		
     1bc:	13 55       	.word	0x5513;	????	Illegal as 2-op instr
     1be:	01 00       	mova	@r0,	r1	
     1c0:	00 01       	bra	@r1		
     1c2:	c7 7b 01 00 	subc.b	r11,	1(r7)	;0x0001(r7)
     1c6:	00 7c       	subc	r12,	r0	
     1c8:	01 00       	mova	@r0,	r1	
     1ca:	00 14       	pushm.a	#1,	r0	
     1cc:	69 00 01 c9 	mova	r0,	&0x9c901
     1d0:	33 00       	.word	0x0033;	????	Illegal as address instr
     1d2:	00 00       	bra	@r0		
     1d4:	87 01 00 00 	mova	#0x10000,r7	
     1d8:	14 6a 00 01 	addc	256(r10),r4	;0x0100(r10)
     1dc:	c9 33       	jn	$-108    	;abs 0x170
     1de:	00 00       	bra	@r0		
     1e0:	00 9a       	cmp	r10,	r0	
     1e2:	01 00       	mova	@r0,	r1	
     1e4:	00 14       	pushm.a	#1,	r0	
     1e6:	41 75       	subc.b	r5,	r1	
     1e8:	78 00 01 ca 	mova	r0,	-13823(r8);0xca01(r8)
     1ec:	2c 00 00 00 	mova	&0x00000,r12	
     1f0:	ad 01 00 00 	adda	#0x10000,r13	
     1f4:	00 15       	pushm	#1,	r0	
     1f6:	49 01       	rram.a	#1,	r9	
     1f8:	00 00       	bra	@r0		
     1fa:	32 36       	jge	$-922    	;abs 0xfe60
     1fc:	6a 36       	jge	$-810    	;abs 0xfed2
     1fe:	b9 01 00 00 	suba	#0x10000,r9	
     202:	22 02 00 00 	mova	&0x20000,r2	
     206:	16 5b 01 00 	add	1(r11),	r6	;0x0001(r11)
     20a:	00 e5       	xor	r5,	r0	
     20c:	01 00       	mova	@r0,	r1	
     20e:	00 17       	popm	#1,	r0	
     210:	66 01 00 00 	mova	r1,	&0x60000
     214:	f0 01       	suba	r1,	r0	
     216:	00 00       	bra	@r0		
     218:	17 71 01 00 	subc	1(r1),	r7	;0x0001(r1)
     21c:	00 0c       	bra	@r12		
     21e:	02 00       	mova	@r0,	r2	
     220:	00 00       	bra	@r0		
     222:	18 35       	jge	$+562    	;abs 0x454
     224:	01 00       	mova	@r0,	r1	
     226:	00 6a       	addc	r10,	r0	
     228:	36 82       	sub	#8,	r6	;r2 As==11
     22a:	36 02 71 02 	mova	&0x0271,r6	
     22e:	18 3f       	jmp	$-462    	;abs 0x60
     230:	01 00       	mova	@r0,	r1	
     232:	00 82       	sub	r2,	r0	
     234:	36 a4       	dadd	@r4+,	r6	
     236:	36 02 71 02 	mova	&0x0271,r6	
     23a:	19 01       	mova	@r1+,	r9	
     23c:	d3 01       	.word	0x01d3;	????	Illegal as address instr
     23e:	00 00       	bra	@r0		
     240:	01 0f       	mova	@r15,	r1	
     242:	01 01       	mova	@r1,	r1	
     244:	a4 36       	jge	$-694    	;abs 0xff8e
     246:	f2 36       	jge	$-538    	;abs 0x2c
     248:	02 71       	subc	r1,	r2	
     24a:	02 68       	addc	r8,	r2	
     24c:	02 00       	mova	@r0,	r2	
     24e:	00 1a       	.word	0x1a00;	????	
     250:	35 01 00 00 	mova	0(r1),	r5	;0x0000(r1)
     254:	ac 36       	jge	$-678    	;abs 0xffae
     256:	c2 36       	jge	$-634    	;abs 0xffdc
     258:	01 13       	reti			;return from interupt
     25a:	01 1a       	.word	0x1a01;	????	
     25c:	3f 01 00 00 	mova	0(r1),	r15	;0x0000(r1)
     260:	c2 36       	jge	$-634    	;abs 0xffe6
     262:	e2 36       	jge	$-570    	;abs 0x28
     264:	01 14       	pushm.a	#1,	r1	
     266:	01 00       	mova	@r0,	r1	
     268:	12 01       	mova	@r1+,	r2	
     26a:	3c 03 00 00 	mova	#1,	r12	;r3 As==01
     26e:	01 32       	jn	$-1020   	;abs 0xfe72
     270:	01 33       	jn	$-508    	;abs 0x74
     272:	00 00       	bra	@r0		
     274:	00 38       	jl	$+2      	;abs 0x276
     276:	31 f4       	and	@r4+,	r1	
     278:	33 18       	.word	0x1833;	????	
     27a:	02 00       	mova	@r0,	r2	
     27c:	00 a1       	dadd	r1,	r0	
     27e:	03 00       	.word	0x0003;	????	Illegal as address instr
     280:	00 1b       	.word	0x1b00;	????	
     282:	6e 02 00 00 	mova	r2,	&0xe0000
     286:	01 34       	jge	$+4      	;abs 0x28a
     288:	dc 00       	cmpa	r0,	r12	
     28a:	00 00       	bra	@r0		
     28c:	2d 02 00 00 	mova	&0x20000,r13	
     290:	1c 82 01 00 	sub	&0x0001,r12	
     294:	00 01       	bra	@r1		
     296:	3a a1       	dadd	@r1+,	r10	
     298:	03 00       	.word	0x0003;	????	Illegal as address instr
     29a:	00 02       	bra	#4		;r2 As==10
     29c:	91 00 1c 6a 	cmpa	#0x06a1c,r1	
     2a0:	01 00       	mova	@r0,	r1	
     2a2:	00 01       	bra	@r1		
     2a4:	3b a1       	dadd	@r1+,	r11	
     2a6:	03 00       	.word	0x0003;	????	Illegal as address instr
     2a8:	00 02       	bra	#4		;r2 As==10
     2aa:	91 0a 1c 51 	cmpa	#0xa511c,r1	
     2ae:	01 00       	mova	@r0,	r1	
     2b0:	00 01       	bra	@r1		
     2b2:	3c a1       	dadd	@r1+,	r12	
     2b4:	03 00       	.word	0x0003;	????	Illegal as address instr
     2b6:	00 02       	bra	#4		;r2 As==10
     2b8:	91 14       	pushm.a	#10,	r1	
     2ba:	1c 99 01 00 	cmp	1(r9),	r12	;0x0001(r9)
     2be:	00 01       	bra	@r1		
     2c0:	3e b1       	bit	@r1+,	r14	
     2c2:	03 00       	.word	0x0003;	????	Illegal as address instr
     2c4:	00 02       	bra	#4		;r2 As==10
     2c6:	91 1e 1c e5 	xorx	-196606(r5),r12	;0xd0002(r5)
     2ca:	02 00 
     2cc:	00 01       	bra	@r1		
     2ce:	3f b1       	bit	@r1+,	r15	
     2d0:	03 00       	.word	0x0003;	????	Illegal as address instr
     2d2:	00 02       	bra	#4		;r2 As==10
     2d4:	91 2c       	jc	$+292    	;abs 0x3f8
     2d6:	1c d9 01 00 	bis	1(r9),	r12	;0x0001(r9)
     2da:	00 01       	bra	@r1		
     2dc:	40 b1       	bit.b	r1,	r0	
     2de:	03 00       	.word	0x0003;	????	Illegal as address instr
     2e0:	00 02       	bra	#4		;r2 As==10
     2e2:	91 3a       	jl	$-732    	;abs 0x6
     2e4:	1b f8 01 00 	and	1(r8),	r11	;0x0001(r8)
     2e8:	00 01       	bra	@r1		
     2ea:	42 2c       	jc	$+134    	;abs 0x370
     2ec:	00 00       	bra	@r0		
     2ee:	00 91       	cmp	r1,	r0	
     2f0:	02 00       	mova	@r0,	r2	
     2f2:	00 1b       	.word	0x1b00;	????	
     2f4:	a5 00 00 00 	adda	#0x00000,r5	
     2f8:	01 43       	clr	r1		
     2fa:	2c 00 00 00 	mova	&0x00000,r12	
     2fe:	c5 02       	mova	r2,	r5	
     300:	00 00       	bra	@r0		
     302:	1b 1a       	.word	0x1a1b;	????	
     304:	02 00       	mova	@r0,	r2	
     306:	00 01       	bra	@r1		
     308:	44 2c       	jc	$+138    	;abs 0x392
     30a:	00 00       	bra	@r0		
     30c:	00 e9       	xor	r9,	r0	
     30e:	02 00       	mova	@r0,	r2	
     310:	00 1d       	.word	0x1d00;	????	
     312:	49 01       	rram.a	#1,	r9	
     314:	00 00       	bra	@r0		
     316:	28 32       	jn	$-942    	;abs 0xff68
     318:	46 32       	jn	$-882    	;abs 0xffa6
     31a:	01 60       	addc	r0,	r1	
     31c:	42 03       	rrum.a	#1,	r2	
     31e:	00 00       	bra	@r0		
     320:	16 5b 01 00 	add	1(r11),	r6	;0x0001(r11)
     324:	00 0d       	bra	@r13		
     326:	03 00       	.word	0x0003;	????	Illegal as address instr
     328:	00 1e       	.word	0x1e00;	????	
     32a:	28 32       	jn	$-942    	;abs 0xff7c
     32c:	46 32       	jn	$-882    	;abs 0xffba
     32e:	17 66 01 00 	addc	1(r6),	r7	;0x0001(r6)
     332:	00 2c       	jc	$+2      	;abs 0x334
     334:	03 00       	.word	0x0003;	????	Illegal as address instr
     336:	00 17       	popm	#1,	r0	
     338:	71 01 00 00 	mova	r1,	0(r1)	;0x0000(r1)
     33c:	48 03       	rrum.a	#1,	r8	
     33e:	00 00       	bra	@r0		
     340:	00 00       	bra	@r0		
     342:	1d 49 01 00 	mov	1(r9),	r13	;0x0001(r9)
     346:	00 50       	rla	r0		
     348:	32 6e       	addc	@r14+,	r2	
     34a:	32 01 61 73 	mova	29537(r1),r2	;0x7361(r1)
     34e:	03 00       	.word	0x0003;	????	Illegal as address instr
     350:	00 16       	popm.a	#1,	r0	
     352:	5b 01       	rram	#1,	r11	
     354:	00 00       	bra	@r0		
     356:	54 03       	rrum	#1,	r4	
     358:	00 00       	bra	@r0		
     35a:	1e 50 32 6e 	add	0x6e32,	r14	;PC rel. 0x07190
     35e:	32 17       	popm	#4,	r5	
     360:	66 01 00 00 	mova	r1,	&0x60000
     364:	73 03       	.word	0x0373;	????	Illegal as address instr
     366:	00 00       	bra	@r0		
     368:	17 71 01 00 	subc	1(r1),	r7	;0x0001(r1)
     36c:	00 8f       	sub	r15,	r0	
     36e:	03 00       	.word	0x0003;	????	Illegal as address instr
     370:	00 00       	bra	@r0		
     372:	00 1f       	.word	0x1f00;	????	
     374:	49 01       	rram.a	#1,	r9	
     376:	00 00       	bra	@r0		
     378:	7a 32       	jn	$-778    	;abs 0x6e
     37a:	a0 32       	jn	$-702    	;abs 0xbc
     37c:	01 62       	addc	r2,	r1	
     37e:	16 5b 01 00 	add	1(r11),	r6	;0x0001(r11)
     382:	00 9b       	cmp	r11,	r0	
     384:	03 00       	.word	0x0003;	????	Illegal as address instr
     386:	00 1e       	.word	0x1e00;	????	
     388:	7a 32       	jn	$-778    	;abs 0x7e
     38a:	a0 32       	jn	$-702    	;abs 0xcc
     38c:	17 66 01 00 	addc	1(r6),	r7	;0x0001(r6)
     390:	00 ba       	bit	r10,	r0	
     392:	03 00       	.word	0x0003;	????	Illegal as address instr
     394:	00 17       	popm	#1,	r0	
     396:	71 01 00 00 	mova	r1,	0(r1)	;0x0000(r1)
     39a:	d6 03       	tsta	r6		
     39c:	00 00       	bra	@r0		
     39e:	00 00       	bra	@r0		
     3a0:	00 09       	bra	@r9		
     3a2:	2c 00 00 00 	mova	&0x00000,r12	
     3a6:	b1 03 00 00 	suba	#0x30000,r1	
     3aa:	0a 2c       	jc	$+22     	;abs 0x3c0
     3ac:	00 00       	bra	@r0		
     3ae:	00 04       	bra	@r4		
     3b0:	00 09       	bra	@r9		
     3b2:	2c 00 00 00 	mova	&0x00000,r12	
     3b6:	c1 03       	mova	#0,	r1	;r3 As==00
     3b8:	00 00       	bra	@r0		
     3ba:	0a 2c       	jc	$+22     	;abs 0x3d0
     3bc:	00 00       	bra	@r0		
     3be:	00 06       	bra	@r6		
     3c0:	00 20       	jnz	$+2      	;abs 0x3c2
     3c2:	01 d4       	bis	r4,	r1	
     3c4:	02 00       	mova	@r0,	r2	
     3c6:	00 01       	bra	@r1		
     3c8:	1e 01       	mova	@r1+,	r14	
     3ca:	01 fe       	and	r14,	r1	
     3cc:	36 06 37 02 	mova	567(r6),r6	;0x0237(r6)
     3d0:	71 02 21 0c 	mova	r2,	3105(r1);0x0c21(r1)
     3d4:	03 00       	.word	0x0003;	????	Illegal as address instr
     3d6:	00 04       	bra	@r4		
     3d8:	c4 01       	mova	r1,	r4	
     3da:	09 03       	mova	#2,	r9	;r3 As==10
     3dc:	00 00       	bra	@r0		
     3de:	e4 03       	incda	r4		
     3e0:	00 00       	bra	@r0		
     3e2:	01 01       	mova	@r1,	r1	
     3e4:	22 48       	mov	@r8,	r2	
     3e6:	00 00       	bra	@r0		
     3e8:	00 21       	jnz	$+514    	;abs 0x5ea
     3ea:	f8 02       	suba	r2,	r8	
     3ec:	00 00       	bra	@r0		
     3ee:	04 c6       	bic	r6,	r4	
     3f0:	01 f5       	and	r5,	r1	
     3f2:	02 00       	mova	@r0,	r2	
     3f4:	00 e4       	xor	r4,	r0	
     3f6:	03 00       	.word	0x0003;	????	Illegal as address instr
     3f8:	00 01       	bra	@r1		
     3fa:	01 21       	jnz	$+516    	;abs 0x5fe
     3fc:	71 00 00 00 	mova	r0,	0(r1)	;0x0000(r1)
     400:	04 c8       	bic	r8,	r4	
     402:	01 6e       	addc	r14,	r1	
     404:	00 00       	bra	@r0		
     406:	00 e4       	xor	r4,	r0	
     408:	03 00       	.word	0x0003;	????	Illegal as address instr
     40a:	00 01       	bra	@r1		
     40c:	01 21       	jnz	$+516    	;abs 0x610
     40e:	7c 00 00 00 	mova	r0,	0(r12)	;0x0000(r12)
     412:	04 ca       	bic	r10,	r4	
     414:	01 79       	subc	r9,	r1	
     416:	00 00       	bra	@r0		
     418:	00 e4       	xor	r4,	r0	
     41a:	03 00       	.word	0x0003;	????	Illegal as address instr
     41c:	00 01       	bra	@r1		
     41e:	01 21       	jnz	$+516    	;abs 0x622
     420:	9f 02 00 00 	cmpa	#0x20000,r15	
     424:	04 7e       	subc	r14,	r4	
     426:	03 9c       	.word	0x9c03;	????	Illegal as 2-op instr
     428:	02 00       	mova	@r0,	r2	
     42a:	00 e4       	xor	r4,	r0	
     42c:	03 00       	.word	0x0003;	????	Illegal as address instr
     42e:	00 01       	bra	@r1		
     430:	01 21       	jnz	$+516    	;abs 0x634
     432:	9f 00 00 00 	cmpa	#0x00000,r15	
     436:	04 80       	sub	r0,	r4	
     438:	03 9c       	.word	0x9c03;	????	Illegal as 2-op instr
     43a:	00 00       	bra	@r0		
     43c:	00 e4       	xor	r4,	r0	
     43e:	03 00       	.word	0x0003;	????	Illegal as address instr
     440:	00 01       	bra	@r1		
     442:	01 21       	jnz	$+516    	;abs 0x646
     444:	36 03 00 00 	mova	#1,	r6	;r3 As==01
     448:	04 a2       	dadd	r2,	r4	
     44a:	03 33       	jn	$-504    	;abs 0x252
     44c:	03 00       	.word	0x0003;	????	Illegal as address instr
     44e:	00 e4       	xor	r4,	r0	
     450:	03 00       	.word	0x0003;	????	Illegal as address instr
     452:	00 01       	bra	@r1		
     454:	01 21       	jnz	$+516    	;abs 0x658
     456:	7a 02 00 00 	mova	r2,	0(r10)	;0x0000(r10)
     45a:	04 a4       	dadd	r4,	r4	
     45c:	03 77       	.word	0x7703;	????	Illegal as 2-op instr
     45e:	02 00       	mova	@r0,	r2	
     460:	00 e4       	xor	r4,	r0	
     462:	03 00       	.word	0x0003;	????	Illegal as address instr
     464:	00 01       	bra	@r1		
     466:	01 21       	jnz	$+516    	;abs 0x66a
     468:	c0 01       	bra	r1		
     46a:	00 00       	bra	@r0		
     46c:	04 6f       	addc	r15,	r4	
     46e:	04 bd       	bit	r13,	r4	
     470:	01 00       	mova	@r0,	r1	
     472:	00 79       	subc	r9,	r0	
     474:	04 00       	mova	@r0,	r4	
     476:	00 01       	bra	@r1		
     478:	01 22       	jnz	$-1020   	;abs 0x7c
     47a:	2c 00 00 00 	mova	&0x00000,r12	
     47e:	21 da       	bis	@r10,	r1	
     480:	00 00       	bra	@r0		
     482:	00 04       	bra	@r4		
     484:	73 04       	.word	0x0473;	????	Illegal as address instr
     486:	d7 00       	cmpa	r0,	r7	
     488:	00 00       	bra	@r0		
     48a:	79 04 00 00 	mova	r4,	0(r9)	;0x0000(r9)
     48e:	01 01       	mova	@r1,	r1	
     490:	21 83       	decd	r1		
     492:	02 00       	mova	@r0,	r2	
     494:	00 04       	bra	@r4		
     496:	81 04 80 02 	mova	#0x40280,r1	
     49a:	00 00       	bra	@r0		
     49c:	79 04 00 00 	mova	r4,	0(r9)	;0x0000(r9)
     4a0:	01 01       	mova	@r1,	r1	
     4a2:	21 8d       	sub	@r13,	r1	
     4a4:	02 00       	mova	@r0,	r2	
     4a6:	00 04       	bra	@r4		
     4a8:	83 04       	.word	0x0483;	????	Illegal as address instr
     4aa:	8a 02 00 00 	mova	#0x20000,r10	
     4ae:	79 04 00 00 	mova	r4,	0(r9)	;0x0000(r9)
     4b2:	01 01       	mova	@r1,	r1	
     4b4:	21 4b       	mov	@r11,	r1	
     4b6:	00 00       	bra	@r0		
     4b8:	00 04       	bra	@r4		
     4ba:	d9 05       	cmpa	r5,	r9	
     4bc:	48 00       	rrcm.a	#1,	r8	
     4be:	00 00       	bra	@r0		
     4c0:	79 04 00 00 	mova	r4,	0(r9)	;0x0000(r9)
     4c4:	01 01       	mova	@r1,	r1	
     4c6:	09 a4       	dadd	r4,	r9	
     4c8:	00 00       	bra	@r0		
     4ca:	00 d6       	bis	r6,	r0	
     4cc:	04 00       	mova	@r0,	r4	
     4ce:	00 0a       	bra	@r10		
     4d0:	2c 00 00 00 	mova	&0x00000,r12	
     4d4:	07 00       	mova	@r0,	r7	
     4d6:	23 a5       	.word	0xa523;	????	Illegal as 2-op instr
     4d8:	02 00       	mova	@r0,	r2	
     4da:	00 05       	bra	@r5		
     4dc:	09 c6       	bic	r6,	r9	
     4de:	04 00       	mova	@r0,	r4	
     4e0:	00 01       	bra	@r1		
     4e2:	01 23       	jnz	$-508    	;abs 0x2e6
     4e4:	c6 01       	mova	r1,	r6	
     4e6:	00 00       	bra	@r0		
     4e8:	06 3a       	jl	$-1010   	;abs 0xf6
     4ea:	48 00       	rrcm.a	#1,	r8	
     4ec:	00 00       	bra	@r0		
     4ee:	01 01       	mova	@r1,	r1	
     4f0:	23 0f       	.word	0x0f23;	????	Illegal as address instr
     4f2:	01 00       	mova	@r0,	r1	
     4f4:	00 01       	bra	@r1		
     4f6:	2e 2a       	jnc	$-930    	;abs 0x154
     4f8:	01 00       	mova	@r0,	r1	
     4fa:	00 01       	bra	@r1		
     4fc:	01 23       	jnz	$-508    	;abs 0x300
     4fe:	91 01 00 00 	cmpa	#0x10000,r1	
     502:	01 2f       	jc	$-508    	;abs 0x306
     504:	2c 00 00 00 	mova	&0x00000,r12	
     508:	01 01       	mova	@r1,	r1	
     50a:	23 21       	jnz	$+584    	;abs 0x752
     50c:	00 00       	bra	@r0		
     50e:	00 01       	bra	@r1		
     510:	2f 2c       	jc	$+96     	;abs 0x570
     512:	00 00       	bra	@r0		
     514:	00 01       	bra	@r1		
     516:	01 23       	jnz	$-508    	;abs 0x31a
     518:	41 03       	rrum.a	#1,	r1	
     51a:	00 00       	bra	@r0		
     51c:	01 30       	jn	$+4      	;abs 0x520
     51e:	33 00       	.word	0x0033;	????	Illegal as address instr
     520:	00 00       	bra	@r0		
     522:	01 01       	mova	@r1,	r1	
     524:	23 00       	.word	0x0023;	????	Illegal as address instr
     526:	02 00       	mova	@r0,	r2	
     528:	00 01       	bra	@r1		
     52a:	30 33       	jn	$-414    	;abs 0x38c
     52c:	00 00       	bra	@r0		
     52e:	00 01       	bra	@r1		
     530:	01 21       	jnz	$+516    	;abs 0x734
     532:	0c 03       	mova	#2,	r12	;r3 As==10
     534:	00 00       	bra	@r0		
     536:	04 c4       	bic	r4,	r4	
     538:	01 09       	mova	@r9,	r1	
     53a:	03 00       	.word	0x0003;	????	Illegal as address instr
     53c:	00 e4       	xor	r4,	r0	
     53e:	03 00       	.word	0x0003;	????	Illegal as address instr
     540:	00 01       	bra	@r1		
     542:	01 21       	jnz	$+516    	;abs 0x746
     544:	f8 02       	suba	r2,	r8	
     546:	00 00       	bra	@r0		
     548:	04 c6       	bic	r6,	r4	
     54a:	01 f5       	and	r5,	r1	
     54c:	02 00       	mova	@r0,	r2	
     54e:	00 e4       	xor	r4,	r0	
     550:	03 00       	.word	0x0003;	????	Illegal as address instr
     552:	00 01       	bra	@r1		
     554:	01 21       	jnz	$+516    	;abs 0x758
     556:	71 00 00 00 	mova	r0,	0(r1)	;0x0000(r1)
     55a:	04 c8       	bic	r8,	r4	
     55c:	01 6e       	addc	r14,	r1	
     55e:	00 00       	bra	@r0		
     560:	00 e4       	xor	r4,	r0	
     562:	03 00       	.word	0x0003;	????	Illegal as address instr
     564:	00 01       	bra	@r1		
     566:	01 21       	jnz	$+516    	;abs 0x76a
     568:	7c 00 00 00 	mova	r0,	0(r12)	;0x0000(r12)
     56c:	04 ca       	bic	r10,	r4	
     56e:	01 79       	subc	r9,	r1	
     570:	00 00       	bra	@r0		
     572:	00 e4       	xor	r4,	r0	
     574:	03 00       	.word	0x0003;	????	Illegal as address instr
     576:	00 01       	bra	@r1		
     578:	01 21       	jnz	$+516    	;abs 0x77c
     57a:	9f 02 00 00 	cmpa	#0x20000,r15	
     57e:	04 7e       	subc	r14,	r4	
     580:	03 9c       	.word	0x9c03;	????	Illegal as 2-op instr
     582:	02 00       	mova	@r0,	r2	
     584:	00 e4       	xor	r4,	r0	
     586:	03 00       	.word	0x0003;	????	Illegal as address instr
     588:	00 01       	bra	@r1		
     58a:	01 21       	jnz	$+516    	;abs 0x78e
     58c:	9f 00 00 00 	cmpa	#0x00000,r15	
     590:	04 80       	sub	r0,	r4	
     592:	03 9c       	.word	0x9c03;	????	Illegal as 2-op instr
     594:	00 00       	bra	@r0		
     596:	00 e4       	xor	r4,	r0	
     598:	03 00       	.word	0x0003;	????	Illegal as address instr
     59a:	00 01       	bra	@r1		
     59c:	01 21       	jnz	$+516    	;abs 0x7a0
     59e:	36 03 00 00 	mova	#1,	r6	;r3 As==01
     5a2:	04 a2       	dadd	r2,	r4	
     5a4:	03 33       	jn	$-504    	;abs 0x3ac
     5a6:	03 00       	.word	0x0003;	????	Illegal as address instr
     5a8:	00 e4       	xor	r4,	r0	
     5aa:	03 00       	.word	0x0003;	????	Illegal as address instr
     5ac:	00 01       	bra	@r1		
     5ae:	01 21       	jnz	$+516    	;abs 0x7b2
     5b0:	7a 02 00 00 	mova	r2,	0(r10)	;0x0000(r10)
     5b4:	04 a4       	dadd	r4,	r4	
     5b6:	03 77       	.word	0x7703;	????	Illegal as 2-op instr
     5b8:	02 00       	mova	@r0,	r2	
     5ba:	00 e4       	xor	r4,	r0	
     5bc:	03 00       	.word	0x0003;	????	Illegal as address instr
     5be:	00 01       	bra	@r1		
     5c0:	01 21       	jnz	$+516    	;abs 0x7c4
     5c2:	c0 01       	bra	r1		
     5c4:	00 00       	bra	@r0		
     5c6:	04 6f       	addc	r15,	r4	
     5c8:	04 bd       	bit	r13,	r4	
     5ca:	01 00       	mova	@r0,	r1	
     5cc:	00 79       	subc	r9,	r0	
     5ce:	04 00       	mova	@r0,	r4	
     5d0:	00 01       	bra	@r1		
     5d2:	01 21       	jnz	$+516    	;abs 0x7d6
     5d4:	da 00       	cmpa	r0,	r10	
     5d6:	00 00       	bra	@r0		
     5d8:	04 73       	sbc	r4		
     5da:	04 d7       	bis	r7,	r4	
     5dc:	00 00       	bra	@r0		
     5de:	00 79       	subc	r9,	r0	
     5e0:	04 00       	mova	@r0,	r4	
     5e2:	00 01       	bra	@r1		
     5e4:	01 21       	jnz	$+516    	;abs 0x7e8
     5e6:	83 02       	.word	0x0283;	????	Illegal as address instr
     5e8:	00 00       	bra	@r0		
     5ea:	04 81       	sub	r1,	r4	
     5ec:	04 80       	sub	r0,	r4	
     5ee:	02 00       	mova	@r0,	r2	
     5f0:	00 79       	subc	r9,	r0	
     5f2:	04 00       	mova	@r0,	r4	
     5f4:	00 01       	bra	@r1		
     5f6:	01 21       	jnz	$+516    	;abs 0x7fa
     5f8:	8d 02 00 00 	mova	#0x20000,r13	
     5fc:	04 83       	sub	#0,	r4	;r3 As==00
     5fe:	04 8a       	sub	r10,	r4	
     600:	02 00       	mova	@r0,	r2	
     602:	00 79       	subc	r9,	r0	
     604:	04 00       	mova	@r0,	r4	
     606:	00 01       	bra	@r1		
     608:	01 21       	jnz	$+516    	;abs 0x80c
     60a:	4b 00       	rrcm.a	#1,	r11	
     60c:	00 00       	bra	@r0		
     60e:	04 d9       	bis	r9,	r4	
     610:	05 48       	mov	r8,	r5	
     612:	00 00       	bra	@r0		
     614:	00 79       	subc	r9,	r0	
     616:	04 00       	mova	@r0,	r4	
     618:	00 01       	bra	@r1		
     61a:	01 23       	jnz	$-508    	;abs 0x41e
     61c:	a5 02 00 00 	adda	#0x20000,r5	
     620:	05 09       	mova	@r9,	r5	
     622:	c6 04       	mova	r4,	r6	
     624:	00 00       	bra	@r0		
     626:	01 01       	mova	@r1,	r1	
     628:	23 c6       	.word	0xc623;	????	Illegal as 2-op instr
     62a:	01 00       	mova	@r0,	r1	
     62c:	00 06       	bra	@r6		
     62e:	3a 48       	mov	@r8+,	r10	
     630:	00 00       	bra	@r0		
     632:	00 01       	bra	@r1		
     634:	01 24       	jz	$+4      	;abs 0x638
     636:	0f 01       	mova	@r1,	r15	
     638:	00 00       	bra	@r0		
     63a:	01 2e       	jc	$-1020   	;abs 0x23e
     63c:	2a 01 00 00 	mova	&0x10000,r10	
     640:	01 03       	mova	#2,	r1	;r3 As==10
     642:	03 30       	jn	$+8      	;abs 0x64a
     644:	11 24       	jz	$+36     	;abs 0x668
     646:	91 01 00 00 	cmpa	#0x10000,r1	
     64a:	01 2f       	jc	$-508    	;abs 0x44e
     64c:	2c 00 00 00 	mova	&0x00000,r12	
     650:	01 03       	mova	#2,	r1	;r3 As==10
     652:	03 02       	.word	0x0203;	????	Illegal as address instr
     654:	11 24       	jz	$+36     	;abs 0x678
     656:	21 00 00 00 	mova	&0x00000,r1	
     65a:	01 2f       	jc	$-508    	;abs 0x45e
     65c:	2c 00 00 00 	mova	&0x00000,r12	
     660:	01 03       	mova	#2,	r1	;r3 As==10
     662:	03 04       	.word	0x0403;	????	Illegal as address instr
     664:	11 24       	jz	$+36     	;abs 0x688
     666:	41 03       	rrum.a	#1,	r1	
     668:	00 00       	bra	@r0		
     66a:	01 30       	jn	$+4      	;abs 0x66e
     66c:	33 00       	.word	0x0033;	????	Illegal as address instr
     66e:	00 00       	bra	@r0		
     670:	01 03       	mova	#2,	r1	;r3 As==10
     672:	03 06       	.word	0x0603;	????	Illegal as address instr
     674:	11 24       	jz	$+36     	;abs 0x698
     676:	00 02       	bra	#4		;r2 As==10
     678:	00 00       	bra	@r0		
     67a:	01 30       	jn	$+4      	;abs 0x67e
     67c:	33 00       	.word	0x0033;	????	Illegal as address instr
     67e:	00 00       	bra	@r0		
     680:	01 03       	mova	#2,	r1	;r3 As==10
     682:	03 08       	.word	0x0803;	????	Illegal as address instr
     684:	11 00       	mova	#0x00000,r1	
     686:	b3 07       	.word	0x07b3;	????	Illegal as address instr
     688:	00 00       	bra	@r0		
     68a:	02 00       	mova	@r0,	r2	
     68c:	0c 02       	mova	#4,	r12	;r2 As==10
     68e:	00 00       	bra	@r0		
     690:	02 01       	mova	@r1,	r2	
     692:	27 03 00 00 	mova	&0x30000,r7	
     696:	01 94       	cmp	r4,	r1	
     698:	03 00       	.word	0x0003;	????	Illegal as address instr
     69a:	00 3b       	jl	$-510    	;abs 0x49c
     69c:	02 00       	mova	@r0,	r2	
     69e:	00 06       	bra	@r6		
     6a0:	37 cc       	bic	@r12+,	r7	
     6a2:	41 9c       	cmp.b	r12,	r1	
     6a4:	04 00       	mova	@r0,	r4	
     6a6:	00 02       	bra	#4		;r2 As==10
     6a8:	04 05       	mova	@r5,	r4	
     6aa:	65 00 00 00 	mova	r0,	&0x50000
     6ae:	02 02       	mova	#4,	r2	;r2 As==10
     6b0:	07 3b       	jl	$-496    	;abs 0x4c0
     6b2:	00 00       	bra	@r0		
     6b4:	00 03       	bra	#2		;r3 As==10
     6b6:	02 05       	mova	@r5,	r2	
     6b8:	69 6e       	addc.b	@r14,	r9	
     6ba:	74 00 02 01 	mova	r0,	258(r4)	;0x0102(r4)
     6be:	06 29       	jnc	$+526    	;abs 0x8cc
     6c0:	02 00       	mova	@r0,	r2	
     6c2:	00 02       	bra	#4		;r2 As==10
     6c4:	08 05       	mova	@r5,	r8	
     6c6:	60 00 00 00 	mova	r0,	&0x00000
     6ca:	02 01       	mova	@r1,	r2	
     6cc:	08 27       	jz	$-494    	;abs 0x4de
     6ce:	02 00       	mova	@r0,	r2	
     6d0:	00 02       	bra	#4		;r2 As==10
     6d2:	04 07       	mova	@r7,	r4	
     6d4:	36 00 00 00 	mova	0x0000,	r6	;PC rel. 0x006d6
     6d8:	02 08       	mova	@r8,	r2	
     6da:	07 31       	jn	$+528    	;abs 0x8ea
     6dc:	00 00       	bra	@r0		
     6de:	00 02       	bra	#4		;r2 As==10
     6e0:	02 07       	mova	@r7,	r2	
     6e2:	2c 01 00 00 	mova	&0x10000,r12	
     6e6:	02 01       	mova	@r1,	r2	
     6e8:	06 30       	jn	$+14     	;abs 0x6f6
     6ea:	02 00       	mova	@r0,	r2	
     6ec:	00 04       	bra	@r4		
     6ee:	02 04       	mova	@r4,	r2	
     6f0:	0d a0       	dadd	r0,	r13	
     6f2:	00 00       	bra	@r0		
     6f4:	00 05       	bra	@r5		
     6f6:	0b 02       	mova	#4,	r11	;r2 As==10
     6f8:	00 00       	bra	@r0		
     6fa:	00 05       	bra	@r5		
     6fc:	a9 01 00 00 	adda	#0x10000,r9	
     700:	01 05       	mova	@r5,	r1	
     702:	e6 01       	adda	r1,	r6	
     704:	00 00       	bra	@r0		
     706:	02 05       	mova	@r5,	r2	
     708:	ed 00       	adda	r0,	r13	
     70a:	00 00       	bra	@r0		
     70c:	03 05       	.word	0x0503;	????	Illegal as address instr
     70e:	c9 00       	mova	r0,	r9	
     710:	00 00       	bra	@r0		
     712:	04 05       	mova	@r5,	r4	
     714:	84 00 00 00 	mova	#0x00000,r4	
     718:	05 05       	mova	@r5,	r5	
     71a:	1a 01       	mova	@r1+,	r10	
     71c:	00 00       	bra	@r0		
     71e:	06 05       	mova	@r5,	r6	
     720:	01 01       	mova	@r1,	r1	
     722:	00 00       	bra	@r0		
     724:	07 00       	mova	@r0,	r7	
     726:	06 01       	mova	@r1,	r6	
     728:	4b 03       	rrum.a	#1,	r11	
     72a:	00 00       	bra	@r0		
     72c:	01 b8       	bit	r8,	r1	
     72e:	01 01       	mova	@r1,	r1	
     730:	01 07       	mova	@r7,	r1	
     732:	01 e9       	xor	r9,	r1	
     734:	03 00       	.word	0x0003;	????	Illegal as address instr
     736:	00 01       	bra	@r1		
     738:	c0 01       	bra	r1		
     73a:	01 01       	mova	@r1,	r1	
     73c:	cf 00       	mova	r0,	r15	
     73e:	00 00       	bra	@r0		
     740:	08 78       	subc	r8,	r8	
     742:	00 01       	bra	@r1		
     744:	c0 01       	bra	r1		
     746:	44 00       	rrcm.a	#1,	r4	
     748:	00 00       	bra	@r0		
     74a:	08 79       	subc	r9,	r8	
     74c:	00 01       	bra	@r1		
     74e:	c0 01       	bra	r1		
     750:	44 00       	rrcm.a	#1,	r4	
     752:	00 00       	bra	@r0		
     754:	00 09       	bra	@r9		
     756:	01 27       	jz	$-508    	;abs 0x55a
     758:	04 00       	mova	@r0,	r4	
     75a:	00 01       	bra	@r1		
     75c:	b1 01 06 37 	suba	#0x13706,r1	
     760:	10 37       	jge	$-478    	;abs 0x582
     762:	02 71       	subc	r1,	r2	
     764:	02 fe       	and	r14,	r2	
     766:	00 00       	bra	@r0		
     768:	00 0a       	bra	@r10		
     76a:	64 04 00 00 	mova	r4,	&0x40000
     76e:	01 b1       	bit	r1,	r1	
     770:	44 00       	rrcm.a	#1,	r4	
     772:	00 00       	bra	@r0		
     774:	01 5f       	add	r15,	r1	
     776:	0a 57       	add	r7,	r10	
     778:	03 00       	.word	0x0003;	????	Illegal as address instr
     77a:	00 01       	bra	@r1		
     77c:	b1 44 00 00 	mov	@r4+,	0(r1)	;0x0000(r1)
     780:	00 01       	bra	@r1		
     782:	5e 00       	rrcm	#1,	r14	
     784:	0b 01       	mova	@r1,	r11	
     786:	7b 03 00 00 	mova	#0,	0(r11)	;r3 As==00, 0x0000(r11)
     78a:	01 bd       	bit	r13,	r1	
     78c:	01 10       	rrc	r1		
     78e:	37 76       	subc	@r6+,	r7	
     790:	37 e2       	xor	#8,	r7	;r2 As==11
     792:	03 00       	.word	0x0003;	????	Illegal as address instr
     794:	00 4a       	br	r10		
     796:	01 00       	mova	@r0,	r1	
     798:	00 0a       	bra	@r10		
     79a:	5f 04       	rrcm	#2,	r15	
     79c:	00 00       	bra	@r0		
     79e:	01 bd       	bit	r13,	r1	
     7a0:	44 00       	rrcm.a	#1,	r4	
     7a2:	00 00       	bra	@r0		
     7a4:	01 5f       	add	r15,	r1	
     7a6:	0c 63       	adc	r12		
     7a8:	6d 64       	addc.b	@r4,	r13	
     7aa:	00 01       	bra	@r1		
     7ac:	bd 44 00 00 	mov	@r4+,	0(r13)	;0x0000(r13)
     7b0:	00 01       	bra	@r1		
     7b2:	5e 0d       	rram	#4,	r14	
     7b4:	a7 04 00 00 	adda	#0x40000,r7	
     7b8:	01 bf       	bit	r15,	r1	
     7ba:	44 00       	rrcm.a	#1,	r4	
     7bc:	00 00       	bra	@r0		
     7be:	f6 03       	decda	r6		
     7c0:	00 00       	bra	@r0		
     7c2:	0e 69       	addc	r9,	r14	
     7c4:	00 01       	bra	@r1		
     7c6:	c0 44 00 00 	mov.b	r4,	0x0000	;PC rel. 0x007ca
     7ca:	00 22       	jnz	$-1022   	;abs 0x3cc
     7cc:	04 00       	mova	@r0,	r4	
     7ce:	00 00       	bra	@r0		
     7d0:	0f 01       	mova	@r1,	r15	
     7d2:	fd 03       	decda	r13		
     7d4:	00 00       	bra	@r0		
     7d6:	01 1f       	.word	0x1f01;	????	
     7d8:	01 01       	mova	@r1,	r1	
     7da:	76 37       	jge	$-274    	;abs 0x6c8
     7dc:	8e 37       	jge	$-226    	;abs 0x6fa
     7de:	2e 04 00 00 	mova	&0x40000,r14	
     7e2:	81 01 00 00 	mova	#0x10000,r1	
     7e6:	10 46 03 00 	br	3(r6)		;0x0003(r6)
     7ea:	00 01       	bra	@r1		
     7ec:	1f 01       	mova	@r1+,	r15	
     7ee:	44 00       	rrcm.a	#1,	r4	
     7f0:	00 00       	bra	@r0		
     7f2:	42 04       	rrcm.a	#2,	r2	
     7f4:	00 00       	bra	@r0		
     7f6:	11 64 61 74 	addc	29793(r4),r1	;0x7461(r4)
     7fa:	00 01       	bra	@r1		
     7fc:	1f 01       	mova	@r1+,	r15	
     7fe:	44 00       	rrcm.a	#1,	r4	
     800:	00 00       	bra	@r0		
     802:	4d 04       	rrcm.a	#2,	r13	
     804:	00 00       	bra	@r0		
     806:	00 0f       	bra	@r15		
     808:	01 0c       	mova	@r12,	r1	
     80a:	04 00       	mova	@r0,	r4	
     80c:	00 01       	bra	@r1		
     80e:	25 01 01 8e 	mova	&0x18e01,r5	
     812:	37 b4       	bit	@r4+,	r7	
     814:	37 5f       	add	@r15+,	r7	
     816:	04 00       	mova	@r0,	r4	
     818:	00 c8       	bic	r8,	r0	
     81a:	01 00       	mova	@r0,	r1	
     81c:	00 10       	rrc	r0		
     81e:	46 03       	rrum.a	#1,	r6	
     820:	00 00       	bra	@r0		
     822:	01 25       	jz	$+516    	;abs 0xa26
     824:	01 44       	mov	r4,	r1	
     826:	00 00       	bra	@r0		
     828:	00 7b       	subc	r11,	r0	
     82a:	04 00       	mova	@r0,	r4	
     82c:	00 10       	rrc	r0		
     82e:	22 04 00 00 	mova	&0x40000,r2	
     832:	01 25       	jz	$+516    	;abs 0xa36
     834:	01 44       	mov	r4,	r1	
     836:	00 00       	bra	@r0		
     838:	00 86       	sub	r6,	r0	
     83a:	04 00       	mova	@r0,	r4	
     83c:	00 10       	rrc	r0		
     83e:	95 04 00 00 	cmpa	#0x40000,r5	
     842:	01 25       	jz	$+516    	;abs 0xa46
     844:	01 44       	mov	r4,	r1	
     846:	00 00       	bra	@r0		
     848:	00 98       	cmp	r8,	r0	
     84a:	04 00       	mova	@r0,	r4	
     84c:	00 00       	bra	@r0		
     84e:	0f 01       	mova	@r1,	r15	
     850:	cd 04       	mova	r4,	r13	
     852:	00 00       	bra	@r0		
     854:	01 2c       	jc	$+4      	;abs 0x858
     856:	01 01       	mova	@r1,	r1	
     858:	b4 37       	jge	$-150    	;abs 0x7c2
     85a:	4a 38       	jl	$+150    	;abs 0x8f0
     85c:	aa 04 00 00 	adda	#0x40000,r10	
     860:	48 02       	rlam.a	#1,	r8	
     862:	00 00       	bra	@r0		
     864:	11 78 00 01 	subc	256(r8),r1	;0x0100(r8)
     868:	2c 01 44 00 	mova	&0x10044,r12	
     86c:	00 00       	bra	@r0		
     86e:	e6 04       	adda	r4,	r6	
     870:	00 00       	bra	@r0		
     872:	11 79 00 01 	subc	256(r9),r1	;0x0100(r9)
     876:	2c 01 44 00 	mova	&0x10044,r12	
     87a:	00 00       	bra	@r0		
     87c:	f8 04       	suba	r4,	r8	
     87e:	00 00       	bra	@r0		
     880:	11 6c 78 00 	addc	120(r12),r1	;0x0078(r12)
     884:	01 2c       	jc	$+4      	;abs 0x888
     886:	01 44       	mov	r4,	r1	
     888:	00 00       	bra	@r0		
     88a:	00 0a       	bra	@r10		
     88c:	05 00       	mova	@r0,	r5	
     88e:	00 11       	rra	r0		
     890:	6c 79       	subc.b	@r9,	r12	
     892:	00 01       	bra	@r1		
     894:	2c 01 44 00 	mova	&0x10044,r12	
     898:	00 00       	bra	@r0		
     89a:	1c 05       	mova	@r5+,	r12	
     89c:	00 00       	bra	@r0		
     89e:	12 6f 04 00 	addc	4(r15),	r2	;0x0004(r15)
     8a2:	00 01       	bra	@r1		
     8a4:	2c 01 44 00 	mova	&0x10044,r12	
     8a8:	00 00       	bra	@r0		
     8aa:	02 91       	cmp	r1,	r2	
     8ac:	0a 13       	reti			;return from interupt
     8ae:	e4 03       	incda	r4		
     8b0:	00 00       	bra	@r0		
     8b2:	01 2e       	jc	$-1020   	;abs 0x4b6
     8b4:	01 28       	jnc	$+4      	;abs 0x8b8
     8b6:	00 00       	bra	@r0		
     8b8:	00 37       	jge	$-510    	;abs 0x6ba
     8ba:	05 00       	mova	@r0,	r5	
     8bc:	00 14       	pushm.a	#1,	r0	
     8be:	6d 61       	addc.b	@r1,	r13	
     8c0:	78 00 01 2e 	mova	r0,	11777(r8);0x2e01(r8)
     8c4:	01 28       	jnc	$+4      	;abs 0x8c8
     8c6:	00 00       	bra	@r0		
     8c8:	00 4a       	br	r10		
     8ca:	05 00       	mova	@r0,	r5	
     8cc:	00 00       	bra	@r0		
     8ce:	0f 01       	mova	@r1,	r15	
     8d0:	55 04       	rrcm	#2,	r5	
     8d2:	00 00       	bra	@r0		
     8d4:	01 1a       	.word	0x1a01;	????	
     8d6:	01 01       	mova	@r1,	r1	
     8d8:	4a 38       	jl	$+150    	;abs 0x96e
     8da:	5e 38       	jl	$+190    	;abs 0x998
     8dc:	55 05       	rram	#2,	r5	
     8de:	00 00       	bra	@r0		
     8e0:	6f 02 00 00 	mova	r2,	&0xf0000
     8e4:	10 6f 04 00 	addc	4(r15),	r0	;0x0004(r15)
     8e8:	00 01       	bra	@r1		
     8ea:	1a 01       	mova	@r1+,	r10	
     8ec:	44 00       	rrcm.a	#1,	r4	
     8ee:	00 00       	bra	@r0		
     8f0:	71 05 00 00 	mova	r5,	0(r1)	;0x0000(r1)
     8f4:	00 0b       	bra	@r11		
     8f6:	01 b2       	bit	r2,	r1	
     8f8:	03 00       	.word	0x0003;	????	Illegal as address instr
     8fa:	00 01       	bra	@r1		
     8fc:	e0 01       	adda	r1,	r0	
     8fe:	5e 38       	jl	$+190    	;abs 0x9bc
     900:	c8 39       	jl	$+914    	;abs 0xc92
     902:	84 05 00 00 	mova	#0x50000,r4	
     906:	94 02 00 00 	cmpa	#0x20000,r4	
     90a:	15 6f 04 00 	addc	4(r15),	r5	;0x0004(r15)
     90e:	00 01       	bra	@r1		
     910:	e0 44 00 00 	mov.b	@r4,	0x0000	;PC rel. 0x00914
     914:	00 d8       	bis	r8,	r0	
     916:	05 00       	mova	@r0,	r5	
     918:	00 00       	bra	@r0		
     91a:	0f 01       	mova	@r1,	r15	
     91c:	3a 04 00 00 	mova	0(r4),	r10	;0x0000(r4)
     920:	01 43       	clr	r1		
     922:	01 01       	mova	@r1,	r1	
     924:	c8 39       	jl	$+914    	;abs 0xcb6
     926:	68 3b       	jl	$-302    	;abs 0x7f8
     928:	ea 05       	adda	r5,	r10	
     92a:	00 00       	bra	@r0		
     92c:	42 03       	rrum.a	#1,	r2	
     92e:	00 00       	bra	@r0		
     930:	11 78 30 00 	subc	48(r8),	r1	;0x0030(r8)
     934:	01 43       	clr	r1		
     936:	01 28       	jnc	$+4      	;abs 0x93a
     938:	00 00       	bra	@r0		
     93a:	00 5e       	add	r14,	r0	
     93c:	06 00       	mova	@r0,	r6	
     93e:	00 11       	rra	r0		
     940:	79 30       	jn	$+244    	;abs 0xa34
     942:	00 01       	bra	@r1		
     944:	43 01       	rram.a	#1,	#0	;r3 As==00
     946:	28 00 00 00 	mova	&0x00000,r8	
     94a:	70 06 00 00 	mova	r6,	0x0000	;PC rel. 0x0094c
     94e:	10 1b       	.word	0x1b10;	????	
     950:	04 00       	mova	@r0,	r4	
     952:	00 01       	bra	@r1		
     954:	43 01       	rram.a	#1,	#0	;r3 As==00
     956:	28 00 00 00 	mova	&0x00000,r8	
     95a:	82 06 00 00 	mova	#0x60000,r2	
     95e:	10 6f 04 00 	addc	4(r15),	r0	;0x0004(r15)
     962:	00 01       	bra	@r1		
     964:	43 01       	rram.a	#1,	#0	;r3 As==00
     966:	44 00       	rrcm.a	#1,	r4	
     968:	00 00       	bra	@r0		
     96a:	95 06 00 00 	cmpa	#0x60000,r5	
     96e:	12 c4 03 00 	bic	3(r4),	r2	;0x0003(r4)
     972:	00 01       	bra	@r1		
     974:	43 01       	rram.a	#1,	#0	;r3 As==00
     976:	2f 00 00 00 	mova	&0x00000,r15	
     97a:	02 91       	cmp	r1,	r2	
     97c:	1c 14       	pushm.a	#2,	r12	
     97e:	66 00 01 44 	mova	r0,	&0x64401
     982:	01 2f       	jc	$-508    	;abs 0x786
     984:	00 00       	bra	@r0		
     986:	00 a7       	dadd	r7,	r0	
     988:	06 00       	mova	@r0,	r6	
     98a:	00 13       	reti			
     98c:	89 04 00 00 	mova	#0x40000,r9	
     990:	01 45       	mov	r5,	r1	
     992:	01 2f       	jc	$-508    	;abs 0x796
     994:	00 00       	bra	@r0		
     996:	00 c9       	bic	r9,	r0	
     998:	06 00       	mova	@r0,	r6	
     99a:	00 13       	reti			
     99c:	8f 04 00 00 	mova	#0x40000,r15	
     9a0:	01 46       	mov	r6,	r1	
     9a2:	01 2f       	jc	$-508    	;abs 0x7a6
     9a4:	00 00       	bra	@r0		
     9a6:	00 d5       	bis	r5,	r0	
     9a8:	06 00       	mova	@r0,	r6	
     9aa:	00 14       	pushm.a	#1,	r0	
     9ac:	78 00 01 47 	mova	r0,	18177(r8);0x4701(r8)
     9b0:	01 2f       	jc	$-508    	;abs 0x7b4
     9b2:	00 00       	bra	@r0		
     9b4:	00 0a       	bra	@r10		
     9b6:	07 00       	mova	@r0,	r7	
     9b8:	00 14       	pushm.a	#1,	r0	
     9ba:	79 00 01 48 	mova	r0,	18433(r9);0x4801(r9)
     9be:	01 2f       	jc	$-508    	;abs 0x7c2
     9c0:	00 00       	bra	@r0		
     9c2:	00 26       	jz	$-1022   	;abs 0x5c4
     9c4:	07 00       	mova	@r0,	r7	
     9c6:	00 00       	bra	@r0		
     9c8:	0f 01       	mova	@r1,	r15	
     9ca:	86 03 00 00 	mova	#0x30000,r6	
     9ce:	01 92       	cmp	r2,	r1	
     9d0:	01 01       	mova	@r1,	r1	
     9d2:	68 3b       	jl	$-302    	;abs 0x8a4
     9d4:	d0 3b       	jl	$-94     	;abs 0x976
     9d6:	39 07 00 00 	mova	0(r7),	r9	;0x0000(r7)
     9da:	85 03 00 00 	mova	#0x30000,r5	
     9de:	11 78 00 01 	subc	256(r8),r1	;0x0100(r8)
     9e2:	92 01 44 00 	cmpa	#0x10044,r2	
     9e6:	00 00       	bra	@r0		
     9e8:	65 07 00 00 	mova	r7,	&0x50000
     9ec:	11 79 00 01 	subc	256(r9),r1	;0x0100(r9)
     9f0:	92 01 44 00 	cmpa	#0x10044,r2	
     9f4:	00 00       	bra	@r0		
     9f6:	77 07 00 00 	mova	r7,	0(r7)	;0x0000(r7)
     9fa:	10 6f 04 00 	addc	4(r15),	r0	;0x0004(r15)
     9fe:	00 01       	bra	@r1		
     a00:	92 01 44 00 	cmpa	#0x10044,r2	
     a04:	00 00       	bra	@r0		
     a06:	89 07 00 00 	mova	#0x70000,r9	
     a0a:	00 0f       	bra	@r15		
     a0c:	01 c0       	bic	r0,	r1	
     a0e:	04 00       	mova	@r0,	r4	
     a10:	00 01       	bra	@r1		
     a12:	61 01 01 d0 	mova	r1,	&0x1d001
     a16:	3b 9e       	cmp	@r14+,	r11	
     a18:	3c 9b       	cmp	@r11+,	r12	
     a1a:	07 00       	mova	@r0,	r7	
     a1c:	00 55       	add	r5,	r0	
     a1e:	04 00       	mova	@r0,	r4	
     a20:	00 11       	rra	r0		
     a22:	78 30       	jn	$+242    	;abs 0xb14
     a24:	00 01       	bra	@r1		
     a26:	61 01 2f 00 	mova	r1,	&0x1002f
     a2a:	00 00       	bra	@r0		
     a2c:	ef 07       	adda	r7,	r15	
     a2e:	00 00       	bra	@r0		
     a30:	11 79 30 00 	subc	48(r9),	r1	;0x0030(r9)
     a34:	01 61       	rlc	r1		
     a36:	01 2f       	jc	$-508    	;abs 0x83a
     a38:	00 00       	bra	@r0		
     a3a:	00 0f       	bra	@r15		
     a3c:	08 00       	mova	@r0,	r8	
     a3e:	00 11       	rra	r0		
     a40:	78 31       	jn	$+754    	;abs 0xd32
     a42:	00 01       	bra	@r1		
     a44:	61 01 2f 00 	mova	r1,	&0x1002f
     a48:	00 00       	bra	@r0		
     a4a:	36 08 00 00 	mova	0(r8),	r6	;0x0000(r8)
     a4e:	11 79 31 00 	subc	49(r9),	r1	;0x0031(r9)
     a52:	01 61       	rlc	r1		
     a54:	01 2f       	jc	$-508    	;abs 0x858
     a56:	00 00       	bra	@r0		
     a58:	00 59       	add	r9,	r0	
     a5a:	08 00       	mova	@r0,	r8	
     a5c:	00 12       	push	r0		
     a5e:	6f 04 00 00 	mova	r4,	&0xf0000
     a62:	01 61       	rlc	r1		
     a64:	01 44       	mov	r4,	r1	
     a66:	00 00       	bra	@r0		
     a68:	00 02       	bra	#4		;r2 As==10
     a6a:	91 16       	popm.a	#10,	r10	
     a6c:	14 64 79 00 	addc	121(r4),r4	;0x0079(r4)
     a70:	01 62       	addc	r2,	r1	
     a72:	01 2f       	jc	$-508    	;abs 0x876
     a74:	00 00       	bra	@r0		
     a76:	00 6c       	addc	r12,	r0	
     a78:	08 00       	mova	@r0,	r8	
     a7a:	00 14       	pushm.a	#1,	r0	
     a7c:	64 78       	subc.b	@r8,	r4	
     a7e:	00 01       	bra	@r1		
     a80:	63 01 2f 00 	mova	r1,	&0x3002f
     a84:	00 00       	bra	@r0		
     a86:	96 08 00 00 	cmpa	#0x80000,r6	
     a8a:	13 75       	.word	0x7513;	????	Illegal as 2-op instr
     a8c:	03 00       	.word	0x0003;	????	Illegal as address instr
     a8e:	00 01       	bra	@r1		
     a90:	64 01 2f 00 	mova	r1,	&0x4002f
     a94:	00 00       	bra	@r0		
     a96:	c0 08       	bra	r8		
     a98:	00 00       	bra	@r0		
     a9a:	13 34       	jge	$+40     	;abs 0xac2
     a9c:	04 00       	mova	@r0,	r4	
     a9e:	00 01       	bra	@r1		
     aa0:	64 01 2f 00 	mova	r1,	&0x4002f
     aa4:	00 00       	bra	@r0		
     aa6:	db 08       	cmpa	r8,	r11	
     aa8:	00 00       	bra	@r0		
     aaa:	16 18 3c 46 	movx	@r6+,	r12	
     aae:	3c 3e       	jmp	$-902    	;abs 0x728
     ab0:	04 00       	mova	@r0,	r4	
     ab2:	00 13       	reti			
     ab4:	bb 03 00 00 	suba	#0x30000,r11	
     ab8:	01 79       	subc	r9,	r1	
     aba:	01 2f       	jc	$-508    	;abs 0x8be
     abc:	00 00       	bra	@r0		
     abe:	00 f6       	and	r6,	r0	
     ac0:	08 00       	mova	@r0,	r8	
     ac2:	00 00       	bra	@r0		
     ac4:	17 5a 3c 8e 	add	-29124(r10),r7	;0x8e3c(r10)
     ac8:	3c 13       	reti			;return from interupt
     aca:	bb 03 00 00 	suba	#0x30000,r11	
     ace:	01 85       	sub	r5,	r1	
     ad0:	01 2f       	jc	$-508    	;abs 0x8d4
     ad2:	00 00       	bra	@r0		
     ad4:	00 20       	jnz	$+2      	;abs 0xad6
     ad6:	09 00       	mova	@r0,	r9	
     ad8:	00 00       	bra	@r0		
     ada:	00 0f       	bra	@r15		
     adc:	01 49       	mov	r9,	r1	
     ade:	04 00       	mova	@r0,	r4	
     ae0:	00 01       	bra	@r1		
     ae2:	a2 01 01 9e 	adda	#0x19e01,r2	
     ae6:	3c 38       	jl	$+122    	;abs 0xb60
     ae8:	3d 4a       	mov	@r10+,	r13	
     aea:	09 00       	mova	@r0,	r9	
     aec:	00 d3       	bis	#0,	r0	;r3 As==00
     aee:	04 00       	mova	@r0,	r4	
     af0:	00 11       	rra	r0		
     af2:	78 00 01 a2 	mova	r0,	-24063(r8);0xa201(r8)
     af6:	01 44       	mov	r4,	r1	
     af8:	00 00       	bra	@r0		
     afa:	00 86       	sub	r6,	r0	
     afc:	09 00       	mova	@r0,	r9	
     afe:	00 11       	rra	r0		
     b00:	79 00 01 a2 	mova	r0,	-24063(r9);0xa201(r9)
     b04:	01 44       	mov	r4,	r1	
     b06:	00 00       	bra	@r0		
     b08:	00 98       	cmp	r8,	r0	
     b0a:	09 00       	mova	@r0,	r9	
     b0c:	00 11       	rra	r0		
     b0e:	6c 78       	subc.b	@r8,	r12	
     b10:	00 01       	bra	@r1		
     b12:	a2 01 44 00 	adda	#0x10044,r2	
     b16:	00 00       	bra	@r0		
     b18:	aa 09 00 00 	adda	#0x90000,r10	
     b1c:	11 6c 79 00 	addc	121(r12),r1	;0x0079(r12)
     b20:	01 a2       	dadd	r2,	r1	
     b22:	01 44       	mov	r4,	r1	
     b24:	00 00       	bra	@r0		
     b26:	00 bc       	bit	r12,	r0	
     b28:	09 00       	mova	@r0,	r9	
     b2a:	00 18       	.word	0x1800;	????	
     b2c:	70 00 01 a2 	mova	r0,	0xa201	;PC rel. 0xfad2f
     b30:	01 d3       	bis	#0,	r1	;r3 As==00
     b32:	04 00       	mova	@r0,	r4	
     b34:	00 02       	bra	#4		;r2 As==10
     b36:	91 0a 13 e4 	cmpa	#0xae413,r1	
     b3a:	03 00       	.word	0x0003;	????	Illegal as address instr
     b3c:	00 01       	bra	@r1		
     b3e:	a4 01 28 00 	adda	#0x10028,r4	
     b42:	00 00       	bra	@r0		
     b44:	d7 09       	cmpa	r9,	r7	
     b46:	00 00       	bra	@r0		
     b48:	14 6d 61 78 	addc	30817(r13),r4	;0x7861(r13)
     b4c:	00 01       	bra	@r1		
     b4e:	a4 01 28 00 	adda	#0x10028,r4	
     b52:	00 00       	bra	@r0		
     b54:	ea 09       	adda	r9,	r10	
     b56:	00 00       	bra	@r0		
     b58:	00 19 02 44 	movx	r4,	r2	
     b5c:	00 00       	bra	@r0		
     b5e:	00 1a       	.word	0x1a00;	????	
     b60:	a0 00 00 00 	adda	#0x00000,r0	
     b64:	38 3d       	jmp	$+626    	;abs 0xdd6
     b66:	52 3d       	jmp	$+678    	;abs 0xe0c
     b68:	02 71       	subc	r1,	r2	
     b6a:	02 1b       	.word	0x1b02;	????	
     b6c:	ab 00 00 00 	adda	#0x00000,r11	
     b70:	52 3d       	jmp	$+678    	;abs 0xe16
     b72:	6c 3d       	jmp	$+730    	;abs 0xe4c
     b74:	02 71       	subc	r1,	r2	
     b76:	02 08       	mova	@r8,	r2	
     b78:	05 00       	mova	@r0,	r5	
     b7a:	00 1c       	.word	0x1c00;	????	
     b7c:	ba 00 00 00 	suba	#0x00000,r10	
     b80:	f5 09       	suba	r9,	r5	
     b82:	00 00       	bra	@r0		
     b84:	1c c4 00 00 	bic	0(r4),	r12	;0x0000(r4)
     b88:	00 07       	bra	@r7		
     b8a:	0a 00       	mova	@r0,	r10	
     b8c:	00 00       	bra	@r0		
     b8e:	0f 01       	mova	@r1,	r15	
     b90:	a7 03 00 00 	adda	#0x30000,r7	
     b94:	01 c9       	bic	r9,	r1	
     b96:	01 01       	mova	@r1,	r1	
     b98:	6c 3d       	jmp	$+730    	;abs 0xe72
     b9a:	0e 3e       	jmp	$-994    	;abs 0x7b8
     b9c:	19 0a       	mova	@r10+,	r9	
     b9e:	00 00       	bra	@r0		
     ba0:	71 05 00 00 	mova	r5,	0(r1)	;0x0000(r1)
     ba4:	11 63       	addc	#1,	r1	;r3 As==01
     ba6:	00 01       	bra	@r1		
     ba8:	c9 01       	mova	r1,	r9	
     baa:	44 00       	rrcm.a	#1,	r4	
     bac:	00 00       	bra	@r0		
     bae:	4d 0a       	rlam.a	#3,	r13	
     bb0:	00 00       	bra	@r0		
     bb2:	1d 6a 00 01 	addc	256(r10),r13	;0x0100(r10)
     bb6:	cb 01       	mova	r1,	r11	
     bb8:	28 00 00 00 	mova	&0x00000,r8	
     bbc:	14 69 00 01 	addc	256(r9),r4	;0x0100(r9)
     bc0:	cc 01       	mova	r1,	r12	
     bc2:	44 00       	rrcm.a	#1,	r4	
     bc4:	00 00       	bra	@r0		
     bc6:	5f 0a       	rlam	#3,	r15	
     bc8:	00 00       	bra	@r0		
     bca:	14 6b 00 01 	addc	256(r11),r4	;0x0100(r11)
     bce:	cc 01       	mova	r1,	r12	
     bd0:	44 00       	rrcm.a	#1,	r4	
     bd2:	00 00       	bra	@r0		
     bd4:	84 0a 00 00 	mova	#0xa0000,r4	
     bd8:	14 76 00 01 	subc	256(r6),r4	;0x0100(r6)
     bdc:	cc 01       	mova	r1,	r12	
     bde:	44 00       	rrcm.a	#1,	r4	
     be0:	00 00       	bra	@r0		
     be2:	90 0a 00 00 	cmpa	#0xa0000,r0	
     be6:	13 a7       	.word	0xa713;	????	Illegal as 2-op instr
     be8:	04 00       	mova	@r0,	r4	
     bea:	00 01       	bra	@r1		
     bec:	cc 01       	mova	r1,	r12	
     bee:	44 00       	rrcm.a	#1,	r4	
     bf0:	00 00       	bra	@r0		
     bf2:	a4 0a 00 00 	adda	#0xa0000,r4	
     bf6:	00 1e 01 ac 	daddx	r12,	r1	
     bfa:	04 00       	mova	@r0,	r4	
     bfc:	00 01       	bra	@r1		
     bfe:	e6 01       	adda	r1,	r6	
     c00:	01 0e       	mova	@r14,	r1	
     c02:	3e 74       	subc	@r4+,	r14	
     c04:	3e 02 71 02 	mova	&0x0271,r14	
     c08:	af 05 00 00 	adda	#0x50000,r15	
     c0c:	11 63       	addc	#1,	r1	;r3 As==01
     c0e:	00 01       	bra	@r1		
     c10:	e6 01       	adda	r1,	r6	
     c12:	44 00       	rrcm.a	#1,	r4	
     c14:	00 00       	bra	@r0		
     c16:	cd 0a       	mova	r10,	r13	
     c18:	00 00       	bra	@r0		
     c1a:	1f a0 00 00 	dadd	0x0000,	r15	;PC rel. 0x00c1e
     c1e:	00 2e       	jc	$-1022   	;abs 0x820
     c20:	3e 0c 00 00 	mova	0(r12),	r14	;0x0000(r12)
     c24:	00 01       	bra	@r1		
     c26:	f1 01       	suba	r1,	r1	
     c28:	20 a0       	dadd	@r0,	r0	
     c2a:	00 00       	bra	@r0		
     c2c:	00 4e       	br	r14		
     c2e:	3e 62       	addc	#8,	r14	;r2 As==11
     c30:	3e 01 ea 01 	mova	490(r1),r14	;0x01ea(r1)
     c34:	00 21       	jnz	$+514    	;abs 0xe36
     c36:	01 b0       	bit	r0,	r1	
     c38:	04 00       	mova	@r0,	r4	
     c3a:	00 05       	bra	@r5		
     c3c:	3b 01 2f 00 	mova	47(r1),	r11	;0x002f(r1)
     c40:	00 00       	bra	@r0		
     c42:	74 3e       	jmp	$-790    	;abs 0x92c
     c44:	7c 3e       	jmp	$-774    	;abs 0x93e
     c46:	02 71       	subc	r1,	r2	
     c48:	02 d5       	bis	r5,	r2	
     c4a:	05 00       	mova	@r0,	r5	
     c4c:	00 22       	jnz	$-1022   	;abs 0x84e
     c4e:	63 00 01 ab 	mova	r0,	&0x3ab01
     c52:	2f 00 00 00 	mova	&0x00000,r15	
     c56:	e6 0a       	adda	r10,	r6	
     c58:	00 00       	bra	@r0		
     c5a:	00 0f       	bra	@r15		
     c5c:	01 75       	subc	r5,	r1	
     c5e:	04 00       	mova	@r0,	r4	
     c60:	00 01       	bra	@r1		
     c62:	f8 01       	suba	r1,	r8	
     c64:	01 7c       	subc	r12,	r1	
     c66:	3e 08 3f f1 	mova	-3777(r8),r14	;0xf13f(r8)
     c6a:	0a 00       	mova	@r0,	r10	
     c6c:	00 66       	addc	r6,	r0	
     c6e:	06 00       	mova	@r0,	r6	
     c70:	00 11       	rra	r0		
     c72:	78 00 01 f8 	mova	r0,	-2047(r8);0xf801(r8)
     c76:	01 2f       	jc	$-508    	;abs 0xa7a
     c78:	00 00       	bra	@r0		
     c7a:	00 55       	add	r5,	r0	
     c7c:	0b 00       	mova	@r0,	r11	
     c7e:	00 11       	rra	r0		
     c80:	79 00 01 f8 	mova	r0,	-2047(r9);0xf801(r9)
     c84:	01 2f       	jc	$-508    	;abs 0xa88
     c86:	00 00       	bra	@r0		
     c88:	00 67       	addc	r7,	r0	
     c8a:	0b 00       	mova	@r0,	r11	
     c8c:	00 11       	rra	r0		
     c8e:	6c 78       	subc.b	@r8,	r12	
     c90:	00 01       	bra	@r1		
     c92:	f8 01       	suba	r1,	r8	
     c94:	2f 00 00 00 	mova	&0x00000,r15	
     c98:	80 0b 00 00 	bra	#0xb0000	
     c9c:	11 6c 79 00 	addc	121(r12),r1	;0x0079(r12)
     ca0:	01 f8       	and	r8,	r1	
     ca2:	01 2f       	jc	$-508    	;abs 0xaa6
     ca4:	00 00       	bra	@r0		
     ca6:	00 99       	cmp	r9,	r0	
     ca8:	0b 00       	mova	@r0,	r11	
     caa:	00 12       	push	r0		
     cac:	6f 04 00 00 	mova	r4,	&0xf0000
     cb0:	01 f8       	and	r8,	r1	
     cb2:	01 44       	mov	r4,	r1	
     cb4:	00 00       	bra	@r0		
     cb6:	00 02       	bra	#4		;r2 As==10
     cb8:	91 0c 12 ca 	cmpa	#0xcca12,r1	
     cbc:	03 00       	.word	0x0003;	????	Illegal as address instr
     cbe:	00 01       	bra	@r1		
     cc0:	f8 01       	suba	r1,	r8	
     cc2:	44 00       	rrcm.a	#1,	r4	
     cc4:	00 00       	bra	@r0		
     cc6:	02 91       	cmp	r1,	r2	
     cc8:	0e 10       	rrc	r14		
     cca:	b8 04 00 00 	suba	#0x40000,r8	
     cce:	01 f8       	and	r8,	r1	
     cd0:	01 2f       	jc	$-508    	;abs 0xad4
     cd2:	00 00       	bra	@r0		
     cd4:	00 ab       	dadd	r11,	r0	
     cd6:	0b 00       	mova	@r0,	r11	
     cd8:	00 23       	jnz	$-510    	;abs 0xada
     cda:	18 00       	mova	#0x00000,r8	
     cdc:	00 00       	bra	@r0		
     cde:	24 d8       	bis	@r8,	r4	
     ce0:	03 00       	.word	0x0003;	????	Illegal as address instr
     ce2:	00 01       	bra	@r1		
     ce4:	05 02       	mova	#4,	r5	;r2 As==10
     ce6:	2f 00 00 00 	mova	&0x00000,r15	
     cea:	00 00       	bra	@r0		
     cec:	0f 01       	mova	@r1,	r15	
     cee:	f2 03       	decda	r2		
     cf0:	00 00       	bra	@r0		
     cf2:	01 0c       	mova	@r12,	r1	
     cf4:	02 01       	mova	@r1,	r2	
     cf6:	08 3f       	jmp	$-494    	;abs 0xb08
     cf8:	4c 3f       	jmp	$-358    	;abs 0xb92
     cfa:	bf 0b 00 00 	suba	#0xb0000,r15	
     cfe:	bd 06 00 00 	suba	#0x60000,r13	
     d02:	10 fb 04 00 	and	4(r11),	r0	;0x0004(r11)
     d06:	00 01       	bra	@r1		
     d08:	0c 02       	mova	#4,	r12	;r2 As==10
     d0a:	2f 00 00 00 	mova	&0x00000,r15	
     d0e:	db 0b       	cmpa	r11,	r11	
     d10:	00 00       	bra	@r0		
     d12:	11 74 6f 00 	subc	111(r4),r1	;0x006f(r4)
     d16:	01 0c       	mova	@r12,	r1	
     d18:	02 2f       	jc	$-506    	;abs 0xb1e
     d1a:	00 00       	bra	@r0		
     d1c:	00 fb       	and	r11,	r0	
     d1e:	0b 00       	mova	@r0,	r11	
     d20:	00 25       	jz	$+514    	;abs 0xf22
     d22:	ab 00 00 00 	adda	#0x00000,r11	
     d26:	1a 3f       	jmp	$-458    	;abs 0xb5c
     d28:	28 00 00 00 	mova	&0x00000,r8	
     d2c:	01 0e       	mova	@r14,	r1	
     d2e:	02 1c       	.word	0x1c02;	????	
     d30:	c4 00       	mova	r0,	r4	
     d32:	00 00       	bra	@r0		
     d34:	14 0c       	mova	@r12+,	r4	
     d36:	00 00       	bra	@r0		
     d38:	1c ba 00 00 	bit	0(r10),	r12	;0x0000(r10)
     d3c:	00 38       	jl	$+2      	;abs 0xd3e
     d3e:	0c 00       	mova	@r0,	r12	
     d40:	00 00       	bra	@r0		
     d42:	00 26       	jz	$-1022   	;abs 0x944
     d44:	a1 03 00 00 	adda	#0x30000,r1	
     d48:	02 b1       	bit	r1,	r2	
     d4a:	03 9e       	.word	0x9e03;	????	Illegal as 2-op instr
     d4c:	03 00       	.word	0x0003;	????	Illegal as address instr
     d4e:	00 cf       	bic	r15,	r0	
     d50:	06 00       	mova	@r0,	r6	
     d52:	00 01       	bra	@r1		
     d54:	01 27       	jz	$-508    	;abs 0xb58
     d56:	44 00       	rrcm.a	#1,	r4	
     d58:	00 00       	bra	@r0		
     d5a:	26 ea       	xor	@r10,	r6	
     d5c:	04 00       	mova	@r0,	r4	
     d5e:	00 02       	bra	#4		;r2 As==10
     d60:	b3 03       	.word	0x03b3;	????	Illegal as address instr
     d62:	e7 04       	adda	r4,	r7	
     d64:	00 00       	bra	@r0		
     d66:	cf 06       	mova	r6,	r15	
     d68:	00 00       	bra	@r0		
     d6a:	01 01       	mova	@r1,	r1	
     d6c:	28 68       	addc	@r8,	r8	
     d6e:	03 00       	.word	0x0003;	????	Illegal as address instr
     d70:	00 03       	bra	#2		;r3 As==10
     d72:	37 44       	mov	@r4+,	r7	
     d74:	00 00       	bra	@r0		
     d76:	00 01       	bra	@r1		
     d78:	01 28       	jnc	$+4      	;abs 0xd7c
     d7a:	9a 04 00 00 	cmpa	#0x40000,r10	
     d7e:	03 38       	jl	$+8      	;abs 0xd86
     d80:	44 00       	rrcm.a	#1,	r4	
     d82:	00 00       	bra	@r0		
     d84:	01 01       	mova	@r1,	r1	
     d86:	28 c6       	bic	@r6,	r8	
     d88:	01 00       	mova	@r0,	r1	
     d8a:	00 03       	bra	#2		;r3 As==10
     d8c:	3a 44       	mov	@r4+,	r10	
     d8e:	00 00       	bra	@r0		
     d90:	00 01       	bra	@r1		
     d92:	01 28       	jnc	$+4      	;abs 0xd96
     d94:	da 04       	cmpa	r4,	r10	
     d96:	00 00       	bra	@r0		
     d98:	03 3b       	jl	$-504    	;abs 0xba0
     d9a:	44 00       	rrcm.a	#1,	r4	
     d9c:	00 00       	bra	@r0		
     d9e:	01 01       	mova	@r1,	r1	
     da0:	29 60       	addc	@r0,	r9	
     da2:	00 00       	bra	@r0		
     da4:	00 2b       	jnc	$-510    	;abs 0xba6
     da6:	07 00       	mova	@r0,	r7	
     da8:	00 2a       	jnc	$-1022   	;abs 0x9aa
     daa:	28 00 00 00 	mova	&0x00000,r8	
     dae:	7f 02 00 28 	mova	r2,	10240(r15);0x2800(r15)
     db2:	f0 04       	suba	r4,	r0	
     db4:	00 00       	bra	@r0		
     db6:	03 4d       	.word	0x4d03;	????	Illegal as 2-op instr
     db8:	38 07 00 00 	mova	0(r7),	r8	;0x0000(r7)
     dbc:	01 01       	mova	@r1,	r1	
     dbe:	2b 1a       	.word	0x1a2b;	????	
     dc0:	07 00       	mova	@r0,	r7	
     dc2:	00 26       	jz	$-1022   	;abs 0x9c4
     dc4:	a1 03 00 00 	adda	#0x30000,r1	
     dc8:	02 b1       	bit	r1,	r2	
     dca:	03 9e       	.word	0x9e03;	????	Illegal as 2-op instr
     dcc:	03 00       	.word	0x0003;	????	Illegal as address instr
     dce:	00 cf       	bic	r15,	r0	
     dd0:	06 00       	mova	@r0,	r6	
     dd2:	00 01       	bra	@r1		
     dd4:	01 26       	jz	$-1020   	;abs 0x9d8
     dd6:	ea 04       	adda	r4,	r10	
     dd8:	00 00       	bra	@r0		
     dda:	02 b3       	bit	#0,	r2	;r3 As==00
     ddc:	03 e7       	.word	0xe703;	????	Illegal as 2-op instr
     dde:	04 00       	mova	@r0,	r4	
     de0:	00 cf       	bic	r15,	r0	
     de2:	06 00       	mova	@r0,	r6	
     de4:	00 01       	bra	@r1		
     de6:	01 2c       	jc	$+4      	;abs 0xdea
     de8:	68 03 00 00 	mova	#0,	&0x80000;r3 As==00
     dec:	01 22       	jnz	$-1020   	;abs 0x9f0
     dee:	44 00       	rrcm.a	#1,	r4	
     df0:	00 00       	bra	@r0		
     df2:	01 03       	mova	#2,	r1	;r3 As==10
     df4:	03 0a       	.word	0x0a03;	????	Illegal as address instr
     df6:	11 2c       	jc	$+36     	;abs 0xe1a
     df8:	9a 04 00 00 	cmpa	#0x40000,r10	
     dfc:	01 23       	jnz	$-508    	;abs 0xc00
     dfe:	44 00       	rrcm.a	#1,	r4	
     e00:	00 00       	bra	@r0		
     e02:	01 03       	mova	#2,	r1	;r3 As==10
     e04:	03 0c       	.word	0x0c03;	????	Illegal as address instr
     e06:	11 2c       	jc	$+36     	;abs 0xe2a
     e08:	c6 01       	mova	r1,	r6	
     e0a:	00 00       	bra	@r0		
     e0c:	01 24       	jz	$+4      	;abs 0xe10
     e0e:	44 00       	rrcm.a	#1,	r4	
     e10:	00 00       	bra	@r0		
     e12:	01 03       	mova	#2,	r1	;r3 As==10
     e14:	03 00       	.word	0x0003;	????	Illegal as address instr
     e16:	11 2c       	jc	$+36     	;abs 0xe3a
     e18:	da 04       	cmpa	r4,	r10	
     e1a:	00 00       	bra	@r0		
     e1c:	01 25       	jz	$+516    	;abs 0x1020
     e1e:	44 00       	rrcm.a	#1,	r4	
     e20:	00 00       	bra	@r0		
     e22:	01 03       	mova	#2,	r1	;r3 As==10
     e24:	03 0e       	.word	0x0e03;	????	Illegal as address instr
     e26:	11 2c       	jc	$+36     	;abs 0xe4a
     e28:	f0 04       	suba	r4,	r0	
     e2a:	00 00       	bra	@r0		
     e2c:	01 27       	jz	$-508    	;abs 0xc30
     e2e:	b1 07 00 00 	suba	#0x70000,r1	
     e32:	01 03       	mova	#2,	r1	;r3 As==10
     e34:	03 4c       	.word	0x4c03;	????	Illegal as 2-op instr
     e36:	3f 2b       	jnc	$-384    	;abs 0xcb6
     e38:	1a 07       	mova	@r7+,	r10	
     e3a:	00 00       	bra	@r0		
     e3c:	00 f6       	and	r6,	r0	
     e3e:	01 00       	mova	@r0,	r1	
     e40:	00 02       	bra	#4		;r2 As==10
     e42:	00 8c       	sub	r12,	r0	
     e44:	04 00       	mova	@r0,	r4	
     e46:	00 02       	bra	#4		;r2 As==10
     e48:	01 27       	jz	$-508    	;abs 0xc4c
     e4a:	03 00       	.word	0x0003;	????	Illegal as address instr
     e4c:	00 01       	bra	@r1		
     e4e:	00 05       	bra	@r5		
     e50:	00 00       	bra	@r0		
     e52:	3b 02 00 00 	mova	&0x0000,r11	
     e56:	cc 41 44 42 	mov.b	r1,	16964(r12);0x4244(r12)
     e5a:	3e 0b 00 00 	mova	0(r11),	r14	;0x0000(r11)
     e5e:	02 02       	mova	#4,	r2	;r2 As==10
     e60:	03 0d       	.word	0x0d03;	????	Illegal as address instr
     e62:	5a 00       	rrcm	#1,	r10	
     e64:	00 00       	bra	@r0		
     e66:	03 0b       	.word	0x0b03;	????	Illegal as address instr
     e68:	02 00       	mova	@r0,	r2	
     e6a:	00 00       	bra	@r0		
     e6c:	03 a9       	.word	0xa903;	????	Illegal as 2-op instr
     e6e:	01 00       	mova	@r0,	r1	
     e70:	00 01       	bra	@r1		
     e72:	03 e6       	.word	0xe603;	????	Illegal as 2-op instr
     e74:	01 00       	mova	@r0,	r1	
     e76:	00 02       	bra	#4		;r2 As==10
     e78:	03 ed       	.word	0xed03;	????	Illegal as 2-op instr
     e7a:	00 00       	bra	@r0		
     e7c:	00 03       	bra	#2		;r3 As==10
     e7e:	03 c9       	.word	0xc903;	????	Illegal as 2-op instr
     e80:	00 00       	bra	@r0		
     e82:	00 04       	bra	@r4		
     e84:	03 84       	.word	0x8403;	????	Illegal as 2-op instr
     e86:	00 00       	bra	@r0		
     e88:	00 05       	bra	@r5		
     e8a:	03 1a       	.word	0x1a03;	????	
     e8c:	01 00       	mova	@r0,	r1	
     e8e:	00 06       	bra	@r6		
     e90:	03 01       	.word	0x0103;	????	Illegal as address instr
     e92:	01 00       	mova	@r0,	r1	
     e94:	00 07       	bra	@r7		
     e96:	00 04       	bra	@r4		
     e98:	5b 05       	rram	#2,	r11	
     e9a:	00 00       	bra	@r0		
     e9c:	03 17       	popm	#1,	#0	;r3 As==00
     e9e:	21 00 00 00 	mova	&0x00000,r1	
     ea2:	05 01       	mova	@r1,	r5	
     ea4:	76 05 00 00 	mova	r5,	0(r6)	;0x0000(r6)
     ea8:	01 07       	mova	@r7,	r1	
     eaa:	01 cc       	bic	r12,	r1	
     eac:	41 ce       	bic.b	r14,	r1	
     eae:	41 02       	rlam.a	#1,	r1	
     eb0:	71 02 86 00 	mova	r2,	134(r1)	;0x0086(r1)
     eb4:	00 00       	bra	@r0		
     eb6:	06 70       	subc	r0,	r6	
     eb8:	05 00       	mova	@r0,	r5	
     eba:	00 01       	bra	@r1		
     ebc:	09 86       	sub	r6,	r9	
     ebe:	00 00       	bra	@r0		
     ec0:	00 05       	bra	@r5		
     ec2:	00 07       	bra	@r7		
     ec4:	02 07       	mova	@r7,	r2	
     ec6:	3b 00 00 00 	mova	0x0000,	r11	;PC rel. 0x00ec8
     eca:	05 01       	mova	@r1,	r5	
     ecc:	67 05 00 00 	mova	r5,	&0x70000
     ed0:	01 0f       	mova	@r15,	r1	
     ed2:	01 ce       	bic	r14,	r1	
     ed4:	41 d0       	bis.b	r0,	r1	
     ed6:	41 02       	rlam.a	#1,	r1	
     ed8:	71 02 ae 00 	mova	r2,	174(r1)	;0x00ae(r1)
     edc:	00 00       	bra	@r0		
     ede:	06 70       	subc	r0,	r6	
     ee0:	05 00       	mova	@r0,	r5	
     ee2:	00 01       	bra	@r1		
     ee4:	11 86 00 00 	sub	0(r6),	r1	;0x0000(r6)
     ee8:	00 10       	rrc	r0		
     eea:	00 05       	bra	@r5		
     eec:	01 11       	rra	r1		
     eee:	05 00       	mova	@r0,	r5	
     ef0:	00 01       	bra	@r1		
     ef2:	19 01       	mova	@r1+,	r9	
     ef4:	d0 41 e0 41 	mov.b	16864(r1),0x7102	;0x41e0(r1), PC rel. 0x07ffc
     ef8:	02 71 
     efa:	02 dd       	bis	r13,	r2	
     efc:	00 00       	bra	@r0		
     efe:	00 08       	bra	@r8		
     f00:	70 05 00 00 	mova	r5,	0x0000	;PC rel. 0x00f02
     f04:	01 19       	.word	0x1901;	????	
     f06:	86 00 00 00 	mova	#0x00000,r6	
     f0a:	01 5f       	add	r15,	r1	
     f0c:	09 69       	rlc	r9		
     f0e:	00 01       	bra	@r1		
     f10:	1b dd 00 00 	bis	0(r13),	r11	;0x0000(r13)
     f14:	00 51       	add	r1,	r0	
     f16:	0c 00       	mova	@r0,	r12	
     f18:	00 00       	bra	@r0		
     f1a:	0a 02       	mova	#4,	r10	;r2 As==10
     f1c:	05 69       	addc	r9,	r5	
     f1e:	6e 74       	subc.b	@r4,	r14	
     f20:	00 0b       	bra	@r11		
     f22:	01 43       	clr	r1		
     f24:	05 00       	mova	@r0,	r5	
     f26:	00 01       	bra	@r1		
     f28:	22 01 e0 41 	mova	&0x141e0,r2	
     f2c:	00 42       	br	r2		
     f2e:	64 0c 00 00 	mova	r12,	&0x40000
     f32:	16 01       	mova	@r1+,	r6	
     f34:	00 00       	bra	@r0		
     f36:	0c 70       	subc	r0,	r12	
     f38:	05 00       	mova	@r0,	r5	
     f3a:	00 01       	bra	@r1		
     f3c:	22 86       	sub	@r6,	r2	
     f3e:	00 00       	bra	@r0		
     f40:	00 80       	sub	r0,	r0	
     f42:	0c 00       	mova	@r0,	r12	
     f44:	00 09       	bra	@r9		
     f46:	69 00 01 24 	mova	r0,	&0x92401
     f4a:	dd 00       	cmpa	r0,	r13	
     f4c:	00 00       	bra	@r0		
     f4e:	92 0c 00 00 	cmpa	#0xc0000,r2	
     f52:	00 05       	bra	@r5		
     f54:	01 51       	rla	r1		
     f56:	05 00       	mova	@r0,	r5	
     f58:	00 01       	bra	@r1		
     f5a:	29 01 00 42 	mova	&0x14200,r9	
     f5e:	08 42       	mov	r2,	r8	
     f60:	02 71       	subc	r1,	r2	
     f62:	02 47       	mov	r7,	r2	
     f64:	01 00       	mova	@r0,	r1	
     f66:	00 0c       	bra	@r12		
     f68:	4b 05       	rram.a	#2,	r11	
     f6a:	00 00       	bra	@r0		
     f6c:	01 29       	jnc	$+516    	;abs 0x1170
     f6e:	5a 00       	rrcm	#1,	r10	
     f70:	00 00       	bra	@r0		
     f72:	a5 0c 00 00 	adda	#0xc0000,r5	
     f76:	08 2a       	jnc	$-1006   	;abs 0xb88
     f78:	05 00       	mova	@r0,	r5	
     f7a:	00 01       	bra	@r1		
     f7c:	29 86       	sub	@r6,	r9	
     f7e:	00 00       	bra	@r0		
     f80:	00 01       	bra	@r1		
     f82:	5e 00       	rrcm	#1,	r14	
     f84:	0d 01       	mova	@r1,	r13	
     f86:	39 05 00 00 	mova	0(r5),	r9	;0x0000(r5)
     f8a:	01 2d       	jc	$+516    	;abs 0x118e
     f8c:	01 6f       	addc	r15,	r1	
     f8e:	01 00       	mova	@r0,	r1	
     f90:	00 08       	bra	@r8		
     f92:	42 18       	.word	0x1842;	????	
     f94:	42 02       	rlam.a	#1,	r2	
     f96:	71 02 6f 01 	mova	r2,	367(r1)	;0x016f(r1)
     f9a:	00 00       	bra	@r0		
     f9c:	0c 4b       	mov	r11,	r12	
     f9e:	05 00       	mova	@r0,	r5	
     fa0:	00 01       	bra	@r1		
     fa2:	2d 5a       	add	@r10,	r13	
     fa4:	00 00       	bra	@r0		
     fa6:	00 b0       	bit	r0,	r0	
     fa8:	0c 00       	mova	@r0,	r12	
     faa:	00 00       	bra	@r0		
     fac:	07 01       	mova	@r1,	r7	
     fae:	08 27       	jz	$-494    	;abs 0xdc0
     fb0:	02 00       	mova	@r0,	r2	
     fb2:	00 0b       	bra	@r11		
     fb4:	01 19       	.word	0x1901;	????	
     fb6:	05 00       	mova	@r0,	r5	
     fb8:	00 01       	bra	@r1		
     fba:	36 01 18 42 	mova	16920(r1),r6	;0x4218(r1)
     fbe:	44 42       	mov.b	r2,	r4	
     fc0:	bb 0c 00 00 	suba	#0xc0000,r11	
     fc4:	99 01 00 00 	cmpa	#0x10000,r9	
     fc8:	09 69       	rlc	r9		
     fca:	00 01       	bra	@r1		
     fcc:	37 dd       	bis	@r13+,	r7	
     fce:	00 00       	bra	@r0		
     fd0:	00 d7       	bis	r7,	r0	
     fd2:	0c 00       	mova	@r0,	r12	
     fd4:	00 00       	bra	@r0		
     fd6:	0e 0b       	mova	@r11,	r14	
     fd8:	05 00       	mova	@r0,	r5	
     fda:	00 02       	bra	#4		;r2 As==10
     fdc:	09 04       	mova	@r4,	r9	
     fde:	08 05       	mova	@r5,	r8	
     fe0:	00 00       	bra	@r0		
     fe2:	ab 01 00 00 	adda	#0x10000,r11	
     fe6:	01 01       	mova	@r1,	r1	
     fe8:	0f 86       	sub	r6,	r15	
     fea:	00 00       	bra	@r0		
     fec:	00 10       	rrc	r0		
     fee:	86 00 00 00 	mova	#0x00000,r6	
     ff2:	c0 01       	bra	r1		
     ff4:	00 00       	bra	@r0		
     ff6:	11 86 00 00 	sub	0(r6),	r1	;0x0000(r6)
     ffa:	00 06       	bra	@r6		
     ffc:	00 12       	push	r0		
     ffe:	2f 05 00 00 	mova	&0x50000,r15	
    1002:	03 19       	.word	0x1903;	????	
    1004:	cd 01       	mova	r1,	r13	
    1006:	00 00       	bra	@r0		
    1008:	01 01       	mova	@r1,	r1	
    100a:	0f b0       	bit	r0,	r15	
    100c:	01 00       	mova	@r0,	r1	
    100e:	00 0e       	bra	@r14		
    1010:	0b 05       	mova	@r5,	r11	
    1012:	00 00       	bra	@r0		
    1014:	02 09       	mova	@r9,	r2	
    1016:	04 08       	mova	@r8,	r4	
    1018:	05 00       	mova	@r0,	r5	
    101a:	00 ab       	dadd	r11,	r0	
    101c:	01 00       	mova	@r0,	r1	
    101e:	00 01       	bra	@r1		
    1020:	01 13       	reti			;return from interupt
    1022:	2f 05 00 00 	mova	&0x50000,r15	
    1026:	01 05       	mova	@r5,	r1	
    1028:	f4 01       	suba	r1,	r4	
    102a:	00 00       	bra	@r0		
    102c:	01 03       	mova	#2,	r1	;r3 As==10
    102e:	03 48       	.word	0x4803;	????	Illegal as 2-op instr
    1030:	11 0f       	mova	@r15+,	r1	
    1032:	b0 01 00 00 	suba	#0x10000,r0	
    1036:	00 11       	rra	r0		
    1038:	02 00       	mova	@r0,	r2	
    103a:	00 02       	bra	#4		;r2 As==10
    103c:	00 ab       	dadd	r11,	r0	
    103e:	05 00       	mova	@r0,	r5	
    1040:	00 02       	bra	#4		;r2 As==10
    1042:	01 27       	jz	$-508    	;abs 0xe46
    1044:	03 00       	.word	0x0003;	????	Illegal as address instr
    1046:	00 01       	bra	@r1		
    1048:	a5 05 00 00 	adda	#0x50000,r5	
    104c:	3b 02 00 00 	mova	&0x0000,r11	
    1050:	44 42       	mov.b	r2,	r4	
    1052:	6a 43       	mov.b	#2,	r10	;r3 As==10
    1054:	64 0c 00 00 	mova	r12,	&0x40000
    1058:	02 01       	mova	@r1,	r2	
    105a:	08 27       	jz	$-494    	;abs 0xe6c
    105c:	02 00       	mova	@r0,	r2	
    105e:	00 02       	bra	#4		;r2 As==10
    1060:	02 07       	mova	@r7,	r2	
    1062:	3b 00 00 00 	mova	0x0000,	r11	;PC rel. 0x01064
    1066:	03 21       	jnz	$+520    	;abs 0x126e
    1068:	03 00       	.word	0x0003;	????	Illegal as address instr
    106a:	00 04       	bra	@r4		
    106c:	08 3a       	jl	$-1006   	;abs 0xc7e
    106e:	00 00       	bra	@r0		
    1070:	00 04       	bra	@r4		
    1072:	02 05       	mova	@r5,	r2	
    1074:	69 6e       	addc.b	@r14,	r9	
    1076:	74 00 05 02 	mova	r0,	517(r4)	;0x0205(r4)
    107a:	05 0d       	mova	@r13,	r5	
    107c:	7a 00 00 00 	mova	r0,	0(r10)	;0x0000(r10)
    1080:	06 0b       	mova	@r11,	r6	
    1082:	02 00       	mova	@r0,	r2	
    1084:	00 00       	bra	@r0		
    1086:	06 a9       	dadd	r9,	r6	
    1088:	01 00       	mova	@r0,	r1	
    108a:	00 01       	bra	@r1		
    108c:	06 e6       	xor	r6,	r6	
    108e:	01 00       	mova	@r0,	r1	
    1090:	00 02       	bra	#4		;r2 As==10
    1092:	06 ed       	xor	r13,	r6	
    1094:	00 00       	bra	@r0		
    1096:	00 03       	bra	#2		;r3 As==10
    1098:	06 c9       	bic	r9,	r6	
    109a:	00 00       	bra	@r0		
    109c:	00 04       	bra	@r4		
    109e:	06 84       	sub	r4,	r6	
    10a0:	00 00       	bra	@r0		
    10a2:	00 05       	bra	@r5		
    10a4:	06 1a       	.word	0x1a06;	????	
    10a6:	01 00       	mova	@r0,	r1	
    10a8:	00 06       	bra	@r6		
    10aa:	06 01       	mova	@r1,	r6	
    10ac:	01 00       	mova	@r0,	r1	
    10ae:	00 07       	bra	@r7		
    10b0:	00 07       	bra	@r7		
    10b2:	01 d6       	bis	r6,	r1	
    10b4:	05 00       	mova	@r0,	r5	
    10b6:	00 01       	bra	@r1		
    10b8:	09 01       	mova	@r1,	r9	
    10ba:	44 42       	mov.b	r2,	r4	
    10bc:	60 42       	br	#4		;r2 As==10
    10be:	02 71       	subc	r1,	r2	
    10c0:	02 08       	mova	@r8,	r2	
    10c2:	01 7f       	subc	r15,	r1	
    10c4:	05 00       	mova	@r0,	r5	
    10c6:	00 01       	bra	@r1		
    10c8:	12 01       	mova	@r1+,	r2	
    10ca:	60 42       	br	#4		;r2 As==10
    10cc:	e4 42 f1 0c 	mov.b	#4,	3313(r4);r2 As==10, 0x0cf1(r4)
    10d0:	00 00       	bra	@r0		
    10d2:	c9 00       	mova	r0,	r9	
    10d4:	00 00       	bra	@r0		
    10d6:	09 69       	rlc	r9		
    10d8:	00 01       	bra	@r1		
    10da:	12 3a       	jl	$-986    	;abs 0xd00
    10dc:	00 00       	bra	@r0		
    10de:	00 3d       	jmp	$+514    	;abs 0x12e0
    10e0:	0d 00       	mova	@r0,	r13	
    10e2:	00 0a       	bra	@r10		
    10e4:	6b 00 01 13 	mova	r0,	&0xb1301
    10e8:	3a 00 00 00 	mova	0x0000,	r10	;PC rel. 0x010ea
    10ec:	48 0d       	rram.a	#4,	r8	
    10ee:	00 00       	bra	@r0		
    10f0:	0b f8       	and	r8,	r11	
    10f2:	05 00       	mova	@r0,	r5	
    10f4:	00 01       	bra	@r1		
    10f6:	14 c9 00 00 	bic	0(r9),	r4	;0x0000(r9)
    10fa:	00 54       	add	r4,	r0	
    10fc:	0d 00       	mova	@r0,	r13	
    10fe:	00 00       	bra	@r0		
    1100:	02 04       	mova	@r4,	r2	
    1102:	05 65       	rlc	r5		
    1104:	00 00       	bra	@r0		
    1106:	00 0c       	bra	@r12		
    1108:	01 14       	pushm.a	#1,	r1	
    110a:	06 00       	mova	@r0,	r6	
    110c:	00 01       	bra	@r1		
    110e:	25 01 e4 42 	mova	&0x142e4,r5	
    1112:	2c 43       	mov	#2,	r12	;r3 As==10
    1114:	02 71       	subc	r1,	r2	
    1116:	02 f2       	and	r2,	r2	
    1118:	00 00       	bra	@r0		
    111a:	00 0a       	bra	@r10		
    111c:	69 00 01 26 	mova	r0,	&0x92601
    1120:	3a 00 00 00 	mova	0x0000,	r10	;PC rel. 0x01122
    1124:	7c 0d 00 00 	mova	r13,	0(r12)	;0x0000(r12)
    1128:	00 0c       	bra	@r12		
    112a:	01 fd       	and	r13,	r1	
    112c:	05 00       	mova	@r0,	r5	
    112e:	00 01       	bra	@r1		
    1130:	36 01 2c 43 	mova	17196(r1),r6	;0x432c(r1)
    1134:	6a 43       	mov.b	#2,	r10	;r3 As==10
    1136:	02 71       	subc	r1,	r2	
    1138:	02 14       	pushm.a	#1,	r2	
    113a:	01 00       	mova	@r0,	r1	
    113c:	00 09       	bra	@r9		
    113e:	69 00 01 36 	mova	r0,	&0x93601
    1142:	3a 00 00 00 	mova	0x0000,	r10	;PC rel. 0x01144
    1146:	8f 0d 00 00 	mova	#0xd0000,r15	
    114a:	00 0d       	bra	@r13		
    114c:	b1 05 00 00 	suba	#0x50000,r1	
    1150:	02 c1       	bic	r1,	r2	
    1152:	ae 05 00 00 	adda	#0x50000,r14	
    1156:	25 01 00 00 	mova	&0x10000,r5	
    115a:	01 01       	mova	@r1,	r1	
    115c:	0e 28       	jnc	$+30     	;abs 0x117a
    115e:	00 00       	bra	@r0		
    1160:	00 0d       	bra	@r13		
    1162:	be 05 00 00 	suba	#0x50000,r14	
    1166:	02 c3       	bic	#0,	r2	;r3 As==00
    1168:	bb 05 00 00 	suba	#0x50000,r11	
    116c:	25 01 00 00 	mova	&0x10000,r5	
    1170:	01 01       	mova	@r1,	r1	
    1172:	0d ee       	xor	r14,	r13	
    1174:	05 00       	mova	@r0,	r5	
    1176:	00 02       	bra	#4		;r2 As==10
    1178:	d2 eb 05 00 	xor.b	5(r11),	&0x2500	;0x0005(r11)
    117c:	00 25 
    117e:	01 00       	mova	@r0,	r1	
    1180:	00 01       	bra	@r1		
    1182:	01 0d       	mova	@r13,	r1	
    1184:	cb 05       	mova	r5,	r11	
    1186:	00 00       	bra	@r0		
    1188:	02 f9       	and	r9,	r2	
    118a:	c8 05       	mova	r5,	r8	
    118c:	00 00       	bra	@r0		
    118e:	5d 01       	rram	#1,	r13	
    1190:	00 00       	bra	@r0		
    1192:	01 01       	mova	@r1,	r1	
    1194:	0e 21       	jnz	$+542    	;abs 0x13b2
    1196:	00 00       	bra	@r0		
    1198:	00 0f       	bra	@r15		
    119a:	e5 05       	adda	r5,	r5	
    119c:	00 00       	bra	@r0		
    119e:	02 c0       	bic	r0,	r2	
    11a0:	03 e2       	.word	0xe203;	????	Illegal as 2-op instr
    11a2:	05 00       	mova	@r0,	r5	
    11a4:	00 5d       	add	r13,	r0	
    11a6:	01 00       	mova	@r0,	r1	
    11a8:	00 01       	bra	@r1		
    11aa:	01 10       	rrc	r1		
    11ac:	2f 00 00 00 	mova	&0x00000,r15	
    11b0:	84 01 00 00 	mova	#0x10000,r4	
    11b4:	11 28       	jnc	$+36     	;abs 0x11d8
    11b6:	00 00       	bra	@r0		
    11b8:	00 07       	bra	@r7		
    11ba:	00 12       	push	r0		
    11bc:	98 05 00 00 	cmpa	#0x50000,r8	
    11c0:	03 08       	.word	0x0803;	????	Illegal as address instr
    11c2:	74 01 00 00 	mova	r1,	0(r4)	;0x0000(r4)
    11c6:	01 01       	mova	@r1,	r1	
    11c8:	12 a5 02 00 	dadd	2(r5),	r2	;0x0002(r5)
    11cc:	00 03       	bra	#2		;r3 As==10
    11ce:	09 74       	subc	r4,	r9	
    11d0:	01 00       	mova	@r0,	r1	
    11d2:	00 01       	bra	@r1		
    11d4:	01 0d       	mova	@r13,	r1	
    11d6:	b1 05 00 00 	suba	#0x50000,r1	
    11da:	02 c1       	bic	r1,	r2	
    11dc:	ae 05 00 00 	adda	#0x50000,r14	
    11e0:	25 01 00 00 	mova	&0x10000,r5	
    11e4:	01 01       	mova	@r1,	r1	
    11e6:	0d be       	bit	r14,	r13	
    11e8:	05 00       	mova	@r0,	r5	
    11ea:	00 02       	bra	#4		;r2 As==10
    11ec:	c3 bb       	bit.b	r11,	#1	;r3 As==01
    11ee:	05 00       	mova	@r0,	r5	
    11f0:	00 25       	jz	$+514    	;abs 0x13f2
    11f2:	01 00       	mova	@r0,	r1	
    11f4:	00 01       	bra	@r1		
    11f6:	01 0d       	mova	@r13,	r1	
    11f8:	ee 05       	adda	r5,	r14	
    11fa:	00 00       	bra	@r0		
    11fc:	02 d2       	bis	r2,	r2	
    11fe:	eb 05       	adda	r5,	r11	
    1200:	00 00       	bra	@r0		
    1202:	25 01 00 00 	mova	&0x10000,r5	
    1206:	01 01       	mova	@r1,	r1	
    1208:	0d cb       	bic	r11,	r13	
    120a:	05 00       	mova	@r0,	r5	
    120c:	00 02       	bra	#4		;r2 As==10
    120e:	f9 c8 05 00 	bic.b	@r8+,	5(r9)	;0x0005(r9)
    1212:	00 5d       	add	r13,	r0	
    1214:	01 00       	mova	@r0,	r1	
    1216:	00 01       	bra	@r1		
    1218:	01 0f       	mova	@r15,	r1	
    121a:	e5 05       	adda	r5,	r5	
    121c:	00 00       	bra	@r0		
    121e:	02 c0       	bic	r0,	r2	
    1220:	03 e2       	.word	0xe203;	????	Illegal as 2-op instr
    1222:	05 00       	mova	@r0,	r5	
    1224:	00 5d       	add	r13,	r0	
    1226:	01 00       	mova	@r0,	r1	
    1228:	00 01       	bra	@r1		
    122a:	01 13       	reti			;return from interupt
    122c:	98 05 00 00 	cmpa	#0x50000,r8	
    1230:	01 06       	mova	@r6,	r1	
    1232:	74 01 00 00 	mova	r1,	0(r4)	;0x0000(r4)
    1236:	01 03       	mova	#2,	r1	;r3 As==10
    1238:	03 10       	rrc	#0		;r3 As==00
    123a:	11 13       	reti			;return from interupt
    123c:	a5 02 00 00 	adda	#0x20000,r5	
    1240:	01 07       	mova	@r7,	r1	
    1242:	74 01 00 00 	mova	r1,	0(r4)	;0x0000(r4)
    1246:	01 03       	mova	#2,	r1	;r3 As==10
    1248:	03 20       	jnz	$+8      	;abs 0x1250
    124a:	11 00       	mova	#0x00000,r1	
    124c:	ff 00       	suba	r0,	r15	
    124e:	00 00       	bra	@r0		
    1250:	02 00       	mova	@r0,	r2	
    1252:	cb 06       	mova	r6,	r11	
    1254:	00 00       	bra	@r0		
    1256:	02 01       	mova	@r1,	r2	
    1258:	27 03 00 00 	mova	&0x30000,r7	
    125c:	01 67       	addc	r7,	r1	
    125e:	06 00       	mova	@r0,	r6	
    1260:	00 39       	jl	$+514    	;abs 0x1462
    1262:	06 00       	mova	@r0,	r6	
    1264:	00 6a       	addc	r10,	r0	
    1266:	43 8a       	.word	0x8a43;	????	Illegal as 2-op instr
    1268:	43 fb       	.word	0xfb43;	????	Illegal as 2-op instr
    126a:	0d 00       	mova	@r0,	r13	
    126c:	00 02       	bra	#4		;r2 As==10
    126e:	04 05       	mova	@r5,	r4	
    1270:	65 00 00 00 	mova	r0,	&0x50000
    1274:	02 02       	mova	#4,	r2	;r2 As==10
    1276:	07 3b       	jl	$-496    	;abs 0x1086
    1278:	00 00       	bra	@r0		
    127a:	00 03       	bra	#2		;r3 As==10
    127c:	02 05       	mova	@r5,	r2	
    127e:	69 6e       	addc.b	@r14,	r9	
    1280:	74 00 02 01 	mova	r0,	258(r4)	;0x0102(r4)
    1284:	06 29       	jnc	$+526    	;abs 0x1492
    1286:	02 00       	mova	@r0,	r2	
    1288:	00 02       	bra	#4		;r2 As==10
    128a:	08 05       	mova	@r5,	r8	
    128c:	60 00 00 00 	mova	r0,	&0x00000
    1290:	02 01       	mova	@r1,	r2	
    1292:	08 27       	jz	$-494    	;abs 0x10a4
    1294:	02 00       	mova	@r0,	r2	
    1296:	00 02       	bra	#4		;r2 As==10
    1298:	04 07       	mova	@r7,	r4	
    129a:	36 00 00 00 	mova	0x0000,	r6	;PC rel. 0x0129c
    129e:	02 08       	mova	@r8,	r2	
    12a0:	07 31       	jn	$+528    	;abs 0x14b0
    12a2:	00 00       	bra	@r0		
    12a4:	00 02       	bra	#4		;r2 As==10
    12a6:	02 07       	mova	@r7,	r2	
    12a8:	2c 01 00 00 	mova	&0x10000,r12	
    12ac:	02 01       	mova	@r1,	r2	
    12ae:	06 30       	jn	$+14     	;abs 0x12bc
    12b0:	02 00       	mova	@r0,	r2	
    12b2:	00 04       	bra	@r4		
    12b4:	02 6d       	addc	r13,	r2	
    12b6:	00 00       	bra	@r0		
    12b8:	00 05       	bra	@r5		
    12ba:	60 00 00 00 	mova	r0,	&0x00000
    12be:	06 79       	subc	r9,	r6	
    12c0:	06 00       	mova	@r0,	r6	
    12c2:	00 02       	bra	#4		;r2 As==10
    12c4:	28 7d       	subc	@r13,	r8	
    12c6:	00 00       	bra	@r0		
    12c8:	00 07       	bra	@r7		
    12ca:	02 27       	jz	$-506    	;abs 0x10d0
    12cc:	06 00       	mova	@r0,	r6	
    12ce:	00 06       	bra	@r6		
    12d0:	80 06 00 00 	bra	#0x60000	
    12d4:	02 66       	addc	r6,	r2	
    12d6:	72 00 00 00 	mova	r0,	&0x0000	
    12da:	08 01       	mova	@r1,	r8	
    12dc:	75 07 00 00 	mova	r7,	0(r5)	;0x0000(r5)
    12e0:	01 24       	jz	$+4      	;abs 0x12e4
    12e2:	01 2f       	jc	$-508    	;abs 0x10e6
    12e4:	00 00       	bra	@r0		
    12e6:	00 6a       	addc	r10,	r0	
    12e8:	43 7c       	.word	0x7c43;	????	Illegal as 2-op instr
    12ea:	43 02       	rlam.a	#1,	#0	;r3 As==00
    12ec:	71 02 cf 00 	mova	r2,	207(r1)	;0x00cf(r1)
    12f0:	00 00       	bra	@r0		
    12f2:	09 66       	addc	r6,	r9	
    12f4:	6d 74       	subc.b	@r4,	r13	
    12f6:	00 01       	bra	@r1		
    12f8:	24 67       	addc	@r7,	r4	
    12fa:	00 00       	bra	@r0		
    12fc:	00 02       	bra	#4		;r2 As==10
    12fe:	91 02 0a 0b 	cmpa	#0x20b0a,r1	
    1302:	88 06 00 00 	mova	#0x60000,r8	
    1306:	01 26       	jz	$-1020   	;abs 0xf0a
    1308:	83 00       	.word	0x0083;	????	Illegal as address instr
    130a:	00 00       	bra	@r0		
    130c:	03 91       	.word	0x9103;	????	Illegal as 2-op instr
    130e:	02 9f       	cmp	r15,	r2	
    1310:	0c 72       	subc	r2,	r12	
    1312:	63 00 01 27 	mova	r0,	&0x32701
    1316:	2f 00 00 00 	mova	&0x00000,r15	
    131a:	00 0d       	bra	@r13		
    131c:	01 5f       	add	r15,	r1	
    131e:	06 00       	mova	@r0,	r6	
    1320:	00 01       	bra	@r1		
    1322:	30 01 2f 00 	bra	47(r1)		;0x002f(r1)
    1326:	00 00       	bra	@r0		
    1328:	7c 43       	mov.b	#-1,	r12	;r3 As==11
    132a:	8a 43 02 71 	mov	#0,	28930(r10);r3 As==00, 0x7102(r10)
    132e:	02 0e       	mova	@r14,	r2	
    1330:	66 6d       	addc.b	@r13,	r6	
    1332:	74 00 01 30 	mova	r0,	12289(r4);0x3001(r4)
    1336:	67 00 00 00 	mova	r0,	&0x70000
    133a:	9a 0d 00 00 	cmpa	#0xd0000,r10	
    133e:	0f 88       	sub	r8,	r15	
    1340:	06 00       	mova	@r0,	r6	
    1342:	00 01       	bra	@r1		
    1344:	30 83       	sub	#-1,	r0	;r3 As==11
    1346:	00 00       	bra	@r0		
    1348:	00 ac       	dadd	r12,	r0	
    134a:	0d 00       	mova	@r0,	r13	
    134c:	00 00       	bra	@r0		
    134e:	00 b1       	bit	r1,	r0	
    1350:	03 00       	.word	0x0003;	????	Illegal as address instr
    1352:	00 02       	bra	#4		;r2 As==10
    1354:	00 99       	cmp	r9,	r0	
    1356:	07 00       	mova	@r0,	r7	
    1358:	00 02       	bra	#4		;r2 As==10
    135a:	01 27       	jz	$-508    	;abs 0x115e
    135c:	03 00       	.word	0x0003;	????	Illegal as address instr
    135e:	00 01       	bra	@r1		
    1360:	98 07 00 00 	cmpa	#0x70000,r8	
    1364:	39 06 00 00 	mova	0(r6),	r9	;0x0000(r6)
    1368:	8a 43 00 48 	mov	#0,	18432(r10);r3 As==00, 0x4800(r10)
    136c:	91 0e 00 00 	cmpa	#0xe0000,r1	
    1370:	02 04       	mova	@r4,	r2	
    1372:	05 65       	rlc	r5		
    1374:	00 00       	bra	@r0		
    1376:	00 02       	bra	#4		;r2 As==10
    1378:	02 07       	mova	@r7,	r2	
    137a:	3b 00 00 00 	mova	0x0000,	r11	;PC rel. 0x0137c
    137e:	03 02       	.word	0x0203;	????	Illegal as address instr
    1380:	05 69       	addc	r9,	r5	
    1382:	6e 74       	subc.b	@r4,	r14	
    1384:	00 02       	bra	#4		;r2 As==10
    1386:	01 06       	mova	@r6,	r1	
    1388:	29 02 00 00 	mova	&0x20000,r9	
    138c:	04 51       	add	r1,	r4	
    138e:	07 00       	mova	@r0,	r7	
    1390:	00 02       	bra	#4		;r2 As==10
    1392:	27 2f       	jc	$-432    	;abs 0x11e2
    1394:	00 00       	bra	@r0		
    1396:	00 02       	bra	#4		;r2 As==10
    1398:	08 05       	mova	@r5,	r8	
    139a:	60 00 00 00 	mova	r0,	&0x00000
    139e:	02 01       	mova	@r1,	r2	
    13a0:	08 27       	jz	$-494    	;abs 0x11b2
    13a2:	02 00       	mova	@r0,	r2	
    13a4:	00 02       	bra	#4		;r2 As==10
    13a6:	04 07       	mova	@r7,	r4	
    13a8:	36 00 00 00 	mova	0x0000,	r6	;PC rel. 0x013aa
    13ac:	02 08       	mova	@r8,	r2	
    13ae:	07 31       	jn	$+528    	;abs 0x15be
    13b0:	00 00       	bra	@r0		
    13b2:	00 04       	bra	@r4		
    13b4:	8d 06 00 00 	mova	#0x60000,r13	
    13b8:	02 56       	add	r6,	r2	
    13ba:	3d 00 00 00 	mova	0x0000,	r13	;PC rel. 0x013bc
    13be:	02 02       	mova	#4,	r2	;r2 As==10
    13c0:	07 2c       	jc	$+16     	;abs 0x13d0
    13c2:	01 00       	mova	@r0,	r1	
    13c4:	00 05       	bra	@r5		
    13c6:	02 7c       	subc	r12,	r2	
    13c8:	00 00       	bra	@r0		
    13ca:	00 02       	bra	#4		;r2 As==10
    13cc:	01 06       	mova	@r6,	r1	
    13ce:	30 02 00 00 	bra	&0x0000	
    13d2:	05 02       	mova	#4,	r5	;r2 As==10
    13d4:	89 00 00 00 	mova	#0x00000,r9	
    13d8:	06 7c       	subc	r12,	r6	
    13da:	00 00       	bra	@r0		
    13dc:	00 04       	bra	@r4		
    13de:	79 06 00 00 	mova	r6,	0(r9)	;0x0000(r9)
    13e2:	03 28       	jnc	$+8      	;abs 0x13ea
    13e4:	99 00 00 00 	cmpa	#0x00000,r9	
    13e8:	07 02       	mova	#4,	r7	;r2 As==10
    13ea:	27 06 00 00 	mova	&0x60000,r7	
    13ee:	04 80       	sub	r0,	r4	
    13f0:	06 00       	mova	@r0,	r6	
    13f2:	00 03       	bra	#2		;r3 As==10
    13f4:	66 8e       	sub.b	@r14,	r6	
    13f6:	00 00       	bra	@r0		
    13f8:	00 08       	bra	@r8		
    13fa:	02 01       	mova	@r1,	r2	
    13fc:	34 38       	jl	$+106    	;abs 0x1466
    13fe:	01 00       	mova	@r0,	r1	
    1400:	00 09       	bra	@r9		
    1402:	fc 06       	suba	r6,	r12	
    1404:	00 00       	bra	@r0		
    1406:	01 36       	jge	$-1020   	;abs 0x100a
    1408:	28 00 00 00 	mova	&0x00000,r8	
    140c:	02 01       	mova	@r1,	r2	
    140e:	0f 02       	mova	#4,	r15	;r2 As==10
    1410:	23 00       	.word	0x0023;	????	Illegal as address instr
    1412:	09 7c       	subc	r12,	r9	
    1414:	07 00       	mova	@r0,	r7	
    1416:	00 01       	bra	@r1		
    1418:	37 28       	jnc	$+112    	;abs 0x1488
    141a:	00 00       	bra	@r0		
    141c:	00 02       	bra	#4		;r2 As==10
    141e:	01 0e       	mova	@r14,	r1	
    1420:	02 23       	jnz	$-506    	;abs 0x1226
    1422:	00 09       	bra	@r9		
    1424:	e7 06       	adda	r6,	r7	
    1426:	00 00       	bra	@r0		
    1428:	01 38       	jl	$+4      	;abs 0x142c
    142a:	28 00 00 00 	mova	&0x00000,r8	
    142e:	02 01       	mova	@r1,	r2	
    1430:	0d 02       	mova	#4,	r13	;r2 As==10
    1432:	23 00       	.word	0x0023;	????	Illegal as address instr
    1434:	09 d5       	bis	r5,	r9	
    1436:	06 00       	mova	@r0,	r6	
    1438:	00 01       	bra	@r1		
    143a:	39 28       	jnc	$+116    	;abs 0x14ae
    143c:	00 00       	bra	@r0		
    143e:	00 02       	bra	#4		;r2 As==10
    1440:	01 0c       	mova	@r12,	r1	
    1442:	02 23       	jnz	$-506    	;abs 0x1248
    1444:	00 09       	bra	@r9		
    1446:	b3 06       	.word	0x06b3;	????	Illegal as address instr
    1448:	00 00       	bra	@r0		
    144a:	01 3a       	jl	$-1020   	;abs 0x104e
    144c:	28 00 00 00 	mova	&0x00000,r8	
    1450:	02 01       	mova	@r1,	r2	
    1452:	0b 02       	mova	#4,	r11	;r2 As==10
    1454:	23 00       	.word	0x0023;	????	Illegal as address instr
    1456:	09 8e       	sub	r14,	r9	
    1458:	07 00       	mova	@r0,	r7	
    145a:	00 01       	bra	@r1		
    145c:	3b 28       	jnc	$+120    	;abs 0x14d4
    145e:	00 00       	bra	@r0		
    1460:	00 02       	bra	#4		;r2 As==10
    1462:	01 0a       	mova	@r10,	r1	
    1464:	02 23       	jnz	$-506    	;abs 0x126a
    1466:	00 09       	bra	@r9		
    1468:	f2 06       	suba	r6,	r2	
    146a:	00 00       	bra	@r0		
    146c:	01 3c       	jmp	$+4      	;abs 0x1470
    146e:	28 00 00 00 	mova	&0x00000,r8	
    1472:	02 01       	mova	@r1,	r2	
    1474:	09 02       	mova	#4,	r9	;r2 As==10
    1476:	23 00       	.word	0x0023;	????	Illegal as address instr
    1478:	0a 69       	addc	r9,	r10	
    147a:	07 00       	mova	@r0,	r7	
    147c:	00 01       	bra	@r1		
    147e:	3d 7c       	subc	@r12+,	r13	
    1480:	00 00       	bra	@r0		
    1482:	00 02       	bra	#4		;r2 As==10
    1484:	23 01       	.word	0x0123;	????	Illegal as address instr
    1486:	00 04       	bra	@r4		
    1488:	86 07 00 00 	mova	#0x70000,r6	
    148c:	01 3e       	jmp	$-1020   	;abs 0x1090
    148e:	aa 00 00 00 	adda	#0x00000,r10	
    1492:	0b dc       	bis	r12,	r11	
    1494:	07 00       	mova	@r0,	r7	
    1496:	00 01       	bra	@r1		
    1498:	4b 01       	rram.a	#1,	r11	
    149a:	2f 00 00 00 	mova	&0x00000,r15	
    149e:	01 74       	subc	r4,	r1	
    14a0:	01 00       	mova	@r0,	r1	
    14a2:	00 0c       	bra	@r12		
    14a4:	3d 07 00 00 	mova	0(r7),	r13	;0x0000(r7)
    14a8:	01 4b       	mov	r11,	r1	
    14aa:	76 00 00 00 	mova	r0,	0(r6)	;0x0000(r6)
    14ae:	0c 32       	jn	$-998    	;abs 0x10c8
    14b0:	07 00       	mova	@r0,	r7	
    14b2:	00 01       	bra	@r1		
    14b4:	4b 38       	jl	$+152    	;abs 0x154c
    14b6:	01 00       	mova	@r0,	r1	
    14b8:	00 0d       	bra	@r13		
    14ba:	70 00 01 4d 	mova	r0,	0x4d01	;PC rel. 0x061bd
    14be:	76 00 00 00 	mova	r0,	0(r6)	;0x0000(r6)
    14c2:	00 0e       	bra	@r14		
    14c4:	0e 07       	mova	@r7,	r14	
    14c6:	00 00       	bra	@r0		
    14c8:	01 63       	adc	r1		
    14ca:	01 2f       	jc	$-508    	;abs 0x12ce
    14cc:	00 00       	bra	@r0		
    14ce:	00 8a       	sub	r10,	r0	
    14d0:	43 8e       	.word	0x8e43;	????	Illegal as 2-op instr
    14d2:	44 be       	bit.b	r14,	r4	
    14d4:	0d 00       	mova	@r0,	r13	
    14d6:	00 53       	add	#0,	r0	;r3 As==00
    14d8:	02 00       	mova	@r0,	r2	
    14da:	00 0f       	bra	@r15		
    14dc:	a8 06 00 00 	adda	#0x60000,r8	
    14e0:	01 63       	adc	r1		
    14e2:	63 02 00 00 	mova	r2,	&0x30000
    14e6:	12 0e       	mova	@r14+,	r2	
    14e8:	00 00       	bra	@r0		
    14ea:	0f ce       	bic	r14,	r15	
    14ec:	06 00       	mova	@r0,	r6	
    14ee:	00 01       	bra	@r1		
    14f0:	63 83       	decd.b	#0		;r3 As==00
    14f2:	00 00       	bra	@r0		
    14f4:	00 24       	jz	$+2      	;abs 0x14f6
    14f6:	0e 00       	mova	@r0,	r14	
    14f8:	00 0f       	bra	@r15		
    14fa:	c4 03       	mova	#0,	r4	;r3 As==00
    14fc:	00 00       	bra	@r0		
    14fe:	01 63       	adc	r1		
    1500:	28 00 00 00 	mova	&0x00000,r8	
    1504:	3d 0e 00 00 	mova	0(r14),	r13	;0x0000(r14)
    1508:	0f 32       	jn	$-992    	;abs 0x1128
    150a:	07 00       	mova	@r0,	r7	
    150c:	00 01       	bra	@r1		
    150e:	64 38       	jl	$+202    	;abs 0x15d8
    1510:	01 00       	mova	@r0,	r1	
    1512:	00 5d       	add	r13,	r0	
    1514:	0e 00       	mova	@r0,	r14	
    1516:	00 10       	rrc	r0		
    1518:	b2 07 00 00 	suba	#0x70000,r2	
    151c:	01 66       	addc	r6,	r1	
    151e:	2f 00 00 00 	mova	&0x00000,r15	
    1522:	68 0e 00 00 	mova	r14,	&0x80000
    1526:	11 3d       	jmp	$+548    	;abs 0x174a
    1528:	07 00       	mova	@r0,	r7	
    152a:	00 01       	bra	@r1		
    152c:	67 69       	addc.b	@r9,	r7	
    152e:	02 00       	mova	@r0,	r2	
    1530:	00 02       	bra	#4		;r2 As==10
    1532:	91 00 10 27 	cmpa	#0x02710,r1	
    1536:	07 00       	mova	@r0,	r7	
    1538:	00 01       	bra	@r1		
    153a:	68 2f       	jc	$-302    	;abs 0x140c
    153c:	00 00       	bra	@r0		
    153e:	00 bb       	bit	r11,	r0	
    1540:	0e 00       	mova	@r0,	r14	
    1542:	00 11       	rra	r0		
    1544:	c3 06       	.word	0x06c3;	????	Illegal as address instr
    1546:	00 00       	bra	@r0		
    1548:	01 69       	addc	r9,	r1	
    154a:	2f 00 00 00 	mova	&0x00000,r15	
    154e:	01 56       	add	r6,	r1	
    1550:	12 43       	mov	#1,	r2	;r3 As==01
    1552:	01 00       	mova	@r0,	r1	
    1554:	00 a8       	dadd	r8,	r0	
    1556:	43 e4       	.word	0xe443;	????	Illegal as 2-op instr
    1558:	43 01       	rram.a	#1,	#0	;r3 As==00
    155a:	69 2e       	jc	$-812    	;abs 0x122e
    155c:	02 00       	mova	@r0,	r2	
    155e:	00 13       	reti			
    1560:	5f 01       	rram	#1,	r15	
    1562:	00 00       	bra	@r0		
    1564:	14 54 01 00 	add	1(r4),	r4	;0x0001(r4)
    1568:	00 fa       	and	r10,	r0	
    156a:	0e 00       	mova	@r0,	r14	
    156c:	00 15       	pushm	#1,	r0	
    156e:	a8 43 e4 43 	mov	#2,	17380(r8);r3 As==10, 0x43e4(r8)
    1572:	16 6a 01 00 	addc	1(r10),	r6	;0x0001(r10)
    1576:	00 0e       	bra	@r14		
    1578:	0f 00       	mova	@r0,	r15	
    157a:	00 00       	bra	@r0		
    157c:	00 17       	popm	#1,	r0	
    157e:	34 00 00 00 	mova	0x0000,	r4	;PC rel. 0x01580
    1582:	10 9b 06 00 	cmp	6(r11),	r0	;0x0006(r11)
    1586:	00 01       	bra	@r1		
    1588:	6e 7c       	subc.b	@r12,	r14	
    158a:	00 00       	bra	@r0		
    158c:	00 49       	br	r9		
    158e:	0f 00       	mova	@r0,	r15	
    1590:	00 18 6c 65 	addcx.a	@r5,	r12	
    1594:	6e 00 01 6f 	mova	r0,	&0xe6f01
    1598:	28 00 00 00 	mova	&0x00000,r8	
    159c:	64 0f 00 00 	mova	r15,	&0x40000
    15a0:	00 00       	bra	@r0		
    15a2:	19 01       	mova	@r1+,	r9	
    15a4:	2f 00 00 00 	mova	&0x00000,r15	
    15a8:	63 02 00 00 	mova	r2,	&0x30000
    15ac:	1a 2f       	jc	$-458    	;abs 0x13e2
    15ae:	00 00       	bra	@r0		
    15b0:	00 00       	bra	@r0		
    15b2:	05 02       	mova	#4,	r5	;r2 As==10
    15b4:	53 02       	rlam	#1,	#0	;r3 As==00
    15b6:	00 00       	bra	@r0		
    15b8:	1b 7c 00 00 	subc	0(r12),	r11	;0x0000(r12)
    15bc:	00 79       	subc	r9,	r0	
    15be:	02 00       	mova	@r0,	r2	
    15c0:	00 1c       	.word	0x1c00;	????	
    15c2:	28 00 00 00 	mova	&0x00000,r8	
    15c6:	01 00       	mova	@r0,	r1	
    15c8:	1d 01       	mova	@r1+,	r13	
    15ca:	73 07       	.word	0x0773;	????	Illegal as address instr
    15cc:	00 00       	bra	@r0		
    15ce:	01 c5       	bic	r5,	r1	
    15d0:	01 2f       	jc	$-508    	;abs 0x13d4
    15d2:	00 00       	bra	@r0		
    15d4:	00 96       	cmp	r6,	r0	
    15d6:	44 00       	rrcm.a	#1,	r4	
    15d8:	48 76       	subc.b	r6,	r8	
    15da:	0f 00       	mova	@r0,	r15	
    15dc:	00 a8       	dadd	r8,	r0	
    15de:	03 00       	.word	0x0003;	????	Illegal as address instr
    15e0:	00 0f       	bra	@r15		
    15e2:	a8 06 00 00 	adda	#0x60000,r8	
    15e6:	01 c5       	bic	r5,	r1	
    15e8:	63 02 00 00 	mova	r2,	&0x30000
    15ec:	ca 0f       	mova	r15,	r10	
    15ee:	00 00       	bra	@r0		
    15f0:	0f d5       	bis	r5,	r15	
    15f2:	07 00       	mova	@r0,	r7	
    15f4:	00 01       	bra	@r1		
    15f6:	c5 83 00 00 	sub.b	#0,	0(r5)	;r3 As==00, 0x0000(r5)
    15fa:	00 dd       	bis	r13,	r0	
    15fc:	0f 00       	mova	@r0,	r15	
    15fe:	00 0f       	bra	@r15		
    1600:	38 07 00 00 	mova	0(r7),	r8	;0x0000(r7)
    1604:	01 c5       	bic	r5,	r1	
    1606:	9f 00 00 00 	cmpa	#0x00000,r15	
    160a:	f7 0f       	suba	r15,	r7	
    160c:	00 00       	bra	@r0		
    160e:	10 b2 07 00 	bit	&0x0007,r0	
    1612:	00 01       	bra	@r1		
    1614:	c7 2f       	jc	$-112    	;abs 0x15a4
    1616:	00 00       	bra	@r0		
    1618:	00 72       	subc	r2,	r0	
    161a:	10 00       	bra	#0x00000	
    161c:	00 1e       	.word	0x1e00;	????	
    161e:	02 01       	mova	@r1,	r2	
    1620:	c9 e3 02 00 	xor.b	#0,	2(r9)	;r3 As==00, 0x0002(r9)
    1624:	00 1f       	.word	0x1f00;	????	
    1626:	c2 07       	mova	r7,	r2	
    1628:	00 00       	bra	@r0		
    162a:	00 1f       	.word	0x1f00;	????	
    162c:	04 07       	mova	@r7,	r4	
    162e:	00 00       	bra	@r0		
    1630:	01 00       	mova	@r0,	r1	
    1632:	10 96 06 00 	cmp	6(r6),	r0	;0x0006(r6)
    1636:	00 01       	bra	@r1		
    1638:	c9 ce 02 00 	bic.b	r14,	2(r9)	;0x0002(r9)
    163c:	00 8e       	sub	r14,	r0	
    163e:	10 00       	bra	#0x00000	
    1640:	00 10       	rrc	r0		
    1642:	c4 03       	mova	#0,	r4	;r3 As==00
    1644:	00 00       	bra	@r0		
    1646:	01 ca       	bic	r10,	r1	
    1648:	28 00 00 00 	mova	&0x00000,r8	
    164c:	eb 10       	.word	0x10eb;	????	
    164e:	00 00       	bra	@r0		
    1650:	11 32       	jn	$-988    	;abs 0x1274
    1652:	07 00       	mova	@r0,	r7	
    1654:	00 01       	bra	@r1		
    1656:	cb 38       	jl	$+408    	;abs 0x17ee
    1658:	01 00       	mova	@r0,	r1	
    165a:	00 02       	bra	#4		;r2 As==10
    165c:	91 00 10 ce 	cmpa	#0x0ce10,r1	
    1660:	06 00       	mova	@r0,	r6	
    1662:	00 01       	bra	@r1		
    1664:	cc 76 00 00 	subc.b	r6,	0(r12)	;0x0000(r12)
    1668:	00 3f       	jmp	$-510    	;abs 0x146a
    166a:	11 00       	mova	#0x00000,r1	
    166c:	00 10       	rrc	r0		
    166e:	5f 07       	rrum	#2,	r15	
    1670:	00 00       	bra	@r0		
    1672:	01 cd       	bic	r13,	r1	
    1674:	7c 00 00 00 	mova	r0,	0(r12)	;0x0000(r12)
    1678:	7c 11       	rra.b	@r12+		
    167a:	00 00       	bra	@r0		
    167c:	10 4b 07 00 	br	7(r11)		;0x0007(r11)
    1680:	00 01       	bra	@r1		
    1682:	ce 2f       	jc	$-98     	;abs 0x1620
    1684:	00 00       	bra	@r0		
    1686:	00 cb       	bic	r11,	r0	
    1688:	11 00       	mova	#0x00000,r1	
    168a:	00 10       	rrc	r0		
    168c:	20 07 00 00 	bra	&0x70000	
    1690:	01 cf       	bic	r15,	r1	
    1692:	21 00 00 00 	mova	&0x00000,r1	
    1696:	de 11       	.word	0x11de;	????	
    1698:	00 00       	bra	@r0		
    169a:	11 44 07 00 	mov	7(r4),	r1	;0x0007(r4)
    169e:	00 01       	bra	@r1		
    16a0:	d0 a8 03 00 	dadd.b	3(r8),	0x0200	;0x0003(r8), PC rel. 0x018a6
    16a4:	00 02 
    16a6:	91 02 20 59 	cmpa	#0x25920,r1	
    16aa:	07 00       	mova	@r0,	r7	
    16ac:	00 01       	bra	@r1		
    16ae:	a0 01 c2 47 	adda	#0x147c2,r0	
    16b2:	20 c9       	bic	@r9,	r0	
    16b4:	07 00       	mova	@r0,	r7	
    16b6:	00 01       	bra	@r1		
    16b8:	71 01 ee 46 	mova	r1,	18158(r1);0x46ee(r1)
    16bc:	20 1a       	.word	0x1a20;	????	
    16be:	07 00       	mova	@r0,	r7	
    16c0:	00 01       	bra	@r1		
    16c2:	5f 01       	rram	#1,	r15	
    16c4:	aa 46 21 b8 	mov	@r6,	-18399(r10);0xb821(r10)
    16c8:	45 e4       	xor.b	r4,	r5	
    16ca:	45 91       	cmp.b	r1,	r5	
    16cc:	03 00       	.word	0x0003;	????	Illegal as address instr
    16ce:	00 22       	jnz	$-1022   	;abs 0x12d0
    16d0:	76 61       	addc.b	@r1+,	r6	
    16d2:	6c 00 01 0d 	mova	r0,	&0xc0d01
    16d6:	01 2f       	jc	$-508    	;abs 0x14da
    16d8:	00 00       	bra	@r0		
    16da:	00 3b       	jl	$-510    	;abs 0x14dc
    16dc:	12 00       	mova	#0x00000,r2	
    16de:	00 00       	bra	@r0		
    16e0:	15 28       	jnc	$+44     	;abs 0x170c
    16e2:	47 98       	cmp.b	r8,	r7	
    16e4:	47 23       	jnz	$-368    	;abs 0x1574
    16e6:	ac 07 00 00 	adda	#0x70000,r12	
    16ea:	01 83       	sub	#0,	r1	;r3 As==00
    16ec:	01 2f       	jc	$-508    	;abs 0x14f0
    16ee:	00 00       	bra	@r0		
    16f0:	00 48       	br	r8		
    16f2:	12 00       	mova	#0x00000,r2	
    16f4:	00 00       	bra	@r0		
    16f6:	00 24       	jz	$+2      	;abs 0x16f8
    16f8:	7c 00 00 00 	mova	r0,	0(r12)	;0x0000(r12)
    16fc:	1c 28       	jnc	$+58     	;abs 0x1736
    16fe:	00 00       	bra	@r0		
    1700:	00 0b       	bra	@r11		
	...

Disassembly of section .debug_abbrev:

00000000 <.debug_abbrev>:
   0:	01 11       	rra	r1		
   2:	01 25       	jz	$+516    	;abs 0x206
   4:	0e 13       	reti			;return from interupt
   6:	0b 03       	mova	#2,	r11	;r3 As==10
   8:	0e 1b 0e 11 	.rpt	#14
				rrax	r14		
   c:	01 52       	add	r2,	r1	
   e:	01 55       	add	r5,	r1	
  10:	06 10       	rrc	r6		
  12:	06 00       	mova	@r0,	r6	
  14:	00 02       	bra	#4		;r2 As==10
  16:	24 00 0b 0b 	mova	&0x00b0b,r4	
  1a:	3e 0b 03 0e 	mova	3587(r11),r14	;0x0e03(r11)
  1e:	00 00       	bra	@r0		
  20:	03 24       	jz	$+8      	;abs 0x28
  22:	00 0b       	bra	@r11		
  24:	0b 3e       	jmp	$-1000   	;abs 0xfc3c
  26:	0b 03       	mova	#2,	r11	;r3 As==10
  28:	08 00       	mova	@r0,	r8	
  2a:	00 04       	bra	@r4		
  2c:	04 01       	mova	@r1,	r4	
  2e:	0b 0b       	mova	@r11,	r11	
  30:	3a 0b 3b 0b 	mova	2875(r11),r10	;0x0b3b(r11)
  34:	01 13       	reti			;return from interupt
  36:	00 00       	bra	@r0		
  38:	05 28       	jnc	$+12     	;abs 0x44
  3a:	00 03       	bra	#2		;r3 As==10
  3c:	0e 1c       	.word	0x1c0e;	????	
  3e:	0d 00       	mova	@r0,	r13	
  40:	00 06       	bra	@r6		
  42:	16 00       	mova	#0x00000,r6	
  44:	03 0e       	.word	0x0e03;	????	Illegal as address instr
  46:	3a 0b 3b 0b 	mova	2875(r11),r10	;0x0b3b(r11)
  4a:	49 13       	calla	r9		
  4c:	00 00       	bra	@r0		
  4e:	07 13       	reti			;return from interupt
  50:	01 0b       	mova	@r11,	r1	
  52:	0b 3a       	jl	$-1000   	;abs 0xfc6a
  54:	0b 3b       	jl	$-488    	;abs 0xfe6c
  56:	0b 01       	mova	@r1,	r11	
  58:	13 00       	.word	0x0013;	????	Illegal as address instr
  5a:	00 08       	bra	@r8		
  5c:	0d 00       	mova	@r0,	r13	
  5e:	03 0e       	.word	0x0e03;	????	Illegal as address instr
  60:	3a 0b 3b 0b 	mova	2875(r11),r10	;0x0b3b(r11)
  64:	49 13       	calla	r9		
  66:	38 0a 00 00 	mova	0(r10),	r8	;0x0000(r10)
  6a:	09 01       	mova	@r1,	r9	
  6c:	01 49       	mov	r9,	r1	
  6e:	13 01       	.word	0x0113;	????	Illegal as address instr
  70:	13 00       	.word	0x0013;	????	Illegal as address instr
  72:	00 0a       	bra	@r10		
  74:	21 00 49 13 	mova	&0x01349,r1	
  78:	2f 0b 00 00 	mova	&0xb0000,r15	
  7c:	0b 2e       	jc	$-1000   	;abs 0xfc94
  7e:	00 3f       	jmp	$-510    	;abs 0xfe80
  80:	0c 03       	mova	#2,	r12	;r3 As==10
  82:	0e 3a       	jl	$-994    	;abs 0xfca0
  84:	0b 3b       	jl	$-488    	;abs 0xfe9c
  86:	0b 27       	jz	$-488    	;abs 0xfe9e
  88:	0c 20       	jnz	$+26     	;abs 0xa2
  8a:	0b 00       	mova	@r0,	r11	
  8c:	00 0c       	bra	@r12		
  8e:	2e 01 3f 0c 	mova	&0x10c3f,r14	
  92:	03 0e       	.word	0x0e03;	????	Illegal as address instr
  94:	3a 0b 3b 0b 	mova	2875(r11),r10	;0x0b3b(r11)
  98:	27 0c 49 13 	mova	&0xc1349,r7	
  9c:	20 0b 01 13 	bra	&0xb1301	
  a0:	00 00       	bra	@r0		
  a2:	0d 05       	mova	@r5,	r13	
  a4:	00 03       	bra	#2		;r3 As==10
  a6:	0e 3a       	jl	$-994    	;abs 0xfcc4
  a8:	0b 3b       	jl	$-488    	;abs 0xfec0
  aa:	0b 49       	mov	r9,	r11	
  ac:	13 00       	.word	0x0013;	????	Illegal as address instr
  ae:	00 0e       	bra	@r14		
  b0:	34 00 03 0e 	mova	0x0e03,	r4	;PC rel. 0x00eb5
  b4:	3a 0b 3b 0b 	mova	2875(r11),r10	;0x0b3b(r11)
  b8:	49 13       	calla	r9		
  ba:	00 00       	bra	@r0		
  bc:	0f 34       	jge	$+32     	;abs 0xdc
  be:	00 03       	bra	#2		;r3 As==10
  c0:	08 3a       	jl	$-1006   	;abs 0xfcd2
  c2:	0b 3b       	jl	$-488    	;abs 0xfeda
  c4:	0b 49       	mov	r9,	r11	
  c6:	13 00       	.word	0x0013;	????	Illegal as address instr
  c8:	00 10       	rrc	r0		
  ca:	0f 00       	mova	@r0,	r15	
  cc:	0b 0b       	mova	@r11,	r11	
  ce:	49 13       	calla	r9		
  d0:	00 00       	bra	@r0		
  d2:	11 2e       	jc	$-988    	;abs 0xfcf6
  d4:	00 3f       	jmp	$-510    	;abs 0xfed6
  d6:	0c 03       	mova	#2,	r12	;r3 As==10
  d8:	0e 3a       	jl	$-994    	;abs 0xfcf6
  da:	0b 3b       	jl	$-488    	;abs 0xfef2
  dc:	0b 27       	jz	$-488    	;abs 0xfef4
  de:	0c 11       	rra	r12		
  e0:	01 12       	push	r1		
  e2:	01 40       	mov	r0,	r1	
  e4:	06 00       	mova	@r0,	r6	
  e6:	00 12       	push	r0		
  e8:	2e 01 3f 0c 	mova	&0x10c3f,r14	
  ec:	03 0e       	.word	0x0e03;	????	Illegal as address instr
  ee:	3a 0b 3b 0b 	mova	2875(r11),r10	;0x0b3b(r11)
  f2:	27 0c 49 13 	mova	&0xc1349,r7	
  f6:	11 01       	mova	@r1+,	r1	
  f8:	12 01       	mova	@r1+,	r2	
  fa:	40 06       	rlam.a	#2,	r0	
  fc:	01 13       	reti			;return from interupt
  fe:	00 00       	bra	@r0		
 100:	13 05       	.word	0x0513;	????	Illegal as address instr
 102:	00 03       	bra	#2		;r3 As==10
 104:	0e 3a       	jl	$-994    	;abs 0xfd22
 106:	0b 3b       	jl	$-488    	;abs 0xff1e
 108:	0b 49       	mov	r9,	r11	
 10a:	13 02       	.word	0x0213;	????	Illegal as address instr
 10c:	06 00       	mova	@r0,	r6	
 10e:	00 14       	pushm.a	#1,	r0	
 110:	34 00 03 08 	mova	0x0803,	r4	;PC rel. 0x00915
 114:	3a 0b 3b 0b 	mova	2875(r11),r10	;0x0b3b(r11)
 118:	49 13       	calla	r9		
 11a:	02 06       	mova	@r6,	r2	
 11c:	00 00       	bra	@r0		
 11e:	15 2e       	jc	$-980    	;abs 0xfd4a
 120:	01 31       	jn	$+516    	;abs 0x324
 122:	13 11       	rra	#1		;r3 As==01
 124:	01 12       	push	r1		
 126:	01 40       	mov	r0,	r1	
 128:	06 01       	mova	@r1,	r6	
 12a:	13 00       	.word	0x0013;	????	Illegal as address instr
 12c:	00 16       	popm.a	#1,	r0	
 12e:	05 00       	mova	@r0,	r5	
 130:	31 13       	reti			;return from interupt
 132:	02 06       	mova	@r6,	r2	
 134:	00 00       	bra	@r0		
 136:	17 34       	jge	$+48     	;abs 0x166
 138:	00 31       	jn	$+514    	;abs 0x33a
 13a:	13 02       	.word	0x0213;	????	Illegal as address instr
 13c:	06 00       	mova	@r0,	r6	
 13e:	00 18       	.word	0x1800;	????	
 140:	2e 00 31 13 	mova	&0x01331,r14	
 144:	11 01       	mova	@r1+,	r1	
 146:	12 01       	mova	@r1+,	r2	
 148:	40 0a       	rlam.a	#3,	r0	
 14a:	00 00       	bra	@r0		
 14c:	19 2e       	jc	$-972    	;abs 0xfd80
 14e:	01 3f       	jmp	$-508    	;abs 0xff52
 150:	0c 03       	mova	#2,	r12	;r3 As==10
 152:	0e 3a       	jl	$-994    	;abs 0xfd70
 154:	0b 3b       	jl	$-488    	;abs 0xff6c
 156:	05 27       	jz	$-500    	;abs 0xff62
 158:	0c 11       	rra	r12		
 15a:	01 12       	push	r1		
 15c:	01 40       	mov	r0,	r1	
 15e:	0a 01       	mova	@r1,	r10	
 160:	13 00       	.word	0x0013;	????	Illegal as address instr
 162:	00 1a       	.word	0x1a00;	????	
 164:	1d 00       	mova	#0x00000,r13	
 166:	31 13       	reti			;return from interupt
 168:	11 01       	mova	@r1+,	r1	
 16a:	12 01       	mova	@r1+,	r2	
 16c:	58 0b       	rrum	#3,	r8	
 16e:	59 05       	rram	#2,	r9	
 170:	00 00       	bra	@r0		
 172:	1b 34       	jge	$+56     	;abs 0x1aa
 174:	00 03       	bra	#2		;r3 As==10
 176:	0e 3a       	jl	$-994    	;abs 0xfd94
 178:	0b 3b       	jl	$-488    	;abs 0xff90
 17a:	0b 49       	mov	r9,	r11	
 17c:	13 02       	.word	0x0213;	????	Illegal as address instr
 17e:	06 00       	mova	@r0,	r6	
 180:	00 1c       	.word	0x1c00;	????	
 182:	34 00 03 0e 	mova	0x0e03,	r4	;PC rel. 0x00f87
 186:	3a 0b 3b 0b 	mova	2875(r11),r10	;0x0b3b(r11)
 18a:	49 13       	calla	r9		
 18c:	02 0a       	mova	@r10,	r2	
 18e:	00 00       	bra	@r0		
 190:	1d 1d       	.word	0x1d1d;	????	
 192:	01 31       	jn	$+516    	;abs 0x396
 194:	13 11       	rra	#1		;r3 As==01
 196:	01 12       	push	r1		
 198:	01 58       	add	r8,	r1	
 19a:	0b 59       	add	r9,	r11	
 19c:	0b 01       	mova	@r1,	r11	
 19e:	13 00       	.word	0x0013;	????	Illegal as address instr
 1a0:	00 1e       	.word	0x1e00;	????	
 1a2:	0b 01       	mova	@r1,	r11	
 1a4:	11 01       	mova	@r1+,	r1	
 1a6:	12 01       	mova	@r1+,	r2	
 1a8:	00 00       	bra	@r0		
 1aa:	1f 1d       	.word	0x1d1f;	????	
 1ac:	01 31       	jn	$+516    	;abs 0x3b0
 1ae:	13 11       	rra	#1		;r3 As==01
 1b0:	01 12       	push	r1		
 1b2:	01 58       	add	r8,	r1	
 1b4:	0b 59       	add	r9,	r11	
 1b6:	0b 00       	mova	@r0,	r11	
 1b8:	00 20       	jnz	$+2      	;abs 0x1ba
 1ba:	2e 00 3f 0c 	mova	&0x00c3f,r14	
 1be:	03 0e       	.word	0x0e03;	????	Illegal as address instr
 1c0:	3a 0b 3b 05 	mova	1339(r11),r10	;0x053b(r11)
 1c4:	27 0c 11 01 	mova	&0xc0111,r7	
 1c8:	12 01       	mova	@r1+,	r2	
 1ca:	40 0a       	rlam.a	#3,	r0	
 1cc:	00 00       	bra	@r0		
 1ce:	21 34       	jge	$+68     	;abs 0x212
 1d0:	00 03       	bra	#2		;r3 As==10
 1d2:	0e 3a       	jl	$-994    	;abs 0xfdf0
 1d4:	0b 3b       	jl	$-488    	;abs 0xffec
 1d6:	05 87       	sub	r7,	r5	
 1d8:	40 0e       	rlam.a	#4,	r0	
 1da:	49 13       	calla	r9		
 1dc:	3f 0c 3c 0c 	mova	3132(r12),r15	;0x0c3c(r12)
 1e0:	00 00       	bra	@r0		
 1e2:	22 35       	jge	$+582    	;abs 0x428
 1e4:	00 49       	br	r9		
 1e6:	13 00       	.word	0x0013;	????	Illegal as address instr
 1e8:	00 23       	jnz	$-510    	;abs 0xffea
 1ea:	34 00 03 0e 	mova	0x0e03,	r4	;PC rel. 0x00fef
 1ee:	3a 0b 3b 0b 	mova	2875(r11),r10	;0x0b3b(r11)
 1f2:	49 13       	calla	r9		
 1f4:	3f 0c 3c 0c 	mova	3132(r12),r15	;0x0c3c(r12)
 1f8:	00 00       	bra	@r0		
 1fa:	24 34       	jge	$+74     	;abs 0x244
 1fc:	00 03       	bra	#2		;r3 As==10
 1fe:	0e 3a       	jl	$-994    	;abs 0xfe1c
 200:	0b 3b       	jl	$-488    	;abs 0x18
 202:	0b 49       	mov	r9,	r11	
 204:	13 3f       	jmp	$-472    	;abs 0x2c
 206:	0c 02       	mova	#4,	r12	;r2 As==10
 208:	0a 00       	mova	@r0,	r10	
 20a:	00 00       	bra	@r0		
 20c:	01 11       	rra	r1		
 20e:	01 25       	jz	$+516    	;abs 0x412
 210:	0e 13       	reti			;return from interupt
 212:	0b 03       	mova	#2,	r11	;r3 As==10
 214:	0e 1b 0e 11 	.rpt	#14
				rrax	r14		
 218:	01 12       	push	r1		
 21a:	01 10       	rrc	r1		
 21c:	06 00       	mova	@r0,	r6	
 21e:	00 02       	bra	#4		;r2 As==10
 220:	24 00 0b 0b 	mova	&0x00b0b,r4	
 224:	3e 0b 03 0e 	mova	3587(r11),r14	;0x0e03(r11)
 228:	00 00       	bra	@r0		
 22a:	03 24       	jz	$+8      	;abs 0x232
 22c:	00 0b       	bra	@r11		
 22e:	0b 3e       	jmp	$-1000   	;abs 0xfe46
 230:	0b 03       	mova	#2,	r11	;r3 As==10
 232:	08 00       	mova	@r0,	r8	
 234:	00 04       	bra	@r4		
 236:	04 01       	mova	@r1,	r4	
 238:	0b 0b       	mova	@r11,	r11	
 23a:	3a 0b 3b 0b 	mova	2875(r11),r10	;0x0b3b(r11)
 23e:	01 13       	reti			;return from interupt
 240:	00 00       	bra	@r0		
 242:	05 28       	jnc	$+12     	;abs 0x24e
 244:	00 03       	bra	#2		;r3 As==10
 246:	0e 1c       	.word	0x1c0e;	????	
 248:	0d 00       	mova	@r0,	r13	
 24a:	00 06       	bra	@r6		
 24c:	2e 00 3f 0c 	mova	&0x00c3f,r14	
 250:	03 0e       	.word	0x0e03;	????	Illegal as address instr
 252:	3a 0b 3b 05 	mova	1339(r11),r10	;0x053b(r11)
 256:	27 0c 20 0b 	mova	&0xc0b20,r7	
 25a:	00 00       	bra	@r0		
 25c:	07 2e       	jc	$-1008   	;abs 0xfe6c
 25e:	01 3f       	jmp	$-508    	;abs 0x62
 260:	0c 03       	mova	#2,	r12	;r3 As==10
 262:	0e 3a       	jl	$-994    	;abs 0xfe80
 264:	0b 3b       	jl	$-488    	;abs 0x7c
 266:	05 27       	jz	$-500    	;abs 0x72
 268:	0c 20       	jnz	$+26     	;abs 0x282
 26a:	0b 01       	mova	@r1,	r11	
 26c:	13 00       	.word	0x0013;	????	Illegal as address instr
 26e:	00 08       	bra	@r8		
 270:	05 00       	mova	@r0,	r5	
 272:	03 08       	.word	0x0803;	????	Illegal as address instr
 274:	3a 0b 3b 05 	mova	1339(r11),r10	;0x053b(r11)
 278:	49 13       	calla	r9		
 27a:	00 00       	bra	@r0		
 27c:	09 2e       	jc	$-1004   	;abs 0xfe90
 27e:	01 3f       	jmp	$-508    	;abs 0x82
 280:	0c 03       	mova	#2,	r12	;r3 As==10
 282:	0e 3a       	jl	$-994    	;abs 0xfea0
 284:	0b 3b       	jl	$-488    	;abs 0x9c
 286:	0b 27       	jz	$-488    	;abs 0x9e
 288:	0c 11       	rra	r12		
 28a:	01 12       	push	r1		
 28c:	01 40       	mov	r0,	r1	
 28e:	0a 01       	mova	@r1,	r10	
 290:	13 00       	.word	0x0013;	????	Illegal as address instr
 292:	00 0a       	bra	@r10		
 294:	05 00       	mova	@r0,	r5	
 296:	03 0e       	.word	0x0e03;	????	Illegal as address instr
 298:	3a 0b 3b 0b 	mova	2875(r11),r10	;0x0b3b(r11)
 29c:	49 13       	calla	r9		
 29e:	02 0a       	mova	@r10,	r2	
 2a0:	00 00       	bra	@r0		
 2a2:	0b 2e       	jc	$-1000   	;abs 0xfeba
 2a4:	01 3f       	jmp	$-508    	;abs 0xa8
 2a6:	0c 03       	mova	#2,	r12	;r3 As==10
 2a8:	0e 3a       	jl	$-994    	;abs 0xfec6
 2aa:	0b 3b       	jl	$-488    	;abs 0xc2
 2ac:	0b 27       	jz	$-488    	;abs 0xc4
 2ae:	0c 11       	rra	r12		
 2b0:	01 12       	push	r1		
 2b2:	01 40       	mov	r0,	r1	
 2b4:	06 01       	mova	@r1,	r6	
 2b6:	13 00       	.word	0x0013;	????	Illegal as address instr
 2b8:	00 0c       	bra	@r12		
 2ba:	05 00       	mova	@r0,	r5	
 2bc:	03 08       	.word	0x0803;	????	Illegal as address instr
 2be:	3a 0b 3b 0b 	mova	2875(r11),r10	;0x0b3b(r11)
 2c2:	49 13       	calla	r9		
 2c4:	02 0a       	mova	@r10,	r2	
 2c6:	00 00       	bra	@r0		
 2c8:	0d 34       	jge	$+28     	;abs 0x2e4
 2ca:	00 03       	bra	#2		;r3 As==10
 2cc:	0e 3a       	jl	$-994    	;abs 0xfeea
 2ce:	0b 3b       	jl	$-488    	;abs 0xe6
 2d0:	0b 49       	mov	r9,	r11	
 2d2:	13 02       	.word	0x0213;	????	Illegal as address instr
 2d4:	06 00       	mova	@r0,	r6	
 2d6:	00 0e       	bra	@r14		
 2d8:	34 00 03 08 	mova	0x0803,	r4	;PC rel. 0x00add
 2dc:	3a 0b 3b 0b 	mova	2875(r11),r10	;0x0b3b(r11)
 2e0:	49 13       	calla	r9		
 2e2:	02 06       	mova	@r6,	r2	
 2e4:	00 00       	bra	@r0		
 2e6:	0f 2e       	jc	$-992    	;abs 0xff06
 2e8:	01 3f       	jmp	$-508    	;abs 0xec
 2ea:	0c 03       	mova	#2,	r12	;r3 As==10
 2ec:	0e 3a       	jl	$-994    	;abs 0xff0a
 2ee:	0b 3b       	jl	$-488    	;abs 0x106
 2f0:	05 27       	jz	$-500    	;abs 0xfc
 2f2:	0c 11       	rra	r12		
 2f4:	01 12       	push	r1		
 2f6:	01 40       	mov	r0,	r1	
 2f8:	06 01       	mova	@r1,	r6	
 2fa:	13 00       	.word	0x0013;	????	Illegal as address instr
 2fc:	00 10       	rrc	r0		
 2fe:	05 00       	mova	@r0,	r5	
 300:	03 0e       	.word	0x0e03;	????	Illegal as address instr
 302:	3a 0b 3b 05 	mova	1339(r11),r10	;0x053b(r11)
 306:	49 13       	calla	r9		
 308:	02 06       	mova	@r6,	r2	
 30a:	00 00       	bra	@r0		
 30c:	11 05       	mova	@r5+,	r1	
 30e:	00 03       	bra	#2		;r3 As==10
 310:	08 3a       	jl	$-1006   	;abs 0xff22
 312:	0b 3b       	jl	$-488    	;abs 0x12a
 314:	05 49       	mov	r9,	r5	
 316:	13 02       	.word	0x0213;	????	Illegal as address instr
 318:	06 00       	mova	@r0,	r6	
 31a:	00 12       	push	r0		
 31c:	05 00       	mova	@r0,	r5	
 31e:	03 0e       	.word	0x0e03;	????	Illegal as address instr
 320:	3a 0b 3b 05 	mova	1339(r11),r10	;0x053b(r11)
 324:	49 13       	calla	r9		
 326:	02 0a       	mova	@r10,	r2	
 328:	00 00       	bra	@r0		
 32a:	13 34       	jge	$+40     	;abs 0x352
 32c:	00 03       	bra	#2		;r3 As==10
 32e:	0e 3a       	jl	$-994    	;abs 0xff4c
 330:	0b 3b       	jl	$-488    	;abs 0x148
 332:	05 49       	mov	r9,	r5	
 334:	13 02       	.word	0x0213;	????	Illegal as address instr
 336:	06 00       	mova	@r0,	r6	
 338:	00 14       	pushm.a	#1,	r0	
 33a:	34 00 03 08 	mova	0x0803,	r4	;PC rel. 0x00b3f
 33e:	3a 0b 3b 05 	mova	1339(r11),r10	;0x053b(r11)
 342:	49 13       	calla	r9		
 344:	02 06       	mova	@r6,	r2	
 346:	00 00       	bra	@r0		
 348:	15 05       	mova	@r5+,	r5	
 34a:	00 03       	bra	#2		;r3 As==10
 34c:	0e 3a       	jl	$-994    	;abs 0xff6a
 34e:	0b 3b       	jl	$-488    	;abs 0x166
 350:	0b 49       	mov	r9,	r11	
 352:	13 02       	.word	0x0213;	????	Illegal as address instr
 354:	06 00       	mova	@r0,	r6	
 356:	00 16       	popm.a	#1,	r0	
 358:	0b 01       	mova	@r1,	r11	
 35a:	11 01       	mova	@r1+,	r1	
 35c:	12 01       	mova	@r1+,	r2	
 35e:	01 13       	reti			;return from interupt
 360:	00 00       	bra	@r0		
 362:	17 0b       	mova	@r11+,	r7	
 364:	01 11       	rra	r1		
 366:	01 12       	push	r1		
 368:	01 00       	mova	@r0,	r1	
 36a:	00 18       	.word	0x1800;	????	
 36c:	05 00       	mova	@r0,	r5	
 36e:	03 08       	.word	0x0803;	????	Illegal as address instr
 370:	3a 0b 3b 05 	mova	1339(r11),r10	;0x053b(r11)
 374:	49 13       	calla	r9		
 376:	02 0a       	mova	@r10,	r2	
 378:	00 00       	bra	@r0		
 37a:	19 0f       	mova	@r15+,	r9	
 37c:	00 0b       	bra	@r11		
 37e:	0b 49       	mov	r9,	r11	
 380:	13 00       	.word	0x0013;	????	Illegal as address instr
 382:	00 1a       	.word	0x1a00;	????	
 384:	2e 00 31 13 	mova	&0x01331,r14	
 388:	11 01       	mova	@r1+,	r1	
 38a:	12 01       	mova	@r1+,	r2	
 38c:	40 0a       	rlam.a	#3,	r0	
 38e:	00 00       	bra	@r0		
 390:	1b 2e       	jc	$-968    	;abs 0xffc8
 392:	01 31       	jn	$+516    	;abs 0x596
 394:	13 11       	rra	#1		;r3 As==01
 396:	01 12       	push	r1		
 398:	01 40       	mov	r0,	r1	
 39a:	0a 01       	mova	@r1,	r10	
 39c:	13 00       	.word	0x0013;	????	Illegal as address instr
 39e:	00 1c       	.word	0x1c00;	????	
 3a0:	05 00       	mova	@r0,	r5	
 3a2:	31 13       	reti			;return from interupt
 3a4:	02 06       	mova	@r6,	r2	
 3a6:	00 00       	bra	@r0		
 3a8:	1d 34       	jge	$+60     	;abs 0x3e4
 3aa:	00 03       	bra	#2		;r3 As==10
 3ac:	08 3a       	jl	$-1006   	;abs 0xffbe
 3ae:	0b 3b       	jl	$-488    	;abs 0x1c6
 3b0:	05 49       	mov	r9,	r5	
 3b2:	13 00       	.word	0x0013;	????	Illegal as address instr
 3b4:	00 1e       	.word	0x1e00;	????	
 3b6:	2e 01 3f 0c 	mova	&0x10c3f,r14	
 3ba:	03 0e       	.word	0x0e03;	????	Illegal as address instr
 3bc:	3a 0b 3b 05 	mova	1339(r11),r10	;0x053b(r11)
 3c0:	27 0c 11 01 	mova	&0xc0111,r7	
 3c4:	12 01       	mova	@r1+,	r2	
 3c6:	40 0a       	rlam.a	#3,	r0	
 3c8:	01 13       	reti			;return from interupt
 3ca:	00 00       	bra	@r0		
 3cc:	1f 1d       	.word	0x1d1f;	????	
 3ce:	00 31       	jn	$+514    	;abs 0x5d0
 3d0:	13 52       	.word	0x5213;	????	Illegal as 2-op instr
 3d2:	01 55       	add	r5,	r1	
 3d4:	06 58       	add	r8,	r6	
 3d6:	0b 59       	add	r9,	r11	
 3d8:	05 00       	mova	@r0,	r5	
 3da:	00 20       	jnz	$+2      	;abs 0x3dc
 3dc:	1d 00       	mova	#0x00000,r13	
 3de:	31 13       	reti			;return from interupt
 3e0:	11 01       	mova	@r1+,	r1	
 3e2:	12 01       	mova	@r1+,	r2	
 3e4:	58 0b       	rrum	#3,	r8	
 3e6:	59 05       	rram	#2,	r9	
 3e8:	00 00       	bra	@r0		
 3ea:	21 2e       	jc	$-956    	;abs 0x2e
 3ec:	01 3f       	jmp	$-508    	;abs 0x1f0
 3ee:	0c 03       	mova	#2,	r12	;r3 As==10
 3f0:	0e 3a       	jl	$-994    	;abs 0xe
 3f2:	0b 3b       	jl	$-488    	;abs 0x20a
 3f4:	0b 27       	jz	$-488    	;abs 0x20c
 3f6:	0c 49       	mov	r9,	r12	
 3f8:	13 11       	rra	#1		;r3 As==01
 3fa:	01 12       	push	r1		
 3fc:	01 40       	mov	r0,	r1	
 3fe:	0a 01       	mova	@r1,	r10	
 400:	13 00       	.word	0x0013;	????	Illegal as address instr
 402:	00 22       	jnz	$-1022   	;abs 0x4
 404:	05 00       	mova	@r0,	r5	
 406:	03 08       	.word	0x0803;	????	Illegal as address instr
 408:	3a 0b 3b 0b 	mova	2875(r11),r10	;0x0b3b(r11)
 40c:	49 13       	calla	r9		
 40e:	02 06       	mova	@r6,	r2	
 410:	00 00       	bra	@r0		
 412:	23 0b       	.word	0x0b23;	????	Illegal as address instr
 414:	01 55       	add	r5,	r1	
 416:	06 00       	mova	@r0,	r6	
 418:	00 24       	jz	$+2      	;abs 0x41a
 41a:	34 00 03 0e 	mova	0x0e03,	r4	;PC rel. 0x0121f
 41e:	3a 0b 3b 05 	mova	1339(r11),r10	;0x053b(r11)
 422:	49 13       	calla	r9		
 424:	00 00       	bra	@r0		
 426:	25 1d       	.word	0x1d25;	????	
 428:	01 31       	jn	$+516    	;abs 0x62c
 42a:	13 52       	.word	0x5213;	????	Illegal as 2-op instr
 42c:	01 55       	add	r5,	r1	
 42e:	06 58       	add	r8,	r6	
 430:	0b 59       	add	r9,	r11	
 432:	05 00       	mova	@r0,	r5	
 434:	00 26       	jz	$-1022   	;abs 0x36
 436:	34 00 03 0e 	mova	0x0e03,	r4	;PC rel. 0x0123b
 43a:	3a 0b 3b 05 	mova	1339(r11),r10	;0x053b(r11)
 43e:	87 40 0e 49 	mov	r0,	18702(r7);0x490e(r7)
 442:	13 3f       	jmp	$-472    	;abs 0x26a
 444:	0c 3c       	jmp	$+26     	;abs 0x45e
 446:	0c 00       	mova	@r0,	r12	
 448:	00 27       	jz	$-510    	;abs 0x24a
 44a:	35 00 49 13 	mova	0x1349,	r5	;PC rel. 0x01795
 44e:	00 00       	bra	@r0		
 450:	28 34       	jge	$+82     	;abs 0x4a2
 452:	00 03       	bra	#2		;r3 As==10
 454:	0e 3a       	jl	$-994    	;abs 0x72
 456:	0b 3b       	jl	$-488    	;abs 0x26e
 458:	0b 49       	mov	r9,	r11	
 45a:	13 3f       	jmp	$-472    	;abs 0x282
 45c:	0c 3c       	jmp	$+26     	;abs 0x476
 45e:	0c 00       	mova	@r0,	r12	
 460:	00 29       	jnc	$+514    	;abs 0x662
 462:	01 01       	mova	@r1,	r1	
 464:	49 13       	calla	r9		
 466:	01 13       	reti			;return from interupt
 468:	00 00       	bra	@r0		
 46a:	2a 21       	jnz	$+598    	;abs 0x6c0
 46c:	00 49       	br	r9		
 46e:	13 2f       	jc	$-472    	;abs 0x296
 470:	05 00       	mova	@r0,	r5	
 472:	00 2b       	jnc	$-510    	;abs 0x274
 474:	26 00 49 13 	mova	&0x01349,r6	
 478:	00 00       	bra	@r0		
 47a:	2c 34       	jge	$+90     	;abs 0x4d4
 47c:	00 03       	bra	#2		;r3 As==10
 47e:	0e 3a       	jl	$-994    	;abs 0x9c
 480:	0b 3b       	jl	$-488    	;abs 0x298
 482:	0b 49       	mov	r9,	r11	
 484:	13 3f       	jmp	$-472    	;abs 0x2ac
 486:	0c 02       	mova	#4,	r12	;r2 As==10
 488:	0a 00       	mova	@r0,	r10	
 48a:	00 00       	bra	@r0		
 48c:	01 11       	rra	r1		
 48e:	01 25       	jz	$+516    	;abs 0x692
 490:	0e 13       	reti			;return from interupt
 492:	0b 03       	mova	#2,	r11	;r3 As==10
 494:	0e 1b 0e 11 	.rpt	#14
				rrax	r14		
 498:	01 12       	push	r1		
 49a:	01 10       	rrc	r1		
 49c:	06 00       	mova	@r0,	r6	
 49e:	00 02       	bra	#4		;r2 As==10
 4a0:	04 01       	mova	@r1,	r4	
 4a2:	0b 0b       	mova	@r11,	r11	
 4a4:	3a 0b 3b 0b 	mova	2875(r11),r10	;0x0b3b(r11)
 4a8:	01 13       	reti			;return from interupt
 4aa:	00 00       	bra	@r0		
 4ac:	03 28       	jnc	$+8      	;abs 0x4b4
 4ae:	00 03       	bra	#2		;r3 As==10
 4b0:	0e 1c       	.word	0x1c0e;	????	
 4b2:	0d 00       	mova	@r0,	r13	
 4b4:	00 04       	bra	@r4		
 4b6:	16 00       	mova	#0x00000,r6	
 4b8:	03 0e       	.word	0x0e03;	????	Illegal as address instr
 4ba:	3a 0b 3b 0b 	mova	2875(r11),r10	;0x0b3b(r11)
 4be:	49 13       	calla	r9		
 4c0:	00 00       	bra	@r0		
 4c2:	05 2e       	jc	$-1012   	;abs 0xce
 4c4:	01 3f       	jmp	$-508    	;abs 0x2c8
 4c6:	0c 03       	mova	#2,	r12	;r3 As==10
 4c8:	0e 3a       	jl	$-994    	;abs 0xe6
 4ca:	0b 3b       	jl	$-488    	;abs 0x2e2
 4cc:	0b 27       	jz	$-488    	;abs 0x2e4
 4ce:	0c 11       	rra	r12		
 4d0:	01 12       	push	r1		
 4d2:	01 40       	mov	r0,	r1	
 4d4:	0a 01       	mova	@r1,	r10	
 4d6:	13 00       	.word	0x0013;	????	Illegal as address instr
 4d8:	00 06       	bra	@r6		
 4da:	34 00 03 0e 	mova	0x0e03,	r4	;PC rel. 0x012df
 4de:	3a 0b 3b 0b 	mova	2875(r11),r10	;0x0b3b(r11)
 4e2:	49 13       	calla	r9		
 4e4:	1c 0b       	mova	@r11+,	r12	
 4e6:	00 00       	bra	@r0		
 4e8:	07 24       	jz	$+16     	;abs 0x4f8
 4ea:	00 0b       	bra	@r11		
 4ec:	0b 3e       	jmp	$-1000   	;abs 0x104
 4ee:	0b 03       	mova	#2,	r11	;r3 As==10
 4f0:	0e 00       	mova	@r0,	r14	
 4f2:	00 08       	bra	@r8		
 4f4:	05 00       	mova	@r0,	r5	
 4f6:	03 0e       	.word	0x0e03;	????	Illegal as address instr
 4f8:	3a 0b 3b 0b 	mova	2875(r11),r10	;0x0b3b(r11)
 4fc:	49 13       	calla	r9		
 4fe:	02 0a       	mova	@r10,	r2	
 500:	00 00       	bra	@r0		
 502:	09 34       	jge	$+20     	;abs 0x516
 504:	00 03       	bra	#2		;r3 As==10
 506:	08 3a       	jl	$-1006   	;abs 0x118
 508:	0b 3b       	jl	$-488    	;abs 0x320
 50a:	0b 49       	mov	r9,	r11	
 50c:	13 02       	.word	0x0213;	????	Illegal as address instr
 50e:	06 00       	mova	@r0,	r6	
 510:	00 0a       	bra	@r10		
 512:	24 00 0b 0b 	mova	&0x00b0b,r4	
 516:	3e 0b 03 08 	mova	2051(r11),r14	;0x0803(r11)
 51a:	00 00       	bra	@r0		
 51c:	0b 2e       	jc	$-1000   	;abs 0x134
 51e:	01 3f       	jmp	$-508    	;abs 0x322
 520:	0c 03       	mova	#2,	r12	;r3 As==10
 522:	0e 3a       	jl	$-994    	;abs 0x140
 524:	0b 3b       	jl	$-488    	;abs 0x33c
 526:	0b 27       	jz	$-488    	;abs 0x33e
 528:	0c 11       	rra	r12		
 52a:	01 12       	push	r1		
 52c:	01 40       	mov	r0,	r1	
 52e:	06 01       	mova	@r1,	r6	
 530:	13 00       	.word	0x0013;	????	Illegal as address instr
 532:	00 0c       	bra	@r12		
 534:	05 00       	mova	@r0,	r5	
 536:	03 0e       	.word	0x0e03;	????	Illegal as address instr
 538:	3a 0b 3b 0b 	mova	2875(r11),r10	;0x0b3b(r11)
 53c:	49 13       	calla	r9		
 53e:	02 06       	mova	@r6,	r2	
 540:	00 00       	bra	@r0		
 542:	0d 2e       	jc	$-996    	;abs 0x15e
 544:	01 3f       	jmp	$-508    	;abs 0x348
 546:	0c 03       	mova	#2,	r12	;r3 As==10
 548:	0e 3a       	jl	$-994    	;abs 0x166
 54a:	0b 3b       	jl	$-488    	;abs 0x362
 54c:	0b 27       	jz	$-488    	;abs 0x364
 54e:	0c 49       	mov	r9,	r12	
 550:	13 11       	rra	#1		;r3 As==01
 552:	01 12       	push	r1		
 554:	01 40       	mov	r0,	r1	
 556:	0a 01       	mova	@r1,	r10	
 558:	13 00       	.word	0x0013;	????	Illegal as address instr
 55a:	00 0e       	bra	@r14		
 55c:	34 00 03 0e 	mova	0x0e03,	r4	;PC rel. 0x01361
 560:	3a 0b 3b 05 	mova	1339(r11),r10	;0x053b(r11)
 564:	87 40 0e 49 	mov	r0,	18702(r7);0x490e(r7)
 568:	13 3f       	jmp	$-472    	;abs 0x390
 56a:	0c 3c       	jmp	$+26     	;abs 0x584
 56c:	0c 00       	mova	@r0,	r12	
 56e:	00 0f       	bra	@r15		
 570:	35 00 49 13 	mova	0x1349,	r5	;PC rel. 0x018bb
 574:	00 00       	bra	@r0		
 576:	10 01       	reta			
 578:	01 49       	mov	r9,	r1	
 57a:	13 01       	.word	0x0113;	????	Illegal as address instr
 57c:	13 00       	.word	0x0013;	????	Illegal as address instr
 57e:	00 11       	rra	r0		
 580:	21 00 49 13 	mova	&0x01349,r1	
 584:	2f 0b 00 00 	mova	&0xb0000,r15	
 588:	12 34       	jge	$+38     	;abs 0x5ae
 58a:	00 03       	bra	#2		;r3 As==10
 58c:	0e 3a       	jl	$-994    	;abs 0x1aa
 58e:	0b 3b       	jl	$-488    	;abs 0x3a6
 590:	0b 49       	mov	r9,	r11	
 592:	13 3f       	jmp	$-472    	;abs 0x3ba
 594:	0c 3c       	jmp	$+26     	;abs 0x5ae
 596:	0c 00       	mova	@r0,	r12	
 598:	00 13       	reti			
 59a:	34 00 03 0e 	mova	0x0e03,	r4	;PC rel. 0x0139f
 59e:	3a 0b 3b 0b 	mova	2875(r11),r10	;0x0b3b(r11)
 5a2:	49 13       	calla	r9		
 5a4:	3f 0c 02 0a 	mova	2562(r12),r15	;0x0a02(r12)
 5a8:	00 00       	bra	@r0		
 5aa:	00 01       	bra	@r1		
 5ac:	11 01       	mova	@r1+,	r1	
 5ae:	25 0e 13 0b 	mova	&0xe0b13,r5	
 5b2:	03 0e       	.word	0x0e03;	????	Illegal as address instr
 5b4:	1b 0e       	mova	@r14+,	r11	
 5b6:	11 01       	mova	@r1+,	r1	
 5b8:	12 01       	mova	@r1+,	r2	
 5ba:	10 06       	bra	@r6+		
 5bc:	00 00       	bra	@r0		
 5be:	02 24       	jz	$+6      	;abs 0x5c4
 5c0:	00 0b       	bra	@r11		
 5c2:	0b 3e       	jmp	$-1000   	;abs 0x1da
 5c4:	0b 03       	mova	#2,	r11	;r3 As==10
 5c6:	0e 00       	mova	@r0,	r14	
 5c8:	00 03       	bra	#2		;r3 As==10
 5ca:	16 00       	mova	#0x00000,r6	
 5cc:	03 0e       	.word	0x0e03;	????	Illegal as address instr
 5ce:	3a 0b 3b 0b 	mova	2875(r11),r10	;0x0b3b(r11)
 5d2:	49 13       	calla	r9		
 5d4:	00 00       	bra	@r0		
 5d6:	04 24       	jz	$+10     	;abs 0x5e0
 5d8:	00 0b       	bra	@r11		
 5da:	0b 3e       	jmp	$-1000   	;abs 0x1f2
 5dc:	0b 03       	mova	#2,	r11	;r3 As==10
 5de:	08 00       	mova	@r0,	r8	
 5e0:	00 05       	bra	@r5		
 5e2:	04 01       	mova	@r1,	r4	
 5e4:	0b 0b       	mova	@r11,	r11	
 5e6:	3a 0b 3b 0b 	mova	2875(r11),r10	;0x0b3b(r11)
 5ea:	01 13       	reti			;return from interupt
 5ec:	00 00       	bra	@r0		
 5ee:	06 28       	jnc	$+14     	;abs 0x5fc
 5f0:	00 03       	bra	#2		;r3 As==10
 5f2:	0e 1c       	.word	0x1c0e;	????	
 5f4:	0d 00       	mova	@r0,	r13	
 5f6:	00 07       	bra	@r7		
 5f8:	2e 00 3f 0c 	mova	&0x00c3f,r14	
 5fc:	03 0e       	.word	0x0e03;	????	Illegal as address instr
 5fe:	3a 0b 3b 0b 	mova	2875(r11),r10	;0x0b3b(r11)
 602:	27 0c 11 01 	mova	&0xc0111,r7	
 606:	12 01       	mova	@r1+,	r2	
 608:	40 0a       	rlam.a	#3,	r0	
 60a:	00 00       	bra	@r0		
 60c:	08 2e       	jc	$-1006   	;abs 0x21e
 60e:	01 3f       	jmp	$-508    	;abs 0x412
 610:	0c 03       	mova	#2,	r12	;r3 As==10
 612:	0e 3a       	jl	$-994    	;abs 0x230
 614:	0b 3b       	jl	$-488    	;abs 0x42c
 616:	0b 27       	jz	$-488    	;abs 0x42e
 618:	0c 11       	rra	r12		
 61a:	01 12       	push	r1		
 61c:	01 40       	mov	r0,	r1	
 61e:	06 01       	mova	@r1,	r6	
 620:	13 00       	.word	0x0013;	????	Illegal as address instr
 622:	00 09       	bra	@r9		
 624:	05 00       	mova	@r0,	r5	
 626:	03 08       	.word	0x0803;	????	Illegal as address instr
 628:	3a 0b 3b 0b 	mova	2875(r11),r10	;0x0b3b(r11)
 62c:	49 13       	calla	r9		
 62e:	02 06       	mova	@r6,	r2	
 630:	00 00       	bra	@r0		
 632:	0a 34       	jge	$+22     	;abs 0x648
 634:	00 03       	bra	#2		;r3 As==10
 636:	08 3a       	jl	$-1006   	;abs 0x248
 638:	0b 3b       	jl	$-488    	;abs 0x450
 63a:	0b 49       	mov	r9,	r11	
 63c:	13 02       	.word	0x0213;	????	Illegal as address instr
 63e:	06 00       	mova	@r0,	r6	
 640:	00 0b       	bra	@r11		
 642:	34 00 03 0e 	mova	0x0e03,	r4	;PC rel. 0x01447
 646:	3a 0b 3b 0b 	mova	2875(r11),r10	;0x0b3b(r11)
 64a:	49 13       	calla	r9		
 64c:	02 06       	mova	@r6,	r2	
 64e:	00 00       	bra	@r0		
 650:	0c 2e       	jc	$-998    	;abs 0x26a
 652:	01 3f       	jmp	$-508    	;abs 0x456
 654:	0c 03       	mova	#2,	r12	;r3 As==10
 656:	0e 3a       	jl	$-994    	;abs 0x274
 658:	0b 3b       	jl	$-488    	;abs 0x470
 65a:	0b 27       	jz	$-488    	;abs 0x472
 65c:	0c 11       	rra	r12		
 65e:	01 12       	push	r1		
 660:	01 40       	mov	r0,	r1	
 662:	0a 01       	mova	@r1,	r10	
 664:	13 00       	.word	0x0013;	????	Illegal as address instr
 666:	00 0d       	bra	@r13		
 668:	34 00 03 0e 	mova	0x0e03,	r4	;PC rel. 0x0146d
 66c:	3a 0b 3b 0b 	mova	2875(r11),r10	;0x0b3b(r11)
 670:	87 40 0e 49 	mov	r0,	18702(r7);0x490e(r7)
 674:	13 3f       	jmp	$-472    	;abs 0x49c
 676:	0c 3c       	jmp	$+26     	;abs 0x690
 678:	0c 00       	mova	@r0,	r12	
 67a:	00 0e       	bra	@r14		
 67c:	35 00 49 13 	mova	0x1349,	r5	;PC rel. 0x019c7
 680:	00 00       	bra	@r0		
 682:	0f 34       	jge	$+32     	;abs 0x6a2
 684:	00 03       	bra	#2		;r3 As==10
 686:	0e 3a       	jl	$-994    	;abs 0x2a4
 688:	0b 3b       	jl	$-488    	;abs 0x4a0
 68a:	05 87       	sub	r7,	r5	
 68c:	40 0e       	rlam.a	#4,	r0	
 68e:	49 13       	calla	r9		
 690:	3f 0c 3c 0c 	mova	3132(r12),r15	;0x0c3c(r12)
 694:	00 00       	bra	@r0		
 696:	10 01       	reta			
 698:	01 49       	mov	r9,	r1	
 69a:	13 01       	.word	0x0113;	????	Illegal as address instr
 69c:	13 00       	.word	0x0013;	????	Illegal as address instr
 69e:	00 11       	rra	r0		
 6a0:	21 00 49 13 	mova	&0x01349,r1	
 6a4:	2f 0b 00 00 	mova	&0xb0000,r15	
 6a8:	12 34       	jge	$+38     	;abs 0x6ce
 6aa:	00 03       	bra	#2		;r3 As==10
 6ac:	0e 3a       	jl	$-994    	;abs 0x2ca
 6ae:	0b 3b       	jl	$-488    	;abs 0x4c6
 6b0:	0b 49       	mov	r9,	r11	
 6b2:	13 3f       	jmp	$-472    	;abs 0x4da
 6b4:	0c 3c       	jmp	$+26     	;abs 0x6ce
 6b6:	0c 00       	mova	@r0,	r12	
 6b8:	00 13       	reti			
 6ba:	34 00 03 0e 	mova	0x0e03,	r4	;PC rel. 0x014bf
 6be:	3a 0b 3b 0b 	mova	2875(r11),r10	;0x0b3b(r11)
 6c2:	49 13       	calla	r9		
 6c4:	3f 0c 02 0a 	mova	2562(r12),r15	;0x0a02(r12)
 6c8:	00 00       	bra	@r0		
 6ca:	00 01       	bra	@r1		
 6cc:	11 01       	mova	@r1+,	r1	
 6ce:	25 0e 13 0b 	mova	&0xe0b13,r5	
 6d2:	03 0e       	.word	0x0e03;	????	Illegal as address instr
 6d4:	1b 0e       	mova	@r14+,	r11	
 6d6:	11 01       	mova	@r1+,	r1	
 6d8:	12 01       	mova	@r1+,	r2	
 6da:	10 06       	bra	@r6+		
 6dc:	00 00       	bra	@r0		
 6de:	02 24       	jz	$+6      	;abs 0x6e4
 6e0:	00 0b       	bra	@r11		
 6e2:	0b 3e       	jmp	$-1000   	;abs 0x2fa
 6e4:	0b 03       	mova	#2,	r11	;r3 As==10
 6e6:	0e 00       	mova	@r0,	r14	
 6e8:	00 03       	bra	#2		;r3 As==10
 6ea:	24 00 0b 0b 	mova	&0x00b0b,r4	
 6ee:	3e 0b 03 08 	mova	2051(r11),r14	;0x0803(r11)
 6f2:	00 00       	bra	@r0		
 6f4:	04 0f       	mova	@r15,	r4	
 6f6:	00 0b       	bra	@r11		
 6f8:	0b 49       	mov	r9,	r11	
 6fa:	13 00       	.word	0x0013;	????	Illegal as address instr
 6fc:	00 05       	bra	@r5		
 6fe:	26 00 49 13 	mova	&0x01349,r6	
 702:	00 00       	bra	@r0		
 704:	06 16       	popm.a	#1,	r6	
 706:	00 03       	bra	#2		;r3 As==10
 708:	0e 3a       	jl	$-994    	;abs 0x326
 70a:	0b 3b       	jl	$-488    	;abs 0x522
 70c:	0b 49       	mov	r9,	r11	
 70e:	13 00       	.word	0x0013;	????	Illegal as address instr
 710:	00 07       	bra	@r7		
 712:	0f 00       	mova	@r0,	r15	
 714:	0b 0b       	mova	@r11,	r11	
 716:	03 0e       	.word	0x0e03;	????	Illegal as address instr
 718:	00 00       	bra	@r0		
 71a:	08 2e       	jc	$-1006   	;abs 0x32c
 71c:	01 3f       	jmp	$-508    	;abs 0x520
 71e:	0c 03       	mova	#2,	r12	;r3 As==10
 720:	0e 3a       	jl	$-994    	;abs 0x33e
 722:	0b 3b       	jl	$-488    	;abs 0x53a
 724:	0b 27       	jz	$-488    	;abs 0x53c
 726:	0c 49       	mov	r9,	r12	
 728:	13 11       	rra	#1		;r3 As==01
 72a:	01 12       	push	r1		
 72c:	01 40       	mov	r0,	r1	
 72e:	0a 01       	mova	@r1,	r10	
 730:	13 00       	.word	0x0013;	????	Illegal as address instr
 732:	00 09       	bra	@r9		
 734:	05 00       	mova	@r0,	r5	
 736:	03 08       	.word	0x0803;	????	Illegal as address instr
 738:	3a 0b 3b 0b 	mova	2875(r11),r10	;0x0b3b(r11)
 73c:	49 13       	calla	r9		
 73e:	02 0a       	mova	@r10,	r2	
 740:	00 00       	bra	@r0		
 742:	0a 18       	.word	0x180a;	????	
 744:	00 00       	bra	@r0		
 746:	00 0b       	bra	@r11		
 748:	34 00 03 0e 	mova	0x0e03,	r4	;PC rel. 0x0154d
 74c:	3a 0b 3b 0b 	mova	2875(r11),r10	;0x0b3b(r11)
 750:	49 13       	calla	r9		
 752:	02 0a       	mova	@r10,	r2	
 754:	00 00       	bra	@r0		
 756:	0c 34       	jge	$+26     	;abs 0x770
 758:	00 03       	bra	#2		;r3 As==10
 75a:	08 3a       	jl	$-1006   	;abs 0x36c
 75c:	0b 3b       	jl	$-488    	;abs 0x574
 75e:	0b 49       	mov	r9,	r11	
 760:	13 00       	.word	0x0013;	????	Illegal as address instr
 762:	00 0d       	bra	@r13		
 764:	2e 01 3f 0c 	mova	&0x10c3f,r14	
 768:	03 0e       	.word	0x0e03;	????	Illegal as address instr
 76a:	3a 0b 3b 0b 	mova	2875(r11),r10	;0x0b3b(r11)
 76e:	27 0c 49 13 	mova	&0xc1349,r7	
 772:	11 01       	mova	@r1+,	r1	
 774:	12 01       	mova	@r1+,	r2	
 776:	40 0a       	rlam.a	#3,	r0	
 778:	00 00       	bra	@r0		
 77a:	0e 05       	mova	@r5,	r14	
 77c:	00 03       	bra	#2		;r3 As==10
 77e:	08 3a       	jl	$-1006   	;abs 0x390
 780:	0b 3b       	jl	$-488    	;abs 0x598
 782:	0b 49       	mov	r9,	r11	
 784:	13 02       	.word	0x0213;	????	Illegal as address instr
 786:	06 00       	mova	@r0,	r6	
 788:	00 0f       	bra	@r15		
 78a:	05 00       	mova	@r0,	r5	
 78c:	03 0e       	.word	0x0e03;	????	Illegal as address instr
 78e:	3a 0b 3b 0b 	mova	2875(r11),r10	;0x0b3b(r11)
 792:	49 13       	calla	r9		
 794:	02 06       	mova	@r6,	r2	
 796:	00 00       	bra	@r0		
 798:	00 01       	bra	@r1		
 79a:	11 01       	mova	@r1+,	r1	
 79c:	25 0e 13 0b 	mova	&0xe0b13,r5	
 7a0:	03 0e       	.word	0x0e03;	????	Illegal as address instr
 7a2:	1b 0e       	mova	@r14+,	r11	
 7a4:	11 01       	mova	@r1+,	r1	
 7a6:	12 01       	mova	@r1+,	r2	
 7a8:	10 06       	bra	@r6+		
 7aa:	00 00       	bra	@r0		
 7ac:	02 24       	jz	$+6      	;abs 0x7b2
 7ae:	00 0b       	bra	@r11		
 7b0:	0b 3e       	jmp	$-1000   	;abs 0x3c8
 7b2:	0b 03       	mova	#2,	r11	;r3 As==10
 7b4:	0e 00       	mova	@r0,	r14	
 7b6:	00 03       	bra	#2		;r3 As==10
 7b8:	24 00 0b 0b 	mova	&0x00b0b,r4	
 7bc:	3e 0b 03 08 	mova	2051(r11),r14	;0x0803(r11)
 7c0:	00 00       	bra	@r0		
 7c2:	04 16       	popm.a	#1,	r4	
 7c4:	00 03       	bra	#2		;r3 As==10
 7c6:	0e 3a       	jl	$-994    	;abs 0x3e4
 7c8:	0b 3b       	jl	$-488    	;abs 0x5e0
 7ca:	0b 49       	mov	r9,	r11	
 7cc:	13 00       	.word	0x0013;	????	Illegal as address instr
 7ce:	00 05       	bra	@r5		
 7d0:	0f 00       	mova	@r0,	r15	
 7d2:	0b 0b       	mova	@r11,	r11	
 7d4:	49 13       	calla	r9		
 7d6:	00 00       	bra	@r0		
 7d8:	06 26       	jz	$-1010   	;abs 0x3e6
 7da:	00 49       	br	r9		
 7dc:	13 00       	.word	0x0013;	????	Illegal as address instr
 7de:	00 07       	bra	@r7		
 7e0:	0f 00       	mova	@r0,	r15	
 7e2:	0b 0b       	mova	@r11,	r11	
 7e4:	03 0e       	.word	0x0e03;	????	Illegal as address instr
 7e6:	00 00       	bra	@r0		
 7e8:	08 13       	reti			;return from interupt
 7ea:	01 0b       	mova	@r11,	r1	
 7ec:	0b 3a       	jl	$-1000   	;abs 0x404
 7ee:	0b 3b       	jl	$-488    	;abs 0x606
 7f0:	0b 01       	mova	@r1,	r11	
 7f2:	13 00       	.word	0x0013;	????	Illegal as address instr
 7f4:	00 09       	bra	@r9		
 7f6:	0d 00       	mova	@r0,	r13	
 7f8:	03 0e       	.word	0x0e03;	????	Illegal as address instr
 7fa:	3a 0b 3b 0b 	mova	2875(r11),r10	;0x0b3b(r11)
 7fe:	49 13       	calla	r9		
 800:	0b 0b       	mova	@r11,	r11	
 802:	0d 0b       	mova	@r11,	r13	
 804:	0c 0b       	mova	@r11,	r12	
 806:	38 0a 00 00 	mova	0(r10),	r8	;0x0000(r10)
 80a:	0a 0d       	mova	@r13,	r10	
 80c:	00 03       	bra	#2		;r3 As==10
 80e:	0e 3a       	jl	$-994    	;abs 0x42c
 810:	0b 3b       	jl	$-488    	;abs 0x628
 812:	0b 49       	mov	r9,	r11	
 814:	13 38       	jl	$+40     	;abs 0x83c
 816:	0a 00       	mova	@r0,	r10	
 818:	00 0b       	bra	@r11		
 81a:	2e 01 03 0e 	mova	&0x10e03,r14	
 81e:	3a 0b 3b 0b 	mova	2875(r11),r10	;0x0b3b(r11)
 822:	27 0c 49 13 	mova	&0xc1349,r7	
 826:	20 0b 01 13 	bra	&0xb1301	
 82a:	00 00       	bra	@r0		
 82c:	0c 05       	mova	@r5,	r12	
 82e:	00 03       	bra	#2		;r3 As==10
 830:	0e 3a       	jl	$-994    	;abs 0x44e
 832:	0b 3b       	jl	$-488    	;abs 0x64a
 834:	0b 49       	mov	r9,	r11	
 836:	13 00       	.word	0x0013;	????	Illegal as address instr
 838:	00 0d       	bra	@r13		
 83a:	34 00 03 08 	mova	0x0803,	r4	;PC rel. 0x0103f
 83e:	3a 0b 3b 0b 	mova	2875(r11),r10	;0x0b3b(r11)
 842:	49 13       	calla	r9		
 844:	00 00       	bra	@r0		
 846:	0e 2e       	jc	$-994    	;abs 0x464
 848:	01 03       	mova	#2,	r1	;r3 As==10
 84a:	0e 3a       	jl	$-994    	;abs 0x468
 84c:	0b 3b       	jl	$-488    	;abs 0x664
 84e:	0b 27       	jz	$-488    	;abs 0x666
 850:	0c 49       	mov	r9,	r12	
 852:	13 11       	rra	#1		;r3 As==01
 854:	01 12       	push	r1		
 856:	01 40       	mov	r0,	r1	
 858:	06 01       	mova	@r1,	r6	
 85a:	13 00       	.word	0x0013;	????	Illegal as address instr
 85c:	00 0f       	bra	@r15		
 85e:	05 00       	mova	@r0,	r5	
 860:	03 0e       	.word	0x0e03;	????	Illegal as address instr
 862:	3a 0b 3b 0b 	mova	2875(r11),r10	;0x0b3b(r11)
 866:	49 13       	calla	r9		
 868:	02 06       	mova	@r6,	r2	
 86a:	00 00       	bra	@r0		
 86c:	10 34       	jge	$+34     	;abs 0x88e
 86e:	00 03       	bra	#2		;r3 As==10
 870:	0e 3a       	jl	$-994    	;abs 0x48e
 872:	0b 3b       	jl	$-488    	;abs 0x68a
 874:	0b 49       	mov	r9,	r11	
 876:	13 02       	.word	0x0213;	????	Illegal as address instr
 878:	06 00       	mova	@r0,	r6	
 87a:	00 11       	rra	r0		
 87c:	34 00 03 0e 	mova	0x0e03,	r4	;PC rel. 0x01681
 880:	3a 0b 3b 0b 	mova	2875(r11),r10	;0x0b3b(r11)
 884:	49 13       	calla	r9		
 886:	02 0a       	mova	@r10,	r2	
 888:	00 00       	bra	@r0		
 88a:	12 1d       	.word	0x1d12;	????	
 88c:	01 31       	jn	$+516    	;abs 0xa90
 88e:	13 11       	rra	#1		;r3 As==01
 890:	01 12       	push	r1		
 892:	01 58       	add	r8,	r1	
 894:	0b 59       	add	r9,	r11	
 896:	0b 01       	mova	@r1,	r11	
 898:	13 00       	.word	0x0013;	????	Illegal as address instr
 89a:	00 13       	reti			
 89c:	05 00       	mova	@r0,	r5	
 89e:	31 13       	reti			;return from interupt
 8a0:	00 00       	bra	@r0		
 8a2:	14 05       	mova	@r5+,	r4	
 8a4:	00 31       	jn	$+514    	;abs 0xaa6
 8a6:	13 02       	.word	0x0213;	????	Illegal as address instr
 8a8:	06 00       	mova	@r0,	r6	
 8aa:	00 15       	pushm	#1,	r0	
 8ac:	0b 01       	mova	@r1,	r11	
 8ae:	11 01       	mova	@r1+,	r1	
 8b0:	12 01       	mova	@r1+,	r2	
 8b2:	00 00       	bra	@r0		
 8b4:	16 34       	jge	$+46     	;abs 0x8e2
 8b6:	00 31       	jn	$+514    	;abs 0xab8
 8b8:	13 02       	.word	0x0213;	????	Illegal as address instr
 8ba:	06 00       	mova	@r0,	r6	
 8bc:	00 17       	popm	#1,	r0	
 8be:	0b 01       	mova	@r1,	r11	
 8c0:	55 06       	rlam	#2,	r5	
 8c2:	00 00       	bra	@r0		
 8c4:	18 34       	jge	$+50     	;abs 0x8f6
 8c6:	00 03       	bra	#2		;r3 As==10
 8c8:	08 3a       	jl	$-1006   	;abs 0x4da
 8ca:	0b 3b       	jl	$-488    	;abs 0x6e2
 8cc:	0b 49       	mov	r9,	r11	
 8ce:	13 02       	.word	0x0213;	????	Illegal as address instr
 8d0:	06 00       	mova	@r0,	r6	
 8d2:	00 19       	.word	0x1900;	????	
 8d4:	15 01       	mova	@r1+,	r5	
 8d6:	27 0c 49 13 	mova	&0xc1349,r7	
 8da:	01 13       	reti			;return from interupt
 8dc:	00 00       	bra	@r0		
 8de:	1a 05       	mova	@r5+,	r10	
 8e0:	00 49       	br	r9		
 8e2:	13 00       	.word	0x0013;	????	Illegal as address instr
 8e4:	00 1b       	.word	0x1b00;	????	
 8e6:	01 01       	mova	@r1,	r1	
 8e8:	49 13       	calla	r9		
 8ea:	01 13       	reti			;return from interupt
 8ec:	00 00       	bra	@r0		
 8ee:	1c 21       	jnz	$+570    	;abs 0xb28
 8f0:	00 49       	br	r9		
 8f2:	13 2f       	jc	$-472    	;abs 0x71a
 8f4:	0b 00       	mova	@r0,	r11	
 8f6:	00 1d       	.word	0x1d00;	????	
 8f8:	2e 01 3f 0c 	mova	&0x10c3f,r14	
 8fc:	03 0e       	.word	0x0e03;	????	Illegal as address instr
 8fe:	3a 0b 3b 0b 	mova	2875(r11),r10	;0x0b3b(r11)
 902:	27 0c 49 13 	mova	&0xc1349,r7	
 906:	11 01       	mova	@r1+,	r1	
 908:	12 01       	mova	@r1+,	r2	
 90a:	40 06       	rlam.a	#2,	r0	
 90c:	01 13       	reti			;return from interupt
 90e:	00 00       	bra	@r0		
 910:	1e 04       	mova	@r4+,	r14	
 912:	01 0b       	mova	@r11,	r1	
 914:	0b 3a       	jl	$-1000   	;abs 0x52c
 916:	0b 3b       	jl	$-488    	;abs 0x72e
 918:	0b 01       	mova	@r1,	r11	
 91a:	13 00       	.word	0x0013;	????	Illegal as address instr
 91c:	00 1f       	.word	0x1f00;	????	
 91e:	28 00 03 0e 	mova	&0x00e03,r8	
 922:	1c 0d       	mova	@r13+,	r12	
 924:	00 00       	bra	@r0		
 926:	20 0a 00 03 	bra	&0xa0300	
 92a:	0e 3a       	jl	$-994    	;abs 0x548
 92c:	0b 3b       	jl	$-488    	;abs 0x744
 92e:	05 11       	rra	r5		
 930:	01 00       	mova	@r0,	r1	
 932:	00 21       	jnz	$+514    	;abs 0xb34
 934:	0b 01       	mova	@r1,	r11	
 936:	11 01       	mova	@r1+,	r1	
 938:	12 01       	mova	@r1+,	r2	
 93a:	01 13       	reti			;return from interupt
 93c:	00 00       	bra	@r0		
 93e:	22 34       	jge	$+70     	;abs 0x984
 940:	00 03       	bra	#2		;r3 As==10
 942:	08 3a       	jl	$-1006   	;abs 0x554
 944:	0b 3b       	jl	$-488    	;abs 0x75c
 946:	05 49       	mov	r9,	r5	
 948:	13 02       	.word	0x0213;	????	Illegal as address instr
 94a:	06 00       	mova	@r0,	r6	
 94c:	00 23       	jnz	$-510    	;abs 0x74e
 94e:	34 00 03 0e 	mova	0x0e03,	r4	;PC rel. 0x01753
 952:	3a 0b 3b 05 	mova	1339(r11),r10	;0x053b(r11)
 956:	49 13       	calla	r9		
 958:	02 06       	mova	@r6,	r2	
 95a:	00 00       	bra	@r0		
 95c:	24 01 01 49 	mova	&0x14901,r4	
 960:	13 00       	.word	0x0013;	????	Illegal as address instr
	...

Disassembly of section .debug_line:

00000000 <.debug_line>:
       0:	98 04 00 00 	cmpa	#0x40000,r8	
       4:	02 00       	mova	@r0,	r2	
       6:	a0 00 00 00 	adda	#0x00000,r0	
       a:	01 01       	mova	@r1,	r1	
       c:	f6 f5 0a 00 	and.b	@r5+,	10(r6)	;0x000a(r6)
      10:	01 01       	mova	@r1,	r1	
      12:	01 01       	mova	@r1,	r1	
      14:	00 00       	bra	@r0		
      16:	00 01       	bra	@r1		
      18:	63 3a       	jl	$-824    	;abs 0xfce0
      1a:	5c 6d 73 70 	addc.b	28787(r13),r12	;0x7073(r13)
      1e:	67 63       	addc.b	#2,	r7	;r3 As==10
      20:	63 5c       	.word	0x5c63;	????	Illegal as 2-op instr
      22:	62 69       	addc.b	@r9,	r2	
      24:	6e 5c       	add.b	@r12,	r14	
      26:	2e 2e       	jc	$-930    	;abs 0xfc84
      28:	2f 6c       	addc	@r12,	r15	
      2a:	69 62       	addc.b	#4,	r9	;r2 As==10
      2c:	2f 67       	addc	@r7,	r15	
      2e:	63 63       	.word	0x6363;	????	Illegal as 2-op instr
      30:	2f 6d       	addc	@r13,	r15	
      32:	73 70       	.word	0x7073;	????	Illegal as 2-op instr
      34:	34 33       	jn	$-406    	;abs 0xfe9e
      36:	30 2f       	jc	$-414    	;abs 0xfe98
      38:	34 2e       	jc	$-918    	;abs 0xfca2
      3a:	35 2e       	jc	$-916    	;abs 0xfca6
      3c:	33 2f       	jc	$-408    	;abs 0xfea4
      3e:	2e 2e       	jc	$-930    	;abs 0xfc9c
      40:	2f 2e       	jc	$-928    	;abs 0xfca0
      42:	2e 2f       	jc	$-418    	;abs 0xfea0
      44:	2e 2e       	jc	$-930    	;abs 0xfca2
      46:	2f 2e       	jc	$-928    	;abs 0xfca6
      48:	2e 2f       	jc	$-418    	;abs 0xfea6
      4a:	6d 73       	subc.b	#2,	r13	;r3 As==10
      4c:	70 34       	jge	$+226    	;abs 0x12e
      4e:	33 30       	jn	$+104    	;abs 0xb6
      50:	2f 69       	addc	@r9,	r15	
      52:	6e 63       	addc.b	#2,	r14	;r3 As==10
      54:	6c 75       	subc.b	@r5,	r12	
      56:	64 65       	addc.b	@r5,	r4	
      58:	00 00       	bra	@r0		
      5a:	6d 61       	addc.b	@r1,	r13	
      5c:	69 6e       	addc.b	@r14,	r9	
      5e:	2e 63       	addc	#2,	r14	;r3 As==10
      60:	00 00       	bra	@r0		
      62:	00 00       	bra	@r0		
      64:	64 65       	addc.b	@r5,	r4	
      66:	6c 61       	addc.b	@r1,	r12	
      68:	79 2e       	jc	$-780    	;abs 0xfd5c
      6a:	68 00 00 00 	mova	r0,	&0x80000
      6e:	00 73       	sbc	r0		
      70:	68 6f       	addc.b	@r15,	r8	
      72:	72 74       	subc.b	@r4+,	r2	
      74:	74 79       	subc.b	@r9+,	r4	
      76:	70 65       	addc.b	@r5+,	r0	
      78:	73 2e       	jc	$-792    	;abs 0xfd60
      7a:	68 00 00 00 	mova	r0,	&0x80000
      7e:	00 6d       	addc	r13,	r0	
      80:	73 70       	.word	0x7073;	????	Illegal as 2-op instr
      82:	34 33       	jn	$-406    	;abs 0xfeec
      84:	30 66       	addc	@r6+,	r0	
      86:	32 36       	jge	$-922    	;abs 0xfcec
      88:	31 38       	jl	$+100    	;abs 0xec
      8a:	2e 68       	addc	@r8,	r14	
      8c:	00 01       	bra	@r1		
      8e:	00 00       	bra	@r0		
      90:	61 6e       	addc.b	@r14,	r1	
      92:	61 6c       	addc.b	@r12,	r1	
      94:	6f 67       	addc.b	@r7,	r15	
      96:	2e 68       	addc	@r8,	r14	
      98:	00 00       	bra	@r0		
      9a:	00 00       	bra	@r0		
      9c:	6c 63       	addc.b	#2,	r12	;r3 As==10
      9e:	64 36       	jge	$-822    	;abs 0xfd68
      a0:	31 30       	jn	$+100    	;abs 0x104
      a2:	30 2e       	jc	$-926    	;abs 0xfd04
      a4:	68 00 00 00 	mova	r0,	&0x80000
      a8:	00 00       	bra	@r0		
      aa:	00 03       	bra	#2		;r3 As==10
      ac:	02 44       	mov	r4,	r2	
      ae:	34 bd       	bit	@r13+,	r4	
      b0:	00 03       	bra	#2		;r3 As==10
      b2:	02 48       	mov	r8,	r2	
      b4:	34 16       	popm.a	#4,	r7	
      b6:	00 03       	bra	#2		;r3 As==10
      b8:	02 50       	add	r0,	r2	
      ba:	34 15       	pushm	#4,	r4	
      bc:	00 03       	bra	#2		;r3 As==10
      be:	02 5a       	add	r10,	r2	
      c0:	34 15       	pushm	#4,	r4	
      c2:	00 03       	bra	#2		;r3 As==10
      c4:	02 62       	rlc	r2		
      c6:	34 15       	pushm	#4,	r4	
      c8:	00 03       	bra	#2		;r3 As==10
      ca:	02 7e       	subc	r14,	r2	
      cc:	34 15       	pushm	#4,	r4	
      ce:	00 03       	bra	#2		;r3 As==10
      d0:	02 88       	sub	r8,	r2	
      d2:	34 15       	pushm	#4,	r4	
      d4:	00 03       	bra	#2		;r3 As==10
      d6:	02 96       	cmp	r6,	r2	
      d8:	34 15       	pushm	#4,	r4	
      da:	00 03       	bra	#2		;r3 As==10
      dc:	02 9e       	cmp	r14,	r2	
      de:	34 15       	pushm	#4,	r4	
      e0:	00 03       	bra	#2		;r3 As==10
      e2:	02 ac       	dadd	r12,	r2	
      e4:	34 15       	pushm	#4,	r4	
      e6:	00 03       	bra	#2		;r3 As==10
      e8:	02 b6       	bit	r6,	r2	
      ea:	34 15       	pushm	#4,	r4	
      ec:	00 03       	bra	#2		;r3 As==10
      ee:	02 d4       	bis	r4,	r2	
      f0:	34 16       	popm.a	#4,	r7	
      f2:	00 03       	bra	#2		;r3 As==10
      f4:	02 50       	add	r0,	r2	
      f6:	35 16       	popm.a	#4,	r8	
      f8:	00 03       	bra	#2		;r3 As==10
      fa:	02 52       	rla	r2		
      fc:	35 15       	pushm	#4,	r5	
      fe:	00 03       	bra	#2		;r3 As==10
     100:	02 5a       	add	r10,	r2	
     102:	35 15       	pushm	#4,	r5	
     104:	00 03       	bra	#2		;r3 As==10
     106:	02 64       	addc	r4,	r2	
     108:	35 15       	pushm	#4,	r5	
     10a:	00 03       	bra	#2		;r3 As==10
     10c:	02 6c       	addc	r12,	r2	
     10e:	35 15       	pushm	#4,	r5	
     110:	00 03       	bra	#2		;r3 As==10
     112:	02 76       	subc	r6,	r2	
     114:	35 15       	pushm	#4,	r5	
     116:	00 03       	bra	#2		;r3 As==10
     118:	02 80       	sub	r0,	r2	
     11a:	35 15       	pushm	#4,	r5	
     11c:	00 03       	bra	#2		;r3 As==10
     11e:	02 9a       	cmp	r10,	r2	
     120:	35 15       	pushm	#4,	r5	
     122:	00 03       	bra	#2		;r3 As==10
     124:	02 a2       	dadd	r2,	r2	
     126:	35 15       	pushm	#4,	r5	
     128:	00 03       	bra	#2		;r3 As==10
     12a:	02 b8       	bit	r8,	r2	
     12c:	35 15       	pushm	#4,	r5	
     12e:	00 03       	bra	#2		;r3 As==10
     130:	02 c2       	bic	r2,	r2	
     132:	35 15       	pushm	#4,	r5	
     134:	00 03       	bra	#2		;r3 As==10
     136:	02 d8       	bis	r8,	r2	
     138:	35 15       	pushm	#4,	r5	
     13a:	00 03       	bra	#2		;r3 As==10
     13c:	02 e2       	xor	r2,	r2	
     13e:	35 15       	pushm	#4,	r5	
     140:	00 03       	bra	#2		;r3 As==10
     142:	02 f8       	and	r8,	r2	
     144:	35 15       	pushm	#4,	r5	
     146:	00 03       	bra	#2		;r3 As==10
     148:	02 fc       	and	r12,	r2	
     14a:	35 15       	pushm	#4,	r5	
     14c:	00 03       	bra	#2		;r3 As==10
     14e:	02 00       	mova	@r0,	r2	
     150:	36 18       	.word	0x1836;	????	
     152:	00 03       	bra	#2		;r3 As==10
     154:	02 02       	mova	#4,	r2	;r2 As==10
     156:	36 01 00 03 	mova	768(r1),r6	;0x0300(r1)
     15a:	02 04       	mova	@r4,	r2	
     15c:	36 10       	rrc	@r6+		
     15e:	00 03       	bra	#2		;r3 As==10
     160:	02 06       	mova	@r6,	r2	
     162:	36 1a       	.word	0x1a36;	????	
     164:	00 03       	bra	#2		;r3 As==10
     166:	02 10       	rrc	r2		
     168:	36 16       	popm.a	#4,	r9	
     16a:	00 03       	bra	#2		;r3 As==10
     16c:	02 14       	pushm.a	#1,	r2	
     16e:	36 15       	pushm	#4,	r6	
     170:	00 03       	bra	#2		;r3 As==10
     172:	02 18 36 10 	rrcx	@r6+		
     176:	00 03       	bra	#2		;r3 As==10
     178:	02 20       	jnz	$+6      	;abs 0x17e
     17a:	36 13       	reti			;return from interupt
     17c:	00 03       	bra	#2		;r3 As==10
     17e:	02 28       	jnc	$+6      	;abs 0x184
     180:	36 1f       	.word	0x1f36;	????	
     182:	00 03       	bra	#2		;r3 As==10
     184:	02 32       	jn	$-1018   	;abs 0xfd8a
     186:	36 16       	popm.a	#4,	r9	
     188:	00 03       	bra	#2		;r3 As==10
     18a:	02 3a       	jl	$-1018   	;abs 0xfd90
     18c:	36 01 00 03 	mova	768(r1),r6	;0x0300(r1)
     190:	02 3c       	jmp	$+6      	;abs 0x196
     192:	36 15       	pushm	#4,	r6	
     194:	00 03       	bra	#2		;r3 As==10
     196:	02 40       	mov	r0,	r2	
     198:	36 13       	reti			;return from interupt
     19a:	00 03       	bra	#2		;r3 As==10
     19c:	02 44       	mov	r4,	r2	
     19e:	36 18       	.word	0x1836;	????	
     1a0:	00 03       	bra	#2		;r3 As==10
     1a2:	02 4e       	mov	r14,	r2	
     1a4:	36 13       	reti			;return from interupt
     1a6:	00 03       	bra	#2		;r3 As==10
     1a8:	02 54       	add	r4,	r2	
     1aa:	36 19       	.word	0x1936;	????	
     1ac:	00 03       	bra	#2		;r3 As==10
     1ae:	02 5e       	add	r14,	r2	
     1b0:	36 15       	pushm	#4,	r6	
     1b2:	00 03       	bra	#2		;r3 As==10
     1b4:	02 6a       	addc	r10,	r2	
     1b6:	36 18       	.word	0x1836;	????	
     1b8:	00 03       	bra	#2		;r3 As==10
     1ba:	02 6a       	addc	r10,	r2	
     1bc:	36 15       	pushm	#4,	r6	
     1be:	00 03       	bra	#2		;r3 As==10
     1c0:	02 6e       	addc	r14,	r2	
     1c2:	36 15       	pushm	#4,	r6	
     1c4:	00 03       	bra	#2		;r3 As==10
     1c6:	02 74       	subc	r4,	r2	
     1c8:	36 15       	pushm	#4,	r6	
     1ca:	00 03       	bra	#2		;r3 As==10
     1cc:	02 7a       	subc	r10,	r2	
     1ce:	36 15       	pushm	#4,	r6	
     1d0:	00 03       	bra	#2		;r3 As==10
     1d2:	02 80       	sub	r0,	r2	
     1d4:	36 15       	pushm	#4,	r6	
     1d6:	00 03       	bra	#2		;r3 As==10
     1d8:	02 82       	sub	r2,	r2	
     1da:	36 17       	popm	#4,	r9	
     1dc:	00 03       	bra	#2		;r3 As==10
     1de:	02 82       	sub	r2,	r2	
     1e0:	36 1d       	.word	0x1d36;	????	
     1e2:	00 03       	bra	#2		;r3 As==10
     1e4:	02 88       	sub	r8,	r2	
     1e6:	36 17       	popm	#4,	r9	
     1e8:	00 03       	bra	#2		;r3 As==10
     1ea:	02 8e       	sub	r14,	r2	
     1ec:	36 17       	popm	#4,	r9	
     1ee:	00 03       	bra	#2		;r3 As==10
     1f0:	02 94       	cmp	r4,	r2	
     1f2:	36 1e       	.word	0x1e36;	????	
     1f4:	00 03       	bra	#2		;r3 As==10
     1f6:	02 9a       	cmp	r10,	r2	
     1f8:	36 17       	popm	#4,	r9	
     1fa:	00 03       	bra	#2		;r3 As==10
     1fc:	02 9e       	cmp	r14,	r2	
     1fe:	36 15       	pushm	#4,	r6	
     200:	00 03       	bra	#2		;r3 As==10
     202:	02 a2       	dadd	r2,	r2	
     204:	36 16       	popm.a	#4,	r9	
     206:	00 03       	bra	#2		;r3 As==10
     208:	02 a4       	dadd	r4,	r2	
     20a:	36 17       	popm	#4,	r9	
     20c:	00 03       	bra	#2		;r3 As==10
     20e:	02 a4       	dadd	r4,	r2	
     210:	36 15       	pushm	#4,	r6	
     212:	00 03       	bra	#2		;r3 As==10
     214:	02 a8       	dadd	r8,	r2	
     216:	36 15       	pushm	#4,	r6	
     218:	00 03       	bra	#2		;r3 As==10
     21a:	02 ac       	dadd	r12,	r2	
     21c:	36 03 55 01 	mova	#1,	r6	;r3 As==01
     220:	00 03       	bra	#2		;r3 As==10
     222:	02 b0       	bit	r0,	r2	
     224:	36 15       	pushm	#4,	r6	
     226:	00 03       	bra	#2		;r3 As==10
     228:	02 b6       	bit	r6,	r2	
     22a:	36 15       	pushm	#4,	r6	
     22c:	00 03       	bra	#2		;r3 As==10
     22e:	02 bc       	bit	r12,	r2	
     230:	36 15       	pushm	#4,	r6	
     232:	00 03       	bra	#2		;r3 As==10
     234:	02 c2       	bic	r2,	r2	
     236:	36 21       	jnz	$+622    	;abs 0x4a4
     238:	00 03       	bra	#2		;r3 As==10
     23a:	02 c8       	bic	r8,	r2	
     23c:	36 17       	popm	#4,	r9	
     23e:	00 03       	bra	#2		;r3 As==10
     240:	02 ce       	bic	r14,	r2	
     242:	36 17       	popm	#4,	r9	
     244:	00 03       	bra	#2		;r3 As==10
     246:	02 d4       	bis	r4,	r2	
     248:	36 1e       	.word	0x1e36;	????	
     24a:	00 03       	bra	#2		;r3 As==10
     24c:	02 da       	bis	r10,	r2	
     24e:	36 17       	popm	#4,	r9	
     250:	00 03       	bra	#2		;r3 As==10
     252:	02 de       	bis	r14,	r2	
     254:	36 15       	pushm	#4,	r6	
     256:	00 03       	bra	#2		;r3 As==10
     258:	02 e2       	xor	r2,	r2	
     25a:	36 1f       	.word	0x1f36;	????	
     25c:	00 03       	bra	#2		;r3 As==10
     25e:	02 e6       	xor	r6,	r2	
     260:	36 16       	popm.a	#4,	r9	
     262:	00 03       	bra	#2		;r3 As==10
     264:	02 e8       	xor	r8,	r2	
     266:	36 16       	popm.a	#4,	r9	
     268:	00 03       	bra	#2		;r3 As==10
     26a:	02 f0       	and	r0,	r2	
     26c:	36 16       	popm.a	#4,	r9	
     26e:	00 03       	bra	#2		;r3 As==10
     270:	02 fe       	and	r14,	r2	
     272:	36 17       	popm	#4,	r9	
     274:	00 03       	bra	#2		;r3 As==10
     276:	02 fe       	and	r14,	r2	
     278:	36 16       	popm.a	#4,	r9	
     27a:	00 03       	bra	#2		;r3 As==10
     27c:	02 04       	mova	@r4,	r2	
     27e:	37 15       	pushm	#4,	r7	
     280:	00 03       	bra	#2		;r3 As==10
     282:	02 06       	mova	@r6,	r2	
     284:	37 00 01 01 	mova	0x0101,	r7	;PC rel. 0x00387
     288:	00 03       	bra	#2		;r3 As==10
     28a:	02 38       	jl	$+6      	;abs 0x290
     28c:	31 45       	mov	@r5+,	r1	
     28e:	00 03       	bra	#2		;r3 As==10
     290:	02 3c       	jmp	$+6      	;abs 0x296
     292:	31 18       	.word	0x1831;	????	
     294:	00 03       	bra	#2		;r3 As==10
     296:	02 42       	mov	r2,	r2	
     298:	31 16       	popm.a	#4,	r4	
     29a:	00 03       	bra	#2		;r3 As==10
     29c:	02 46       	mov	r6,	r2	
     29e:	31 22       	jnz	$-924    	;abs 0xff02
     2a0:	00 03       	bra	#2		;r3 As==10
     2a2:	02 4c       	mov	r12,	r2	
     2a4:	31 15       	pushm	#4,	r1	
     2a6:	00 03       	bra	#2		;r3 As==10
     2a8:	02 52       	rla	r2		
     2aa:	31 11       	rra	@r1+		
     2ac:	00 03       	bra	#2		;r3 As==10
     2ae:	02 56       	add	r6,	r2	
     2b0:	31 13       	reti			;return from interupt
     2b2:	00 03       	bra	#2		;r3 As==10
     2b4:	02 5c       	add	r12,	r2	
     2b6:	31 13       	reti			;return from interupt
     2b8:	00 03       	bra	#2		;r3 As==10
     2ba:	02 62       	rlc	r2		
     2bc:	31 03 72 01 	mova	#1,	r1	;r3 As==01
     2c0:	00 03       	bra	#2		;r3 As==10
     2c2:	02 8a       	sub	r10,	r2	
     2c4:	31 2b       	jnc	$-412    	;abs 0x128
     2c6:	00 03       	bra	#2		;r3 As==10
     2c8:	02 8e       	sub	r14,	r2	
     2ca:	31 16       	popm.a	#4,	r4	
     2cc:	00 03       	bra	#2		;r3 As==10
     2ce:	02 94       	cmp	r4,	r2	
     2d0:	31 16       	popm.a	#4,	r4	
     2d2:	00 03       	bra	#2		;r3 As==10
     2d4:	02 9c       	cmp	r12,	r2	
     2d6:	31 15       	pushm	#4,	r1	
     2d8:	00 03       	bra	#2		;r3 As==10
     2da:	02 a2       	dadd	r2,	r2	
     2dc:	31 15       	pushm	#4,	r1	
     2de:	00 03       	bra	#2		;r3 As==10
     2e0:	02 aa       	dadd	r10,	r2	
     2e2:	31 15       	pushm	#4,	r1	
     2e4:	00 03       	bra	#2		;r3 As==10
     2e6:	02 b2       	bit	r2,	r2	
     2e8:	31 16       	popm.a	#4,	r4	
     2ea:	00 03       	bra	#2		;r3 As==10
     2ec:	02 c0       	bic	r0,	r2	
     2ee:	31 01 00 03 	mova	768(r1),r1	;0x0300(r1)
     2f2:	02 c8       	bic	r8,	r2	
     2f4:	31 01 00 03 	mova	768(r1),r1	;0x0300(r1)
     2f8:	02 cc       	bic	r12,	r2	
     2fa:	31 01 00 03 	mova	768(r1),r1	;0x0300(r1)
     2fe:	02 d0       	bis	r0,	r2	
     300:	31 15       	pushm	#4,	r1	
     302:	00 03       	bra	#2		;r3 As==10
     304:	02 de       	bis	r14,	r2	
     306:	31 15       	pushm	#4,	r1	
     308:	00 03       	bra	#2		;r3 As==10
     30a:	02 e4       	xor	r4,	r2	
     30c:	31 15       	pushm	#4,	r1	
     30e:	00 03       	bra	#2		;r3 As==10
     310:	02 f0       	and	r0,	r2	
     312:	31 16       	popm.a	#4,	r4	
     314:	00 03       	bra	#2		;r3 As==10
     316:	02 02       	mova	#4,	r2	;r2 As==10
     318:	32 15       	pushm	#4,	r2	
     31a:	00 03       	bra	#2		;r3 As==10
     31c:	02 10       	rrc	r2		
     31e:	32 15       	pushm	#4,	r2	
     320:	00 03       	bra	#2		;r3 As==10
     322:	02 24       	jz	$+6      	;abs 0x328
     324:	32 92       	cmp	#8,	r2	;r2 As==11
     326:	00 03       	bra	#2		;r3 As==10
     328:	02 28       	jnc	$+6      	;abs 0x32e
     32a:	32 17       	popm	#4,	r5	
     32c:	00 03       	bra	#2		;r3 As==10
     32e:	02 32       	jn	$-1018   	;abs 0xff34
     330:	32 13       	reti			;return from interupt
     332:	00 03       	bra	#2		;r3 As==10
     334:	02 38       	jl	$+6      	;abs 0x33a
     336:	32 19       	.word	0x1932;	????	
     338:	00 03       	bra	#2		;r3 As==10
     33a:	02 46       	mov	r6,	r2	
     33c:	32 03 80 7f 	mova	#1,	r2	;r3 As==01
     340:	01 00       	mova	@r0,	r1	
     342:	03 02       	.word	0x0203;	????	Illegal as address instr
     344:	4c 32       	jn	$-870    	;abs 0xffde
     346:	8d 00 03 02 	mova	#0x00203,r13	
     34a:	50 32       	jn	$-862    	;abs 0xffec
     34c:	17 00       	mova	#0x00000,r7	
     34e:	03 02       	.word	0x0203;	????	Illegal as address instr
     350:	5a 32       	jn	$-842    	;abs 0x6
     352:	13 00       	.word	0x0013;	????	Illegal as address instr
     354:	03 02       	.word	0x0203;	????	Illegal as address instr
     356:	60 32       	jn	$-830    	;abs 0x18
     358:	19 00       	mova	#0x00000,r9	
     35a:	03 02       	.word	0x0203;	????	Illegal as address instr
     35c:	6e 32       	jn	$-802    	;abs 0x3a
     35e:	03 81       	.word	0x8103;	????	Illegal as 2-op instr
     360:	7f 01 00 03 	mova	r1,	768(r15);0x0300(r15)
     364:	02 74       	subc	r4,	r2	
     366:	32 8c       	sub	@r12+,	r2	
     368:	00 03       	bra	#2		;r3 As==10
     36a:	02 7a       	subc	r10,	r2	
     36c:	32 17       	popm	#4,	r5	
     36e:	00 03       	bra	#2		;r3 As==10
     370:	02 84       	sub	r4,	r2	
     372:	32 13       	reti			;return from interupt
     374:	00 03       	bra	#2		;r3 As==10
     376:	02 92       	cmp	r2,	r2	
     378:	32 19       	.word	0x1932;	????	
     37a:	00 03       	bra	#2		;r3 As==10
     37c:	02 a0       	dadd	r0,	r2	
     37e:	32 03 84 7f 	mova	#1,	r2	;r3 As==01
     382:	01 00       	mova	@r0,	r1	
     384:	03 02       	.word	0x0203;	????	Illegal as address instr
     386:	a8 32       	jn	$-686    	;abs 0xd8
     388:	0d 00       	mova	@r0,	r13	
     38a:	03 02       	.word	0x0203;	????	Illegal as address instr
     38c:	ba 32       	jn	$-650    	;abs 0x102
     38e:	15 00       	mova	#0x00000,r5	
     390:	03 02       	.word	0x0203;	????	Illegal as address instr
     392:	ce 32       	jn	$-610    	;abs 0x130
     394:	0a 00       	mova	@r0,	r10	
     396:	03 02       	.word	0x0203;	????	Illegal as address instr
     398:	d4 32       	jn	$-598    	;abs 0x142
     39a:	27 00 03 02 	mova	&0x00203,r7	
     39e:	e6 32       	jn	$-562    	;abs 0x16c
     3a0:	3f 00 03 02 	mova	0x0203,	r15	;PC rel. 0x005a5
     3a4:	ea 32       	jn	$-554    	;abs 0x17a
     3a6:	15 00       	mova	#0x00000,r5	
     3a8:	03 02       	.word	0x0203;	????	Illegal as address instr
     3aa:	f6 32       	jn	$-530    	;abs 0x198
     3ac:	03 52       	.word	0x5203;	????	Illegal as 2-op instr
     3ae:	01 00       	mova	@r0,	r1	
     3b0:	03 02       	.word	0x0203;	????	Illegal as address instr
     3b2:	fc 32       	jn	$-518    	;abs 0x1ac
     3b4:	35 00 03 02 	mova	0x0203,	r5	;PC rel. 0x005b9
     3b8:	00 33       	jn	$-510    	;abs 0x1ba
     3ba:	15 00       	mova	#0x00000,r5	
     3bc:	03 02       	.word	0x0203;	????	Illegal as address instr
     3be:	0c 33       	jn	$-486    	;abs 0x1d8
     3c0:	16 00       	mova	#0x00000,r6	
     3c2:	03 02       	.word	0x0203;	????	Illegal as address instr
     3c4:	12 33       	jn	$-474    	;abs 0x1ea
     3c6:	15 00       	mova	#0x00000,r5	
     3c8:	03 02       	.word	0x0203;	????	Illegal as address instr
     3ca:	18 33       	jn	$-462    	;abs 0x1fc
     3cc:	15 00       	mova	#0x00000,r5	
     3ce:	03 02       	.word	0x0203;	????	Illegal as address instr
     3d0:	1e 33       	jn	$-450    	;abs 0x20e
     3d2:	03 5a       	.word	0x5a03;	????	Illegal as 2-op instr
     3d4:	01 00       	mova	@r0,	r1	
     3d6:	03 02       	.word	0x0203;	????	Illegal as address instr
     3d8:	22 33       	jn	$-442    	;abs 0x21e
     3da:	3c 00 03 02 	mova	0x0203,	r12	;PC rel. 0x005df
     3de:	2c 33       	jn	$-422    	;abs 0x238
     3e0:	03 6d       	.word	0x6d03;	????	Illegal as 2-op instr
     3e2:	01 00       	mova	@r0,	r1	
     3e4:	03 02       	.word	0x0203;	????	Illegal as address instr
     3e6:	30 33       	jn	$-414    	;abs 0x248
     3e8:	15 00       	mova	#0x00000,r5	
     3ea:	03 02       	.word	0x0203;	????	Illegal as address instr
     3ec:	3c 33       	jn	$-390    	;abs 0x266
     3ee:	16 00       	mova	#0x00000,r6	
     3f0:	03 02       	.word	0x0203;	????	Illegal as address instr
     3f2:	42 33       	jn	$-378    	;abs 0x278
     3f4:	15 00       	mova	#0x00000,r5	
     3f6:	03 02       	.word	0x0203;	????	Illegal as address instr
     3f8:	48 33       	jn	$-366    	;abs 0x28a
     3fa:	15 00       	mova	#0x00000,r5	
     3fc:	03 02       	.word	0x0203;	????	Illegal as address instr
     3fe:	4e 33       	jn	$-354    	;abs 0x29c
     400:	03 66       	.word	0x6603;	????	Illegal as 2-op instr
     402:	01 00       	mova	@r0,	r1	
     404:	03 02       	.word	0x0203;	????	Illegal as address instr
     406:	52 33       	jn	$-346    	;abs 0x2ac
     408:	30 00 03 02 	bra	0x0203		;PC rel. 0x0060d
     40c:	60 33       	jn	$-318    	;abs 0x2ce
     40e:	03 6d       	.word	0x6d03;	????	Illegal as 2-op instr
     410:	01 00       	mova	@r0,	r1	
     412:	03 02       	.word	0x0203;	????	Illegal as address instr
     414:	64 33       	jn	$-310    	;abs 0x2de
     416:	15 00       	mova	#0x00000,r5	
     418:	03 02       	.word	0x0203;	????	Illegal as address instr
     41a:	70 33       	jn	$-286    	;abs 0x2fc
     41c:	16 00       	mova	#0x00000,r6	
     41e:	03 02       	.word	0x0203;	????	Illegal as address instr
     420:	76 33       	jn	$-274    	;abs 0x30e
     422:	15 00       	mova	#0x00000,r5	
     424:	03 02       	.word	0x0203;	????	Illegal as address instr
     426:	7c 33       	jn	$-262    	;abs 0x320
     428:	15 00       	mova	#0x00000,r5	
     42a:	03 02       	.word	0x0203;	????	Illegal as address instr
     42c:	82 33       	jn	$-250    	;abs 0x332
     42e:	03 72       	.word	0x7203;	????	Illegal as 2-op instr
     430:	01 00       	mova	@r0,	r1	
     432:	03 02       	.word	0x0203;	????	Illegal as address instr
     434:	86 33       	jn	$-242    	;abs 0x342
     436:	24 00 03 02 	mova	&0x00203,r4	
     43a:	90 33       	jn	$-222    	;abs 0x35c
     43c:	03 74       	.word	0x7403;	????	Illegal as 2-op instr
     43e:	01 00       	mova	@r0,	r1	
     440:	03 02       	.word	0x0203;	????	Illegal as address instr
     442:	98 33       	jn	$-206    	;abs 0x374
     444:	10 00       	bra	#0x00000	
     446:	03 02       	.word	0x0203;	????	Illegal as address instr
     448:	9c 33       	jn	$-198    	;abs 0x382
     44a:	19 00       	mova	#0x00000,r9	
     44c:	03 02       	.word	0x0203;	????	Illegal as address instr
     44e:	a4 33       	jn	$-182    	;abs 0x398
     450:	15 00       	mova	#0x00000,r5	
     452:	03 02       	.word	0x0203;	????	Illegal as address instr
     454:	a6 33       	jn	$-178    	;abs 0x3a2
     456:	49 00       	rrcm.a	#1,	r9	
     458:	03 02       	.word	0x0203;	????	Illegal as address instr
     45a:	b2 33       	jn	$-154    	;abs 0x3c0
     45c:	03 45       	.word	0x4503;	????	Illegal as 2-op instr
     45e:	01 00       	mova	@r0,	r1	
     460:	03 02       	.word	0x0203;	????	Illegal as address instr
     462:	b6 33       	jn	$-146    	;abs 0x3d0
     464:	51 00       	rrcm	#1,	r1	
     466:	03 02       	.word	0x0203;	????	Illegal as address instr
     468:	c4 33       	jn	$-118    	;abs 0x3f2
     46a:	03 b2       	.word	0xb203;	????	Illegal as 2-op instr
     46c:	7f 01 00 03 	mova	r1,	768(r15);0x0300(r15)
     470:	02 cc       	bic	r12,	r2	
     472:	33 55       	.word	0x5533;	????	Illegal as 2-op instr
     474:	00 03       	bra	#2		;r3 As==10
     476:	02 d2       	bis	r2,	r2	
     478:	33 15       	pushm	#4,	#0	;r3 As==00
     47a:	00 03       	bra	#2		;r3 As==10
     47c:	02 d8       	bis	r8,	r2	
     47e:	33 15       	pushm	#4,	#0	;r3 As==00
     480:	00 03       	bra	#2		;r3 As==10
     482:	02 de       	bis	r14,	r2	
     484:	33 16       	popm.a	#4,	r6	
     486:	00 03       	bra	#2		;r3 As==10
     488:	02 e2       	xor	r2,	r2	
     48a:	33 03       	.word	0x0333;	????	Illegal as address instr
     48c:	4c 01       	rram.a	#1,	r12	
     48e:	00 03       	bra	#2		;r3 As==10
     490:	02 e6       	xor	r6,	r2	
     492:	33 4a       	.word	0x4a33;	????	Illegal as 2-op instr
     494:	00 03       	bra	#2		;r3 As==10
     496:	02 f4       	and	r4,	r2	
     498:	33 00       	.word	0x0033;	????	Illegal as address instr
     49a:	01 01       	mova	@r1,	r1	
     49c:	9e 06 00 00 	cmpa	#0x60000,r14	
     4a0:	02 00       	mova	@r0,	r2	
     4a2:	92 00 00 00 	cmpa	#0x00000,r2	
     4a6:	01 01       	mova	@r1,	r1	
     4a8:	f6 f5 0a 00 	and.b	@r5+,	10(r6)	;0x000a(r6)
     4ac:	01 01       	mova	@r1,	r1	
     4ae:	01 01       	mova	@r1,	r1	
     4b0:	00 00       	bra	@r0		
     4b2:	00 01       	bra	@r1		
     4b4:	63 3a       	jl	$-824    	;abs 0x17c
     4b6:	5c 6d 73 70 	addc.b	28787(r13),r12	;0x7073(r13)
     4ba:	67 63       	addc.b	#2,	r7	;r3 As==10
     4bc:	63 5c       	.word	0x5c63;	????	Illegal as 2-op instr
     4be:	62 69       	addc.b	@r9,	r2	
     4c0:	6e 5c       	add.b	@r12,	r14	
     4c2:	2e 2e       	jc	$-930    	;abs 0x120
     4c4:	2f 6c       	addc	@r12,	r15	
     4c6:	69 62       	addc.b	#4,	r9	;r2 As==10
     4c8:	2f 67       	addc	@r7,	r15	
     4ca:	63 63       	.word	0x6363;	????	Illegal as 2-op instr
     4cc:	2f 6d       	addc	@r13,	r15	
     4ce:	73 70       	.word	0x7073;	????	Illegal as 2-op instr
     4d0:	34 33       	jn	$-406    	;abs 0x33a
     4d2:	30 2f       	jc	$-414    	;abs 0x334
     4d4:	34 2e       	jc	$-918    	;abs 0x13e
     4d6:	35 2e       	jc	$-916    	;abs 0x142
     4d8:	33 2f       	jc	$-408    	;abs 0x340
     4da:	2e 2e       	jc	$-930    	;abs 0x138
     4dc:	2f 2e       	jc	$-928    	;abs 0x13c
     4de:	2e 2f       	jc	$-418    	;abs 0x33c
     4e0:	2e 2e       	jc	$-930    	;abs 0x13e
     4e2:	2f 2e       	jc	$-928    	;abs 0x142
     4e4:	2e 2f       	jc	$-418    	;abs 0x342
     4e6:	6d 73       	subc.b	#2,	r13	;r3 As==10
     4e8:	70 34       	jge	$+226    	;abs 0x5ca
     4ea:	33 30       	jn	$+104    	;abs 0x552
     4ec:	2f 69       	addc	@r9,	r15	
     4ee:	6e 63       	addc.b	#2,	r14	;r3 As==10
     4f0:	6c 75       	subc.b	@r5,	r12	
     4f2:	64 65       	addc.b	@r5,	r4	
     4f4:	00 00       	bra	@r0		
     4f6:	6c 63       	addc.b	#2,	r12	;r3 As==10
     4f8:	64 36       	jge	$-822    	;abs 0x1c2
     4fa:	31 30       	jn	$+100    	;abs 0x55e
     4fc:	30 2e       	jc	$-926    	;abs 0x15e
     4fe:	63 00 00 00 	mova	r0,	&0x30000
     502:	00 6d       	addc	r13,	r0	
     504:	73 70       	.word	0x7073;	????	Illegal as 2-op instr
     506:	34 33       	jn	$-406    	;abs 0x370
     508:	30 66       	addc	@r6+,	r0	
     50a:	32 36       	jge	$-922    	;abs 0x170
     50c:	31 38       	jl	$+100    	;abs 0x570
     50e:	2e 68       	addc	@r8,	r14	
     510:	00 01       	bra	@r1		
     512:	00 00       	bra	@r0		
     514:	6c 63       	addc.b	#2,	r12	;r3 As==10
     516:	64 36       	jge	$-822    	;abs 0x1e0
     518:	31 30       	jn	$+100    	;abs 0x57c
     51a:	30 2e       	jc	$-926    	;abs 0x17c
     51c:	68 00 00 00 	mova	r0,	&0x80000
     520:	00 64       	addc	r4,	r0	
     522:	65 6c       	addc.b	@r12,	r5	
     524:	61 79       	subc.b	@r9,	r1	
     526:	2e 68       	addc	@r8,	r14	
     528:	00 00       	bra	@r0		
     52a:	00 00       	bra	@r0		
     52c:	73 74       	.word	0x7473;	????	Illegal as 2-op instr
     52e:	64 69       	addc.b	@r9,	r4	
     530:	6f 2e       	jc	$-800    	;abs 0x210
     532:	68 00 01 00 	mova	r0,	&0x80001
     536:	00 00       	bra	@r0		
     538:	00 03       	bra	#2		;r3 As==10
     53a:	02 06       	mova	@r6,	r2	
     53c:	37 c5       	bic	@r5+,	r7	
     53e:	00 03       	bra	#2		;r3 As==10
     540:	02 06       	mova	@r6,	r2	
     542:	37 15       	pushm	#4,	r7	
     544:	00 03       	bra	#2		;r3 As==10
     546:	02 0a       	mova	@r10,	r2	
     548:	37 15       	pushm	#4,	r7	
     54a:	00 03       	bra	#2		;r3 As==10
     54c:	02 0e       	mova	@r14,	r2	
     54e:	37 15       	pushm	#4,	r7	
     550:	00 03       	bra	#2		;r3 As==10
     552:	02 10       	rrc	r2		
     554:	37 1d       	.word	0x1d37;	????	
     556:	00 03       	bra	#2		;r3 As==10
     558:	02 12       	push	r2		
     55a:	37 18       	.word	0x1837;	????	
     55c:	00 03       	bra	#2		;r3 As==10
     55e:	02 16       	popm.a	#1,	r2	
     560:	37 15       	pushm	#4,	r7	
     562:	00 03       	bra	#2		;r3 As==10
     564:	02 1c       	.word	0x1c02;	????	
     566:	37 1a       	.word	0x1a37;	????	
     568:	00 03       	bra	#2		;r3 As==10
     56a:	02 22       	jnz	$-1018   	;abs 0x170
     56c:	37 15       	pushm	#4,	r7	
     56e:	00 03       	bra	#2		;r3 As==10
     570:	02 26       	jz	$-1018   	;abs 0x176
     572:	37 15       	pushm	#4,	r7	
     574:	00 03       	bra	#2		;r3 As==10
     576:	02 2e       	jc	$-1018   	;abs 0x17c
     578:	37 03 74 01 	mova	#1,	r7	;r3 As==01
     57c:	00 03       	bra	#2		;r3 As==10
     57e:	02 34       	jge	$+6      	;abs 0x584
     580:	37 24       	jz	$+112    	;abs 0x5f0
     582:	00 03       	bra	#2		;r3 As==10
     584:	02 38       	jl	$+6      	;abs 0x58a
     586:	37 19       	.word	0x1937;	????	
     588:	00 03       	bra	#2		;r3 As==10
     58a:	02 3c       	jmp	$+6      	;abs 0x590
     58c:	37 15       	pushm	#4,	r7	
     58e:	00 03       	bra	#2		;r3 As==10
     590:	02 44       	mov	r4,	r2	
     592:	37 0c 00 03 	mova	768(r12),r7	;0x0300(r12)
     596:	02 46       	mov	r6,	r2	
     598:	37 1d       	.word	0x1d37;	????	
     59a:	00 03       	bra	#2		;r3 As==10
     59c:	02 4a       	mov	r10,	r2	
     59e:	37 0c 00 03 	mova	768(r12),r7	;0x0300(r12)
     5a2:	02 50       	add	r0,	r2	
     5a4:	37 18       	.word	0x1837;	????	
     5a6:	00 03       	bra	#2		;r3 As==10
     5a8:	02 58       	add	r8,	r2	
     5aa:	37 1b       	.word	0x1b37;	????	
     5ac:	00 03       	bra	#2		;r3 As==10
     5ae:	02 5c       	add	r12,	r2	
     5b0:	37 01 00 03 	mova	768(r1),r7	;0x0300(r1)
     5b4:	02 62       	rlc	r2		
     5b6:	37 17       	popm	#4,	r10	
     5b8:	00 03       	bra	#2		;r3 As==10
     5ba:	02 68       	addc	r8,	r2	
     5bc:	37 15       	pushm	#4,	r7	
     5be:	00 03       	bra	#2		;r3 As==10
     5c0:	02 6c       	addc	r12,	r2	
     5c2:	37 15       	pushm	#4,	r7	
     5c4:	00 03       	bra	#2		;r3 As==10
     5c6:	02 70       	subc	r0,	r2	
     5c8:	37 03 68 01 	mova	#1,	r7	;r3 As==01
     5cc:	00 03       	bra	#2		;r3 As==10
     5ce:	02 76       	subc	r6,	r2	
     5d0:	37 6e       	addc	@r14+,	r7	
     5d2:	00 03       	bra	#2		;r3 As==10
     5d4:	02 7a       	subc	r10,	r2	
     5d6:	37 15       	pushm	#4,	r7	
     5d8:	00 03       	bra	#2		;r3 As==10
     5da:	02 82       	sub	r2,	r2	
     5dc:	37 15       	pushm	#4,	r7	
     5de:	00 03       	bra	#2		;r3 As==10
     5e0:	02 8a       	sub	r10,	r2	
     5e2:	37 15       	pushm	#4,	r7	
     5e4:	00 03       	bra	#2		;r3 As==10
     5e6:	02 8e       	sub	r14,	r2	
     5e8:	37 17       	popm	#4,	r10	
     5ea:	00 03       	bra	#2		;r3 As==10
     5ec:	02 96       	cmp	r6,	r2	
     5ee:	37 15       	pushm	#4,	r7	
     5f0:	00 03       	bra	#2		;r3 As==10
     5f2:	02 9e       	cmp	r14,	r2	
     5f4:	37 15       	pushm	#4,	r7	
     5f6:	00 03       	bra	#2		;r3 As==10
     5f8:	02 a6       	dadd	r6,	r2	
     5fa:	37 15       	pushm	#4,	r7	
     5fc:	00 03       	bra	#2		;r3 As==10
     5fe:	02 ae       	dadd	r14,	r2	
     600:	37 15       	pushm	#4,	r7	
     602:	00 03       	bra	#2		;r3 As==10
     604:	02 b4       	bit	r4,	r2	
     606:	37 17       	popm	#4,	r10	
     608:	00 03       	bra	#2		;r3 As==10
     60a:	02 c6       	bic	r6,	r2	
     60c:	37 17       	popm	#4,	r10	
     60e:	00 03       	bra	#2		;r3 As==10
     610:	02 d6       	bis	r6,	r2	
     612:	37 15       	pushm	#4,	r7	
     614:	00 03       	bra	#2		;r3 As==10
     616:	02 e6       	xor	r6,	r2	
     618:	37 16       	popm.a	#4,	r10	
     61a:	00 03       	bra	#2		;r3 As==10
     61c:	02 f2       	and	r2,	r2	
     61e:	37 16       	popm.a	#4,	r10	
     620:	00 03       	bra	#2		;r3 As==10
     622:	02 06       	mova	@r6,	r2	
     624:	38 15       	pushm	#4,	r8	
     626:	00 03       	bra	#2		;r3 As==10
     628:	02 0a       	mova	@r10,	r2	
     62a:	38 01 00 03 	mova	768(r1),r8	;0x0300(r1)
     62e:	02 0c       	mova	@r12,	r2	
     630:	38 16       	popm.a	#4,	r11	
     632:	00 03       	bra	#2		;r3 As==10
     634:	02 14       	pushm.a	#1,	r2	
     636:	38 12       	push	@r8+		
     638:	00 03       	bra	#2		;r3 As==10
     63a:	02 1a       	.word	0x1a02;	????	
     63c:	38 19       	.word	0x1938;	????	
     63e:	00 03       	bra	#2		;r3 As==10
     640:	02 20       	jnz	$+6      	;abs 0x646
     642:	38 15       	pushm	#4,	r8	
     644:	00 03       	bra	#2		;r3 As==10
     646:	02 24       	jz	$+6      	;abs 0x64c
     648:	38 16       	popm.a	#4,	r11	
     64a:	00 03       	bra	#2		;r3 As==10
     64c:	02 32       	jn	$-1018   	;abs 0x252
     64e:	38 15       	pushm	#4,	r8	
     650:	00 03       	bra	#2		;r3 As==10
     652:	02 40       	mov	r0,	r2	
     654:	38 15       	pushm	#4,	r8	
     656:	00 03       	bra	#2		;r3 As==10
     658:	02 4a       	mov	r10,	r2	
     65a:	38 03 5b 01 	mova	#1,	r8	;r3 As==01
     65e:	00 03       	bra	#2		;r3 As==10
     660:	02 4a       	mov	r10,	r2	
     662:	38 15       	pushm	#4,	r8	
     664:	00 03       	bra	#2		;r3 As==10
     666:	02 5c       	add	r12,	r2	
     668:	38 15       	pushm	#4,	r8	
     66a:	00 03       	bra	#2		;r3 As==10
     66c:	02 5e       	add	r14,	r2	
     66e:	38 03 44 01 	mova	#1,	r8	;r3 As==01
     672:	00 03       	bra	#2		;r3 As==10
     674:	02 6e       	addc	r14,	r2	
     676:	38 15       	pushm	#4,	r8	
     678:	00 03       	bra	#2		;r3 As==10
     67a:	02 74       	subc	r4,	r2	
     67c:	38 16       	popm.a	#4,	r11	
     67e:	00 03       	bra	#2		;r3 As==10
     680:	02 78       	subc	r8,	r2	
     682:	38 15       	pushm	#4,	r8	
     684:	00 03       	bra	#2		;r3 As==10
     686:	02 7e       	subc	r14,	r2	
     688:	38 15       	pushm	#4,	r8	
     68a:	00 03       	bra	#2		;r3 As==10
     68c:	02 84       	sub	r4,	r2	
     68e:	38 16       	popm.a	#4,	r11	
     690:	00 03       	bra	#2		;r3 As==10
     692:	02 8a       	sub	r10,	r2	
     694:	38 15       	pushm	#4,	r8	
     696:	00 03       	bra	#2		;r3 As==10
     698:	02 94       	cmp	r4,	r2	
     69a:	38 15       	pushm	#4,	r8	
     69c:	00 03       	bra	#2		;r3 As==10
     69e:	02 98       	cmp	r8,	r2	
     6a0:	38 15       	pushm	#4,	r8	
     6a2:	00 03       	bra	#2		;r3 As==10
     6a4:	02 9e       	cmp	r14,	r2	
     6a6:	38 17       	popm	#4,	r11	
     6a8:	00 03       	bra	#2		;r3 As==10
     6aa:	02 a8       	dadd	r8,	r2	
     6ac:	38 16       	popm.a	#4,	r11	
     6ae:	00 03       	bra	#2		;r3 As==10
     6b0:	02 b4       	bit	r4,	r2	
     6b2:	38 16       	popm.a	#4,	r11	
     6b4:	00 03       	bra	#2		;r3 As==10
     6b6:	02 be       	bit	r14,	r2	
     6b8:	38 15       	pushm	#4,	r8	
     6ba:	00 03       	bra	#2		;r3 As==10
     6bc:	02 c8       	bic	r8,	r2	
     6be:	38 15       	pushm	#4,	r8	
     6c0:	00 03       	bra	#2		;r3 As==10
     6c2:	02 d0       	bis	r0,	r2	
     6c4:	38 17       	popm	#4,	r11	
     6c6:	00 03       	bra	#2		;r3 As==10
     6c8:	02 da       	bis	r10,	r2	
     6ca:	38 16       	popm.a	#4,	r11	
     6cc:	00 03       	bra	#2		;r3 As==10
     6ce:	02 e4       	xor	r4,	r2	
     6d0:	38 16       	popm.a	#4,	r11	
     6d2:	00 03       	bra	#2		;r3 As==10
     6d4:	02 ec       	xor	r12,	r2	
     6d6:	38 15       	pushm	#4,	r8	
     6d8:	00 03       	bra	#2		;r3 As==10
     6da:	02 f4       	and	r4,	r2	
     6dc:	38 15       	pushm	#4,	r8	
     6de:	00 03       	bra	#2		;r3 As==10
     6e0:	02 00       	mova	@r0,	r2	
     6e2:	39 15       	pushm	#4,	r9	
     6e4:	00 03       	bra	#2		;r3 As==10
     6e6:	02 0c       	mova	@r12,	r2	
     6e8:	39 15       	pushm	#4,	r9	
     6ea:	00 03       	bra	#2		;r3 As==10
     6ec:	02 18       	.word	0x1802;	????	
     6ee:	39 15       	pushm	#4,	r9	
     6f0:	00 03       	bra	#2		;r3 As==10
     6f2:	02 24       	jz	$+6      	;abs 0x6f8
     6f4:	39 15       	pushm	#4,	r9	
     6f6:	00 03       	bra	#2		;r3 As==10
     6f8:	02 30       	jn	$+6      	;abs 0x6fe
     6fa:	39 15       	pushm	#4,	r9	
     6fc:	00 03       	bra	#2		;r3 As==10
     6fe:	02 3c       	jmp	$+6      	;abs 0x704
     700:	39 16       	popm.a	#4,	r12	
     702:	00 03       	bra	#2		;r3 As==10
     704:	02 44       	mov	r4,	r2	
     706:	39 15       	pushm	#4,	r9	
     708:	00 03       	bra	#2		;r3 As==10
     70a:	02 4c       	mov	r12,	r2	
     70c:	39 15       	pushm	#4,	r9	
     70e:	00 03       	bra	#2		;r3 As==10
     710:	02 54       	add	r4,	r2	
     712:	39 15       	pushm	#4,	r9	
     714:	00 03       	bra	#2		;r3 As==10
     716:	02 5c       	add	r12,	r2	
     718:	39 15       	pushm	#4,	r9	
     71a:	00 03       	bra	#2		;r3 As==10
     71c:	02 64       	addc	r4,	r2	
     71e:	39 15       	pushm	#4,	r9	
     720:	00 03       	bra	#2		;r3 As==10
     722:	02 6c       	addc	r12,	r2	
     724:	39 15       	pushm	#4,	r9	
     726:	00 03       	bra	#2		;r3 As==10
     728:	02 74       	subc	r4,	r2	
     72a:	39 15       	pushm	#4,	r9	
     72c:	00 03       	bra	#2		;r3 As==10
     72e:	02 7c       	subc	r12,	r2	
     730:	39 16       	popm.a	#4,	r12	
     732:	00 03       	bra	#2		;r3 As==10
     734:	02 84       	sub	r4,	r2	
     736:	39 15       	pushm	#4,	r9	
     738:	00 03       	bra	#2		;r3 As==10
     73a:	02 8c       	sub	r12,	r2	
     73c:	39 15       	pushm	#4,	r9	
     73e:	00 03       	bra	#2		;r3 As==10
     740:	02 94       	cmp	r4,	r2	
     742:	39 15       	pushm	#4,	r9	
     744:	00 03       	bra	#2		;r3 As==10
     746:	02 9c       	cmp	r12,	r2	
     748:	39 17       	popm	#4,	r12	
     74a:	00 03       	bra	#2		;r3 As==10
     74c:	02 a6       	dadd	r6,	r2	
     74e:	39 16       	popm.a	#4,	r12	
     750:	00 03       	bra	#2		;r3 As==10
     752:	02 b8       	bit	r8,	r2	
     754:	39 17       	popm	#4,	r12	
     756:	00 03       	bra	#2		;r3 As==10
     758:	02 c8       	bic	r8,	r2	
     75a:	39 3f       	jmp	$-396    	;abs 0x5ce
     75c:	00 03       	bra	#2		;r3 As==10
     75e:	02 e6       	xor	r6,	r2	
     760:	39 19       	.word	0x1939;	????	
     762:	00 03       	bra	#2		;r3 As==10
     764:	02 ea       	xor	r10,	r2	
     766:	39 15       	pushm	#4,	r9	
     768:	00 03       	bra	#2		;r3 As==10
     76a:	02 08       	mova	@r8,	r2	
     76c:	3a 15       	pushm	#4,	r10	
     76e:	00 03       	bra	#2		;r3 As==10
     770:	02 1c       	.word	0x1c02;	????	
     772:	3a 15       	pushm	#4,	r10	
     774:	00 03       	bra	#2		;r3 As==10
     776:	02 30       	jn	$+6      	;abs 0x77c
     778:	3a 15       	pushm	#4,	r10	
     77a:	00 03       	bra	#2		;r3 As==10
     77c:	02 46       	mov	r6,	r2	
     77e:	3a 15       	pushm	#4,	r10	
     780:	00 03       	bra	#2		;r3 As==10
     782:	02 4e       	mov	r14,	r2	
     784:	3a 0b 00 03 	mova	768(r11),r10	;0x0300(r11)
     788:	02 54       	add	r4,	r2	
     78a:	3a 16       	popm.a	#4,	r13	
     78c:	00 03       	bra	#2		;r3 As==10
     78e:	02 72       	subc	r2,	r2	
     790:	3a 15       	pushm	#4,	r10	
     792:	00 03       	bra	#2		;r3 As==10
     794:	02 78       	subc	r8,	r2	
     796:	3a 22       	jnz	$-906    	;abs 0x40c
     798:	00 03       	bra	#2		;r3 As==10
     79a:	02 80       	sub	r0,	r2	
     79c:	3a 0d 00 03 	mova	768(r13),r10	;0x0300(r13)
     7a0:	02 84       	sub	r4,	r2	
     7a2:	3a 15       	pushm	#4,	r10	
     7a4:	00 03       	bra	#2		;r3 As==10
     7a6:	02 88       	sub	r8,	r2	
     7a8:	3a 15       	pushm	#4,	r10	
     7aa:	00 03       	bra	#2		;r3 As==10
     7ac:	02 8c       	sub	r12,	r2	
     7ae:	3a 15       	pushm	#4,	r10	
     7b0:	00 03       	bra	#2		;r3 As==10
     7b2:	02 90       	cmp	r0,	r2	
     7b4:	3a 16       	popm.a	#4,	r13	
     7b6:	00 03       	bra	#2		;r3 As==10
     7b8:	02 94       	cmp	r4,	r2	
     7ba:	3a 17       	popm	#4,	r13	
     7bc:	00 03       	bra	#2		;r3 As==10
     7be:	02 9c       	cmp	r12,	r2	
     7c0:	3a 03 6d 01 	mova	#1,	r10	;r3 As==01
     7c4:	00 03       	bra	#2		;r3 As==10
     7c6:	02 a6       	dadd	r6,	r2	
     7c8:	3a 27       	jz	$-394    	;abs 0x63e
     7ca:	00 03       	bra	#2		;r3 As==10
     7cc:	02 ba       	bit	r10,	r2	
     7ce:	3a 15       	pushm	#4,	r10	
     7d0:	00 03       	bra	#2		;r3 As==10
     7d2:	02 ca       	bic	r10,	r2	
     7d4:	3a 15       	pushm	#4,	r10	
     7d6:	00 03       	bra	#2		;r3 As==10
     7d8:	02 e0       	xor	r0,	r2	
     7da:	3a 15       	pushm	#4,	r10	
     7dc:	00 03       	bra	#2		;r3 As==10
     7de:	02 f6       	and	r6,	r2	
     7e0:	3a 15       	pushm	#4,	r10	
     7e2:	00 03       	bra	#2		;r3 As==10
     7e4:	02 0c       	mova	@r12,	r2	
     7e6:	3b 15       	pushm	#4,	r11	
     7e8:	00 03       	bra	#2		;r3 As==10
     7ea:	02 28       	jnc	$+6      	;abs 0x7f0
     7ec:	3b 15       	pushm	#4,	r11	
     7ee:	00 03       	bra	#2		;r3 As==10
     7f0:	02 38       	jl	$+6      	;abs 0x7f6
     7f2:	3b 15       	pushm	#4,	r11	
     7f4:	00 03       	bra	#2		;r3 As==10
     7f6:	02 4a       	mov	r10,	r2	
     7f8:	3b 03 70 01 	mova	#1,	r11	;r3 As==01
     7fc:	00 03       	bra	#2		;r3 As==10
     7fe:	02 52       	rla	r2		
     800:	3b 26       	jz	$-904    	;abs 0x478
     802:	00 03       	bra	#2		;r3 As==10
     804:	02 68       	addc	r8,	r2	
     806:	3b 48       	mov	@r8+,	r11	
     808:	00 03       	bra	#2		;r3 As==10
     80a:	02 74       	subc	r4,	r2	
     80c:	3b 15       	pushm	#4,	r11	
     80e:	00 03       	bra	#2		;r3 As==10
     810:	02 82       	sub	r2,	r2	
     812:	3b 15       	pushm	#4,	r11	
     814:	00 03       	bra	#2		;r3 As==10
     816:	02 90       	cmp	r0,	r2	
     818:	3b 16       	popm.a	#4,	r14	
     81a:	00 03       	bra	#2		;r3 As==10
     81c:	02 9c       	cmp	r12,	r2	
     81e:	3b 15       	pushm	#4,	r11	
     820:	00 03       	bra	#2		;r3 As==10
     822:	02 a4       	dadd	r4,	r2	
     824:	3b 17       	popm	#4,	r14	
     826:	00 03       	bra	#2		;r3 As==10
     828:	02 aa       	dadd	r10,	r2	
     82a:	3b 15       	pushm	#4,	r11	
     82c:	00 03       	bra	#2		;r3 As==10
     82e:	02 ae       	dadd	r14,	r2	
     830:	3b 16       	popm.a	#4,	r14	
     832:	00 03       	bra	#2		;r3 As==10
     834:	02 bc       	bit	r12,	r2	
     836:	3b 15       	pushm	#4,	r11	
     838:	00 03       	bra	#2		;r3 As==10
     83a:	02 c6       	bic	r6,	r2	
     83c:	3b 15       	pushm	#4,	r11	
     83e:	00 03       	bra	#2		;r3 As==10
     840:	02 d0       	bis	r0,	r2	
     842:	3b 03 41 01 	mova	#1,	r11	;r3 As==01
     846:	00 03       	bra	#2		;r3 As==10
     848:	02 f2       	and	r2,	r2	
     84a:	3b 15       	pushm	#4,	r11	
     84c:	00 03       	bra	#2		;r3 As==10
     84e:	02 f6       	and	r6,	r2	
     850:	3b 15       	pushm	#4,	r11	
     852:	00 03       	bra	#2		;r3 As==10
     854:	02 fa       	and	r10,	r2	
     856:	3b 16       	popm.a	#4,	r14	
     858:	00 03       	bra	#2		;r3 As==10
     85a:	02 fe       	and	r14,	r2	
     85c:	3b 19       	.word	0x193b;	????	
     85e:	00 03       	bra	#2		;r3 As==10
     860:	02 00       	mova	@r0,	r2	
     862:	3c 16       	popm.a	#4,	r15	
     864:	00 03       	bra	#2		;r3 As==10
     866:	02 04       	mova	@r4,	r2	
     868:	3c 19       	.word	0x193c;	????	
     86a:	00 03       	bra	#2		;r3 As==10
     86c:	02 06       	mova	@r6,	r2	
     86e:	3c 16       	popm.a	#4,	r15	
     870:	00 03       	bra	#2		;r3 As==10
     872:	02 08       	mova	@r8,	r2	
     874:	3c 15       	pushm	#4,	r12	
     876:	00 03       	bra	#2		;r3 As==10
     878:	02 0a       	mova	@r10,	r2	
     87a:	3c 16       	popm.a	#4,	r15	
     87c:	00 03       	bra	#2		;r3 As==10
     87e:	02 14       	pushm.a	#1,	r2	
     880:	3c 16       	popm.a	#4,	r15	
     882:	00 03       	bra	#2		;r3 As==10
     884:	02 18       	.word	0x1802;	????	
     886:	3c 16       	popm.a	#4,	r15	
     888:	00 03       	bra	#2		;r3 As==10
     88a:	02 1c       	.word	0x1c02;	????	
     88c:	3c 13       	reti			;return from interupt
     88e:	00 03       	bra	#2		;r3 As==10
     890:	02 24       	jz	$+6      	;abs 0x896
     892:	3c 03 68 01 	mova	#1,	r12	;r3 As==01
     896:	00 03       	bra	#2		;r3 As==10
     898:	02 28       	jnc	$+6      	;abs 0x89e
     89a:	3c 33       	jn	$-390    	;abs 0x714
     89c:	00 03       	bra	#2		;r3 As==10
     89e:	02 2a       	jnc	$-1018   	;abs 0x4a4
     8a0:	3c 0f 00 03 	mova	768(r15),r12	;0x0300(r15)
     8a4:	02 2e       	jc	$-1018   	;abs 0x4aa
     8a6:	3c 15       	pushm	#4,	r12	
     8a8:	00 03       	bra	#2		;r3 As==10
     8aa:	02 30       	jn	$+6      	;abs 0x8b0
     8ac:	3c 15       	pushm	#4,	r12	
     8ae:	00 03       	bra	#2		;r3 As==10
     8b0:	02 32       	jn	$-1018   	;abs 0x4b6
     8b2:	3c 18       	.word	0x183c;	????	
     8b4:	00 03       	bra	#2		;r3 As==10
     8b6:	02 3e       	jmp	$-1018   	;abs 0x4bc
     8b8:	3c 03 60 01 	mova	#1,	r12	;r3 As==01
     8bc:	00 03       	bra	#2		;r3 As==10
     8be:	02 42       	mov	r2,	r2	
     8c0:	3c 2d       	jc	$+634    	;abs 0xb3a
     8c2:	00 03       	bra	#2		;r3 As==10
     8c4:	02 46       	mov	r6,	r2	
     8c6:	3c 2a       	jnc	$-902    	;abs 0x540
     8c8:	00 03       	bra	#2		;r3 As==10
     8ca:	02 5a       	add	r10,	r2	
     8cc:	3c 0a 00 03 	mova	768(r10),r12	;0x0300(r10)
     8d0:	02 60       	addc	r0,	r2	
     8d2:	3c 13       	reti			;return from interupt
     8d4:	00 03       	bra	#2		;r3 As==10
     8d6:	02 68       	addc	r8,	r2	
     8d8:	3c 03 5c 01 	mova	#1,	r12	;r3 As==01
     8dc:	00 03       	bra	#2		;r3 As==10
     8de:	02 6c       	addc	r12,	r2	
     8e0:	3c 3f       	jmp	$-390    	;abs 0x75a
     8e2:	00 03       	bra	#2		;r3 As==10
     8e4:	02 6e       	addc	r14,	r2	
     8e6:	3c 0f 00 03 	mova	768(r15),r12	;0x0300(r15)
     8ea:	02 72       	subc	r2,	r2	
     8ec:	3c 15       	pushm	#4,	r12	
     8ee:	00 03       	bra	#2		;r3 As==10
     8f0:	02 74       	subc	r4,	r2	
     8f2:	3c 15       	pushm	#4,	r12	
     8f4:	00 03       	bra	#2		;r3 As==10
     8f6:	02 76       	subc	r6,	r2	
     8f8:	3c 18       	.word	0x183c;	????	
     8fa:	00 03       	bra	#2		;r3 As==10
     8fc:	02 82       	sub	r2,	r2	
     8fe:	3c 03 54 01 	mova	#1,	r12	;r3 As==01
     902:	00 03       	bra	#2		;r3 As==10
     904:	02 86       	sub	r6,	r2	
     906:	3c 39       	jl	$+634    	;abs 0xb80
     908:	00 03       	bra	#2		;r3 As==10
     90a:	02 8e       	sub	r14,	r2	
     90c:	3c 03 67 01 	mova	#1,	r12	;r3 As==01
     910:	00 03       	bra	#2		;r3 As==10
     912:	02 92       	cmp	r2,	r2	
     914:	3c 15       	pushm	#4,	r12	
     916:	00 03       	bra	#2		;r3 As==10
     918:	02 96       	cmp	r6,	r2	
     91a:	3c 0c 00 03 	mova	768(r12),r12	;0x0300(r12)
     91e:	02 9a       	cmp	r10,	r2	
     920:	3c 15       	pushm	#4,	r12	
     922:	00 03       	bra	#2		;r3 As==10
     924:	02 9e       	cmp	r14,	r2	
     926:	3c 50 00 03 	add	#768,	r12	;#0x0300
     92a:	02 b0       	bit	r0,	r2	
     92c:	3c 17       	popm	#4,	r15	
     92e:	00 03       	bra	#2		;r3 As==10
     930:	02 c0       	bic	r0,	r2	
     932:	3c 15       	pushm	#4,	r12	
     934:	00 03       	bra	#2		;r3 As==10
     936:	02 d0       	bis	r0,	r2	
     938:	3c 16       	popm.a	#4,	r15	
     93a:	00 03       	bra	#2		;r3 As==10
     93c:	02 dc       	bis	r12,	r2	
     93e:	3c 16       	popm.a	#4,	r15	
     940:	00 03       	bra	#2		;r3 As==10
     942:	02 f0       	and	r0,	r2	
     944:	3c 15       	pushm	#4,	r12	
     946:	00 03       	bra	#2		;r3 As==10
     948:	02 f4       	and	r4,	r2	
     94a:	3c 01 00 03 	mova	768(r1),r12	;0x0300(r1)
     94e:	02 f6       	and	r6,	r2	
     950:	3c 0a 00 03 	mova	768(r10),r12	;0x0300(r10)
     954:	02 fa       	and	r10,	r2	
     956:	3c 20       	jnz	$+122    	;abs 0x9d0
     958:	00 03       	bra	#2		;r3 As==10
     95a:	02 02       	mova	#4,	r2	;r2 As==10
     95c:	3d 12       	push	@r13+		
     95e:	00 03       	bra	#2		;r3 As==10
     960:	02 08       	mova	@r8,	r2	
     962:	3d 19       	.word	0x193d;	????	
     964:	00 03       	bra	#2		;r3 As==10
     966:	02 0e       	mova	@r14,	r2	
     968:	3d 15       	pushm	#4,	r13	
     96a:	00 03       	bra	#2		;r3 As==10
     96c:	02 12       	push	r2		
     96e:	3d 16       	popm.a	#4,	r0	
     970:	00 03       	bra	#2		;r3 As==10
     972:	02 20       	jnz	$+6      	;abs 0x978
     974:	3d 15       	pushm	#4,	r13	
     976:	00 03       	bra	#2		;r3 As==10
     978:	02 2e       	jc	$-1018   	;abs 0x57e
     97a:	3d 15       	pushm	#4,	r13	
     97c:	00 03       	bra	#2		;r3 As==10
     97e:	02 38       	jl	$+6      	;abs 0x984
     980:	3d 17       	popm	#4,	r0	
     982:	00 03       	bra	#2		;r3 As==10
     984:	02 38       	jl	$+6      	;abs 0x98a
     986:	3d 15       	pushm	#4,	r13	
     988:	00 03       	bra	#2		;r3 As==10
     98a:	02 48       	mov	r8,	r2	
     98c:	3d 15       	pushm	#4,	r13	
     98e:	00 03       	bra	#2		;r3 As==10
     990:	02 4c       	mov	r12,	r2	
     992:	3d 16       	popm.a	#4,	r0	
     994:	00 03       	bra	#2		;r3 As==10
     996:	02 50       	add	r0,	r2	
     998:	3d 15       	pushm	#4,	r13	
     99a:	00 03       	bra	#2		;r3 As==10
     99c:	02 52       	rla	r2		
     99e:	3d 17       	popm	#4,	r0	
     9a0:	00 03       	bra	#2		;r3 As==10
     9a2:	02 52       	rla	r2		
     9a4:	3d 15       	pushm	#4,	r13	
     9a6:	00 03       	bra	#2		;r3 As==10
     9a8:	02 5a       	add	r10,	r2	
     9aa:	3d 15       	pushm	#4,	r13	
     9ac:	00 03       	bra	#2		;r3 As==10
     9ae:	02 62       	rlc	r2		
     9b0:	3d 16       	popm.a	#4,	r0	
     9b2:	00 03       	bra	#2		;r3 As==10
     9b4:	02 66       	addc	r6,	r2	
     9b6:	3d 15       	pushm	#4,	r13	
     9b8:	00 03       	bra	#2		;r3 As==10
     9ba:	02 6a       	addc	r10,	r2	
     9bc:	3d 15       	pushm	#4,	r13	
     9be:	00 03       	bra	#2		;r3 As==10
     9c0:	02 6c       	addc	r12,	r2	
     9c2:	3d 17       	popm	#4,	r0	
     9c4:	00 03       	bra	#2		;r3 As==10
     9c6:	02 78       	subc	r8,	r2	
     9c8:	3d 19       	.word	0x193d;	????	
     9ca:	00 03       	bra	#2		;r3 As==10
     9cc:	02 84       	sub	r4,	r2	
     9ce:	3d 15       	pushm	#4,	r13	
     9d0:	00 03       	bra	#2		;r3 As==10
     9d2:	02 92       	cmp	r2,	r2	
     9d4:	3d 15       	pushm	#4,	r13	
     9d6:	00 03       	bra	#2		;r3 As==10
     9d8:	02 9c       	cmp	r12,	r2	
     9da:	3d 15       	pushm	#4,	r13	
     9dc:	00 03       	bra	#2		;r3 As==10
     9de:	02 ac       	dadd	r12,	r2	
     9e0:	3d 18       	.word	0x183d;	????	
     9e2:	00 03       	bra	#2		;r3 As==10
     9e4:	02 c2       	bic	r2,	r2	
     9e6:	3d 13       	reti			;return from interupt
     9e8:	00 03       	bra	#2		;r3 As==10
     9ea:	02 ce       	bic	r14,	r2	
     9ec:	3d 03 74 01 	mova	#1,	r13	;r3 As==01
     9f0:	00 03       	bra	#2		;r3 As==10
     9f2:	02 d0       	bis	r0,	r2	
     9f4:	3d 29       	jnc	$+636    	;abs 0xc70
     9f6:	00 03       	bra	#2		;r3 As==10
     9f8:	02 d6       	bis	r6,	r2	
     9fa:	3d 01 00 03 	mova	768(r1),r13	;0x0300(r1)
     9fe:	02 e0       	xor	r0,	r2	
     a00:	3d 01 00 03 	mova	768(r1),r13	;0x0300(r1)
     a04:	02 e2       	xor	r2,	r2	
     a06:	3d 11       	rra	@r13+		
     a08:	00 03       	bra	#2		;r3 As==10
     a0a:	02 e6       	xor	r6,	r2	
     a0c:	3d 1a       	.word	0x1a3d;	????	
     a0e:	00 03       	bra	#2		;r3 As==10
     a10:	02 f2       	and	r2,	r2	
     a12:	3d 0b 00 03 	mova	768(r11),r13	;0x0300(r11)
     a16:	02 f4       	and	r4,	r2	
     a18:	3d 1e       	.word	0x1e3d;	????	
     a1a:	00 03       	bra	#2		;r3 As==10
     a1c:	02 f8       	and	r8,	r2	
     a1e:	3d 10       	rrc	@r13+		
     a20:	00 03       	bra	#2		;r3 As==10
     a22:	02 02       	mova	#4,	r2	;r2 As==10
     a24:	3e 1a       	.word	0x1a3e;	????	
     a26:	00 03       	bra	#2		;r3 As==10
     a28:	02 0e       	mova	@r14,	r2	
     a2a:	3e 17       	popm	#4,	r1	
     a2c:	00 03       	bra	#2		;r3 As==10
     a2e:	02 10       	rrc	r2		
     a30:	3e 15       	pushm	#4,	r14	
     a32:	00 03       	bra	#2		;r3 As==10
     a34:	02 1c       	.word	0x1c02;	????	
     a36:	3e 1a       	.word	0x1a3e;	????	
     a38:	00 03       	bra	#2		;r3 As==10
     a3a:	02 2e       	jc	$-1018   	;abs 0x640
     a3c:	3e 03 4c 01 	mova	#1,	r14	;r3 As==01
     a40:	00 03       	bra	#2		;r3 As==10
     a42:	02 3e       	jmp	$-1018   	;abs 0x648
     a44:	3e 17       	popm	#4,	r1	
     a46:	00 03       	bra	#2		;r3 As==10
     a48:	02 42       	mov	r2,	r2	
     a4a:	3e 49       	mov	@r9+,	r14	
     a4c:	00 03       	bra	#2		;r3 As==10
     a4e:	02 48       	mov	r8,	r2	
     a50:	3e 15       	pushm	#4,	r14	
     a52:	00 03       	bra	#2		;r3 As==10
     a54:	02 4e       	mov	r14,	r2	
     a56:	3e 03 47 01 	mova	#1,	r14	;r3 As==01
     a5a:	00 03       	bra	#2		;r3 As==10
     a5c:	02 5e       	add	r14,	r2	
     a5e:	3e 15       	pushm	#4,	r14	
     a60:	00 03       	bra	#2		;r3 As==10
     a62:	02 62       	rlc	r2		
     a64:	3e 45       	mov	@r5+,	r14	
     a66:	00 03       	bra	#2		;r3 As==10
     a68:	02 66       	addc	r6,	r2	
     a6a:	3e 15       	pushm	#4,	r14	
     a6c:	00 03       	bra	#2		;r3 As==10
     a6e:	02 68       	addc	r8,	r2	
     a70:	3e 03 4e 01 	mova	#1,	r14	;r3 As==01
     a74:	00 03       	bra	#2		;r3 As==10
     a76:	02 6e       	addc	r14,	r2	
     a78:	3e 47       	mov	@r7+,	r14	
     a7a:	00 03       	bra	#2		;r3 As==10
     a7c:	02 74       	subc	r4,	r2	
     a7e:	3e 03 be 7d 	mova	#1,	r14	;r3 As==01
     a82:	01 00       	mova	@r0,	r1	
     a84:	03 02       	.word	0x0203;	????	Illegal as address instr
     a86:	74 3e       	jmp	$-790    	;abs 0x770
     a88:	15 00       	mova	#0x00000,r5	
     a8a:	03 02       	.word	0x0203;	????	Illegal as address instr
     a8c:	78 3e       	jmp	$-782    	;abs 0x77e
     a8e:	16 00       	mova	#0x00000,r6	
     a90:	03 02       	.word	0x0203;	????	Illegal as address instr
     a92:	7c 3e       	jmp	$-774    	;abs 0x78c
     a94:	03 c9       	.word	0xc903;	????	Illegal as 2-op instr
     a96:	02 01       	mova	@r1,	r2	
     a98:	00 03       	bra	#2		;r3 As==10
     a9a:	02 8a       	sub	r10,	r2	
     a9c:	3e 15       	pushm	#4,	r14	
     a9e:	00 03       	bra	#2		;r3 As==10
     aa0:	02 90       	cmp	r0,	r2	
     aa2:	3e 01 00 03 	mova	768(r1),r14	;0x0300(r1)
     aa6:	02 94       	cmp	r4,	r2	
     aa8:	3e 01 00 03 	mova	768(r1),r14	;0x0300(r1)
     aac:	02 a0       	dadd	r0,	r2	
     aae:	3e 21       	jnz	$+638    	;abs 0xd2c
     ab0:	00 03       	bra	#2		;r3 As==10
     ab2:	02 a2       	dadd	r2,	r2	
     ab4:	3e 13       	reti			;return from interupt
     ab6:	00 03       	bra	#2		;r3 As==10
     ab8:	02 c6       	bic	r6,	r2	
     aba:	3e 15       	pushm	#4,	r14	
     abc:	00 03       	bra	#2		;r3 As==10
     abe:	02 d8       	bis	r8,	r2	
     ac0:	3e 15       	pushm	#4,	r14	
     ac2:	00 03       	bra	#2		;r3 As==10
     ac4:	02 ee       	xor	r14,	r2	
     ac6:	3e 16       	popm.a	#4,	r1	
     ac8:	00 03       	bra	#2		;r3 As==10
     aca:	02 fa       	and	r10,	r2	
     acc:	3e 10       	rrc	@r14+		
     ace:	00 03       	bra	#2		;r3 As==10
     ad0:	02 fe       	and	r14,	r2	
     ad2:	3e 03 74 01 	mova	#1,	r14	;r3 As==01
     ad6:	00 03       	bra	#2		;r3 As==10
     ad8:	02 00       	mova	@r0,	r2	
     ada:	3f 21       	jnz	$+640    	;abs 0xd5a
     adc:	00 03       	bra	#2		;r3 As==10
     ade:	02 02       	mova	#4,	r2	;r2 As==10
     ae0:	3f 13       	reti			;return from interupt
     ae2:	00 03       	bra	#2		;r3 As==10
     ae4:	02 08       	mova	@r8,	r2	
     ae6:	3f 1b       	.word	0x1b3f;	????	
     ae8:	00 03       	bra	#2		;r3 As==10
     aea:	02 10       	rrc	r2		
     aec:	3f 15       	pushm	#4,	r15	
     aee:	00 03       	bra	#2		;r3 As==10
     af0:	02 14       	pushm.a	#1,	r2	
     af2:	3f 15       	pushm	#4,	r15	
     af4:	00 03       	bra	#2		;r3 As==10
     af6:	02 1a       	.word	0x1a02;	????	
     af8:	3f 03 b4 7f 	mova	#1,	r15	;r3 As==01
     afc:	01 00       	mova	@r0,	r1	
     afe:	03 02       	.word	0x0203;	????	Illegal as address instr
     b00:	22 3f       	jmp	$-442    	;abs 0x946
     b02:	15 00       	mova	#0x00000,r5	
     b04:	03 02       	.word	0x0203;	????	Illegal as address instr
     b06:	28 3f       	jmp	$-430    	;abs 0x958
     b08:	16 00       	mova	#0x00000,r6	
     b0a:	03 02       	.word	0x0203;	????	Illegal as address instr
     b0c:	2c 3f       	jmp	$-422    	;abs 0x966
     b0e:	15 00       	mova	#0x00000,r5	
     b10:	03 02       	.word	0x0203;	????	Illegal as address instr
     b12:	30 3f       	jmp	$-414    	;abs 0x974
     b14:	5e 00       	rrcm	#1,	r14	
     b16:	03 02       	.word	0x0203;	????	Illegal as address instr
     b18:	34 3f       	jmp	$-406    	;abs 0x982
     b1a:	15 00       	mova	#0x00000,r5	
     b1c:	03 02       	.word	0x0203;	????	Illegal as address instr
     b1e:	3c 3f       	jmp	$-390    	;abs 0x998
     b20:	15 00       	mova	#0x00000,r5	
     b22:	03 02       	.word	0x0203;	????	Illegal as address instr
     b24:	3e 3f       	jmp	$-386    	;abs 0x9a2
     b26:	12 00       	mova	#0x00000,r2	
     b28:	03 02       	.word	0x0203;	????	Illegal as address instr
     b2a:	42 3f       	jmp	$-378    	;abs 0x9b0
     b2c:	18 00       	mova	#0x00000,r8	
     b2e:	03 02       	.word	0x0203;	????	Illegal as address instr
     b30:	48 3f       	jmp	$-366    	;abs 0x9c2
     b32:	03 af       	.word	0xaf03;	????	Illegal as 2-op instr
     b34:	7f 01 00 03 	mova	r1,	768(r15);0x0300(r15)
     b38:	02 cc       	bic	r12,	r2	
     b3a:	41 00       	rrcm.a	#1,	r1	
     b3c:	01 01       	mova	@r1,	r1	
     b3e:	22 01 00 00 	mova	&0x10000,r2	
     b42:	02 00       	mova	@r0,	r2	
     b44:	78 00 00 00 	mova	r0,	0(r8)	;0x0000(r8)
     b48:	01 01       	mova	@r1,	r1	
     b4a:	f6 f5 0a 00 	and.b	@r5+,	10(r6)	;0x000a(r6)
     b4e:	01 01       	mova	@r1,	r1	
     b50:	01 01       	mova	@r1,	r1	
     b52:	00 00       	bra	@r0		
     b54:	00 01       	bra	@r1		
     b56:	63 3a       	jl	$-824    	;abs 0x81e
     b58:	5c 6d 73 70 	addc.b	28787(r13),r12	;0x7073(r13)
     b5c:	67 63       	addc.b	#2,	r7	;r3 As==10
     b5e:	63 5c       	.word	0x5c63;	????	Illegal as 2-op instr
     b60:	62 69       	addc.b	@r9,	r2	
     b62:	6e 5c       	add.b	@r12,	r14	
     b64:	2e 2e       	jc	$-930    	;abs 0x7c2
     b66:	2f 6c       	addc	@r12,	r15	
     b68:	69 62       	addc.b	#4,	r9	;r2 As==10
     b6a:	2f 67       	addc	@r7,	r15	
     b6c:	63 63       	.word	0x6363;	????	Illegal as 2-op instr
     b6e:	2f 6d       	addc	@r13,	r15	
     b70:	73 70       	.word	0x7073;	????	Illegal as 2-op instr
     b72:	34 33       	jn	$-406    	;abs 0x9dc
     b74:	30 2f       	jc	$-414    	;abs 0x9d6
     b76:	34 2e       	jc	$-918    	;abs 0x7e0
     b78:	35 2e       	jc	$-916    	;abs 0x7e4
     b7a:	33 2f       	jc	$-408    	;abs 0x9e2
     b7c:	2e 2e       	jc	$-930    	;abs 0x7da
     b7e:	2f 2e       	jc	$-928    	;abs 0x7de
     b80:	2e 2f       	jc	$-418    	;abs 0x9de
     b82:	2e 2e       	jc	$-930    	;abs 0x7e0
     b84:	2f 2e       	jc	$-928    	;abs 0x7e4
     b86:	2e 2f       	jc	$-418    	;abs 0x9e4
     b88:	6d 73       	subc.b	#2,	r13	;r3 As==10
     b8a:	70 34       	jge	$+226    	;abs 0xc6c
     b8c:	33 30       	jn	$+104    	;abs 0xbf4
     b8e:	2f 69       	addc	@r9,	r15	
     b90:	6e 63       	addc.b	#2,	r14	;r3 As==10
     b92:	6c 75       	subc.b	@r5,	r12	
     b94:	64 65       	addc.b	@r5,	r4	
     b96:	00 00       	bra	@r0		
     b98:	64 65       	addc.b	@r5,	r4	
     b9a:	6c 61       	addc.b	@r1,	r12	
     b9c:	79 2e       	jc	$-780    	;abs 0x890
     b9e:	63 00 00 00 	mova	r0,	&0x30000
     ba2:	00 6d       	addc	r13,	r0	
     ba4:	73 70       	.word	0x7073;	????	Illegal as 2-op instr
     ba6:	34 33       	jn	$-406    	;abs 0xa10
     ba8:	30 66       	addc	@r6+,	r0	
     baa:	32 36       	jge	$-922    	;abs 0x810
     bac:	31 38       	jl	$+100    	;abs 0xc10
     bae:	2e 68       	addc	@r8,	r14	
     bb0:	00 01       	bra	@r1		
     bb2:	00 00       	bra	@r0		
     bb4:	64 65       	addc.b	@r5,	r4	
     bb6:	6c 61       	addc.b	@r1,	r12	
     bb8:	79 2e       	jc	$-780    	;abs 0x8ac
     bba:	68 00 00 00 	mova	r0,	&0x80000
     bbe:	00 00       	bra	@r0		
     bc0:	00 03       	bra	#2		;r3 As==10
     bc2:	02 cc       	bic	r12,	r2	
     bc4:	41 1b       	.word	0x1b41;	????	
     bc6:	00 03       	bra	#2		;r3 As==10
     bc8:	02 cc       	bic	r12,	r2	
     bca:	41 19       	.word	0x1941;	????	
     bcc:	00 03       	bra	#2		;r3 As==10
     bce:	02 ce       	bic	r14,	r2	
     bd0:	41 17       	popm	#5,	r5	
     bd2:	00 03       	bra	#2		;r3 As==10
     bd4:	02 ce       	bic	r14,	r2	
     bd6:	41 19       	.word	0x1941;	????	
     bd8:	00 03       	bra	#2		;r3 As==10
     bda:	02 d0       	bis	r0,	r2	
     bdc:	41 19       	.word	0x1941;	????	
     bde:	00 03       	bra	#2		;r3 As==10
     be0:	02 d0       	bis	r0,	r2	
     be2:	41 17       	popm	#5,	r5	
     be4:	00 03       	bra	#2		;r3 As==10
     be6:	02 d4       	bis	r4,	r2	
     be8:	41 01       	rram.a	#1,	r1	
     bea:	00 03       	bra	#2		;r3 As==10
     bec:	02 e0       	xor	r0,	r2	
     bee:	41 1a       	.word	0x1a41;	????	
     bf0:	00 03       	bra	#2		;r3 As==10
     bf2:	02 e6       	xor	r6,	r2	
     bf4:	41 17       	popm	#5,	r5	
     bf6:	00 03       	bra	#2		;r3 As==10
     bf8:	02 ea       	xor	r10,	r2	
     bfa:	41 01       	rram.a	#1,	r1	
     bfc:	00 03       	bra	#2		;r3 As==10
     bfe:	02 fa       	and	r10,	r2	
     c00:	41 15       	pushm	#5,	r1	
     c02:	00 03       	bra	#2		;r3 As==10
     c04:	02 00       	mova	@r0,	r2	
     c06:	42 16       	popm.a	#5,	r6	
     c08:	00 03       	bra	#2		;r3 As==10
     c0a:	02 00       	mova	@r0,	r2	
     c0c:	42 15       	pushm	#5,	r2	
     c0e:	00 03       	bra	#2		;r3 As==10
     c10:	02 06       	mova	@r6,	r2	
     c12:	42 15       	pushm	#5,	r2	
     c14:	00 03       	bra	#2		;r3 As==10
     c16:	02 08       	mova	@r8,	r2	
     c18:	42 16       	popm.a	#5,	r6	
     c1a:	00 03       	bra	#2		;r3 As==10
     c1c:	02 08       	mova	@r8,	r2	
     c1e:	42 15       	pushm	#5,	r2	
     c20:	00 03       	bra	#2		;r3 As==10
     c22:	02 0c       	mova	@r12,	r2	
     c24:	42 15       	pushm	#5,	r2	
     c26:	00 03       	bra	#2		;r3 As==10
     c28:	02 16       	popm.a	#1,	r2	
     c2a:	42 17       	popm	#5,	r6	
     c2c:	00 03       	bra	#2		;r3 As==10
     c2e:	02 18       	.word	0x1802;	????	
     c30:	42 18       	.word	0x1842;	????	
     c32:	00 03       	bra	#2		;r3 As==10
     c34:	02 1c       	.word	0x1c02;	????	
     c36:	42 16       	popm.a	#5,	r6	
     c38:	00 03       	bra	#2		;r3 As==10
     c3a:	02 20       	jnz	$+6      	;abs 0xc40
     c3c:	42 17       	popm	#5,	r6	
     c3e:	00 03       	bra	#2		;r3 As==10
     c40:	02 22       	jnz	$-1018   	;abs 0x846
     c42:	42 15       	pushm	#5,	r2	
     c44:	00 03       	bra	#2		;r3 As==10
     c46:	02 30       	jn	$+6      	;abs 0xc4c
     c48:	42 15       	pushm	#5,	r2	
     c4a:	00 03       	bra	#2		;r3 As==10
     c4c:	02 34       	jge	$+6      	;abs 0xc52
     c4e:	42 16       	popm.a	#5,	r6	
     c50:	00 03       	bra	#2		;r3 As==10
     c52:	02 38       	jl	$+6      	;abs 0xc58
     c54:	42 16       	popm.a	#5,	r6	
     c56:	00 03       	bra	#2		;r3 As==10
     c58:	02 3e       	jmp	$-1018   	;abs 0x85e
     c5a:	42 15       	pushm	#5,	r2	
     c5c:	00 03       	bra	#2		;r3 As==10
     c5e:	02 44       	mov	r4,	r2	
     c60:	42 00       	rrcm.a	#1,	r2	
     c62:	01 01       	mova	@r1,	r1	
     c64:	93 01       	.word	0x0193;	????	Illegal as address instr
     c66:	00 00       	bra	@r0		
     c68:	02 00       	mova	@r0,	r2	
     c6a:	95 00 00 00 	cmpa	#0x00000,r5	
     c6e:	01 01       	mova	@r1,	r1	
     c70:	f6 f5 0a 00 	and.b	@r5+,	10(r6)	;0x000a(r6)
     c74:	01 01       	mova	@r1,	r1	
     c76:	01 01       	mova	@r1,	r1	
     c78:	00 00       	bra	@r0		
     c7a:	00 01       	bra	@r1		
     c7c:	63 3a       	jl	$-824    	;abs 0x944
     c7e:	5c 6d 73 70 	addc.b	28787(r13),r12	;0x7073(r13)
     c82:	67 63       	addc.b	#2,	r7	;r3 As==10
     c84:	63 5c       	.word	0x5c63;	????	Illegal as 2-op instr
     c86:	62 69       	addc.b	@r9,	r2	
     c88:	6e 5c       	add.b	@r12,	r14	
     c8a:	2e 2e       	jc	$-930    	;abs 0x8e8
     c8c:	2f 6c       	addc	@r12,	r15	
     c8e:	69 62       	addc.b	#4,	r9	;r2 As==10
     c90:	2f 67       	addc	@r7,	r15	
     c92:	63 63       	.word	0x6363;	????	Illegal as 2-op instr
     c94:	2f 6d       	addc	@r13,	r15	
     c96:	73 70       	.word	0x7073;	????	Illegal as 2-op instr
     c98:	34 33       	jn	$-406    	;abs 0xb02
     c9a:	30 2f       	jc	$-414    	;abs 0xafc
     c9c:	34 2e       	jc	$-918    	;abs 0x906
     c9e:	35 2e       	jc	$-916    	;abs 0x90a
     ca0:	33 2f       	jc	$-408    	;abs 0xb08
     ca2:	2e 2e       	jc	$-930    	;abs 0x900
     ca4:	2f 2e       	jc	$-928    	;abs 0x904
     ca6:	2e 2f       	jc	$-418    	;abs 0xb04
     ca8:	2e 2e       	jc	$-930    	;abs 0x906
     caa:	2f 2e       	jc	$-928    	;abs 0x90a
     cac:	2e 2f       	jc	$-418    	;abs 0xb0a
     cae:	6d 73       	subc.b	#2,	r13	;r3 As==10
     cb0:	70 34       	jge	$+226    	;abs 0xd92
     cb2:	33 30       	jn	$+104    	;abs 0xd1a
     cb4:	2f 69       	addc	@r9,	r15	
     cb6:	6e 63       	addc.b	#2,	r14	;r3 As==10
     cb8:	6c 75       	subc.b	@r5,	r12	
     cba:	64 65       	addc.b	@r5,	r4	
     cbc:	00 00       	bra	@r0		
     cbe:	61 6e       	addc.b	@r14,	r1	
     cc0:	61 6c       	addc.b	@r12,	r1	
     cc2:	6f 67       	addc.b	@r7,	r15	
     cc4:	2e 63       	addc	#2,	r14	;r3 As==10
     cc6:	00 00       	bra	@r0		
     cc8:	00 00       	bra	@r0		
     cca:	6d 73       	subc.b	#2,	r13	;r3 As==10
     ccc:	70 34       	jge	$+226    	;abs 0xdae
     cce:	33 30       	jn	$+104    	;abs 0xd36
     cd0:	66 32       	jn	$-818    	;abs 0x99e
     cd2:	36 31       	jn	$+622    	;abs 0xf40
     cd4:	38 2e       	jc	$-910    	;abs 0x946
     cd6:	68 00 01 00 	mova	r0,	&0x80001
     cda:	00 61       	addc	r1,	r0	
     cdc:	6e 61       	addc.b	@r1,	r14	
     cde:	6c 6f       	addc.b	@r15,	r12	
     ce0:	67 2e       	jc	$-816    	;abs 0x9b0
     ce2:	68 00 00 00 	mova	r0,	&0x80000
     ce6:	00 73       	sbc	r0		
     ce8:	68 6f       	addc.b	@r15,	r8	
     cea:	72 74       	subc.b	@r4+,	r2	
     cec:	74 79       	subc.b	@r9+,	r4	
     cee:	70 65       	addc.b	@r5+,	r0	
     cf0:	73 2e       	jc	$-792    	;abs 0x9d8
     cf2:	68 00 00 00 	mova	r0,	&0x80000
     cf6:	00 64       	addc	r4,	r0	
     cf8:	65 6c       	addc.b	@r12,	r5	
     cfa:	61 79       	subc.b	@r9,	r1	
     cfc:	2e 68       	addc	@r8,	r14	
     cfe:	00 00       	bra	@r0		
     d00:	00 00       	bra	@r0		
     d02:	00 00       	bra	@r0		
     d04:	03 02       	.word	0x0203;	????	Illegal as address instr
     d06:	44 42       	mov.b	r2,	r4	
     d08:	1c 00       	mova	#0x00000,r12	
     d0a:	03 02       	.word	0x0203;	????	Illegal as address instr
     d0c:	44 42       	mov.b	r2,	r4	
     d0e:	15 00       	mova	#0x00000,r5	
     d10:	03 02       	.word	0x0203;	????	Illegal as address instr
     d12:	48 42       	mov.b	r2,	r8	
     d14:	16 00       	mova	#0x00000,r6	
     d16:	03 02       	.word	0x0203;	????	Illegal as address instr
     d18:	4e 42       	mov.b	r2,	r14	
     d1a:	15 00       	mova	#0x00000,r5	
     d1c:	03 02       	.word	0x0203;	????	Illegal as address instr
     d1e:	54 42 15 00 	mov.b	&0x0015,r4	
     d22:	03 02       	.word	0x0203;	????	Illegal as address instr
     d24:	5a 42 15 00 	mov.b	&0x0015,r10	
     d28:	03 02       	.word	0x0203;	????	Illegal as address instr
     d2a:	5e 42 15 00 	mov.b	&0x0015,r14	
     d2e:	03 02       	.word	0x0203;	????	Illegal as address instr
     d30:	60 42       	br	#4		;r2 As==10
     d32:	16 00       	mova	#0x00000,r6	
     d34:	03 02       	.word	0x0203;	????	Illegal as address instr
     d36:	72 42       	mov.b	#8,	r2	;r2 As==11
     d38:	18 00       	mova	#0x00000,r8	
     d3a:	03 02       	.word	0x0203;	????	Illegal as address instr
     d3c:	8e 42 17 00 	mov	r2,	23(r14)	;0x0017(r14)
     d40:	03 02       	.word	0x0203;	????	Illegal as address instr
     d42:	94 42 15 00 	mov	&0x0015,515(r4)	;0x0203(r4)
     d46:	03 02 
     d48:	98 42 15 00 	mov	&0x0015,515(r8)	;0x0203(r8)
     d4c:	03 02 
     d4e:	9c 42 15 00 	mov	&0x0015,515(r12);0x0203(r12)
     d52:	03 02 
     d54:	a0 42 15 00 	mov	#4,	0x0015	;r2 As==10, PC rel. 0x00d6d
     d58:	03 02       	.word	0x0203;	????	Illegal as address instr
     d5a:	a8 42 15 00 	mov	#4,	21(r8)	;r2 As==10, 0x0015(r8)
     d5e:	03 02       	.word	0x0203;	????	Illegal as address instr
     d60:	ae 42 15 00 	mov	#4,	21(r14)	;r2 As==10, 0x0015(r14)
     d64:	03 02       	.word	0x0203;	????	Illegal as address instr
     d66:	ba 42 0d 00 	mov	#8,	13(r10)	;r2 As==11, 0x000d(r10)
     d6a:	03 02       	.word	0x0203;	????	Illegal as address instr
     d6c:	be 42 1d 00 	mov	#8,	29(r14)	;r2 As==11, 0x001d(r14)
     d70:	03 02       	.word	0x0203;	????	Illegal as address instr
     d72:	d2 42 16 00 	mov.b	&0x0016,&0x0203	
     d76:	03 02 
     d78:	e4 42 16 00 	mov.b	#4,	22(r4)	;r2 As==10, 0x0016(r4)
     d7c:	03 02       	.word	0x0203;	????	Illegal as address instr
     d7e:	e4 42 16 00 	mov.b	#4,	22(r4)	;r2 As==10, 0x0016(r4)
     d82:	03 02       	.word	0x0203;	????	Illegal as address instr
     d84:	ea 42 15 00 	mov.b	#4,	21(r10)	;r2 As==10, 0x0015(r10)
     d88:	03 02       	.word	0x0203;	????	Illegal as address instr
     d8a:	fe 42 15 00 	mov.b	#8,	21(r14)	;r2 As==11, 0x0015(r14)
     d8e:	03 02       	.word	0x0203;	????	Illegal as address instr
     d90:	04 43       	clr	r4		
     d92:	15 00       	mova	#0x00000,r5	
     d94:	03 02       	.word	0x0203;	????	Illegal as address instr
     d96:	08 43       	clr	r8		
     d98:	15 00       	mova	#0x00000,r5	
     d9a:	03 02       	.word	0x0203;	????	Illegal as address instr
     d9c:	0c 43       	clr	r12		
     d9e:	15 00       	mova	#0x00000,r5	
     da0:	03 02       	.word	0x0203;	????	Illegal as address instr
     da2:	10 43       	br	#1		;r3 As==01
     da4:	15 00       	mova	#0x00000,r5	
     da6:	03 02       	.word	0x0203;	????	Illegal as address instr
     da8:	16 43       	mov	#1,	r6	;r3 As==01
     daa:	15 00       	mova	#0x00000,r5	
     dac:	03 02       	.word	0x0203;	????	Illegal as address instr
     dae:	1c 43       	mov	#1,	r12	;r3 As==01
     db0:	0d 00       	mova	@r0,	r13	
     db2:	03 02       	.word	0x0203;	????	Illegal as address instr
     db4:	24 43       	mov	#2,	r4	;r3 As==10
     db6:	21 00 03 02 	mova	&0x00203,r1	
     dba:	26 43       	mov	#2,	r6	;r3 As==10
     dbc:	11 00       	mova	#0x00000,r1	
     dbe:	03 02       	.word	0x0203;	????	Illegal as address instr
     dc0:	2c 43       	mov	#2,	r12	;r3 As==10
     dc2:	19 00       	mova	#0x00000,r9	
     dc4:	03 02       	.word	0x0203;	????	Illegal as address instr
     dc6:	2c 43       	mov	#2,	r12	;r3 As==10
     dc8:	15 00       	mova	#0x00000,r5	
     dca:	03 02       	.word	0x0203;	????	Illegal as address instr
     dcc:	40 43       	clr.b	r0		
     dce:	15 00       	mova	#0x00000,r5	
     dd0:	03 02       	.word	0x0203;	????	Illegal as address instr
     dd2:	46 43       	clr.b	r6		
     dd4:	15 00       	mova	#0x00000,r5	
     dd6:	03 02       	.word	0x0203;	????	Illegal as address instr
     dd8:	4a 43       	clr.b	r10		
     dda:	15 00       	mova	#0x00000,r5	
     ddc:	03 02       	.word	0x0203;	????	Illegal as address instr
     dde:	4e 43       	clr.b	r14		
     de0:	15 00       	mova	#0x00000,r5	
     de2:	03 02       	.word	0x0203;	????	Illegal as address instr
     de4:	52 43       	mov.b	#1,	r2	;r3 As==01
     de6:	15 00       	mova	#0x00000,r5	
     de8:	03 02       	.word	0x0203;	????	Illegal as address instr
     dea:	58 43       	mov.b	#1,	r8	;r3 As==01
     dec:	15 00       	mova	#0x00000,r5	
     dee:	03 02       	.word	0x0203;	????	Illegal as address instr
     df0:	62 43       	mov.b	#2,	r2	;r3 As==10
     df2:	17 00       	mova	#0x00000,r7	
     df4:	03 02       	.word	0x0203;	????	Illegal as address instr
     df6:	6a 43       	mov.b	#2,	r10	;r3 As==10
     df8:	00 01       	bra	@r1		
     dfa:	01 92       	cmp	r2,	r1	
     dfc:	00 00       	bra	@r0		
     dfe:	00 02       	bra	#4		;r2 As==10
     e00:	00 60       	rlc	r0		
     e02:	00 00       	bra	@r0		
     e04:	00 01       	bra	@r1		
     e06:	01 f6       	and	r6,	r1	
     e08:	f5 0a       	suba	r10,	r5	
     e0a:	00 01       	bra	@r1		
     e0c:	01 01       	mova	@r1,	r1	
     e0e:	01 00       	mova	@r0,	r1	
     e10:	00 00       	bra	@r0		
     e12:	01 2f       	jc	$-508    	;abs 0xc16
     e14:	6f 70       	subc.b	@r0,	r15	
     e16:	74 2f       	jc	$-278    	;abs 0xd00
     e18:	6d 73       	subc.b	#2,	r13	;r3 As==10
     e1a:	70 67       	addc.b	@r7+,	r0	
     e1c:	63 63       	.word	0x6363;	????	Illegal as 2-op instr
     e1e:	34 2f       	jc	$-406    	;abs 0xc88
     e20:	62 69       	addc.b	@r9,	r2	
     e22:	6e 2f       	jc	$-290    	;abs 0xd00
     e24:	2e 2e       	jc	$-930    	;abs 0xa82
     e26:	2f 6c       	addc	@r12,	r15	
     e28:	69 62       	addc.b	#4,	r9	;r2 As==10
     e2a:	2f 67       	addc	@r7,	r15	
     e2c:	63 63       	.word	0x6363;	????	Illegal as 2-op instr
     e2e:	2f 6d       	addc	@r13,	r15	
     e30:	73 70       	.word	0x7073;	????	Illegal as 2-op instr
     e32:	34 33       	jn	$-406    	;abs 0xc9c
     e34:	30 2f       	jc	$-414    	;abs 0xc96
     e36:	34 2e       	jc	$-918    	;abs 0xaa0
     e38:	35 2e       	jc	$-916    	;abs 0xaa4
     e3a:	33 2f       	jc	$-408    	;abs 0xca2
     e3c:	69 6e       	addc.b	@r14,	r9	
     e3e:	63 6c       	.word	0x6c63;	????	Illegal as 2-op instr
     e40:	75 64       	addc.b	@r4+,	r5	
     e42:	65 00 73 74 	mova	r0,	&0x57473
     e46:	64 6c       	addc.b	@r12,	r4	
     e48:	69 62       	addc.b	#4,	r9	;r2 As==10
     e4a:	00 00       	bra	@r0		
     e4c:	70 72       	subc.b	#8,	r0	;r2 As==11
     e4e:	69 6e       	addc.b	@r14,	r9	
     e50:	74 66       	addc.b	@r6+,	r4	
     e52:	2e 63       	addc	#2,	r14	;r3 As==10
     e54:	00 02       	bra	#4		;r2 As==10
     e56:	00 00       	bra	@r0		
     e58:	73 74       	.word	0x7473;	????	Illegal as 2-op instr
     e5a:	64 61       	addc.b	@r1,	r4	
     e5c:	72 67       	addc.b	@r7+,	r2	
     e5e:	2e 68       	addc	@r8,	r14	
     e60:	00 01       	bra	@r1		
     e62:	00 00       	bra	@r0		
     e64:	00 00       	bra	@r0		
     e66:	03 02       	.word	0x0203;	????	Illegal as address instr
     e68:	6a 43       	mov.b	#2,	r10	;r3 As==10
     e6a:	38 00 03 02 	mova	0x0203,	r8	;PC rel. 0x0106f
     e6e:	6a 43       	mov.b	#2,	r10	;r3 As==10
     e70:	19 00       	mova	#0x00000,r9	
     e72:	03 02       	.word	0x0203;	????	Illegal as address instr
     e74:	7a 43       	mov.b	#-1,	r10	;r3 As==11
     e76:	17 00       	mova	#0x00000,r7	
     e78:	03 02       	.word	0x0203;	????	Illegal as address instr
     e7a:	7c 43       	mov.b	#-1,	r12	;r3 As==11
     e7c:	18 00       	mova	#0x00000,r8	
     e7e:	03 02       	.word	0x0203;	????	Illegal as address instr
     e80:	7c 43       	mov.b	#-1,	r12	;r3 As==11
     e82:	15 00       	mova	#0x00000,r5	
     e84:	03 02       	.word	0x0203;	????	Illegal as address instr
     e86:	88 43 15 00 	mov	#0,	21(r8)	;r3 As==00, 0x0015(r8)
     e8a:	03 02       	.word	0x0203;	????	Illegal as address instr
     e8c:	8a 43 00 01 	mov	#0,	256(r10);r3 As==00, 0x0100(r10)
     e90:	01 58       	add	r8,	r1	
     e92:	03 00       	.word	0x0003;	????	Illegal as address instr
     e94:	00 02       	bra	#4		;r2 As==10
     e96:	00 79       	subc	r9,	r0	
     e98:	00 00       	bra	@r0		
     e9a:	00 01       	bra	@r1		
     e9c:	01 f6       	and	r6,	r1	
     e9e:	f5 0a       	suba	r10,	r5	
     ea0:	00 01       	bra	@r1		
     ea2:	01 01       	mova	@r1,	r1	
     ea4:	01 00       	mova	@r0,	r1	
     ea6:	00 00       	bra	@r0		
     ea8:	01 2e       	jc	$-1020   	;abs 0xaac
     eaa:	2e 2f       	jc	$-418    	;abs 0xd08
     eac:	69 6e       	addc.b	@r14,	r9	
     eae:	63 6c       	.word	0x6c63;	????	Illegal as 2-op instr
     eb0:	75 64       	addc.b	@r4+,	r5	
     eb2:	65 00 2f 6f 	mova	r0,	&0x56f2f
     eb6:	70 74       	subc.b	@r4+,	r0	
     eb8:	2f 6d       	addc	@r13,	r15	
     eba:	73 70       	.word	0x7073;	????	Illegal as 2-op instr
     ebc:	67 63       	addc.b	#2,	r7	;r3 As==10
     ebe:	63 34       	jge	$+200    	;abs 0xf86
     ec0:	2f 62       	addc	#4,	r15	;r2 As==10
     ec2:	69 6e       	addc.b	@r14,	r9	
     ec4:	2f 2e       	jc	$-928    	;abs 0xb24
     ec6:	2e 2f       	jc	$-418    	;abs 0xd24
     ec8:	6c 69       	addc.b	@r9,	r12	
     eca:	62 2f       	jc	$-314    	;abs 0xd90
     ecc:	67 63       	addc.b	#2,	r7	;r3 As==10
     ece:	63 2f       	jc	$-312    	;abs 0xd96
     ed0:	6d 73       	subc.b	#2,	r13	;r3 As==10
     ed2:	70 34       	jge	$+226    	;abs 0xfb4
     ed4:	33 30       	jn	$+104    	;abs 0xf3c
     ed6:	2f 34       	jge	$+96     	;abs 0xf36
     ed8:	2e 35       	jge	$+606    	;abs 0x1136
     eda:	2e 33       	jn	$-418    	;abs 0xd38
     edc:	2f 69       	addc	@r9,	r15	
     ede:	6e 63       	addc.b	#2,	r14	;r3 As==10
     ee0:	6c 75       	subc.b	@r5,	r12	
     ee2:	64 65       	addc.b	@r5,	r4	
     ee4:	00 73       	sbc	r0		
     ee6:	74 64       	addc.b	@r4+,	r4	
     ee8:	6c 69       	addc.b	@r9,	r12	
     eea:	62 00 00 76 	mova	r0,	&0x27600
     eee:	75 70 72 69 	subc.b	#26994,	r5	;#0x6972
     ef2:	6e 74       	subc.b	@r4,	r14	
     ef4:	66 2e       	jc	$-818    	;abs 0xbc2
     ef6:	63 00 03 00 	mova	r0,	&0x30003
     efa:	00 73       	sbc	r0		
     efc:	74 64       	addc.b	@r4+,	r4	
     efe:	69 6e       	addc.b	@r14,	r9	
     f00:	74 2e       	jc	$-790    	;abs 0xbea
     f02:	68 00 01 00 	mova	r0,	&0x80001
     f06:	00 73       	sbc	r0		
     f08:	74 64       	addc.b	@r4+,	r4	
     f0a:	61 72       	subc.b	#4,	r1	;r2 As==10
     f0c:	67 2e       	jc	$-816    	;abs 0xbdc
     f0e:	68 00 02 00 	mova	r0,	&0x80002
     f12:	00 00       	bra	@r0		
     f14:	00 03       	bra	#2		;r3 As==10
     f16:	02 8a       	sub	r10,	r2	
     f18:	43 78       	.word	0x7843;	????	Illegal as 2-op instr
     f1a:	00 03       	bra	#2		;r3 As==10
     f1c:	02 a2       	dadd	r2,	r2	
     f1e:	43 15       	pushm	#5,	#0	;r3 As==00
     f20:	00 03       	bra	#2		;r3 As==10
     f22:	02 a8       	dadd	r8,	r2	
     f24:	43 03       	rrum.a	#1,	#0	;r3 As==00
     f26:	68 01 00 03 	mova	r1,	&0x80300
     f2a:	02 b2       	bit	r2,	r2	
     f2c:	43 16       	popm.a	#5,	r7	
     f2e:	00 03       	bra	#2		;r3 As==10
     f30:	02 b8       	bit	r8,	r2	
     f32:	43 15       	pushm	#5,	#0	;r3 As==00
     f34:	00 03       	bra	#2		;r3 As==10
     f36:	02 d2       	bis	r2,	r2	
     f38:	43 16       	popm.a	#5,	r7	
     f3a:	00 03       	bra	#2		;r3 As==10
     f3c:	02 d6       	bis	r6,	r2	
     f3e:	43 15       	pushm	#5,	#0	;r3 As==00
     f40:	00 03       	bra	#2		;r3 As==10
     f42:	02 e0       	xor	r0,	r2	
     f44:	43 0d       	rram.a	#4,	#0	;r3 As==00
     f46:	00 03       	bra	#2		;r3 As==10
     f48:	02 e2       	xor	r2,	r2	
     f4a:	43 1c       	.word	0x1c43;	????	
     f4c:	00 03       	bra	#2		;r3 As==10
     f4e:	02 e4       	xor	r4,	r2	
     f50:	43 2b       	jnc	$-376    	;abs 0xdd8
     f52:	00 03       	bra	#2		;r3 As==10
     f54:	02 e8       	xor	r8,	r2	
     f56:	43 17       	popm	#5,	r7	
     f58:	00 03       	bra	#2		;r3 As==10
     f5a:	02 f8       	and	r8,	r2	
     f5c:	43 16       	popm.a	#5,	r7	
     f5e:	00 03       	bra	#2		;r3 As==10
     f60:	02 fc       	and	r12,	r2	
     f62:	43 15       	pushm	#5,	#0	;r3 As==00
     f64:	00 03       	bra	#2		;r3 As==10
     f66:	02 00       	mova	@r0,	r2	
     f68:	44 16       	popm.a	#5,	r8	
     f6a:	00 03       	bra	#2		;r3 As==10
     f6c:	02 02       	mova	#4,	r2	;r2 As==10
     f6e:	44 17       	popm	#5,	r8	
     f70:	00 03       	bra	#2		;r3 As==10
     f72:	02 08       	mova	@r8,	r2	
     f74:	44 01       	rram.a	#1,	r4	
     f76:	00 03       	bra	#2		;r3 As==10
     f78:	02 0c       	mova	@r12,	r2	
     f7a:	44 03       	rrum.a	#1,	r4	
     f7c:	6c 01 00 03 	mova	r1,	&0xc0300
     f80:	02 10       	rrc	r2		
     f82:	44 2d       	jc	$+650    	;abs 0x120c
     f84:	00 03       	bra	#2		;r3 As==10
     f86:	02 18       	.word	0x1802;	????	
     f88:	44 13       	calla	r4		
     f8a:	00 03       	bra	#2		;r3 As==10
     f8c:	02 1c       	.word	0x1c02;	????	
     f8e:	44 01       	rram.a	#1,	r4	
     f90:	00 03       	bra	#2		;r3 As==10
     f92:	02 1e 44 12 	.rpt	#2
				pushx.a	r4		
     f96:	00 03       	bra	#2		;r3 As==10
     f98:	02 24       	jz	$+6      	;abs 0xf9e
     f9a:	44 03       	rrum.a	#1,	r4	
     f9c:	75 01 00 03 	mova	r1,	768(r5)	;0x0300(r5)
     fa0:	02 28       	jnc	$+6      	;abs 0xfa6
     fa2:	44 0e       	rlam.a	#4,	r4	
     fa4:	00 03       	bra	#2		;r3 As==10
     fa6:	02 2a       	jnc	$-1018   	;abs 0xbac
     fa8:	44 12       	push.b	r4		
     faa:	00 03       	bra	#2		;r3 As==10
     fac:	02 2e       	jc	$-1018   	;abs 0xbb2
     fae:	44 2f       	jc	$-374    	;abs 0xe38
     fb0:	00 03       	bra	#2		;r3 As==10
     fb2:	02 34       	jge	$+6      	;abs 0xfb8
     fb4:	44 15       	pushm	#5,	r4	
     fb6:	00 03       	bra	#2		;r3 As==10
     fb8:	02 36       	jge	$-1018   	;abs 0xbbe
     fba:	44 15       	pushm	#5,	r4	
     fbc:	00 03       	bra	#2		;r3 As==10
     fbe:	02 38       	jl	$+6      	;abs 0xfc4
     fc0:	44 10       	rrc.b	r4		
     fc2:	00 03       	bra	#2		;r3 As==10
     fc4:	02 3e       	jmp	$-1018   	;abs 0xbca
     fc6:	44 03       	rrum.a	#1,	r4	
     fc8:	69 01 00 03 	mova	r1,	&0x90300
     fcc:	02 40       	mov	r0,	r2	
     fce:	44 12       	push.b	r4		
     fd0:	00 03       	bra	#2		;r3 As==10
     fd2:	02 42       	mov	r2,	r2	
     fd4:	44 11       	rra.b	r4		
     fd6:	00 03       	bra	#2		;r3 As==10
     fd8:	02 46       	mov	r6,	r2	
     fda:	44 3b       	jl	$-374    	;abs 0xe64
     fdc:	00 03       	bra	#2		;r3 As==10
     fde:	02 48       	mov	r8,	r2	
     fe0:	44 15       	pushm	#5,	r4	
     fe2:	00 03       	bra	#2		;r3 As==10
     fe4:	02 50       	add	r0,	r2	
     fe6:	44 03       	rrum.a	#1,	r4	
     fe8:	58 01       	rram	#1,	r8	
     fea:	00 03       	bra	#2		;r3 As==10
     fec:	02 54       	add	r4,	r2	
     fee:	44 39       	jl	$+650    	;abs 0x1278
     ff0:	00 03       	bra	#2		;r3 As==10
     ff2:	02 5a       	add	r10,	r2	
     ff4:	44 1d       	.word	0x1d44;	????	
     ff6:	00 03       	bra	#2		;r3 As==10
     ff8:	02 60       	addc	r0,	r2	
     ffa:	44 15       	pushm	#5,	r4	
     ffc:	00 03       	bra	#2		;r3 As==10
     ffe:	02 62       	rlc	r2		
    1000:	44 15       	pushm	#5,	r4	
    1002:	00 03       	bra	#2		;r3 As==10
    1004:	02 64       	addc	r4,	r2	
    1006:	44 10       	rrc.b	r4		
    1008:	00 03       	bra	#2		;r3 As==10
    100a:	02 6c       	addc	r12,	r2	
    100c:	44 1d       	.word	0x1d44;	????	
    100e:	00 03       	bra	#2		;r3 As==10
    1010:	02 72       	subc	r2,	r2	
    1012:	44 15       	pushm	#5,	r4	
    1014:	00 03       	bra	#2		;r3 As==10
    1016:	02 74       	subc	r4,	r2	
    1018:	44 11       	rra.b	r4		
    101a:	00 03       	bra	#2		;r3 As==10
    101c:	02 78       	subc	r8,	r2	
    101e:	44 1b       	.word	0x1b44;	????	
    1020:	00 03       	bra	#2		;r3 As==10
    1022:	02 96       	cmp	r6,	r2	
    1024:	44 3d       	jmp	$+650    	;abs 0x12ae
    1026:	00 03       	bra	#2		;r3 As==10
    1028:	02 b6       	bit	r6,	r2	
    102a:	44 18       	.word	0x1844;	????	
    102c:	00 03       	bra	#2		;r3 As==10
    102e:	02 ba       	bit	r10,	r2	
    1030:	44 13       	calla	r4		
    1032:	00 03       	bra	#2		;r3 As==10
    1034:	02 be       	bit	r14,	r2	
    1036:	44 12       	push.b	r4		
    1038:	00 03       	bra	#2		;r3 As==10
    103a:	02 c2       	bic	r2,	r2	
    103c:	44 1f       	.word	0x1f44;	????	
    103e:	00 03       	bra	#2		;r3 As==10
    1040:	02 c6       	bic	r6,	r2	
    1042:	44 16       	popm.a	#5,	r8	
    1044:	00 03       	bra	#2		;r3 As==10
    1046:	02 ca       	bic	r10,	r2	
    1048:	44 18       	.word	0x1844;	????	
    104a:	00 03       	bra	#2		;r3 As==10
    104c:	02 d4       	bis	r4,	r2	
    104e:	44 17       	popm	#5,	r8	
    1050:	00 03       	bra	#2		;r3 As==10
    1052:	02 d8       	bis	r8,	r2	
    1054:	44 13       	calla	r4		
    1056:	00 03       	bra	#2		;r3 As==10
    1058:	02 e0       	xor	r0,	r2	
    105a:	44 20       	jnz	$+138    	;abs 0x10e4
    105c:	00 03       	bra	#2		;r3 As==10
    105e:	02 80       	sub	r0,	r2	
    1060:	45 1c       	.word	0x1c45;	????	
    1062:	00 03       	bra	#2		;r3 As==10
    1064:	02 88       	sub	r8,	r2	
    1066:	45 19       	.word	0x1945;	????	
    1068:	00 03       	bra	#2		;r3 As==10
    106a:	02 90       	cmp	r0,	r2	
    106c:	45 19       	.word	0x1945;	????	
    106e:	00 03       	bra	#2		;r3 As==10
    1070:	02 98       	cmp	r8,	r2	
    1072:	45 19       	.word	0x1945;	????	
    1074:	00 03       	bra	#2		;r3 As==10
    1076:	02 a2       	dadd	r2,	r2	
    1078:	45 1a       	.word	0x1a45;	????	
    107a:	00 03       	bra	#2		;r3 As==10
    107c:	02 ae       	dadd	r14,	r2	
    107e:	45 16       	popm.a	#5,	r9	
    1080:	00 03       	bra	#2		;r3 As==10
    1082:	02 b8       	bit	r8,	r2	
    1084:	45 1c       	.word	0x1c45;	????	
    1086:	00 03       	bra	#2		;r3 As==10
    1088:	02 c4       	bic	r4,	r2	
    108a:	45 16       	popm.a	#5,	r9	
    108c:	00 03       	bra	#2		;r3 As==10
    108e:	02 c8       	bic	r8,	r2	
    1090:	45 15       	pushm	#5,	r5	
    1092:	00 03       	bra	#2		;r3 As==10
    1094:	02 ce       	bic	r14,	r2	
    1096:	45 17       	popm	#5,	r9	
    1098:	00 03       	bra	#2		;r3 As==10
    109a:	02 d2       	bis	r2,	r2	
    109c:	45 15       	pushm	#5,	r5	
    109e:	00 03       	bra	#2		;r3 As==10
    10a0:	02 dc       	bis	r12,	r2	
    10a2:	45 0d       	rram.a	#4,	r5	
    10a4:	00 03       	bra	#2		;r3 As==10
    10a6:	02 e4       	xor	r4,	r2	
    10a8:	45 27       	jz	$-372    	;abs 0xf34
    10aa:	00 03       	bra	#2		;r3 As==10
    10ac:	02 ea       	xor	r10,	r2	
    10ae:	45 16       	popm.a	#5,	r9	
    10b0:	00 03       	bra	#2		;r3 As==10
    10b2:	02 0e       	mova	@r14,	r2	
    10b4:	46 20       	jnz	$+142    	;abs 0x1142
    10b6:	00 03       	bra	#2		;r3 As==10
    10b8:	02 1c       	.word	0x1c02;	????	
    10ba:	46 15       	pushm	#5,	r6	
    10bc:	00 03       	bra	#2		;r3 As==10
    10be:	02 2c       	jc	$+6      	;abs 0x10c4
    10c0:	46 19       	.word	0x1946;	????	
    10c2:	00 03       	bra	#2		;r3 As==10
    10c4:	02 38       	jl	$+6      	;abs 0x10ca
    10c6:	46 15       	pushm	#5,	r6	
    10c8:	00 03       	bra	#2		;r3 As==10
    10ca:	02 3a       	jl	$-1018   	;abs 0xcd0
    10cc:	46 19       	.word	0x1946;	????	
    10ce:	00 03       	bra	#2		;r3 As==10
    10d0:	02 46       	mov	r6,	r2	
    10d2:	46 17       	popm	#5,	r10	
    10d4:	00 03       	bra	#2		;r3 As==10
    10d6:	02 4e       	mov	r14,	r2	
    10d8:	46 01       	rram.a	#1,	r6	
    10da:	00 03       	bra	#2		;r3 As==10
    10dc:	02 60       	addc	r0,	r2	
    10de:	46 11       	rra.b	r6		
    10e0:	00 03       	bra	#2		;r3 As==10
    10e2:	02 66       	addc	r6,	r2	
    10e4:	46 22       	jnz	$-882    	;abs 0xd72
    10e6:	00 03       	bra	#2		;r3 As==10
    10e8:	02 7e       	subc	r14,	r2	
    10ea:	46 15       	pushm	#5,	r6	
    10ec:	00 03       	bra	#2		;r3 As==10
    10ee:	02 8a       	sub	r10,	r2	
    10f0:	46 16       	popm.a	#5,	r10	
    10f2:	00 03       	bra	#2		;r3 As==10
    10f4:	02 8e       	sub	r14,	r2	
    10f6:	46 11       	rra.b	r6		
    10f8:	00 03       	bra	#2		;r3 As==10
    10fa:	02 94       	cmp	r4,	r2	
    10fc:	46 1c       	.word	0x1c46;	????	
    10fe:	00 03       	bra	#2		;r3 As==10
    1100:	02 9c       	cmp	r12,	r2	
    1102:	46 1d       	.word	0x1d46;	????	
    1104:	00 03       	bra	#2		;r3 As==10
    1106:	02 a0       	dadd	r0,	r2	
    1108:	46 18       	.word	0x1846;	????	
    110a:	00 03       	bra	#2		;r3 As==10
    110c:	02 a6       	dadd	r6,	r2	
    110e:	46 0a       	rlam.a	#3,	r6	
    1110:	00 03       	bra	#2		;r3 As==10
    1112:	02 aa       	dadd	r10,	r2	
    1114:	46 21       	jnz	$+654    	;abs 0x13a2
    1116:	00 03       	bra	#2		;r3 As==10
    1118:	02 b2       	bit	r2,	r2	
    111a:	46 16       	popm.a	#5,	r10	
    111c:	00 03       	bra	#2		;r3 As==10
    111e:	02 c4       	bic	r4,	r2	
    1120:	46 18       	.word	0x1846;	????	
    1122:	00 03       	bra	#2		;r3 As==10
    1124:	02 d0       	bis	r0,	r2	
    1126:	46 16       	popm.a	#5,	r10	
    1128:	00 03       	bra	#2		;r3 As==10
    112a:	02 e2       	xor	r2,	r2	
    112c:	46 18       	.word	0x1846;	????	
    112e:	00 03       	bra	#2		;r3 As==10
    1130:	02 ee       	xor	r14,	r2	
    1132:	46 1b       	.word	0x1b46;	????	
    1134:	00 03       	bra	#2		;r3 As==10
    1136:	02 f4       	and	r4,	r2	
    1138:	46 01       	rram.a	#1,	r6	
    113a:	00 03       	bra	#2		;r3 As==10
    113c:	02 02       	mova	#4,	r2	;r2 As==10
    113e:	47 15       	pushm	#5,	r7	
    1140:	00 03       	bra	#2		;r3 As==10
    1142:	02 08       	mova	@r8,	r2	
    1144:	47 13       	calla	r7		
    1146:	00 03       	bra	#2		;r3 As==10
    1148:	02 0c       	mova	@r12,	r2	
    114a:	47 16       	popm.a	#5,	r11	
    114c:	00 03       	bra	#2		;r3 As==10
    114e:	02 12       	push	r2		
    1150:	47 01       	rram.a	#1,	r7	
    1152:	00 03       	bra	#2		;r3 As==10
    1154:	02 16       	popm.a	#1,	r2	
    1156:	47 17       	popm	#5,	r11	
    1158:	00 03       	bra	#2		;r3 As==10
    115a:	02 1c       	.word	0x1c02;	????	
    115c:	47 15       	pushm	#5,	r7	
    115e:	00 03       	bra	#2		;r3 As==10
    1160:	02 24       	jz	$+6      	;abs 0x1166
    1162:	47 19       	.word	0x1947;	????	
    1164:	00 03       	bra	#2		;r3 As==10
    1166:	02 28       	jnc	$+6      	;abs 0x116c
    1168:	47 21       	jnz	$+656    	;abs 0x13f8
    116a:	00 03       	bra	#2		;r3 As==10
    116c:	02 38       	jl	$+6      	;abs 0x1172
    116e:	47 0c       	rrcm.a	#4,	r7	
    1170:	00 03       	bra	#2		;r3 As==10
    1172:	02 46       	mov	r6,	r2	
    1174:	47 03       	rrum.a	#1,	r7	
    1176:	c2 7e 01 00 	subc.b	r14,	&0x0001	
    117a:	03 02       	.word	0x0203;	????	Illegal as address instr
    117c:	4e 47       	mov.b	r7,	r14	
    117e:	d2 00       	cmpa	r0,	r2	
    1180:	03 02       	.word	0x0203;	????	Illegal as address instr
    1182:	5c 47 15 00 	mov.b	21(r7),	r12	;0x0015(r7)
    1186:	03 02       	.word	0x0203;	????	Illegal as address instr
    1188:	64 47       	mov.b	@r7,	r4	
    118a:	16 00       	mova	#0x00000,r6	
    118c:	03 02       	.word	0x0203;	????	Illegal as address instr
    118e:	6e 47       	mov.b	@r7,	r14	
    1190:	18 00       	mova	#0x00000,r8	
    1192:	03 02       	.word	0x0203;	????	Illegal as address instr
    1194:	7e 47       	mov.b	@r7+,	r14	
    1196:	01 00       	mova	@r0,	r1	
    1198:	03 02       	.word	0x0203;	????	Illegal as address instr
    119a:	84 47 17 00 	mov	r7,	23(r4)	;0x0017(r4)
    119e:	03 02       	.word	0x0203;	????	Illegal as address instr
    11a0:	98 47 16 00 	mov	22(r7),	515(r8)	;0x0016(r7), 0x0203(r8)
    11a4:	03 02 
    11a6:	a0 47 17 00 	mov	@r7,	0x0017	;PC rel. 0x011c1
    11aa:	03 02       	.word	0x0203;	????	Illegal as address instr
    11ac:	a6 47 16 00 	mov	@r7,	22(r6)	;0x0016(r6)
    11b0:	03 02       	.word	0x0203;	????	Illegal as address instr
    11b2:	aa 47 18 00 	mov	@r7,	24(r10)	;0x0018(r10)
    11b6:	03 02       	.word	0x0203;	????	Illegal as address instr
    11b8:	c2 47 1d 00 	mov.b	r7,	&0x001d	
    11bc:	03 02       	.word	0x0203;	????	Illegal as address instr
    11be:	ca 47 15 00 	mov.b	r7,	21(r10)	;0x0015(r10)
    11c2:	03 02       	.word	0x0203;	????	Illegal as address instr
    11c4:	ce 47 15 00 	mov.b	r7,	21(r14)	;0x0015(r14)
    11c8:	03 02       	.word	0x0203;	????	Illegal as address instr
    11ca:	d2 47 03 e0 	mov.b	-8189(r7),&0x017e	;0xe003(r7)
    11ce:	7e 01 
    11d0:	00 03       	bra	#2		;r3 As==10
    11d2:	02 d4       	bis	r4,	r2	
    11d4:	47 b7       	bit.b	r7,	r7	
    11d6:	00 03       	bra	#2		;r3 As==10
    11d8:	02 d8       	bis	r8,	r2	
    11da:	47 03       	rrum.a	#1,	r7	
    11dc:	ac 7e 01 00 	subc	@r14,	1(r12)	;0x0001(r12)
    11e0:	03 02       	.word	0x0203;	????	Illegal as address instr
    11e2:	e6 47 eb 00 	mov.b	@r7,	235(r6)	;0x00eb(r6)
    11e6:	03 02       	.word	0x0203;	????	Illegal as address instr
    11e8:	00 48       	br	r8		
    11ea:	00 01       	bra	@r1		
    11ec:	01 bb       	Address 0x000011ec is out of bounds.
Address 0x000011ee is out of bounds.
and.b	@r15+,	-1(r15)	;0xffff(r15)

Disassembly of section .debug_frame:

00000000 <.debug_frame>:
   0:	0e 00       	mova	@r0,	r14	
   2:	00 00       	bra	@r0		
   4:	ff ff ff ff 	and.b	@r15+,	-1(r15)	;0xffff(r15)
   8:	01 00       	mova	@r0,	r1	
   a:	01 7e       	subc	r14,	r1	
   c:	00 0c       	bra	@r12		
   e:	01 02       	mova	#4,	r1	;r2 As==10
  10:	80 01 58 00 	bra	#0x10058	
  14:	00 00       	bra	@r0		
  16:	00 00       	bra	@r0		
  18:	00 00       	bra	@r0		
  1a:	44 34       	jge	$+138    	;abs 0xa4
  1c:	96 00 42 0e 	cmpa	#0x00e42,r6	
  20:	04 42       	mov	r2,	r4	
  22:	0e 06       	mova	@r6,	r14	
  24:	8a 03 8b 02 	mova	#0x3028b,r10	
  28:	4c 0e       	rlam.a	#4,	r12	
  2a:	08 40       	mov	r0,	r8	
  2c:	2e 02 46 0e 	mova	&0x20e46,r14	
  30:	06 44       	mov	r4,	r6	
  32:	2e 00 56 0e 	mova	&0x00e56,r14	
  36:	08 44       	mov	r4,	r8	
  38:	0e 0a       	mova	@r10,	r14	
  3a:	40 2e       	jc	$-894    	;abs 0xfcbc
  3c:	04 46       	mov	r6,	r4	
  3e:	0e 06       	mova	@r6,	r14	
  40:	46 2e       	jc	$-882    	;abs 0xfcce
  42:	00 48       	br	r8		
  44:	0e 08       	mova	@r8,	r14	
  46:	44 0e       	rlam.a	#4,	r4	
  48:	0a 40       	mov	r0,	r10	
  4a:	2e 04 46 0e 	mova	&0x40e46,r14	
  4e:	06 44       	mov	r4,	r6	
  50:	2e 00 48 0e 	mova	&0x00e48,r14	
  54:	08 44       	mov	r4,	r8	
  56:	0e 0a       	mova	@r10,	r14	
  58:	40 2e       	jc	$-894    	;abs 0xfcda
  5a:	04 46       	mov	r6,	r4	
  5c:	0e 06       	mova	@r6,	r14	
  5e:	46 2e       	jc	$-882    	;abs 0xfcec
  60:	00 58       	add	r8,	r0	
  62:	0e 08       	mova	@r8,	r14	
  64:	44 0e       	rlam.a	#4,	r4	
  66:	0a 40       	mov	r0,	r10	
  68:	2e 04 46 0e 	mova	&0x40e46,r14	
  6c:	06 00       	mova	@r0,	r6	
  6e:	76 00 00 00 	mova	r0,	0(r6)	;0x0000(r6)
  72:	00 00       	bra	@r0		
  74:	00 00       	bra	@r0		
  76:	50 35       	jge	$+674    	;abs 0x318
  78:	ac 00 42 0e 	adda	#0x00e42,r12	
  7c:	04 8b       	sub	r11,	r4	
  7e:	02 4c       	mov	r12,	r2	
  80:	0e 06       	mova	@r6,	r14	
  82:	40 2e       	jc	$-894    	;abs 0xfd04
  84:	02 46       	mov	r6,	r2	
  86:	0e 04       	mova	@r4,	r14	
  88:	44 2e       	jc	$-886    	;abs 0xfd12
  8a:	00 48       	br	r8		
  8c:	0e 06       	mova	@r6,	r14	
  8e:	40 2e       	jc	$-894    	;abs 0xfd10
  90:	02 46       	mov	r6,	r2	
  92:	0e 04       	mova	@r4,	r14	
  94:	46 2e       	jc	$-882    	;abs 0xfd22
  96:	00 4a       	br	r10		
  98:	0e 06       	mova	@r6,	r14	
  9a:	44 0e       	rlam.a	#4,	r4	
  9c:	08 46       	mov	r6,	r8	
  9e:	0e 0a       	mova	@r10,	r14	
  a0:	44 0e       	rlam.a	#4,	r4	
  a2:	0c 40       	mov	r0,	r12	
  a4:	2e 08 46 0e 	mova	&0x80e46,r14	
  a8:	04 44       	mov	r4,	r4	
  aa:	2e 00 48 0e 	mova	&0x00e48,r14	
  ae:	06 44       	mov	r4,	r6	
  b0:	0e 08       	mova	@r8,	r14	
  b2:	44 0e       	rlam.a	#4,	r4	
  b4:	0a 44       	mov	r4,	r10	
  b6:	0e 0c       	mova	@r12,	r14	
  b8:	40 2e       	jc	$-894    	;abs 0xfd3a
  ba:	08 46       	mov	r6,	r8	
  bc:	0e 04       	mova	@r4,	r14	
  be:	46 2e       	jc	$-882    	;abs 0xfd4c
  c0:	00 48       	br	r8		
  c2:	0e 06       	mova	@r6,	r14	
  c4:	44 0e       	rlam.a	#4,	r4	
  c6:	08 44       	mov	r4,	r8	
  c8:	0e 0a       	mova	@r10,	r14	
  ca:	44 0e       	rlam.a	#4,	r4	
  cc:	0c 40       	mov	r0,	r12	
  ce:	2e 08 46 0e 	mova	&0x80e46,r14	
  d2:	04 46       	mov	r6,	r4	
  d4:	2e 00 48 0e 	mova	&0x00e48,r14	
  d8:	06 44       	mov	r4,	r6	
  da:	0e 08       	mova	@r8,	r14	
  dc:	44 0e       	rlam.a	#4,	r4	
  de:	0a 44       	mov	r4,	r10	
  e0:	0e 0c       	mova	@r12,	r14	
  e2:	40 2e       	jc	$-894    	;abs 0xfd64
  e4:	08 46       	mov	r6,	r8	
  e6:	0e 04       	mova	@r4,	r14	
  e8:	12 00       	mova	#0x00000,r2	
  ea:	00 00       	bra	@r0		
  ec:	00 00       	bra	@r0		
  ee:	00 00       	bra	@r0		
  f0:	fc 35       	jge	$+1018   	;abs 0x4ea
  f2:	36 00 42 0e 	mova	0x0e42,	r6	;PC rel. 0x00f36
  f6:	04 42       	mov	r2,	r4	
  f8:	0e 06       	mova	@r6,	r14	
  fa:	8a 03 8b 02 	mova	#0x3028b,r10	
  fe:	1c 00       	mova	#0x00000,r12	
 100:	00 00       	bra	@r0		
 102:	00 00       	bra	@r0		
 104:	00 00       	bra	@r0		
 106:	32 36       	jge	$-922    	;abs 0xfd6c
 108:	38 00 42 0e 	mova	0x0e42,	r8	;PC rel. 0x00f4c
 10c:	04 42       	mov	r2,	r4	
 10e:	0e 06       	mova	@r6,	r14	
 110:	42 0e       	rlam.a	#4,	r2	
 112:	08 42       	mov	r2,	r8	
 114:	0e 0a       	mova	@r10,	r14	
 116:	88 05 89 04 	mova	#0x50489,r8	
 11a:	8a 03 8b 02 	mova	#0x3028b,r10	
 11e:	08 00       	mova	@r0,	r8	
 120:	00 00       	bra	@r0		
 122:	00 00       	bra	@r0		
 124:	00 00       	bra	@r0		
 126:	6a 36       	jge	$-810    	;abs 0xfdfc
 128:	18 00       	mova	#0x00000,r8	
 12a:	08 00       	mova	@r0,	r8	
 12c:	00 00       	bra	@r0		
 12e:	00 00       	bra	@r0		
 130:	00 00       	bra	@r0		
 132:	82 36       	jge	$-762    	;abs 0xfe38
 134:	22 00 08 00 	mova	&0x00008,r2	
 138:	00 00       	bra	@r0		
 13a:	00 00       	bra	@r0		
 13c:	00 00       	bra	@r0		
 13e:	a4 36       	jge	$-694    	;abs 0xfe88
 140:	4e 00       	rrcm.a	#1,	r14	
 142:	0c 00       	mova	@r0,	r12	
 144:	00 00       	bra	@r0		
 146:	00 00       	bra	@r0		
 148:	00 00       	bra	@r0		
 14a:	38 31       	jn	$+626    	;abs 0x3bc
 14c:	bc 02 44 0e 	suba	#0x20e44,r12	
 150:	5e 00       	rrcm	#1,	r14	
 152:	08 00       	mova	@r0,	r8	
 154:	00 00       	bra	@r0		
 156:	00 00       	bra	@r0		
 158:	00 00       	bra	@r0		
 15a:	fe 36       	jge	$-514    	;abs 0xff58
 15c:	08 00       	mova	@r0,	r8	
 15e:	0e 00       	mova	@r0,	r14	
 160:	00 00       	bra	@r0		
 162:	ff ff ff ff 	and.b	@r15+,	-1(r15)	;0xffff(r15)
 166:	01 00       	mova	@r0,	r1	
 168:	01 7e       	subc	r14,	r1	
 16a:	00 0c       	bra	@r12		
 16c:	01 02       	mova	#4,	r1	;r2 As==10
 16e:	80 01 08 00 	bra	#0x10008	
 172:	00 00       	bra	@r0		
 174:	5e 01       	rram	#1,	r14	
 176:	00 00       	bra	@r0		
 178:	06 37       	jge	$-498    	;abs 0xff86
 17a:	0a 00       	mova	@r0,	r10	
 17c:	0e 00       	mova	@r0,	r14	
 17e:	00 00       	bra	@r0		
 180:	5e 01       	rram	#1,	r14	
 182:	00 00       	bra	@r0		
 184:	10 37       	jge	$-478    	;abs 0xffa6
 186:	66 00 42 0e 	mova	r0,	&0x60e42
 18a:	04 8b       	sub	r11,	r4	
 18c:	02 00       	mova	@r0,	r2	
 18e:	0e 00       	mova	@r0,	r14	
 190:	00 00       	bra	@r0		
 192:	5e 01       	rram	#1,	r14	
 194:	00 00       	bra	@r0		
 196:	76 37       	jge	$-274    	;abs 0x84
 198:	18 00       	mova	#0x00000,r8	
 19a:	42 0e       	rlam.a	#4,	r2	
 19c:	04 8b       	sub	r11,	r4	
 19e:	02 00       	mova	@r0,	r2	
 1a0:	12 00       	mova	#0x00000,r2	
 1a2:	00 00       	bra	@r0		
 1a4:	5e 01       	rram	#1,	r14	
 1a6:	00 00       	bra	@r0		
 1a8:	8e 37       	jge	$-226    	;abs 0xc6
 1aa:	26 00 42 0e 	mova	&0x00e42,r6	
 1ae:	04 42       	mov	r2,	r4	
 1b0:	0e 06       	mova	@r6,	r14	
 1b2:	8a 03 8b 02 	mova	#0x3028b,r10	
 1b6:	22 00 00 00 	mova	&0x00000,r2	
 1ba:	5e 01       	rram	#1,	r14	
 1bc:	00 00       	bra	@r0		
 1be:	b4 37       	jge	$-150    	;abs 0x128
 1c0:	96 00 42 0e 	cmpa	#0x00e42,r6	
 1c4:	04 42       	mov	r2,	r4	
 1c6:	0e 06       	mova	@r6,	r14	
 1c8:	42 0e       	rlam.a	#4,	r2	
 1ca:	08 42       	mov	r2,	r8	
 1cc:	0e 0a       	mova	@r10,	r14	
 1ce:	88 05 89 04 	mova	#0x50489,r8	
 1d2:	8a 03 8b 02 	mova	#0x3028b,r10	
 1d6:	7c 0e 0c 4e 	mova	r14,	19980(r12);0x4e0c(r12)
 1da:	0e 0a       	mova	@r10,	r14	
 1dc:	12 00       	mova	#0x00000,r2	
 1de:	00 00       	bra	@r0		
 1e0:	5e 01       	rram	#1,	r14	
 1e2:	00 00       	bra	@r0		
 1e4:	4a 38       	jl	$+150    	;abs 0x27a
 1e6:	14 00       	mova	#0x00000,r4	
 1e8:	42 0e       	rlam.a	#4,	r2	
 1ea:	04 4a       	mov	r10,	r4	
 1ec:	2e 02 46 0e 	mova	&0x20e46,r14	
 1f0:	02 00       	mova	@r0,	r2	
 1f2:	36 00 00 00 	mova	0x0000,	r6	;PC rel. 0x001f4
 1f6:	5e 01       	rram	#1,	r14	
 1f8:	00 00       	bra	@r0		
 1fa:	5e 38       	jl	$+190    	;abs 0x2b8
 1fc:	6a 01 42 0e 	mova	r1,	&0xa0e42
 200:	04 42       	mov	r2,	r4	
 202:	0e 06       	mova	@r6,	r14	
 204:	42 0e       	rlam.a	#4,	r2	
 206:	08 42       	mov	r2,	r8	
 208:	0e 0a       	mova	@r10,	r14	
 20a:	42 0e       	rlam.a	#4,	r2	
 20c:	0c 42       	mov	r2,	r12	
 20e:	0e 0e       	mova	@r14,	r14	
 210:	42 0e       	rlam.a	#4,	r2	
 212:	10 85 08 86 	sub	-31224(r5),r0	;0x8608(r5)
 216:	07 87       	sub	r7,	r7	
 218:	06 88       	sub	r8,	r6	
 21a:	05 89       	sub	r9,	r5	
 21c:	04 8a       	sub	r10,	r4	
 21e:	03 8b       	.word	0x8b03;	????	Illegal as 2-op instr
 220:	02 03       	mova	#2,	r2	;r3 As==10
 222:	3c 01 0e 12 	mova	4622(r1),r12	;0x120e(r1)
 226:	4a 2e       	jc	$-874    	;abs 0xfebc
 228:	02 46       	mov	r6,	r2	
 22a:	0e 10       	rrc	r14		
 22c:	46 00       	rrcm.a	#1,	r6	
 22e:	00 00       	bra	@r0		
 230:	5e 01       	rram	#1,	r14	
 232:	00 00       	bra	@r0		
 234:	c8 39       	jl	$+914    	;abs 0x5c6
 236:	a0 01 42 0e 	adda	#0x10e42,r0	
 23a:	04 42       	mov	r2,	r4	
 23c:	0e 06       	mova	@r6,	r14	
 23e:	42 0e       	rlam.a	#4,	r2	
 240:	08 42       	mov	r2,	r8	
 242:	0e 0a       	mova	@r10,	r14	
 244:	42 0e       	rlam.a	#4,	r2	
 246:	0c 42       	mov	r2,	r12	
 248:	0e 0e       	mova	@r14,	r14	
 24a:	42 0e       	rlam.a	#4,	r2	
 24c:	10 42 0e 12 	br	&0x120e	
 250:	44 0e       	rlam.a	#4,	r4	
 252:	1c 84 09 85 	sub	-31479(r4),r12	;0x8509(r4)
 256:	08 86       	sub	r6,	r8	
 258:	07 87       	sub	r7,	r7	
 25a:	06 88       	sub	r8,	r6	
 25c:	05 89       	sub	r9,	r5	
 25e:	04 8a       	sub	r10,	r4	
 260:	03 8b       	.word	0x8b03;	????	Illegal as 2-op instr
 262:	02 5e       	add	r14,	r2	
 264:	0e 1e       	.word	0x1e0e;	????	
 266:	4a 2e       	jc	$-874    	;abs 0xfefc
 268:	02 02       	mova	#4,	r2	;r2 As==10
 26a:	42 0e       	rlam.a	#4,	r2	
 26c:	1c 02       	mova	#8,	r12	;r2 As==11
 26e:	62 0e 1e 02 	mova	r14,	&0x2021e
 272:	a2 0e 1c 00 	adda	#0xe001c,r2	
 276:	1c 00       	mova	#0x00000,r12	
 278:	00 00       	bra	@r0		
 27a:	5e 01       	rram	#1,	r14	
 27c:	00 00       	bra	@r0		
 27e:	68 3b       	jl	$-302    	;abs 0x150
 280:	68 00 42 0e 	mova	r0,	&0x80e42
 284:	04 42       	mov	r2,	r4	
 286:	0e 06       	mova	@r6,	r14	
 288:	42 0e       	rlam.a	#4,	r2	
 28a:	08 42       	mov	r2,	r8	
 28c:	0e 0a       	mova	@r10,	r14	
 28e:	88 05 89 04 	mova	#0x50489,r8	
 292:	8a 03 8b 02 	mova	#0x3028b,r10	
 296:	34 00 00 00 	mova	0x0000,	r4	;PC rel. 0x00298
 29a:	5e 01       	rram	#1,	r14	
 29c:	00 00       	bra	@r0		
 29e:	d0 3b       	jl	$-94     	;abs 0x240
 2a0:	ce 00       	mova	r0,	r14	
 2a2:	42 0e       	rlam.a	#4,	r2	
 2a4:	04 42       	mov	r2,	r4	
 2a6:	0e 06       	mova	@r6,	r14	
 2a8:	42 0e       	rlam.a	#4,	r2	
 2aa:	08 42       	mov	r2,	r8	
 2ac:	0e 0a       	mova	@r10,	r14	
 2ae:	42 0e       	rlam.a	#4,	r2	
 2b0:	0c 42       	mov	r2,	r12	
 2b2:	0e 0e       	mova	@r14,	r14	
 2b4:	42 0e       	rlam.a	#4,	r2	
 2b6:	10 42 0e 12 	br	&0x120e	
 2ba:	42 0e       	rlam.a	#4,	r2	
 2bc:	16 84 09 85 	sub	-31479(r4),r6	;0x8509(r4)
 2c0:	08 86       	sub	r6,	r8	
 2c2:	07 87       	sub	r7,	r7	
 2c4:	06 88       	sub	r8,	r6	
 2c6:	05 89       	sub	r9,	r5	
 2c8:	04 8a       	sub	r10,	r4	
 2ca:	03 8b       	.word	0x8b03;	????	Illegal as 2-op instr
 2cc:	02 00       	mova	@r0,	r2	
 2ce:	22 00 00 00 	mova	&0x00000,r2	
 2d2:	5e 01       	rram	#1,	r14	
 2d4:	00 00       	bra	@r0		
 2d6:	9e 3c       	jmp	$+318    	;abs 0x414
 2d8:	9a 00 42 0e 	cmpa	#0x00e42,r10	
 2dc:	04 42       	mov	r2,	r4	
 2de:	0e 06       	mova	@r6,	r14	
 2e0:	42 0e       	rlam.a	#4,	r2	
 2e2:	08 42       	mov	r2,	r8	
 2e4:	0e 0a       	mova	@r10,	r14	
 2e6:	88 05 89 04 	mova	#0x50489,r8	
 2ea:	8a 03 8b 02 	mova	#0x3028b,r10	
 2ee:	7c 0e 0c 4e 	mova	r14,	19980(r12);0x4e0c(r12)
 2f2:	0e 0a       	mova	@r10,	r14	
 2f4:	08 00       	mova	@r0,	r8	
 2f6:	00 00       	bra	@r0		
 2f8:	5e 01       	rram	#1,	r14	
 2fa:	00 00       	bra	@r0		
 2fc:	38 3d       	jmp	$+626    	;abs 0x56e
 2fe:	1a 00       	mova	#0x00000,r10	
 300:	08 00       	mova	@r0,	r8	
 302:	00 00       	bra	@r0		
 304:	5e 01       	rram	#1,	r14	
 306:	00 00       	bra	@r0		
 308:	52 3d       	jmp	$+678    	;abs 0x5ae
 30a:	1a 00       	mova	#0x00000,r10	
 30c:	22 00 00 00 	mova	&0x00000,r2	
 310:	5e 01       	rram	#1,	r14	
 312:	00 00       	bra	@r0		
 314:	6c 3d       	jmp	$+730    	;abs 0x5ee
 316:	a2 00 42 0e 	adda	#0x00e42,r2	
 31a:	04 42       	mov	r2,	r4	
 31c:	0e 06       	mova	@r6,	r14	
 31e:	42 0e       	rlam.a	#4,	r2	
 320:	08 42       	mov	r2,	r8	
 322:	0e 0a       	mova	@r10,	r14	
 324:	42 0e       	rlam.a	#4,	r2	
 326:	0c 87       	sub	r7,	r12	
 328:	06 88       	sub	r8,	r6	
 32a:	05 89       	sub	r9,	r5	
 32c:	04 8a       	sub	r10,	r4	
 32e:	03 8b       	.word	0x8b03;	????	Illegal as 2-op instr
 330:	02 00       	mova	@r0,	r2	
 332:	08 00       	mova	@r0,	r8	
 334:	00 00       	bra	@r0		
 336:	5e 01       	rram	#1,	r14	
 338:	00 00       	bra	@r0		
 33a:	0e 3e       	jmp	$-994    	;abs 0xff58
 33c:	66 00 08 00 	mova	r0,	&0x60008
 340:	00 00       	bra	@r0		
 342:	5e 01       	rram	#1,	r14	
 344:	00 00       	bra	@r0		
 346:	74 3e       	jmp	$-790    	;abs 0x30
 348:	08 00       	mova	@r0,	r8	
 34a:	36 00 00 00 	mova	0x0000,	r6	;PC rel. 0x0034c
 34e:	5e 01       	rram	#1,	r14	
 350:	00 00       	bra	@r0		
 352:	7c 3e       	jmp	$-774    	;abs 0x4c
 354:	8c 00 42 0e 	mova	#0x00e42,r12	
 358:	04 42       	mov	r2,	r4	
 35a:	0e 06       	mova	@r6,	r14	
 35c:	42 0e       	rlam.a	#4,	r2	
 35e:	08 42       	mov	r2,	r8	
 360:	0e 0a       	mova	@r10,	r14	
 362:	42 0e       	rlam.a	#4,	r2	
 364:	0c 87       	sub	r7,	r12	
 366:	06 88       	sub	r8,	r6	
 368:	05 89       	sub	r9,	r5	
 36a:	04 8a       	sub	r10,	r4	
 36c:	03 8b       	.word	0x8b03;	????	Illegal as 2-op instr
 36e:	02 66       	addc	r6,	r2	
 370:	0e 0e       	mova	@r14,	r14	
 372:	4e 0e       	rlam.a	#4,	r14	
 374:	0c 54       	add	r4,	r12	
 376:	0e 0e       	mova	@r14,	r14	
 378:	44 2e       	jc	$-886    	;abs 0x2
 37a:	02 46       	mov	r6,	r2	
 37c:	0e 0c       	mova	@r12,	r14	
 37e:	44 0e       	rlam.a	#4,	r4	
 380:	0e 52       	add	r2,	r14	
 382:	0e 0c       	mova	@r12,	r14	
 384:	12 00       	mova	#0x00000,r2	
 386:	00 00       	bra	@r0		
 388:	5e 01       	rram	#1,	r14	
 38a:	00 00       	bra	@r0		
 38c:	08 3f       	jmp	$-494    	;abs 0x19e
 38e:	44 00       	rrcm.a	#1,	r4	
 390:	42 0e       	rlam.a	#4,	r2	
 392:	04 42       	mov	r2,	r4	
 394:	0e 06       	mova	@r6,	r14	
 396:	8a 03 8b 02 	mova	#0x3028b,r10	
 39a:	0e 00       	mova	@r0,	r14	
 39c:	00 00       	bra	@r0		
 39e:	ff ff ff ff 	and.b	@r15+,	-1(r15)	;0xffff(r15)
 3a2:	01 00       	mova	@r0,	r1	
 3a4:	01 7e       	subc	r14,	r1	
 3a6:	00 0c       	bra	@r12		
 3a8:	01 02       	mova	#4,	r1	;r2 As==10
 3aa:	80 01 08 00 	bra	#0x10008	
 3ae:	00 00       	bra	@r0		
 3b0:	9a 03 00 00 	cmpa	#0x30000,r10	
 3b4:	cc 41 02 00 	mov.b	r1,	2(r12)	;0x0002(r12)
 3b8:	08 00       	mova	@r0,	r8	
 3ba:	00 00       	bra	@r0		
 3bc:	9a 03 00 00 	cmpa	#0x30000,r10	
 3c0:	ce 41 02 00 	mov.b	r1,	2(r14)	;0x0002(r14)
 3c4:	08 00       	mova	@r0,	r8	
 3c6:	00 00       	bra	@r0		
 3c8:	9a 03 00 00 	cmpa	#0x30000,r10	
 3cc:	d0 41 10 00 	mov.b	16(r1),	0x0012	;0x0010(r1), PC rel. 0x003e4
 3d0:	12 00 
 3d2:	00 00       	bra	@r0		
 3d4:	9a 03 00 00 	cmpa	#0x30000,r10	
 3d8:	e0 41 20 00 	mov.b	@r1,	0x0020	;PC rel. 0x003fc
 3dc:	42 0e       	rlam.a	#4,	r2	
 3de:	04 42       	mov	r2,	r4	
 3e0:	0e 06       	mova	@r6,	r14	
 3e2:	8a 03 8b 02 	mova	#0x3028b,r10	
 3e6:	08 00       	mova	@r0,	r8	
 3e8:	00 00       	bra	@r0		
 3ea:	9a 03 00 00 	cmpa	#0x30000,r10	
 3ee:	00 42       	br	r2		
 3f0:	08 00       	mova	@r0,	r8	
 3f2:	08 00       	mova	@r0,	r8	
 3f4:	00 00       	bra	@r0		
 3f6:	9a 03 00 00 	cmpa	#0x30000,r10	
 3fa:	08 42       	mov	r2,	r8	
 3fc:	10 00       	bra	#0x00000	
 3fe:	12 00       	mova	#0x00000,r2	
 400:	00 00       	bra	@r0		
 402:	9a 03 00 00 	cmpa	#0x30000,r10	
 406:	18 42 2c 00 	mov	&0x002c,r8	
 40a:	42 0e       	rlam.a	#4,	r2	
 40c:	04 42       	mov	r2,	r4	
 40e:	0e 06       	mova	@r6,	r14	
 410:	8e 03 8f 02 	mova	#0x3028f,r14	
 414:	0e 00       	mova	@r0,	r14	
 416:	00 00       	bra	@r0		
 418:	ff ff ff ff 	and.b	@r15+,	-1(r15)	;0xffff(r15)
 41c:	01 00       	mova	@r0,	r1	
 41e:	01 7e       	subc	r14,	r1	
 420:	00 0c       	bra	@r12		
 422:	01 02       	mova	#4,	r1	;r2 As==10
 424:	80 01 08 00 	bra	#0x10008	
 428:	00 00       	bra	@r0		
 42a:	14 04       	mova	@r4+,	r4	
 42c:	00 00       	bra	@r0		
 42e:	44 42       	mov.b	r2,	r4	
 430:	1c 00       	mova	#0x00000,r12	
 432:	30 00 00 00 	bra	0x0000		;PC rel. 0x00434
 436:	14 04       	mova	@r4+,	r4	
 438:	00 00       	bra	@r0		
 43a:	60 42       	br	#4		;r2 As==10
 43c:	84 00 42 0e 	mova	#0x00e42,r4	
 440:	04 42       	mov	r2,	r4	
 442:	0e 06       	mova	@r6,	r14	
 444:	42 0e       	rlam.a	#4,	r2	
 446:	08 42       	mov	r2,	r8	
 448:	0e 0a       	mova	@r10,	r14	
 44a:	42 0e       	rlam.a	#4,	r2	
 44c:	0c 42       	mov	r2,	r12	
 44e:	0e 0e       	mova	@r14,	r14	
 450:	42 0e       	rlam.a	#4,	r2	
 452:	10 42 0e 12 	br	&0x120e	
 456:	84 09 85 08 	mova	#0x90885,r4	
 45a:	86 07 87 06 	mova	#0x70687,r6	
 45e:	88 05 89 04 	mova	#0x50489,r8	
 462:	8a 03 8b 02 	mova	#0x3028b,r10	
 466:	08 00       	mova	@r0,	r8	
 468:	00 00       	bra	@r0		
 46a:	14 04       	mova	@r4+,	r4	
 46c:	00 00       	bra	@r0		
 46e:	e4 42 48 00 	mov.b	#4,	72(r4)	;r2 As==10, 0x0048(r4)
 472:	08 00       	mova	@r0,	r8	
 474:	00 00       	bra	@r0		
 476:	14 04       	mova	@r4+,	r4	
 478:	00 00       	bra	@r0		
 47a:	2c 43       	mov	#2,	r12	;r3 As==10
 47c:	3e 00 0e 00 	mova	0x000e,	r14	;PC rel. 0x0048c
 480:	00 00       	bra	@r0		
 482:	ff ff ff ff 	and.b	@r15+,	-1(r15)	;0xffff(r15)
 486:	01 00       	mova	@r0,	r1	
 488:	01 7e       	subc	r14,	r1	
 48a:	00 0c       	bra	@r12		
 48c:	01 02       	mova	#4,	r1	;r2 As==10
 48e:	80 01 08 00 	bra	#0x10008	
 492:	00 00       	bra	@r0		
 494:	7e 04 00 00 	mova	r4,	0(r14)	;0x0000(r14)
 498:	6a 43       	mov.b	#2,	r10	;r3 As==10
 49a:	12 00       	mova	#0x00000,r2	
 49c:	08 00       	mova	@r0,	r8	
 49e:	00 00       	bra	@r0		
 4a0:	7e 04 00 00 	mova	r4,	0(r14)	;0x0000(r14)
 4a4:	7c 43       	mov.b	#-1,	r12	;r3 As==11
 4a6:	0e 00       	mova	@r0,	r14	
 4a8:	0e 00       	mova	@r0,	r14	
 4aa:	00 00       	bra	@r0		
 4ac:	ff ff ff ff 	and.b	@r15+,	-1(r15)	;0xffff(r15)
 4b0:	01 00       	mova	@r0,	r1	
 4b2:	01 7e       	subc	r14,	r1	
 4b4:	00 0c       	bra	@r12		
 4b6:	01 02       	mova	#4,	r1	;r2 As==10
 4b8:	80 01 34 00 	bra	#0x10034	
 4bc:	00 00       	bra	@r0		
 4be:	a8 04 00 00 	adda	#0x40000,r8	
 4c2:	8a 43 04 01 	mov	#0,	260(r10);r3 As==00, 0x0104(r10)
 4c6:	42 0e       	rlam.a	#4,	r2	
 4c8:	04 42       	mov	r2,	r4	
 4ca:	0e 06       	mova	@r6,	r14	
 4cc:	42 0e       	rlam.a	#4,	r2	
 4ce:	08 42       	mov	r2,	r8	
 4d0:	0e 0a       	mova	@r10,	r14	
 4d2:	42 0e       	rlam.a	#4,	r2	
 4d4:	0c 42       	mov	r2,	r12	
 4d6:	0e 0e       	mova	@r14,	r14	
 4d8:	42 0e       	rlam.a	#4,	r2	
 4da:	10 42 0e 12 	br	&0x120e	
 4de:	42 0e       	rlam.a	#4,	r2	
 4e0:	14 84 09 85 	sub	-31479(r4),r4	;0x8509(r4)
 4e4:	08 86       	sub	r6,	r8	
 4e6:	07 87       	sub	r7,	r7	
 4e8:	06 88       	sub	r8,	r6	
 4ea:	05 89       	sub	r9,	r5	
 4ec:	04 8a       	sub	r10,	r4	
 4ee:	03 8b       	.word	0x8b03;	????	Illegal as 2-op instr
 4f0:	02 00       	mova	@r0,	r2	
 4f2:	34 00 00 00 	mova	0x0000,	r4	;PC rel. 0x004f4
 4f6:	a8 04 00 00 	adda	#0x40000,r8	
 4fa:	96 44 6a 03 	mov	874(r4),3650(r6);0x036a(r4), 0x0e42(r6)
 4fe:	42 0e 
 500:	04 42       	mov	r2,	r4	
 502:	0e 06       	mova	@r6,	r14	
 504:	42 0e       	rlam.a	#4,	r2	
 506:	08 42       	mov	r2,	r8	
 508:	0e 0a       	mova	@r10,	r14	
 50a:	42 0e       	rlam.a	#4,	r2	
 50c:	0c 42       	mov	r2,	r12	
 50e:	0e 0e       	mova	@r14,	r14	
 510:	42 0e       	rlam.a	#4,	r2	
 512:	10 42 0e 12 	br	&0x120e	
 516:	44 0e       	rlam.a	#4,	r4	
 518:	34 84       	sub	@r4+,	r4	
 51a:	09 85       	sub	r5,	r9	
 51c:	08 86       	sub	r6,	r8	
 51e:	07 87       	sub	r7,	r7	
 520:	06 88       	sub	r8,	r6	
 522:	05 89       	sub	r9,	r5	
 524:	04 8a       	sub	r10,	r4	
 526:	03 8b       	.word	0x8b03;	????	Illegal as 2-op instr
 528:	02 00       	mova	@r0,	r2	

Disassembly of section .debug_str:

00000000 <.debug_str>:
   0:	54 45 53 54 	mov.b	21587(r5),r4	;0x5453(r5)
   4:	41 4e       	mov.b	r14,	r1	
   6:	44 4f       	mov.b	r15,	r4	
   8:	5f 33       	jn	$-320    	;abs 0xfec8
   a:	30 30       	jn	$+98     	;abs 0x6c
   c:	30 00 6d 6f 	bra	0x6f6d		;PC rel. 0x06f7b
  10:	73 74       	.word	0x7473;	????	Illegal as 2-op instr
  12:	72 61       	addc.b	@r1+,	r2	
  14:	5f 61 74 75 	addc.b	30068(r1),r15	;0x7574(r1)
  18:	61 6c       	addc.b	@r12,	r1	
  1a:	00 54       	add	r4,	r0	
  1c:	6f 74       	subc.b	@r4,	r15	
  1e:	61 6c       	addc.b	@r12,	r1	
  20:	00 56       	add	r6,	r0	
  22:	6f 6c       	addc.b	@r12,	r15	
  24:	74 61       	addc.b	@r1+,	r4	
  26:	67 65       	addc.b	@r5,	r7	
  28:	00 4d       	br	r13		
  2a:	65 64       	addc.b	@r4,	r5	
  2c:	69 61       	addc.b	@r1,	r9	
  2e:	6e 61       	addc.b	@r1,	r14	
  30:	00 6c       	addc	r12,	r0	
  32:	6f 6e       	addc.b	@r14,	r15	
  34:	67 20       	jnz	$+208    	;abs 0x104
  36:	6c 6f       	addc.b	@r15,	r12	
  38:	6e 67       	addc.b	@r7,	r14	
  3a:	20 75       	subc	@r5,	r0	
  3c:	6e 73       	subc.b	#2,	r14	;r3 As==10
  3e:	69 67       	addc.b	@r7,	r9	
  40:	6e 65       	addc.b	@r5,	r14	
  42:	64 20       	jnz	$+202    	;abs 0x10c
  44:	69 6e       	addc.b	@r14,	r9	
  46:	74 00 2a 5f 	mova	r0,	24362(r4);0x5f2a(r4)
  4a:	5f 57 44 54 	add.b	21572(r7),r15	;0x5444(r7)
  4e:	43 54       	.word	0x5443;	????	Illegal as 2-op instr
  50:	4c 00       	rrcm.a	#1,	r12	
  52:	54 45 53 54 	mov.b	21587(r5),r4	;0x5453(r5)
  56:	41 4e       	mov.b	r14,	r1	
  58:	44 4f       	mov.b	r15,	r4	
  5a:	5f 33       	jn	$-320    	;abs 0xff1a
  5c:	35 30       	jn	$+108    	;abs 0xc8
  5e:	30 00 6c 6f 	bra	0x6f6c		;PC rel. 0x06fcc
  62:	6e 67       	addc.b	@r7,	r14	
  64:	20 6c       	addc	@r12,	r0	
  66:	6f 6e       	addc.b	@r14,	r15	
  68:	67 20       	jnz	$+208    	;abs 0x138
  6a:	69 6e       	addc.b	@r14,	r9	
  6c:	74 00 2a 5f 	mova	r0,	24362(r4);0x5f2a(r4)
  70:	5f 42 43 53 	mov.b	&0x5343,r15	
  74:	43 54       	.word	0x5443;	????	Illegal as 2-op instr
  76:	4c 32       	jn	$-870    	;abs 0xfd10
  78:	00 2a       	jnc	$-1022   	;abs 0xfc7a
  7a:	5f 5f 42 43 	add.b	17218(r15),r15	;0x4342(r15)
  7e:	53 43       	.word	0x4353;	????	Illegal as 2-op instr
  80:	54 4c 33 00 	mov.b	51(r12),r4	;0x0033(r12)
  84:	44 45       	mov.b	r5,	r4	
  86:	4c 41       	mov.b	r1,	r12	
  88:	59 5f 41 4d 	add.b	19777(r15),r9	;0x4d41(r15)
  8c:	4f 53       	add.b	#0,	r15	;r3 As==00
  8e:	54 52 41 5f 	add.b	&0x5f41,r4	
  92:	56 49 42 52 	mov.b	21058(r9),r6	;0x5242(r9)
  96:	41 54       	add.b	r4,	r1	
  98:	49 4f       	mov.b	r15,	r9	
  9a:	4e 00       	rrcm.a	#1,	r14	
  9c:	2a 5f       	add	@r15,	r10	
  9e:	5f 50 32 44 	add.b	0x4432,	r15	;PC rel. 0x044d4
  a2:	49 52       	add.b	r2,	r9	
  a4:	00 53       	add	#0,	r0	;r3 As==00
  a6:	61 6d       	addc.b	@r13,	r1	
  a8:	70 6c       	addc.b	@r12+,	r0	
  aa:	65 49       	mov.b	@r9,	r5	
  ac:	6e 64       	addc.b	@r4,	r14	
  ae:	65 78       	subc.b	@r8,	r5	
  b0:	00 54       	add	r4,	r0	
  b2:	45 53       	add.b	#0,	r5	;r3 As==00
  b4:	54 41 4e 44 	mov.b	17486(r1),r4	;0x444e(r1)
  b8:	4f 5f       	rla.b	r15		
  ba:	32 35       	jge	$+614    	;abs 0x320
  bc:	30 30       	jn	$+98     	;abs 0x11e
  be:	00 49       	br	r9		
  c0:	4e 49       	mov.b	r9,	r14	
  c2:	43 49       	.word	0x4943;	????	Illegal as 2-op instr
  c4:	41 4e       	mov.b	r14,	r1	
  c6:	44 4f       	mov.b	r15,	r4	
  c8:	00 44       	br	r4		
  ca:	45 4c       	mov.b	r12,	r5	
  cc:	41 59       	add.b	r9,	r1	
  ce:	5f 42 41 43 	mov.b	&0x4341,r15	
  d2:	4b 4c       	mov.b	r12,	r11	
  d4:	45 44       	mov.b	r4,	r5	
  d6:	00 2a       	jnc	$-1022   	;abs 0xfcd8
  d8:	5f 5f 54 42 	add.b	16980(r15),r15	;0x4254(r15)
  dc:	43 43       	clr.b	#0		;r3 As==00
  de:	54 4c 31 00 	mov.b	49(r12),r4	;0x0031(r12)
  e2:	63 6c       	.word	0x6c63;	????	Illegal as 2-op instr
  e4:	6f 63       	addc.b	#2,	r15	;r3 As==10
  e6:	6b 5f       	add.b	@r15,	r11	
  e8:	69 6e       	addc.b	@r14,	r9	
  ea:	69 74       	subc.b	@r4,	r9	
  ec:	00 44       	br	r4		
  ee:	45 4c       	mov.b	r12,	r5	
  f0:	41 59       	add.b	r9,	r1	
  f2:	5f 53       	inc.b	r15		
  f4:	45 43       	clr.b	r5		
  f6:	4f 4e       	mov.b	r14,	r15	
  f8:	44 53       	add.b	#0,	r4	;r3 As==00
  fa:	5f 49 4e 44 	mov.b	17486(r9),r15	;0x444e(r9)
  fe:	45 58       	add.b	r8,	r5	
 100:	00 54       	add	r4,	r0	
 102:	49 4d       	mov.b	r13,	r9	
 104:	45 44       	mov.b	r4,	r5	
 106:	45 4c       	mov.b	r12,	r5	
 108:	41 59       	add.b	r9,	r1	
 10a:	5f 4c 45 4e 	mov.b	20037(r12),r15	;0x4e45(r12)
 10e:	00 4c       	br	r12		
 110:	61 73       	subc.b	#2,	r1	;r3 As==10
 112:	74 52       	add.b	#8,	r4	;r2 As==11
 114:	65 73       	subc.b	#2,	r5	;r3 As==10
 116:	75 6c       	addc.b	@r12+,	r5	
 118:	74 00 44 45 	mova	r0,	17732(r4);0x4544(r4)
 11c:	4c 41       	mov.b	r1,	r12	
 11e:	59 5f 53 54 	add.b	21587(r15),r9	;0x5453(r15)
 122:	49 43       	clr.b	r9		
 124:	4b 5f       	add.b	r15,	r11	
 126:	49 4e       	mov.b	r14,	r9	
 128:	44 45       	mov.b	r5,	r4	
 12a:	58 00       	rrcm	#1,	r8	
 12c:	73 68       	.word	0x6873;	????	Illegal as 2-op instr
 12e:	6f 72       	subc.b	#4,	r15	;r2 As==10
 130:	74 20       	jnz	$+234    	;abs 0x21a
 132:	75 6e       	addc.b	@r14+,	r5	
 134:	73 69       	.word	0x6973;	????	Illegal as 2-op instr
 136:	67 6e       	addc.b	@r14,	r7	
 138:	65 64       	addc.b	@r4,	r5	
 13a:	20 69       	addc	@r9,	r0	
 13c:	6e 74       	subc.b	@r4,	r14	
 13e:	00 6d       	addc	r13,	r0	
 140:	61 69       	addc.b	@r9,	r1	
 142:	6e 2e       	jc	$-802    	;abs 0xfe20
 144:	63 00 74 69 	mova	r0,	&0x36974
 148:	6d 65       	addc.b	@r5,	r13	
 14a:	72 5f       	add.b	@r15+,	r2	
 14c:	69 6e       	addc.b	@r14,	r9	
 14e:	69 74       	subc.b	@r4,	r9	
 150:	00 4c       	br	r12		
 152:	6f 61       	addc.b	@r1,	r15	
 154:	64 53       	incd.b	r4		
 156:	61 6d       	addc.b	@r13,	r1	
 158:	70 6c       	addc.b	@r12+,	r0	
 15a:	65 73       	subc.b	#2,	r5	;r3 As==10
 15c:	00 41       	br	r1		
 15e:	47 55       	add.b	r5,	r7	
 160:	41 52       	add.b	r2,	r1	
 162:	44 41       	mov.b	r1,	r4	
 164:	5f 32       	jn	$-832    	;abs 0xfe24
 166:	30 30       	jn	$+98     	;abs 0x1c8
 168:	30 00 56 6f 	bra	0x6f56		;PC rel. 0x070c0
 16c:	6c 74       	subc.b	@r4,	r12	
 16e:	61 67       	addc.b	@r7,	r1	
 170:	65 53       	incd.b	r5		
 172:	61 6d       	addc.b	@r13,	r1	
 174:	70 6c       	addc.b	@r12+,	r0	
 176:	65 73       	subc.b	#2,	r5	;r3 As==10
 178:	00 43       	clr	r0		
 17a:	75 72       	subc.b	#8,	r5	;r2 As==11
 17c:	72 65       	addc.b	@r5+,	r2	
 17e:	6e 74       	subc.b	@r4,	r14	
 180:	73 00       	.word	0x0073;	????	Illegal as address instr
 182:	43 75       	.word	0x7543;	????	Illegal as 2-op instr
 184:	72 72       	subc.b	#8,	r2	;r2 As==11
 186:	65 6e       	addc.b	@r14,	r5	
 188:	74 53       	add.b	#-1,	r4	;r3 As==11
 18a:	61 6d       	addc.b	@r13,	r1	
 18c:	70 6c       	addc.b	@r12+,	r0	
 18e:	65 73       	subc.b	#2,	r5	;r3 As==10
 190:	00 43       	clr	r0		
 192:	75 72       	subc.b	#8,	r5	;r2 As==11
 194:	72 65       	addc.b	@r5+,	r2	
 196:	6e 74       	subc.b	@r4,	r14	
 198:	00 43       	clr	r0		
 19a:	75 72       	subc.b	#8,	r5	;r2 As==11
 19c:	72 65       	addc.b	@r5+,	r2	
 19e:	6e 74       	subc.b	@r4,	r14	
 1a0:	4d 65       	addc.b	r5,	r13	
 1a2:	64 69       	addc.b	@r9,	r4	
 1a4:	61 6e       	addc.b	@r14,	r1	
 1a6:	61 73       	subc.b	#2,	r1	;r3 As==10
 1a8:	00 44       	br	r4		
 1aa:	45 4c       	mov.b	r12,	r5	
 1ac:	41 59       	add.b	r9,	r1	
 1ae:	5f 42 41 54 	mov.b	&0x5441,r15	
 1b2:	54 45 52 59 	mov.b	22866(r5),r4	;0x5952(r5)
 1b6:	5f 43       	mov.b	#1,	r15	;r3 As==01
 1b8:	48 45       	mov.b	r5,	r8	
 1ba:	43 4b       	.word	0x4b43;	????	Illegal as 2-op instr
 1bc:	00 2a       	jnc	$-1022   	;abs 0xfdbe
 1be:	5f 5f 54 42 	add.b	16980(r15),r15	;0x4254(r15)
 1c2:	43 54       	.word	0x5443;	????	Illegal as 2-op instr
 1c4:	4c 00       	rrcm.a	#1,	r12	
 1c6:	4c 43       	clr.b	r12		
 1c8:	44 42       	mov.b	r2,	r4	
 1ca:	61 63       	addc.b	#2,	r1	;r3 As==10
 1cc:	6b 43       	mov.b	#2,	r11	;r3 As==10
 1ce:	6f 6c       	addc.b	@r12,	r15	
 1d0:	6f 72       	subc.b	#4,	r15	;r2 As==10
 1d2:	00 73       	sbc	r0		
 1d4:	65 74       	subc.b	@r4,	r5	
 1d6:	75 70 00 4c 	subc.b	#19456,	r5	;#0x4c00
 1da:	6f 61       	addc.b	@r1,	r15	
 1dc:	64 4d       	mov.b	@r13,	r4	
 1de:	65 64       	addc.b	@r4,	r5	
 1e0:	69 61       	addc.b	@r1,	r9	
 1e2:	6e 61       	addc.b	@r1,	r14	
 1e4:	73 00       	.word	0x0073;	????	Illegal as address instr
 1e6:	44 45       	mov.b	r5,	r4	
 1e8:	4c 41       	mov.b	r1,	r12	
 1ea:	59 5f 46 4c 	add.b	19526(r15),r9	;0x4c46(r15)
 1ee:	49 47       	mov.b	r7,	r9	
 1f0:	48 54       	add.b	r4,	r8	
 1f2:	5f 54 49 4d 	add.b	19785(r4),r15	;0x4d49(r4)
 1f6:	45 00       	rrcm.a	#1,	r5	
 1f8:	43 6f       	.word	0x6f43;	????	Illegal as 2-op instr
 1fa:	75 6e       	addc.b	@r14+,	r5	
 1fc:	74 65       	addc.b	@r5+,	r4	
 1fe:	72 00 4c 6f 	mova	r0,	&0x6f4c	
 202:	61 64       	addc.b	@r4,	r1	
 204:	4f 66       	addc.b	r6,	r15	
 206:	66 73       	subc.b	#2,	r6	;r3 As==10
 208:	65 74       	subc.b	@r4,	r5	
 20a:	00 44       	br	r4		
 20c:	45 4c       	mov.b	r12,	r5	
 20e:	41 59       	add.b	r9,	r1	
 210:	5f 53       	inc.b	r15		
 212:	49 44       	mov.b	r4,	r9	
 214:	45 4c       	mov.b	r12,	r5	
 216:	45 44       	mov.b	r4,	r5	
 218:	53 00       	rrcm	#1,	#0	;r3 As==00
 21a:	4d 65       	addc.b	r5,	r13	
 21c:	64 69       	addc.b	@r9,	r4	
 21e:	61 6e       	addc.b	@r14,	r1	
 220:	61 49       	mov.b	@r9,	r1	
 222:	6e 64       	addc.b	@r4,	r14	
 224:	65 78       	subc.b	@r8,	r5	
 226:	00 75       	subc	r5,	r0	
 228:	6e 73       	subc.b	#2,	r14	;r3 As==10
 22a:	69 67       	addc.b	@r7,	r9	
 22c:	6e 65       	addc.b	@r5,	r14	
 22e:	64 20       	jnz	$+202    	;abs 0x2f8
 230:	63 68       	.word	0x6863;	????	Illegal as 2-op instr
 232:	61 72       	subc.b	#4,	r1	;r2 As==10
 234:	00 4d       	br	r13		
 236:	65 64       	addc.b	@r4,	r5	
 238:	69 61       	addc.b	@r1,	r9	
 23a:	00 43       	clr	r0		
 23c:	3a 5c       	add	@r12+,	r10	
 23e:	55 73       	subc.b	#1,	r5	;r3 As==01
 240:	65 72       	subc.b	#4,	r5	;r2 As==10
 242:	73 5c       	.word	0x5c73;	????	Illegal as 2-op instr
 244:	66 6c       	addc.b	@r12,	r6	
 246:	61 76       	subc.b	@r6,	r1	
 248:	69 6f       	addc.b	@r15,	r9	
 24a:	68 70       	subc.b	@r0,	r8	
 24c:	6f 5c       	add.b	@r12,	r15	
 24e:	44 65       	addc.b	r5,	r4	
 250:	73 6b       	.word	0x6b73;	????	Illegal as 2-op instr
 252:	74 6f       	addc.b	@r15+,	r4	
 254:	70 5c       	add.b	@r12+,	r0	
 256:	67 65       	addc.b	@r5,	r7	
 258:	72 61       	addc.b	@r1+,	r2	
 25a:	64 6f       	addc.b	@r15,	r4	
 25c:	72 50 57 4d 	add.b	#19799,	r2	;#0x4d57
 260:	32 30       	jn	$+102    	;abs 0x2c6
 262:	6b 68       	addc.b	@r8,	r11	
 264:	7a 20       	jnz	$+246    	;abs 0x35a
 266:	63 6f       	.word	0x6f63;	????	Illegal as 2-op instr
 268:	6d 20       	jnz	$+220    	;abs 0x344
 26a:	6d 73       	subc.b	#2,	r13	;r3 As==10
 26c:	70 00 54 65 	mova	r0,	0x6554	;PC rel. 0x067c2
 270:	73 74       	.word	0x7473;	????	Illegal as 2-op instr
 272:	53 74       	.word	0x7453;	????	Illegal as 2-op instr
 274:	65 70       	subc.b	@r0,	r5	
 276:	00 2a       	jnc	$-1022   	;abs 0xfe78
 278:	5f 5f 50 34 	add.b	13392(r15),r15	;0x3450(r15)
 27c:	53 45       	.word	0x4553;	????	Illegal as 2-op instr
 27e:	4c 00       	rrcm.a	#1,	r12	
 280:	2a 5f       	add	@r15,	r10	
 282:	5f 54 42 43 	add.b	17218(r4),r15	;0x4342(r4)
 286:	43 52       	.word	0x5243;	????	Illegal as 2-op instr
 288:	30 00 2a 5f 	bra	0x5f2a		;PC rel. 0x061b4
 28c:	5f 54 42 43 	add.b	17218(r4),r15	;0x4342(r4)
 290:	43 52       	.word	0x5243;	????	Illegal as 2-op instr
 292:	31 00 53 4d 	mova	0x4d53,	r1	;PC rel. 0x04fe7
 296:	5f 54 45 53 	add.b	21317(r4),r15	;0x5345(r4)
 29a:	54 00       	rrcm	#1,	r4	
 29c:	2a 5f       	add	@r15,	r10	
 29e:	5f 50 32 4f 	add.b	0x4f32,	r15	;PC rel. 0x051d4
 2a2:	55 54 00 41 	add.b	16640(r4),r5	;0x4100(r4)
 2a6:	6e 61       	addc.b	@r1,	r14	
 2a8:	6c 6f       	addc.b	@r15,	r12	
 2aa:	67 56       	add.b	@r6,	r7	
 2ac:	61 6c       	addc.b	@r12,	r1	
 2ae:	75 65       	addc.b	@r5+,	r5	
 2b0:	00 54       	add	r4,	r0	
 2b2:	45 53       	add.b	#0,	r5	;r3 As==00
 2b4:	54 5f 52 45 	add.b	17746(r15),r4	;0x4552(r15)
 2b8:	53 55       	.word	0x5553;	????	Illegal as 2-op instr
 2ba:	4c 54       	add.b	r4,	r12	
 2bc:	00 4c       	br	r12		
 2be:	6f 61       	addc.b	@r1,	r15	
 2c0:	64 73       	subc.b	#2,	r4	;r3 As==10
 2c2:	00 6d       	addc	r13,	r0	
 2c4:	6f 73       	subc.b	#2,	r15	;r3 As==10
 2c6:	74 72       	subc.b	#8,	r4	;r2 As==11
 2c8:	61 5f       	add.b	@r15,	r1	
 2ca:	72 65       	addc.b	@r5+,	r2	
 2cc:	73 75       	.word	0x7573;	????	Illegal as 2-op instr
 2ce:	6c 74       	subc.b	@r4,	r12	
 2d0:	61 64       	addc.b	@r4,	r1	
 2d2:	6f 00 54 49 	mova	r0,	&0xf4954
 2d6:	4d 45       	mov.b	r5,	r13	
 2d8:	52 42 31 5f 	mov.b	&0x5f31,r2	
 2dc:	49 53       	add.b	#0,	r9	;r3 As==00
 2de:	52 5f 48 4f 	add.b	20296(r15),r2	;0x4f48(r15)
 2e2:	4f 4b       	mov.b	r11,	r15	
 2e4:	00 56       	add	r6,	r0	
 2e6:	6f 6c       	addc.b	@r12,	r15	
 2e8:	74 61       	addc.b	@r1+,	r4	
 2ea:	67 65       	addc.b	@r5,	r7	
 2ec:	4d 65       	addc.b	r5,	r13	
 2ee:	64 69       	addc.b	@r9,	r4	
 2f0:	61 6e       	addc.b	@r14,	r1	
 2f2:	61 73       	subc.b	#2,	r1	;r3 As==10
 2f4:	00 2a       	jnc	$-1022   	;abs 0xfef6
 2f6:	5f 5f 42 43 	add.b	17218(r15),r15	;0x4342(r15)
 2fa:	53 43       	.word	0x4353;	????	Illegal as 2-op instr
 2fc:	54 4c 31 00 	mov.b	49(r12),r4	;0x0031(r12)
 300:	56 6f 6c 74 	addc.b	29804(r15),r6	;0x746c(r15)
 304:	61 67       	addc.b	@r7,	r1	
 306:	65 73       	subc.b	#2,	r5	;r3 As==10
 308:	00 2a       	jnc	$-1022   	;abs 0xff0a
 30a:	5f 5f 44 43 	add.b	17220(r15),r15	;0x4344(r15)
 30e:	4f 43       	clr.b	r15		
 310:	54 4c 00 54 	mov.b	21504(r12),r4	;0x5400(r12)
 314:	45 53       	add.b	#0,	r5	;r3 As==00
 316:	54 41 4e 44 	mov.b	17486(r1),r4	;0x444e(r1)
 31a:	4f 5f       	rla.b	r15		
 31c:	34 30       	jn	$+106    	;abs 0x386
 31e:	30 30       	jn	$+98     	;abs 0x380
 320:	00 69       	addc	r9,	r0	
 322:	6e 74       	subc.b	@r4,	r14	
 324:	31 36       	jge	$-924    	;abs 0xff88
 326:	00 47       	br	r7		
 328:	4e 55       	add.b	r5,	r14	
 32a:	20 43       	br	#2		;r3 As==10
 32c:	20 34       	jge	$+66     	;abs 0x36e
 32e:	2e 35       	jge	$+606    	;abs 0x58c
 330:	2e 33       	jn	$-418    	;abs 0x18e
 332:	00 2a       	jnc	$-1022   	;abs 0xff34
 334:	5f 5f 50 34 	add.b	13392(r15),r15	;0x3450(r15)
 338:	44 49       	mov.b	r9,	r4	
 33a:	52 00       	rrcm	#1,	r2	
 33c:	6d 61       	addc.b	@r1,	r13	
 33e:	69 6e       	addc.b	@r14,	r9	
 340:	00 4c       	br	r12		
 342:	6f 61       	addc.b	@r1,	r15	
 344:	64 00 63 6f 	mova	r0,	&0x46f63
 348:	6d 6d       	addc.b	@r13,	r13	
 34a:	00 6c       	addc	r12,	r0	
 34c:	63 64       	.word	0x6463;	????	Illegal as 2-op instr
 34e:	5f 6e 65 77 	addc.b	30565(r14),r15	;0x7765(r14)
 352:	6c 69       	addc.b	@r9,	r12	
 354:	6e 65       	addc.b	@r5,	r14	
 356:	00 62       	addc	r2,	r0	
 358:	61 63       	addc.b	#2,	r1	;r3 As==10
 35a:	6b 67       	addc.b	@r7,	r11	
 35c:	72 6f       	addc.b	@r15+,	r2	
 35e:	75 6e       	addc.b	@r14+,	r5	
 360:	64 5f       	add.b	@r15,	r4	
 362:	63 6f       	.word	0x6f63;	????	Illegal as 2-op instr
 364:	6c 6f       	addc.b	@r15,	r12	
 366:	72 00 4c 43 	mova	r0,	&0x434c	
 36a:	44 4c       	mov.b	r12,	r4	
 36c:	69 6e       	addc.b	@r14,	r9	
 36e:	65 43       	mov.b	#2,	r5	;r3 As==10
 370:	6f 75       	subc.b	@r5,	r15	
 372:	6e 74       	subc.b	@r4,	r14	
 374:	00 73       	sbc	r0		
 376:	74 65       	addc.b	@r5+,	r4	
 378:	70 78       	subc.b	@r8+,	r0	
 37a:	00 6e       	addc	r14,	r0	
 37c:	36 31       	jn	$+622    	;abs 0x5ea
 37e:	30 30       	jn	$+98     	;abs 0x3e0
 380:	5f 73       	subc.b	#1,	r15	;r3 As==01
 382:	65 6e       	addc.b	@r14,	r5	
 384:	64 00 6c 63 	mova	r0,	&0x4636c
 388:	64 5f       	add.b	@r15,	r4	
 38a:	64 72       	subc.b	#4,	r4	;r2 As==10
 38c:	61 77       	subc.b	@r7,	r1	
 38e:	70 6f       	addc.b	@r15+,	r0	
 390:	69 6e       	addc.b	@r14,	r9	
 392:	74 00 6c 63 	mova	r0,	25452(r4);0x636c(r4)
 396:	64 36       	jge	$-822    	;abs 0x60
 398:	31 30       	jn	$+100    	;abs 0x3fc
 39a:	30 2e       	jc	$-926    	;abs 0xfffc
 39c:	63 00 2a 5f 	mova	r0,	&0x35f2a
 3a0:	5f 50 35 4f 	add.b	0x4f35,	r15	;PC rel. 0x052d9
 3a4:	55 54 00 6c 	add.b	27648(r4),r5	;0x6c00(r4)
 3a8:	63 64       	.word	0x6463;	????	Illegal as 2-op instr
 3aa:	5f 77 72 63 	subc.b	25458(r7),r15	;0x6372(r7)
 3ae:	68 61       	addc.b	@r1,	r8	
 3b0:	72 00 6c 63 	mova	r0,	&0x636c	
 3b4:	64 5f       	add.b	@r15,	r4	
 3b6:	69 6e       	addc.b	@r14,	r9	
 3b8:	69 74       	subc.b	@r4,	r9	
 3ba:	00 66       	addc	r6,	r0	
 3bc:	72 61       	addc.b	@r1+,	r2	
 3be:	63 74       	.word	0x7463;	????	Illegal as 2-op instr
 3c0:	69 6f       	addc.b	@r15,	r9	
 3c2:	6e 00 77 69 	mova	r0,	&0xe6977
 3c6:	64 74       	subc.b	@r4,	r4	
 3c8:	68 00 63 6f 	mova	r0,	&0x86f63
 3cc:	6c 6f       	addc.b	@r15,	r12	
 3ce:	72 70 72 6f 	subc.b	#28530,	r2	;#0x6f72
 3d2:	67 72       	subc.b	#4,	r7	;r2 As==10
 3d4:	65 73       	subc.b	#2,	r5	;r3 As==10
 3d6:	73 00       	.word	0x0073;	????	Illegal as address instr
 3d8:	6c 78       	subc.b	@r8,	r12	
 3da:	5f 70 72 6f 	subc.b	0x6f72,	r15	;PC rel. 0x07350
 3de:	67 72       	subc.b	#4,	r7	;r2 As==10
 3e0:	65 73       	subc.b	#2,	r5	;r3 As==10
 3e2:	73 00       	.word	0x0073;	????	Illegal as address instr
 3e4:	61 64       	addc.b	@r4,	r1	
 3e6:	64 72       	subc.b	#4,	r4	;r2 As==10
 3e8:	00 6c       	addc	r12,	r0	
 3ea:	63 64       	.word	0x6463;	????	Illegal as 2-op instr
 3ec:	5f 67 6f 74 	addc.b	29807(r7),r15	;0x746f(r7)
 3f0:	6f 00 6c 63 	mova	r0,	&0xf636c
 3f4:	64 5f       	add.b	@r15,	r4	
 3f6:	70 75       	subc.b	@r5+,	r0	
 3f8:	74 64       	addc.b	@r4+,	r4	
 3fa:	6f 74       	subc.b	@r4,	r15	
 3fc:	00 6e       	addc	r14,	r0	
 3fe:	36 31       	jn	$+622    	;abs 0x66c
 400:	30 30       	jn	$+98     	;abs 0x462
 402:	5f 73       	subc.b	#1,	r15	;r3 As==01
 404:	65 6e       	addc.b	@r14,	r5	
 406:	64 63       	addc.b	#2,	r4	;r3 As==10
 408:	6f 6d       	addc.b	@r13,	r15	
 40a:	31 00 6e 36 	mova	0x366e,	r1	;PC rel. 0x03a7a
 40e:	31 30       	jn	$+100    	;abs 0x472
 410:	30 5f       	add	@r15+,	r0	
 412:	73 65       	.word	0x6573;	????	Illegal as 2-op instr
 414:	6e 64       	addc.b	@r4,	r14	
 416:	63 6f       	.word	0x6f63;	????	Illegal as 2-op instr
 418:	6d 32       	jn	$-804    	;abs 0xf4
 41a:	00 72       	subc	r2,	r0	
 41c:	61 64       	addc.b	@r4,	r1	
 41e:	69 75       	subc.b	@r5,	r9	
 420:	73 00       	.word	0x0073;	????	Illegal as address instr
 422:	64 61       	addc.b	@r1,	r4	
 424:	74 31       	jn	$+746    	;abs 0x70e
 426:	00 6c       	addc	r12,	r0	
 428:	63 64       	.word	0x6463;	????	Illegal as 2-op instr
 42a:	5f 73       	subc.b	#1,	r15	;r3 As==01
 42c:	65 74       	subc.b	@r4,	r5	
 42e:	63 6f       	.word	0x6f63;	????	Illegal as 2-op instr
 430:	6c 6f       	addc.b	@r15,	r12	
 432:	72 00 73 74 	mova	r0,	&0x7473	
 436:	65 70       	subc.b	@r0,	r5	
 438:	79 00 6c 63 	mova	r0,	25452(r9);0x636c(r9)
 43c:	64 5f       	add.b	@r15,	r4	
 43e:	64 72       	subc.b	#4,	r4	;r2 As==10
 440:	61 77       	subc.b	@r7,	r1	
 442:	63 69       	.word	0x6963;	????	Illegal as 2-op instr
 444:	72 63       	addc.b	#-1,	r2	;r3 As==11
 446:	6c 65       	addc.b	@r5,	r12	
 448:	00 6c       	addc	r12,	r0	
 44a:	63 64       	.word	0x6463;	????	Illegal as 2-op instr
 44c:	5f 70 75 74 	subc.b	0x7475,	r15	;PC rel. 0x078c5
 450:	6c 6f       	addc.b	@r15,	r12	
 452:	67 6f       	addc.b	@r15,	r7	
 454:	00 6c       	addc	r12,	r0	
 456:	63 64       	.word	0x6463;	????	Illegal as 2-op instr
 458:	5f 63       	addc.b	#1,	r15	;r3 As==01
 45a:	6c 65       	addc.b	@r5,	r12	
 45c:	61 72       	subc.b	#4,	r1	;r2 As==10
 45e:	00 64       	addc	r4,	r0	
 460:	61 74       	subc.b	@r4,	r1	
 462:	61 00 66 6f 	mova	r0,	&0x16f66
 466:	72 65       	addc.b	@r5+,	r2	
 468:	67 72       	subc.b	#4,	r7	;r2 As==10
 46a:	6f 75       	subc.b	@r5,	r15	
 46c:	6e 64       	addc.b	@r4,	r14	
 46e:	5f 63       	addc.b	#1,	r15	;r3 As==01
 470:	6f 6c       	addc.b	@r12,	r15	
 472:	6f 72       	subc.b	#4,	r15	;r2 As==10
 474:	00 6c       	addc	r12,	r0	
 476:	63 64       	.word	0x6463;	????	Illegal as 2-op instr
 478:	5f 64 72 61 	addc.b	24946(r4),r15	;0x6172(r4)
 47c:	77 70 72 6f 	subc.b	#28530,	r7	;#0x6f72
 480:	67 72       	subc.b	#4,	r7	;r2 As==10
 482:	65 73       	subc.b	#2,	r5	;r3 As==10
 484:	73 62       	.word	0x6273;	????	Illegal as 2-op instr
 486:	61 72       	subc.b	#4,	r1	;r2 As==10
 488:	00 64       	addc	r4,	r0	
 48a:	64 46       	mov.b	@r6,	r4	
 48c:	5f 78 00 64 	subc.b	25600(r8),r15	;0x6400(r8)
 490:	64 46       	mov.b	@r6,	r4	
 492:	5f 79 00 64 	subc.b	25600(r9),r15	;0x6400(r9)
 496:	61 74       	subc.b	@r4,	r1	
 498:	32 00 4c 43 	mova	0x434c,	r2	;PC rel. 0x047e6
 49c:	44 43       	clr.b	r4		
 49e:	68 61       	addc.b	@r1,	r8	
 4a0:	72 43       	mov.b	#-1,	r2	;r3 As==11
 4a2:	6f 75       	subc.b	@r5,	r15	
 4a4:	6e 74       	subc.b	@r4,	r14	
 4a6:	00 6d       	addc	r13,	r0	
 4a8:	61 73       	subc.b	#2,	r1	;r3 As==10
 4aa:	6b 00 6c 63 	mova	r0,	&0xb636c
 4ae:	64 5f       	add.b	@r15,	r4	
 4b0:	70 75       	subc.b	@r5+,	r0	
 4b2:	74 63       	addc.b	#-1,	r4	;r3 As==11
 4b4:	68 61       	addc.b	@r1,	r8	
 4b6:	72 00 70 65 	mova	r0,	&0x6570	
 4ba:	72 63       	addc.b	#-1,	r2	;r3 As==11
 4bc:	65 6e       	addc.b	@r14,	r5	
 4be:	74 00 6c 63 	mova	r0,	25452(r4);0x636c(r4)
 4c2:	64 5f       	add.b	@r15,	r4	
 4c4:	64 72       	subc.b	#4,	r4	;r2 As==10
 4c6:	61 77       	subc.b	@r7,	r1	
 4c8:	6c 69       	addc.b	@r9,	r12	
 4ca:	6e 65       	addc.b	@r5,	r14	
 4cc:	00 6c       	addc	r12,	r0	
 4ce:	63 64       	.word	0x6463;	????	Illegal as 2-op instr
 4d0:	5f 66 69 6c 	addc.b	27753(r6),r15	;0x6c69(r6)
 4d4:	6c 72       	subc.b	#4,	r12	;r2 As==10
 4d6:	65 63       	addc.b	#2,	r5	;r3 As==10
 4d8:	74 00 4c 43 	mova	r0,	17228(r4);0x434c(r4)
 4dc:	44 46       	mov.b	r6,	r4	
 4de:	6f 72       	subc.b	#4,	r15	;r2 As==10
 4e0:	65 43       	mov.b	#2,	r5	;r3 As==10
 4e2:	6f 6c       	addc.b	@r12,	r15	
 4e4:	6f 72       	subc.b	#4,	r15	;r2 As==10
 4e6:	00 2a       	jnc	$-1022   	;abs 0xe8
 4e8:	5f 5f 50 35 	add.b	13648(r15),r15	;0x3550(r15)
 4ec:	44 49       	mov.b	r9,	r4	
 4ee:	52 00       	rrcm	#1,	r2	
 4f0:	61 73       	subc.b	#2,	r1	;r3 As==10
 4f2:	63 69       	.word	0x6963;	????	Illegal as 2-op instr
 4f4:	69 74       	subc.b	@r4,	r9	
 4f6:	61 62       	addc.b	#4,	r1	;r2 As==10
 4f8:	6c 65       	addc.b	@r5,	r12	
 4fa:	00 66       	addc	r6,	r0	
 4fc:	72 6f       	addc.b	@r15+,	r2	
 4fe:	6d 00 64 65 	mova	r0,	&0xd6564
 502:	6c 61       	addc.b	@r1,	r12	
 504:	79 2e       	jc	$-780    	;abs 0x1f8
 506:	63 00 2a 5f 	mova	r0,	&0x35f2a
 50a:	5f 54 41 43 	add.b	17217(r4),r15	;0x4341(r4)
 50e:	54 4c 00 64 	mov.b	25600(r12),r4	;0x6400(r12)
 512:	65 6c       	addc.b	@r12,	r5	
 514:	61 79       	subc.b	@r9,	r1	
 516:	75 73       	subc.b	#-1,	r5	;r3 As==11
 518:	00 54       	add	r4,	r0	
 51a:	49 4d       	mov.b	r13,	r9	
 51c:	45 52       	add.b	r2,	r5	
 51e:	41 31       	jn	$+644    	;abs 0x7a2
 520:	5f 49 53 52 	mov.b	21075(r9),r15	;0x5253(r9)
 524:	5f 48 4f 4f 	mov.b	20303(r8),r15	;0x4f4f(r8)
 528:	4b 00       	rrcm.a	#1,	r11	
 52a:	74 69       	addc.b	@r9+,	r4	
 52c:	6d 65       	addc.b	@r5,	r13	
 52e:	00 54       	add	r4,	r0	
 530:	69 6d       	addc.b	@r13,	r9	
 532:	65 44       	mov.b	@r4,	r5	
 534:	65 6c       	addc.b	@r12,	r5	
 536:	61 79       	subc.b	@r9,	r1	
 538:	00 67       	addc	r7,	r0	
 53a:	65 74       	subc.b	@r4,	r5	
 53c:	5f 64 65 6c 	addc.b	27749(r4),r15	;0x6c65(r4)
 540:	61 79       	subc.b	@r9,	r1	
 542:	00 64       	addc	r4,	r0	
 544:	65 6c       	addc.b	@r12,	r5	
 546:	61 79       	subc.b	@r9,	r1	
 548:	6d 73       	subc.b	#2,	r13	;r3 As==10
 54a:	00 69       	addc	r9,	r0	
 54c:	6e 64       	addc.b	@r4,	r14	
 54e:	65 78       	subc.b	@r8,	r5	
 550:	00 73       	sbc	r0		
 552:	65 74       	subc.b	@r4,	r5	
 554:	5f 64 65 6c 	addc.b	27749(r4),r15	;0x6c65(r4)
 558:	61 79       	subc.b	@r9,	r1	
 55a:	00 44       	br	r4		
 55c:	45 4c       	mov.b	r12,	r5	
 55e:	41 59       	add.b	r9,	r1	
 560:	5f 49 4e 44 	mov.b	17486(r9),r15	;0x444e(r9)
 564:	45 58       	add.b	r8,	r5	
 566:	00 64       	addc	r4,	r0	
 568:	65 6c       	addc.b	@r12,	r5	
 56a:	61 79       	subc.b	@r9,	r1	
 56c:	35 75       	subc	@r5+,	r5	
 56e:	73 00       	.word	0x0073;	????	Illegal as address instr
 570:	74 65       	addc.b	@r5+,	r4	
 572:	6d 70       	subc.b	@r0,	r13	
 574:	6f 00 64 65 	mova	r0,	&0xf6564
 578:	6c 61       	addc.b	@r1,	r12	
 57a:	79 32       	jn	$-780    	;abs 0x26e
 57c:	75 73       	subc.b	#-1,	r5	;r3 As==11
 57e:	00 61       	addc	r1,	r0	
 580:	6e 61       	addc.b	@r1,	r14	
 582:	6c 6f       	addc.b	@r15,	r12	
 584:	67 5f       	add.b	@r15,	r7	
 586:	63 61       	.word	0x6163;	????	Illegal as 2-op instr
 588:	6c 69       	addc.b	@r9,	r12	
 58a:	62 72       	subc.b	#4,	r2	;r2 As==10
 58c:	61 74       	subc.b	@r4,	r1	
 58e:	65 5f       	add.b	@r15,	r5	
 590:	63 68       	.word	0x6863;	????	Illegal as 2-op instr
 592:	61 6e       	addc.b	@r14,	r1	
 594:	6e 65       	addc.b	@r5,	r14	
 596:	6c 00 41 6e 	mova	r0,	&0xc6e41
 59a:	61 6c       	addc.b	@r12,	r1	
 59c:	6f 67       	addc.b	@r7,	r15	
 59e:	4f 66       	addc.b	r6,	r15	
 5a0:	66 73       	subc.b	#2,	r6	;r3 As==10
 5a2:	65 74       	subc.b	@r4,	r5	
 5a4:	00 61       	addc	r1,	r0	
 5a6:	6e 61       	addc.b	@r1,	r14	
 5a8:	6c 6f       	addc.b	@r15,	r12	
 5aa:	67 2e       	jc	$-816    	;abs 0x27a
 5ac:	63 00 2a 5f 	mova	r0,	&0x35f2a
 5b0:	5f 41 44 43 	mov.b	17220(r1),r15	;0x4344(r1)
 5b4:	31 32       	jn	$-924    	;abs 0x218
 5b6:	43 54       	.word	0x5443;	????	Illegal as 2-op instr
 5b8:	4c 30       	jn	$+154    	;abs 0x652
 5ba:	00 2a       	jnc	$-1022   	;abs 0x1bc
 5bc:	5f 5f 41 44 	add.b	17473(r15),r15	;0x4441(r15)
 5c0:	43 31       	jn	$+648    	;abs 0x848
 5c2:	32 43       	mov	#-1,	r2	;r3 As==11
 5c4:	54 4c 31 00 	mov.b	49(r12),r4	;0x0031(r12)
 5c8:	2a 5f       	add	@r15,	r10	
 5ca:	5f 41 44 43 	mov.b	17220(r1),r15	;0x4344(r1)
 5ce:	31 32       	jn	$-924    	;abs 0x232
 5d0:	4d 43       	clr.b	r13		
 5d2:	54 4c 30 00 	mov.b	48(r12),r4	;0x0030(r12)
 5d6:	61 6e       	addc.b	@r14,	r1	
 5d8:	61 6c       	addc.b	@r12,	r1	
 5da:	6f 67       	addc.b	@r7,	r15	
 5dc:	5f 69 6e 69 	addc.b	26990(r9),r15	;0x696e(r9)
 5e0:	74 00 2a 5f 	mova	r0,	24362(r4);0x5f2a(r4)
 5e4:	5f 50 36 53 	add.b	0x5336,	r15	;PC rel. 0x0591e
 5e8:	45 4c       	mov.b	r12,	r5	
 5ea:	00 2a       	jnc	$-1022   	;abs 0x1ec
 5ec:	5f 5f 41 44 	add.b	17473(r15),r15	;0x4441(r15)
 5f0:	43 31       	jn	$+648    	;abs 0x878
 5f2:	32 4d       	mov	@r13+,	r2	
 5f4:	45 4d       	mov.b	r13,	r5	
 5f6:	30 00 53 6f 	bra	0x6f53		;PC rel. 0x0754b
 5fa:	6d 61       	addc.b	@r1,	r13	
 5fc:	00 61       	addc	r1,	r0	
 5fe:	6e 61       	addc.b	@r1,	r14	
 600:	6c 6f       	addc.b	@r15,	r12	
 602:	67 5f       	add.b	@r15,	r7	
 604:	72 65       	addc.b	@r5+,	r2	
 606:	66 72       	subc.b	#4,	r6	;r2 As==10
 608:	65 73       	subc.b	#2,	r5	;r3 As==10
 60a:	68 5f       	add.b	@r15,	r8	
 60c:	63 68       	.word	0x6863;	????	Illegal as 2-op instr
 60e:	61 6e       	addc.b	@r14,	r1	
 610:	6e 65       	addc.b	@r5,	r14	
 612:	6c 00 61 6e 	mova	r0,	&0xc6e61
 616:	61 6c       	addc.b	@r12,	r1	
 618:	6f 67       	addc.b	@r7,	r15	
 61a:	5f 72 65 66 	subc.b	&0x6665,r15	
 61e:	72 65       	addc.b	@r5+,	r2	
 620:	73 68       	.word	0x6873;	????	Illegal as 2-op instr
 622:	5f 61 6c 6c 	addc.b	27756(r1),r15	;0x6c6c(r1)
 626:	00 5f       	add	r15,	r0	
 628:	5f 62 75 69 	addc.b	&0x6975,r15	
 62c:	6c 74       	subc.b	@r4,	r12	
 62e:	69 6e       	addc.b	@r14,	r9	
 630:	5f 76 61 5f 	subc.b	24417(r6),r15	;0x5f61(r6)
 634:	6c 69       	addc.b	@r9,	r12	
 636:	73 74       	.word	0x7473;	????	Illegal as 2-op instr
 638:	00 2f       	jc	$-510    	;abs 0x43a
 63a:	72 6f       	addc.b	@r15+,	r2	
 63c:	6f 74       	subc.b	@r4,	r15	
 63e:	2f 6d       	addc	@r13,	r15	
 640:	73 70       	.word	0x7073;	????	Illegal as 2-op instr
 642:	67 63       	addc.b	#2,	r7	;r3 As==10
 644:	63 2d       	jc	$+712    	;abs 0x90c
 646:	32 30       	jn	$+102    	;abs 0x6ac
 648:	31 31       	jn	$+612    	;abs 0x8ac
 64a:	30 37       	jge	$-414    	;abs 0x4ac
 64c:	31 36       	jge	$-924    	;abs 0x2b0
 64e:	2f 6d       	addc	@r13,	r15	
 650:	73 70       	.word	0x7073;	????	Illegal as 2-op instr
 652:	34 33       	jn	$-406    	;abs 0x4bc
 654:	30 2d       	jc	$+610    	;abs 0x8b6
 656:	6c 69       	addc.b	@r9,	r12	
 658:	62 63       	addc.b	#2,	r2	;r3 As==10
 65a:	2f 73       	subc	#2,	r15	;r3 As==10
 65c:	72 63       	addc.b	#-1,	r2	;r3 As==11
 65e:	00 76       	subc	r6,	r0	
 660:	70 72       	subc.b	#8,	r0	;r2 As==11
 662:	69 6e       	addc.b	@r14,	r9	
 664:	74 66       	addc.b	@r6+,	r4	
 666:	00 2e       	jc	$-1022   	;abs 0x268
 668:	2f 73       	subc	#2,	r15	;r3 As==10
 66a:	74 64       	addc.b	@r4+,	r4	
 66c:	6c 69       	addc.b	@r9,	r12	
 66e:	62 2f       	jc	$-314    	;abs 0x534
 670:	70 72       	subc.b	#8,	r0	;r2 As==11
 672:	69 6e       	addc.b	@r14,	r9	
 674:	74 66       	addc.b	@r6+,	r4	
 676:	2e 63       	addc	#2,	r14	;r3 As==10
 678:	00 5f       	add	r15,	r0	
 67a:	5f 67 6e 75 	addc.b	30062(r7),r15	;0x756e(r7)
 67e:	63 5f       	.word	0x5f63;	????	Illegal as 2-op instr
 680:	76 61       	addc.b	@r1+,	r6	
 682:	5f 6c 69 73 	addc.b	29545(r12),r15	;0x7369(r12)
 686:	74 00 61 72 	mova	r0,	29281(r4);0x7261(r4)
 68a:	67 70       	subc.b	@r0,	r7	
 68c:	00 69       	addc	r9,	r0	
 68e:	6e 74       	subc.b	@r4,	r14	
 690:	70 74       	subc.b	@r4+,	r0	
 692:	72 5f       	add.b	@r15+,	r2	
 694:	74 00 6d 6f 	mova	r0,	28525(r4);0x6f6d(r4)
 698:	64 65       	addc.b	@r5,	r4	
 69a:	00 6c       	addc	r12,	r0	
 69c:	65 61       	addc.b	@r1,	r5	
 69e:	64 69       	addc.b	@r9,	r4	
 6a0:	6e 67       	addc.b	@r7,	r14	
 6a2:	5f 66 69 6c 	addc.b	27753(r6),r15	;0x6c69(r6)
 6a6:	6c 00 77 72 	mova	r0,	&0xc7277
 6aa:	69 74       	subc.b	@r4,	r9	
 6ac:	65 5f       	add.b	@r15,	r5	
 6ae:	63 68       	.word	0x6863;	????	Illegal as 2-op instr
 6b0:	61 72       	subc.b	#4,	r1	;r2 As==10
 6b2:	00 65       	addc	r5,	r0	
 6b4:	6d 69       	addc.b	@r9,	r13	
 6b6:	74 5f       	add.b	@r15+,	r4	
 6b8:	68 65       	addc.b	@r5,	r8	
 6ba:	78 5f       	add.b	@r15+,	r8	
 6bc:	70 72       	subc.b	#8,	r0	;r2 As==11
 6be:	65 66       	addc.b	@r6,	r5	
 6c0:	69 78       	subc.b	@r8,	r9	
 6c2:	00 70       	subc	r0,	r0	
 6c4:	72 65       	addc.b	@r5+,	r2	
 6c6:	66 69       	addc.b	@r9,	r6	
 6c8:	78 5f       	add.b	@r15+,	r8	
 6ca:	6c 65       	addc.b	@r5,	r12	
 6cc:	6e 00 63 68 	mova	r0,	&0xe6863
 6d0:	61 72       	subc.b	#4,	r1	;r2 As==10
 6d2:	5f 70 00 69 	subc.b	0x6900,	r15	;PC rel. 0x06fd6
 6d6:	73 5f       	.word	0x5f73;	????	Illegal as 2-op instr
 6d8:	61 6c       	addc.b	@r12,	r1	
 6da:	74 65       	addc.b	@r5+,	r4	
 6dc:	72 6e       	addc.b	@r14+,	r2	
 6de:	61 74       	subc.b	@r4,	r1	
 6e0:	65 5f       	add.b	@r15,	r5	
 6e2:	66 6f       	addc.b	@r15,	r6	
 6e4:	72 6d       	addc.b	@r13+,	r2	
 6e6:	00 6c       	addc	r12,	r0	
 6e8:	65 66       	addc.b	@r6,	r5	
 6ea:	74 5f       	add.b	@r15+,	r4	
 6ec:	61 6c       	addc.b	@r12,	r1	
 6ee:	69 67       	addc.b	@r7,	r9	
 6f0:	6e 00 75 70 	mova	r0,	&0xe7075
 6f4:	70 65       	addc.b	@r5+,	r0	
 6f6:	72 63       	addc.b	#-1,	r2	;r3 As==11
 6f8:	61 73       	subc.b	#2,	r1	;r3 As==10
 6fa:	65 00 69 73 	mova	r0,	&0x57369
 6fe:	5f 6c 6f 6e 	addc.b	28271(r12),r15	;0x6e6f(r12)
 702:	67 00 46 4f 	mova	r0,	&0x74f46
 706:	52 4d 41 54 	mov.b	21569(r13),r2	;0x5441(r13)
 70a:	49 4e       	mov.b	r14,	r9	
 70c:	47 00       	rrcm.a	#1,	r7	
 70e:	70 72       	subc.b	#8,	r0	;r2 As==11
 710:	69 6e       	addc.b	@r14,	r9	
 712:	74 5f       	add.b	@r15+,	r4	
 714:	66 69       	addc.b	@r9,	r6	
 716:	65 6c       	addc.b	@r12,	r5	
 718:	64 00 66 65 	mova	r0,	&0x46566
 71c:	74 63       	addc.b	#-1,	r4	;r3 As==11
 71e:	68 5f       	add.b	@r15,	r8	
 720:	6e 75       	subc.b	@r5,	r14	
 722:	6d 62       	addc.b	#4,	r13	;r2 As==10
 724:	65 72       	subc.b	#4,	r5	;r2 As==10
 726:	00 70       	subc	r0,	r0	
 728:	72 65       	addc.b	@r5+,	r2	
 72a:	66 69       	addc.b	@r9,	r6	
 72c:	78 5f       	add.b	@r15+,	r8	
 72e:	69 64       	addc.b	@r4,	r9	
 730:	78 00 66 6c 	mova	r0,	27750(r8);0x6c66(r8)
 734:	61 67       	addc.b	@r7,	r1	
 736:	73 00       	.word	0x0073;	????	Illegal as address instr
 738:	61 72       	subc.b	#4,	r1	;r2 As==10
 73a:	67 73       	subc.b	#2,	r7	;r3 As==10
 73c:	00 70       	subc	r0,	r0	
 73e:	72 65       	addc.b	@r5+,	r2	
 740:	66 69       	addc.b	@r9,	r6	
 742:	78 5f       	add.b	@r15+,	r8	
 744:	62 75       	subc.b	@r5,	r2	
 746:	66 66       	addc.b	@r6,	r6	
 748:	65 72       	subc.b	#4,	r5	;r2 As==10
 74a:	00 72       	subc	r2,	r0	
 74c:	61 64       	addc.b	@r4,	r1	
 74e:	69 78       	subc.b	@r8,	r9	
 750:	00 69       	addc	r9,	r0	
 752:	6e 74       	subc.b	@r4,	r14	
 754:	31 36       	jge	$-924    	;abs 0x3b8
 756:	5f 74 00 77 	subc.b	30464(r4),r15	;0x7700(r4)
 75a:	72 69       	addc.b	@r9+,	r2	
 75c:	74 65       	addc.b	@r5+,	r4	
 75e:	5f 63       	addc.b	#1,	r15	;r3 As==01
 760:	68 61       	addc.b	@r1,	r8	
 762:	72 61       	addc.b	@r1+,	r2	
 764:	63 74       	.word	0x7463;	????	Illegal as 2-op instr
 766:	65 72       	subc.b	#4,	r5	;r2 As==10
 768:	00 73       	sbc	r0		
 76a:	69 67       	addc.b	@r7,	r9	
 76c:	6e 5f       	add.b	@r15,	r14	
 76e:	63 68       	.word	0x6863;	????	Illegal as 2-op instr
 770:	61 72       	subc.b	#4,	r1	;r2 As==10
 772:	00 76       	subc	r6,	r0	
 774:	75 70 72 69 	subc.b	#26994,	r5	;#0x6972
 778:	6e 74       	subc.b	@r4,	r14	
 77a:	66 00 69 73 	mova	r0,	&0x67369
 77e:	5f 73       	subc.b	#1,	r15	;r3 As==01
 780:	69 67       	addc.b	@r7,	r9	
 782:	6e 65       	addc.b	@r5,	r14	
 784:	64 00 66 6c 	mova	r0,	&0x46c66
 788:	61 67       	addc.b	@r7,	r1	
 78a:	73 5f       	.word	0x5f73;	????	Illegal as 2-op instr
 78c:	74 00 66 69 	mova	r0,	26982(r4);0x6966(r4)
 790:	6c 6c       	addc.b	@r12,	r12	
 792:	5f 7a 65 72 	subc.b	29285(r10),r15	;0x7265(r10)
 796:	6f 00 2e 2f 	mova	r0,	&0xf2f2e
 79a:	73 74       	.word	0x7473;	????	Illegal as 2-op instr
 79c:	64 6c       	addc.b	@r12,	r4	
 79e:	69 62       	addc.b	#4,	r9	;r2 As==10
 7a0:	2f 76       	subc	@r6,	r15	
 7a2:	75 70 72 69 	subc.b	#26994,	r5	;#0x6972
 7a6:	6e 74       	subc.b	@r4,	r14	
 7a8:	66 2e       	jc	$-818    	;abs 0x476
 7aa:	63 00 64 69 	mova	r0,	&0x36964
 7ae:	67 69       	addc.b	@r9,	r7	
 7b0:	74 00 63 68 	mova	r0,	26723(r4);0x6863(r4)
 7b4:	61 72       	subc.b	#4,	r1	;r2 As==10
 7b6:	61 63       	addc.b	#2,	r1	;r3 As==10
 7b8:	74 65       	addc.b	@r5+,	r4	
 7ba:	72 5f       	add.b	@r15+,	r2	
 7bc:	63 6f       	.word	0x6f63;	????	Illegal as 2-op instr
 7be:	75 6e       	addc.b	@r14+,	r5	
 7c0:	74 00 44 49 	mova	r0,	18756(r4);0x4944(r4)
 7c4:	52 45 43 54 	mov.b	21571(r5),r2	;0x5443(r5)
 7c8:	00 65       	addc	r5,	r0	
 7ca:	6d 69       	addc.b	@r9,	r13	
 7cc:	74 5f       	add.b	@r15+,	r4	
 7ce:	6e 75       	subc.b	@r5,	r14	
 7d0:	6d 62       	addc.b	#4,	r13	;r2 As==10
 7d2:	65 72       	subc.b	#4,	r5	;r2 As==10
 7d4:	00 66       	addc	r6,	r0	
 7d6:	6f 72       	subc.b	#4,	r15	;r2 As==10
 7d8:	6d 61       	addc.b	@r1,	r13	
 7da:	74 00 62 75 	mova	r0,	30050(r4);0x7562(r4)
 7de:	69 6c       	addc.b	@r12,	r9	
 7e0:	64 5f       	add.b	@r15,	r4	
 7e2:	6e 75       	subc.b	@r5,	r14	
 7e4:	6d 65       	addc.b	@r5,	r13	
 7e6:	72 69       	addc.b	@r9+,	r2	
 7e8:	63 5f       	.word	0x5f63;	????	Illegal as 2-op instr
 7ea:	70 72       	subc.b	#8,	r0	;r2 As==11
 7ec:	65 66       	addc.b	@r6,	r5	
 7ee:	69 78       	subc.b	@r8,	r9	
	...

Disassembly of section .debug_loc:

00000000 <.debug_loc>:
       0:	44 34       	jge	$+138    	;abs 0x8a
       2:	46 34       	jge	$+142    	;abs 0x90
       4:	02 00       	mova	@r0,	r2	
       6:	71 02 46 34 	mova	r2,	13382(r1);0x3446(r1)
       a:	48 34       	jge	$+146    	;abs 0x9c
       c:	02 00       	mova	@r0,	r2	
       e:	71 04 48 34 	mova	r4,	13384(r1);0x3448(r1)
      12:	54 34       	jge	$+170    	;abs 0xbc
      14:	02 00       	mova	@r0,	r2	
      16:	71 06 54 34 	mova	r6,	13396(r1);0x3454(r1)
      1a:	5a 34       	jge	$+182    	;abs 0xd0
      1c:	02 00       	mova	@r0,	r2	
      1e:	71 08 5a 34 	mova	r8,	13402(r1);0x345a(r1)
      22:	74 34       	jge	$+234    	;abs 0x10c
      24:	02 00       	mova	@r0,	r2	
      26:	71 06 74 34 	mova	r6,	13428(r1);0x3474(r1)
      2a:	78 34       	jge	$+242    	;abs 0x11c
      2c:	02 00       	mova	@r0,	r2	
      2e:	71 08 78 34 	mova	r8,	13432(r1);0x3478(r1)
      32:	7e 34       	jge	$+254    	;abs 0x130
      34:	02 00       	mova	@r0,	r2	
      36:	71 0a 7e 34 	mova	r10,	13438(r1);0x347e(r1)
      3a:	8c 34       	jge	$+282    	;abs 0x154
      3c:	02 00       	mova	@r0,	r2	
      3e:	71 06 8c 34 	mova	r6,	13452(r1);0x348c(r1)
      42:	90 34       	jge	$+290    	;abs 0x164
      44:	02 00       	mova	@r0,	r2	
      46:	71 08 90 34 	mova	r8,	13456(r1);0x3490(r1)
      4a:	96 34       	jge	$+302    	;abs 0x178
      4c:	02 00       	mova	@r0,	r2	
      4e:	71 0a 96 34 	mova	r10,	13462(r1);0x3496(r1)
      52:	a2 34       	jge	$+326    	;abs 0x198
      54:	02 00       	mova	@r0,	r2	
      56:	71 06 a2 34 	mova	r6,	13474(r1);0x34a2(r1)
      5a:	a6 34       	jge	$+334    	;abs 0x1a8
      5c:	02 00       	mova	@r0,	r2	
      5e:	71 08 a6 34 	mova	r8,	13478(r1);0x34a6(r1)
      62:	ac 34       	jge	$+346    	;abs 0x1bc
      64:	02 00       	mova	@r0,	r2	
      66:	71 0a ac 34 	mova	r10,	13484(r1);0x34ac(r1)
      6a:	ca 34       	jge	$+406    	;abs 0x200
      6c:	02 00       	mova	@r0,	r2	
      6e:	71 06 ca 34 	mova	r6,	13514(r1);0x34ca(r1)
      72:	ce 34       	jge	$+414    	;abs 0x210
      74:	02 00       	mova	@r0,	r2	
      76:	71 08 ce 34 	mova	r8,	13518(r1);0x34ce(r1)
      7a:	d4 34       	jge	$+426    	;abs 0x224
      7c:	02 00       	mova	@r0,	r2	
      7e:	71 0a d4 34 	mova	r10,	13524(r1);0x34d4(r1)
      82:	da 34       	jge	$+438    	;abs 0x238
      84:	02 00       	mova	@r0,	r2	
      86:	71 06 00 00 	mova	r6,	0(r1)	;0x0000(r1)
      8a:	00 00       	bra	@r0		
      8c:	50 35       	jge	$+674    	;abs 0x32e
      8e:	52 35       	jge	$+678    	;abs 0x334
      90:	02 00       	mova	@r0,	r2	
      92:	71 02 52 35 	mova	r2,	13650(r1);0x3552(r1)
      96:	5e 35       	jge	$+702    	;abs 0x354
      98:	02 00       	mova	@r0,	r2	
      9a:	71 04 5e 35 	mova	r4,	13662(r1);0x355e(r1)
      9e:	64 35       	jge	$+714    	;abs 0x368
      a0:	02 00       	mova	@r0,	r2	
      a2:	71 06 64 35 	mova	r6,	13668(r1);0x3564(r1)
      a6:	70 35       	jge	$+738    	;abs 0x388
      a8:	02 00       	mova	@r0,	r2	
      aa:	71 04 70 35 	mova	r4,	13680(r1);0x3570(r1)
      ae:	76 35       	jge	$+750    	;abs 0x39c
      b0:	02 00       	mova	@r0,	r2	
      b2:	71 06 76 35 	mova	r6,	13686(r1);0x3576(r1)
      b6:	86 35       	jge	$+782    	;abs 0x3c4
      b8:	02 00       	mova	@r0,	r2	
      ba:	71 04 86 35 	mova	r4,	13702(r1);0x3586(r1)
      be:	8a 35       	jge	$+790    	;abs 0x3d4
      c0:	02 00       	mova	@r0,	r2	
      c2:	71 06 8a 35 	mova	r6,	13706(r1);0x358a(r1)
      c6:	90 35       	jge	$+802    	;abs 0x3e8
      c8:	02 00       	mova	@r0,	r2	
      ca:	71 08 90 35 	mova	r8,	13712(r1);0x3590(r1)
      ce:	94 35       	jge	$+810    	;abs 0x3f8
      d0:	02 00       	mova	@r0,	r2	
      d2:	71 0a 94 35 	mova	r10,	13716(r1);0x3594(r1)
      d6:	9a 35       	jge	$+822    	;abs 0x40c
      d8:	02 00       	mova	@r0,	r2	
      da:	71 0c 9a 35 	mova	r12,	13722(r1);0x359a(r1)
      de:	a6 35       	jge	$+846    	;abs 0x42c
      e0:	02 00       	mova	@r0,	r2	
      e2:	71 04 a6 35 	mova	r4,	13734(r1);0x35a6(r1)
      e6:	aa 35       	jge	$+854    	;abs 0x43c
      e8:	02 00       	mova	@r0,	r2	
      ea:	71 06 aa 35 	mova	r6,	13738(r1);0x35aa(r1)
      ee:	ae 35       	jge	$+862    	;abs 0x44c
      f0:	02 00       	mova	@r0,	r2	
      f2:	71 08 ae 35 	mova	r8,	13742(r1);0x35ae(r1)
      f6:	b2 35       	jge	$+870    	;abs 0x45c
      f8:	02 00       	mova	@r0,	r2	
      fa:	71 0a b2 35 	mova	r10,	13746(r1);0x35b2(r1)
      fe:	b8 35       	jge	$+882    	;abs 0x470
     100:	02 00       	mova	@r0,	r2	
     102:	71 0c b8 35 	mova	r12,	13752(r1);0x35b8(r1)
     106:	c6 35       	jge	$+910    	;abs 0x494
     108:	02 00       	mova	@r0,	r2	
     10a:	71 04 c6 35 	mova	r4,	13766(r1);0x35c6(r1)
     10e:	ca 35       	jge	$+918    	;abs 0x4a4
     110:	02 00       	mova	@r0,	r2	
     112:	71 06 ca 35 	mova	r6,	13770(r1);0x35ca(r1)
     116:	ce 35       	jge	$+926    	;abs 0x4b4
     118:	02 00       	mova	@r0,	r2	
     11a:	71 08 ce 35 	mova	r8,	13774(r1);0x35ce(r1)
     11e:	d2 35       	jge	$+934    	;abs 0x4c4
     120:	02 00       	mova	@r0,	r2	
     122:	71 0a d2 35 	mova	r10,	13778(r1);0x35d2(r1)
     126:	d8 35       	jge	$+946    	;abs 0x4d8
     128:	02 00       	mova	@r0,	r2	
     12a:	71 0c d8 35 	mova	r12,	13784(r1);0x35d8(r1)
     12e:	e6 35       	jge	$+974    	;abs 0x4fc
     130:	02 00       	mova	@r0,	r2	
     132:	71 04 e6 35 	mova	r4,	13798(r1);0x35e6(r1)
     136:	ea 35       	jge	$+982    	;abs 0x50c
     138:	02 00       	mova	@r0,	r2	
     13a:	71 06 ea 35 	mova	r6,	13802(r1);0x35ea(r1)
     13e:	ee 35       	jge	$+990    	;abs 0x51c
     140:	02 00       	mova	@r0,	r2	
     142:	71 08 ee 35 	mova	r8,	13806(r1);0x35ee(r1)
     146:	f2 35       	jge	$+998    	;abs 0x52c
     148:	02 00       	mova	@r0,	r2	
     14a:	71 0a f2 35 	mova	r10,	13810(r1);0x35f2(r1)
     14e:	f8 35       	jge	$+1010   	;abs 0x540
     150:	02 00       	mova	@r0,	r2	
     152:	71 0c f8 35 	mova	r12,	13816(r1);0x35f8(r1)
     156:	fc 35       	jge	$+1018   	;abs 0x550
     158:	02 00       	mova	@r0,	r2	
     15a:	71 04 00 00 	mova	r4,	0(r1)	;0x0000(r1)
     15e:	00 00       	bra	@r0		
     160:	fc 35       	jge	$+1018   	;abs 0x55a
     162:	fe 35       	jge	$+1022   	;abs 0x560
     164:	02 00       	mova	@r0,	r2	
     166:	71 02 fe 35 	mova	r2,	13822(r1);0x35fe(r1)
     16a:	00 36       	jge	$-1022   	;abs 0xfd6c
     16c:	02 00       	mova	@r0,	r2	
     16e:	71 04 00 36 	mova	r4,	13824(r1);0x3600(r1)
     172:	32 36       	jge	$-922    	;abs 0xfdd8
     174:	02 00       	mova	@r0,	r2	
     176:	71 06 00 00 	mova	r6,	0(r1)	;0x0000(r1)
     17a:	00 00       	bra	@r0		
     17c:	fc 35       	jge	$+1018   	;abs 0x576
     17e:	2c 36       	jge	$-934    	;abs 0xfdd8
     180:	01 00       	mova	@r0,	r1	
     182:	5f 00       	rrcm	#1,	r15	
     184:	00 00       	bra	@r0		
     186:	00 00       	bra	@r0		
     188:	36 02 36 02 	mova	&0x0236,r6	
     18c:	00 30       	jn	$+2      	;abs 0x18e
     18e:	9f 22       	jnz	$-704    	;abs 0xfece
     190:	36 2e       	jc	$-914    	;abs 0xfdfe
     192:	36 01 00 5a 	mova	23040(r1),r6	;0x5a00(r1)
     196:	00 00       	bra	@r0		
     198:	00 00       	bra	@r0		
     19a:	02 36       	jge	$-1018   	;abs 0xfda0
     19c:	06 36       	jge	$-1010   	;abs 0xfdaa
     19e:	02 00       	mova	@r0,	r2	
     1a0:	30 9f       	cmp	@r15+,	r0	
     1a2:	1a 36       	jge	$-970    	;abs 0xfdd8
     1a4:	32 36       	jge	$-922    	;abs 0xfe0a
     1a6:	01 00       	mova	@r0,	r1	
     1a8:	5d 00       	rrcm	#1,	r13	
     1aa:	00 00       	bra	@r0		
     1ac:	00 10       	rrc	r0		
     1ae:	36 18       	.word	0x1836;	????	
     1b0:	36 02 00 7e 	mova	&0x7e00,r6	
     1b4:	00 00       	bra	@r0		
     1b6:	00 00       	bra	@r0		
     1b8:	00 32       	jn	$-1022   	;abs 0xfdba
     1ba:	36 34       	jge	$+110    	;abs 0x228
     1bc:	36 02 00 71 	mova	&0x7100,r6	
     1c0:	02 34       	jge	$+6      	;abs 0x1c6
     1c2:	36 36       	jge	$-914    	;abs 0xfe30
     1c4:	36 02 00 71 	mova	&0x7100,r6	
     1c8:	04 36       	jge	$-1014   	;abs 0xfdd2
     1ca:	36 38       	jl	$+110    	;abs 0x238
     1cc:	36 02 00 71 	mova	&0x7100,r6	
     1d0:	06 38       	jl	$+14     	;abs 0x1de
     1d2:	36 3a       	jl	$-914    	;abs 0xfe40
     1d4:	36 02 00 71 	mova	&0x7100,r6	
     1d8:	08 3a       	jl	$-1006   	;abs 0xfdea
     1da:	36 6a       	addc	@r10+,	r6	
     1dc:	36 02 00 71 	mova	&0x7100,r6	
     1e0:	0a 00       	mova	@r0,	r10	
     1e2:	00 00       	bra	@r0		
     1e4:	00 32       	jn	$-1022   	;abs 0xfde6
     1e6:	36 60 36 01 	addc	#310,	r6	;#0x0136
     1ea:	00 5f       	add	r15,	r0	
     1ec:	00 00       	bra	@r0		
     1ee:	00 00       	bra	@r0		
     1f0:	3a 36       	jge	$-906    	;abs 0xfe66
     1f2:	40 36       	jge	$-894    	;abs 0xfe74
     1f4:	06 00       	mova	@r0,	r6	
     1f6:	9e 04 00 00 	cmpa	#0x40000,r14	
     1fa:	00 00       	bra	@r0		
     1fc:	4c 36       	jge	$-870    	;abs 0xfe96
     1fe:	5e 36       	jge	$-834    	;abs 0xfebc
     200:	06 00       	mova	@r0,	r6	
     202:	5c 93       	cmp.b	#1,	r12	;r3 As==01
     204:	02 5d       	add	r13,	r2	
     206:	93 02       	.word	0x0293;	????	Illegal as address instr
     208:	00 00       	bra	@r0		
     20a:	00 00       	bra	@r0		
     20c:	3a 36       	jge	$-906    	;abs 0xfe82
     20e:	40 36       	jge	$-894    	;abs 0xfe90
     210:	02 00       	mova	@r0,	r2	
     212:	30 9f       	cmp	@r15+,	r0	
     214:	00 00       	bra	@r0		
     216:	00 00       	bra	@r0		
     218:	38 31       	jn	$+626    	;abs 0x48a
     21a:	3c 31       	jn	$+634    	;abs 0x494
     21c:	02 00       	mova	@r0,	r2	
     21e:	71 02 3c 31 	mova	r2,	12604(r1);0x313c(r1)
     222:	f4 33       	jn	$-22     	;abs 0x20c
     224:	03 00       	.word	0x0003;	????	Illegal as address instr
     226:	71 de       	bis.b	@r14+,	r1	
     228:	00 00       	bra	@r0		
     22a:	00 00       	bra	@r0		
     22c:	00 3c       	jmp	$+2      	;abs 0x22e
     22e:	31 8a       	sub	@r10+,	r1	
     230:	31 02 00 30 	mova	&0x3000,r1	
     234:	9f 8a 31 a8 	sub	-22479(r10),562(r15);0xa831(r10), 0x0232(r15)
     238:	32 02 
     23a:	00 91       	cmp	r1,	r0	
     23c:	74 ce       	bic.b	@r14+,	r4	
     23e:	32 1e       	.word	0x1e32;	????	
     240:	33 02       	.word	0x0233;	????	Illegal as address instr
     242:	00 91       	cmp	r1,	r0	
     244:	74 1e       	.word	0x1e74;	????	
     246:	33 2c       	jc	$+104    	;abs 0x2ae
     248:	33 02       	.word	0x0233;	????	Illegal as address instr
     24a:	00 34       	jge	$+2      	;abs 0x24c
     24c:	9f 2c       	jc	$+320    	;abs 0x38c
     24e:	33 4e       	.word	0x4e33;	????	Illegal as 2-op instr
     250:	33 02       	.word	0x0233;	????	Illegal as address instr
     252:	00 91       	cmp	r1,	r0	
     254:	74 4e       	mov.b	@r14+,	r4	
     256:	33 60       	.word	0x6033;	????	Illegal as 2-op instr
     258:	33 02       	.word	0x0233;	????	Illegal as address instr
     25a:	00 33       	jn	$-510    	;abs 0x5c
     25c:	9f 60 33 82 	addc	0x8233,	563(r15);PC rel. 0xf8493, 0x0233(r15)
     260:	33 02 
     262:	00 91       	cmp	r1,	r0	
     264:	74 82       	sub.b	#8,	r4	;r2 As==11
     266:	33 90       	.word	0x9033;	????	Illegal as 2-op instr
     268:	33 02       	.word	0x0233;	????	Illegal as address instr
     26a:	00 32       	jn	$-1022   	;abs 0xfe6c
     26c:	9f 90 33 98 	cmp	0x9833,	563(r15);PC rel. 0xf9aa3, 0x0233(r15)
     270:	33 02 
     272:	00 91       	cmp	r1,	r0	
     274:	74 98       	cmp.b	@r8+,	r4	
     276:	33 a6       	.word	0xa633;	????	Illegal as 2-op instr
     278:	33 02       	.word	0x0233;	????	Illegal as address instr
     27a:	00 31       	jn	$+514    	;abs 0x47c
     27c:	9f a6 33 e2 	dadd	-7629(r6),563(r15);0xe233(r6), 0x0233(r15)
     280:	33 02 
     282:	00 91       	cmp	r1,	r0	
     284:	74 e2       	xor.b	#8,	r4	;r2 As==11
     286:	33 f4       	.word	0xf433;	????	Illegal as 2-op instr
     288:	33 02       	.word	0x0233;	????	Illegal as address instr
     28a:	00 35       	jge	$+514    	;abs 0x48c
     28c:	9f 00 00 00 	cmpa	#0x00000,r15	
     290:	00 46       	br	r6		
     292:	31 8a       	sub	@r10+,	r1	
     294:	31 02 00 30 	mova	&0x3000,r1	
     298:	9f 8a 31 a8 	sub	-22479(r10),562(r15);0xa831(r10), 0x0232(r15)
     29c:	32 02 
     29e:	00 91       	cmp	r1,	r0	
     2a0:	6a ce       	bic.b	@r14,	r10	
     2a2:	32 d4       	bis	@r4+,	r2	
     2a4:	32 02 00 91 	mova	&0x9100,r2	
     2a8:	6a d4       	bis.b	@r4,	r10	
     2aa:	32 c4       	bic	@r4+,	r2	
     2ac:	33 02       	.word	0x0233;	????	Illegal as address instr
     2ae:	00 30       	jn	$+2      	;abs 0x2b0
     2b0:	9f c4 33 cc 	bic	-13261(r4),563(r15);0xcc33(r4), 0x0233(r15)
     2b4:	33 02 
     2b6:	00 91       	cmp	r1,	r0	
     2b8:	6a cc       	bic.b	@r12,	r10	
     2ba:	33 f4       	.word	0xf433;	????	Illegal as 2-op instr
     2bc:	33 02       	.word	0x0233;	????	Illegal as address instr
     2be:	00 30       	jn	$+2      	;abs 0x2c0
     2c0:	9f 00 00 00 	cmpa	#0x00000,r15	
     2c4:	00 46       	br	r6		
     2c6:	31 8a       	sub	@r10+,	r1	
     2c8:	31 02 00 30 	mova	&0x3000,r1	
     2cc:	9f 8a 31 1e 	sub	7729(r10),562(r15);0x1e31(r10), 0x0232(r15)
     2d0:	32 02 
     2d2:	00 91       	cmp	r1,	r0	
     2d4:	6e ce       	bic.b	@r14,	r14	
     2d6:	32 d4       	bis	@r4+,	r2	
     2d8:	32 02 00 91 	mova	&0x9100,r2	
     2dc:	6e c4       	bic.b	@r4,	r14	
     2de:	33 cc       	.word	0xcc33;	????	Illegal as 2-op instr
     2e0:	33 02       	.word	0x0233;	????	Illegal as address instr
     2e2:	00 91       	cmp	r1,	r0	
     2e4:	6e 00 00 00 	mova	r0,	&0xe0000
     2e8:	00 46       	br	r6		
     2ea:	31 8a       	sub	@r10+,	r1	
     2ec:	31 02 00 30 	mova	&0x3000,r1	
     2f0:	9f 8a 31 1e 	sub	7729(r10),562(r15);0x1e31(r10), 0x0232(r15)
     2f4:	32 02 
     2f6:	00 91       	cmp	r1,	r0	
     2f8:	6c ce       	bic.b	@r14,	r12	
     2fa:	32 d4       	bis	@r4+,	r2	
     2fc:	32 02 00 91 	mova	&0x9100,r2	
     300:	6c c4       	bic.b	@r4,	r12	
     302:	33 cc       	.word	0xcc33;	????	Illegal as 2-op instr
     304:	33 02       	.word	0x0233;	????	Illegal as address instr
     306:	00 91       	cmp	r1,	r0	
     308:	6c 00 00 00 	mova	r0,	&0xc0000
     30c:	00 1e 32 ce 	bicx	@r14+,	r2	
     310:	32 03 00 91 	mova	#1,	r2	;r3 As==01
     314:	40 9f       	cmp.b	r15,	r0	
     316:	d4 32       	jn	$-598    	;abs 0xc0
     318:	c4 33       	jn	$-118    	;abs 0x2a2
     31a:	03 00       	.word	0x0003;	????	Illegal as address instr
     31c:	91 40 9f cc 	mov	0xcc9f,	-3021(r1);PC rel. 0xfcfbf, 0xf433(r1)
     320:	33 f4 
     322:	33 03       	.word	0x0333;	????	Illegal as address instr
     324:	00 91       	cmp	r1,	r0	
     326:	40 9f       	cmp.b	r15,	r0	
     328:	00 00       	bra	@r0		
     32a:	00 00       	bra	@r0		
     32c:	1e 32       	jn	$-962    	;abs 0xff6a
     32e:	28 32       	jn	$-942    	;abs 0xff80
     330:	06 00       	mova	@r0,	r6	
     332:	9e 04 00 00 	cmpa	#0x40000,r14	
     336:	00 00       	bra	@r0		
     338:	30 32       	jn	$-926    	;abs 0xff9a
     33a:	42 32       	jn	$-890    	;abs 0xffc0
     33c:	06 00       	mova	@r0,	r6	
     33e:	5c 93       	cmp.b	#1,	r12	;r3 As==01
     340:	02 5d       	add	r13,	r2	
     342:	93 02       	.word	0x0293;	????	Illegal as address instr
     344:	00 00       	bra	@r0		
     346:	00 00       	bra	@r0		
     348:	1e 32       	jn	$-962    	;abs 0xff86
     34a:	28 32       	jn	$-942    	;abs 0xff9c
     34c:	02 00       	mova	@r0,	r2	
     34e:	30 9f       	cmp	@r15+,	r0	
     350:	00 00       	bra	@r0		
     352:	00 00       	bra	@r0		
     354:	46 32       	jn	$-882    	;abs 0xffe2
     356:	ce 32       	jn	$-610    	;abs 0xf4
     358:	03 00       	.word	0x0003;	????	Illegal as address instr
     35a:	91 5c 9f d4 	add	-11105(r12),-15310(r1);0xd49f(r12), 0xc432(r1)
     35e:	32 c4 
     360:	33 03       	.word	0x0333;	????	Illegal as address instr
     362:	00 91       	cmp	r1,	r0	
     364:	5c 9f cc 33 	cmp.b	13260(r15),r12	;0x33cc(r15)
     368:	f4 33       	jn	$-22     	;abs 0x352
     36a:	03 00       	.word	0x0003;	????	Illegal as address instr
     36c:	91 5c 9f 00 	add	159(r12),0(r1)	;0x009f(r12), 0x0000(r1)
     370:	00 00 
     372:	00 46       	br	r6		
     374:	32 50 32 06 	add	#1586,	r2	;#0x0632
     378:	00 9e       	cmp	r14,	r0	
     37a:	04 00       	mova	@r0,	r4	
     37c:	00 00       	bra	@r0		
     37e:	00 58       	add	r8,	r0	
     380:	32 6a       	addc	@r10+,	r2	
     382:	32 06 00 5c 	mova	23552(r6),r2	;0x5c00(r6)
     386:	93 02       	.word	0x0293;	????	Illegal as address instr
     388:	5d 93       	cmp.b	#1,	r13	;r3 As==01
     38a:	02 00       	mova	@r0,	r2	
     38c:	00 00       	bra	@r0		
     38e:	00 46       	br	r6		
     390:	32 50 32 02 	add	#562,	r2	;#0x0232
     394:	00 30       	jn	$+2      	;abs 0x396
     396:	9f 00 00 00 	cmpa	#0x00000,r15	
     39a:	00 6e       	addc	r14,	r0	
     39c:	32 ce       	bic	@r14+,	r2	
     39e:	32 03 00 91 	mova	#1,	r2	;r3 As==01
     3a2:	4e 9f       	cmp.b	r15,	r14	
     3a4:	d4 32       	jn	$-598    	;abs 0x14e
     3a6:	c4 33       	jn	$-118    	;abs 0x330
     3a8:	03 00       	.word	0x0003;	????	Illegal as address instr
     3aa:	91 4e 9f cc 	mov	-13153(r14),-3021(r1);0xcc9f(r14), 0xf433(r1)
     3ae:	33 f4 
     3b0:	33 03       	.word	0x0333;	????	Illegal as address instr
     3b2:	00 91       	cmp	r1,	r0	
     3b4:	4e 9f       	cmp.b	r15,	r14	
     3b6:	00 00       	bra	@r0		
     3b8:	00 00       	bra	@r0		
     3ba:	6e 32       	jn	$-802    	;abs 0x98
     3bc:	7a 32       	jn	$-778    	;abs 0xb2
     3be:	06 00       	mova	@r0,	r6	
     3c0:	9e 04 00 00 	cmpa	#0x40000,r14	
     3c4:	00 00       	bra	@r0		
     3c6:	82 32       	jn	$-762    	;abs 0xcc
     3c8:	9c 32       	jn	$-710    	;abs 0x102
     3ca:	06 00       	mova	@r0,	r6	
     3cc:	5c 93       	cmp.b	#1,	r12	;r3 As==01
     3ce:	02 5d       	add	r13,	r2	
     3d0:	93 02       	.word	0x0293;	????	Illegal as address instr
     3d2:	00 00       	bra	@r0		
     3d4:	00 00       	bra	@r0		
     3d6:	6e 32       	jn	$-802    	;abs 0xb4
     3d8:	7a 32       	jn	$-778    	;abs 0xce
     3da:	02 00       	mova	@r0,	r2	
     3dc:	30 9f       	cmp	@r15+,	r0	
     3de:	00 00       	bra	@r0		
     3e0:	00 00       	bra	@r0		
     3e2:	0a 00       	mova	@r0,	r10	
     3e4:	0c 00       	mova	@r0,	r12	
     3e6:	02 00       	mova	@r0,	r2	
     3e8:	71 02 0c 00 	mova	r2,	12(r1)	;0x000c(r1)
     3ec:	70 00 02 00 	mova	r0,	0x0002	;PC rel. 0x003f0
     3f0:	71 04 00 00 	mova	r4,	0(r1)	;0x0000(r1)
     3f4:	00 00       	bra	@r0		
     3f6:	0c 00       	mova	@r0,	r12	
     3f8:	2e 00 03 00 	mova	&0x00003,r14	
     3fc:	09 80       	sub	r0,	r9	
     3fe:	9f 3c       	jmp	$+320    	;abs 0x53e
     400:	00 44       	br	r4		
     402:	00 05       	bra	@r5		
     404:	00 7c       	subc	r12,	r0	
     406:	00 31       	jn	$+514    	;abs 0x608
     408:	25 9f       	cmp	@r15,	r5	
     40a:	52 00       	rrcm	#1,	r2	
     40c:	6a 00 05 00 	mova	r0,	&0xa0005
     410:	7c 00 31 25 	mova	r0,	9521(r12);0x2531(r12)
     414:	9f 6a 00 70 	addc	28672(r10),768(r15);0x7000(r10), 0x0300(r15)
     418:	00 03 
     41a:	00 09       	bra	@r9		
     41c:	80 9f 00 00 	cmp	r15,	0x0000	;PC rel. 0x00420
     420:	00 00       	bra	@r0		
     422:	26 00 2e 00 	mova	&0x0002e,r6	
     426:	02 00       	mova	@r0,	r2	
     428:	30 9f       	cmp	@r15+,	r0	
     42a:	00 00       	bra	@r0		
     42c:	00 00       	bra	@r0		
     42e:	70 00 72 00 	mova	r0,	0x0072	;PC rel. 0x004a2
     432:	02 00       	mova	@r0,	r2	
     434:	71 02 72 00 	mova	r2,	114(r1)	;0x0072(r1)
     438:	88 00 02 00 	mova	#0x00002,r8	
     43c:	71 04 00 00 	mova	r4,	0(r1)	;0x0000(r1)
     440:	00 00       	bra	@r0		
     442:	70 00 7b 00 	mova	r0,	0x007b	;PC rel. 0x004bf
     446:	01 00       	mova	@r0,	r1	
     448:	5f 00       	rrcm	#1,	r15	
     44a:	00 00       	bra	@r0		
     44c:	00 70       	subc	r0,	r0	
     44e:	00 78       	subc	r8,	r0	
     450:	00 01       	bra	@r1		
     452:	00 5e       	add	r14,	r0	
     454:	78 00 86 00 	mova	r0,	134(r8)	;0x0086(r8)
     458:	01 00       	mova	@r0,	r1	
     45a:	5b 00       	rrcm	#1,	r11	
     45c:	00 00       	bra	@r0		
     45e:	00 88       	sub	r8,	r0	
     460:	00 8a       	sub	r10,	r0	
     462:	00 02       	bra	#4		;r2 As==10
     464:	00 71       	subc	r1,	r0	
     466:	02 8a       	sub	r10,	r2	
     468:	00 8c       	sub	r12,	r0	
     46a:	00 02       	bra	#4		;r2 As==10
     46c:	00 71       	subc	r1,	r0	
     46e:	04 8c       	sub	r12,	r4	
     470:	00 ae       	dadd	r14,	r0	
     472:	00 02       	bra	#4		;r2 As==10
     474:	00 71       	subc	r1,	r0	
     476:	06 00       	mova	@r0,	r6	
     478:	00 00       	bra	@r0		
     47a:	00 88       	sub	r8,	r0	
     47c:	00 97       	cmp	r7,	r0	
     47e:	00 01       	bra	@r1		
     480:	00 5f       	add	r15,	r0	
     482:	00 00       	bra	@r0		
     484:	00 00       	bra	@r0		
     486:	88 00 94 00 	mova	#0x00094,r8	
     48a:	01 00       	mova	@r0,	r1	
     48c:	5e 94 00 aa 	cmp.b	-22016(r4),r14	;0xaa00(r4)
     490:	00 01       	bra	@r1		
     492:	00 5a       	add	r10,	r0	
     494:	00 00       	bra	@r0		
     496:	00 00       	bra	@r0		
     498:	88 00 97 00 	mova	#0x00097,r8	
     49c:	01 00       	mova	@r0,	r1	
     49e:	5d 97 00 ac 	cmp.b	-21504(r7),r13	;0xac00(r7)
     4a2:	00 01       	bra	@r1		
     4a4:	00 5b       	add	r11,	r0	
     4a6:	00 00       	bra	@r0		
     4a8:	00 00       	bra	@r0		
     4aa:	ae 00 b0 00 	adda	#0x000b0,r14	
     4ae:	02 00       	mova	@r0,	r2	
     4b0:	71 02 b0 00 	mova	r2,	176(r1)	;0x00b0(r1)
     4b4:	b2 00 02 00 	suba	#0x00002,r2	
     4b8:	71 04 b2 00 	mova	r4,	178(r1)	;0x00b2(r1)
     4bc:	b4 00 02 00 	suba	#0x00002,r4	
     4c0:	71 06 b4 00 	mova	r6,	180(r1)	;0x00b4(r1)
     4c4:	b6 00 02 00 	suba	#0x00002,r6	
     4c8:	71 08 b6 00 	mova	r8,	182(r1)	;0x00b6(r1)
     4cc:	f2 00       	suba	r0,	r2	
     4ce:	02 00       	mova	@r0,	r2	
     4d0:	71 0a f2 00 	mova	r10,	242(r1)	;0x00f2(r1)
     4d4:	00 01       	bra	@r1		
     4d6:	02 00       	mova	@r0,	r2	
     4d8:	71 0c 00 01 	mova	r12,	256(r1)	;0x0100(r1)
     4dc:	44 01       	rram.a	#1,	r4	
     4de:	02 00       	mova	@r0,	r2	
     4e0:	71 0a 00 00 	mova	r10,	0(r1)	;0x0000(r1)
     4e4:	00 00       	bra	@r0		
     4e6:	ae 00 cc 00 	adda	#0x000cc,r14	
     4ea:	01 00       	mova	@r0,	r1	
     4ec:	5f cc 00 cf 	bic.b	-12544(r12),r15	;0xcf00(r12)
     4f0:	00 01       	bra	@r1		
     4f2:	00 5e       	add	r14,	r0	
     4f4:	00 00       	bra	@r0		
     4f6:	00 00       	bra	@r0		
     4f8:	ae 00 c8 00 	adda	#0x000c8,r14	
     4fc:	01 00       	mova	@r0,	r1	
     4fe:	5e c8 00 3c 	bic.b	15360(r8),r14	;0x3c00(r8)
     502:	01 01       	mova	@r1,	r1	
     504:	00 58       	add	r8,	r0	
     506:	00 00       	bra	@r0		
     508:	00 00       	bra	@r0		
     50a:	ae 00 c2 00 	adda	#0x000c2,r14	
     50e:	01 00       	mova	@r0,	r1	
     510:	5d c2 00 06 	bic.b	&0x0600,r13	
     514:	01 01       	mova	@r1,	r1	
     516:	00 5b       	add	r11,	r0	
     518:	00 00       	bra	@r0		
     51a:	00 00       	bra	@r0		
     51c:	ae 00 cf 00 	adda	#0x000cf,r14	
     520:	01 00       	mova	@r0,	r1	
     522:	5c cf 00 fe 	bic.b	-512(r15),r12	;0xfe00(r15)
     526:	00 01       	bra	@r1		
     528:	00 5a       	add	r10,	r0	
     52a:	fe 00       	suba	r0,	r14	
     52c:	06 01       	mova	@r1,	r6	
     52e:	03 00       	.word	0x0003;	????	Illegal as address instr
     530:	03 30       	jn	$+8      	;abs 0x538
     532:	01 00       	mova	@r0,	r1	
     534:	00 00       	bra	@r0		
     536:	00 00       	bra	@r0		
     538:	01 06       	mova	@r6,	r1	
     53a:	01 02       	mova	#4,	r1	;r2 As==10
     53c:	00 30       	jn	$+2      	;abs 0x53e
     53e:	9f 10 01 14 	swpb	5121(r15)	;0x1401(r15)
     542:	01 01       	mova	@r1,	r1	
     544:	00 5b       	add	r11,	r0	
     546:	00 00       	bra	@r0		
     548:	00 00       	bra	@r0		
     54a:	00 01       	bra	@r1		
     54c:	40 01       	rram.a	#1,	r0	
     54e:	01 00       	mova	@r0,	r1	
     550:	5a 00       	rrcm	#1,	r10	
     552:	00 00       	bra	@r0		
     554:	00 44       	br	r4		
     556:	01 46       	mov	r6,	r1	
     558:	01 02       	mova	#4,	r1	;r2 As==10
     55a:	00 71       	subc	r1,	r0	
     55c:	02 46       	mov	r6,	r2	
     55e:	01 56       	add	r6,	r1	
     560:	01 02       	mova	#4,	r1	;r2 As==10
     562:	00 71       	subc	r1,	r0	
     564:	04 56       	add	r6,	r4	
     566:	01 58       	add	r8,	r1	
     568:	01 02       	mova	#4,	r1	;r2 As==10
     56a:	00 71       	subc	r1,	r0	
     56c:	02 00       	mova	@r0,	r2	
     56e:	00 00       	bra	@r0		
     570:	00 44       	br	r4		
     572:	01 50       	add	r0,	r1	
     574:	01 01       	mova	@r1,	r1	
     576:	00 5f       	add	r15,	r0	
     578:	50 01       	rram	#1,	r0	
     57a:	53 01       	rram	#1,	#0	;r3 As==00
     57c:	02 00       	mova	@r0,	r2	
     57e:	91 7a 00 00 	subc	0(r10),	0(r1)	;0x0000(r10), 0x0000(r1)
     582:	00 00 
     584:	58 01       	rram	#1,	r8	
     586:	5a 01       	rram	#1,	r10	
     588:	02 00       	mova	@r0,	r2	
     58a:	71 02 5a 01 	mova	r2,	346(r1)	;0x015a(r1)
     58e:	5c 01       	rram	#1,	r12	
     590:	02 00       	mova	@r0,	r2	
     592:	71 04 5c 01 	mova	r4,	348(r1)	;0x015c(r1)
     596:	5e 01       	rram	#1,	r14	
     598:	02 00       	mova	@r0,	r2	
     59a:	71 06 5e 01 	mova	r6,	350(r1)	;0x015e(r1)
     59e:	60 01 02 00 	mova	r1,	&0x00002
     5a2:	71 08 60 01 	mova	r8,	352(r1)	;0x0160(r1)
     5a6:	62 01 02 00 	mova	r1,	&0x20002
     5aa:	71 0a 62 01 	mova	r10,	354(r1)	;0x0162(r1)
     5ae:	64 01 02 00 	mova	r1,	&0x40002
     5b2:	71 0c 64 01 	mova	r12,	356(r1)	;0x0164(r1)
     5b6:	66 01 02 00 	mova	r1,	&0x60002
     5ba:	71 0e 66 01 	mova	r14,	358(r1)	;0x0166(r1)
     5be:	a2 02 02 00 	adda	#0x20002,r2	
     5c2:	71 10       	rrc.b	@r1+		
     5c4:	a2 02 b2 02 	adda	#0x202b2,r2	
     5c8:	02 00       	mova	@r0,	r2	
     5ca:	71 12       	push.b	@r1+		
     5cc:	b2 02 c2 02 	suba	#0x202c2,r2	
     5d0:	02 00       	mova	@r0,	r2	
     5d2:	71 10       	rrc.b	@r1+		
     5d4:	00 00       	bra	@r0		
     5d6:	00 00       	bra	@r0		
     5d8:	58 01       	rram	#1,	r8	
     5da:	8a 01 01 00 	mova	#0x10001,r10	
     5de:	5f 8a 01 b4 	sub.b	-19455(r10),r15	;0xb401(r10)
     5e2:	02 01       	mova	@r1,	r2	
     5e4:	00 55       	add	r5,	r0	
     5e6:	00 00       	bra	@r0		
     5e8:	00 00       	bra	@r0		
     5ea:	c2 02       	mova	r2,	r2	
     5ec:	c4 02       	mova	r2,	r4	
     5ee:	02 00       	mova	@r0,	r2	
     5f0:	71 02 c4 02 	mova	r2,	708(r1)	;0x02c4(r1)
     5f4:	c6 02       	mova	r2,	r6	
     5f6:	02 00       	mova	@r0,	r2	
     5f8:	71 04 c6 02 	mova	r4,	710(r1)	;0x02c6(r1)
     5fc:	c8 02       	mova	r2,	r8	
     5fe:	02 00       	mova	@r0,	r2	
     600:	71 06 c8 02 	mova	r6,	712(r1)	;0x02c8(r1)
     604:	ca 02       	mova	r2,	r10	
     606:	02 00       	mova	@r0,	r2	
     608:	71 08 ca 02 	mova	r8,	714(r1)	;0x02ca(r1)
     60c:	cc 02       	mova	r2,	r12	
     60e:	02 00       	mova	@r0,	r2	
     610:	71 0a cc 02 	mova	r10,	716(r1)	;0x02cc(r1)
     614:	ce 02       	mova	r2,	r14	
     616:	02 00       	mova	@r0,	r2	
     618:	71 0c ce 02 	mova	r12,	718(r1)	;0x02ce(r1)
     61c:	d0 02       	cmpa	r2,	r0	
     61e:	02 00       	mova	@r0,	r2	
     620:	71 0e d0 02 	mova	r14,	720(r1)	;0x02d0(r1)
     624:	d2 02       	cmpa	r2,	r2	
     626:	02 00       	mova	@r0,	r2	
     628:	71 10       	rrc.b	@r1+		
     62a:	d2 02       	cmpa	r2,	r2	
     62c:	d6 02       	cmpa	r2,	r6	
     62e:	02 00       	mova	@r0,	r2	
     630:	71 12       	push.b	@r1+		
     632:	d6 02       	cmpa	r2,	r6	
     634:	f4 02       	suba	r2,	r4	
     636:	02 00       	mova	@r0,	r2	
     638:	71 1c       	.word	0x1c71;	????	
     63a:	f4 02       	suba	r2,	r4	
     63c:	40 03       	rrum.a	#1,	r0	
     63e:	02 00       	mova	@r0,	r2	
     640:	71 1e       	.word	0x1e71;	????	
     642:	40 03       	rrum.a	#1,	r0	
     644:	a2 03 02 00 	adda	#0x30002,r2	
     648:	71 1c       	.word	0x1c71;	????	
     64a:	a2 03 44 04 	adda	#0x30444,r2	
     64e:	02 00       	mova	@r0,	r2	
     650:	71 1e       	.word	0x1e71;	????	
     652:	44 04       	rrcm.a	#2,	r4	
     654:	62 04 02 00 	mova	r4,	&0x20002
     658:	71 1c       	.word	0x1c71;	????	
     65a:	00 00       	bra	@r0		
     65c:	00 00       	bra	@r0		
     65e:	c2 02       	mova	r2,	r2	
     660:	01 03       	mova	#2,	r1	;r3 As==10
     662:	01 00       	mova	@r0,	r1	
     664:	5f 01       	rram	#1,	r15	
     666:	03 72       	.word	0x7203;	????	Illegal as 2-op instr
     668:	03 01       	.word	0x0103;	????	Illegal as address instr
     66a:	00 58       	add	r8,	r0	
     66c:	00 00       	bra	@r0		
     66e:	00 00       	bra	@r0		
     670:	c2 02       	mova	r2,	r2	
     672:	fa 02       	suba	r2,	r10	
     674:	01 00       	mova	@r0,	r1	
     676:	5e fa 02 72 	and.b	29186(r10),r14	;0x7202(r10)
     67a:	03 01       	.word	0x0103;	????	Illegal as address instr
     67c:	00 59       	add	r9,	r0	
     67e:	00 00       	bra	@r0		
     680:	00 00       	bra	@r0		
     682:	c2 02       	mova	r2,	r2	
     684:	f8 02       	suba	r2,	r8	
     686:	01 00       	mova	@r0,	r1	
     688:	5d f8 02 62 	and.b	25090(r8),r13	;0x6202(r8)
     68c:	04 02       	mova	#4,	r4	;r2 As==10
     68e:	00 91       	cmp	r1,	r0	
     690:	68 00 00 00 	mova	r0,	&0x80000
     694:	00 c2       	bic	r2,	r0	
     696:	02 f6       	and	r6,	r2	
     698:	02 01       	mova	@r1,	r2	
     69a:	00 5c       	add	r12,	r0	
     69c:	f6 02       	suba	r2,	r6	
     69e:	54 04       	rrcm	#2,	r4	
     6a0:	01 00       	mova	@r0,	r1	
     6a2:	55 00       	rrcm	#1,	r5	
     6a4:	00 00       	bra	@r0		
     6a6:	00 e0       	xor	r0,	r0	
     6a8:	02 f8       	and	r8,	r2	
     6aa:	02 05       	mova	@r5,	r2	
     6ac:	00 31       	jn	$+514    	;abs 0x8ae
     6ae:	7d 00 1c 9f 	mova	r0,	-24804(r13);0x9f1c(r13)
     6b2:	f8 02       	suba	r2,	r8	
     6b4:	72 03 06 00 	mova	#0,	&0x0006	;r3 As==00
     6b8:	31 91       	cmp	@r1+,	r1	
     6ba:	68 06 1c 9f 	mova	r6,	&0x89f1c
     6be:	8a 03 8e 03 	mova	#0x3038e,r10	
     6c2:	01 00       	mova	@r0,	r1	
     6c4:	54 00       	rrcm	#1,	r4	
     6c6:	00 00       	bra	@r0		
     6c8:	00 e0       	xor	r0,	r0	
     6ca:	02 72       	subc	r2,	r2	
     6cc:	03 02       	.word	0x0203;	????	Illegal as address instr
     6ce:	00 30       	jn	$+2      	;abs 0x6d0
     6d0:	9f 00 00 00 	cmpa	#0x00000,r15	
     6d4:	00 e0       	xor	r0,	r0	
     6d6:	02 f8       	and	r8,	r2	
     6d8:	02 06       	mova	@r6,	r2	
     6da:	00 7d       	subc	r13,	r0	
     6dc:	00 09       	bra	@r9		
     6de:	fe 1e 9f f8 	andx	-167422(r8),-129277(r15);0xd7202(r8), 0xe0703(r15)
     6e2:	02 72 03 07 
     6e6:	00 91       	cmp	r1,	r0	
     6e8:	68 06 09 fe 	mova	r6,	&0x8fe09
     6ec:	1e 9f 72 03 	cmp	882(r15),r14	;0x0372(r15)
     6f0:	7a 03 02 00 	mova	#0,	2(r10)	;r3 As==00, 0x0002(r10)
     6f4:	91 6c 86 03 	addc	902(r12),906(r1)	;0x0386(r12), 0x038a(r1)
     6f8:	8a 03 
     6fa:	02 00       	mova	@r0,	r2	
     6fc:	91 6c 8a 03 	addc	906(r12),1100(r1);0x038a(r12), 0x044c(r1)
     700:	4c 04 
     702:	02 00       	mova	@r0,	r2	
     704:	91 6c 00 00 	addc	0(r12),	0(r1)	;0x0000(r12), 0x0000(r1)
     708:	00 00 
     70a:	e0 02       	adda	r2,	r0	
     70c:	72 03 02 00 	mova	#0,	&0x0002	;r3 As==00
     710:	30 9f       	cmp	@r15+,	r0	
     712:	72 03 7a 03 	mova	#0,	&0x037a	;r3 As==00
     716:	02 00       	mova	@r0,	r2	
     718:	91 66 8e 03 	addc	910(r6),1100(r1);0x038e(r6), 0x044c(r1)
     71c:	4c 04 
     71e:	02 00       	mova	@r0,	r2	
     720:	91 66 00 00 	addc	0(r6),	0(r1)	;0x0000(r6), 0x0000(r1)
     724:	00 00 
     726:	e4 02       	adda	r2,	r4	
     728:	f8 02       	suba	r2,	r8	
     72a:	01 00       	mova	@r0,	r1	
     72c:	5d f8 02 62 	and.b	25090(r8),r13	;0x6202(r8)
     730:	04 02       	mova	#4,	r4	;r2 As==10
     732:	00 91       	cmp	r1,	r0	
     734:	68 00 00 00 	mova	r0,	&0x80000
     738:	00 62       	addc	r2,	r0	
     73a:	04 64       	rlc	r4		
     73c:	04 02       	mova	#4,	r4	;r2 As==10
     73e:	00 71       	subc	r1,	r0	
     740:	02 64       	addc	r4,	r2	
     742:	04 66       	addc	r6,	r4	
     744:	04 02       	mova	#4,	r4	;r2 As==10
     746:	00 71       	subc	r1,	r0	
     748:	04 66       	addc	r6,	r4	
     74a:	04 68       	addc	r8,	r4	
     74c:	04 02       	mova	#4,	r4	;r2 As==10
     74e:	00 71       	subc	r1,	r0	
     750:	06 68       	addc	r8,	r6	
     752:	04 6a       	addc	r10,	r4	
     754:	04 02       	mova	#4,	r4	;r2 As==10
     756:	00 71       	subc	r1,	r0	
     758:	08 6a       	addc	r10,	r8	
     75a:	04 ca       	bic	r10,	r4	
     75c:	04 02       	mova	#4,	r4	;r2 As==10
     75e:	00 71       	subc	r1,	r0	
     760:	0a 00       	mova	@r0,	r10	
     762:	00 00       	bra	@r0		
     764:	00 62       	addc	r2,	r0	
     766:	04 78       	subc	r8,	r4	
     768:	04 01       	mova	@r1,	r4	
     76a:	00 5f       	add	r15,	r0	
     76c:	78 04 7b 04 	mova	r4,	1147(r8);0x047b(r8)
     770:	01 00       	mova	@r0,	r1	
     772:	5d 00       	rrcm	#1,	r13	
     774:	00 00       	bra	@r0		
     776:	00 62       	addc	r2,	r0	
     778:	04 76       	subc	r6,	r4	
     77a:	04 01       	mova	@r1,	r4	
     77c:	00 5e       	add	r14,	r0	
     77e:	76 04 c2 04 	mova	r4,	1218(r6);0x04c2(r6)
     782:	01 00       	mova	@r0,	r1	
     784:	58 00       	rrcm	#1,	r8	
     786:	00 00       	bra	@r0		
     788:	00 62       	addc	r2,	r0	
     78a:	04 74       	subc	r4,	r4	
     78c:	04 01       	mova	@r1,	r4	
     78e:	00 5d       	add	r13,	r0	
     790:	74 04 ac 04 	mova	r4,	1196(r4);0x04ac(r4)
     794:	01 00       	mova	@r0,	r1	
     796:	5a 00       	rrcm	#1,	r10	
     798:	00 00       	bra	@r0		
     79a:	00 ca       	bic	r10,	r0	
     79c:	04 cc       	bic	r12,	r4	
     79e:	04 02       	mova	#4,	r4	;r2 As==10
     7a0:	00 71       	subc	r1,	r0	
     7a2:	02 cc       	bic	r12,	r2	
     7a4:	04 ce       	bic	r14,	r4	
     7a6:	04 02       	mova	#4,	r4	;r2 As==10
     7a8:	00 71       	subc	r1,	r0	
     7aa:	04 ce       	bic	r14,	r4	
     7ac:	04 d0       	bis	r0,	r4	
     7ae:	04 02       	mova	#4,	r4	;r2 As==10
     7b0:	00 71       	subc	r1,	r0	
     7b2:	06 d0       	bis	r0,	r6	
     7b4:	04 d2       	bis	r2,	r4	
     7b6:	04 02       	mova	#4,	r4	;r2 As==10
     7b8:	00 71       	subc	r1,	r0	
     7ba:	08 d2       	bis	r2,	r8	
     7bc:	04 d4       	bis	r4,	r4	
     7be:	04 02       	mova	#4,	r4	;r2 As==10
     7c0:	00 71       	subc	r1,	r0	
     7c2:	0a d4       	bis	r4,	r10	
     7c4:	04 d6       	bis	r6,	r4	
     7c6:	04 02       	mova	#4,	r4	;r2 As==10
     7c8:	00 71       	subc	r1,	r0	
     7ca:	0c d6       	bis	r6,	r12	
     7cc:	04 d8       	bis	r8,	r4	
     7ce:	04 02       	mova	#4,	r4	;r2 As==10
     7d0:	00 71       	subc	r1,	r0	
     7d2:	0e d8       	bis	r8,	r14	
     7d4:	04 da       	bis	r10,	r4	
     7d6:	04 02       	mova	#4,	r4	;r2 As==10
     7d8:	00 71       	subc	r1,	r0	
     7da:	10 da 04 dc 	bis	-9212(r10),r0	;0xdc04(r10)
     7de:	04 02       	mova	#4,	r4	;r2 As==10
     7e0:	00 71       	subc	r1,	r0	
     7e2:	12 dc 04 98 	bis	-26620(r12),r2	;0x9804(r12)
     7e6:	05 02       	mova	#4,	r5	;r2 As==10
     7e8:	00 71       	subc	r1,	r0	
     7ea:	16 00       	mova	#0x00000,r6	
     7ec:	00 00       	bra	@r0		
     7ee:	00 ca       	bic	r10,	r0	
     7f0:	04 f8       	and	r8,	r4	
     7f2:	04 01       	mova	@r1,	r4	
     7f4:	00 5f       	add	r15,	r0	
     7f6:	f8 04       	suba	r4,	r8	
     7f8:	20 05 01 00 	bra	&0x50001	
     7fc:	59 54 05 6e 	add.b	28165(r4),r9	;0x6e05(r4)
     800:	05 01       	mova	@r1,	r5	
     802:	00 59       	add	r9,	r0	
     804:	6e 05 98 05 	mova	r5,	&0xe0598
     808:	01 00       	mova	@r0,	r1	
     80a:	59 00       	rrcm	#1,	r9	
     80c:	00 00       	bra	@r0		
     80e:	00 ca       	bic	r10,	r0	
     810:	04 f8       	and	r8,	r4	
     812:	04 01       	mova	@r1,	r4	
     814:	00 5e       	add	r14,	r0	
     816:	f8 04       	suba	r4,	r8	
     818:	2a 05 01 00 	mova	&0x50001,r10	
     81c:	5a 2a       	jnc	$-842    	;abs 0x4d2
     81e:	05 40       	mov	r0,	r5	
     820:	05 01       	mova	@r1,	r5	
     822:	00 5a       	add	r10,	r0	
     824:	54 05       	rram	#2,	r4	
     826:	64 05 01 00 	mova	r5,	&0x40001
     82a:	5a 88 05 98 	sub.b	-26619(r8),r10	;0x9805(r8)
     82e:	05 01       	mova	@r1,	r5	
     830:	00 5a       	add	r10,	r0	
     832:	00 00       	bra	@r0		
     834:	00 00       	bra	@r0		
     836:	ca 04       	mova	r4,	r10	
     838:	06 05       	mova	@r5,	r6	
     83a:	01 00       	mova	@r0,	r1	
     83c:	5d 06       	rlam	#2,	r13	
     83e:	05 42       	mov	r2,	r5	
     840:	05 02       	mova	#4,	r5	;r2 As==10
     842:	00 71       	subc	r1,	r0	
     844:	00 42       	br	r2		
     846:	05 54       	add	r4,	r5	
     848:	05 02       	mova	#4,	r5	;r2 As==10
     84a:	00 91       	cmp	r1,	r0	
     84c:	6a 54       	add.b	@r4,	r10	
     84e:	05 98       	cmp	r8,	r5	
     850:	05 02       	mova	#4,	r5	;r2 As==10
     852:	00 71       	subc	r1,	r0	
     854:	00 00       	bra	@r0		
     856:	00 00       	bra	@r0		
     858:	00 ca       	bic	r10,	r0	
     85a:	04 0d       	mova	@r13,	r4	
     85c:	05 01       	mova	@r1,	r5	
     85e:	00 5c       	add	r12,	r0	
     860:	0d 05       	mova	@r5,	r13	
     862:	98 05 02 00 	cmpa	#0x50002,r8	
     866:	91 6c 00 00 	addc	0(r12),	0(r1)	;0x0000(r12), 0x0000(r1)
     86a:	00 00 
     86c:	f0 04       	suba	r4,	r0	
     86e:	02 05       	mova	@r5,	r2	
     870:	01 00       	mova	@r0,	r1	
     872:	55 02       	rlam	#1,	r5	
     874:	05 46       	mov	r6,	r5	
     876:	05 01       	mova	@r1,	r5	
     878:	00 55       	add	r5,	r0	
     87a:	54 05       	rram	#2,	r4	
     87c:	92 05 01 00 	cmpa	#0x50001,r2	
     880:	55 92 05 94 	cmp.b	&0x9405,r5	
     884:	05 04       	mova	@r4,	r5	
     886:	00 75       	subc	r5,	r0	
     888:	00 20       	jnz	$+2      	;abs 0x88a
     88a:	9f 94 05 98 	cmp	-26619(r4),261(r15);0x9805(r4), 0x0105(r15)
     88e:	05 01 
     890:	00 55       	add	r5,	r0	
     892:	00 00       	bra	@r0		
     894:	00 00       	bra	@r0		
     896:	f4 04       	suba	r4,	r4	
     898:	04 05       	mova	@r5,	r4	
     89a:	01 00       	mova	@r0,	r1	
     89c:	56 04       	rrcm	#2,	r6	
     89e:	05 48       	mov	r8,	r5	
     8a0:	05 01       	mova	@r1,	r5	
     8a2:	00 56       	add	r6,	r0	
     8a4:	54 05       	rram	#2,	r4	
     8a6:	8a 05 01 00 	mova	#0x50001,r10	
     8aa:	56 8a 05 8c 	sub.b	-29691(r10),r6	;0x8c05(r10)
     8ae:	05 04       	mova	@r4,	r5	
     8b0:	00 76       	subc	r6,	r0	
     8b2:	00 20       	jnz	$+2      	;abs 0x8b4
     8b4:	9f 8c 05 98 	sub	-26619(r12),261(r15);0x9805(r12), 0x0105(r15)
     8b8:	05 01 
     8ba:	00 56       	add	r6,	r0	
     8bc:	00 00       	bra	@r0		
     8be:	00 00       	bra	@r0		
     8c0:	00 05       	bra	@r5		
     8c2:	4a 05       	rram.a	#2,	r10	
     8c4:	01 00       	mova	@r0,	r1	
     8c6:	57 54 05 88 	add.b	-30715(r4),r7	;0x8805(r4)
     8ca:	05 01       	mova	@r1,	r5	
     8cc:	00 57       	add	r7,	r0	
     8ce:	8c 05 90 05 	mova	#0x50590,r12	
     8d2:	03 00       	.word	0x0003;	????	Illegal as address instr
     8d4:	09 ff       	and	r15,	r9	
     8d6:	9f 00 00 00 	cmpa	#0x00000,r15	
     8da:	00 fa       	and	r10,	r0	
     8dc:	04 4c       	mov	r12,	r4	
     8de:	05 01       	mova	@r1,	r5	
     8e0:	00 58       	add	r8,	r0	
     8e2:	54 05       	rram	#2,	r4	
     8e4:	90 05 01 00 	cmpa	#0x50001,r0	
     8e8:	58 94 05 98 	cmp.b	-26619(r4),r8	;0x9805(r4)
     8ec:	05 03       	mova	#2,	r5	;r3 As==10
     8ee:	00 09       	bra	@r9		
     8f0:	ff 9f 00 00 	cmp.b	@r15+,	0(r15)	;0x0000(r15)
     8f4:	00 00       	bra	@r0		
     8f6:	12 05       	mova	@r5+,	r2	
     8f8:	22 05 08 00 	mova	&0x50008,r2	
     8fc:	75 00 76 00 	mova	r0,	118(r5)	;0x0076(r5)
     900:	31 26       	jz	$-924    	;abs 0x564
     902:	1c 9f 22 05 	cmp	1314(r15),r12	;0x0522(r15)
     906:	24 05 06 00 	mova	&0x50006,r4	
     90a:	7b 00 75 00 	mova	r0,	117(r11);0x0075(r11)
     90e:	22 9f       	cmp	@r15,	r2	
     910:	2c 05 40 05 	mova	&0x50540,r12	
     914:	06 00       	mova	@r0,	r6	
     916:	7b 00 75 00 	mova	r0,	117(r11);0x0075(r11)
     91a:	22 9f       	cmp	@r15,	r2	
     91c:	00 00       	bra	@r0		
     91e:	00 00       	bra	@r0		
     920:	54 05       	rram	#2,	r4	
     922:	66 05 08 00 	mova	r5,	&0x60008
     926:	76 00 75 00 	mova	r0,	117(r6)	;0x0075(r6)
     92a:	31 26       	jz	$-924    	;abs 0x58e
     92c:	1c 9f 66 05 	cmp	1382(r15),r12	;0x0566(r15)
     930:	68 05 06 00 	mova	r5,	&0x80006
     934:	7b 00 76 00 	mova	r0,	118(r11);0x0076(r11)
     938:	22 9f       	cmp	@r15,	r2	
     93a:	70 05 88 05 	mova	r5,	0x0588	;PC rel. 0x00ec4
     93e:	06 00       	mova	@r0,	r6	
     940:	7b 00 76 00 	mova	r0,	118(r11);0x0076(r11)
     944:	22 9f       	cmp	@r15,	r2	
     946:	00 00       	bra	@r0		
     948:	00 00       	bra	@r0		
     94a:	98 05 9a 05 	cmpa	#0x5059a,r8	
     94e:	02 00       	mova	@r0,	r2	
     950:	71 02 9a 05 	mova	r2,	1434(r1);0x059a(r1)
     954:	9c 05 02 00 	cmpa	#0x50002,r12	
     958:	71 04 9c 05 	mova	r4,	1436(r1);0x059c(r1)
     95c:	9e 05 02 00 	cmpa	#0x50002,r14	
     960:	71 06 9e 05 	mova	r6,	1438(r1);0x059e(r1)
     964:	a0 05 02 00 	adda	#0x50002,r0	
     968:	71 08 a0 05 	mova	r8,	1440(r1);0x05a0(r1)
     96c:	dc 05       	cmpa	r5,	r12	
     96e:	02 00       	mova	@r0,	r2	
     970:	71 0a dc 05 	mova	r10,	1500(r1);0x05dc(r1)
     974:	ea 05       	adda	r5,	r10	
     976:	02 00       	mova	@r0,	r2	
     978:	71 0c ea 05 	mova	r12,	1514(r1);0x05ea(r1)
     97c:	32 06 02 00 	mova	2(r6),	r2	;0x0002(r6)
     980:	71 0a 00 00 	mova	r10,	0(r1)	;0x0000(r1)
     984:	00 00       	bra	@r0		
     986:	98 05 b6 05 	cmpa	#0x505b6,r8	
     98a:	01 00       	mova	@r0,	r1	
     98c:	5f b6 05 b9 	bit.b	-18171(r6),r15	;0xb905(r6)
     990:	05 01       	mova	@r1,	r5	
     992:	00 5e       	add	r14,	r0	
     994:	00 00       	bra	@r0		
     996:	00 00       	bra	@r0		
     998:	98 05 b2 05 	cmpa	#0x505b2,r8	
     99c:	01 00       	mova	@r0,	r1	
     99e:	5e b2 05 2a 	bit.b	&0x2a05,r14	
     9a2:	06 01       	mova	@r1,	r6	
     9a4:	00 58       	add	r8,	r0	
     9a6:	00 00       	bra	@r0		
     9a8:	00 00       	bra	@r0		
     9aa:	98 05 ac 05 	cmpa	#0x505ac,r8	
     9ae:	01 00       	mova	@r0,	r1	
     9b0:	5d ac 05 f0 	dadd.b	-4091(r12),r13	;0xf005(r12)
     9b4:	05 01       	mova	@r1,	r5	
     9b6:	00 5b       	add	r11,	r0	
     9b8:	00 00       	bra	@r0		
     9ba:	00 00       	bra	@r0		
     9bc:	98 05 b9 05 	cmpa	#0x505b9,r8	
     9c0:	01 00       	mova	@r0,	r1	
     9c2:	5c b9 05 e8 	bit.b	-6139(r9),r12	;0xe805(r9)
     9c6:	05 01       	mova	@r1,	r5	
     9c8:	00 5a       	add	r10,	r0	
     9ca:	e8 05       	adda	r5,	r8	
     9cc:	f0 05       	suba	r5,	r0	
     9ce:	03 00       	.word	0x0003;	????	Illegal as address instr
     9d0:	03 30       	jn	$+8      	;abs 0x9d8
     9d2:	01 00       	mova	@r0,	r1	
     9d4:	00 00       	bra	@r0		
     9d6:	00 ea       	xor	r10,	r0	
     9d8:	05 f0       	and	r0,	r5	
     9da:	05 02       	mova	#4,	r5	;r2 As==10
     9dc:	00 30       	jn	$+2      	;abs 0x9de
     9de:	9f fe 05 02 	and	517(r14),262(r15);0x0205(r14), 0x0106(r15)
     9e2:	06 01 
     9e4:	00 5b       	add	r11,	r0	
     9e6:	00 00       	bra	@r0		
     9e8:	00 00       	bra	@r0		
     9ea:	ea 05       	adda	r5,	r10	
     9ec:	2e 06 01 00 	mova	&0x60001,r14	
     9f0:	5a 00       	rrcm	#1,	r10	
     9f2:	00 00       	bra	@r0		
     9f4:	00 4c       	br	r12		
     9f6:	06 54       	add	r4,	r6	
     9f8:	06 01       	mova	@r1,	r6	
     9fa:	00 5f       	add	r15,	r0	
     9fc:	54 06       	rlam	#2,	r4	
     9fe:	66 06 01 00 	mova	r6,	&0x60001
     a02:	5f 00       	rrcm	#1,	r15	
     a04:	00 00       	bra	@r0		
     a06:	00 4c       	br	r12		
     a08:	06 5c       	add	r12,	r6	
     a0a:	06 01       	mova	@r1,	r6	
     a0c:	00 5e       	add	r14,	r0	
     a0e:	5c 06       	rlam	#2,	r12	
     a10:	66 06 01 00 	mova	r6,	&0x60001
     a14:	5e 00       	rrcm	#1,	r14	
     a16:	00 00       	bra	@r0		
     a18:	00 66       	addc	r6,	r0	
     a1a:	06 68       	addc	r8,	r6	
     a1c:	06 02       	mova	#4,	r6	;r2 As==10
     a1e:	00 71       	subc	r1,	r0	
     a20:	02 68       	addc	r8,	r2	
     a22:	06 6a       	addc	r10,	r6	
     a24:	06 02       	mova	#4,	r6	;r2 As==10
     a26:	00 71       	subc	r1,	r0	
     a28:	04 6a       	addc	r10,	r4	
     a2a:	06 6c       	addc	r12,	r6	
     a2c:	06 02       	mova	#4,	r6	;r2 As==10
     a2e:	00 71       	subc	r1,	r0	
     a30:	06 6c       	addc	r12,	r6	
     a32:	06 6e       	addc	r14,	r6	
     a34:	06 02       	mova	#4,	r6	;r2 As==10
     a36:	00 71       	subc	r1,	r0	
     a38:	08 6e       	addc	r14,	r8	
     a3a:	06 70       	subc	r0,	r6	
     a3c:	06 02       	mova	#4,	r6	;r2 As==10
     a3e:	00 71       	subc	r1,	r0	
     a40:	0a 70       	subc	r0,	r10	
     a42:	06 08       	mova	@r8,	r6	
     a44:	07 02       	mova	#4,	r7	;r2 As==10
     a46:	00 71       	subc	r1,	r0	
     a48:	0c 00       	mova	@r0,	r12	
     a4a:	00 00       	bra	@r0		
     a4c:	00 66       	addc	r6,	r0	
     a4e:	06 88       	sub	r8,	r6	
     a50:	06 01       	mova	@r1,	r6	
     a52:	00 5f       	add	r15,	r0	
     a54:	88 06 c8 06 	mova	#0x606c8,r8	
     a58:	01 00       	mova	@r0,	r1	
     a5a:	5b 00       	rrcm	#1,	r11	
     a5c:	00 00       	bra	@r0		
     a5e:	00 7e       	subc	r14,	r0	
     a60:	06 8b       	sub	r11,	r6	
     a62:	06 01       	mova	@r1,	r6	
     a64:	00 5e       	add	r14,	r0	
     a66:	96 06 9e 06 	cmpa	#0x6069e,r6	
     a6a:	03 00       	.word	0x0003;	????	Illegal as address instr
     a6c:	7e 02 9f 9e 	mova	r2,	-24929(r14);0x9e9f(r14)
     a70:	06 a5       	dadd	r5,	r6	
     a72:	06 03       	mova	#2,	r6	;r3 As==10
     a74:	00 7d       	subc	r13,	r0	
     a76:	79 9f       	cmp.b	@r15+,	r9	
     a78:	c8 06       	mova	r6,	r8	
     a7a:	ca 06       	mova	r6,	r10	
     a7c:	02 00       	mova	@r0,	r2	
     a7e:	30 9f       	cmp	@r15+,	r0	
     a80:	00 00       	bra	@r0		
     a82:	00 00       	bra	@r0		
     a84:	b0 06 c8 06 	suba	#0x606c8,r0	
     a88:	02 00       	mova	@r0,	r2	
     a8a:	30 9f       	cmp	@r15+,	r0	
     a8c:	00 00       	bra	@r0		
     a8e:	00 00       	bra	@r0		
     a90:	ca 06       	mova	r6,	r10	
     a92:	d9 06       	cmpa	r6,	r9	
     a94:	02 00       	mova	@r0,	r2	
     a96:	7b 00 f2 06 	mova	r0,	1778(r11);0x06f2(r11)
     a9a:	f9 06       	suba	r6,	r9	
     a9c:	02 00       	mova	@r0,	r2	
     a9e:	7b 00 00 00 	mova	r0,	0(r11)	;0x0000(r11)
     aa2:	00 00       	bra	@r0		
     aa4:	a6 06 c8 06 	adda	#0x606c8,r6	
     aa8:	02 00       	mova	@r0,	r2	
     aaa:	31 9f       	cmp	@r15+,	r1	
     aac:	ea 06       	adda	r6,	r10	
     aae:	f0 06       	suba	r6,	r0	
     ab0:	05 00       	mova	@r0,	r5	
     ab2:	7a 00 31 24 	mova	r0,	9265(r10);0x2431(r10)
     ab6:	9f f0 06 f2 	and	0xf206,	262(r15);PC rel. 0xffcc0, 0x0106(r15)
     aba:	06 01 
     abc:	00 5a       	add	r10,	r0	
     abe:	fc 06       	suba	r6,	r12	
     ac0:	04 07       	mova	@r7,	r4	
     ac2:	05 00       	mova	@r0,	r5	
     ac4:	7a 00 31 24 	mova	r0,	9265(r10);0x2431(r10)
     ac8:	9f 00 00 00 	cmpa	#0x00000,r15	
     acc:	00 08       	bra	@r8		
     ace:	07 10       	rrc	r7		
     ad0:	07 01       	mova	@r1,	r7	
     ad2:	00 5f       	add	r15,	r0	
     ad4:	10 07       	bra	@r7+		
     ad6:	41 07       	rrum.a	#2,	r1	
     ad8:	01 00       	mova	@r0,	r1	
     ada:	5e 48 07 6b 	mov.b	27399(r8),r14	;0x6b07(r8)
     ade:	07 01       	mova	@r1,	r7	
     ae0:	00 5e       	add	r14,	r0	
     ae2:	00 00       	bra	@r0		
     ae4:	00 00       	bra	@r0		
     ae6:	6e 07 71 07 	mova	r7,	&0xe0771
     aea:	01 00       	mova	@r0,	r1	
     aec:	5f 00       	rrcm	#1,	r15	
     aee:	00 00       	bra	@r0		
     af0:	00 76       	subc	r6,	r0	
     af2:	07 78       	subc	r8,	r7	
     af4:	07 02       	mova	#4,	r7	;r2 As==10
     af6:	00 71       	subc	r1,	r0	
     af8:	02 78       	subc	r8,	r2	
     afa:	07 7a       	subc	r10,	r7	
     afc:	07 02       	mova	#4,	r7	;r2 As==10
     afe:	00 71       	subc	r1,	r0	
     b00:	04 7a       	subc	r10,	r4	
     b02:	07 7c       	subc	r12,	r7	
     b04:	07 02       	mova	#4,	r7	;r2 As==10
     b06:	00 71       	subc	r1,	r0	
     b08:	06 7c       	subc	r12,	r6	
     b0a:	07 7e       	subc	r14,	r7	
     b0c:	07 02       	mova	#4,	r7	;r2 As==10
     b0e:	00 71       	subc	r1,	r0	
     b10:	08 7e       	subc	r14,	r8	
     b12:	07 80       	sub	r0,	r7	
     b14:	07 02       	mova	#4,	r7	;r2 As==10
     b16:	00 71       	subc	r1,	r0	
     b18:	0a 80       	sub	r0,	r10	
     b1a:	07 a6       	dadd	r6,	r7	
     b1c:	07 02       	mova	#4,	r7	;r2 As==10
     b1e:	00 71       	subc	r1,	r0	
     b20:	0c a6       	dadd	r6,	r12	
     b22:	07 b4       	bit	r4,	r7	
     b24:	07 02       	mova	#4,	r7	;r2 As==10
     b26:	00 71       	subc	r1,	r0	
     b28:	0e b4       	bit	r4,	r14	
     b2a:	07 c8       	bic	r8,	r7	
     b2c:	07 02       	mova	#4,	r7	;r2 As==10
     b2e:	00 71       	subc	r1,	r0	
     b30:	0c c8       	bic	r8,	r12	
     b32:	07 d2       	bis	r2,	r7	
     b34:	07 02       	mova	#4,	r7	;r2 As==10
     b36:	00 71       	subc	r1,	r0	
     b38:	0e d2       	bis	r2,	r14	
     b3a:	07 d6       	bis	r6,	r7	
     b3c:	07 02       	mova	#4,	r7	;r2 As==10
     b3e:	00 71       	subc	r1,	r0	
     b40:	0c d6       	bis	r6,	r12	
     b42:	07 e8       	xor	r8,	r7	
     b44:	07 02       	mova	#4,	r7	;r2 As==10
     b46:	00 71       	subc	r1,	r0	
     b48:	0e e8       	xor	r8,	r14	
     b4a:	07 02       	mova	#4,	r7	;r2 As==10
     b4c:	08 02       	mova	#4,	r8	;r2 As==10
     b4e:	00 71       	subc	r1,	r0	
     b50:	0c 00       	mova	@r0,	r12	
     b52:	00 00       	bra	@r0		
     b54:	00 76       	subc	r6,	r0	
     b56:	07 cf       	bic	r15,	r7	
     b58:	07 01       	mova	@r1,	r7	
     b5a:	00 5f       	add	r15,	r0	
     b5c:	f4 07       	suba	r7,	r4	
     b5e:	02 08       	mova	@r8,	r2	
     b60:	01 00       	mova	@r0,	r1	
     b62:	5f 00       	rrcm	#1,	r15	
     b64:	00 00       	bra	@r0		
     b66:	00 76       	subc	r6,	r0	
     b68:	07 8a       	sub	r10,	r7	
     b6a:	07 01       	mova	@r1,	r7	
     b6c:	00 5e       	add	r14,	r0	
     b6e:	8a 07 ec 07 	mova	#0x707ec,r10	
     b72:	01 00       	mova	@r0,	r1	
     b74:	58 f4 07 02 	and.b	519(r4),r8	;0x0207(r4)
     b78:	08 01       	mova	@r1,	r8	
     b7a:	00 58       	add	r8,	r0	
     b7c:	00 00       	bra	@r0		
     b7e:	00 00       	bra	@r0		
     b80:	76 07 86 07 	mova	r7,	1926(r6);0x0786(r6)
     b84:	01 00       	mova	@r0,	r1	
     b86:	5d 86 07 ee 	sub.b	-4601(r6),r13	;0xee07(r6)
     b8a:	07 01       	mova	@r1,	r7	
     b8c:	00 59       	add	r9,	r0	
     b8e:	f4 07       	suba	r7,	r4	
     b90:	02 08       	mova	@r8,	r2	
     b92:	01 00       	mova	@r0,	r1	
     b94:	59 00       	rrcm	#1,	r9	
     b96:	00 00       	bra	@r0		
     b98:	00 76       	subc	r6,	r0	
     b9a:	07 b6       	bit	r6,	r7	
     b9c:	07 01       	mova	@r1,	r7	
     b9e:	00 5c       	add	r12,	r0	
     ba0:	f4 07       	suba	r7,	r4	
     ba2:	02 08       	mova	@r8,	r2	
     ba4:	01 00       	mova	@r0,	r1	
     ba6:	5c 00       	rrcm	#1,	r12	
     ba8:	00 00       	bra	@r0		
     baa:	00 76       	subc	r6,	r0	
     bac:	07 9a       	cmp	r10,	r7	
     bae:	07 02       	mova	#4,	r7	;r2 As==10
     bb0:	00 91       	cmp	r1,	r0	
     bb2:	10 f8 07 fa 	and	-1529(r8),r0	;0xfa07(r8)
     bb6:	07 02       	mova	#4,	r7	;r2 As==10
     bb8:	00 91       	cmp	r1,	r0	
     bba:	10 00       	bra	#0x00000	
     bbc:	00 00       	bra	@r0		
     bbe:	00 02       	bra	#4		;r2 As==10
     bc0:	08 04       	mova	@r4,	r8	
     bc2:	08 02       	mova	#4,	r8	;r2 As==10
     bc4:	00 71       	subc	r1,	r0	
     bc6:	02 04       	mova	@r4,	r2	
     bc8:	08 06       	mova	@r6,	r8	
     bca:	08 02       	mova	#4,	r8	;r2 As==10
     bcc:	00 71       	subc	r1,	r0	
     bce:	04 06       	mova	@r6,	r4	
     bd0:	08 46       	mov	r6,	r8	
     bd2:	08 02       	mova	#4,	r8	;r2 As==10
     bd4:	00 71       	subc	r1,	r0	
     bd6:	06 00       	mova	@r0,	r6	
     bd8:	00 00       	bra	@r0		
     bda:	00 02       	bra	#4		;r2 As==10
     bdc:	08 0e       	mova	@r14,	r8	
     bde:	08 01       	mova	@r1,	r8	
     be0:	00 5f       	add	r15,	r0	
     be2:	0e 08       	mova	@r8,	r14	
     be4:	38 08 01 00 	mova	1(r8),	r8	;0x0001(r8)
     be8:	5b 38       	jl	$+184    	;abs 0xca0
     bea:	08 40       	mov	r0,	r8	
     bec:	08 01       	mova	@r1,	r8	
     bee:	00 5b       	add	r11,	r0	
     bf0:	42 08       	rrcm.a	#3,	r2	
     bf2:	46 08       	rrcm.a	#3,	r6	
     bf4:	01 00       	mova	@r0,	r1	
     bf6:	5b 00       	rrcm	#1,	r11	
     bf8:	00 00       	bra	@r0		
     bfa:	00 02       	bra	#4		;r2 As==10
     bfc:	08 0e       	mova	@r14,	r8	
     bfe:	08 01       	mova	@r1,	r8	
     c00:	00 5e       	add	r14,	r0	
     c02:	0e 08       	mova	@r8,	r14	
     c04:	3e 08 01 00 	mova	1(r8),	r14	;0x0001(r8)
     c08:	5a 42 08 46 	mov.b	&0x4608,r10	
     c0c:	08 01       	mova	@r1,	r8	
     c0e:	00 5a       	add	r10,	r0	
     c10:	00 00       	bra	@r0		
     c12:	00 00       	bra	@r0		
     c14:	14 08       	mova	@r8+,	r4	
     c16:	22 08 03 00 	mova	&0x80003,r2	
     c1a:	03 0a       	.word	0x0a03;	????	Illegal as address instr
     c1c:	11 22       	jnz	$-988    	;abs 0x840
     c1e:	08 2e       	jc	$-1006   	;abs 0x830
     c20:	08 01       	mova	@r1,	r8	
     c22:	00 5f       	add	r15,	r0	
     c24:	42 08       	rrcm.a	#3,	r2	
     c26:	44 08       	rrcm.a	#3,	r4	
     c28:	01 00       	mova	@r0,	r1	
     c2a:	5f 44 08 46 	mov.b	17928(r4),r15	;0x4608(r4)
     c2e:	08 03       	mova	#2,	r8	;r3 As==10
     c30:	00 03       	bra	#2		;r3 As==10
     c32:	0a 11       	rra	r10		
     c34:	00 00       	bra	@r0		
     c36:	00 00       	bra	@r0		
     c38:	14 08       	mova	@r8+,	r4	
     c3a:	1c 08       	mova	@r8+,	r12	
     c3c:	01 00       	mova	@r0,	r1	
     c3e:	5b 1c       	.word	0x1c5b;	????	
     c40:	08 2e       	jc	$-1006   	;abs 0x852
     c42:	08 01       	mova	@r1,	r8	
     c44:	00 5e       	add	r14,	r0	
     c46:	42 08       	rrcm.a	#3,	r2	
     c48:	46 08       	rrcm.a	#3,	r6	
     c4a:	01 00       	mova	@r0,	r1	
     c4c:	5e 00       	rrcm	#1,	r14	
     c4e:	00 00       	bra	@r0		
     c50:	00 04       	bra	@r4		
     c52:	00 0a       	bra	@r10		
     c54:	00 02       	bra	#4		;r2 As==10
     c56:	00 30       	jn	$+2      	;abs 0xc58
     c58:	9f 0e 00 12 	cmpa	#0xe1200,r15	
     c5c:	00 01       	bra	@r1		
     c5e:	00 5e       	add	r14,	r0	
     c60:	00 00       	bra	@r0		
     c62:	00 00       	bra	@r0		
     c64:	14 00       	mova	#0x00000,r4	
     c66:	16 00       	mova	#0x00000,r6	
     c68:	02 00       	mova	@r0,	r2	
     c6a:	71 02 16 00 	mova	r2,	22(r1)	;0x0016(r1)
     c6e:	18 00       	mova	#0x00000,r8	
     c70:	02 00       	mova	@r0,	r2	
     c72:	71 04 18 00 	mova	r4,	24(r1)	;0x0018(r1)
     c76:	34 00 02 00 	mova	0x0002,	r4	;PC rel. 0x00c7a
     c7a:	71 06 00 00 	mova	r6,	0(r1)	;0x0000(r1)
     c7e:	00 00       	bra	@r0		
     c80:	14 00       	mova	#0x00000,r4	
     c82:	1e 00       	mova	#0x00000,r14	
     c84:	01 00       	mova	@r0,	r1	
     c86:	5f 1e       	.word	0x1e5f;	????	
     c88:	00 30       	jn	$+2      	;abs 0xc8a
     c8a:	00 01       	bra	@r1		
     c8c:	00 5a       	add	r10,	r0	
     c8e:	00 00       	bra	@r0		
     c90:	00 00       	bra	@r0		
     c92:	1a 00       	mova	#0x00000,r10	
     c94:	20 00 02 00 	bra	&0x00002	
     c98:	30 9f       	cmp	@r15+,	r0	
     c9a:	2a 00 2e 00 	mova	&0x0002e,r10	
     c9e:	01 00       	mova	@r0,	r1	
     ca0:	5b 00       	rrcm	#1,	r11	
     ca2:	00 00       	bra	@r0		
     ca4:	00 34       	jge	$+2      	;abs 0xca6
     ca6:	00 36       	jge	$-1022   	;abs 0x8a8
     ca8:	00 01       	bra	@r1		
     caa:	00 5f       	add	r15,	r0	
     cac:	00 00       	bra	@r0		
     cae:	00 00       	bra	@r0		
     cb0:	3c 00 42 00 	mova	0x0042,	r12	;PC rel. 0x00cf4
     cb4:	01 00       	mova	@r0,	r1	
     cb6:	5f 00       	rrcm	#1,	r15	
     cb8:	00 00       	bra	@r0		
     cba:	00 4c       	br	r12		
     cbc:	00 4e       	br	r14		
     cbe:	00 02       	bra	#4		;r2 As==10
     cc0:	00 71       	subc	r1,	r0	
     cc2:	02 4e       	mov	r14,	r2	
     cc4:	00 50       	rla	r0		
     cc6:	00 02       	bra	#4		;r2 As==10
     cc8:	00 71       	subc	r1,	r0	
     cca:	04 50       	add	r0,	r4	
     ccc:	00 78       	subc	r8,	r0	
     cce:	00 02       	bra	#4		;r2 As==10
     cd0:	00 71       	subc	r1,	r0	
     cd2:	06 00       	mova	@r0,	r6	
     cd4:	00 00       	bra	@r0		
     cd6:	00 50       	rla	r0		
     cd8:	00 54       	add	r4,	r0	
     cda:	00 02       	bra	#4		;r2 As==10
     cdc:	00 37       	jge	$-510    	;abs 0xade
     cde:	9f 54 00 56 	add	22016(r4),256(r15);0x5600(r4), 0x0100(r15)
     ce2:	00 01 
     ce4:	00 5e       	add	r14,	r0	
     ce6:	56 00       	rrcm	#1,	r6	
     ce8:	74 00 01 00 	mova	r0,	1(r4)	;0x0001(r4)
     cec:	5e 00       	rrcm	#1,	r14	
     cee:	00 00       	bra	@r0		
     cf0:	00 1c       	.word	0x1c00;	????	
     cf2:	00 1e       	.word	0x1e00;	????	
     cf4:	00 02       	bra	#4		;r2 As==10
     cf6:	00 71       	subc	r1,	r0	
     cf8:	02 1e       	.word	0x1e02;	????	
     cfa:	00 20       	jnz	$+2      	;abs 0xcfc
     cfc:	00 02       	bra	#4		;r2 As==10
     cfe:	00 71       	subc	r1,	r0	
     d00:	04 20       	jnz	$+10     	;abs 0xd0a
     d02:	00 22       	jnz	$-1022   	;abs 0x904
     d04:	00 02       	bra	#4		;r2 As==10
     d06:	00 71       	subc	r1,	r0	
     d08:	06 22       	jnz	$-1010   	;abs 0x916
     d0a:	00 24       	jz	$+2      	;abs 0xd0c
     d0c:	00 02       	bra	#4		;r2 As==10
     d0e:	00 71       	subc	r1,	r0	
     d10:	08 24       	jz	$+18     	;abs 0xd22
     d12:	00 26       	jz	$-1022   	;abs 0x914
     d14:	00 02       	bra	#4		;r2 As==10
     d16:	00 71       	subc	r1,	r0	
     d18:	0a 26       	jz	$-1002   	;abs 0x92e
     d1a:	00 28       	jnc	$+2      	;abs 0xd1c
     d1c:	00 02       	bra	#4		;r2 As==10
     d1e:	00 71       	subc	r1,	r0	
     d20:	0c 28       	jnc	$+26     	;abs 0xd3a
     d22:	00 2a       	jnc	$-1022   	;abs 0x924
     d24:	00 02       	bra	#4		;r2 As==10
     d26:	00 71       	subc	r1,	r0	
     d28:	0e 2a       	jnc	$-994    	;abs 0x946
     d2a:	00 2c       	jc	$+2      	;abs 0xd2c
     d2c:	00 02       	bra	#4		;r2 As==10
     d2e:	00 71       	subc	r1,	r0	
     d30:	10 2c       	jc	$+34     	;abs 0xd52
     d32:	00 a0       	dadd	r0,	r0	
     d34:	00 02       	bra	#4		;r2 As==10
     d36:	00 71       	subc	r1,	r0	
     d38:	12 00       	mova	#0x00000,r2	
     d3a:	00 00       	bra	@r0		
     d3c:	00 1c       	.word	0x1c00;	????	
     d3e:	00 3c       	jmp	$+2      	;abs 0xd40
     d40:	00 01       	bra	@r1		
     d42:	00 5f       	add	r15,	r0	
     d44:	00 00       	bra	@r0		
     d46:	00 00       	bra	@r0		
     d48:	2e 00 4a 00 	mova	&0x0004a,r14	
     d4c:	02 00       	mova	@r0,	r2	
     d4e:	30 9f       	cmp	@r15+,	r0	
     d50:	00 00       	bra	@r0		
     d52:	00 00       	bra	@r0		
     d54:	2e 00 4a 00 	mova	&0x0004a,r14	
     d58:	06 00       	mova	@r0,	r6	
     d5a:	9e 04 00 00 	cmpa	#0x40000,r14	
     d5e:	00 00       	bra	@r0		
     d60:	74 00 8a 00 	mova	r0,	138(r4)	;0x008a(r4)
     d64:	06 00       	mova	@r0,	r6	
     d66:	59 93       	cmp.b	#1,	r9	;r3 As==01
     d68:	02 5a       	add	r10,	r2	
     d6a:	93 02       	.word	0x0293;	????	Illegal as address instr
     d6c:	8a 00 8e 00 	mova	#0x0008e,r10	
     d70:	06 00       	mova	@r0,	r6	
     d72:	5c 93       	cmp.b	#1,	r12	;r3 As==01
     d74:	02 5d       	add	r13,	r2	
     d76:	93 02       	.word	0x0293;	????	Illegal as address instr
     d78:	00 00       	bra	@r0		
     d7a:	00 00       	bra	@r0		
     d7c:	a0 00 a6 00 	adda	#0x000a6,r0	
     d80:	02 00       	mova	@r0,	r2	
     d82:	30 9f       	cmp	@r15+,	r0	
     d84:	da 00       	cmpa	r0,	r10	
     d86:	e2 00       	adda	r0,	r2	
     d88:	01 00       	mova	@r0,	r1	
     d8a:	5e 00       	rrcm	#1,	r14	
     d8c:	00 00       	bra	@r0		
     d8e:	00 e8       	xor	r8,	r0	
     d90:	00 f8       	and	r8,	r0	
     d92:	00 01       	bra	@r1		
     d94:	00 5f       	add	r15,	r0	
     d96:	00 00       	bra	@r0		
     d98:	00 00       	bra	@r0		
     d9a:	12 00       	mova	#0x00000,r2	
     d9c:	1a 00       	mova	#0x00000,r10	
     d9e:	01 00       	mova	@r0,	r1	
     da0:	5f 1a       	.word	0x1a5f;	????	
     da2:	00 1d       	.word	0x1d00;	????	
     da4:	00 01       	bra	@r1		
     da6:	00 5e       	add	r14,	r0	
     da8:	00 00       	bra	@r0		
     daa:	00 00       	bra	@r0		
     dac:	12 00       	mova	#0x00000,r2	
     dae:	16 00       	mova	#0x00000,r6	
     db0:	01 00       	mova	@r0,	r1	
     db2:	5e 16       	popm.a	#6,	#0	;r3 As==00
     db4:	00 1d       	.word	0x1d00;	????	
     db6:	00 01       	bra	@r1		
     db8:	00 5d       	add	r13,	r0	
     dba:	00 00       	bra	@r0		
     dbc:	00 00       	bra	@r0		
     dbe:	00 00       	bra	@r0		
     dc0:	02 00       	mova	@r0,	r2	
     dc2:	02 00       	mova	@r0,	r2	
     dc4:	71 02 02 00 	mova	r2,	2(r1)	;0x0002(r1)
     dc8:	04 00       	mova	@r0,	r4	
     dca:	02 00       	mova	@r0,	r2	
     dcc:	71 04 04 00 	mova	r4,	4(r1)	;0x0004(r1)
     dd0:	06 00       	mova	@r0,	r6	
     dd2:	02 00       	mova	@r0,	r2	
     dd4:	71 06 06 00 	mova	r6,	6(r1)	;0x0006(r1)
     dd8:	08 00       	mova	@r0,	r8	
     dda:	02 00       	mova	@r0,	r2	
     ddc:	71 08 08 00 	mova	r8,	8(r1)	;0x0008(r1)
     de0:	0a 00       	mova	@r0,	r10	
     de2:	02 00       	mova	@r0,	r2	
     de4:	71 0a 0a 00 	mova	r10,	10(r1)	;0x000a(r1)
     de8:	0c 00       	mova	@r0,	r12	
     dea:	02 00       	mova	@r0,	r2	
     dec:	71 0c 0c 00 	mova	r12,	12(r1)	;0x000c(r1)
     df0:	0e 00       	mova	@r0,	r14	
     df2:	02 00       	mova	@r0,	r2	
     df4:	71 0e 0e 00 	mova	r14,	14(r1)	;0x000e(r1)
     df8:	10 00       	bra	#0x00000	
     dfa:	02 00       	mova	@r0,	r2	
     dfc:	71 10       	rrc.b	@r1+		
     dfe:	10 00       	bra	#0x00000	
     e00:	12 00       	mova	#0x00000,r2	
     e02:	02 00       	mova	@r0,	r2	
     e04:	71 12       	push.b	@r1+		
     e06:	12 00       	mova	#0x00000,r2	
     e08:	04 01       	mova	@r1,	r4	
     e0a:	02 00       	mova	@r0,	r2	
     e0c:	71 14       	pushm.a	#8,	r1	
     e0e:	00 00       	bra	@r0		
     e10:	00 00       	bra	@r0		
     e12:	00 00       	bra	@r0		
     e14:	1a 00       	mova	#0x00000,r10	
     e16:	01 00       	mova	@r0,	r1	
     e18:	5f 1a       	.word	0x1a5f;	????	
     e1a:	00 00       	bra	@r0		
     e1c:	01 01       	mova	@r1,	r1	
     e1e:	00 5a       	add	r10,	r0	
     e20:	00 00       	bra	@r0		
     e22:	00 00       	bra	@r0		
     e24:	00 00       	bra	@r0		
     e26:	22 00 01 00 	mova	&0x00001,r2	
     e2a:	5e 22       	jnz	$-834    	;abs 0xae8
     e2c:	00 d8       	bis	r8,	r0	
     e2e:	00 01       	bra	@r1		
     e30:	00 58       	add	r8,	r0	
     e32:	d8 00       	cmpa	r0,	r8	
     e34:	fc 00       	suba	r0,	r12	
     e36:	01 00       	mova	@r0,	r1	
     e38:	58 00       	rrcm	#1,	r8	
     e3a:	00 00       	bra	@r0		
     e3c:	00 00       	bra	@r0		
     e3e:	00 20       	jnz	$+2      	;abs 0xe40
     e40:	00 01       	bra	@r1		
     e42:	00 5d       	add	r13,	r0	
     e44:	20 00 74 00 	bra	&0x00074	
     e48:	01 00       	mova	@r0,	r1	
     e4a:	57 74 00 78 	subc.b	30720(r4),r7	;0x7800(r4)
     e4e:	00 01       	bra	@r1		
     e50:	00 57       	add	r7,	r0	
     e52:	78 00 fa 00 	mova	r0,	250(r8)	;0x00fa(r8)
     e56:	01 00       	mova	@r0,	r1	
     e58:	57 00       	rrcm	#1,	r7	
     e5a:	00 00       	bra	@r0		
     e5c:	00 00       	bra	@r0		
     e5e:	00 1c       	.word	0x1c00;	????	
     e60:	00 01       	bra	@r1		
     e62:	00 5c       	add	r12,	r0	
     e64:	00 00       	bra	@r0		
     e66:	00 00       	bra	@r0		
     e68:	1e 00       	mova	#0x00000,r14	
     e6a:	a4 00 02 00 	adda	#0x00002,r4	
     e6e:	30 9f       	cmp	@r15+,	r0	
     e70:	a4 00 ac 00 	adda	#0x000ac,r4	
     e74:	01 00       	mova	@r0,	r1	
     e76:	5b ac 00 ae 	dadd.b	-20992(r12),r11	;0xae00(r12)
     e7a:	00 01       	bra	@r1		
     e7c:	00 5b       	add	r11,	r0	
     e7e:	ae 00 b4 00 	adda	#0x000b4,r14	
     e82:	01 00       	mova	@r0,	r1	
     e84:	5b b4 00 b8 	bit.b	-18432(r4),r11	;0xb800(r4)
     e88:	00 02       	bra	#4		;r2 As==10
     e8a:	00 30       	jn	$+2      	;abs 0xe8c
     e8c:	9f bc 00 be 	bit	-16896(r12),256(r15);0xbe00(r12), 0x0100(r15)
     e90:	00 01 
     e92:	00 5b       	add	r11,	r0	
     e94:	be 00 c6 00 	suba	#0x000c6,r14	
     e98:	01 00       	mova	@r0,	r1	
     e9a:	5b c6 00 da 	bic.b	-9728(r6),r11	;0xda00(r6)
     e9e:	00 01       	bra	@r1		
     ea0:	00 5b       	add	r11,	r0	
     ea2:	da 00       	cmpa	r0,	r10	
     ea4:	ea 00       	adda	r0,	r10	
     ea6:	01 00       	mova	@r0,	r1	
     ea8:	5b ea 00 02 	xor.b	512(r10),r11	;0x0200(r10)
     eac:	01 01       	mova	@r1,	r1	
     eae:	00 5b       	add	r11,	r0	
     eb0:	02 01       	mova	@r1,	r2	
     eb2:	04 01       	mova	@r1,	r4	
     eb4:	01 00       	mova	@r0,	r1	
     eb6:	5f 00       	rrcm	#1,	r15	
     eb8:	00 00       	bra	@r0		
     eba:	00 1e 00 82 	subx	r2,	r0	
     ebe:	00 02       	bra	#4		;r2 As==10
     ec0:	00 30       	jn	$+2      	;abs 0xec2
     ec2:	9f 82 00 8c 	sub	&0x8c00,256(r15);0x0100(r15)
     ec6:	00 01 
     ec8:	00 59       	add	r9,	r0	
     eca:	8c 00 8e 00 	mova	#0x0008e,r12	
     ece:	01 00       	mova	@r0,	r1	
     ed0:	59 8e 00 9a 	sub.b	-26112(r14),r9	;0x9a00(r14)
     ed4:	00 01       	bra	@r1		
     ed6:	00 59       	add	r9,	r0	
     ed8:	9a 00 a4 00 	cmpa	#0x000a4,r10	
     edc:	02 00       	mova	@r0,	r2	
     ede:	30 9f       	cmp	@r15+,	r0	
     ee0:	a4 00 ae 00 	adda	#0x000ae,r4	
     ee4:	01 00       	mova	@r0,	r1	
     ee6:	59 ae 00 b4 	dadd.b	-19456(r14),r9	;0xb400(r14)
     eea:	00 01       	bra	@r1		
     eec:	00 59       	add	r9,	r0	
     eee:	b4 00 b8 00 	suba	#0x000b8,r4	
     ef2:	02 00       	mova	@r0,	r2	
     ef4:	30 9f       	cmp	@r15+,	r0	
     ef6:	00 00       	bra	@r0		
     ef8:	00 00       	bra	@r0		
     efa:	1e 00       	mova	#0x00000,r14	
     efc:	f2 00       	suba	r0,	r2	
     efe:	01 00       	mova	@r0,	r1	
     f00:	51 f2 00 04 	and.b	&0x0400,r1	
     f04:	01 03       	mova	#2,	r1	;r3 As==10
     f06:	00 91       	cmp	r1,	r0	
     f08:	6c 9f       	cmp.b	@r15,	r12	
     f0a:	00 00       	bra	@r0		
     f0c:	00 00       	bra	@r0		
     f0e:	1e 00       	mova	#0x00000,r14	
     f10:	2e 00 01 00 	mova	&0x00001,r14	
     f14:	51 2e       	jc	$-860    	;abs 0xbb8
     f16:	00 42       	br	r2		
     f18:	00 03       	bra	#2		;r3 As==10
     f1a:	00 91       	cmp	r1,	r0	
     f1c:	6d 9f       	cmp.b	@r15,	r13	
     f1e:	42 00       	rrcm.a	#1,	r2	
     f20:	48 00       	rrcm.a	#1,	r8	
     f22:	03 00       	.word	0x0003;	????	Illegal as address instr
     f24:	91 6e 9f 48 	addc	18591(r14),20480(r1);0x489f(r14), 0x5000(r1)
     f28:	00 50 
     f2a:	00 01       	bra	@r1		
     f2c:	00 51       	add	r1,	r0	
     f2e:	50 00       	rrcm	#1,	r0	
     f30:	56 00       	rrcm	#1,	r6	
     f32:	03 00       	.word	0x0003;	????	Illegal as address instr
     f34:	91 6d 9f 56 	addc	22175(r13),22528(r1);0x569f(r13), 0x5800(r1)
     f38:	00 58 
     f3a:	00 01       	bra	@r1		
     f3c:	00 51       	add	r1,	r0	
     f3e:	58 00       	rrcm	#1,	r8	
     f40:	5a 00       	rrcm	#1,	r10	
     f42:	01 00       	mova	@r0,	r1	
     f44:	56 00       	rrcm	#1,	r6	
     f46:	00 00       	bra	@r0		
     f48:	00 5e       	add	r14,	r0	
     f4a:	00 a4       	dadd	r4,	r0	
     f4c:	00 03       	bra	#2		;r3 As==10
     f4e:	00 08       	bra	@r8		
     f50:	20 9f       	cmp	@r15,	r0	
     f52:	a4 00 ae 00 	adda	#0x000ae,r4	
     f56:	01 00       	mova	@r0,	r1	
     f58:	54 ae 00 b4 	dadd.b	-19456(r14),r4	;0xb400(r14)
     f5c:	00 01       	bra	@r1		
     f5e:	00 54       	add	r4,	r0	
     f60:	00 00       	bra	@r0		
     f62:	00 00       	bra	@r0		
     f64:	6e 00 ae 00 	mova	r0,	&0xe00ae
     f68:	01 00       	mova	@r0,	r1	
     f6a:	55 ae 00 b4 	dadd.b	-19456(r14),r5	;0xb400(r14)
     f6e:	00 01       	bra	@r1		
     f70:	00 55       	add	r5,	r0	
     f72:	00 00       	bra	@r0		
     f74:	00 00       	bra	@r0		
     f76:	0c 01       	mova	@r1,	r12	
     f78:	0e 01       	mova	@r1,	r14	
     f7a:	02 00       	mova	@r0,	r2	
     f7c:	71 02 0e 01 	mova	r2,	270(r1)	;0x010e(r1)
     f80:	10 01       	reta			
     f82:	02 00       	mova	@r0,	r2	
     f84:	71 04 10 01 	mova	r4,	272(r1)	;0x0110(r1)
     f88:	12 01       	mova	@r1+,	r2	
     f8a:	02 00       	mova	@r0,	r2	
     f8c:	71 06 12 01 	mova	r6,	274(r1)	;0x0112(r1)
     f90:	14 01       	mova	@r1+,	r4	
     f92:	02 00       	mova	@r0,	r2	
     f94:	71 08 14 01 	mova	r8,	276(r1)	;0x0114(r1)
     f98:	16 01       	mova	@r1+,	r6	
     f9a:	02 00       	mova	@r0,	r2	
     f9c:	71 0a 16 01 	mova	r10,	278(r1)	;0x0116(r1)
     fa0:	18 01       	mova	@r1+,	r8	
     fa2:	02 00       	mova	@r0,	r2	
     fa4:	71 0c 18 01 	mova	r12,	280(r1)	;0x0118(r1)
     fa8:	1a 01       	mova	@r1+,	r10	
     faa:	02 00       	mova	@r0,	r2	
     fac:	71 0e 1a 01 	mova	r14,	282(r1)	;0x011a(r1)
     fb0:	1c 01       	mova	@r1+,	r12	
     fb2:	02 00       	mova	@r0,	r2	
     fb4:	71 10       	rrc.b	@r1+		
     fb6:	1c 01       	mova	@r1+,	r12	
     fb8:	20 01 02 00 	bra	&0x10002	
     fbc:	71 12       	push.b	@r1+		
     fbe:	20 01 76 04 	bra	&0x10476	
     fc2:	02 00       	mova	@r0,	r2	
     fc4:	71 34       	jge	$+228    	;abs 0x10a8
     fc6:	00 00       	bra	@r0		
     fc8:	00 00       	bra	@r0		
     fca:	0c 01       	mova	@r1,	r12	
     fcc:	3c 01 01 00 	mova	1(r1),	r12	;0x0001(r1)
     fd0:	5f 3c       	jmp	$+192    	;abs 0x1090
     fd2:	01 76       	subc	r6,	r1	
     fd4:	04 02       	mova	#4,	r4	;r2 As==10
     fd6:	00 91       	cmp	r1,	r0	
     fd8:	64 00 00 00 	mova	r0,	&0x40000
     fdc:	00 0c       	bra	@r12		
     fde:	01 3c       	jmp	$+4      	;abs 0xfe2
     fe0:	01 01       	mova	@r1,	r1	
     fe2:	00 5e       	add	r14,	r0	
     fe4:	3c 01 60 01 	mova	352(r1),r12	;0x0160(r1)
     fe8:	01 00       	mova	@r0,	r1	
     fea:	5f 60 01 76 	addc.b	0x7601,	r15	;PC rel. 0x085ef
     fee:	04 02       	mova	#4,	r4	;r2 As==10
     ff0:	00 91       	cmp	r1,	r0	
     ff2:	66 00 00 00 	mova	r0,	&0x60000
     ff6:	00 0c       	bra	@r12		
     ff8:	01 3c       	jmp	$+4      	;abs 0xffc
     ffa:	01 01       	mova	@r1,	r1	
     ffc:	00 5d       	add	r13,	r0	
     ffe:	3c 01 34 02 	mova	564(r1),r12	;0x0234(r1)
    1002:	02 00       	mova	@r0,	r2	
    1004:	91 5a 34 02 	add	564(r10),602(r1)	;0x0234(r10), 0x025a(r1)
    1008:	5a 02 
    100a:	01 00       	mova	@r0,	r1	
    100c:	5c 5a 02 a2 	add.b	-24062(r10),r12	;0xa202(r10)
    1010:	02 02       	mova	#4,	r2	;r2 As==10
    1012:	00 91       	cmp	r1,	r0	
    1014:	5a a2 02 b0 	dadd.b	&0xb002,r10	
    1018:	02 06       	mova	@r6,	r2	
    101a:	00 91       	cmp	r1,	r0	
    101c:	5a 06       	rlam	#2,	r10	
    101e:	23 02       	.word	0x0223;	????	Illegal as address instr
    1020:	9f b0 02 b6 	bit	0xb602,	514(r15);PC rel. 0xfc626, 0x0202(r15)
    1024:	02 02 
    1026:	00 91       	cmp	r1,	r0	
    1028:	5a b6 02 dc 	bit.b	-9214(r6),r10	;0xdc02(r6)
    102c:	02 01       	mova	@r1,	r2	
    102e:	00 5b       	add	r11,	r0	
    1030:	dc 02       	cmpa	r2,	r12	
    1032:	0a 03       	mova	#2,	r10	;r3 As==10
    1034:	06 00       	mova	@r0,	r6	
    1036:	91 5a 06 23 	add	8966(r10),-24830(r1);0x2306(r10), 0x9f02(r1)
    103a:	02 9f 
    103c:	0a 03       	mova	#2,	r10	;r3 As==10
    103e:	28 03 02 00 	mova	&0x30002,r8	
    1042:	91 5a 28 03 	add	808(r10),826(r1)	;0x0328(r10), 0x033a(r1)
    1046:	3a 03 
    1048:	06 00       	mova	@r0,	r6	
    104a:	91 5a 06 23 	add	8966(r10),-24828(r1);0x2306(r10), 0x9f04(r1)
    104e:	04 9f 
    1050:	3a 03 46 03 	mova	#1,	r10	;r3 As==01
    1054:	02 00       	mova	@r0,	r2	
    1056:	91 5a 46 03 	add	838(r10),856(r1)	;0x0346(r10), 0x0358(r1)
    105a:	58 03 
    105c:	01 00       	mova	@r0,	r1	
    105e:	5a 58 03 64 	add.b	25603(r8),r10	;0x6403(r8)
    1062:	03 01       	.word	0x0103;	????	Illegal as address instr
    1064:	00 5a       	add	r10,	r0	
    1066:	64 03 76 04 	mova	#0,	&0x40476;r3 As==00
    106a:	02 00       	mova	@r0,	r2	
    106c:	91 5a 00 00 	add	0(r10),	0(r1)	;0x0000(r10), 0x0000(r1)
    1070:	00 00 
    1072:	2c 01 3c 01 	mova	&0x1013c,r12	
    1076:	02 00       	mova	@r0,	r2	
    1078:	30 9f       	cmp	@r15+,	r0	
    107a:	3c 01 4e 04 	mova	1102(r1),r12	;0x044e(r1)
    107e:	02 00       	mova	@r0,	r2	
    1080:	91 5e 4e 04 	add	1102(r14),1142(r1);0x044e(r14), 0x0476(r1)
    1084:	76 04 
    1086:	02 00       	mova	@r0,	r2	
    1088:	91 5e 00 00 	add	0(r14),	0(r1)	;0x0000(r14), 0x0000(r1)
    108c:	00 00 
    108e:	2c 01 3c 01 	mova	&0x1013c,r12	
    1092:	02 00       	mova	@r0,	r2	
    1094:	30 9f       	cmp	@r15+,	r0	
    1096:	3c 01 4e 01 	mova	334(r1),r12	;0x014e(r1)
    109a:	01 00       	mova	@r0,	r1	
    109c:	5a 4e 01 56 	mov.b	22017(r14),r10	;0x5601(r14)
    10a0:	01 02       	mova	#4,	r1	;r2 As==10
    10a2:	00 31       	jn	$+514    	;abs 0x12a4
    10a4:	9f 56 01 66 	add	26113(r6),258(r15);0x6601(r6), 0x0102(r15)
    10a8:	02 01 
    10aa:	00 5a       	add	r10,	r0	
    10ac:	a2 02 d6 02 	adda	#0x202d6,r2	
    10b0:	01 00       	mova	@r0,	r1	
    10b2:	5a d6 02 dc 	bis.b	-9214(r6),r10	;0xdc02(r6)
    10b6:	02 02       	mova	#4,	r2	;r2 As==10
    10b8:	00 30       	jn	$+2      	;abs 0x10ba
    10ba:	9f dc 02 40 	bis	16386(r12),259(r15);0x4002(r12), 0x0103(r15)
    10be:	03 01 
    10c0:	00 5a       	add	r10,	r0	
    10c2:	36 04 38 04 	mova	1080(r4),r6	;0x0438(r4)
    10c6:	02 00       	mova	@r0,	r2	
    10c8:	30 9f       	cmp	@r15+,	r0	
    10ca:	38 04 44 04 	mova	1092(r4),r8	;0x0444(r4)
    10ce:	01 00       	mova	@r0,	r1	
    10d0:	5a 44 04 48 	mov.b	18436(r4),r10	;0x4804(r4)
    10d4:	04 02       	mova	#4,	r4	;r2 As==10
    10d6:	00 30       	jn	$+2      	;abs 0x10d8
    10d8:	9f 4a 04 4e 	mov	19972(r10),260(r15);0x4e04(r10), 0x0104(r15)
    10dc:	04 01 
    10de:	00 5a       	add	r10,	r0	
    10e0:	4e 04       	rrcm.a	#2,	r14	
    10e2:	72 04 01 00 	mova	r4,	&0x0001	
    10e6:	5a 00       	rrcm	#1,	r10	
    10e8:	00 00       	bra	@r0		
    10ea:	00 2c       	jc	$+2      	;abs 0x10ec
    10ec:	01 3c       	jmp	$+4      	;abs 0x10f0
    10ee:	01 02       	mova	#4,	r1	;r2 As==10
    10f0:	00 30       	jn	$+2      	;abs 0x10f2
    10f2:	9f 3c       	jmp	$+320    	;abs 0x1232
    10f4:	01 4a       	mov	r10,	r1	
    10f6:	01 02       	mova	#4,	r1	;r2 As==10
    10f8:	00 91       	cmp	r1,	r0	
    10fa:	5c 4a 01 56 	mov.b	22017(r10),r12	;0x5601(r10)
    10fe:	01 02       	mova	#4,	r1	;r2 As==10
    1100:	00 30       	jn	$+2      	;abs 0x1102
    1102:	9f 56 01 42 	add	16897(r6),514(r15);0x4201(r6), 0x0202(r15)
    1106:	02 02 
    1108:	00 91       	cmp	r1,	r0	
    110a:	5c 42 02 44 	mov.b	&0x4402,r12	
    110e:	02 03       	mova	#2,	r2	;r3 As==10
    1110:	00 91       	cmp	r1,	r0	
    1112:	5a 06       	rlam	#2,	r10	
    1114:	44 02       	rlam.a	#1,	r4	
    1116:	92 02 02 00 	cmpa	#0x20002,r2	
    111a:	91 5c 92 02 	add	658(r12),672(r1)	;0x0292(r12), 0x02a0(r1)
    111e:	a0 02 
    1120:	01 00       	mova	@r0,	r1	
    1122:	5b a0 02 48 	dadd.b	0x4802,	r11	;PC rel. 0x05928
    1126:	04 02       	mova	#4,	r4	;r2 As==10
    1128:	00 91       	cmp	r1,	r0	
    112a:	5c 4a 04 4e 	mov.b	19972(r10),r12	;0x4e04(r10)
    112e:	04 02       	mova	#4,	r4	;r2 As==10
    1130:	00 91       	cmp	r1,	r0	
    1132:	5c 4e 04 76 	mov.b	30212(r14),r12	;0x7604(r14)
    1136:	04 02       	mova	#4,	r4	;r2 As==10
    1138:	00 91       	cmp	r1,	r0	
    113a:	5c 00       	rrcm	#1,	r12	
    113c:	00 00       	bra	@r0		
    113e:	00 bc       	bit	r12,	r0	
    1140:	02 d1       	bis	r1,	r2	
    1142:	02 03       	mova	#2,	r2	;r3 As==10
    1144:	00 91       	cmp	r1,	r0	
    1146:	5a 06       	rlam	#2,	r10	
    1148:	9a 03 9e 03 	cmpa	#0x3039e,r10	
    114c:	03 00       	.word	0x0003;	????	Illegal as address instr
    114e:	91 59 9f 9e 	add	-24929(r9),-17405(r1);0x9e9f(r9), 0xbc03(r1)
    1152:	03 bc 
    1154:	03 03       	.word	0x0303;	????	Illegal as address instr
    1156:	00 91       	cmp	r1,	r0	
    1158:	58 9f c4 03 	cmp.b	964(r15),r8	;0x03c4(r15)
    115c:	d6 03       	tsta	r6		
    115e:	01 00       	mova	@r0,	r1	
    1160:	5f d6 03 e2 	bis.b	-7677(r6),r15	;0xe203(r6)
    1164:	03 02       	.word	0x0203;	????	Illegal as address instr
    1166:	00 91       	cmp	r1,	r0	
    1168:	6c e2       	xor.b	#4,	r12	;r2 As==10
    116a:	03 e4       	.word	0xe403;	????	Illegal as 2-op instr
    116c:	03 01       	.word	0x0103;	????	Illegal as address instr
    116e:	00 57       	add	r7,	r0	
    1170:	e4 03       	incda	r4		
    1172:	fa 03       	decda	r10		
    1174:	02 00       	mova	@r0,	r2	
    1176:	91 6c 00 00 	addc	0(r12),	0(r1)	;0x0000(r12), 0x0000(r1)
    117a:	00 00 
    117c:	3c 01 3a 02 	mova	570(r1),r12	;0x023a(r1)
    1180:	01 00       	mova	@r0,	r1	
    1182:	5e 3a       	jl	$-834    	;abs 0xe40
    1184:	02 a8       	dadd	r8,	r2	
    1186:	02 03       	mova	#2,	r2	;r3 As==10
    1188:	00 91       	cmp	r1,	r0	
    118a:	66 06 a8 02 	mova	r6,	&0x602a8
    118e:	b0 02 03 00 	suba	#0x20003,r0	
    1192:	91 5a 06 b0 	add	-20474(r10),-12030(r1);0xb006(r10), 0xd102(r1)
    1196:	02 d1 
    1198:	02 03       	mova	#2,	r2	;r3 As==10
    119a:	00 91       	cmp	r1,	r0	
    119c:	66 06 dc 02 	mova	r6,	&0x602dc
    11a0:	bc 03 01 00 	suba	#0x30001,r12	
    11a4:	5e bc 03 31 	bit.b	12547(r12),r14	;0x3103(r12)
    11a8:	04 03       	mova	#2,	r4	;r3 As==10
    11aa:	00 91       	cmp	r1,	r0	
    11ac:	66 06 38 04 	mova	r6,	&0x60438
    11b0:	3a 04 01 00 	mova	1(r4),	r10	;0x0001(r4)
    11b4:	5e 48 04 4a 	mov.b	18948(r8),r14	;0x4a04(r8)
    11b8:	04 03       	mova	#2,	r4	;r3 As==10
    11ba:	00 91       	cmp	r1,	r0	
    11bc:	66 06 54 04 	mova	r6,	&0x60454
    11c0:	76 04 03 00 	mova	r4,	3(r6)	;0x0003(r6)
    11c4:	91 66 06 00 	addc	6(r6),	0(r1)	;0x0006(r6), 0x0000(r1)
    11c8:	00 00 
    11ca:	00 00       	bra	@r0		
    11cc:	03 0a       	.word	0x0a03;	????	Illegal as address instr
    11ce:	03 02       	.word	0x0203;	????	Illegal as address instr
    11d0:	00 40       	br	r0		
    11d2:	9f 20       	jnz	$+320    	;abs 0x1312
    11d4:	03 6a       	.word	0x6a03;	????	Illegal as 2-op instr
    11d6:	03 01       	.word	0x0103;	????	Illegal as address instr
    11d8:	00 54       	add	r4,	r0	
    11da:	00 00       	bra	@r0		
    11dc:	00 00       	bra	@r0		
    11de:	f4 02       	suba	r2,	r4	
    11e0:	00 03       	bra	#2		;r3 As==10
    11e2:	02 00       	mova	@r0,	r2	
    11e4:	91 60 00 03 	addc	0x0300,	778(r1)	;PC rel. 0x014e8, 0x030a(r1)
    11e8:	0a 03 
    11ea:	06 00       	mova	@r0,	r6	
    11ec:	55 93       	cmp.b	#1,	r5	;r3 As==01
    11ee:	02 56       	add	r6,	r2	
    11f0:	93 02       	.word	0x0293;	????	Illegal as address instr
    11f2:	32 03 3a 03 	mova	#1,	r2	;r3 As==01
    11f6:	03 00       	.word	0x0003;	????	Illegal as address instr
    11f8:	91 5a 06 56 	add	22022(r10),22531(r1);0x5606(r10), 0x5803(r1)
    11fc:	03 58 
    11fe:	03 06       	.word	0x0603;	????	Illegal as address instr
    1200:	00 55       	add	r5,	r0	
    1202:	93 02       	.word	0x0293;	????	Illegal as address instr
    1204:	56 93       	cmp.b	#1,	r6	;r3 As==01
    1206:	02 60       	addc	r0,	r2	
    1208:	03 96       	.word	0x9603;	????	Illegal as 2-op instr
    120a:	03 06       	.word	0x0603;	????	Illegal as address instr
    120c:	00 55       	add	r5,	r0	
    120e:	93 02       	.word	0x0293;	????	Illegal as address instr
    1210:	56 93       	cmp.b	#1,	r6	;r3 As==01
    1212:	02 9a       	cmp	r10,	r2	
    1214:	03 0c       	.word	0x0c03;	????	Illegal as address instr
    1216:	04 06       	mova	@r6,	r4	
    1218:	00 55       	add	r5,	r0	
    121a:	93 02       	.word	0x0293;	????	Illegal as address instr
    121c:	56 93       	cmp.b	#1,	r6	;r3 As==01
    121e:	02 0c       	mova	@r12,	r2	
    1220:	04 22       	jnz	$-1014   	;abs 0xe2a
    1222:	04 06       	mova	@r6,	r4	
    1224:	00 5c       	add	r12,	r0	
    1226:	93 02       	.word	0x0293;	????	Illegal as address instr
    1228:	5d 93       	cmp.b	#1,	r13	;r3 As==01
    122a:	02 22       	jnz	$-1018   	;abs 0xe30
    122c:	04 38       	jl	$+10     	;abs 0x1236
    122e:	04 06       	mova	@r6,	r4	
    1230:	00 55       	add	r5,	r0	
    1232:	93 02       	.word	0x0293;	????	Illegal as address instr
    1234:	56 93       	cmp.b	#1,	r6	;r3 As==01
    1236:	02 00       	mova	@r0,	r2	
    1238:	00 00       	bra	@r0		
    123a:	00 3a       	jl	$-1022   	;abs 0xe3c
    123c:	02 5a       	add	r10,	r2	
    123e:	02 03       	mova	#2,	r2	;r3 As==10
    1240:	00 91       	cmp	r1,	r0	
    1242:	5a 06       	rlam	#2,	r10	
    1244:	00 00       	bra	@r0		
    1246:	00 00       	bra	@r0		
    1248:	d2 03       	tsta	r2		
    124a:	de 03       	tsta	r14		
    124c:	01 00       	mova	@r0,	r1	
    124e:	5e e4 03 fa 	xor.b	-1533(r4),r14	;0xfa03(r4)
    1252:	03 01       	.word	0x0103;	????	Illegal as address instr
    1254:	00 5e       	add	r14,	r0	
    1256:	00 00       	bra	@r0		
	...

Disassembly of section .debug_pubtypes:

00000000 <.debug_pubtypes>:
   0:	34 00 00 00 	mova	0x0000,	r4	;PC rel. 0x00002
   4:	02 00       	mova	@r0,	r2	
   6:	00 00       	bra	@r0		
   8:	00 00       	bra	@r0		
   a:	86 06 00 00 	mova	#0x60000,r6	
   e:	a4 00 00 00 	adda	#0x00000,r4	
  12:	69 6e       	addc.b	@r14,	r9	
  14:	74 31       	jn	$+746    	;abs 0x2fe
  16:	36 00 dc 00 	mova	0x00dc,	r6	;PC rel. 0x000f4
  1a:	00 00       	bra	@r0		
  1c:	53 4d       	.word	0x4d53;	????	Illegal as 2-op instr
  1e:	5f 54 45 53 	add.b	21317(r4),r15	;0x5345(r4)
  22:	54 00       	rrcm	#1,	r4	
  24:	2a 01 00 00 	mova	&0x10000,r10	
  28:	54 45 53 54 	mov.b	21587(r5),r4	;0x5453(r5)
  2c:	5f 52 45 53 	add.b	&0x5345,r15	
  30:	55 4c 54 00 	mov.b	84(r12),r5	;0x0054(r12)
  34:	00 00       	bra	@r0		
  36:	00 00       	bra	@r0		
  38:	0e 00       	mova	@r0,	r14	
  3a:	00 00       	bra	@r0		
  3c:	02 00       	mova	@r0,	r2	
  3e:	86 06 00 00 	mova	#0x60000,r6	
  42:	b7 07 00 00 	suba	#0x70000,r7	
  46:	00 00       	bra	@r0		
  48:	00 00       	bra	@r0		
  4a:	1e 00       	mova	#0x00000,r14	
  4c:	00 00       	bra	@r0		
  4e:	02 00       	mova	@r0,	r2	
  50:	3d 0e 00 00 	mova	0(r14),	r13	;0x0000(r14)
  54:	fa 01       	suba	r1,	r10	
  56:	00 00       	bra	@r0		
  58:	5a 00       	rrcm	#1,	r10	
  5a:	00 00       	bra	@r0		
  5c:	44 45       	mov.b	r5,	r4	
  5e:	4c 41       	mov.b	r1,	r12	
  60:	59 5f 49 4e 	add.b	20041(r15),r9	;0x4e49(r15)
  64:	44 45       	mov.b	r5,	r4	
  66:	58 00       	rrcm	#1,	r8	
  68:	00 00       	bra	@r0		
  6a:	00 00       	bra	@r0		
  6c:	18 00       	mova	#0x00000,r8	
  6e:	00 00       	bra	@r0		
  70:	02 00       	mova	@r0,	r2	
  72:	37 10       	rrc	@r7+		
  74:	00 00       	bra	@r0		
  76:	15 02       	mova	#8,	r5	;r2 As==11
  78:	00 00       	bra	@r0		
  7a:	2f 00 00 00 	mova	&0x00000,r15	
  7e:	69 6e       	addc.b	@r14,	r9	
  80:	74 31       	jn	$+746    	;abs 0x36a
  82:	36 00 00 00 	mova	0x0000,	r6	;PC rel. 0x00084
  86:	00 00       	bra	@r0		
  88:	2d 00 00 00 	mova	&0x00000,r13	
  8c:	02 00       	mova	@r0,	r2	
  8e:	4c 12       	push.b	r12		
  90:	00 00       	bra	@r0		
  92:	03 01       	.word	0x0103;	????	Illegal as address instr
  94:	00 00       	bra	@r0		
  96:	72 00 00 00 	mova	r0,	&0x0000	
  9a:	5f 5f 67 6e 	add.b	28263(r15),r15	;0x6e67(r15)
  9e:	75 63       	addc.b	#-1,	r5	;r3 As==11
  a0:	5f 76 61 5f 	subc.b	24417(r6),r15	;0x5f61(r6)
  a4:	6c 69       	addc.b	@r9,	r12	
  a6:	73 74       	.word	0x7473;	????	Illegal as 2-op instr
  a8:	00 83       	sub	#0,	r0	;r3 As==00
  aa:	00 00       	bra	@r0		
  ac:	00 76       	subc	r6,	r0	
  ae:	61 5f       	add.b	@r15,	r1	
  b0:	6c 69       	addc.b	@r9,	r12	
  b2:	73 74       	.word	0x7473;	????	Illegal as 2-op instr
  b4:	00 00       	bra	@r0		
  b6:	00 00       	bra	@r0		
  b8:	00 52       	add	r2,	r0	
  ba:	00 00       	bra	@r0		
  bc:	00 02       	bra	#4		;r2 As==10
  be:	00 4f       	br	r15		
  c0:	13 00       	.word	0x0013;	????	Illegal as address instr
  c2:	00 b5       	bit	r5,	r0	
  c4:	03 00       	.word	0x0003;	????	Illegal as address instr
  c6:	00 3d       	jmp	$+514    	;abs 0x2c8
  c8:	00 00       	bra	@r0		
  ca:	00 69       	addc	r9,	r0	
  cc:	6e 74       	subc.b	@r4,	r14	
  ce:	31 36       	jge	$-924    	;abs 0xfd32
  d0:	5f 74 00 64 	subc.b	25600(r4),r15	;0x6400(r4)
  d4:	00 00       	bra	@r0		
  d6:	00 69       	addc	r9,	r0	
  d8:	6e 74       	subc.b	@r4,	r14	
  da:	70 74       	subc.b	@r4+,	r0	
  dc:	72 5f       	add.b	@r15+,	r2	
  de:	74 00 8e 00 	mova	r0,	142(r4)	;0x008e(r4)
  e2:	00 00       	bra	@r0		
  e4:	5f 5f 67 6e 	add.b	28263(r15),r15	;0x6e67(r15)
  e8:	75 63       	addc.b	#-1,	r5	;r3 As==11
  ea:	5f 76 61 5f 	subc.b	24417(r6),r15	;0x5f61(r6)
  ee:	6c 69       	addc.b	@r9,	r12	
  f0:	73 74       	.word	0x7473;	????	Illegal as 2-op instr
  f2:	00 9f       	cmp	r15,	r0	
  f4:	00 00       	bra	@r0		
  f6:	00 76       	subc	r6,	r0	
  f8:	61 5f       	add.b	@r15,	r1	
  fa:	6c 69       	addc.b	@r9,	r12	
  fc:	73 74       	.word	0x7473;	????	Illegal as 2-op instr
  fe:	00 38       	jl	$+2      	;abs 0x100
 100:	01 00       	mova	@r0,	r1	
 102:	00 66       	addc	r6,	r0	
 104:	6c 61       	addc.b	@r1,	r12	
 106:	67 73       	subc.b	#2,	r7	;r3 As==10
 108:	5f 74 00 00 	subc.b	0(r4),	r15	;0x0000(r4)
 10c:	00 00       	bra	@r0		
	...

Disassembly of section .debug_ranges:

00000000 <.debug_ranges>:
   0:	fe 33       	jn	$-2      	;abs 0xfffe
   2:	06 37       	jge	$-498    	;abs 0xfe10
   4:	38 31       	jn	$+626    	;abs 0x276
   6:	f4 33       	jn	$-22     	;abs 0xfff0
   8:	00 00       	bra	@r0		
   a:	00 00       	bra	@r0		
   c:	28 07 3c 07 	mova	&0x7073c,r8	
  10:	62 07 68 07 	mova	r7,	&0x20768
  14:	00 00       	bra	@r0		
  16:	00 00       	bra	@r0		
  18:	9a 07 e8 07 	cmpa	#0x707e8,r10	
  1c:	fa 07       	suba	r7,	r10	
  1e:	02 08       	mova	@r8,	r2	
  20:	f4 07       	suba	r7,	r4	
  22:	f8 07       	suba	r7,	r8	
  24:	00 00       	bra	@r0		
  26:	00 00       	bra	@r0		
  28:	14 08       	mova	@r8+,	r4	
  2a:	2a 08 42 08 	mova	&0x80842,r10	
  2e:	46 08       	rrcm.a	#3,	r6	
  30:	00 00       	bra	@r0		
  32:	00 00       	bra	@r0		
  34:	5e 00       	rrcm	#1,	r14	
  36:	b4 00 b8 00 	suba	#0x000b8,r4	
  3a:	bc 00 00 00 	suba	#0x00000,r12	
	...
