
lcd6100.o:     file format elf32-msp430

Disassembly of section .text:

00000000 <asciitable>:
   0:	00 00       	bra	@r0		
   2:	00 00       	bra	@r0		
   4:	00 3e       	jmp	$-1022   	;abs 0xfc06
   6:	0a 34       	jge	$+22     	;abs 0x1c
   8:	00 3e       	jmp	$-1022   	;abs 0xfc0a
   a:	18 3e       	jmp	$-974    	;abs 0xfc3c
   c:	00 3e       	jmp	$-1022   	;abs 0xfc0e
   e:	22 00 3e 20 	mova	&0x0203e,r2	
  12:	20 00 22 1c 	bra	&0x01c22	
  16:	00 24       	jz	$+2      	;abs 0x18
  18:	2a 00 08 38 	mova	&0x03808,r10	
  1c:	38 08 1c 22 	mova	8732(r8),r8	;0x221c(r8)
  20:	22 22       	jnz	$-954    	;abs 0xfc66
  22:	1c 00       	mova	#0x00000,r12	
  24:	38 38       	jl	$+114    	;abs 0x96
  26:	44 82       	sub.b	r2,	r4	
  28:	1c 3e       	jmp	$-966    	;abs 0xfc62
  2a:	62 62       	addc.b	#4,	r2	;r2 As==10
  2c:	32 2e       	jc	$-922    	;abs 0xfc92
  2e:	26 23       	jnz	$-434    	;abs 0xfe7c
  30:	23 22       	jnz	$-952    	;abs 0xfc78
  32:	00 00       	bra	@r0		
  34:	00 00       	bra	@r0		
  36:	00 1c       	.word	0x1c00;	????	
  38:	3e 36       	jge	$-898    	;abs 0xfcb6
  3a:	22 36       	jge	$-954    	;abs 0xfc80
  3c:	3e 3e       	jmp	$-898    	;abs 0xfcba
  3e:	36 36       	jge	$-914    	;abs 0xfcac
  40:	36 00 00 00 	mova	0x0000,	r6	;PC rel. 0x00042
  44:	00 00       	bra	@r0		
  46:	18 08       	mova	@r8+,	r8	
  48:	1c 22       	jnz	$-966    	;abs 0xfc82
  4a:	22 63       	addc	#2,	r2	;r3 As==10
  4c:	55 4d 55 6b 	mov.b	27477(r13),r5	;0x6b55(r13)
  50:	00 3e       	jmp	$-1022   	;abs 0xfc52
  52:	0a 04       	mova	@r4,	r10	
  54:	78 00 3e 0a 	mova	r0,	2622(r8);0x0a3e(r8)
  58:	04 78       	subc	r8,	r4	
  5a:	00 38       	jl	$+2      	;abs 0x5c
  5c:	44 5f       	add.b	r15,	r4	
  5e:	4e 00       	rrcm.a	#1,	r14	
  60:	38 44       	mov	@r4+,	r8	
  62:	44 5f       	add.b	r15,	r4	
  64:	00 3c       	jmp	$+2      	;abs 0x66
  66:	3c 3c       	jmp	$+122    	;abs 0xe0
  68:	3c 00 3e 0a 	mova	0x0a3e,	r12	;PC rel. 0x00aa8
  6c:	04 78       	subc	r8,	r4	
  6e:	00 3e       	jmp	$-1022   	;abs 0xfc70
  70:	0a 04       	mova	@r4,	r10	
  72:	78 44       	mov.b	@r4+,	r8	
  74:	40 38       	jl	$+130    	;abs 0xf6
  76:	00 04       	bra	@r4		
  78:	00 7f       	subc	r15,	r0	
  7a:	3e 1c       	.word	0x1c3e;	????	
  7c:	08 08       	mova	@r8,	r8	
  7e:	08 2a       	jnc	$-1006   	;abs 0xfc90
  80:	1c 08       	mova	@r8+,	r12	
  82:	08 1c       	.word	0x1c08;	????	
  84:	2a 08 08 08 	mova	&0x80808,r10	
  88:	08 2a       	jnc	$-1006   	;abs 0xfc9a
  8a:	08 08       	mova	@r8,	r8	
  8c:	00 3c       	jmp	$+2      	;abs 0x8e
  8e:	20 00 00 08 	bra	&0x00800	
  92:	14 00       	mova	#0x00000,r4	
  94:	14 08       	mova	@r8+,	r4	
  96:	08 0c       	mova	@r12,	r8	
  98:	0e 0c       	mova	@r12,	r14	
  9a:	08 08       	mova	@r8,	r8	
  9c:	18 38       	jl	$+50     	;abs 0xce
  9e:	18 08       	mova	@r8+,	r8	
  a0:	00 00       	bra	@r0		
  a2:	00 00       	bra	@r0		
  a4:	00 00       	bra	@r0		
  a6:	00 5f       	add	r15,	r0	
  a8:	00 00       	bra	@r0		
  aa:	00 07       	bra	@r7		
  ac:	00 07       	bra	@r7		
  ae:	00 14       	pushm.a	#1,	r0	
  b0:	7f 14       	pushm.a	#8,	r15	
  b2:	7f 14       	pushm.a	#8,	r15	
  b4:	24 2a       	jnc	$-950    	;abs 0xfcfe
  b6:	7f 2a       	jnc	$-768    	;abs 0xfdb6
  b8:	12 23       	jnz	$-474    	;abs 0xfede
  ba:	13 08       	.word	0x0813;	????	Illegal as address instr
  bc:	64 62       	addc.b	#4,	r4	;r2 As==10
  be:	36 49       	mov	@r9+,	r6	
  c0:	55 22       	jnz	$-852    	;abs 0xfd6c
  c2:	50 00       	rrcm	#1,	r0	
  c4:	05 03       	mova	#2,	r5	;r3 As==10
  c6:	00 00       	bra	@r0		
  c8:	00 1c 22 41 	movx	@r1,	r2	
  cc:	00 00       	bra	@r0		
  ce:	41 22       	jnz	$-892    	;abs 0xfd52
  d0:	1c 00       	mova	#0x00000,r12	
  d2:	14 08       	mova	@r8+,	r4	
  d4:	3e 08 14 08 	mova	2068(r8),r14	;0x0814(r8)
  d8:	08 3e       	jmp	$-1006   	;abs 0xfcea
  da:	08 08       	mova	@r8,	r8	
  dc:	00 50       	rla	r0		
  de:	30 00 00 08 	bra	0x0800		;PC rel. 0x008e0
  e2:	08 08       	mova	@r8,	r8	
  e4:	08 08       	mova	@r8,	r8	
  e6:	00 60       	rlc	r0		
  e8:	60 00 00 20 	mova	r0,	&0x02000
  ec:	10 08       	bra	@r8+		
  ee:	04 02       	mova	#4,	r4	;r2 As==10
  f0:	3e 51       	add	@r1+,	r14	
  f2:	49 45       	mov.b	r5,	r9	
  f4:	3e 00 42 7f 	mova	0x7f42,	r14	;PC rel. 0x08038
  f8:	40 00       	rrcm.a	#1,	r0	
  fa:	42 61       	addc.b	r1,	r2	
  fc:	51 49 46 21 	mov.b	8518(r9),r1	;0x2146(r9)
 100:	41 45       	mov.b	r5,	r1	
 102:	4b 31       	jn	$+664    	;abs 0x39a
 104:	18 14       	pushm.a	#2,	r8	
 106:	12 7f 10 27 	subc	10000(r15),r2	;0x2710(r15)
 10a:	45 45       	mov.b	r5,	r5	
 10c:	45 39       	jl	$+652    	;abs 0x398
 10e:	3c 4a       	mov	@r10+,	r12	
 110:	49 49       	mov.b	r9,	r9	
 112:	30 01 71 09 	bra	2417(r1)	;0x0971(r1)
 116:	05 03       	mova	#2,	r5	;r3 As==10
 118:	36 49       	mov	@r9+,	r6	
 11a:	49 49       	mov.b	r9,	r9	
 11c:	36 06 49 49 	mova	18761(r6),r6	;0x4949(r6)
 120:	29 1e       	.word	0x1e29;	????	
 122:	00 36       	jge	$-1022   	;abs 0xfd24
 124:	36 00 00 00 	mova	0x0000,	r6	;PC rel. 0x00126
 128:	56 36       	jge	$-850    	;abs 0xfdd6
 12a:	00 00       	bra	@r0		
 12c:	08 14       	pushm.a	#1,	r8	
 12e:	22 41       	mov	@r1,	r2	
 130:	00 14       	pushm.a	#1,	r0	
 132:	14 14       	pushm.a	#2,	r4	
 134:	14 14       	pushm.a	#2,	r4	
 136:	00 41       	br	r1		
 138:	22 14       	pushm.a	#3,	r2	
 13a:	08 02       	mova	#4,	r8	;r2 As==10
 13c:	01 51       	rla	r1		
 13e:	09 06       	mova	@r6,	r9	
 140:	32 49       	mov	@r9+,	r2	
 142:	79 41       	pop.b	r9		
 144:	3e 7e       	subc	@r14+,	r14	
 146:	11 11 11 7e 	rra	32273(r1)	;0x7e11(r1)
 14a:	7f 49       	mov.b	@r9+,	r15	
 14c:	49 49       	mov.b	r9,	r9	
 14e:	36 3e       	jmp	$-914    	;abs 0xfdbc
 150:	41 41       	mov.b	r1,	r1	
 152:	41 22       	jnz	$-892    	;abs 0xfdd6
 154:	7f 41       	pop.b	r15		
 156:	41 22       	jnz	$-892    	;abs 0xfdda
 158:	1c 7f 49 49 	subc	18761(r15),r12	;0x4949(r15)
 15c:	49 41       	mov.b	r1,	r9	
 15e:	7f 09 09 09 	mova	r9,	2313(r15);0x0909(r15)
 162:	01 3e       	jmp	$-1020   	;abs 0xfd66
 164:	41 49       	mov.b	r9,	r1	
 166:	49 7a       	subc.b	r10,	r9	
 168:	7f 08 08 08 	mova	r8,	2056(r15);0x0808(r15)
 16c:	7f 00 41 7f 	mova	r0,	32577(r15);0x7f41(r15)
 170:	41 00       	rrcm.a	#1,	r1	
 172:	20 40       	br	@r0		
 174:	41 3f       	jmp	$-380    	;abs 0xfff8
 176:	01 7f       	subc	r15,	r1	
 178:	08 14       	pushm.a	#1,	r8	
 17a:	22 41       	mov	@r1,	r2	
 17c:	7f 40 40 40 	mov.b	#16448,	r15	;#0x4040
 180:	40 7f       	subc.b	r15,	r0	
 182:	02 0c       	mova	@r12,	r2	
 184:	02 7f       	subc	r15,	r2	
 186:	7f 04 08 10 	mova	r4,	4104(r15);0x1008(r15)
 18a:	7f 3e       	jmp	$-768    	;abs 0xfe8a
 18c:	41 41       	mov.b	r1,	r1	
 18e:	41 3e       	jmp	$-892    	;abs 0xfe12
 190:	7f 09 09 09 	mova	r9,	2313(r15);0x0909(r15)
 194:	06 3e       	jmp	$-1010   	;abs 0xfda2
 196:	41 51       	rla.b	r1		
 198:	21 5e       	add	@r14,	r1	
 19a:	7f 09 19 29 	mova	r9,	10521(r15);0x2919(r15)
 19e:	46 46       	mov.b	r6,	r6	
 1a0:	49 49       	mov.b	r9,	r9	
 1a2:	49 31       	jn	$+660    	;abs 0x436
 1a4:	01 01       	mova	@r1,	r1	
 1a6:	7f 01 01 3f 	mova	r1,	16129(r15);0x3f01(r15)
 1aa:	40 40       	br	r0		
 1ac:	40 3f       	jmp	$-382    	;abs 0x2e
 1ae:	1f 20       	jnz	$+64     	;abs 0x1ee
 1b0:	40 20       	jnz	$+130    	;abs 0x232
 1b2:	1f 3f       	jmp	$-448    	;abs 0xfff2
 1b4:	40 38       	jl	$+130    	;abs 0x236
 1b6:	40 3f       	jmp	$-382    	;abs 0x38
 1b8:	63 14       	pushm.a	#7,	#0	;r3 As==00
 1ba:	08 14       	pushm.a	#1,	r8	
 1bc:	63 07 08 70 	mova	r7,	&0x37008
 1c0:	08 07       	mova	@r7,	r8	
 1c2:	61 51       	add.b	@r1,	r1	
 1c4:	49 45       	mov.b	r5,	r9	
 1c6:	43 00       	rrcm.a	#1,	#0	;r3 As==00
 1c8:	7f 41       	pop.b	r15		
 1ca:	41 00       	rrcm.a	#1,	r1	
 1cc:	02 04       	mova	@r4,	r2	
 1ce:	08 10       	rrc	r8		
 1d0:	20 00 41 41 	bra	&0x04141	
 1d4:	7f 00 04 02 	mova	r0,	516(r15);0x0204(r15)
 1d8:	01 02       	mova	#4,	r1	;r2 As==10
 1da:	04 40       	mov	r0,	r4	
 1dc:	40 40       	br	r0		
 1de:	40 40       	br	r0		
 1e0:	00 01       	bra	@r1		
 1e2:	02 04       	mova	@r4,	r2	
 1e4:	00 20       	jnz	$+2      	;abs 0x1e6
 1e6:	54 54 54 78 	add.b	30804(r4),r4	;0x7854(r4)
 1ea:	7f 48       	mov.b	@r8+,	r15	
 1ec:	44 44       	mov.b	r4,	r4	
 1ee:	38 38       	jl	$+114    	;abs 0x260
 1f0:	44 44       	mov.b	r4,	r4	
 1f2:	44 20       	jnz	$+138    	;abs 0x27c
 1f4:	38 44       	mov	@r4+,	r8	
 1f6:	44 48       	mov.b	r8,	r4	
 1f8:	7f 38       	jl	$+256    	;abs 0x2f8
 1fa:	54 54 54 18 	add.b	6228(r4),r4	;0x1854(r4)
 1fe:	08 7e       	subc	r14,	r8	
 200:	09 01       	mova	@r1,	r9	
 202:	02 0c       	mova	@r12,	r2	
 204:	52 52 52 3e 	add.b	&0x3e52,r2	
 208:	7f 08 04 04 	mova	r8,	1028(r15);0x0404(r15)
 20c:	78 00 44 7d 	mova	r0,	32068(r8);0x7d44(r8)
 210:	40 00       	rrcm.a	#1,	r0	
 212:	20 40       	br	@r0		
 214:	44 3d       	jmp	$+650    	;abs 0x49e
 216:	00 7f       	subc	r15,	r0	
 218:	10 28       	jnc	$+34     	;abs 0x23a
 21a:	44 00       	rrcm.a	#1,	r4	
 21c:	00 41       	br	r1		
 21e:	7f 40 00 7c 	mov.b	#31744,	r15	;#0x7c00
 222:	04 18 04 78 	.rpt	#4
				subcx	r8,	r4	
 226:	7c 08 04 04 	mova	r8,	1028(r12);0x0404(r12)
 22a:	78 38       	jl	$+242    	;abs 0x31c
 22c:	44 44       	mov.b	r4,	r4	
 22e:	44 38       	jl	$+138    	;abs 0x2b8
 230:	7c 14       	pushm.a	#8,	r12	
 232:	14 14       	pushm.a	#2,	r4	
 234:	08 08       	mova	@r8,	r8	
 236:	14 14       	pushm.a	#2,	r4	
 238:	18 7c 7c 08 	subc	2172(r12),r8	;0x087c(r12)
 23c:	04 04       	mova	@r4,	r4	
 23e:	08 48       	mov	r8,	r8	
 240:	54 54 54 20 	add.b	8276(r4),r4	;0x2054(r4)
 244:	04 3f       	jmp	$-502    	;abs 0x4e
 246:	44 40       	mov.b	r0,	r4	
 248:	20 3c       	jmp	$+66     	;abs 0x28a
 24a:	40 40       	br	r0		
 24c:	20 7c       	subc	@r12,	r0	
 24e:	1c 20       	jnz	$+58     	;abs 0x288
 250:	40 20       	jnz	$+130    	;abs 0x2d2
 252:	1c 3c       	jmp	$+58     	;abs 0x28c
 254:	40 30       	jn	$+130    	;abs 0x2d6
 256:	40 3c       	jmp	$+130    	;abs 0x2d8
 258:	44 28       	jnc	$+138    	;abs 0x2e2
 25a:	10 28       	jnc	$+34     	;abs 0x27c
 25c:	44 0c       	rrcm.a	#4,	r4	
 25e:	50 50 50 3c 	add.b	0x3c50,	r0	;PC rel. 0x03eb2
 262:	44 64       	rlc.b	r4		
 264:	54 4c 44 00 	mov.b	68(r12),r4	;0x0044(r12)
 268:	00 36       	jge	$-1022   	;abs 0xfe6a
 26a:	41 00       	rrcm.a	#1,	r1	
 26c:	00 00       	bra	@r0		
 26e:	7f 00 00 00 	mova	r0,	0(r15)	;0x0000(r15)
 272:	41 36       	jge	$-892    	;abs 0xfef6
 274:	08 00       	mova	@r0,	r8	
 276:	10 08       	bra	@r8+		
 278:	08 10       	rrc	r8		
 27a:	08 78       	subc	r8,	r8	
 27c:	46 41       	mov.b	r1,	r6	
 27e:	46 78       	subc.b	r8,	r6	

00000280 <putchar>:
                         

// printf para LCDNOKIA
int putchar(int c)
{
    lcd_putchar(c);
 280:	b0 12 00 00 	call	#0x0000	
    return 0;
}
 284:	0f 43       	clr	r15		
 286:	30 41       	ret			

00000288 <lcd_setcolor>:
                         
void lcd_setcolor(unsigned char foreground_color, unsigned char background_color)
{
 288:	4d 4f       	mov.b	r15,	r13	
    color_back = background_color;
 28a:	c2 4e 00 00 	mov.b	r14,	&0x0000	
    color_fore = foreground_color;
 28e:	c2 4d 00 00 	mov.b	r13,	&0x0000	
}
 292:	30 41       	ret			

00000294 <n6100_send>:
    cmd = 1 writedata without stop
    cmd = 2 writecommand with stop
    cmd = 3 writecommand without stop
*/
void n6100_send(unsigned char data, unsigned char cmd)
{
 294:	0b 12       	push	r11		
 296:	4b 4f       	mov.b	r15,	r11	
    unsigned char mask = 0x80;
 298:	7c 40 80 ff 	mov.b	#-128,	r12	;#0xff80
    unsigned char i;
    
    if(cmd > 1){ 
 29c:	6e 93       	cmp.b	#2,	r14	;r3 As==10
 29e:	24 28       	jnc	$+74     	;abs 0x2e8
        P5OUT &= ~SDA; // comando
 2a0:	e2 c3 31 00 	bic.b	#2,	&0x0031	;r3 As==10
    }
    else{
        P5OUT |= SDA; // dado
    }
    
    P5OUT &= ~CSX;
 2a4:	d2 c3 31 00 	bic.b	#1,	&0x0031	;r3 As==01
    P5OUT |= SCLK;
 2a8:	f2 d2 31 00 	bis.b	#8,	&0x0031	;r2 As==11
    P5OUT &= ~SCLK;
 2ac:	f2 c2 31 00 	bic.b	#8,	&0x0031	;r2 As==11
    
    for (i=0; i<8; i++){
 2b0:	4d 43       	clr.b	r13		
        if(data & mask){
 2b2:	4f 4b       	mov.b	r11,	r15	
 2b4:	4f fc       	and.b	r12,	r15	
 2b6:	15 24       	jz	$+44     	;abs 0x2e2
            P5OUT |= SDA; 
 2b8:	e2 d3 31 00 	bis.b	#2,	&0x0031	;r3 As==10
        }
        else{
            P5OUT &= ~SDA;
        }
        P5OUT |= SCLK;
 2bc:	f2 d2 31 00 	bis.b	#8,	&0x0031	;r2 As==11
        P5OUT &= ~SCLK;
 2c0:	f2 c2 31 00 	bic.b	#8,	&0x0031	;r2 As==11
        mask >>= 1;
 2c4:	12 c3       	clrc			
 2c6:	4c 10       	rrc.b	r12		
    
    P5OUT &= ~CSX;
    P5OUT |= SCLK;
    P5OUT &= ~SCLK;
    
    for (i=0; i<8; i++){
 2c8:	5d 53       	inc.b	r13		
 2ca:	7d 92       	cmp.b	#8,	r13	;r2 As==11
 2cc:	f2 2b       	jnc	$-26     	;abs 0x2b2
        P5OUT |= SCLK;
        P5OUT &= ~SCLK;
        mask >>= 1;
    }
    
    if(cmd == 1 || cmd == 3)
 2ce:	5e 93       	cmp.b	#1,	r14	;r3 As==01
 2d0:	0e 24       	jz	$+30     	;abs 0x2ee
 2d2:	7e 90 03 00 	cmp.b	#3,	r14	;#0x0003
 2d6:	0b 24       	jz	$+24     	;abs 0x2ee
        return;
        
    P5OUT &= ~SDA;
 2d8:	e2 c3 31 00 	bic.b	#2,	&0x0031	;r3 As==10
    P5OUT |= CSX;
 2dc:	d2 d3 31 00 	bis.b	#1,	&0x0031	;r3 As==01
 2e0:	06 3c       	jmp	$+14     	;abs 0x2ee
    for (i=0; i<8; i++){
        if(data & mask){
            P5OUT |= SDA; 
        }
        else{
            P5OUT &= ~SDA;
 2e2:	e2 c3 31 00 	bic.b	#2,	&0x0031	;r3 As==10
 2e6:	ea 3f       	jmp	$-42     	;abs 0x2bc
    
    if(cmd > 1){ 
        P5OUT &= ~SDA; // comando
    }
    else{
        P5OUT |= SDA; // dado
 2e8:	e2 d3 31 00 	bis.b	#2,	&0x0031	;r3 As==10
 2ec:	db 3f       	jmp	$-72     	;abs 0x2a4
    if(cmd == 1 || cmd == 3)
        return;
        
    P5OUT &= ~SDA;
    P5OUT |= CSX;
}
 2ee:	3b 41       	pop	r11		
 2f0:	30 41       	ret			

000002f2 <lcd_init>:

void lcd_init(unsigned char cor)
{
 2f2:	0b 12       	push	r11		
 2f4:	4b 4f       	mov.b	r15,	r11	
    P5DIR |= CSX + SDA + SCLK + RESX;
 2f6:	f2 d0 0f 00 	bis.b	#15,	&0x0032	;#0x000f
 2fa:	32 00 
    
  P5OUT |= CSX;
 2fc:	d2 d3 31 00 	bis.b	#1,	&0x0031	;r3 As==01
  P5OUT &= ~SDA;
 300:	e2 c3 31 00 	bic.b	#2,	&0x0031	;r3 As==10
  P5OUT &= ~SCLK;
 304:	f2 c2 31 00 	bic.b	#8,	&0x0031	;r2 As==11

  P5OUT &= ~RESX;
 308:	e2 c2 31 00 	bic.b	#4,	&0x0031	;r2 As==10
  delayms(20);
 30c:	3f 40 14 00 	mov	#20,	r15	;#0x0014
 310:	b0 12 00 00 	call	#0x0000	
  P5OUT |= RESX;
 314:	e2 d2 31 00 	bis.b	#4,	&0x0031	;r2 As==10
  delayms(20);
 318:	3f 40 14 00 	mov	#20,	r15	;#0x0014
 31c:	b0 12 00 00 	call	#0x0000	

  // Sleep out...
  n6100_send(0x11,2);   
 320:	6e 43       	mov.b	#2,	r14	;r3 As==10
 322:	7f 40 11 00 	mov.b	#17,	r15	;#0x0011
 326:	b0 12 00 00 	call	#0x0000	
  // Ajusta o contraste...
  n6100_sendcom1(0x25, 0x40);
 32a:	7e 40 40 00 	mov.b	#64,	r14	;#0x0040
 32e:	7f 40 25 00 	mov.b	#37,	r15	;#0x0025
 332:	b0 12 00 00 	call	#0x0000	
  // Liga o display e o booster...    
  n6100_send(0x29,2);
 336:	6e 43       	mov.b	#2,	r14	;r3 As==10
 338:	7f 40 29 00 	mov.b	#41,	r15	;#0x0029
 33c:	b0 12 00 00 	call	#0x0000	
  n6100_send(0x03,2);
 340:	6e 43       	mov.b	#2,	r14	;r3 As==10
 342:	7f 40 03 00 	mov.b	#3,	r15	;#0x0003
 346:	b0 12 00 00 	call	#0x0000	
  delayms(10);  
 34a:	3f 40 0a 00 	mov	#10,	r15	;#0x000a
 34e:	b0 12 00 00 	call	#0x0000	
    
  // Color Format... (8bits/pixel)
  n6100_sendcom1(0x3a, 0x02);
 352:	6e 43       	mov.b	#2,	r14	;r3 As==10
 354:	7f 40 3a 00 	mov.b	#58,	r15	;#0x003a
 358:	b0 12 00 00 	call	#0x0000	
  // Inicializa a tabela de cores 8bits/pixel
  n6100_send(0x2d,2);
 35c:	6e 43       	mov.b	#2,	r14	;r3 As==10
 35e:	7f 40 2d 00 	mov.b	#45,	r15	;#0x002d
 362:	b0 12 00 00 	call	#0x0000	
  // red
  n6100_send(0x00,0);
 366:	4e 43       	clr.b	r14		
 368:	4f 43       	clr.b	r15		
 36a:	b0 12 00 00 	call	#0x0000	
  n6100_send(0x02,0);
 36e:	4e 43       	clr.b	r14		
 370:	6f 43       	mov.b	#2,	r15	;r3 As==10
 372:	b0 12 00 00 	call	#0x0000	
  n6100_send(0x05,0);
 376:	4e 43       	clr.b	r14		
 378:	7f 40 05 00 	mov.b	#5,	r15	;#0x0005
 37c:	b0 12 00 00 	call	#0x0000	
  n6100_send(0x07,0);
 380:	4e 43       	clr.b	r14		
 382:	7f 40 07 00 	mov.b	#7,	r15	;#0x0007
 386:	b0 12 00 00 	call	#0x0000	
  n6100_send(0x09,0);
 38a:	4e 43       	clr.b	r14		
 38c:	7f 40 09 00 	mov.b	#9,	r15	;#0x0009
 390:	b0 12 00 00 	call	#0x0000	
  n6100_send(0x0b,0);
 394:	4e 43       	clr.b	r14		
 396:	7f 40 0b 00 	mov.b	#11,	r15	;#0x000b
 39a:	b0 12 00 00 	call	#0x0000	
  n6100_send(0x0d,0);
 39e:	4e 43       	clr.b	r14		
 3a0:	7f 40 0d 00 	mov.b	#13,	r15	;#0x000d
 3a4:	b0 12 00 00 	call	#0x0000	
  n6100_send(0x0f,0);
 3a8:	4e 43       	clr.b	r14		
 3aa:	7f 40 0f 00 	mov.b	#15,	r15	;#0x000f
 3ae:	b0 12 00 00 	call	#0x0000	
  // green
  n6100_send(0x00,0);
 3b2:	4e 43       	clr.b	r14		
 3b4:	4f 43       	clr.b	r15		
 3b6:	b0 12 00 00 	call	#0x0000	
  n6100_send(0x02,0);
 3ba:	4e 43       	clr.b	r14		
 3bc:	6f 43       	mov.b	#2,	r15	;r3 As==10
 3be:	b0 12 00 00 	call	#0x0000	
  n6100_send(0x05,0);
 3c2:	4e 43       	clr.b	r14		
 3c4:	7f 40 05 00 	mov.b	#5,	r15	;#0x0005
 3c8:	b0 12 00 00 	call	#0x0000	
  n6100_send(0x07,0);
 3cc:	4e 43       	clr.b	r14		
 3ce:	7f 40 07 00 	mov.b	#7,	r15	;#0x0007
 3d2:	b0 12 00 00 	call	#0x0000	
  n6100_send(0x09,0);
 3d6:	4e 43       	clr.b	r14		
 3d8:	7f 40 09 00 	mov.b	#9,	r15	;#0x0009
 3dc:	b0 12 00 00 	call	#0x0000	
  n6100_send(0x0b,0);
 3e0:	4e 43       	clr.b	r14		
 3e2:	7f 40 0b 00 	mov.b	#11,	r15	;#0x000b
 3e6:	b0 12 00 00 	call	#0x0000	
  n6100_send(0x0d,0);
 3ea:	4e 43       	clr.b	r14		
 3ec:	7f 40 0d 00 	mov.b	#13,	r15	;#0x000d
 3f0:	b0 12 00 00 	call	#0x0000	
  n6100_send(0x0f,0);
 3f4:	4e 43       	clr.b	r14		
 3f6:	7f 40 0f 00 	mov.b	#15,	r15	;#0x000f
 3fa:	b0 12 00 00 	call	#0x0000	
  // blue
  n6100_send(0x00,0);
 3fe:	4e 43       	clr.b	r14		
 400:	4f 43       	clr.b	r15		
 402:	b0 12 00 00 	call	#0x0000	
  n6100_send(0x05,0);
 406:	4e 43       	clr.b	r14		
 408:	7f 40 05 00 	mov.b	#5,	r15	;#0x0005
 40c:	b0 12 00 00 	call	#0x0000	
  n6100_send(0x0b,0);
 410:	4e 43       	clr.b	r14		
 412:	7f 40 0b 00 	mov.b	#11,	r15	;#0x000b
 416:	b0 12 00 00 	call	#0x0000	
  n6100_send(0x0f,0);
 41a:	4e 43       	clr.b	r14		
 41c:	7f 40 0f 00 	mov.b	#15,	r15	;#0x000f
 420:	b0 12 00 00 	call	#0x0000	

  // Memory Access Control...  
  n6100_sendcom1(0x36, invertido);
 424:	4e 43       	clr.b	r14		
 426:	7f 40 36 00 	mov.b	#54,	r15	;#0x0036
 42a:	b0 12 00 00 	call	#0x0000	
  // Agradecimentos...
  lcd_fillrect(0, 0, 132, 132, cor);
 42e:	4b 12       	push.b	r11		
 430:	7c 40 84 ff 	mov.b	#-124,	r12	;#0xff84
 434:	7d 40 84 ff 	mov.b	#-124,	r13	;#0xff84
 438:	4e 43       	clr.b	r14		
 43a:	4f 43       	clr.b	r15		
 43c:	b0 12 00 00 	call	#0x0000	
 440:	21 53       	incd	r1		
  //n6100_putlogo(2, 2, 128, 128, (unsigned char *)Matrix);
  //delayms(4000);
}
 442:	3b 41       	pop	r11		
 444:	30 41       	ret			

00000446 <lcd_clear>:

void lcd_clear(unsigned char cor) 
{
  lcd_fillrect(0, 0, 132, 132, cor);
 446:	4f 12       	push.b	r15		
 448:	7c 40 84 ff 	mov.b	#-124,	r12	;#0xff84
 44c:	7d 40 84 ff 	mov.b	#-124,	r13	;#0xff84
 450:	4e 43       	clr.b	r14		
 452:	4f 43       	clr.b	r15		
 454:	b0 12 00 00 	call	#0x0000	
 458:	21 53       	incd	r1		
}
 45a:	30 41       	ret			

0000045c <n6100_sendcom1>:

void n6100_sendcom1(unsigned char comm, unsigned char dat)
{
 45c:	0b 12       	push	r11		
 45e:	4b 4e       	mov.b	r14,	r11	
    n6100_send(comm, 3);
 460:	7e 40 03 00 	mov.b	#3,	r14	;#0x0003
 464:	b0 12 00 00 	call	#0x0000	
    n6100_send(dat, 0);
 468:	4e 43       	clr.b	r14		
 46a:	4f 4b       	mov.b	r11,	r15	
 46c:	b0 12 00 00 	call	#0x0000	
}
 470:	3b 41       	pop	r11		
 472:	30 41       	ret			

00000474 <n6100_sendcom2>:

void n6100_sendcom2(unsigned char comm, unsigned char dat1, unsigned char dat2)
{
 474:	0b 12       	push	r11		
 476:	0a 12       	push	r10		
 478:	4b 4e       	mov.b	r14,	r11	
 47a:	4a 4d       	mov.b	r13,	r10	
    n6100_send(comm, 3);
 47c:	7e 40 03 00 	mov.b	#3,	r14	;#0x0003
 480:	b0 12 00 00 	call	#0x0000	
    n6100_send(dat1, 1);
 484:	5e 43       	mov.b	#1,	r14	;r3 As==01
 486:	4f 4b       	mov.b	r11,	r15	
 488:	b0 12 00 00 	call	#0x0000	
    n6100_send(dat2, 0);
 48c:	4e 43       	clr.b	r14		
 48e:	4f 4a       	mov.b	r10,	r15	
 490:	b0 12 00 00 	call	#0x0000	
}
 494:	3a 41       	pop	r10		
 496:	3b 41       	pop	r11		
 498:	30 41       	ret			

0000049a <lcd_fillrect>:

void lcd_fillrect(unsigned char x, unsigned char y, unsigned char lx, unsigned char ly, unsigned char cor)
{
 49a:	0b 12       	push	r11		
 49c:	0a 12       	push	r10		
 49e:	09 12       	push	r9		
 4a0:	08 12       	push	r8		
 4a2:	07 12       	push	r7		
 4a4:	3b 40 0c 00 	mov	#12,	r11	;#0x000c
 4a8:	0b 51       	add	r1,	r11	
 4aa:	4a 4f       	mov.b	r15,	r10	
 4ac:	49 4e       	mov.b	r14,	r9	
 4ae:	48 4d       	mov.b	r13,	r8	
 4b0:	47 4c       	mov.b	r12,	r7	
 4b2:	6b 4b       	mov.b	@r11,	r11	
    unsigned int addr, max;
    
    n6100_sendcom2(0x2a, x, x+lx-1);
 4b4:	4f 5d       	add.b	r13,	r15	
 4b6:	7f 53       	add.b	#-1,	r15	;r3 As==11
 4b8:	4d 4f       	mov.b	r15,	r13	
 4ba:	4e 4a       	mov.b	r10,	r14	
 4bc:	7f 40 2a 00 	mov.b	#42,	r15	;#0x002a
 4c0:	b0 12 00 00 	call	#0x0000	
    n6100_sendcom2(0x2b, y, y+ly-1);
 4c4:	4f 49       	mov.b	r9,	r15	
 4c6:	4f 57       	add.b	r7,	r15	
 4c8:	7f 53       	add.b	#-1,	r15	;r3 As==11
 4ca:	4d 4f       	mov.b	r15,	r13	
 4cc:	4e 49       	mov.b	r9,	r14	
 4ce:	7f 40 2b 00 	mov.b	#43,	r15	;#0x002b
 4d2:	b0 12 00 00 	call	#0x0000	
    
    n6100_send(0x2c, 3);
 4d6:	7e 40 03 00 	mov.b	#3,	r14	;#0x0003
 4da:	7f 40 2c 00 	mov.b	#44,	r15	;#0x002c
 4de:	b0 12 00 00 	call	#0x0000	
    
    max = lx*ly;
 4e2:	02 12       	push	r2		
 4e4:	32 c2       	dint			
 4e6:	03 43       	nop			
 4e8:	c2 48 30 01 	mov.b	r8,	&0x0130	
 4ec:	c2 47 38 01 	mov.b	r7,	&0x0138	
 4f0:	19 42 3a 01 	mov	&0x013a,r9	
 4f4:	32 41       	pop	r2		
    for(addr=0; addr<max; addr++)
 4f6:	0a 43       	clr	r10		
 4f8:	0a 99       	cmp	r9,	r10	
 4fa:	07 2c       	jc	$+16     	;abs 0x50a
    {
      n6100_send(cor, 1);
 4fc:	5e 43       	mov.b	#1,	r14	;r3 As==01
 4fe:	4f 4b       	mov.b	r11,	r15	
 500:	b0 12 00 00 	call	#0x0000	
    n6100_sendcom2(0x2b, y, y+ly-1);
    
    n6100_send(0x2c, 3);
    
    max = lx*ly;
    for(addr=0; addr<max; addr++)
 504:	1a 53       	inc	r10		
 506:	0a 99       	cmp	r9,	r10	
 508:	f9 2b       	jnc	$-12     	;abs 0x4fc
    {
      n6100_send(cor, 1);
    }
    
    P5OUT &= ~SDA;
 50a:	e2 c3 31 00 	bic.b	#2,	&0x0031	;r3 As==10
    P5OUT |= CSX;
 50e:	d2 d3 31 00 	bis.b	#1,	&0x0031	;r3 As==01
    
    n6100_sendcom2(0x2a, 0, 0x83);
 512:	7d 40 83 ff 	mov.b	#-125,	r13	;#0xff83
 516:	4e 43       	clr.b	r14		
 518:	7f 40 2a 00 	mov.b	#42,	r15	;#0x002a
 51c:	b0 12 00 00 	call	#0x0000	
    n6100_sendcom2(0x2b, 0, 0x83);
 520:	7d 40 83 ff 	mov.b	#-125,	r13	;#0xff83
 524:	4e 43       	clr.b	r14		
 526:	7f 40 2b 00 	mov.b	#43,	r15	;#0x002b
 52a:	b0 12 00 00 	call	#0x0000	
}
 52e:	37 41       	pop	r7		
 530:	38 41       	pop	r8		
 532:	39 41       	pop	r9		
 534:	3a 41       	pop	r10		
 536:	3b 41       	pop	r11		
 538:	30 41       	ret			

0000053a <lcd_drawcircle>:


void lcd_drawcircle(unsigned int x0, unsigned int y0, unsigned int radius, unsigned char color, int width){
 53a:	0b 12       	push	r11		
 53c:	0a 12       	push	r10		
 53e:	09 12       	push	r9		
 540:	08 12       	push	r8		
 542:	07 12       	push	r7		
 544:	06 12       	push	r6		
 546:	05 12       	push	r5		
 548:	04 12       	push	r4		
 54a:	31 80 0a 00 	sub	#10,	r1	;#0x000a
 54e:	3b 40 1c 00 	mov	#28,	r11	;#0x001c
 552:	0b 51       	add	r1,	r11	
 554:	05 4f       	mov	r15,	r5	
 556:	06 4e       	mov	r14,	r6	
 558:	48 4c       	mov.b	r12,	r8	
 55a:	29 4b       	mov	@r11,	r9	
    int f = 1 - radius;
 55c:	91 43 00 00 	mov	#1,	0(r1)	;r3 As==01, 0x0000(r1)
 560:	81 8d 00 00 	sub	r13,	0(r1)	;0x0000(r1)
    int ddF_x = 0;
 564:	81 43 02 00 	mov	#0,	2(r1)	;r3 As==00, 0x0002(r1)
    int ddF_y = -2 * radius;
 568:	0e 4d       	mov	r13,	r14	
 56a:	0e 5e       	rla	r14		
 56c:	81 4e 04 00 	mov	r14,	4(r1)	;0x0004(r1)
 570:	b1 e3 04 00 	xor	#-1,	4(r1)	;r3 As==11, 0x0004(r1)
 574:	91 53 04 00 	inc	4(r1)		;0x0004(r1)
    int x = 0;
 578:	04 43       	clr	r4		
    int y = radius;
 57a:	07 4d       	mov	r13,	r7	
    lcd_fillrect(x0, y0 + radius,width,width, color);
 57c:	4f 46       	mov.b	r6,	r15	
 57e:	4f 5d       	add.b	r13,	r15	
 580:	c1 4f 07 00 	mov.b	r15,	7(r1)	;0x0007(r1)
 584:	4c 12       	push.b	r12		
 586:	4c 49       	mov.b	r9,	r12	
 588:	4d 49       	mov.b	r9,	r13	
 58a:	5e 41 09 00 	mov.b	9(r1),	r14	;0x0009(r1)
 58e:	4f 45       	mov.b	r5,	r15	
 590:	b0 12 00 00 	call	#0x0000	
    lcd_fillrect(x0, y0 - radius,width,width, color);
 594:	4e 46       	mov.b	r6,	r14	
 596:	4e 87       	sub.b	r7,	r14	
 598:	c1 4e 0b 00 	mov.b	r14,	11(r1)	;0x000b(r1)
 59c:	48 12       	push.b	r8		
 59e:	4c 49       	mov.b	r9,	r12	
 5a0:	4d 49       	mov.b	r9,	r13	
 5a2:	5e 41 0d 00 	mov.b	13(r1),	r14	;0x000d(r1)
 5a6:	4f 45       	mov.b	r5,	r15	
 5a8:	b0 12 00 00 	call	#0x0000	
    lcd_fillrect(x0 + radius, y0,width,width, color);
 5ac:	4f 45       	mov.b	r5,	r15	
 5ae:	4f 57       	add.b	r7,	r15	
 5b0:	c1 4f 0a 00 	mov.b	r15,	10(r1)	;0x000a(r1)
 5b4:	48 12       	push.b	r8		
 5b6:	4c 49       	mov.b	r9,	r12	
 5b8:	4d 49       	mov.b	r9,	r13	
 5ba:	4e 46       	mov.b	r6,	r14	
 5bc:	5f 41 0c 00 	mov.b	12(r1),	r15	;0x000c(r1)
 5c0:	b0 12 00 00 	call	#0x0000	
    lcd_fillrect(x0 - radius, y0,width,width, color);
 5c4:	4e 45       	mov.b	r5,	r14	
 5c6:	4e 87       	sub.b	r7,	r14	
 5c8:	c1 4e 0e 00 	mov.b	r14,	14(r1)	;0x000e(r1)
 5cc:	48 12       	push.b	r8		
 5ce:	4c 49       	mov.b	r9,	r12	
 5d0:	4d 49       	mov.b	r9,	r13	
 5d2:	4e 46       	mov.b	r6,	r14	
 5d4:	5f 41 10 00 	mov.b	16(r1),	r15	;0x0010(r1)
 5d8:	b0 12 00 00 	call	#0x0000	
    while (x < y) {
 5dc:	31 52       	add	#8,	r1	;r2 As==11
 5de:	04 97       	cmp	r7,	r4	
 5e0:	6d 34       	jge	$+220    	;abs 0x6bc
        if (f >= 0) {
 5e2:	81 93 00 00 	tst	0(r1)		;0x0000(r1)
 5e6:	16 38       	jl	$+46     	;abs 0x614
            y--;
 5e8:	37 53       	add	#-1,	r7	;r3 As==11
            ddF_y += 2;
 5ea:	a1 53 04 00 	incd	4(r1)		;0x0004(r1)
            f += ddF_y;
 5ee:	91 51 04 00 	add	4(r1),	0(r1)	;0x0004(r1), 0x0000(r1)
 5f2:	00 00 
 5f4:	4f 46       	mov.b	r6,	r15	
 5f6:	4f 57       	add.b	r7,	r15	
 5f8:	c1 4f 07 00 	mov.b	r15,	7(r1)	;0x0007(r1)
 5fc:	4e 46       	mov.b	r6,	r14	
 5fe:	4e 87       	sub.b	r7,	r14	
 600:	c1 4e 09 00 	mov.b	r14,	9(r1)	;0x0009(r1)
 604:	4f 45       	mov.b	r5,	r15	
 606:	4f 57       	add.b	r7,	r15	
 608:	c1 4f 06 00 	mov.b	r15,	6(r1)	;0x0006(r1)
 60c:	4e 45       	mov.b	r5,	r14	
 60e:	4e 87       	sub.b	r7,	r14	
 610:	c1 4e 08 00 	mov.b	r14,	8(r1)	;0x0008(r1)
        }
        x++;
 614:	14 53       	inc	r4		
        ddF_x += 2;
 616:	a1 53 02 00 	incd	2(r1)		;0x0002(r1)
        f += ddF_x + 1;
 61a:	91 51 02 00 	add	2(r1),	0(r1)	;0x0002(r1), 0x0000(r1)
 61e:	00 00 
 620:	91 53 00 00 	inc	0(r1)		;0x0000(r1)
        lcd_fillrect(x0 + x, y0 + y,width,width, color);
 624:	4a 45       	mov.b	r5,	r10	
 626:	4a 54       	add.b	r4,	r10	
 628:	48 12       	push.b	r8		
 62a:	4c 49       	mov.b	r9,	r12	
 62c:	4d 49       	mov.b	r9,	r13	
 62e:	5e 41 09 00 	mov.b	9(r1),	r14	;0x0009(r1)
 632:	4f 4a       	mov.b	r10,	r15	
 634:	b0 12 00 00 	call	#0x0000	
        lcd_fillrect(x0 - x, y0 + y,width,width, color);
 638:	4b 45       	mov.b	r5,	r11	
 63a:	4b 84       	sub.b	r4,	r11	
 63c:	48 12       	push.b	r8		
 63e:	4c 49       	mov.b	r9,	r12	
 640:	4d 49       	mov.b	r9,	r13	
 642:	5e 41 0b 00 	mov.b	11(r1),	r14	;0x000b(r1)
 646:	4f 4b       	mov.b	r11,	r15	
 648:	b0 12 00 00 	call	#0x0000	
        lcd_fillrect(x0 + x, y0 - y,width,width, color);
 64c:	48 12       	push.b	r8		
 64e:	4c 49       	mov.b	r9,	r12	
 650:	4d 49       	mov.b	r9,	r13	
 652:	5e 41 0f 00 	mov.b	15(r1),	r14	;0x000f(r1)
 656:	4f 4a       	mov.b	r10,	r15	
 658:	b0 12 00 00 	call	#0x0000	
        lcd_fillrect(x0 - x, y0 - y,width,width, color);
 65c:	48 12       	push.b	r8		
 65e:	4c 49       	mov.b	r9,	r12	
 660:	4d 49       	mov.b	r9,	r13	
 662:	5e 41 11 00 	mov.b	17(r1),	r14	;0x0011(r1)
 666:	4f 4b       	mov.b	r11,	r15	
 668:	b0 12 00 00 	call	#0x0000	
        lcd_fillrect(x0 + y, y0 + x,width,width, color);
 66c:	4b 46       	mov.b	r6,	r11	
 66e:	4b 54       	add.b	r4,	r11	
 670:	48 12       	push.b	r8		
 672:	4c 49       	mov.b	r9,	r12	
 674:	4d 49       	mov.b	r9,	r13	
 676:	4e 4b       	mov.b	r11,	r14	
 678:	5f 41 10 00 	mov.b	16(r1),	r15	;0x0010(r1)
 67c:	b0 12 00 00 	call	#0x0000	
        lcd_fillrect(x0 - y, y0 + x,width,width, color);
 680:	48 12       	push.b	r8		
 682:	4c 49       	mov.b	r9,	r12	
 684:	4d 49       	mov.b	r9,	r13	
 686:	4e 4b       	mov.b	r11,	r14	
 688:	5f 41 14 00 	mov.b	20(r1),	r15	;0x0014(r1)
 68c:	b0 12 00 00 	call	#0x0000	
        lcd_fillrect(x0 + y, y0 - x,width,width, color);
 690:	4b 46       	mov.b	r6,	r11	
 692:	4b 84       	sub.b	r4,	r11	
 694:	48 12       	push.b	r8		
 696:	4c 49       	mov.b	r9,	r12	
 698:	4d 49       	mov.b	r9,	r13	
 69a:	4e 4b       	mov.b	r11,	r14	
 69c:	5f 41 14 00 	mov.b	20(r1),	r15	;0x0014(r1)
 6a0:	b0 12 00 00 	call	#0x0000	
        lcd_fillrect(x0 - y,y0 - x,width,width,color);   
 6a4:	48 12       	push.b	r8		
 6a6:	4c 49       	mov.b	r9,	r12	
 6a8:	4d 49       	mov.b	r9,	r13	
 6aa:	4e 4b       	mov.b	r11,	r14	
 6ac:	5f 41 18 00 	mov.b	24(r1),	r15	;0x0018(r1)
 6b0:	b0 12 00 00 	call	#0x0000	
 6b4:	31 50 10 00 	add	#16,	r1	;#0x0010
 6b8:	04 97       	cmp	r7,	r4	
 6ba:	93 3b       	jl	$-216    	;abs 0x5e2
    }
}
 6bc:	31 50 0a 00 	add	#10,	r1	;#0x000a
 6c0:	34 41       	pop	r4		
 6c2:	35 41       	pop	r5		
 6c4:	36 41       	pop	r6		
 6c6:	37 41       	pop	r7		
 6c8:	38 41       	pop	r8		
 6ca:	39 41       	pop	r9		
 6cc:	3a 41       	pop	r10		
 6ce:	3b 41       	pop	r11		
 6d0:	30 41       	ret			

000006d2 <lcd_drawline>:

void lcd_drawline(int x0, int y0, int x1, int y1, int color, int width) {
 6d2:	0b 12       	push	r11		
 6d4:	0a 12       	push	r10		
 6d6:	09 12       	push	r9		
 6d8:	08 12       	push	r8		
 6da:	07 12       	push	r7		
 6dc:	06 12       	push	r6		
 6de:	05 12       	push	r5		
 6e0:	04 12       	push	r4		
 6e2:	31 80 06 00 	sub	#6,	r1	;#0x0006
 6e6:	3b 40 18 00 	mov	#24,	r11	;#0x0018
 6ea:	0b 51       	add	r1,	r11	
 6ec:	09 4f       	mov	r15,	r9	
 6ee:	0a 4e       	mov	r14,	r10	
 6f0:	81 4d 00 00 	mov	r13,	0(r1)	;0x0000(r1)
 6f4:	04 4c       	mov	r12,	r4	
 6f6:	25 4b       	mov	@r11,	r5	
 6f8:	16 4b 02 00 	mov	2(r11),	r6	;0x0002(r11)
    int dy = y1 - y0;
 6fc:	07 4c       	mov	r12,	r7	
 6fe:	07 8e       	sub	r14,	r7	
    int dx = x1 - x0;
 700:	08 4d       	mov	r13,	r8	
 702:	08 8f       	sub	r15,	r8	
    int stepx, stepy;
    if (dy < 0) { 
 704:	07 93       	tst	r7		
 706:	49 38       	jl	$+148    	;abs 0x79a
        dy = -dy; 
        stepy = -1; 
    } 
    else { 
        stepy = 1; 
 708:	91 43 04 00 	mov	#1,	4(r1)	;r3 As==01, 0x0004(r1)
    }
    if (dx < 0) {
 70c:	08 93       	tst	r8		
 70e:	40 38       	jl	$+130    	;abs 0x790
        dx = -dx; 
        stepx = -1; 
    } 
    else { 
        stepx = 1; 
 710:	91 43 02 00 	mov	#1,	2(r1)	;r3 As==01, 0x0002(r1)
    }
    dy <<= 1; // dy is now 2*dy
 714:	07 57       	rla	r7		
    dx <<= 1; // dx is now 2*dx
 716:	08 58       	rla	r8		
    lcd_fillrect(x0, y0, width, width, color);
 718:	45 12       	push.b	r5		
 71a:	4c 46       	mov.b	r6,	r12	
 71c:	4d 46       	mov.b	r6,	r13	
 71e:	4e 4a       	mov.b	r10,	r14	
 720:	4f 49       	mov.b	r9,	r15	
 722:	b0 12 00 00 	call	#0x0000	

    if (dx > dy) {
 726:	21 53       	incd	r1		
 728:	07 98       	cmp	r8,	r7	
 72a:	19 34       	jge	$+52     	;abs 0x75e
        int fraction = dy - (dx >> 1); // same as 2*dy - dx
 72c:	0f 48       	mov	r8,	r15	
 72e:	0f 11       	rra	r15		
 730:	0b 47       	mov	r7,	r11	
 732:	0b 8f       	sub	r15,	r11	
        while (x0 != x1) {
 734:	29 91       	cmp	@r1,	r9	
 736:	36 24       	jz	$+110    	;abs 0x7a4
            if (fraction >= 0) {
 738:	0b 93       	tst	r11		
 73a:	03 38       	jl	$+8      	;abs 0x742
                y0 += stepy;
 73c:	1a 51 04 00 	add	4(r1),	r10	;0x0004(r1)
                fraction -= dx; // same as fraction -= 2*dx
 740:	0b 88       	sub	r8,	r11	
            }
            x0 += stepx;
 742:	19 51 02 00 	add	2(r1),	r9	;0x0002(r1)
            fraction += dy; // same as fraction -= 2*dy
 746:	0b 57       	add	r7,	r11	
            lcd_fillrect(x0, y0, width, width, color);
 748:	45 12       	push.b	r5		
 74a:	4c 46       	mov.b	r6,	r12	
 74c:	4d 46       	mov.b	r6,	r13	
 74e:	4e 4a       	mov.b	r10,	r14	
 750:	4f 49       	mov.b	r9,	r15	
 752:	b0 12 00 00 	call	#0x0000	
 756:	21 53       	incd	r1		
 758:	29 91       	cmp	@r1,	r9	
 75a:	ee 23       	jnz	$-34     	;abs 0x738
 75c:	23 3c       	jmp	$+72     	;abs 0x7a4
        }
    } 
    else {
        int fraction = dx - (dy >> 1);
 75e:	0f 47       	mov	r7,	r15	
 760:	0f 11       	rra	r15		
 762:	0b 48       	mov	r8,	r11	
 764:	0b 8f       	sub	r15,	r11	
        while (y0 != y1) {
 766:	0a 94       	cmp	r4,	r10	
 768:	1d 24       	jz	$+60     	;abs 0x7a4
            if (fraction >= 0) {
 76a:	0b 93       	tst	r11		
 76c:	03 38       	jl	$+8      	;abs 0x774
                x0 += stepx;
 76e:	19 51 02 00 	add	2(r1),	r9	;0x0002(r1)
                fraction -= dy;
 772:	0b 87       	sub	r7,	r11	
            }
            y0 += stepy;
 774:	1a 51 04 00 	add	4(r1),	r10	;0x0004(r1)
            fraction += dx;
 778:	0b 58       	add	r8,	r11	
            lcd_fillrect(x0, y0, width, width, color);
 77a:	45 12       	push.b	r5		
 77c:	4c 46       	mov.b	r6,	r12	
 77e:	4d 46       	mov.b	r6,	r13	
 780:	4e 4a       	mov.b	r10,	r14	
 782:	4f 49       	mov.b	r9,	r15	
 784:	b0 12 00 00 	call	#0x0000	
 788:	21 53       	incd	r1		
 78a:	0a 94       	cmp	r4,	r10	
 78c:	ee 23       	jnz	$-34     	;abs 0x76a
 78e:	0a 3c       	jmp	$+22     	;abs 0x7a4
    } 
    else { 
        stepy = 1; 
    }
    if (dx < 0) {
        dx = -dx; 
 790:	38 e3       	inv	r8		
 792:	18 53       	inc	r8		
        stepx = -1; 
 794:	b1 43 02 00 	mov	#-1,	2(r1)	;r3 As==11, 0x0002(r1)
 798:	bd 3f       	jmp	$-132    	;abs 0x714
void lcd_drawline(int x0, int y0, int x1, int y1, int color, int width) {
    int dy = y1 - y0;
    int dx = x1 - x0;
    int stepx, stepy;
    if (dy < 0) { 
        dy = -dy; 
 79a:	37 e3       	inv	r7		
 79c:	17 53       	inc	r7		
        stepy = -1; 
 79e:	b1 43 04 00 	mov	#-1,	4(r1)	;r3 As==11, 0x0004(r1)
 7a2:	b4 3f       	jmp	$-150    	;abs 0x70c
            y0 += stepy;
            fraction += dx;
            lcd_fillrect(x0, y0, width, width, color);
        }
    }
}
 7a4:	31 50 06 00 	add	#6,	r1	;#0x0006
 7a8:	34 41       	pop	r4		
 7aa:	35 41       	pop	r5		
 7ac:	36 41       	pop	r6		
 7ae:	37 41       	pop	r7		
 7b0:	38 41       	pop	r8		
 7b2:	39 41       	pop	r9		
 7b4:	3a 41       	pop	r10		
 7b6:	3b 41       	pop	r11		
 7b8:	30 41       	ret			

000007ba <lcd_putlogo>:

void lcd_putlogo(unsigned char x, unsigned char y, unsigned char lx, unsigned char ly, unsigned char p[])
{
 7ba:	0b 12       	push	r11		
 7bc:	0a 12       	push	r10		
 7be:	09 12       	push	r9		
 7c0:	08 12       	push	r8		
 7c2:	07 12       	push	r7		
 7c4:	3b 40 0c 00 	mov	#12,	r11	;#0x000c
 7c8:	0b 51       	add	r1,	r11	
 7ca:	4a 4f       	mov.b	r15,	r10	
 7cc:	49 4e       	mov.b	r14,	r9	
 7ce:	48 4d       	mov.b	r13,	r8	
 7d0:	47 4c       	mov.b	r12,	r7	
 7d2:	2b 4b       	mov	@r11,	r11	
    unsigned int addr, max;

    n6100_sendcom2(0x2a, x, x+lx-1);
 7d4:	4f 5d       	add.b	r13,	r15	
 7d6:	7f 53       	add.b	#-1,	r15	;r3 As==11
 7d8:	4d 4f       	mov.b	r15,	r13	
 7da:	4e 4a       	mov.b	r10,	r14	
 7dc:	7f 40 2a 00 	mov.b	#42,	r15	;#0x002a
 7e0:	b0 12 00 00 	call	#0x0000	
    n6100_sendcom2(0x2b, y, y+ly-1);
 7e4:	4f 49       	mov.b	r9,	r15	
 7e6:	4f 57       	add.b	r7,	r15	
 7e8:	7f 53       	add.b	#-1,	r15	;r3 As==11
 7ea:	4d 4f       	mov.b	r15,	r13	
 7ec:	4e 49       	mov.b	r9,	r14	
 7ee:	7f 40 2b 00 	mov.b	#43,	r15	;#0x002b
 7f2:	b0 12 00 00 	call	#0x0000	
    
    n6100_send(0x2c, 3);
 7f6:	7e 40 03 00 	mov.b	#3,	r14	;#0x0003
 7fa:	7f 40 2c 00 	mov.b	#44,	r15	;#0x002c
 7fe:	b0 12 00 00 	call	#0x0000	
    
    max = lx*ly;
 802:	02 12       	push	r2		
 804:	32 c2       	dint			
 806:	03 43       	nop			
 808:	c2 48 30 01 	mov.b	r8,	&0x0130	
 80c:	c2 47 38 01 	mov.b	r7,	&0x0138	
 810:	19 42 3a 01 	mov	&0x013a,r9	
 814:	32 41       	pop	r2		
    for(addr=0; addr<max; addr++)
 816:	0a 43       	clr	r10		
 818:	0a 99       	cmp	r9,	r10	
 81a:	09 2c       	jc	$+20     	;abs 0x82e
    {
        n6100_send(p[addr], 1);
 81c:	0f 4b       	mov	r11,	r15	
 81e:	0f 5a       	add	r10,	r15	
 820:	5e 43       	mov.b	#1,	r14	;r3 As==01
 822:	6f 4f       	mov.b	@r15,	r15	
 824:	b0 12 00 00 	call	#0x0000	
    n6100_sendcom2(0x2b, y, y+ly-1);
    
    n6100_send(0x2c, 3);
    
    max = lx*ly;
    for(addr=0; addr<max; addr++)
 828:	1a 53       	inc	r10		
 82a:	0a 99       	cmp	r9,	r10	
 82c:	f7 2b       	jnc	$-16     	;abs 0x81c
    {
        n6100_send(p[addr], 1);
    }
    
    P5OUT &= ~SDA;
 82e:	e2 c3 31 00 	bic.b	#2,	&0x0031	;r3 As==10
    P5OUT |= CSX;
 832:	d2 d3 31 00 	bis.b	#1,	&0x0031	;r3 As==01
    
    n6100_sendcom2(0x2a, 0, 0x83);
 836:	7d 40 83 ff 	mov.b	#-125,	r13	;#0xff83
 83a:	4e 43       	clr.b	r14		
 83c:	7f 40 2a 00 	mov.b	#42,	r15	;#0x002a
 840:	b0 12 00 00 	call	#0x0000	
    n6100_sendcom2(0x2b, 0, 0x83);
 844:	7d 40 83 ff 	mov.b	#-125,	r13	;#0xff83
 848:	4e 43       	clr.b	r14		
 84a:	7f 40 2b 00 	mov.b	#43,	r15	;#0x002b
 84e:	b0 12 00 00 	call	#0x0000	
}
 852:	37 41       	pop	r7		
 854:	38 41       	pop	r8		
 856:	39 41       	pop	r9		
 858:	3a 41       	pop	r10		
 85a:	3b 41       	pop	r11		
 85c:	30 41       	ret			

0000085e <lcd_newline>:

void lcd_newline(void)
{
    if (++LCD_linecount == LCD_NLINE){
 85e:	d2 53 00 00 	inc.b	&0x0000	
 862:	f2 90 10 00 	cmp.b	#16,	&0x0000	;#0x0010
 866:	00 00 
 868:	02 20       	jnz	$+6      	;abs 0x86e
        LCD_linecount = 0; 
 86a:	c2 43 00 00 	mov.b	#0,	&0x0000	;r3 As==00
    }
    LCD_charcount = 0;
 86e:	c2 43 00 00 	mov.b	#0,	&0x0000	;r3 As==00
}
 872:	30 41       	ret			

00000874 <lcd_goto>:

void lcd_goto(unsigned char x, unsigned char y)
{
    if (x > LCD_NCHAR-1) x = 0;
 874:	7f 90 15 00 	cmp.b	#21,	r15	;#0x0015
 878:	01 28       	jnc	$+4      	;abs 0x87c
 87a:	4f 43       	clr.b	r15		
    if (y > LCD_NLINE-1) y = 0;
 87c:	7e 90 10 00 	cmp.b	#16,	r14	;#0x0010
 880:	01 28       	jnc	$+4      	;abs 0x884
 882:	4e 43       	clr.b	r14		
    
    LCD_charcount = x;
 884:	c2 4f 00 00 	mov.b	r15,	&0x0000	
    LCD_linecount = y;
 888:	c2 4e 00 00 	mov.b	r14,	&0x0000	
}
 88c:	30 41       	ret			

0000088e <lcd_wrchar>:

void lcd_wrchar(unsigned char c)
{
 88e:	0b 12       	push	r11		
 890:	0a 12       	push	r10		
 892:	09 12       	push	r9		
 894:	08 12       	push	r8		
 896:	07 12       	push	r7		
 898:	06 12       	push	r6		
 89a:	4b 4f       	mov.b	r15,	r11	
  unsigned int j;
  unsigned char i, k, v, mask;

  // Posiciona área para copiar...
  i=6*LCD_charcount;
 89c:	5f 42 00 00 	mov.b	&0x0000,r15	
 8a0:	4e 4f       	mov.b	r15,	r14	
 8a2:	0e 5e       	rla	r14		
 8a4:	0e 5e       	rla	r14		
 8a6:	0f 5f       	rla	r15		
 8a8:	0e 5f       	add	r15,	r14	
 8aa:	4a 4e       	mov.b	r14,	r10	
  n6100_sendcom2(0x2a, i, i+5);
 8ac:	7a 50 05 00 	add.b	#5,	r10	;#0x0005
 8b0:	4d 4a       	mov.b	r10,	r13	
 8b2:	7f 40 2a 00 	mov.b	#42,	r15	;#0x002a
 8b6:	b0 12 00 00 	call	#0x0000	
  i=8*(LCD_linecount)+2;
 8ba:	5f 42 00 00 	mov.b	&0x0000,r15	
 8be:	0f 5f       	rla	r15		
 8c0:	0f 5f       	rla	r15		
 8c2:	0f 5f       	rla	r15		
 8c4:	4a 4f       	mov.b	r15,	r10	
 8c6:	6a 53       	incd.b	r10		
  n6100_sendcom2(0x2b, i, i+7);
 8c8:	7f 50 09 00 	add.b	#9,	r15	;#0x0009
 8cc:	4d 4f       	mov.b	r15,	r13	
 8ce:	4e 4a       	mov.b	r10,	r14	
 8d0:	7f 40 2b 00 	mov.b	#43,	r15	;#0x002b
 8d4:	b0 12 00 00 	call	#0x0000	

  // Rotina de escrita na memória...
  mask = 0x01;
 8d8:	58 43       	mov.b	#1,	r8	;r3 As==01
  n6100_send(0x2c,2);
 8da:	6e 43       	mov.b	#2,	r14	;r3 As==10
 8dc:	7f 40 2c 00 	mov.b	#44,	r15	;#0x002c
 8e0:	b0 12 00 00 	call	#0x0000	

  for (k=0; k<8; k++)
 8e4:	47 43       	clr.b	r7		
 8e6:	49 4b       	mov.b	r11,	r9	
 8e8:	06 49       	mov	r9,	r6	
  {
    j = (unsigned int) c * 5;
 8ea:	0b 46       	mov	r6,	r11	
 8ec:	0b 5b       	rla	r11		
 8ee:	06 49       	mov	r9,	r6	
 8f0:	0b 59       	add	r9,	r11	
 8f2:	0b 59       	add	r9,	r11	
 8f4:	0b 59       	add	r9,	r11	
    for (i=0; i<5; i++)
 8f6:	4a 43       	clr.b	r10		
 8f8:	3b 50 00 00 	add	#0,	r11	;#0x0000
    {
      v = asciitable[j];
 8fc:	6f 4b       	mov.b	@r11,	r15	
 8fe:	1b 53       	inc	r11		
      if(v & mask) n6100_send(color_fore,0); else n6100_send(color_back,0);
 900:	4f f8       	and.b	r8,	r15	
 902:	0a 24       	jz	$+22     	;abs 0x918
 904:	4e 43       	clr.b	r14		
 906:	5f 42 00 00 	mov.b	&0x0000,r15	
 90a:	b0 12 00 00 	call	#0x0000	
  n6100_send(0x2c,2);

  for (k=0; k<8; k++)
  {
    j = (unsigned int) c * 5;
    for (i=0; i<5; i++)
 90e:	5a 53       	inc.b	r10		
 910:	7a 90 05 00 	cmp.b	#5,	r10	;#0x0005
 914:	f3 2b       	jnc	$-24     	;abs 0x8fc
 916:	04 3c       	jmp	$+10     	;abs 0x920
 918:	4e 43       	clr.b	r14		
 91a:	5f 42 00 00 	mov.b	&0x0000,r15	
 91e:	f5 3f       	jmp	$-20     	;abs 0x90a
    {
      v = asciitable[j];
      if(v & mask) n6100_send(color_fore,0); else n6100_send(color_back,0);
      j += 1;
    }
    n6100_send(color_back,0);
 920:	4e 43       	clr.b	r14		
 922:	5f 42 00 00 	mov.b	&0x0000,r15	
 926:	b0 12 00 00 	call	#0x0000	
    mask <<= 1;
 92a:	48 58       	rla.b	r8		

  // Rotina de escrita na memória...
  mask = 0x01;
  n6100_send(0x2c,2);

  for (k=0; k<8; k++)
 92c:	57 53       	inc.b	r7		
 92e:	77 92       	cmp.b	#8,	r7	;r2 As==11
 930:	dc 2b       	jnc	$-70     	;abs 0x8ea
      j += 1;
    }
    n6100_send(color_back,0);
    mask <<= 1;
  }
}
 932:	36 41       	pop	r6		
 934:	37 41       	pop	r7		
 936:	38 41       	pop	r8		
 938:	39 41       	pop	r9		
 93a:	3a 41       	pop	r10		
 93c:	3b 41       	pop	r11		
 93e:	30 41       	ret			

00000940 <lcd_putchar>:

void lcd_putchar(unsigned char c)
{
 940:	0b 12       	push	r11		
 942:	4b 4f       	mov.b	r15,	r11	
  switch (c)
 944:	7f f3       	and.b	#-1,	r15	;r3 As==11
 946:	3f 90 0a 00 	cmp	#10,	r15	;#0x000a
 94a:	19 24       	jz	$+52     	;abs 0x97e
 94c:	3f 90 0d 00 	cmp	#13,	r15	;#0x000d
 950:	13 24       	jz	$+40     	;abs 0x978
  {
    case 10 : lcd_newline();
              break;
    case 13 : LCD_charcount = 0;
              break;
    default : if (LCD_charcount++ < LCD_NCHAR) lcd_wrchar(c);
 952:	5f 42 00 00 	mov.b	&0x0000,r15	
 956:	d2 53 00 00 	inc.b	&0x0000	
 95a:	7f 90 15 00 	cmp.b	#21,	r15	;#0x0015
 95e:	04 2c       	jc	$+10     	;abs 0x968
 960:	4f 4b       	mov.b	r11,	r15	
 962:	b0 12 00 00 	call	#0x0000	
 966:	0d 3c       	jmp	$+28     	;abs 0x982
              else
              {
                lcd_newline();
 968:	b0 12 00 00 	call	#0x0000	
                lcd_wrchar(c);
 96c:	4f 4b       	mov.b	r11,	r15	
 96e:	b0 12 00 00 	call	#0x0000	
                LCD_charcount++;
 972:	d2 53 00 00 	inc.b	&0x0000	
 976:	05 3c       	jmp	$+12     	;abs 0x982
{
  switch (c)
  {
    case 10 : lcd_newline();
              break;
    case 13 : LCD_charcount = 0;
 978:	c2 43 00 00 	mov.b	#0,	&0x0000	;r3 As==00
              break;
 97c:	02 3c       	jmp	$+6      	;abs 0x982

void lcd_putchar(unsigned char c)
{
  switch (c)
  {
    case 10 : lcd_newline();
 97e:	b0 12 00 00 	call	#0x0000	
                lcd_newline();
                lcd_wrchar(c);
                LCD_charcount++;
              }
  }
}
 982:	3b 41       	pop	r11		
 984:	30 41       	ret			

00000986 <lcd_drawprogressbar>:

void lcd_drawprogressbar(int x, int y, int lx, int ly, int color, int colorprogress, int percent){
 986:	0b 12       	push	r11		
 988:	0a 12       	push	r10		
 98a:	09 12       	push	r9		
 98c:	08 12       	push	r8		
 98e:	07 12       	push	r7		
 990:	06 12       	push	r6		
 992:	05 12       	push	r5		
 994:	04 12       	push	r4		
 996:	3b 40 12 00 	mov	#18,	r11	;#0x0012
 99a:	0b 51       	add	r1,	r11	
 99c:	08 4f       	mov	r15,	r8	
 99e:	05 4e       	mov	r14,	r5	
 9a0:	06 4d       	mov	r13,	r6	
 9a2:	07 4c       	mov	r12,	r7	
 9a4:	29 4b       	mov	@r11,	r9	
 9a6:	14 4b 02 00 	mov	2(r11),	r4	;0x0002(r11)
 9aa:	1e 4b 04 00 	mov	4(r11),	r14	;0x0004(r11)
    int lx_progress = (lx * percent) / 100;
 9ae:	0f 4d       	mov	r13,	r15	
 9b0:	0f 88       	sub	r8,	r15	
 9b2:	02 12       	push	r2		
 9b4:	32 c2       	dint			
 9b6:	03 43       	nop			
 9b8:	82 4f 32 01 	mov	r15,	&0x0132	
 9bc:	82 4e 38 01 	mov	r14,	&0x0138	
 9c0:	1f 42 3a 01 	mov	&0x013a,r15	
 9c4:	32 41       	pop	r2		
 9c6:	0c 4f       	mov	r15,	r12	
 9c8:	3a 40 64 00 	mov	#100,	r10	;#0x0064
 9cc:	b0 12 00 00 	call	#0x0000	
 9d0:	0b 4c       	mov	r12,	r11	
    lcd_fillrect(x0, ly, lx_progress, ly,color);
 9d2:	49 12       	push.b	r9		
 9d4:	4c 47       	mov.b	r7,	r12	
 9d6:	4d 4b       	mov.b	r11,	r13	
 9d8:	4e 45       	mov.b	r5,	r14	
 9da:	4f 48       	mov.b	r8,	r15	
 9dc:	b0 12 00 00 	call	#0x0000	
    lcd_fillrect(x0 + lx_progress, y, lx - lx_progress, ly,colorprogress);
 9e0:	44 12       	push.b	r4		
 9e2:	4c 47       	mov.b	r7,	r12	
 9e4:	4d 46       	mov.b	r6,	r13	
 9e6:	4e 45       	mov.b	r5,	r14	
 9e8:	4f 4b       	mov.b	r11,	r15	
 9ea:	b0 12 00 00 	call	#0x0000	
 9ee:	21 52       	add	#4,	r1	;r2 As==10
}
 9f0:	34 41       	pop	r4		
 9f2:	35 41       	pop	r5		
 9f4:	36 41       	pop	r6		
 9f6:	37 41       	pop	r7		
 9f8:	38 41       	pop	r8		
 9fa:	39 41       	pop	r9		
 9fc:	3a 41       	pop	r10		
 9fe:	3b 41       	pop	r11		
 a00:	30 41       	ret			
Disassembly of section .data:

00000000 <LCD_linecount>:
	...

00000001 <LCD_charcount>:
	...

00000002 <color_back>:
	...

00000003 <color_fore>:
   3:	ff c4       	Address 0x00000003 is out of bounds.
Address 0x00000005 is out of bounds.
and.b	@r15+,	-1(r15)	;0xffff(r15)
Disassembly of section .stab:

00000000 <.stab>:
       0:	01 00       	mova	@r0,	r1	
       2:	00 00       	bra	@r0		
       4:	00 00       	bra	@r0		
       6:	b2 02 c0 28 	suba	#0x228c0,r2	
       a:	00 00       	bra	@r0		
       c:	0b 00       	mova	@r0,	r11	
       e:	00 00       	bra	@r0		
      10:	64 00 00 00 	mova	r0,	&0x40000
      14:	00 00       	bra	@r0		
      16:	00 00       	bra	@r0		
      18:	31 00 00 00 	mova	0x0000,	r1	;PC rel. 0x0001a
      1c:	64 00 00 00 	mova	r0,	&0x40000
      20:	00 00       	bra	@r0		
      22:	00 00       	bra	@r0		
      24:	3b 00 00 00 	mova	0x0000,	r11	;PC rel. 0x00026
      28:	3c 00 00 00 	mova	0x0000,	r12	;PC rel. 0x0002a
      2c:	00 00       	bra	@r0		
      2e:	00 00       	bra	@r0		
      30:	4a 00       	rrcm.a	#1,	r10	
      32:	00 00       	bra	@r0		
      34:	80 00 00 00 	bra	#0x00000	
      38:	00 00       	bra	@r0		
      3a:	00 00       	bra	@r0		
      3c:	6a 00 00 00 	mova	r0,	&0xa0000
      40:	80 00 00 00 	bra	#0x00000	
      44:	00 00       	bra	@r0		
      46:	00 00       	bra	@r0		
      48:	84 00 00 00 	mova	#0x00000,r4	
      4c:	80 00 00 00 	bra	#0x00000	
      50:	00 00       	bra	@r0		
      52:	00 00       	bra	@r0		
      54:	bd 00 00 00 	suba	#0x00000,r13	
      58:	80 00 00 00 	bra	#0x00000	
      5c:	00 00       	bra	@r0		
      5e:	00 00       	bra	@r0		
      60:	f5 00       	suba	r0,	r5	
      62:	00 00       	bra	@r0		
      64:	80 00 00 00 	bra	#0x00000	
      68:	00 00       	bra	@r0		
      6a:	00 00       	bra	@r0		
      6c:	37 01 00 00 	mova	0(r1),	r7	;0x0000(r1)
      70:	80 00 00 00 	bra	#0x00000	
      74:	00 00       	bra	@r0		
      76:	00 00       	bra	@r0		
      78:	88 01 00 00 	mova	#0x10000,r8	
      7c:	80 00 00 00 	bra	#0x00000	
      80:	00 00       	bra	@r0		
      82:	00 00       	bra	@r0		
      84:	d9 01       	cmpa	r1,	r9	
      86:	00 00       	bra	@r0		
      88:	80 00 00 00 	bra	#0x00000	
      8c:	00 00       	bra	@r0		
      8e:	00 00       	bra	@r0		
      90:	ff 01       	suba	r1,	r15	
      92:	00 00       	bra	@r0		
      94:	80 00 00 00 	bra	#0x00000	
      98:	00 00       	bra	@r0		
      9a:	00 00       	bra	@r0		
      9c:	3d 02 00 00 	mova	&0x0000,r13	
      a0:	80 00 00 00 	bra	#0x00000	
      a4:	00 00       	bra	@r0		
      a6:	00 00       	bra	@r0		
      a8:	67 02 00 00 	mova	r2,	&0x70000
      ac:	80 00 00 00 	bra	#0x00000	
      b0:	00 00       	bra	@r0		
      b2:	00 00       	bra	@r0		
      b4:	90 02 00 00 	cmpa	#0x20000,r0	
      b8:	80 00 00 00 	bra	#0x00000	
      bc:	00 00       	bra	@r0		
      be:	00 00       	bra	@r0		
      c0:	aa 02 00 00 	adda	#0x20000,r10	
      c4:	80 00 00 00 	bra	#0x00000	
      c8:	00 00       	bra	@r0		
      ca:	00 00       	bra	@r0		
      cc:	c5 02       	mova	r2,	r5	
      ce:	00 00       	bra	@r0		
      d0:	80 00 00 00 	bra	#0x00000	
      d4:	00 00       	bra	@r0		
      d6:	00 00       	bra	@r0		
      d8:	e5 02       	adda	r2,	r5	
      da:	00 00       	bra	@r0		
      dc:	80 00 00 00 	bra	#0x00000	
      e0:	00 00       	bra	@r0		
      e2:	00 00       	bra	@r0		
      e4:	1e 03       	mova	#-1,	r14	;r3 As==11
      e6:	00 00       	bra	@r0		
      e8:	80 00 00 00 	bra	#0x00000	
      ec:	00 00       	bra	@r0		
      ee:	00 00       	bra	@r0		
      f0:	3c 03 00 00 	mova	#1,	r12	;r3 As==01
      f4:	80 00 00 00 	bra	#0x00000	
      f8:	00 00       	bra	@r0		
      fa:	00 00       	bra	@r0		
      fc:	5b 03       	rrum	#1,	r11	
      fe:	00 00       	bra	@r0		
     100:	80 00 00 00 	bra	#0x00000	
     104:	00 00       	bra	@r0		
     106:	00 00       	bra	@r0		
     108:	7f 03 00 00 	mova	#0,	0(r15)	;r3 As==00, 0x0000(r15)
     10c:	80 00 00 00 	bra	#0x00000	
     110:	00 00       	bra	@r0		
     112:	00 00       	bra	@r0		
     114:	a8 03 00 00 	adda	#0x30000,r8	
     118:	80 00 00 00 	bra	#0x00000	
     11c:	00 00       	bra	@r0		
     11e:	00 00       	bra	@r0		
     120:	bf 03 00 00 	suba	#0x30000,r15	
     124:	82 00 00 00 	mova	#0x00000,r2	
     128:	00 00       	bra	@r0		
     12a:	00 00       	bra	@r0		
     12c:	c9 03       	mova	#0,	r9	;r3 As==00
     12e:	00 00       	bra	@r0		
     130:	82 00 00 00 	mova	#0x00000,r2	
     134:	00 00       	bra	@r0		
     136:	00 00       	bra	@r0		
     138:	ea 03       	incda	r10		
     13a:	00 00       	bra	@r0		
     13c:	82 00 00 00 	mova	#0x00000,r2	
     140:	00 00       	bra	@r0		
     142:	00 00       	bra	@r0		
     144:	1e 04       	mova	@r4+,	r14	
     146:	00 00       	bra	@r0		
     148:	80 00 97 00 	bra	#0x00097	
     14c:	00 00       	bra	@r0		
     14e:	00 00       	bra	@r0		
     150:	35 04 00 00 	mova	0(r4),	r5	;0x0000(r4)
     154:	80 00 d5 00 	bra	#0x000d5	
     158:	00 00       	bra	@r0		
     15a:	00 00       	bra	@r0		
     15c:	49 04       	rrcm.a	#2,	r9	
     15e:	00 00       	bra	@r0		
     160:	80 00 45 01 	bra	#0x00145	
	...
     16c:	a2 00 00 00 	adda	#0x00000,r2	
     170:	00 00       	bra	@r0		
     172:	00 00       	bra	@r0		
     174:	5e 04       	rrcm	#2,	r14	
     176:	00 00       	bra	@r0		
     178:	82 00 00 00 	mova	#0x00000,r2	
     17c:	00 00       	bra	@r0		
     17e:	00 00       	bra	@r0		
     180:	83 04       	.word	0x0483;	????	Illegal as address instr
     182:	00 00       	bra	@r0		
     184:	82 00 00 00 	mova	#0x00000,r2	
	...
     190:	a2 00 00 00 	adda	#0x00000,r2	
     194:	00 00       	bra	@r0		
     196:	00 00       	bra	@r0		
     198:	a8 04 00 00 	adda	#0x40000,r8	
     19c:	82 00 00 00 	mova	#0x00000,r2	
     1a0:	00 00       	bra	@r0		
     1a2:	00 00       	bra	@r0		
     1a4:	d0 04       	cmpa	r4,	r0	
     1a6:	00 00       	bra	@r0		
     1a8:	80 00 26 00 	bra	#0x00026	
     1ac:	00 00       	bra	@r0		
     1ae:	00 00       	bra	@r0		
     1b0:	e5 04       	adda	r4,	r5	
     1b2:	00 00       	bra	@r0		
     1b4:	80 00 27 00 	bra	#0x00027	
     1b8:	00 00       	bra	@r0		
     1ba:	00 00       	bra	@r0		
     1bc:	fb 04       	suba	r4,	r11	
     1be:	00 00       	bra	@r0		
     1c0:	80 00 29 00 	bra	#0x00029	
     1c4:	00 00       	bra	@r0		
     1c6:	00 00       	bra	@r0		
     1c8:	10 05       	bra	@r5+		
     1ca:	00 00       	bra	@r0		
     1cc:	80 00 2a 00 	bra	#0x0002a	
     1d0:	00 00       	bra	@r0		
     1d2:	00 00       	bra	@r0		
     1d4:	26 05 00 00 	mova	&0x50000,r6	
     1d8:	80 00 2c 00 	bra	#0x0002c	
     1dc:	00 00       	bra	@r0		
     1de:	00 00       	bra	@r0		
     1e0:	3b 05 00 00 	mova	0(r5),	r11	;0x0000(r5)
     1e4:	80 00 2d 00 	bra	#0x0002d	
     1e8:	00 00       	bra	@r0		
     1ea:	00 00       	bra	@r0		
     1ec:	51 05       	rram	#2,	r1	
     1ee:	00 00       	bra	@r0		
     1f0:	80 00 2f 00 	bra	#0x0002f	
     1f4:	00 00       	bra	@r0		
     1f6:	00 00       	bra	@r0		
     1f8:	66 05 00 00 	mova	r5,	&0x60000
     1fc:	80 00 30 00 	bra	#0x00030	
     200:	00 00       	bra	@r0		
     202:	00 00       	bra	@r0		
     204:	7c 05 00 00 	mova	r5,	0(r12)	;0x0000(r12)
     208:	80 00 35 00 	bra	#0x00035	
     20c:	00 00       	bra	@r0		
     20e:	00 00       	bra	@r0		
     210:	92 05 00 00 	cmpa	#0x50000,r2	
     214:	80 00 36 00 	bra	#0x00036	
	...
     220:	a2 00 00 00 	adda	#0x00000,r2	
     224:	00 00       	bra	@r0		
     226:	00 00       	bra	@r0		
     228:	aa 05 00 00 	adda	#0x50000,r10	
     22c:	80 00 29 00 	bra	#0x00029	
     230:	00 00       	bra	@r0		
     232:	00 00       	bra	@r0		
     234:	bf 05 00 00 	suba	#0x50000,r15	
     238:	80 00 2a 00 	bra	#0x0002a	
     23c:	00 00       	bra	@r0		
     23e:	00 00       	bra	@r0		
     240:	d4 05       	cmpa	r5,	r4	
     242:	00 00       	bra	@r0		
     244:	80 00 2b 00 	bra	#0x0002b	
     248:	00 00       	bra	@r0		
     24a:	00 00       	bra	@r0		
     24c:	e7 05       	adda	r5,	r7	
     24e:	00 00       	bra	@r0		
     250:	80 00 2c 00 	bra	#0x0002c	
     254:	00 00       	bra	@r0		
     256:	00 00       	bra	@r0		
     258:	fb 05       	suba	r5,	r11	
     25a:	00 00       	bra	@r0		
     25c:	80 00 2d 00 	bra	#0x0002d	
     260:	00 00       	bra	@r0		
     262:	00 00       	bra	@r0		
     264:	0f 06       	mova	@r6,	r15	
     266:	00 00       	bra	@r0		
     268:	80 00 2e 00 	bra	#0x0002e	
     26c:	00 00       	bra	@r0		
     26e:	00 00       	bra	@r0		
     270:	21 06 00 00 	mova	&0x60000,r1	
     274:	80 00 30 00 	bra	#0x00030	
     278:	00 00       	bra	@r0		
     27a:	00 00       	bra	@r0		
     27c:	37 06 00 00 	mova	0(r6),	r7	;0x0000(r6)
                         

// printf para LCDNOKIA
int putchar(int c)
{
    lcd_putchar(c);
     280:	80 00 31 00 	bra	#0x00031	
    return 0;
}
     284:	00 00       	bra	@r0		
     286:	00 00       	bra	@r0		
                         
void lcd_setcolor(unsigned char foreground_color, unsigned char background_color)
{
     288:	4e 06       	rlam.a	#2,	r14	
    color_back = background_color;
     28a:	00 00       	bra	@r0		
     28c:	80 00 32 00 	bra	#0x00032	
    color_fore = foreground_color;
     290:	00 00       	bra	@r0		
}
     292:	00 00       	bra	@r0		
    cmd = 1 writedata without stop
    cmd = 2 writecommand with stop
    cmd = 3 writecommand without stop
*/
void n6100_send(unsigned char data, unsigned char cmd)
{
     294:	65 06 00 00 	mova	r6,	&0x50000
    unsigned char mask = 0x80;
     298:	80 00 33 00 	bra	#0x00033	
    unsigned char i;
    
    if(cmd > 1){ 
     29c:	00 00       	bra	@r0		
     29e:	00 00       	bra	@r0		
        P5OUT &= ~SDA; // comando
     2a0:	7d 06 00 00 	mova	r6,	0(r13)	;0x0000(r13)
    }
    else{
        P5OUT |= SDA; // dado
    }
    
    P5OUT &= ~CSX;
     2a4:	80 00 35 00 	bra	#0x00035	
    P5OUT |= SCLK;
     2a8:	00 00       	bra	@r0		
     2aa:	00 00       	bra	@r0		
    P5OUT &= ~SCLK;
     2ac:	95 06 00 00 	cmpa	#0x60000,r5	
    
    for (i=0; i<8; i++){
     2b0:	80 00 36 00 	bra	#0x00036	
        if(data & mask){
     2b4:	00 00       	bra	@r0		
     2b6:	00 00       	bra	@r0		
            P5OUT |= SDA; 
     2b8:	aa 06 00 00 	adda	#0x60000,r10	
        }
        else{
            P5OUT &= ~SDA;
        }
        P5OUT |= SCLK;
     2bc:	80 00 37 00 	bra	#0x00037	
        P5OUT &= ~SCLK;
     2c0:	00 00       	bra	@r0		
     2c2:	00 00       	bra	@r0		
        mask >>= 1;
     2c4:	c9 06       	mova	r6,	r9	
     2c6:	00 00       	bra	@r0		
    
    P5OUT &= ~CSX;
    P5OUT |= SCLK;
    P5OUT &= ~SCLK;
    
    for (i=0; i<8; i++){
     2c8:	80 00 39 00 	bra	#0x00039	
     2cc:	00 00       	bra	@r0		
        P5OUT |= SCLK;
        P5OUT &= ~SCLK;
        mask >>= 1;
    }
    
    if(cmd == 1 || cmd == 3)
     2ce:	00 00       	bra	@r0		
     2d0:	e7 06       	adda	r6,	r7	
     2d2:	00 00       	bra	@r0		
     2d4:	80 00 3a 00 	bra	#0x0003a	
        return;
        
    P5OUT &= ~SDA;
     2d8:	00 00       	bra	@r0		
     2da:	00 00       	bra	@r0		
    P5OUT |= CSX;
     2dc:	0f 07       	mova	@r7,	r15	
     2de:	00 00       	bra	@r0		
     2e0:	80 00 3b 00 	bra	#0x0003b	
    for (i=0; i<8; i++){
        if(data & mask){
            P5OUT |= SDA; 
        }
        else{
            P5OUT &= ~SDA;
     2e4:	00 00       	bra	@r0		
     2e6:	00 00       	bra	@r0		
    
    if(cmd > 1){ 
        P5OUT &= ~SDA; // comando
    }
    else{
        P5OUT |= SDA; // dado
     2e8:	37 07 00 00 	mova	0(r7),	r7	;0x0000(r7)
     2ec:	80 00 3c 00 	bra	#0x0003c	
    if(cmd == 1 || cmd == 3)
        return;
        
    P5OUT &= ~SDA;
    P5OUT |= CSX;
}
     2f0:	00 00       	bra	@r0		

void lcd_init(unsigned char cor)
{
     2f2:	00 00       	bra	@r0		
     2f4:	4d 07       	rrum.a	#2,	r13	
    P5DIR |= CSX + SDA + SCLK + RESX;
     2f6:	00 00       	bra	@r0		
     2f8:	80 00 3d 00 	bra	#0x0003d	
    
  P5OUT |= CSX;
     2fc:	00 00       	bra	@r0		
     2fe:	00 00       	bra	@r0		
  P5OUT &= ~SDA;
     300:	61 07 00 00 	mova	r7,	&0x10000
  P5OUT &= ~SCLK;
     304:	80 00 3e 00 	bra	#0x0003e	

  P5OUT &= ~RESX;
     308:	00 00       	bra	@r0		
     30a:	00 00       	bra	@r0		
  delayms(20);
     30c:	79 07 00 00 	mova	r7,	0(r9)	;0x0000(r9)
     310:	80 00 3f 00 	bra	#0x0003f	
  P5OUT |= RESX;
     314:	00 00       	bra	@r0		
     316:	00 00       	bra	@r0		
  delayms(20);
     318:	91 07 00 00 	cmpa	#0x70000,r1	
     31c:	80 00 40 00 	bra	#0x00040	

  // Sleep out...
  n6100_send(0x11,2);   
     320:	00 00       	bra	@r0		
     322:	00 00       	bra	@r0		
     324:	a5 07 00 00 	adda	#0x70000,r5	
     328:	80 00 41 00 	bra	#0x00041	
  // Ajusta o contraste...
  n6100_sendcom1(0x25, 0x40);
     32c:	00 00       	bra	@r0		
     32e:	00 00       	bra	@r0		
     330:	b9 07 00 00 	suba	#0x70000,r9	
     334:	80 00 42 00 	bra	#0x00042	
  // Liga o display e o booster...    
  n6100_send(0x29,2);
     338:	00 00       	bra	@r0		
     33a:	00 00       	bra	@r0		
     33c:	ce 07       	mova	r7,	r14	
     33e:	00 00       	bra	@r0		
  n6100_send(0x03,2);
     340:	80 00 43 00 	bra	#0x00043	
     344:	00 00       	bra	@r0		
     346:	00 00       	bra	@r0		
     348:	e4 07       	adda	r7,	r4	
  delayms(10);  
     34a:	00 00       	bra	@r0		
     34c:	80 00 44 00 	bra	#0x00044	
     350:	00 00       	bra	@r0		
    
  // Color Format... (8bits/pixel)
  n6100_sendcom1(0x3a, 0x02);
     352:	00 00       	bra	@r0		
     354:	fa 07       	suba	r7,	r10	
     356:	00 00       	bra	@r0		
     358:	80 00 45 00 	bra	#0x00045	
  // Inicializa a tabela de cores 8bits/pixel
  n6100_send(0x2d,2);
     35c:	00 00       	bra	@r0		
     35e:	00 00       	bra	@r0		
     360:	10 08       	bra	@r8+		
     362:	00 00       	bra	@r0		
     364:	80 00 46 00 	bra	#0x00046	
  // red
  n6100_send(0x00,0);
     368:	00 00       	bra	@r0		
     36a:	00 00       	bra	@r0		
     36c:	26 08 00 00 	mova	&0x80000,r6	
  n6100_send(0x02,0);
     370:	80 00 47 00 	bra	#0x00047	
     374:	00 00       	bra	@r0		
  n6100_send(0x05,0);
     376:	00 00       	bra	@r0		
     378:	40 08       	rrcm.a	#3,	r0	
     37a:	00 00       	bra	@r0		
     37c:	80 00 48 00 	bra	#0x00048	
  n6100_send(0x07,0);
     380:	00 00       	bra	@r0		
     382:	00 00       	bra	@r0		
     384:	59 08       	rrcm	#3,	r9	
     386:	00 00       	bra	@r0		
     388:	80 00 49 00 	bra	#0x00049	
	...
  n6100_send(0x09,0);
  n6100_send(0x0b,0);
     394:	a2 00 00 00 	adda	#0x00000,r2	
     398:	00 00       	bra	@r0		
     39a:	00 00       	bra	@r0		
     39c:	6d 08 00 00 	mova	r8,	&0xd0000
  n6100_send(0x0d,0);
     3a0:	82 00 00 00 	mova	#0x00000,r2	
     3a4:	00 00       	bra	@r0		
     3a6:	00 00       	bra	@r0		
  n6100_send(0x0f,0);
     3a8:	a1 08 00 00 	adda	#0x80000,r1	
     3ac:	80 00 2b 00 	bra	#0x0002b	
     3b0:	00 00       	bra	@r0		
  // green
  n6100_send(0x00,0);
     3b2:	00 00       	bra	@r0		
     3b4:	be 08 00 00 	suba	#0x80000,r14	
     3b8:	80 00 6e 00 	bra	#0x0006e	
	...
  n6100_send(0x02,0);
  n6100_send(0x05,0);
     3c4:	a2 00 00 00 	adda	#0x00000,r2	
	...
  n6100_send(0x07,0);
     3d0:	a2 00 00 00 	adda	#0x00000,r2	
     3d4:	00 00       	bra	@r0		
  n6100_send(0x09,0);
     3d6:	00 00       	bra	@r0		
     3d8:	d3 08       	.word	0x08d3;	????	Illegal as address instr
     3da:	00 00       	bra	@r0		
     3dc:	82 00 00 00 	mova	#0x00000,r2	
  n6100_send(0x0b,0);
     3e0:	00 00       	bra	@r0		
     3e2:	00 00       	bra	@r0		
     3e4:	f5 08       	suba	r8,	r5	
     3e6:	00 00       	bra	@r0		
     3e8:	82 00 00 00 	mova	#0x00000,r2	
	...
  n6100_send(0x0d,0);
  n6100_send(0x0f,0);
     3f4:	a2 00 00 00 	adda	#0x00000,r2	
     3f8:	00 00       	bra	@r0		
     3fa:	00 00       	bra	@r0		
     3fc:	29 09 00 00 	mova	&0x90000,r9	
  // blue
  n6100_send(0x00,0);
     400:	80 00 3b 00 	bra	#0x0003b	
     404:	00 00       	bra	@r0		
  n6100_send(0x05,0);
     406:	00 00       	bra	@r0		
     408:	60 09 00 00 	mova	r9,	&0x00000
     40c:	80 00 43 00 	bra	#0x00043	
	...
  n6100_send(0x0b,0);
     418:	a2 00 00 00 	adda	#0x00000,r2	
  n6100_send(0x0f,0);
     41c:	00 00       	bra	@r0		
     41e:	00 00       	bra	@r0		
     420:	98 09 00 00 	cmpa	#0x90000,r8	

  // Memory Access Control...  
  n6100_sendcom1(0x36, invertido);
     424:	82 00 00 00 	mova	#0x00000,r2	
     428:	00 00       	bra	@r0		
     42a:	00 00       	bra	@r0		
     42c:	bf 09 00 00 	suba	#0x90000,r15	
  // Agradecimentos...
  lcd_fillrect(0, 0, 132, 132, cor);
     430:	82 00 00 00 	mova	#0x00000,r2	
	...
     43c:	a2 00 00 00 	adda	#0x00000,r2	
     440:	00 00       	bra	@r0		
  //n6100_putlogo(2, 2, 128, 128, (unsigned char *)Matrix);
  //delayms(4000);
}
     442:	00 00       	bra	@r0		
     444:	e3 09       	.word	0x09e3;	????	Illegal as address instr

void lcd_clear(unsigned char cor) 
{
  lcd_fillrect(0, 0, 132, 132, cor);
     446:	00 00       	bra	@r0		
     448:	82 00 00 00 	mova	#0x00000,r2	
	...
     454:	a2 00 00 00 	adda	#0x00000,r2	
     458:	00 00       	bra	@r0		
}
     45a:	00 00       	bra	@r0		

void n6100_sendcom1(unsigned char comm, unsigned char dat)
{
     45c:	09 0a       	mova	@r10,	r9	
     45e:	00 00       	bra	@r0		
    n6100_send(comm, 3);
     460:	82 00 00 00 	mova	#0x00000,r2	
     464:	00 00       	bra	@r0		
     466:	00 00       	bra	@r0		
    n6100_send(dat, 0);
     468:	30 0a 00 00 	bra	0(r10)		;0x0000(r10)
     46c:	82 00 00 00 	mova	#0x00000,r2	
}
     470:	00 00       	bra	@r0		
     472:	00 00       	bra	@r0		

void n6100_sendcom2(unsigned char comm, unsigned char dat1, unsigned char dat2)
{
     474:	5f 0a       	rlam	#3,	r15	
     476:	00 00       	bra	@r0		
     478:	80 00 00 00 	bra	#0x00000	
    n6100_send(comm, 3);
     47c:	00 00       	bra	@r0		
     47e:	00 00       	bra	@r0		
     480:	17 0b       	mova	@r11+,	r7	
     482:	00 00       	bra	@r0		
    n6100_send(dat1, 1);
     484:	80 00 27 00 	bra	#0x00027	
     488:	00 00       	bra	@r0		
     48a:	00 00       	bra	@r0		
    n6100_send(dat2, 0);
     48c:	33 0b       	.word	0x0b33;	????	Illegal as address instr
     48e:	00 00       	bra	@r0		
     490:	80 00 00 00 	bra	#0x00000	
}
     494:	00 00       	bra	@r0		
     496:	00 00       	bra	@r0		
     498:	d2 0b       	cmpa	r11,	r2	

void lcd_fillrect(unsigned char x, unsigned char y, unsigned char lx, unsigned char ly, unsigned char cor)
{
     49a:	00 00       	bra	@r0		
     49c:	80 00 00 00 	bra	#0x00000	
	...
     4a8:	a2 00 00 00 	adda	#0x00000,r2	
	...
    unsigned int addr, max;
    
    n6100_sendcom2(0x2a, x, x+lx-1);
     4b4:	a2 00 00 00 	adda	#0x00000,r2	
     4b8:	00 00       	bra	@r0		
     4ba:	00 00       	bra	@r0		
     4bc:	2e 0c 00 00 	mova	&0xc0000,r14	
     4c0:	82 00 00 00 	mova	#0x00000,r2	
	...
    n6100_sendcom2(0x2b, y, y+ly-1);
     4cc:	a2 00 00 00 	adda	#0x00000,r2	
     4d0:	00 00       	bra	@r0		
     4d2:	00 00       	bra	@r0		
     4d4:	55 0c       	rrcm	#4,	r5	
    
    n6100_send(0x2c, 3);
     4d6:	00 00       	bra	@r0		
     4d8:	82 00 00 00 	mova	#0x00000,r2	
     4dc:	00 00       	bra	@r0		
     4de:	00 00       	bra	@r0		
     4e0:	7e 0c 00 00 	mova	r12,	0(r14)	;0x0000(r14)
    
    max = lx*ly;
     4e4:	80 00 84 00 	bra	#0x00084	
     4e8:	00 00       	bra	@r0		
     4ea:	00 00       	bra	@r0		
     4ec:	07 0d       	mova	@r13,	r7	
     4ee:	00 00       	bra	@r0		
     4f0:	80 00 94 00 	bra	#0x00094	
     4f4:	00 00       	bra	@r0		
    for(addr=0; addr<max; addr++)
     4f6:	00 00       	bra	@r0		
     4f8:	d8 0d       	cmpa	r13,	r8	
     4fa:	00 00       	bra	@r0		
    {
      n6100_send(cor, 1);
     4fc:	80 00 00 00 	bra	#0x00000	
	...
    n6100_sendcom2(0x2b, y, y+ly-1);
    
    n6100_send(0x2c, 3);
    
    max = lx*ly;
    for(addr=0; addr<max; addr++)
     508:	a2 00 00 00 	adda	#0x00000,r2	
    {
      n6100_send(cor, 1);
    }
    
    P5OUT &= ~SDA;
     50c:	00 00       	bra	@r0		
    P5OUT |= CSX;
     50e:	00 00       	bra	@r0		
     510:	d8 0e       	cmpa	r14,	r8	
    
    n6100_sendcom2(0x2a, 0, 0x83);
     512:	00 00       	bra	@r0		
     514:	82 00 00 00 	mova	#0x00000,r2	
     518:	00 00       	bra	@r0		
     51a:	00 00       	bra	@r0		
     51c:	01 0f       	mova	@r15,	r1	
     51e:	00 00       	bra	@r0		
    n6100_sendcom2(0x2b, 0, 0x83);
     520:	80 00 4c 00 	bra	#0x0004c	
     524:	00 00       	bra	@r0		
     526:	00 00       	bra	@r0		
     528:	c2 0f       	mova	r15,	r2	
     52a:	00 00       	bra	@r0		
     52c:	80 00 5b 00 	bra	#0x0005b	
}
     530:	00 00       	bra	@r0		
     532:	00 00       	bra	@r0		
     534:	82 10       	swpb	r2		
     536:	00 00       	bra	@r0		
     538:	80 00 00 00 	bra	#0x00000	
	...


void lcd_drawcircle(unsigned int x0, unsigned int y0, unsigned int radius, unsigned char color, int width){
     544:	a2 00 00 00 	adda	#0x00000,r2	
     548:	00 00       	bra	@r0		
     54a:	00 00       	bra	@r0		
     54c:	cb 11       	.word	0x11cb;	????	
     54e:	00 00       	bra	@r0		
     550:	82 00 00 00 	mova	#0x00000,r2	
	...
    int f = 1 - radius;
     55c:	a2 00 00 00 	adda	#0x00000,r2	
     560:	00 00       	bra	@r0		
     562:	00 00       	bra	@r0		
    int ddF_x = 0;
     564:	f9 11       	.word	0x11f9;	????	
     566:	00 00       	bra	@r0		
    int ddF_y = -2 * radius;
     568:	82 00 00 00 	mova	#0x00000,r2	
	...
     574:	a2 00 00 00 	adda	#0x00000,r2	
    int x = 0;
     578:	00 00       	bra	@r0		
    int y = radius;
     57a:	00 00       	bra	@r0		
    lcd_fillrect(x0, y0 + radius,width,width, color);
     57c:	21 12       	push	@r1		
     57e:	00 00       	bra	@r0		
     580:	82 00 00 00 	mova	#0x00000,r2	
	...
     58c:	a2 00 00 00 	adda	#0x00000,r2	
     590:	00 00       	bra	@r0		
     592:	00 00       	bra	@r0		
    lcd_fillrect(x0, y0 - radius,width,width, color);
     594:	49 12       	push.b	r9		
     596:	00 00       	bra	@r0		
     598:	82 00 00 00 	mova	#0x00000,r2	
     59c:	00 00       	bra	@r0		
     59e:	00 00       	bra	@r0		
     5a0:	71 12       	push.b	@r1+		
     5a2:	00 00       	bra	@r0		
     5a4:	80 00 2a 00 	bra	#0x0002a	
     5a8:	00 00       	bra	@r0		
     5aa:	00 00       	bra	@r0		
    lcd_fillrect(x0 + radius, y0,width,width, color);
     5ac:	38 13       	reti			;return from interupt
     5ae:	00 00       	bra	@r0		
     5b0:	80 00 36 00 	bra	#0x00036	
     5b4:	00 00       	bra	@r0		
     5b6:	00 00       	bra	@r0		
     5b8:	e4 13       	calla			
     5ba:	00 00       	bra	@r0		
     5bc:	80 00 4a 00 	bra	#0x0004a	
     5c0:	00 00       	bra	@r0		
     5c2:	00 00       	bra	@r0		
    lcd_fillrect(x0 - radius, y0,width,width, color);
     5c4:	ff 14       	pushm.a	#16,	r15	
     5c6:	00 00       	bra	@r0		
     5c8:	80 00 00 00 	bra	#0x00000	
	...
     5d4:	a2 00 00 00 	adda	#0x00000,r2	
     5d8:	00 00       	bra	@r0		
     5da:	00 00       	bra	@r0		
    while (x < y) {
     5dc:	68 15       	pushm	#7,	r8	
     5de:	00 00       	bra	@r0		
     5e0:	82 00 00 00 	mova	#0x00000,r2	
	...
        if (f >= 0) {
            y--;
            ddF_y += 2;
     5ec:	a2 00 00 00 	adda	#0x00000,r2	
            f += ddF_y;
     5f0:	00 00       	bra	@r0		
     5f2:	00 00       	bra	@r0		
     5f4:	90 15       	pushm	#10,	r0	
     5f6:	00 00       	bra	@r0		
     5f8:	82 00 00 00 	mova	#0x00000,r2	
	...
     604:	a2 00 00 00 	adda	#0x00000,r2	
     608:	00 00       	bra	@r0		
     60a:	00 00       	bra	@r0		
     60c:	b6 15       	pushm	#12,	r6	
     60e:	00 00       	bra	@r0		
     610:	82 00 00 00 	mova	#0x00000,r2	
	...
        }
        x++;
        ddF_x += 2;
        f += ddF_x + 1;
     61c:	a2 00 00 00 	adda	#0x00000,r2	
	...
        lcd_fillrect(x0 + x, y0 + y,width,width, color);
     628:	a2 00 00 00 	adda	#0x00000,r2	
     62c:	00 00       	bra	@r0		
     62e:	00 00       	bra	@r0		
     630:	df 15       	pushm	#14,	r15	
     632:	00 00       	bra	@r0		
     634:	82 00 00 00 	mova	#0x00000,r2	
	...
        lcd_fillrect(x0 - x, y0 + y,width,width, color);
     640:	a2 00 00 00 	adda	#0x00000,r2	
     644:	00 00       	bra	@r0		
     646:	00 00       	bra	@r0		
     648:	e9 15       	pushm	#15,	r9	
     64a:	00 00       	bra	@r0		
        lcd_fillrect(x0 + x, y0 - y,width,width, color);
     64c:	82 00 00 00 	mova	#0x00000,r2	
	...
     658:	a2 00 00 00 	adda	#0x00000,r2	
        lcd_fillrect(x0 - x, y0 - y,width,width, color);
     65c:	00 00       	bra	@r0		
     65e:	00 00       	bra	@r0		
     660:	f1 15       	pushm	#16,	r1	
     662:	00 00       	bra	@r0		
     664:	24 00 b8 00 	mova	&0x000b8,r4	
     668:	00 00       	bra	@r0		
     66a:	00 00       	bra	@r0		
        lcd_fillrect(x0 + y, y0 + x,width,width, color);
     66c:	00 16       	popm.a	#1,	r0	
     66e:	00 00       	bra	@r0		
     670:	40 00       	rrcm.a	#1,	r0	
     672:	b7 00 0f 00 	suba	#0x0000f,r7	
     676:	00 00       	bra	@r0		
     678:	00 00       	bra	@r0		
     67a:	00 00       	bra	@r0		
     67c:	44 00       	rrcm.a	#1,	r4	
     67e:	b8 00 00 00 	suba	#0x00000,r8	
        lcd_fillrect(x0 - y, y0 + x,width,width, color);
     682:	00 00       	bra	@r0		
     684:	00 00       	bra	@r0		
     686:	00 00       	bra	@r0		
     688:	44 00       	rrcm.a	#1,	r4	
     68a:	b9 00 00 00 	suba	#0x00000,r9	
     68e:	00 00       	bra	@r0		
        lcd_fillrect(x0 + y, y0 - x,width,width, color);
     690:	00 00       	bra	@r0		
     692:	00 00       	bra	@r0		
     694:	44 00       	rrcm.a	#1,	r4	
     696:	bb 00 04 00 	suba	#0x00004,r11	
     69a:	00 00       	bra	@r0		
     69c:	00 00       	bra	@r0		
     69e:	00 00       	bra	@r0		
     6a0:	24 00 00 00 	mova	&0x00000,r4	
        lcd_fillrect(x0 - y,y0 - x,width,width,color);   
     6a4:	08 00       	mova	@r0,	r8	
     6a6:	00 00       	bra	@r0		
     6a8:	09 16       	popm.a	#1,	r9	
     6aa:	00 00       	bra	@r0		
     6ac:	24 00 be 00 	mova	&0x000be,r4	
     6b0:	00 00       	bra	@r0		
     6b2:	00 00       	bra	@r0		
     6b4:	1e 16       	popm.a	#2,	r15	
     6b6:	00 00       	bra	@r0		
     6b8:	40 00       	rrcm.a	#1,	r0	
     6ba:	bd 00 0d 00 	suba	#0x0000d,r13	
    }
}
     6be:	00 00       	bra	@r0		
     6c0:	37 16       	popm.a	#4,	r10	
     6c2:	00 00       	bra	@r0		
     6c4:	40 00       	rrcm.a	#1,	r0	
     6c6:	bd 00 0f 00 	suba	#0x0000f,r13	
     6ca:	00 00       	bra	@r0		
     6cc:	00 00       	bra	@r0		
     6ce:	00 00       	bra	@r0		
     6d0:	44 00       	rrcm.a	#1,	r4	

void lcd_drawline(int x0, int y0, int x1, int y1, int color, int width) {
     6d2:	be 00 00 00 	suba	#0x00000,r14	
     6d6:	00 00       	bra	@r0		
     6d8:	00 00       	bra	@r0		
     6da:	00 00       	bra	@r0		
     6dc:	44 00       	rrcm.a	#1,	r4	
     6de:	bf 00 02 00 	suba	#0x00002,r15	
     6e2:	00 00       	bra	@r0		
     6e4:	00 00       	bra	@r0		
     6e6:	00 00       	bra	@r0		
     6e8:	44 00       	rrcm.a	#1,	r4	
     6ea:	c0 00       	bra	r0		
     6ec:	06 00       	mova	@r0,	r6	
     6ee:	00 00       	bra	@r0		
     6f0:	00 00       	bra	@r0		
     6f2:	00 00       	bra	@r0		
     6f4:	44 00       	rrcm.a	#1,	r4	
     6f6:	c1 00       	mova	r0,	r1	
     6f8:	0a 00       	mova	@r0,	r10	
     6fa:	00 00       	bra	@r0		
    int dy = y1 - y0;
     6fc:	00 00       	bra	@r0		
     6fe:	00 00       	bra	@r0		
    int dx = x1 - x0;
     700:	24 00 00 00 	mova	&0x00000,r4	
    int stepx, stepy;
    if (dy < 0) { 
     704:	0c 00       	mova	@r0,	r12	
     706:	00 00       	bra	@r0		
        dy = -dy; 
        stepy = -1; 
    } 
    else { 
        stepy = 1; 
     708:	50 16       	popm.a	#6,	r5	
     70a:	00 00       	bra	@r0		
    }
    if (dx < 0) {
     70c:	24 00 ca 00 	mova	&0x000ca,r4	
        dx = -dx; 
        stepx = -1; 
    } 
    else { 
        stepx = 1; 
     710:	00 00       	bra	@r0		
     712:	00 00       	bra	@r0		
    }
    dy <<= 1; // dy is now 2*dy
     714:	63 16       	popm.a	#7,	r9	
    dx <<= 1; // dx is now 2*dx
     716:	00 00       	bra	@r0		
    lcd_fillrect(x0, y0, width, width, color);
     718:	40 00       	rrcm.a	#1,	r0	
     71a:	c9 00       	mova	r0,	r9	
     71c:	0b 00       	mova	@r0,	r11	
     71e:	00 00       	bra	@r0		
     720:	70 16       	popm.a	#8,	r7	
     722:	00 00       	bra	@r0		
     724:	40 00       	rrcm.a	#1,	r0	

    if (dx > dy) {
     726:	c9 00       	mova	r0,	r9	
     728:	0e 00       	mova	@r0,	r14	
     72a:	00 00       	bra	@r0		
        int fraction = dy - (dx >> 1); // same as 2*dy - dx
     72c:	00 00       	bra	@r0		
     72e:	00 00       	bra	@r0		
     730:	44 00       	rrcm.a	#1,	r4	
     732:	ca 00       	mova	r0,	r10	
	...
        while (x0 != x1) {
            if (fraction >= 0) {
                y0 += stepy;
     73c:	44 00       	rrcm.a	#1,	r4	
     73e:	cb 00       	mova	r0,	r11	
                fraction -= dx; // same as fraction -= 2*dx
     740:	04 00       	mova	@r0,	r4	
            }
            x0 += stepx;
     742:	00 00       	bra	@r0		
     744:	00 00       	bra	@r0		
            fraction += dy; // same as fraction -= 2*dy
     746:	00 00       	bra	@r0		
            lcd_fillrect(x0, y0, width, width, color);
     748:	44 00       	rrcm.a	#1,	r4	
     74a:	ce 00       	mova	r0,	r14	
     74c:	08 00       	mova	@r0,	r8	
     74e:	00 00       	bra	@r0		
     750:	00 00       	bra	@r0		
     752:	00 00       	bra	@r0		
     754:	44 00       	rrcm.a	#1,	r4	
     756:	cf 00       	mova	r0,	r15	
     758:	0c 00       	mova	@r0,	r12	
     75a:	00 00       	bra	@r0		
     75c:	00 00       	bra	@r0		
        }
    } 
    else {
        int fraction = dx - (dy >> 1);
     75e:	00 00       	bra	@r0		
     760:	44 00       	rrcm.a	#1,	r4	
     762:	d5 00       	cmpa	r0,	r5	
     764:	10 00       	bra	#0x00000	
        while (y0 != y1) {
     766:	00 00       	bra	@r0		
     768:	00 00       	bra	@r0		
            if (fraction >= 0) {
     76a:	00 00       	bra	@r0		
     76c:	44 00       	rrcm.a	#1,	r4	
                x0 += stepx;
     76e:	d6 00       	cmpa	r0,	r6	
     770:	14 00       	mova	#0x00000,r4	
                fraction -= dy;
     772:	00 00       	bra	@r0		
            }
            y0 += stepy;
     774:	00 00       	bra	@r0		
     776:	00 00       	bra	@r0		
            fraction += dx;
     778:	44 00       	rrcm.a	#1,	r4	
            lcd_fillrect(x0, y0, width, width, color);
     77a:	d7 00       	cmpa	r0,	r7	
     77c:	18 00       	mova	#0x00000,r8	
     77e:	00 00       	bra	@r0		
     780:	00 00       	bra	@r0		
     782:	00 00       	bra	@r0		
     784:	44 00       	rrcm.a	#1,	r4	
     786:	d9 00       	cmpa	r0,	r9	
     788:	1c 00       	mova	#0x00000,r12	
     78a:	00 00       	bra	@r0		
     78c:	00 00       	bra	@r0		
     78e:	00 00       	bra	@r0		
    } 
    else { 
        stepy = 1; 
    }
    if (dx < 0) {
        dx = -dx; 
     790:	44 00       	rrcm.a	#1,	r4	
     792:	da 00       	cmpa	r0,	r10	
        stepx = -1; 
     794:	1e 00       	mova	#0x00000,r14	
     796:	00 00       	bra	@r0		
     798:	00 00       	bra	@r0		
void lcd_drawline(int x0, int y0, int x1, int y1, int color, int width) {
    int dy = y1 - y0;
    int dx = x1 - x0;
    int stepx, stepy;
    if (dy < 0) { 
        dy = -dy; 
     79a:	00 00       	bra	@r0		
     79c:	44 00       	rrcm.a	#1,	r4	
        stepy = -1; 
     79e:	db 00       	cmpa	r0,	r11	
     7a0:	24 00 00 00 	mova	&0x00000,r4	
            y0 += stepy;
            fraction += dx;
            lcd_fillrect(x0, y0, width, width, color);
        }
    }
}
     7a4:	00 00       	bra	@r0		
     7a6:	00 00       	bra	@r0		
     7a8:	44 00       	rrcm.a	#1,	r4	
     7aa:	e0 00       	adda	r0,	r0	
     7ac:	28 00 00 00 	mova	&0x00000,r8	
     7b0:	00 00       	bra	@r0		
     7b2:	00 00       	bra	@r0		
     7b4:	44 00       	rrcm.a	#1,	r4	
     7b6:	e1 00       	adda	r0,	r1	
     7b8:	2c 00 00 00 	mova	&0x00000,r12	

void lcd_putlogo(unsigned char x, unsigned char y, unsigned char lx, unsigned char ly, unsigned char p[])
{
     7bc:	00 00       	bra	@r0		
     7be:	00 00       	bra	@r0		
     7c0:	44 00       	rrcm.a	#1,	r4	
     7c2:	e2 00       	adda	r0,	r2	
     7c4:	30 00 00 00 	bra	0x0000		;PC rel. 0x007c6
     7c8:	00 00       	bra	@r0		
     7ca:	00 00       	bra	@r0		
     7cc:	44 00       	rrcm.a	#1,	r4	
     7ce:	d9 00       	cmpa	r0,	r9	
     7d0:	34 00 00 00 	mova	0x0000,	r4	;PC rel. 0x007d2
    unsigned int addr, max;

    n6100_sendcom2(0x2a, x, x+lx-1);
     7d4:	00 00       	bra	@r0		
     7d6:	00 00       	bra	@r0		
     7d8:	44 00       	rrcm.a	#1,	r4	
     7da:	e5 00       	adda	r0,	r5	
     7dc:	3a 00 00 00 	mova	0x0000,	r10	;PC rel. 0x007de
     7e0:	00 00       	bra	@r0		
     7e2:	00 00       	bra	@r0		
    n6100_sendcom2(0x2b, y, y+ly-1);
     7e4:	44 00       	rrcm.a	#1,	r4	
     7e6:	e8 00       	adda	r0,	r8	
     7e8:	44 00       	rrcm.a	#1,	r4	
     7ea:	00 00       	bra	@r0		
     7ec:	00 00       	bra	@r0		
     7ee:	00 00       	bra	@r0		
     7f0:	44 00       	rrcm.a	#1,	r4	
     7f2:	e9 00       	adda	r0,	r9	
     7f4:	48 00       	rrcm.a	#1,	r8	
    
    n6100_send(0x2c, 3);
     7f6:	00 00       	bra	@r0		
     7f8:	00 00       	bra	@r0		
     7fa:	00 00       	bra	@r0		
     7fc:	44 00       	rrcm.a	#1,	r4	
     7fe:	de 00       	cmpa	r0,	r14	
     800:	4e 00       	rrcm.a	#1,	r14	
    
    max = lx*ly;
     802:	00 00       	bra	@r0		
     804:	00 00       	bra	@r0		
     806:	00 00       	bra	@r0		
     808:	44 00       	rrcm.a	#1,	r4	
     80a:	d2 00       	cmpa	r0,	r2	
     80c:	54 00       	rrcm	#1,	r4	
     80e:	00 00       	bra	@r0		
     810:	00 00       	bra	@r0		
     812:	00 00       	bra	@r0		
     814:	44 00       	rrcm.a	#1,	r4	
    for(addr=0; addr<max; addr++)
     816:	ea 00       	adda	r0,	r10	
     818:	5a 00       	rrcm	#1,	r10	
     81a:	00 00       	bra	@r0		
    {
        n6100_send(p[addr], 1);
     81c:	7c 16       	popm.a	#8,	#0	;r3 As==00
     81e:	00 00       	bra	@r0		
     820:	40 00       	rrcm.a	#1,	r0	
     822:	cb 00       	mova	r0,	r11	
     824:	0c 00       	mova	@r0,	r12	
     826:	00 00       	bra	@r0		
    n6100_sendcom2(0x2b, y, y+ly-1);
    
    n6100_send(0x2c, 3);
    
    max = lx*ly;
    for(addr=0; addr<max; addr++)
     828:	89 16       	popm.a	#9,	r1	
     82a:	00 00       	bra	@r0		
     82c:	40 00       	rrcm.a	#1,	r0	
    {
        n6100_send(p[addr], 1);
    }
    
    P5OUT &= ~SDA;
     82e:	cc 00       	mova	r0,	r12	
     830:	0d 00       	mova	@r0,	r13	
    P5OUT |= CSX;
     832:	00 00       	bra	@r0		
     834:	00 00       	bra	@r0		
    
    n6100_sendcom2(0x2a, 0, 0x83);
     836:	00 00       	bra	@r0		
     838:	c0 00       	bra	r0		
     83a:	00 00       	bra	@r0		
     83c:	04 00       	mova	@r0,	r4	
     83e:	00 00       	bra	@r0		
     840:	00 00       	bra	@r0		
     842:	00 00       	bra	@r0		
    n6100_sendcom2(0x2b, 0, 0x83);
     844:	e0 00       	adda	r0,	r0	
     846:	00 00       	bra	@r0		
     848:	5a 00       	rrcm	#1,	r10	
     84a:	00 00       	bra	@r0		
     84c:	00 00       	bra	@r0		
     84e:	00 00       	bra	@r0		
     850:	24 00 00 00 	mova	&0x00000,r4	
}
     854:	5e 00       	rrcm	#1,	r14	
     856:	00 00       	bra	@r0		
     858:	93 16       	popm.a	#10,	r12	
     85a:	00 00       	bra	@r0		
     85c:	24 00 ed 00 	mova	&0x000ed,r4	

void lcd_newline(void)
{
    if (++LCD_linecount == LCD_NLINE){
     860:	00 00       	bra	@r0		
     862:	00 00       	bra	@r0		
     864:	a4 16       	popm.a	#11,	r14	
     866:	00 00       	bra	@r0		
     868:	40 00       	rrcm.a	#1,	r0	
        LCD_linecount = 0; 
     86a:	ec 00       	adda	r0,	r12	
     86c:	0b 00       	mova	@r0,	r11	
    }
    LCD_charcount = 0;
     86e:	00 00       	bra	@r0		
     870:	00 00       	bra	@r0		
}
     872:	00 00       	bra	@r0		

void lcd_goto(unsigned char x, unsigned char y)
{
    if (x > LCD_NCHAR-1) x = 0;
     874:	44 00       	rrcm.a	#1,	r4	
     876:	ed 00       	adda	r0,	r13	
	...
    if (y > LCD_NLINE-1) y = 0;
     880:	44 00       	rrcm.a	#1,	r4	
     882:	ee 00       	adda	r0,	r14	
    
    LCD_charcount = x;
     884:	04 00       	mova	@r0,	r4	
     886:	00 00       	bra	@r0		
    LCD_linecount = y;
     888:	00 00       	bra	@r0		
     88a:	00 00       	bra	@r0		
}
     88c:	44 00       	rrcm.a	#1,	r4	

void lcd_wrchar(unsigned char c)
{
     88e:	f0 00       	suba	r0,	r0	
     890:	0a 00       	mova	@r0,	r10	
     892:	00 00       	bra	@r0		
     894:	00 00       	bra	@r0		
     896:	00 00       	bra	@r0		
     898:	44 00       	rrcm.a	#1,	r4	
     89a:	f1 00       	suba	r0,	r1	
  unsigned int j;
  unsigned char i, k, v, mask;

  // Posiciona área para copiar...
  i=6*LCD_charcount;
     89c:	0e 00       	mova	@r0,	r14	
     89e:	00 00       	bra	@r0		
     8a0:	00 00       	bra	@r0		
     8a2:	00 00       	bra	@r0		
     8a4:	44 00       	rrcm.a	#1,	r4	
     8a6:	f2 00       	suba	r0,	r2	
     8a8:	12 00       	mova	#0x00000,r2	
     8aa:	00 00       	bra	@r0		
  n6100_sendcom2(0x2a, i, i+5);
     8ac:	00 00       	bra	@r0		
     8ae:	00 00       	bra	@r0		
     8b0:	44 00       	rrcm.a	#1,	r4	
     8b2:	f4 00       	suba	r0,	r4	
     8b4:	16 00       	mova	#0x00000,r6	
     8b6:	00 00       	bra	@r0		
     8b8:	00 00       	bra	@r0		
  i=8*(LCD_linecount)+2;
     8ba:	00 00       	bra	@r0		
     8bc:	44 00       	rrcm.a	#1,	r4	
     8be:	f5 00       	suba	r0,	r5	
     8c0:	1a 00       	mova	#0x00000,r10	
     8c2:	00 00       	bra	@r0		
     8c4:	00 00       	bra	@r0		
     8c6:	00 00       	bra	@r0		
  n6100_sendcom2(0x2b, i, i+7);
     8c8:	44 00       	rrcm.a	#1,	r4	
     8ca:	f6 00       	suba	r0,	r6	
     8cc:	22 00 00 00 	mova	&0x00000,r2	
     8d0:	00 00       	bra	@r0		
     8d2:	00 00       	bra	@r0		
     8d4:	44 00       	rrcm.a	#1,	r4	
     8d6:	f7 00       	suba	r0,	r7	

  // Rotina de escrita na memória...
  mask = 0x01;
     8d8:	26 00 00 00 	mova	&0x00000,r6	
  n6100_send(0x2c,2);
     8dc:	00 00       	bra	@r0		
     8de:	00 00       	bra	@r0		
     8e0:	44 00       	rrcm.a	#1,	r4	
     8e2:	fa 00       	suba	r0,	r10	

  for (k=0; k<8; k++)
     8e4:	2e 00 00 00 	mova	&0x00000,r14	
     8e8:	00 00       	bra	@r0		
  {
    j = (unsigned int) c * 5;
     8ea:	00 00       	bra	@r0		
     8ec:	44 00       	rrcm.a	#1,	r4	
     8ee:	fc 00       	suba	r0,	r12	
     8f0:	38 00 00 00 	mova	0x0000,	r8	;PC rel. 0x008f2
     8f4:	00 00       	bra	@r0		
    for (i=0; i<5; i++)
     8f6:	00 00       	bra	@r0		
     8f8:	44 00       	rrcm.a	#1,	r4	
     8fa:	fe 00       	suba	r0,	r14	
    {
      v = asciitable[j];
     8fc:	44 00       	rrcm.a	#1,	r4	
     8fe:	00 00       	bra	@r0		
      if(v & mask) n6100_send(color_fore,0); else n6100_send(color_back,0);
     900:	00 00       	bra	@r0		
     902:	00 00       	bra	@r0		
     904:	44 00       	rrcm.a	#1,	r4	
     906:	ff 00       	suba	r0,	r15	
     908:	4e 00       	rrcm.a	#1,	r14	
     90a:	00 00       	bra	@r0		
     90c:	00 00       	bra	@r0		
  n6100_send(0x2c,2);

  for (k=0; k<8; k++)
  {
    j = (unsigned int) c * 5;
    for (i=0; i<5; i++)
     90e:	00 00       	bra	@r0		
     910:	44 00       	rrcm.a	#1,	r4	
     912:	00 01       	bra	@r1		
     914:	58 00       	rrcm	#1,	r8	
     916:	00 00       	bra	@r0		
     918:	00 00       	bra	@r0		
     91a:	00 00       	bra	@r0		
     91c:	44 00       	rrcm.a	#1,	r4	
     91e:	03 01       	.word	0x0103;	????	Illegal as address instr
    {
      v = asciitable[j];
      if(v & mask) n6100_send(color_fore,0); else n6100_send(color_back,0);
      j += 1;
    }
    n6100_send(color_back,0);
     920:	60 00 00 00 	mova	r0,	&0x00000
     924:	00 00       	bra	@r0		
     926:	00 00       	bra	@r0		
     928:	44 00       	rrcm.a	#1,	r4	
    mask <<= 1;
     92a:	05 01       	mova	@r1,	r5	

  // Rotina de escrita na memória...
  mask = 0x01;
  n6100_send(0x2c,2);

  for (k=0; k<8; k++)
     92c:	6a 00 00 00 	mova	r0,	&0xa0000
     930:	00 00       	bra	@r0		
      j += 1;
    }
    n6100_send(color_back,0);
    mask <<= 1;
  }
}
     932:	00 00       	bra	@r0		
     934:	44 00       	rrcm.a	#1,	r4	
     936:	07 01       	mova	@r1,	r7	
     938:	74 00 00 00 	mova	r0,	0(r4)	;0x0000(r4)
     93c:	00 00       	bra	@r0		
     93e:	00 00       	bra	@r0		

void lcd_putchar(unsigned char c)
{
     940:	44 00       	rrcm.a	#1,	r4	
     942:	08 01       	mova	@r1,	r8	
  switch (c)
     944:	7c 00 00 00 	mova	r0,	0(r12)	;0x0000(r12)
     948:	00 00       	bra	@r0		
     94a:	00 00       	bra	@r0		
     94c:	44 00       	rrcm.a	#1,	r4	
     94e:	09 01       	mova	@r1,	r9	
     950:	84 00 00 00 	mova	#0x00000,r4	
  {
    case 10 : lcd_newline();
              break;
    case 13 : LCD_charcount = 0;
              break;
    default : if (LCD_charcount++ < LCD_NCHAR) lcd_wrchar(c);
     954:	00 00       	bra	@r0		
     956:	00 00       	bra	@r0		
     958:	44 00       	rrcm.a	#1,	r4	
     95a:	0a 01       	mova	@r1,	r10	
     95c:	8e 00 00 00 	mova	#0x00000,r14	
     960:	00 00       	bra	@r0		
     962:	00 00       	bra	@r0		
     964:	44 00       	rrcm.a	#1,	r4	
     966:	0b 01       	mova	@r1,	r11	
              else
              {
                lcd_newline();
     968:	98 00 00 00 	cmpa	#0x00000,r8	
                lcd_wrchar(c);
     96c:	00 00       	bra	@r0		
     96e:	00 00       	bra	@r0		
     970:	44 00       	rrcm.a	#1,	r4	
                LCD_charcount++;
     972:	0c 01       	mova	@r1,	r12	
     974:	a2 00 00 00 	adda	#0x00000,r2	
{
  switch (c)
  {
    case 10 : lcd_newline();
              break;
    case 13 : LCD_charcount = 0;
     978:	00 00       	bra	@r0		
     97a:	00 00       	bra	@r0		
              break;
     97c:	44 00       	rrcm.a	#1,	r4	

void lcd_putchar(unsigned char c)
{
  switch (c)
  {
    case 10 : lcd_newline();
     97e:	0d 01       	mova	@r1,	r13	
     980:	ac 00 00 00 	adda	#0x00000,r12	
                lcd_newline();
                lcd_wrchar(c);
                LCD_charcount++;
              }
  }
}
     984:	00 00       	bra	@r0		

void lcd_drawprogressbar(int x, int y, int lx, int ly, int color, int colorprogress, int percent){
     986:	00 00       	bra	@r0		
     988:	44 00       	rrcm.a	#1,	r4	
     98a:	0e 01       	mova	@r1,	r14	
     98c:	b6 00 00 00 	suba	#0x00000,r6	
     990:	00 00       	bra	@r0		
     992:	00 00       	bra	@r0		
     994:	44 00       	rrcm.a	#1,	r4	
     996:	10 01       	reta			
     998:	c0 00       	bra	r0		
     99a:	00 00       	bra	@r0		
     99c:	00 00       	bra	@r0		
     99e:	00 00       	bra	@r0		
     9a0:	44 00       	rrcm.a	#1,	r4	
     9a2:	11 01       	mova	@r1+,	r1	
     9a4:	c8 00       	mova	r0,	r8	
     9a6:	00 00       	bra	@r0		
     9a8:	00 00       	bra	@r0		
     9aa:	00 00       	bra	@r0		
     9ac:	44 00       	rrcm.a	#1,	r4	
    int lx_progress = (lx * percent) / 100;
     9ae:	12 01       	mova	@r1+,	r2	
     9b0:	d0 00       	cmpa	r0,	r0	
     9b2:	00 00       	bra	@r0		
     9b4:	00 00       	bra	@r0		
     9b6:	00 00       	bra	@r0		
     9b8:	44 00       	rrcm.a	#1,	r4	
     9ba:	13 01       	.word	0x0113;	????	Illegal as address instr
     9bc:	da 00       	cmpa	r0,	r10	
     9be:	00 00       	bra	@r0		
     9c0:	00 00       	bra	@r0		
     9c2:	00 00       	bra	@r0		
     9c4:	44 00       	rrcm.a	#1,	r4	
     9c6:	14 01       	mova	@r1+,	r4	
     9c8:	e4 00       	adda	r0,	r4	
     9ca:	00 00       	bra	@r0		
     9cc:	00 00       	bra	@r0		
     9ce:	00 00       	bra	@r0		
     9d0:	44 00       	rrcm.a	#1,	r4	
    lcd_fillrect(x0, ly, lx_progress, ly,color);
     9d2:	15 01       	mova	@r1+,	r5	
     9d4:	ee 00       	adda	r0,	r14	
     9d6:	00 00       	bra	@r0		
     9d8:	00 00       	bra	@r0		
     9da:	00 00       	bra	@r0		
     9dc:	44 00       	rrcm.a	#1,	r4	
     9de:	16 01       	mova	@r1+,	r6	
    lcd_fillrect(x0 + lx_progress, y, lx - lx_progress, ly,colorprogress);
     9e0:	f8 00       	suba	r0,	r8	
     9e2:	00 00       	bra	@r0		
     9e4:	00 00       	bra	@r0		
     9e6:	00 00       	bra	@r0		
     9e8:	44 00       	rrcm.a	#1,	r4	
     9ea:	17 01       	mova	@r1+,	r7	
     9ec:	02 01       	mova	@r1,	r2	
     9ee:	00 00       	bra	@r0		
}
     9f0:	00 00       	bra	@r0		
     9f2:	00 00       	bra	@r0		
     9f4:	44 00       	rrcm.a	#1,	r4	
     9f6:	19 01       	mova	@r1+,	r9	
     9f8:	0c 01       	mova	@r1,	r12	
     9fa:	00 00       	bra	@r0		
     9fc:	00 00       	bra	@r0		
     9fe:	00 00       	bra	@r0		
     a00:	44 00       	rrcm.a	#1,	r4	
     a02:	1a 01       	mova	@r1+,	r10	
     a04:	14 01       	mova	@r1+,	r4	
     a06:	00 00       	bra	@r0		
     a08:	00 00       	bra	@r0		
     a0a:	00 00       	bra	@r0		
     a0c:	44 00       	rrcm.a	#1,	r4	
     a0e:	1b 01       	mova	@r1+,	r11	
     a10:	1e 01       	mova	@r1+,	r14	
     a12:	00 00       	bra	@r0		
     a14:	00 00       	bra	@r0		
     a16:	00 00       	bra	@r0		
     a18:	44 00       	rrcm.a	#1,	r4	
     a1a:	1c 01       	mova	@r1+,	r12	
     a1c:	28 01 00 00 	mova	&0x10000,r8	
     a20:	00 00       	bra	@r0		
     a22:	00 00       	bra	@r0		
     a24:	44 00       	rrcm.a	#1,	r4	
     a26:	1f 01       	mova	@r1+,	r15	
     a28:	32 01 00 00 	mova	0(r1),	r2	;0x0000(r1)
     a2c:	00 00       	bra	@r0		
     a2e:	00 00       	bra	@r0		
     a30:	44 00       	rrcm.a	#1,	r4	
     a32:	21 01 3c 01 	mova	&0x1013c,r1	
     a36:	00 00       	bra	@r0		
     a38:	00 00       	bra	@r0		
     a3a:	00 00       	bra	@r0		
     a3c:	44 00       	rrcm.a	#1,	r4	
     a3e:	24 01 50 01 	mova	&0x10150,r4	
     a42:	00 00       	bra	@r0		
     a44:	00 00       	bra	@r0		
     a46:	00 00       	bra	@r0		
     a48:	24 00 00 00 	mova	&0x00000,r4	
     a4c:	54 01       	rram	#1,	r4	
     a4e:	00 00       	bra	@r0		
     a50:	b0 16       	popm.a	#12,	r11	
     a52:	00 00       	bra	@r0		
     a54:	24 00 27 01 	mova	&0x00127,r4	
     a58:	00 00       	bra	@r0		
     a5a:	00 00       	bra	@r0		
     a5c:	c2 16       	popm.a	#13,	r14	
     a5e:	00 00       	bra	@r0		
     a60:	40 00       	rrcm.a	#1,	r0	
     a62:	26 01 0f 00 	mova	&0x1000f,r6	
     a66:	00 00       	bra	@r0		
     a68:	00 00       	bra	@r0		
     a6a:	00 00       	bra	@r0		
     a6c:	44 00       	rrcm.a	#1,	r4	
     a6e:	27 01 00 00 	mova	&0x10000,r7	
     a72:	00 00       	bra	@r0		
     a74:	00 00       	bra	@r0		
     a76:	00 00       	bra	@r0		
     a78:	44 00       	rrcm.a	#1,	r4	
     a7a:	28 01 00 00 	mova	&0x10000,r8	
     a7e:	00 00       	bra	@r0		
     a80:	00 00       	bra	@r0		
     a82:	00 00       	bra	@r0		
     a84:	44 00       	rrcm.a	#1,	r4	
     a86:	29 01 14 00 	mova	&0x10014,r9	
     a8a:	00 00       	bra	@r0		
     a8c:	00 00       	bra	@r0		
     a8e:	00 00       	bra	@r0		
     a90:	24 00 00 00 	mova	&0x00000,r4	
     a94:	16 00       	mova	#0x00000,r6	
     a96:	00 00       	bra	@r0		
     a98:	ce 16       	popm.a	#13,	r10	
     a9a:	00 00       	bra	@r0		
     a9c:	24 00 2c 01 	mova	&0x0012c,r4	
     aa0:	00 00       	bra	@r0		
     aa2:	00 00       	bra	@r0		
     aa4:	e5 16       	popm.a	#15,	#0	;r3 As==00
     aa6:	00 00       	bra	@r0		
     aa8:	40 00       	rrcm.a	#1,	r0	
     aaa:	2b 01 0f 00 	mova	&0x1000f,r11	
     aae:	00 00       	bra	@r0		
     ab0:	f2 16       	popm.a	#16,	r1	
     ab2:	00 00       	bra	@r0		
     ab4:	40 00       	rrcm.a	#1,	r0	
     ab6:	2b 01 0b 00 	mova	&0x1000b,r11	
     aba:	00 00       	bra	@r0		
     abc:	00 00       	bra	@r0		
     abe:	00 00       	bra	@r0		
     ac0:	44 00       	rrcm.a	#1,	r4	
     ac2:	2c 01 00 00 	mova	&0x10000,r12	
     ac6:	00 00       	bra	@r0		
     ac8:	00 00       	bra	@r0		
     aca:	00 00       	bra	@r0		
     acc:	44 00       	rrcm.a	#1,	r4	
     ace:	2d 01 04 00 	mova	&0x10004,r13	
     ad2:	00 00       	bra	@r0		
     ad4:	00 00       	bra	@r0		
     ad6:	00 00       	bra	@r0		
     ad8:	44 00       	rrcm.a	#1,	r4	
     ada:	2e 01 0c 00 	mova	&0x1000c,r14	
     ade:	00 00       	bra	@r0		
     ae0:	00 00       	bra	@r0		
     ae2:	00 00       	bra	@r0		
     ae4:	44 00       	rrcm.a	#1,	r4	
     ae6:	2f 01 14 00 	mova	&0x10014,r15	
     aea:	00 00       	bra	@r0		
     aec:	00 00       	bra	@r0		
     aee:	00 00       	bra	@r0		
     af0:	24 00 00 00 	mova	&0x00000,r4	
     af4:	18 00       	mova	#0x00000,r8	
     af6:	00 00       	bra	@r0		
     af8:	fe 16       	popm.a	#16,	r13	
     afa:	00 00       	bra	@r0		
     afc:	24 00 32 01 	mova	&0x00132,r4	
     b00:	00 00       	bra	@r0		
     b02:	00 00       	bra	@r0		
     b04:	15 17       	popm	#2,	r6	
     b06:	00 00       	bra	@r0		
     b08:	40 00       	rrcm.a	#1,	r0	
     b0a:	31 01 0f 00 	mova	15(r1),	r1	;0x000f(r1)
     b0e:	00 00       	bra	@r0		
     b10:	22 17       	popm	#3,	r4	
     b12:	00 00       	bra	@r0		
     b14:	40 00       	rrcm.a	#1,	r0	
     b16:	31 01 0b 00 	mova	11(r1),	r1	;0x000b(r1)
     b1a:	00 00       	bra	@r0		
     b1c:	2f 17       	popm	#3,	r1	
     b1e:	00 00       	bra	@r0		
     b20:	40 00       	rrcm.a	#1,	r0	
     b22:	31 01 0a 00 	mova	10(r1),	r1	;0x000a(r1)
     b26:	00 00       	bra	@r0		
     b28:	00 00       	bra	@r0		
     b2a:	00 00       	bra	@r0		
     b2c:	44 00       	rrcm.a	#1,	r4	
     b2e:	32 01 00 00 	mova	0(r1),	r2	;0x0000(r1)
     b32:	00 00       	bra	@r0		
     b34:	00 00       	bra	@r0		
     b36:	00 00       	bra	@r0		
     b38:	44 00       	rrcm.a	#1,	r4	
     b3a:	33 01       	.word	0x0133;	????	Illegal as address instr
     b3c:	08 00       	mova	@r0,	r8	
     b3e:	00 00       	bra	@r0		
     b40:	00 00       	bra	@r0		
     b42:	00 00       	bra	@r0		
     b44:	44 00       	rrcm.a	#1,	r4	
     b46:	34 01 10 00 	mova	16(r1),	r4	;0x0010(r1)
     b4a:	00 00       	bra	@r0		
     b4c:	00 00       	bra	@r0		
     b4e:	00 00       	bra	@r0		
     b50:	44 00       	rrcm.a	#1,	r4	
     b52:	35 01 18 00 	mova	24(r1),	r5	;0x0018(r1)
     b56:	00 00       	bra	@r0		
     b58:	00 00       	bra	@r0		
     b5a:	00 00       	bra	@r0		
     b5c:	44 00       	rrcm.a	#1,	r4	
     b5e:	36 01 20 00 	mova	32(r1),	r6	;0x0020(r1)
     b62:	00 00       	bra	@r0		
     b64:	00 00       	bra	@r0		
     b66:	00 00       	bra	@r0		
     b68:	24 00 00 00 	mova	&0x00000,r4	
     b6c:	26 00 00 00 	mova	&0x00000,r6	
     b70:	3c 17       	popm	#4,	r15	
     b72:	00 00       	bra	@r0		
     b74:	24 00 39 01 	mova	&0x00139,r4	
     b78:	00 00       	bra	@r0		
     b7a:	00 00       	bra	@r0		
     b7c:	51 17       	popm	#6,	r6	
     b7e:	00 00       	bra	@r0		
     b80:	40 00       	rrcm.a	#1,	r0	
     b82:	38 01 0a 00 	mova	10(r1),	r8	;0x000a(r1)
     b86:	00 00       	bra	@r0		
     b88:	5b 17       	popm	#6,	r0	
     b8a:	00 00       	bra	@r0		
     b8c:	40 00       	rrcm.a	#1,	r0	
     b8e:	38 01 09 00 	mova	9(r1),	r8	;0x0009(r1)
     b92:	00 00       	bra	@r0		
     b94:	65 17       	popm	#7,	r11	
     b96:	00 00       	bra	@r0		
     b98:	40 00       	rrcm.a	#1,	r0	
     b9a:	38 01 08 00 	mova	8(r1),	r8	;0x0008(r1)
     b9e:	00 00       	bra	@r0		
     ba0:	70 17       	popm	#8,	r7	
     ba2:	00 00       	bra	@r0		
     ba4:	40 00       	rrcm.a	#1,	r0	
     ba6:	38 01 07 00 	mova	7(r1),	r8	;0x0007(r1)
     baa:	00 00       	bra	@r0		
     bac:	7b 17       	popm	#8,	r2	
     bae:	00 00       	bra	@r0		
     bb0:	a0 00 38 01 	adda	#0x00138,r0	
	...
     bbc:	44 00       	rrcm.a	#1,	r4	
     bbe:	39 01 00 00 	mova	0(r1),	r9	;0x0000(r1)
     bc2:	00 00       	bra	@r0		
     bc4:	00 00       	bra	@r0		
     bc6:	00 00       	bra	@r0		
     bc8:	44 00       	rrcm.a	#1,	r4	
     bca:	3c 01 1a 00 	mova	26(r1),	r12	;0x001a(r1)
     bce:	00 00       	bra	@r0		
     bd0:	00 00       	bra	@r0		
     bd2:	00 00       	bra	@r0		
     bd4:	44 00       	rrcm.a	#1,	r4	
     bd6:	3d 01 2a 00 	mova	42(r1),	r13	;0x002a(r1)
     bda:	00 00       	bra	@r0		
     bdc:	00 00       	bra	@r0		
     bde:	00 00       	bra	@r0		
     be0:	44 00       	rrcm.a	#1,	r4	
     be2:	3f 01 3c 00 	mova	60(r1),	r15	;0x003c(r1)
     be6:	00 00       	bra	@r0		
     be8:	00 00       	bra	@r0		
     bea:	00 00       	bra	@r0		
     bec:	44 00       	rrcm.a	#1,	r4	
     bee:	41 01       	rram.a	#1,	r1	
     bf0:	48 00       	rrcm.a	#1,	r8	
     bf2:	00 00       	bra	@r0		
     bf4:	00 00       	bra	@r0		
     bf6:	00 00       	bra	@r0		
     bf8:	44 00       	rrcm.a	#1,	r4	
     bfa:	42 01       	rram.a	#1,	r2	
     bfc:	5c 00       	rrcm	#1,	r12	
     bfe:	00 00       	bra	@r0		
     c00:	00 00       	bra	@r0		
     c02:	00 00       	bra	@r0		
     c04:	44 00       	rrcm.a	#1,	r4	
     c06:	44 01       	rram.a	#1,	r4	
     c08:	62 00 00 00 	mova	r0,	&0x20000
     c0c:	00 00       	bra	@r0		
     c0e:	00 00       	bra	@r0		
     c10:	44 00       	rrcm.a	#1,	r4	
     c12:	42 01       	rram.a	#1,	r2	
     c14:	6a 00 00 00 	mova	r0,	&0xa0000
     c18:	00 00       	bra	@r0		
     c1a:	00 00       	bra	@r0		
     c1c:	44 00       	rrcm.a	#1,	r4	
     c1e:	47 01       	rram.a	#1,	r7	
     c20:	70 00 00 00 	mova	r0,	0x0000	;PC rel. 0x00c22
     c24:	00 00       	bra	@r0		
     c26:	00 00       	bra	@r0		
     c28:	44 00       	rrcm.a	#1,	r4	
     c2a:	48 01       	rram.a	#1,	r8	
     c2c:	74 00 00 00 	mova	r0,	0(r4)	;0x0000(r4)
     c30:	00 00       	bra	@r0		
     c32:	00 00       	bra	@r0		
     c34:	44 00       	rrcm.a	#1,	r4	
     c36:	4a 01       	rram.a	#1,	r10	
     c38:	78 00 00 00 	mova	r0,	0(r8)	;0x0000(r8)
     c3c:	00 00       	bra	@r0		
     c3e:	00 00       	bra	@r0		
     c40:	44 00       	rrcm.a	#1,	r4	
     c42:	4b 01       	rram.a	#1,	r11	
     c44:	86 00 00 00 	mova	#0x00000,r6	
     c48:	00 00       	bra	@r0		
     c4a:	00 00       	bra	@r0		
     c4c:	44 00       	rrcm.a	#1,	r4	
     c4e:	4c 01       	rram.a	#1,	r12	
     c50:	94 00 00 00 	cmpa	#0x00000,r4	
     c54:	87 17       	popm	#9,	r15	
     c56:	00 00       	bra	@r0		
     c58:	40 00       	rrcm.a	#1,	r0	
     c5a:	38 01 0b 00 	mova	11(r1),	r8	;0x000b(r1)
     c5e:	00 00       	bra	@r0		
     c60:	93 17       	popm	#10,	r12	
     c62:	00 00       	bra	@r0		
     c64:	40 00       	rrcm.a	#1,	r0	
     c66:	3a 01 0a 00 	mova	10(r1),	r10	;0x000a(r1)
     c6a:	00 00       	bra	@r0		
     c6c:	9f 17       	popm	#10,	r8	
     c6e:	00 00       	bra	@r0		
     c70:	40 00       	rrcm.a	#1,	r0	
     c72:	3a 01 09 00 	mova	9(r1),	r10	;0x0009(r1)
     c76:	00 00       	bra	@r0		
     c78:	00 00       	bra	@r0		
     c7a:	00 00       	bra	@r0		
     c7c:	c0 00       	bra	r0		
     c7e:	00 00       	bra	@r0		
     c80:	1a 00       	mova	#0x00000,r10	
     c82:	00 00       	bra	@r0		
     c84:	00 00       	bra	@r0		
     c86:	00 00       	bra	@r0		
     c88:	e0 00       	adda	r0,	r0	
     c8a:	00 00       	bra	@r0		
     c8c:	94 00 00 00 	cmpa	#0x00000,r4	
     c90:	00 00       	bra	@r0		
     c92:	00 00       	bra	@r0		
     c94:	24 00 00 00 	mova	&0x00000,r4	
     c98:	a0 00 00 00 	adda	#0x00000,r0	
     c9c:	aa 17       	popm	#11,	r4	
     c9e:	00 00       	bra	@r0		
     ca0:	24 00 4f 01 	mova	&0x0014f,r4	
     ca4:	00 00       	bra	@r0		
     ca6:	00 00       	bra	@r0		
     ca8:	c1 17       	popm	#13,	r13	
     caa:	00 00       	bra	@r0		
     cac:	40 00       	rrcm.a	#1,	r0	
     cae:	4f 01       	rram.a	#1,	r15	
     cb0:	05 00       	mova	@r0,	r5	
     cb2:	00 00       	bra	@r0		
     cb4:	cb 17       	popm	#13,	r7	
     cb6:	00 00       	bra	@r0		
     cb8:	40 00       	rrcm.a	#1,	r0	
     cba:	4f 01       	rram.a	#1,	r15	
     cbc:	06 00       	mova	@r0,	r6	
     cbe:	00 00       	bra	@r0		
     cc0:	d5 17       	popm	#14,	r2	
     cc2:	00 00       	bra	@r0		
     cc4:	40 00       	rrcm.a	#1,	r0	
     cc6:	4f 01       	rram.a	#1,	r15	
     cc8:	0f 00       	mova	@r0,	r15	
     cca:	00 00       	bra	@r0		
     ccc:	e3 17       	popm	#15,	r1	
     cce:	00 00       	bra	@r0		
     cd0:	40 00       	rrcm.a	#1,	r0	
     cd2:	4f 01       	rram.a	#1,	r15	
     cd4:	08 00       	mova	@r0,	r8	
     cd6:	00 00       	bra	@r0		
     cd8:	f1 17       	popm	#16,	r0	
     cda:	00 00       	bra	@r0		
     cdc:	a0 00 4f 01 	adda	#0x0014f,r0	
	...
     ce8:	44 00       	rrcm.a	#1,	r4	
     cea:	4f 01       	rram.a	#1,	r15	
	...
     cf4:	44 00       	rrcm.a	#1,	r4	
     cf6:	50 01       	rram	#1,	r0	
     cf8:	22 00 00 00 	mova	&0x00000,r2	
     cfc:	00 00       	bra	@r0		
     cfe:	00 00       	bra	@r0		
     d00:	44 00       	rrcm.a	#1,	r4	
     d02:	51 01       	rram	#1,	r1	
     d04:	2a 00 00 00 	mova	&0x00000,r10	
     d08:	00 00       	bra	@r0		
     d0a:	00 00       	bra	@r0		
     d0c:	44 00       	rrcm.a	#1,	r4	
     d0e:	52 01       	rram	#1,	r2	
     d10:	2e 00 00 00 	mova	&0x00000,r14	
     d14:	00 00       	bra	@r0		
     d16:	00 00       	bra	@r0		
     d18:	44 00       	rrcm.a	#1,	r4	
     d1a:	53 01       	rram	#1,	#0	;r3 As==00
     d1c:	3e 00 00 00 	mova	0x0000,	r14	;PC rel. 0x00d1e
     d20:	00 00       	bra	@r0		
     d22:	00 00       	bra	@r0		
     d24:	44 00       	rrcm.a	#1,	r4	
     d26:	54 01       	rram	#1,	r4	
     d28:	40 00       	rrcm.a	#1,	r0	
     d2a:	00 00       	bra	@r0		
     d2c:	00 00       	bra	@r0		
     d2e:	00 00       	bra	@r0		
     d30:	44 00       	rrcm.a	#1,	r4	
     d32:	55 01       	rram	#1,	r5	
     d34:	42 00       	rrcm.a	#1,	r2	
     d36:	00 00       	bra	@r0		
     d38:	00 00       	bra	@r0		
     d3a:	00 00       	bra	@r0		
     d3c:	44 00       	rrcm.a	#1,	r4	
     d3e:	56 01       	rram	#1,	r6	
     d40:	5a 00       	rrcm	#1,	r10	
     d42:	00 00       	bra	@r0		
     d44:	00 00       	bra	@r0		
     d46:	00 00       	bra	@r0		
     d48:	44 00       	rrcm.a	#1,	r4	
     d4a:	57 01       	rram	#1,	r7	
     d4c:	72 00 00 00 	mova	r0,	&0x0000	
     d50:	00 00       	bra	@r0		
     d52:	00 00       	bra	@r0		
     d54:	44 00       	rrcm.a	#1,	r4	
     d56:	58 01       	rram	#1,	r8	
     d58:	8a 00 00 00 	mova	#0x00000,r10	
     d5c:	00 00       	bra	@r0		
     d5e:	00 00       	bra	@r0		
     d60:	44 00       	rrcm.a	#1,	r4	
     d62:	59 01       	rram	#1,	r9	
     d64:	a2 00 00 00 	adda	#0x00000,r2	
     d68:	00 00       	bra	@r0		
     d6a:	00 00       	bra	@r0		
     d6c:	44 00       	rrcm.a	#1,	r4	
     d6e:	5a 01       	rram	#1,	r10	
     d70:	a8 00 00 00 	adda	#0x00000,r8	
     d74:	00 00       	bra	@r0		
     d76:	00 00       	bra	@r0		
     d78:	44 00       	rrcm.a	#1,	r4	
     d7a:	5b 01       	rram	#1,	r11	
     d7c:	ae 00 00 00 	adda	#0x00000,r14	
     d80:	00 00       	bra	@r0		
     d82:	00 00       	bra	@r0		
     d84:	44 00       	rrcm.a	#1,	r4	
     d86:	5c 01       	rram	#1,	r12	
     d88:	b0 00 00 00 	suba	#0x00000,r0	
     d8c:	00 00       	bra	@r0		
     d8e:	00 00       	bra	@r0		
     d90:	44 00       	rrcm.a	#1,	r4	
     d92:	5d 01       	rram	#1,	r13	
     d94:	b4 00 00 00 	suba	#0x00000,r4	
     d98:	00 00       	bra	@r0		
     d9a:	00 00       	bra	@r0		
     d9c:	44 00       	rrcm.a	#1,	r4	
     d9e:	5f 01       	rram	#1,	r15	
     da0:	da 00       	cmpa	r0,	r10	
     da2:	00 00       	bra	@r0		
     da4:	00 00       	bra	@r0		
     da6:	00 00       	bra	@r0		
     da8:	44 00       	rrcm.a	#1,	r4	
     daa:	60 01 dc 00 	mova	r1,	&0x000dc
     dae:	00 00       	bra	@r0		
     db0:	00 00       	bra	@r0		
     db2:	00 00       	bra	@r0		
     db4:	44 00       	rrcm.a	#1,	r4	
     db6:	61 01 e0 00 	mova	r1,	&0x100e0
     dba:	00 00       	bra	@r0		
     dbc:	00 00       	bra	@r0		
     dbe:	00 00       	bra	@r0		
     dc0:	44 00       	rrcm.a	#1,	r4	
     dc2:	62 01 ea 00 	mova	r1,	&0x200ea
     dc6:	00 00       	bra	@r0		
     dc8:	00 00       	bra	@r0		
     dca:	00 00       	bra	@r0		
     dcc:	44 00       	rrcm.a	#1,	r4	
     dce:	63 01 fe 00 	mova	r1,	&0x300fe
     dd2:	00 00       	bra	@r0		
     dd4:	00 00       	bra	@r0		
     dd6:	00 00       	bra	@r0		
     dd8:	44 00       	rrcm.a	#1,	r4	
     dda:	64 01 12 01 	mova	r1,	&0x40112
     dde:	00 00       	bra	@r0		
     de0:	00 00       	bra	@r0		
     de2:	00 00       	bra	@r0		
     de4:	44 00       	rrcm.a	#1,	r4	
     de6:	65 01 22 01 	mova	r1,	&0x50122
     dea:	00 00       	bra	@r0		
     dec:	00 00       	bra	@r0		
     dee:	00 00       	bra	@r0		
     df0:	44 00       	rrcm.a	#1,	r4	
     df2:	66 01 32 01 	mova	r1,	&0x60132
     df6:	00 00       	bra	@r0		
     df8:	00 00       	bra	@r0		
     dfa:	00 00       	bra	@r0		
     dfc:	44 00       	rrcm.a	#1,	r4	
     dfe:	67 01 46 01 	mova	r1,	&0x70146
     e02:	00 00       	bra	@r0		
     e04:	00 00       	bra	@r0		
     e06:	00 00       	bra	@r0		
     e08:	44 00       	rrcm.a	#1,	r4	
     e0a:	68 01 56 01 	mova	r1,	&0x80156
     e0e:	00 00       	bra	@r0		
     e10:	00 00       	bra	@r0		
     e12:	00 00       	bra	@r0		
     e14:	44 00       	rrcm.a	#1,	r4	
     e16:	69 01 6a 01 	mova	r1,	&0x9016a
     e1a:	00 00       	bra	@r0		
     e1c:	00 00       	bra	@r0		
     e1e:	00 00       	bra	@r0		
     e20:	44 00       	rrcm.a	#1,	r4	
     e22:	6b 01 82 01 	mova	r1,	&0xb0182
     e26:	00 00       	bra	@r0		
     e28:	fe 17       	popm	#16,	r13	
     e2a:	00 00       	bra	@r0		
     e2c:	40 00       	rrcm.a	#1,	r0	
     e2e:	4f 01       	rram.a	#1,	r15	
     e30:	09 00       	mova	@r0,	r9	
     e32:	00 00       	bra	@r0		
     e34:	0b 18       	.word	0x180b;	????	
     e36:	00 00       	bra	@r0		
     e38:	80 00 50 01 	bra	#0x00150	
     e3c:	00 00       	bra	@r0		
     e3e:	00 00       	bra	@r0		
     e40:	13 18       	.word	0x1813;	????	
     e42:	00 00       	bra	@r0		
     e44:	80 00 51 01 	bra	#0x00151	
     e48:	02 00       	mova	@r0,	r2	
     e4a:	00 00       	bra	@r0		
     e4c:	1f 18       	.word	0x181f;	????	
     e4e:	00 00       	bra	@r0		
     e50:	80 00 52 01 	bra	#0x00152	
     e54:	04 00       	mova	@r0,	r4	
     e56:	00 00       	bra	@r0		
     e58:	2b 18       	.word	0x182b;	????	
     e5a:	00 00       	bra	@r0		
     e5c:	40 00       	rrcm.a	#1,	r0	
     e5e:	53 01       	rram	#1,	#0	;r3 As==00
     e60:	04 00       	mova	@r0,	r4	
     e62:	00 00       	bra	@r0		
     e64:	34 18       	.word	0x1834;	????	
     e66:	00 00       	bra	@r0		
     e68:	40 00       	rrcm.a	#1,	r0	
     e6a:	54 01       	rram	#1,	r4	
     e6c:	07 00       	mova	@r0,	r7	
     e6e:	00 00       	bra	@r0		
     e70:	00 00       	bra	@r0		
     e72:	00 00       	bra	@r0		
     e74:	c0 00       	bra	r0		
     e76:	00 00       	bra	@r0		
     e78:	22 00 00 00 	mova	&0x00000,r2	
     e7c:	00 00       	bra	@r0		
     e7e:	00 00       	bra	@r0		
     e80:	e0 00       	adda	r0,	r0	
     e82:	00 00       	bra	@r0		
     e84:	82 01 00 00 	mova	#0x10000,r2	
     e88:	00 00       	bra	@r0		
     e8a:	00 00       	bra	@r0		
     e8c:	24 00 00 00 	mova	&0x00000,r4	
     e90:	98 01 00 00 	cmpa	#0x10000,r8	
     e94:	3d 18       	.word	0x183d;	????	
     e96:	00 00       	bra	@r0		
     e98:	24 00 6d 01 	mova	&0x0016d,r4	
     e9c:	00 00       	bra	@r0		
     e9e:	00 00       	bra	@r0		
     ea0:	52 18       	.word	0x1852;	????	
     ea2:	00 00       	bra	@r0		
     ea4:	40 00       	rrcm.a	#1,	r0	
     ea6:	6d 01 09 00 	mova	r1,	&0xd0009
     eaa:	00 00       	bra	@r0		
     eac:	5c 18       	.word	0x185c;	????	
     eae:	00 00       	bra	@r0		
     eb0:	40 00       	rrcm.a	#1,	r0	
     eb2:	6d 01 0a 00 	mova	r1,	&0xd000a
     eb6:	00 00       	bra	@r0		
     eb8:	66 18       	.word	0x1866;	????	
     eba:	00 00       	bra	@r0		
     ebc:	a0 00 6d 01 	adda	#0x0016d,r0	
     ec0:	00 00       	bra	@r0		
     ec2:	00 00       	bra	@r0		
     ec4:	70 18       	.word	0x1870;	????	
     ec6:	00 00       	bra	@r0		
     ec8:	40 00       	rrcm.a	#1,	r0	
     eca:	6d 01 04 00 	mova	r1,	&0xd0004
     ece:	00 00       	bra	@r0		
     ed0:	7a 18       	.word	0x187a;	????	
     ed2:	00 00       	bra	@r0		
     ed4:	a0 00 6d 01 	adda	#0x0016d,r0	
     ed8:	00 00       	bra	@r0		
     eda:	00 00       	bra	@r0		
     edc:	87 18       	.word	0x1887;	????	
     ede:	00 00       	bra	@r0		
     ee0:	a0 00 6d 01 	adda	#0x0016d,r0	
     ee4:	02 00       	mova	@r0,	r2	
     ee6:	00 00       	bra	@r0		
     ee8:	00 00       	bra	@r0		
     eea:	00 00       	bra	@r0		
     eec:	44 00       	rrcm.a	#1,	r4	
     eee:	6d 01 00 00 	mova	r1,	&0xd0000
     ef2:	00 00       	bra	@r0		
     ef4:	00 00       	bra	@r0		
     ef6:	00 00       	bra	@r0		
     ef8:	44 00       	rrcm.a	#1,	r4	
     efa:	6e 01 2a 00 	mova	r1,	&0xe002a
     efe:	00 00       	bra	@r0		
     f00:	00 00       	bra	@r0		
     f02:	00 00       	bra	@r0		
     f04:	44 00       	rrcm.a	#1,	r4	
     f06:	6f 01 2e 00 	mova	r1,	&0xf002e
     f0a:	00 00       	bra	@r0		
     f0c:	00 00       	bra	@r0		
     f0e:	00 00       	bra	@r0		
     f10:	44 00       	rrcm.a	#1,	r4	
     f12:	71 01 32 00 	mova	r1,	50(r1)	;0x0032(r1)
     f16:	00 00       	bra	@r0		
     f18:	00 00       	bra	@r0		
     f1a:	00 00       	bra	@r0		
     f1c:	44 00       	rrcm.a	#1,	r4	
     f1e:	76 01 36 00 	mova	r1,	54(r6)	;0x0036(r6)
     f22:	00 00       	bra	@r0		
     f24:	00 00       	bra	@r0		
     f26:	00 00       	bra	@r0		
     f28:	44 00       	rrcm.a	#1,	r4	
     f2a:	78 01 3a 00 	mova	r1,	58(r8)	;0x003a(r8)
     f2e:	00 00       	bra	@r0		
     f30:	00 00       	bra	@r0		
     f32:	00 00       	bra	@r0		
     f34:	44 00       	rrcm.a	#1,	r4	
     f36:	7d 01 3e 00 	mova	r1,	62(r13)	;0x003e(r13)
     f3a:	00 00       	bra	@r0		
     f3c:	00 00       	bra	@r0		
     f3e:	00 00       	bra	@r0		
     f40:	44 00       	rrcm.a	#1,	r4	
     f42:	7f 01 42 00 	mova	r1,	66(r15)	;0x0042(r15)
     f46:	00 00       	bra	@r0		
     f48:	00 00       	bra	@r0		
     f4a:	00 00       	bra	@r0		
     f4c:	44 00       	rrcm.a	#1,	r4	
     f4e:	80 01 44 00 	bra	#0x10044	
     f52:	00 00       	bra	@r0		
     f54:	00 00       	bra	@r0		
     f56:	00 00       	bra	@r0		
     f58:	44 00       	rrcm.a	#1,	r4	
     f5a:	81 01 46 00 	mova	#0x10046,r1	
     f5e:	00 00       	bra	@r0		
     f60:	00 00       	bra	@r0		
     f62:	00 00       	bra	@r0		
     f64:	44 00       	rrcm.a	#1,	r4	
     f66:	83 01       	.word	0x0183;	????	Illegal as address instr
     f68:	54 00       	rrcm	#1,	r4	
     f6a:	00 00       	bra	@r0		
     f6c:	00 00       	bra	@r0		
     f6e:	00 00       	bra	@r0		
     f70:	44 00       	rrcm.a	#1,	r4	
     f72:	84 01 5a 00 	mova	#0x1005a,r4	
     f76:	00 00       	bra	@r0		
     f78:	00 00       	bra	@r0		
     f7a:	00 00       	bra	@r0		
     f7c:	44 00       	rrcm.a	#1,	r4	
     f7e:	85 01 62 00 	mova	#0x10062,r5	
     f82:	00 00       	bra	@r0		
     f84:	00 00       	bra	@r0		
     f86:	00 00       	bra	@r0		
     f88:	44 00       	rrcm.a	#1,	r4	
     f8a:	86 01 66 00 	mova	#0x10066,r6	
     f8e:	00 00       	bra	@r0		
     f90:	00 00       	bra	@r0		
     f92:	00 00       	bra	@r0		
     f94:	44 00       	rrcm.a	#1,	r4	
     f96:	87 01 6a 00 	mova	#0x1006a,r7	
     f9a:	00 00       	bra	@r0		
     f9c:	00 00       	bra	@r0		
     f9e:	00 00       	bra	@r0		
     fa0:	44 00       	rrcm.a	#1,	r4	
     fa2:	88 01 6e 00 	mova	#0x1006e,r8	
     fa6:	00 00       	bra	@r0		
     fa8:	00 00       	bra	@r0		
     faa:	00 00       	bra	@r0		
     fac:	44 00       	rrcm.a	#1,	r4	
     fae:	8a 01 70 00 	mova	#0x10070,r10	
     fb2:	00 00       	bra	@r0		
     fb4:	00 00       	bra	@r0		
     fb6:	00 00       	bra	@r0		
     fb8:	44 00       	rrcm.a	#1,	r4	
     fba:	8b 01 74 00 	mova	#0x10074,r11	
     fbe:	00 00       	bra	@r0		
     fc0:	00 00       	bra	@r0		
     fc2:	00 00       	bra	@r0		
     fc4:	44 00       	rrcm.a	#1,	r4	
     fc6:	8c 01 76 00 	mova	#0x10076,r12	
     fca:	00 00       	bra	@r0		
     fcc:	00 00       	bra	@r0		
     fce:	00 00       	bra	@r0		
     fd0:	44 00       	rrcm.a	#1,	r4	
     fd2:	90 01 8c 00 	cmpa	#0x1008c,r0	
     fd6:	00 00       	bra	@r0		
     fd8:	00 00       	bra	@r0		
     fda:	00 00       	bra	@r0		
     fdc:	44 00       	rrcm.a	#1,	r4	
     fde:	91 01 94 00 	cmpa	#0x10094,r1	
     fe2:	00 00       	bra	@r0		
     fe4:	00 00       	bra	@r0		
     fe6:	00 00       	bra	@r0		
     fe8:	44 00       	rrcm.a	#1,	r4	
     fea:	92 01 98 00 	cmpa	#0x10098,r2	
     fee:	00 00       	bra	@r0		
     ff0:	00 00       	bra	@r0		
     ff2:	00 00       	bra	@r0		
     ff4:	44 00       	rrcm.a	#1,	r4	
     ff6:	93 01       	.word	0x0193;	????	Illegal as address instr
     ff8:	9c 00 00 00 	cmpa	#0x00000,r12	
     ffc:	00 00       	bra	@r0		
     ffe:	00 00       	bra	@r0		
    1000:	44 00       	rrcm.a	#1,	r4	
    1002:	94 01 a0 00 	cmpa	#0x100a0,r4	
    1006:	00 00       	bra	@r0		
    1008:	00 00       	bra	@r0		
    100a:	00 00       	bra	@r0		
    100c:	44 00       	rrcm.a	#1,	r4	
    100e:	96 01 a2 00 	cmpa	#0x100a2,r6	
    1012:	00 00       	bra	@r0		
    1014:	00 00       	bra	@r0		
    1016:	00 00       	bra	@r0		
    1018:	44 00       	rrcm.a	#1,	r4	
    101a:	97 01 a6 00 	cmpa	#0x100a6,r7	
    101e:	00 00       	bra	@r0		
    1020:	00 00       	bra	@r0		
    1022:	00 00       	bra	@r0		
    1024:	44 00       	rrcm.a	#1,	r4	
    1026:	98 01 a8 00 	cmpa	#0x100a8,r8	
    102a:	00 00       	bra	@r0		
    102c:	00 00       	bra	@r0		
    102e:	00 00       	bra	@r0		
    1030:	44 00       	rrcm.a	#1,	r4	
    1032:	79 01 be 00 	mova	r1,	190(r9)	;0x00be(r9)
    1036:	00 00       	bra	@r0		
    1038:	00 00       	bra	@r0		
    103a:	00 00       	bra	@r0		
    103c:	44 00       	rrcm.a	#1,	r4	
    103e:	7a 01 c2 00 	mova	r1,	194(r10);0x00c2(r10)
    1042:	00 00       	bra	@r0		
    1044:	00 00       	bra	@r0		
    1046:	00 00       	bra	@r0		
    1048:	44 00       	rrcm.a	#1,	r4	
    104a:	72 01 c8 00 	mova	r1,	&0x00c8	
    104e:	00 00       	bra	@r0		
    1050:	00 00       	bra	@r0		
    1052:	00 00       	bra	@r0		
    1054:	44 00       	rrcm.a	#1,	r4	
    1056:	73 01       	.word	0x0173;	????	Illegal as address instr
    1058:	cc 00       	mova	r0,	r12	
    105a:	00 00       	bra	@r0		
    105c:	00 00       	bra	@r0		
    105e:	00 00       	bra	@r0		
    1060:	44 00       	rrcm.a	#1,	r4	
    1062:	9b 01 d2 00 	cmpa	#0x100d2,r11	
    1066:	00 00       	bra	@r0		
    1068:	94 18       	.word	0x1894;	????	
    106a:	00 00       	bra	@r0		
    106c:	40 00       	rrcm.a	#1,	r0	
    106e:	6d 01 05 00 	mova	r1,	&0xd0005
    1072:	00 00       	bra	@r0		
    1074:	a1 18       	.word	0x18a1;	????	
    1076:	00 00       	bra	@r0		
    1078:	40 00       	rrcm.a	#1,	r0	
    107a:	6d 01 06 00 	mova	r1,	&0xd0006
    107e:	00 00       	bra	@r0		
    1080:	ae 18       	.word	0x18ae;	????	
    1082:	00 00       	bra	@r0		
    1084:	40 00       	rrcm.a	#1,	r0	
    1086:	6e 01 07 00 	mova	r1,	&0xe0007
    108a:	00 00       	bra	@r0		
    108c:	b8 18       	.word	0x18b8;	????	
    108e:	00 00       	bra	@r0		
    1090:	40 00       	rrcm.a	#1,	r0	
    1092:	6f 01 08 00 	mova	r1,	&0xf0008
    1096:	00 00       	bra	@r0		
    1098:	c2 18       	.word	0x18c2;	????	
    109a:	00 00       	bra	@r0		
    109c:	80 00 70 01 	bra	#0x00170	
    10a0:	02 00       	mova	@r0,	r2	
    10a2:	00 00       	bra	@r0		
    10a4:	ce 18       	.word	0x18ce;	????	
    10a6:	00 00       	bra	@r0		
    10a8:	80 00 70 01 	bra	#0x00170	
    10ac:	04 00       	mova	@r0,	r4	
    10ae:	00 00       	bra	@r0		
    10b0:	00 00       	bra	@r0		
    10b2:	00 00       	bra	@r0		
    10b4:	c0 00       	bra	r0		
    10b6:	00 00       	bra	@r0		
    10b8:	2a 00 00 00 	mova	&0x00000,r10	
    10bc:	da 18       	.word	0x18da;	????	
    10be:	00 00       	bra	@r0		
    10c0:	40 00       	rrcm.a	#1,	r0	
    10c2:	84 01 0b 00 	mova	#0x1000b,r4	
    10c6:	00 00       	bra	@r0		
    10c8:	00 00       	bra	@r0		
    10ca:	00 00       	bra	@r0		
    10cc:	c0 00       	bra	r0		
    10ce:	00 00       	bra	@r0		
    10d0:	5a 00       	rrcm	#1,	r10	
    10d2:	00 00       	bra	@r0		
    10d4:	00 00       	bra	@r0		
    10d6:	00 00       	bra	@r0		
    10d8:	e0 00       	adda	r0,	r0	
    10da:	00 00       	bra	@r0		
    10dc:	8c 00 00 00 	mova	#0x00000,r12	
    10e0:	ea 18       	.word	0x18ea;	????	
    10e2:	00 00       	bra	@r0		
    10e4:	40 00       	rrcm.a	#1,	r0	
    10e6:	90 01 0b 00 	cmpa	#0x1000b,r0	
    10ea:	00 00       	bra	@r0		
    10ec:	00 00       	bra	@r0		
    10ee:	00 00       	bra	@r0		
    10f0:	c0 00       	bra	r0		
    10f2:	00 00       	bra	@r0		
    10f4:	8c 00 00 00 	mova	#0x00000,r12	
    10f8:	00 00       	bra	@r0		
    10fa:	00 00       	bra	@r0		
    10fc:	e0 00       	adda	r0,	r0	
    10fe:	00 00       	bra	@r0		
    1100:	be 00 00 00 	suba	#0x00000,r14	
    1104:	00 00       	bra	@r0		
    1106:	00 00       	bra	@r0		
    1108:	e0 00       	adda	r0,	r0	
    110a:	00 00       	bra	@r0		
    110c:	d2 00       	cmpa	r0,	r2	
    110e:	00 00       	bra	@r0		
    1110:	00 00       	bra	@r0		
    1112:	00 00       	bra	@r0		
    1114:	24 00 00 00 	mova	&0x00000,r4	
    1118:	e8 00       	adda	r0,	r8	
    111a:	00 00       	bra	@r0		
    111c:	fa 18       	.word	0x18fa;	????	
    111e:	00 00       	bra	@r0		
    1120:	24 00 9e 01 	mova	&0x0019e,r4	
    1124:	00 00       	bra	@r0		
    1126:	00 00       	bra	@r0		
    1128:	0e 19       	.word	0x190e;	????	
    112a:	00 00       	bra	@r0		
    112c:	40 00       	rrcm.a	#1,	r0	
    112e:	9d 01 0a 00 	cmpa	#0x1000a,r13	
    1132:	00 00       	bra	@r0		
    1134:	18 19       	.word	0x1918;	????	
    1136:	00 00       	bra	@r0		
    1138:	40 00       	rrcm.a	#1,	r0	
    113a:	9d 01 09 00 	cmpa	#0x10009,r13	
    113e:	00 00       	bra	@r0		
    1140:	22 19       	.word	0x1922;	????	
    1142:	00 00       	bra	@r0		
    1144:	40 00       	rrcm.a	#1,	r0	
    1146:	9d 01 08 00 	cmpa	#0x10008,r13	
    114a:	00 00       	bra	@r0		
    114c:	2d 19       	.word	0x192d;	????	
    114e:	00 00       	bra	@r0		
    1150:	40 00       	rrcm.a	#1,	r0	
    1152:	9d 01 07 00 	cmpa	#0x10007,r13	
    1156:	00 00       	bra	@r0		
    1158:	38 19       	.word	0x1938;	????	
    115a:	00 00       	bra	@r0		
    115c:	a0 00 9d 01 	adda	#0x0019d,r0	
	...
    1168:	44 00       	rrcm.a	#1,	r4	
    116a:	9e 01 00 00 	cmpa	#0x10000,r14	
    116e:	00 00       	bra	@r0		
    1170:	00 00       	bra	@r0		
    1172:	00 00       	bra	@r0		
    1174:	44 00       	rrcm.a	#1,	r4	
    1176:	a1 01 1a 00 	adda	#0x1001a,r1	
    117a:	00 00       	bra	@r0		
    117c:	00 00       	bra	@r0		
    117e:	00 00       	bra	@r0		
    1180:	44 00       	rrcm.a	#1,	r4	
    1182:	a2 01 2a 00 	adda	#0x1002a,r2	
    1186:	00 00       	bra	@r0		
    1188:	00 00       	bra	@r0		
    118a:	00 00       	bra	@r0		
    118c:	44 00       	rrcm.a	#1,	r4	
    118e:	a4 01 3c 00 	adda	#0x1003c,r4	
    1192:	00 00       	bra	@r0		
    1194:	00 00       	bra	@r0		
    1196:	00 00       	bra	@r0		
    1198:	44 00       	rrcm.a	#1,	r4	
    119a:	a6 01 48 00 	adda	#0x10048,r6	
    119e:	00 00       	bra	@r0		
    11a0:	00 00       	bra	@r0		
    11a2:	00 00       	bra	@r0		
    11a4:	44 00       	rrcm.a	#1,	r4	
    11a6:	a7 01 5c 00 	adda	#0x1005c,r7	
    11aa:	00 00       	bra	@r0		
    11ac:	00 00       	bra	@r0		
    11ae:	00 00       	bra	@r0		
    11b0:	44 00       	rrcm.a	#1,	r4	
    11b2:	a9 01 62 00 	adda	#0x10062,r9	
    11b6:	00 00       	bra	@r0		
    11b8:	00 00       	bra	@r0		
    11ba:	00 00       	bra	@r0		
    11bc:	44 00       	rrcm.a	#1,	r4	
    11be:	a7 01 6e 00 	adda	#0x1006e,r7	
    11c2:	00 00       	bra	@r0		
    11c4:	00 00       	bra	@r0		
    11c6:	00 00       	bra	@r0		
    11c8:	44 00       	rrcm.a	#1,	r4	
    11ca:	ac 01 74 00 	adda	#0x10074,r12	
    11ce:	00 00       	bra	@r0		
    11d0:	00 00       	bra	@r0		
    11d2:	00 00       	bra	@r0		
    11d4:	44 00       	rrcm.a	#1,	r4	
    11d6:	ad 01 78 00 	adda	#0x10078,r13	
    11da:	00 00       	bra	@r0		
    11dc:	00 00       	bra	@r0		
    11de:	00 00       	bra	@r0		
    11e0:	44 00       	rrcm.a	#1,	r4	
    11e2:	af 01 7c 00 	adda	#0x1007c,r15	
    11e6:	00 00       	bra	@r0		
    11e8:	00 00       	bra	@r0		
    11ea:	00 00       	bra	@r0		
    11ec:	44 00       	rrcm.a	#1,	r4	
    11ee:	b0 01 8a 00 	suba	#0x1008a,r0	
    11f2:	00 00       	bra	@r0		
    11f4:	00 00       	bra	@r0		
    11f6:	00 00       	bra	@r0		
    11f8:	44 00       	rrcm.a	#1,	r4	
    11fa:	b1 01 98 00 	suba	#0x10098,r1	
    11fe:	00 00       	bra	@r0		
    1200:	49 19       	.word	0x1949;	????	
    1202:	00 00       	bra	@r0		
    1204:	40 00       	rrcm.a	#1,	r0	
    1206:	9d 01 0b 00 	cmpa	#0x1000b,r13	
    120a:	00 00       	bra	@r0		
    120c:	52 19       	.word	0x1952;	????	
    120e:	00 00       	bra	@r0		
    1210:	40 00       	rrcm.a	#1,	r0	
    1212:	9f 01 0a 00 	cmpa	#0x1000a,r15	
    1216:	00 00       	bra	@r0		
    1218:	5e 19       	.word	0x195e;	????	
    121a:	00 00       	bra	@r0		
    121c:	40 00       	rrcm.a	#1,	r0	
    121e:	9f 01 09 00 	cmpa	#0x10009,r15	
    1222:	00 00       	bra	@r0		
    1224:	00 00       	bra	@r0		
    1226:	00 00       	bra	@r0		
    1228:	c0 00       	bra	r0		
    122a:	00 00       	bra	@r0		
    122c:	1a 00       	mova	#0x00000,r10	
    122e:	00 00       	bra	@r0		
    1230:	00 00       	bra	@r0		
    1232:	00 00       	bra	@r0		
    1234:	e0 00       	adda	r0,	r0	
    1236:	00 00       	bra	@r0		
    1238:	98 00 00 00 	cmpa	#0x00000,r8	
    123c:	00 00       	bra	@r0		
    123e:	00 00       	bra	@r0		
    1240:	24 00 00 00 	mova	&0x00000,r4	
    1244:	a4 00 00 00 	adda	#0x00000,r4	
    1248:	69 19       	.word	0x1969;	????	
    124a:	00 00       	bra	@r0		
    124c:	24 00 b4 01 	mova	&0x001b4,r4	
	...
    1258:	44 00       	rrcm.a	#1,	r4	
    125a:	b4 01 00 00 	suba	#0x10000,r4	
    125e:	00 00       	bra	@r0		
    1260:	00 00       	bra	@r0		
    1262:	00 00       	bra	@r0		
    1264:	44 00       	rrcm.a	#1,	r4	
    1266:	b5 01 00 00 	suba	#0x10000,r5	
    126a:	00 00       	bra	@r0		
    126c:	00 00       	bra	@r0		
    126e:	00 00       	bra	@r0		
    1270:	44 00       	rrcm.a	#1,	r4	
    1272:	b6 01 0c 00 	suba	#0x1000c,r6	
    1276:	00 00       	bra	@r0		
    1278:	00 00       	bra	@r0		
    127a:	00 00       	bra	@r0		
    127c:	44 00       	rrcm.a	#1,	r4	
    127e:	b8 01 10 00 	suba	#0x10010,r8	
    1282:	00 00       	bra	@r0		
    1284:	00 00       	bra	@r0		
    1286:	00 00       	bra	@r0		
    1288:	44 00       	rrcm.a	#1,	r4	
    128a:	b9 01 14 00 	suba	#0x10014,r9	
    128e:	00 00       	bra	@r0		
    1290:	00 00       	bra	@r0		
    1292:	00 00       	bra	@r0		
    1294:	24 00 00 00 	mova	&0x00000,r4	
    1298:	16 00       	mova	#0x00000,r6	
    129a:	00 00       	bra	@r0		
    129c:	7d 19       	.word	0x197d;	????	
    129e:	00 00       	bra	@r0		
    12a0:	24 00 bc 01 	mova	&0x001bc,r4	
    12a4:	00 00       	bra	@r0		
    12a6:	00 00       	bra	@r0		
    12a8:	8e 19       	.word	0x198e;	????	
    12aa:	00 00       	bra	@r0		
    12ac:	40 00       	rrcm.a	#1,	r0	
    12ae:	bb 01 0f 00 	suba	#0x1000f,r11	
    12b2:	00 00       	bra	@r0		
    12b4:	98 19       	.word	0x1998;	????	
    12b6:	00 00       	bra	@r0		
    12b8:	40 00       	rrcm.a	#1,	r0	
    12ba:	bb 01 0e 00 	suba	#0x1000e,r11	
    12be:	00 00       	bra	@r0		
    12c0:	00 00       	bra	@r0		
    12c2:	00 00       	bra	@r0		
    12c4:	44 00       	rrcm.a	#1,	r4	
    12c6:	bc 01 00 00 	suba	#0x10000,r12	
    12ca:	00 00       	bra	@r0		
    12cc:	00 00       	bra	@r0		
    12ce:	00 00       	bra	@r0		
    12d0:	44 00       	rrcm.a	#1,	r4	
    12d2:	bd 01 00 00 	suba	#0x10000,r13	
    12d6:	00 00       	bra	@r0		
    12d8:	00 00       	bra	@r0		
    12da:	00 00       	bra	@r0		
    12dc:	44 00       	rrcm.a	#1,	r4	
    12de:	be 01 08 00 	suba	#0x10008,r14	
    12e2:	00 00       	bra	@r0		
    12e4:	00 00       	bra	@r0		
    12e6:	00 00       	bra	@r0		
    12e8:	44 00       	rrcm.a	#1,	r4	
    12ea:	c0 01       	bra	r1		
    12ec:	10 00       	bra	#0x00000	
    12ee:	00 00       	bra	@r0		
    12f0:	00 00       	bra	@r0		
    12f2:	00 00       	bra	@r0		
    12f4:	44 00       	rrcm.a	#1,	r4	
    12f6:	c1 01       	mova	r1,	r1	
    12f8:	14 00       	mova	#0x00000,r4	
    12fa:	00 00       	bra	@r0		
    12fc:	00 00       	bra	@r0		
    12fe:	00 00       	bra	@r0		
    1300:	44 00       	rrcm.a	#1,	r4	
    1302:	c2 01       	mova	r1,	r2	
    1304:	18 00       	mova	#0x00000,r8	
    1306:	00 00       	bra	@r0		
    1308:	00 00       	bra	@r0		
    130a:	00 00       	bra	@r0		
    130c:	24 00 00 00 	mova	&0x00000,r4	
    1310:	1a 00       	mova	#0x00000,r10	
    1312:	00 00       	bra	@r0		
    1314:	a2 19       	.word	0x19a2;	????	
    1316:	00 00       	bra	@r0		
    1318:	24 00 c5 01 	mova	&0x001c5,r4	
    131c:	00 00       	bra	@r0		
    131e:	00 00       	bra	@r0		
    1320:	b5 19       	.word	0x19b5;	????	
    1322:	00 00       	bra	@r0		
    1324:	40 00       	rrcm.a	#1,	r0	
    1326:	c4 01       	mova	r1,	r4	
    1328:	0b 00       	mova	@r0,	r11	
    132a:	00 00       	bra	@r0		
    132c:	00 00       	bra	@r0		
    132e:	00 00       	bra	@r0		
    1330:	44 00       	rrcm.a	#1,	r4	
    1332:	c5 01       	mova	r1,	r5	
	...
    133c:	44 00       	rrcm.a	#1,	r4	
    133e:	ca 01       	mova	r1,	r10	
    1340:	0e 00       	mova	@r0,	r14	
    1342:	00 00       	bra	@r0		
    1344:	00 00       	bra	@r0		
    1346:	00 00       	bra	@r0		
    1348:	44 00       	rrcm.a	#1,	r4	
    134a:	cb 01       	mova	r1,	r11	
    134c:	1e 00       	mova	#0x00000,r14	
    134e:	00 00       	bra	@r0		
    1350:	00 00       	bra	@r0		
    1352:	00 00       	bra	@r0		
    1354:	44 00       	rrcm.a	#1,	r4	
    1356:	cc 01       	mova	r1,	r12	
    1358:	2c 00 00 00 	mova	&0x00000,r12	
    135c:	00 00       	bra	@r0		
    135e:	00 00       	bra	@r0		
    1360:	44 00       	rrcm.a	#1,	r4	
    1362:	cd 01       	mova	r1,	r13	
    1364:	3a 00 00 00 	mova	0x0000,	r10	;PC rel. 0x01366
    1368:	00 00       	bra	@r0		
    136a:	00 00       	bra	@r0		
    136c:	44 00       	rrcm.a	#1,	r4	
    136e:	d0 01       	cmpa	r1,	r0	
    1370:	4a 00       	rrcm.a	#1,	r10	
    1372:	00 00       	bra	@r0		
    1374:	00 00       	bra	@r0		
    1376:	00 00       	bra	@r0		
    1378:	44 00       	rrcm.a	#1,	r4	
    137a:	d1 01       	cmpa	r1,	r1	
    137c:	4c 00       	rrcm.a	#1,	r12	
    137e:	00 00       	bra	@r0		
    1380:	00 00       	bra	@r0		
    1382:	00 00       	bra	@r0		
    1384:	44 00       	rrcm.a	#1,	r4	
    1386:	d3 01       	.word	0x01d3;	????	Illegal as address instr
    1388:	56 00       	rrcm	#1,	r6	
    138a:	00 00       	bra	@r0		
    138c:	00 00       	bra	@r0		
    138e:	00 00       	bra	@r0		
    1390:	44 00       	rrcm.a	#1,	r4	
    1392:	d5 01       	cmpa	r1,	r5	
    1394:	5c 00       	rrcm	#1,	r12	
    1396:	00 00       	bra	@r0		
    1398:	00 00       	bra	@r0		
    139a:	00 00       	bra	@r0		
    139c:	44 00       	rrcm.a	#1,	r4	
    139e:	d6 01       	cmpa	r1,	r6	
    13a0:	68 00 00 00 	mova	r0,	&0x80000
    13a4:	00 00       	bra	@r0		
    13a6:	00 00       	bra	@r0		
    13a8:	44 00       	rrcm.a	#1,	r4	
    13aa:	d8 01       	cmpa	r1,	r8	
    13ac:	6e 00 00 00 	mova	r0,	&0xe0000
    13b0:	00 00       	bra	@r0		
    13b2:	00 00       	bra	@r0		
    13b4:	44 00       	rrcm.a	#1,	r4	
    13b6:	d9 01       	cmpa	r1,	r9	
    13b8:	72 00 00 00 	mova	r0,	&0x0000	
    13bc:	00 00       	bra	@r0		
    13be:	00 00       	bra	@r0		
    13c0:	44 00       	rrcm.a	#1,	r4	
    13c2:	d6 01       	cmpa	r1,	r6	
    13c4:	80 00 00 00 	bra	#0x00000	
    13c8:	00 00       	bra	@r0		
    13ca:	00 00       	bra	@r0		
    13cc:	44 00       	rrcm.a	#1,	r4	
    13ce:	dc 01       	cmpa	r1,	r12	
    13d0:	92 00 00 00 	cmpa	#0x00000,r2	
    13d4:	00 00       	bra	@r0		
    13d6:	00 00       	bra	@r0		
    13d8:	44 00       	rrcm.a	#1,	r4	
    13da:	dd 01       	cmpa	r1,	r13	
    13dc:	9c 00 00 00 	cmpa	#0x00000,r12	
    13e0:	00 00       	bra	@r0		
    13e2:	00 00       	bra	@r0		
    13e4:	44 00       	rrcm.a	#1,	r4	
    13e6:	d3 01       	.word	0x01d3;	????	Illegal as address instr
    13e8:	9e 00 00 00 	cmpa	#0x00000,r14	
    13ec:	00 00       	bra	@r0		
    13ee:	00 00       	bra	@r0		
    13f0:	44 00       	rrcm.a	#1,	r4	
    13f2:	df 01       	cmpa	r1,	r15	
    13f4:	a4 00 00 00 	adda	#0x00000,r4	
    13f8:	bf 19       	.word	0x19bf;	????	
    13fa:	00 00       	bra	@r0		
    13fc:	40 00       	rrcm.a	#1,	r0	
    13fe:	c7 01       	mova	r1,	r7	
    1400:	0a 00       	mova	@r0,	r10	
    1402:	00 00       	bra	@r0		
    1404:	c9 19       	.word	0x19c9;	????	
    1406:	00 00       	bra	@r0		
    1408:	40 00       	rrcm.a	#1,	r0	
    140a:	c7 01       	mova	r1,	r7	
    140c:	07 00       	mova	@r0,	r7	
    140e:	00 00       	bra	@r0		
    1410:	d3 19       	.word	0x19d3;	????	
    1412:	00 00       	bra	@r0		
    1414:	40 00       	rrcm.a	#1,	r0	
    1416:	c7 01       	mova	r1,	r7	
    1418:	08 00       	mova	@r0,	r8	
    141a:	00 00       	bra	@r0		
    141c:	00 00       	bra	@r0		
    141e:	00 00       	bra	@r0		
    1420:	c0 00       	bra	r0		
    1422:	00 00       	bra	@r0		
    1424:	0e 00       	mova	@r0,	r14	
    1426:	00 00       	bra	@r0		
    1428:	00 00       	bra	@r0		
    142a:	00 00       	bra	@r0		
    142c:	e0 00       	adda	r0,	r0	
    142e:	00 00       	bra	@r0		
    1430:	a4 00 00 00 	adda	#0x00000,r4	
    1434:	00 00       	bra	@r0		
    1436:	00 00       	bra	@r0		
    1438:	24 00 00 00 	mova	&0x00000,r4	
    143c:	b2 00 00 00 	suba	#0x00000,r2	
    1440:	e0 19       	.word	0x19e0;	????	
    1442:	00 00       	bra	@r0		
    1444:	24 00 e2 01 	mova	&0x001e2,r4	
    1448:	00 00       	bra	@r0		
    144a:	00 00       	bra	@r0		
    144c:	f4 19       	.word	0x19f4;	????	
    144e:	00 00       	bra	@r0		
    1450:	40 00       	rrcm.a	#1,	r0	
    1452:	e1 01       	adda	r1,	r1	
    1454:	0b 00       	mova	@r0,	r11	
    1456:	00 00       	bra	@r0		
    1458:	00 00       	bra	@r0		
    145a:	00 00       	bra	@r0		
    145c:	44 00       	rrcm.a	#1,	r4	
    145e:	e2 01       	adda	r1,	r2	
	...
    1468:	44 00       	rrcm.a	#1,	r4	
    146a:	e3 01       	.word	0x01e3;	????	Illegal as address instr
    146c:	04 00       	mova	@r0,	r4	
    146e:	00 00       	bra	@r0		
    1470:	00 00       	bra	@r0		
    1472:	00 00       	bra	@r0		
    1474:	44 00       	rrcm.a	#1,	r4	
    1476:	e9 01       	adda	r1,	r9	
    1478:	12 00       	mova	#0x00000,r2	
    147a:	00 00       	bra	@r0		
    147c:	00 00       	bra	@r0		
    147e:	00 00       	bra	@r0		
    1480:	44 00       	rrcm.a	#1,	r4	
    1482:	ec 01       	adda	r1,	r12	
    1484:	28 00 00 00 	mova	&0x00000,r8	
    1488:	00 00       	bra	@r0		
    148a:	00 00       	bra	@r0		
    148c:	44 00       	rrcm.a	#1,	r4	
    148e:	ed 01       	adda	r1,	r13	
    1490:	2c 00 00 00 	mova	&0x00000,r12	
    1494:	00 00       	bra	@r0		
    1496:	00 00       	bra	@r0		
    1498:	44 00       	rrcm.a	#1,	r4	
    149a:	ee 01       	adda	r1,	r14	
    149c:	32 00 00 00 	mova	0x0000,	r2	;PC rel. 0x0149e
    14a0:	00 00       	bra	@r0		
    14a2:	00 00       	bra	@r0		
    14a4:	44 00       	rrcm.a	#1,	r4	
    14a6:	e7 01       	adda	r1,	r7	
    14a8:	38 00 00 00 	mova	0x0000,	r8	;PC rel. 0x014aa
    14ac:	00 00       	bra	@r0		
    14ae:	00 00       	bra	@r0		
    14b0:	44 00       	rrcm.a	#1,	r4	
    14b2:	e8 01       	adda	r1,	r8	
    14b4:	3c 00 00 00 	mova	0x0000,	r12	;PC rel. 0x014b6
    14b8:	00 00       	bra	@r0		
    14ba:	00 00       	bra	@r0		
    14bc:	44 00       	rrcm.a	#1,	r4	
    14be:	e5 01       	adda	r1,	r5	
    14c0:	3e 00 00 00 	mova	0x0000,	r14	;PC rel. 0x014c2
    14c4:	00 00       	bra	@r0		
    14c6:	00 00       	bra	@r0		
    14c8:	44 00       	rrcm.a	#1,	r4	
    14ca:	f1 01       	suba	r1,	r1	
    14cc:	42 00       	rrcm.a	#1,	r2	
    14ce:	00 00       	bra	@r0		
    14d0:	00 00       	bra	@r0		
    14d2:	00 00       	bra	@r0		
    14d4:	24 00 00 00 	mova	&0x00000,r4	
    14d8:	46 00       	rrcm.a	#1,	r6	
    14da:	00 00       	bra	@r0		
    14dc:	fe 19       	.word	0x19fe;	????	
    14de:	00 00       	bra	@r0		
    14e0:	24 00 f3 01 	mova	&0x001f3,r4	
    14e4:	00 00       	bra	@r0		
    14e6:	00 00       	bra	@r0		
    14e8:	1a 1a       	.word	0x1a1a;	????	
    14ea:	00 00       	bra	@r0		
    14ec:	40 00       	rrcm.a	#1,	r0	
    14ee:	f3 01       	.word	0x01f3;	????	Illegal as address instr
    14f0:	08 00       	mova	@r0,	r8	
    14f2:	00 00       	bra	@r0		
    14f4:	24 1a       	.word	0x1a24;	????	
    14f6:	00 00       	bra	@r0		
    14f8:	40 00       	rrcm.a	#1,	r0	
    14fa:	f3 01       	.word	0x01f3;	????	Illegal as address instr
    14fc:	05 00       	mova	@r0,	r5	
    14fe:	00 00       	bra	@r0		
    1500:	2e 1a       	.word	0x1a2e;	????	
    1502:	00 00       	bra	@r0		
    1504:	40 00       	rrcm.a	#1,	r0	
    1506:	f3 01       	.word	0x01f3;	????	Illegal as address instr
    1508:	06 00       	mova	@r0,	r6	
    150a:	00 00       	bra	@r0		
    150c:	38 1a       	.word	0x1a38;	????	
    150e:	00 00       	bra	@r0		
    1510:	40 00       	rrcm.a	#1,	r0	
    1512:	f3 01       	.word	0x01f3;	????	Illegal as address instr
    1514:	07 00       	mova	@r0,	r7	
    1516:	00 00       	bra	@r0		
    1518:	42 1a       	.word	0x1a42;	????	
    151a:	00 00       	bra	@r0		
    151c:	a0 00 f3 01 	adda	#0x001f3,r0	
    1520:	00 00       	bra	@r0		
    1522:	00 00       	bra	@r0		
    1524:	4f 1a       	.word	0x1a4f;	????	
    1526:	00 00       	bra	@r0		
    1528:	a0 00 f3 01 	adda	#0x001f3,r0	
    152c:	02 00       	mova	@r0,	r2	
    152e:	00 00       	bra	@r0		
    1530:	64 1a       	.word	0x1a64;	????	
    1532:	00 00       	bra	@r0		
    1534:	a0 00 f3 01 	adda	#0x001f3,r0	
    1538:	04 00       	mova	@r0,	r4	
    153a:	00 00       	bra	@r0		
    153c:	00 00       	bra	@r0		
    153e:	00 00       	bra	@r0		
    1540:	44 00       	rrcm.a	#1,	r4	
    1542:	f3 01       	.word	0x01f3;	????	Illegal as address instr
	...
    154c:	44 00       	rrcm.a	#1,	r4	
    154e:	f4 01       	suba	r1,	r4	
    1550:	28 00 00 00 	mova	&0x00000,r8	
    1554:	00 00       	bra	@r0		
    1556:	00 00       	bra	@r0		
    1558:	44 00       	rrcm.a	#1,	r4	
    155a:	f5 01       	suba	r1,	r5	
    155c:	4c 00       	rrcm.a	#1,	r12	
    155e:	00 00       	bra	@r0		
    1560:	00 00       	bra	@r0		
    1562:	00 00       	bra	@r0		
    1564:	44 00       	rrcm.a	#1,	r4	
    1566:	f6 01       	suba	r1,	r6	
    1568:	5a 00       	rrcm	#1,	r10	
    156a:	00 00       	bra	@r0		
    156c:	00 00       	bra	@r0		
    156e:	00 00       	bra	@r0		
    1570:	44 00       	rrcm.a	#1,	r4	
    1572:	f8 01       	suba	r1,	r8	
    1574:	6a 00 00 00 	mova	r0,	&0xa0000
    1578:	73 1a       	.word	0x1a73;	????	
    157a:	00 00       	bra	@r0		
    157c:	40 00       	rrcm.a	#1,	r0	
    157e:	f3 01       	.word	0x01f3;	????	Illegal as address instr
    1580:	09 00       	mova	@r0,	r9	
    1582:	00 00       	bra	@r0		
    1584:	80 1a       	.word	0x1a80;	????	
    1586:	00 00       	bra	@r0		
    1588:	40 00       	rrcm.a	#1,	r0	
    158a:	f3 01       	.word	0x01f3;	????	Illegal as address instr
    158c:	04 00       	mova	@r0,	r4	
    158e:	00 00       	bra	@r0		
    1590:	95 1a       	.word	0x1a95;	????	
    1592:	00 00       	bra	@r0		
    1594:	40 00       	rrcm.a	#1,	r0	
    1596:	f3 01       	.word	0x01f3;	????	Illegal as address instr
    1598:	0e 00       	mova	@r0,	r14	
    159a:	00 00       	bra	@r0		
    159c:	00 00       	bra	@r0		
    159e:	00 00       	bra	@r0		
    15a0:	24 00 00 00 	mova	&0x00000,r4	
    15a4:	7c 00 00 00 	mova	r0,	0(r12)	;0x0000(r12)
    15a8:	a4 1a       	.word	0x1aa4;	????	
    15aa:	00 00       	bra	@r0		
    15ac:	20 00 12 00 	bra	&0x00012	
    15b0:	00 00       	bra	@r0		
    15b2:	00 00       	bra	@r0		
    15b4:	b0 1a       	.word	0x1ab0;	????	
    15b6:	00 00       	bra	@r0		
    15b8:	20 00 14 00 	bra	&0x00014	
    15bc:	00 00       	bra	@r0		
    15be:	00 00       	bra	@r0		
    15c0:	bd 1a       	.word	0x1abd;	????	
    15c2:	00 00       	bra	@r0		
    15c4:	20 00 16 00 	bra	&0x00016	
    15c8:	00 00       	bra	@r0		
    15ca:	00 00       	bra	@r0		
    15cc:	c9 1a       	.word	0x1ac9;	????	
    15ce:	00 00       	bra	@r0		
    15d0:	20 00 18 00 	bra	&0x00018	
    15d4:	00 00       	bra	@r0		
    15d6:	00 00       	bra	@r0		
    15d8:	d6 1a       	.word	0x1ad6;	????	
    15da:	00 00       	bra	@r0		
    15dc:	20 00 1a 00 	bra	&0x0001a	
    15e0:	00 00       	bra	@r0		
    15e2:	00 00       	bra	@r0		
    15e4:	e2 1a       	.word	0x1ae2;	????	
    15e6:	00 00       	bra	@r0		
    15e8:	20 00 1c 00 	bra	&0x0001c	
    15ec:	00 00       	bra	@r0		
    15ee:	00 00       	bra	@r0		
    15f0:	f0 1a       	.word	0x1af0;	????	
    15f2:	00 00       	bra	@r0		
    15f4:	20 00 1e 00 	bra	&0x0001e	
    15f8:	00 00       	bra	@r0		
    15fa:	00 00       	bra	@r0		
    15fc:	fe 1a       	.word	0x1afe;	????	
    15fe:	00 00       	bra	@r0		
    1600:	20 00 20 00 	bra	&0x00020	
    1604:	00 00       	bra	@r0		
    1606:	00 00       	bra	@r0		
    1608:	0d 1b       	.word	0x1b0d;	????	
    160a:	00 00       	bra	@r0		
    160c:	20 00 88 00 	bra	&0x00088	
    1610:	00 00       	bra	@r0		
    1612:	00 00       	bra	@r0		
    1614:	1b 1b       	.word	0x1b1b;	????	
    1616:	00 00       	bra	@r0		
    1618:	20 00 8c 00 	bra	&0x0008c	
    161c:	00 00       	bra	@r0		
    161e:	00 00       	bra	@r0		
    1620:	29 1b       	.word	0x1b29;	????	
    1622:	00 00       	bra	@r0		
    1624:	20 00 90 00 	bra	&0x00090	
    1628:	00 00       	bra	@r0		
    162a:	00 00       	bra	@r0		
    162c:	37 1b       	.word	0x1b37;	????	
    162e:	00 00       	bra	@r0		
    1630:	20 00 94 00 	bra	&0x00094	
    1634:	00 00       	bra	@r0		
    1636:	00 00       	bra	@r0		
    1638:	45 1b       	.word	0x1b45;	????	
    163a:	00 00       	bra	@r0		
    163c:	20 00 98 00 	bra	&0x00098	
    1640:	00 00       	bra	@r0		
    1642:	00 00       	bra	@r0		
    1644:	53 1b       	.word	0x1b53;	????	
    1646:	00 00       	bra	@r0		
    1648:	20 00 9c 00 	bra	&0x0009c	
    164c:	00 00       	bra	@r0		
    164e:	00 00       	bra	@r0		
    1650:	61 1b       	.word	0x1b61;	????	
    1652:	00 00       	bra	@r0		
    1654:	20 00 7a 00 	bra	&0x0007a	
    1658:	00 00       	bra	@r0		
    165a:	00 00       	bra	@r0		
    165c:	75 1b       	.word	0x1b75;	????	
    165e:	00 00       	bra	@r0		
    1660:	20 00 7c 00 	bra	&0x0007c	
    1664:	00 00       	bra	@r0		
    1666:	00 00       	bra	@r0		
    1668:	82 1b       	.word	0x1b82;	????	
    166a:	00 00       	bra	@r0		
    166c:	20 00 7e 00 	bra	&0x0007e	
    1670:	00 00       	bra	@r0		
    1672:	00 00       	bra	@r0		
    1674:	8f 1b       	.word	0x1b8f;	????	
    1676:	00 00       	bra	@r0		
    1678:	20 00 80 00 	bra	&0x00080	
    167c:	00 00       	bra	@r0		
    167e:	00 00       	bra	@r0		
    1680:	9c 1b       	.word	0x1b9c;	????	
    1682:	00 00       	bra	@r0		
    1684:	20 00 82 00 	bra	&0x00082	
    1688:	00 00       	bra	@r0		
    168a:	00 00       	bra	@r0		
    168c:	a9 1b       	.word	0x1ba9;	????	
    168e:	00 00       	bra	@r0		
    1690:	20 00 84 00 	bra	&0x00084	
    1694:	00 00       	bra	@r0		
    1696:	00 00       	bra	@r0		
    1698:	b5 1b       	.word	0x1bb5;	????	
    169a:	00 00       	bra	@r0		
    169c:	20 00 86 00 	bra	&0x00086	
    16a0:	00 00       	bra	@r0		
    16a2:	00 00       	bra	@r0		
    16a4:	c2 1b       	.word	0x1bc2;	????	
    16a6:	00 00       	bra	@r0		
    16a8:	20 00 89 00 	bra	&0x00089	
    16ac:	00 00       	bra	@r0		
    16ae:	00 00       	bra	@r0		
    16b0:	cf 1b       	.word	0x1bcf;	????	
    16b2:	00 00       	bra	@r0		
    16b4:	20 00 8f 00 	bra	&0x0008f	
    16b8:	00 00       	bra	@r0		
    16ba:	00 00       	bra	@r0		
    16bc:	db 1b       	.word	0x1bdb;	????	
    16be:	00 00       	bra	@r0		
    16c0:	20 00 91 00 	bra	&0x00091	
    16c4:	00 00       	bra	@r0		
    16c6:	00 00       	bra	@r0		
    16c8:	e8 1b       	.word	0x1be8;	????	
    16ca:	00 00       	bra	@r0		
    16cc:	20 00 93 00 	bra	&0x00093	
    16d0:	00 00       	bra	@r0		
    16d2:	00 00       	bra	@r0		
    16d4:	f5 1b       	.word	0x1bf5;	????	
    16d6:	00 00       	bra	@r0		
    16d8:	20 00 95 00 	bra	&0x00095	
    16dc:	00 00       	bra	@r0		
    16de:	00 00       	bra	@r0		
    16e0:	02 1c       	.word	0x1c02;	????	
    16e2:	00 00       	bra	@r0		
    16e4:	20 00 97 00 	bra	&0x00097	
    16e8:	00 00       	bra	@r0		
    16ea:	00 00       	bra	@r0		
    16ec:	0f 1c       	.word	0x1c0f;	????	
    16ee:	00 00       	bra	@r0		
    16f0:	20 00 99 00 	bra	&0x00099	
    16f4:	00 00       	bra	@r0		
    16f6:	00 00       	bra	@r0		
    16f8:	1b 1c       	.word	0x1c1b;	????	
    16fa:	00 00       	bra	@r0		
    16fc:	20 00 9b 00 	bra	&0x0009b	
    1700:	00 00       	bra	@r0		
    1702:	00 00       	bra	@r0		
    1704:	28 1c       	.word	0x1c28;	????	
    1706:	00 00       	bra	@r0		
    1708:	20 00 9e 00 	bra	&0x0009e	
    170c:	00 00       	bra	@r0		
    170e:	00 00       	bra	@r0		
    1710:	35 1c       	.word	0x1c35;	????	
    1712:	00 00       	bra	@r0		
    1714:	20 00 a4 00 	bra	&0x000a4	
    1718:	00 00       	bra	@r0		
    171a:	00 00       	bra	@r0		
    171c:	41 1c       	.word	0x1c41;	????	
    171e:	00 00       	bra	@r0		
    1720:	20 00 a6 00 	bra	&0x000a6	
    1724:	00 00       	bra	@r0		
    1726:	00 00       	bra	@r0		
    1728:	4e 1c       	.word	0x1c4e;	????	
    172a:	00 00       	bra	@r0		
    172c:	20 00 a8 00 	bra	&0x000a8	
    1730:	00 00       	bra	@r0		
    1732:	00 00       	bra	@r0		
    1734:	5b 1c       	.word	0x1c5b;	????	
    1736:	00 00       	bra	@r0		
    1738:	20 00 aa 00 	bra	&0x000aa	
    173c:	00 00       	bra	@r0		
    173e:	00 00       	bra	@r0		
    1740:	68 1c       	.word	0x1c68;	????	
    1742:	00 00       	bra	@r0		
    1744:	20 00 ad 00 	bra	&0x000ad	
    1748:	00 00       	bra	@r0		
    174a:	00 00       	bra	@r0		
    174c:	75 1c       	.word	0x1c75;	????	
    174e:	00 00       	bra	@r0		
    1750:	20 00 b3 00 	bra	&0x000b3	
    1754:	00 00       	bra	@r0		
    1756:	00 00       	bra	@r0		
    1758:	81 1c       	.word	0x1c81;	????	
    175a:	00 00       	bra	@r0		
    175c:	20 00 b5 00 	bra	&0x000b5	
    1760:	00 00       	bra	@r0		
    1762:	00 00       	bra	@r0		
    1764:	8e 1c       	.word	0x1c8e;	????	
    1766:	00 00       	bra	@r0		
    1768:	20 00 b7 00 	bra	&0x000b7	
    176c:	00 00       	bra	@r0		
    176e:	00 00       	bra	@r0		
    1770:	9b 1c       	.word	0x1c9b;	????	
    1772:	00 00       	bra	@r0		
    1774:	20 00 b9 00 	bra	&0x000b9	
    1778:	00 00       	bra	@r0		
    177a:	00 00       	bra	@r0		
    177c:	a8 1c       	.word	0x1ca8;	????	
    177e:	00 00       	bra	@r0		
    1780:	20 00 bc 00 	bra	&0x000bc	
    1784:	00 00       	bra	@r0		
    1786:	00 00       	bra	@r0		
    1788:	b5 1c       	.word	0x1cb5;	????	
    178a:	00 00       	bra	@r0		
    178c:	20 00 c2 00 	bra	&0x000c2	
    1790:	00 00       	bra	@r0		
    1792:	00 00       	bra	@r0		
    1794:	c1 1c       	.word	0x1cc1;	????	
    1796:	00 00       	bra	@r0		
    1798:	20 00 c4 00 	bra	&0x000c4	
    179c:	00 00       	bra	@r0		
    179e:	00 00       	bra	@r0		
    17a0:	ce 1c       	.word	0x1cce;	????	
    17a2:	00 00       	bra	@r0		
    17a4:	20 00 c6 00 	bra	&0x000c6	
    17a8:	00 00       	bra	@r0		
    17aa:	00 00       	bra	@r0		
    17ac:	db 1c       	.word	0x1cdb;	????	
    17ae:	00 00       	bra	@r0		
    17b0:	20 00 c8 00 	bra	&0x000c8	
    17b4:	00 00       	bra	@r0		
    17b6:	00 00       	bra	@r0		
    17b8:	e8 1c       	.word	0x1ce8;	????	
    17ba:	00 00       	bra	@r0		
    17bc:	20 00 cb 00 	bra	&0x000cb	
    17c0:	00 00       	bra	@r0		
    17c2:	00 00       	bra	@r0		
    17c4:	f5 1c       	.word	0x1cf5;	????	
    17c6:	00 00       	bra	@r0		
    17c8:	20 00 d1 00 	bra	&0x000d1	
    17cc:	00 00       	bra	@r0		
    17ce:	00 00       	bra	@r0		
    17d0:	01 1d       	.word	0x1d01;	????	
    17d2:	00 00       	bra	@r0		
    17d4:	20 00 d3 00 	bra	&0x000d3	
    17d8:	00 00       	bra	@r0		
    17da:	00 00       	bra	@r0		
    17dc:	0e 1d       	.word	0x1d0e;	????	
    17de:	00 00       	bra	@r0		
    17e0:	20 00 d5 00 	bra	&0x000d5	
    17e4:	00 00       	bra	@r0		
    17e6:	00 00       	bra	@r0		
    17e8:	1b 1d       	.word	0x1d1b;	????	
    17ea:	00 00       	bra	@r0		
    17ec:	20 00 d7 00 	bra	&0x000d7	
    17f0:	00 00       	bra	@r0		
    17f2:	00 00       	bra	@r0		
    17f4:	28 1d       	.word	0x1d28;	????	
    17f6:	00 00       	bra	@r0		
    17f8:	20 00 da 00 	bra	&0x000da	
    17fc:	00 00       	bra	@r0		
    17fe:	00 00       	bra	@r0		
    1800:	35 1d       	.word	0x1d35;	????	
    1802:	00 00       	bra	@r0		
    1804:	20 00 e0 00 	bra	&0x000e0	
    1808:	00 00       	bra	@r0		
    180a:	00 00       	bra	@r0		
    180c:	41 1d       	.word	0x1d41;	????	
    180e:	00 00       	bra	@r0		
    1810:	20 00 e2 00 	bra	&0x000e2	
    1814:	00 00       	bra	@r0		
    1816:	00 00       	bra	@r0		
    1818:	4e 1d       	.word	0x1d4e;	????	
    181a:	00 00       	bra	@r0		
    181c:	20 00 e4 00 	bra	&0x000e4	
    1820:	00 00       	bra	@r0		
    1822:	00 00       	bra	@r0		
    1824:	5b 1d       	.word	0x1d5b;	????	
    1826:	00 00       	bra	@r0		
    1828:	20 00 e6 00 	bra	&0x000e6	
    182c:	00 00       	bra	@r0		
    182e:	00 00       	bra	@r0		
    1830:	68 1d       	.word	0x1d68;	????	
    1832:	00 00       	bra	@r0		
    1834:	20 00 e9 00 	bra	&0x000e9	
    1838:	00 00       	bra	@r0		
    183a:	00 00       	bra	@r0		
    183c:	75 1d       	.word	0x1d75;	????	
    183e:	00 00       	bra	@r0		
    1840:	20 00 ef 00 	bra	&0x000ef	
    1844:	00 00       	bra	@r0		
    1846:	00 00       	bra	@r0		
    1848:	81 1d       	.word	0x1d81;	????	
    184a:	00 00       	bra	@r0		
    184c:	20 00 f1 00 	bra	&0x000f1	
    1850:	00 00       	bra	@r0		
    1852:	00 00       	bra	@r0		
    1854:	8e 1d       	.word	0x1d8e;	????	
    1856:	00 00       	bra	@r0		
    1858:	20 00 f3 00 	bra	&0x000f3	
    185c:	00 00       	bra	@r0		
    185e:	00 00       	bra	@r0		
    1860:	9b 1d       	.word	0x1d9b;	????	
    1862:	00 00       	bra	@r0		
    1864:	20 00 f5 00 	bra	&0x000f5	
    1868:	00 00       	bra	@r0		
    186a:	00 00       	bra	@r0		
    186c:	a8 1d       	.word	0x1da8;	????	
    186e:	00 00       	bra	@r0		
    1870:	20 00 f8 00 	bra	&0x000f8	
    1874:	00 00       	bra	@r0		
    1876:	00 00       	bra	@r0		
    1878:	b5 1d       	.word	0x1db5;	????	
    187a:	00 00       	bra	@r0		
    187c:	20 00 fc 00 	bra	&0x000fc	
    1880:	00 00       	bra	@r0		
    1882:	00 00       	bra	@r0		
    1884:	c5 1d       	.word	0x1dc5;	????	
    1886:	00 00       	bra	@r0		
    1888:	20 00 fe 00 	bra	&0x000fe	
    188c:	00 00       	bra	@r0		
    188e:	00 00       	bra	@r0		
    1890:	d5 1d       	.word	0x1dd5;	????	
    1892:	00 00       	bra	@r0		
    1894:	20 00 00 01 	bra	&0x00100	
    1898:	00 00       	bra	@r0		
    189a:	00 00       	bra	@r0		
    189c:	e4 1d       	.word	0x1de4;	????	
    189e:	00 00       	bra	@r0		
    18a0:	20 00 02 01 	bra	&0x00102	
    18a4:	00 00       	bra	@r0		
    18a6:	00 00       	bra	@r0		
    18a8:	f3 1d       	.word	0x1df3;	????	
    18aa:	00 00       	bra	@r0		
    18ac:	20 00 04 01 	bra	&0x00104	
    18b0:	00 00       	bra	@r0		
    18b2:	00 00       	bra	@r0		
    18b4:	03 1e       	.word	0x1e03;	????	
    18b6:	00 00       	bra	@r0		
    18b8:	20 00 06 01 	bra	&0x00106	
    18bc:	00 00       	bra	@r0		
    18be:	00 00       	bra	@r0		
    18c0:	13 1e       	.word	0x1e13;	????	
    18c2:	00 00       	bra	@r0		
    18c4:	20 00 08 01 	bra	&0x00108	
    18c8:	00 00       	bra	@r0		
    18ca:	00 00       	bra	@r0		
    18cc:	24 1e       	.word	0x1e24;	????	
    18ce:	00 00       	bra	@r0		
    18d0:	20 00 0a 01 	bra	&0x0010a	
    18d4:	00 00       	bra	@r0		
    18d6:	00 00       	bra	@r0		
    18d8:	35 1e       	.word	0x1e35;	????	
    18da:	00 00       	bra	@r0		
    18dc:	20 00 0c 01 	bra	&0x0010c	
    18e0:	00 00       	bra	@r0		
    18e2:	00 00       	bra	@r0		
    18e4:	46 1e       	.word	0x1e46;	????	
    18e6:	00 00       	bra	@r0		
    18e8:	20 00 0e 01 	bra	&0x0010e	
    18ec:	00 00       	bra	@r0		
    18ee:	00 00       	bra	@r0		
    18f0:	58 1e       	.word	0x1e58;	????	
    18f2:	00 00       	bra	@r0		
    18f4:	20 00 10 01 	bra	&0x00110	
    18f8:	00 00       	bra	@r0		
    18fa:	00 00       	bra	@r0		
    18fc:	6a 1e       	.word	0x1e6a;	????	
    18fe:	00 00       	bra	@r0		
    1900:	20 00 13 01 	bra	&0x00113	
    1904:	00 00       	bra	@r0		
    1906:	00 00       	bra	@r0		
    1908:	7a 1e       	.word	0x1e7a;	????	
    190a:	00 00       	bra	@r0		
    190c:	20 00 15 01 	bra	&0x00115	
    1910:	00 00       	bra	@r0		
    1912:	00 00       	bra	@r0		
    1914:	8a 1e       	.word	0x1e8a;	????	
    1916:	00 00       	bra	@r0		
    1918:	20 00 17 01 	bra	&0x00117	
    191c:	00 00       	bra	@r0		
    191e:	00 00       	bra	@r0		
    1920:	99 1e       	.word	0x1e99;	????	
    1922:	00 00       	bra	@r0		
    1924:	20 00 19 01 	bra	&0x00119	
    1928:	00 00       	bra	@r0		
    192a:	00 00       	bra	@r0		
    192c:	a8 1e       	.word	0x1ea8;	????	
    192e:	00 00       	bra	@r0		
    1930:	20 00 1b 01 	bra	&0x0011b	
    1934:	00 00       	bra	@r0		
    1936:	00 00       	bra	@r0		
    1938:	b9 1e       	.word	0x1eb9;	????	
    193a:	00 00       	bra	@r0		
    193c:	20 00 1d 01 	bra	&0x0011d	
    1940:	00 00       	bra	@r0		
    1942:	00 00       	bra	@r0		
    1944:	c9 1e       	.word	0x1ec9;	????	
    1946:	00 00       	bra	@r0		
    1948:	20 00 1f 01 	bra	&0x0011f	
    194c:	00 00       	bra	@r0		
    194e:	00 00       	bra	@r0		
    1950:	da 1e       	.word	0x1eda;	????	
    1952:	00 00       	bra	@r0		
    1954:	20 00 21 01 	bra	&0x00121	
    1958:	00 00       	bra	@r0		
    195a:	00 00       	bra	@r0		
    195c:	eb 1e       	.word	0x1eeb;	????	
    195e:	00 00       	bra	@r0		
    1960:	20 00 23 01 	bra	&0x00123	
    1964:	00 00       	bra	@r0		
    1966:	00 00       	bra	@r0		
    1968:	fd 1e       	.word	0x1efd;	????	
    196a:	00 00       	bra	@r0		
    196c:	20 00 25 01 	bra	&0x00125	
    1970:	00 00       	bra	@r0		
    1972:	00 00       	bra	@r0		
    1974:	0f 1f       	.word	0x1f0f;	????	
    1976:	00 00       	bra	@r0		
    1978:	20 00 2c 01 	bra	&0x0012c	
    197c:	00 00       	bra	@r0		
    197e:	00 00       	bra	@r0		
    1980:	1f 1f       	.word	0x1f1f;	????	
    1982:	00 00       	bra	@r0		
    1984:	20 00 2e 01 	bra	&0x0012e	
    1988:	00 00       	bra	@r0		
    198a:	00 00       	bra	@r0		
    198c:	2f 1f       	.word	0x1f2f;	????	
    198e:	00 00       	bra	@r0		
    1990:	20 00 30 01 	bra	&0x00130	
    1994:	00 00       	bra	@r0		
    1996:	00 00       	bra	@r0		
    1998:	3e 1f       	.word	0x1f3e;	????	
    199a:	00 00       	bra	@r0		
    199c:	20 00 32 01 	bra	&0x00132	
    19a0:	00 00       	bra	@r0		
    19a2:	00 00       	bra	@r0		
    19a4:	4d 1f       	.word	0x1f4d;	????	
    19a6:	00 00       	bra	@r0		
    19a8:	20 00 34 01 	bra	&0x00134	
    19ac:	00 00       	bra	@r0		
    19ae:	00 00       	bra	@r0		
    19b0:	5d 1f       	.word	0x1f5d;	????	
    19b2:	00 00       	bra	@r0		
    19b4:	20 00 36 01 	bra	&0x00136	
    19b8:	00 00       	bra	@r0		
    19ba:	00 00       	bra	@r0		
    19bc:	6d 1f       	.word	0x1f6d;	????	
    19be:	00 00       	bra	@r0		
    19c0:	20 00 38 01 	bra	&0x00138	
    19c4:	00 00       	bra	@r0		
    19c6:	00 00       	bra	@r0		
    19c8:	7e 1f       	.word	0x1f7e;	????	
    19ca:	00 00       	bra	@r0		
    19cc:	20 00 3a 01 	bra	&0x0013a	
    19d0:	00 00       	bra	@r0		
    19d2:	00 00       	bra	@r0		
    19d4:	8f 1f       	.word	0x1f8f;	????	
    19d6:	00 00       	bra	@r0		
    19d8:	20 00 3c 01 	bra	&0x0013c	
    19dc:	00 00       	bra	@r0		
    19de:	00 00       	bra	@r0		
    19e0:	a0 1f       	.word	0x1fa0;	????	
    19e2:	00 00       	bra	@r0		
    19e4:	20 00 3e 01 	bra	&0x0013e	
    19e8:	00 00       	bra	@r0		
    19ea:	00 00       	bra	@r0		
    19ec:	b2 1f       	.word	0x1fb2;	????	
    19ee:	00 00       	bra	@r0		
    19f0:	20 00 40 01 	bra	&0x00140	
    19f4:	00 00       	bra	@r0		
    19f6:	00 00       	bra	@r0		
    19f8:	c4 1f       	.word	0x1fc4;	????	
    19fa:	00 00       	bra	@r0		
    19fc:	20 00 43 01 	bra	&0x00143	
    1a00:	00 00       	bra	@r0		
    1a02:	00 00       	bra	@r0		
    1a04:	d4 1f       	.word	0x1fd4;	????	
    1a06:	00 00       	bra	@r0		
    1a08:	20 00 45 01 	bra	&0x00145	
    1a0c:	00 00       	bra	@r0		
    1a0e:	00 00       	bra	@r0		
    1a10:	e4 1f       	.word	0x1fe4;	????	
    1a12:	00 00       	bra	@r0		
    1a14:	20 00 47 01 	bra	&0x00147	
    1a18:	00 00       	bra	@r0		
    1a1a:	00 00       	bra	@r0		
    1a1c:	f3 1f       	.word	0x1ff3;	????	
    1a1e:	00 00       	bra	@r0		
    1a20:	20 00 49 01 	bra	&0x00149	
    1a24:	00 00       	bra	@r0		
    1a26:	00 00       	bra	@r0		
    1a28:	02 20       	jnz	$+6      	;abs 0x1a2e
    1a2a:	00 00       	bra	@r0		
    1a2c:	20 00 4b 01 	bra	&0x0014b	
    1a30:	00 00       	bra	@r0		
    1a32:	00 00       	bra	@r0		
    1a34:	13 20       	jnz	$+40     	;abs 0x1a5c
    1a36:	00 00       	bra	@r0		
    1a38:	20 00 4d 01 	bra	&0x0014d	
    1a3c:	00 00       	bra	@r0		
    1a3e:	00 00       	bra	@r0		
    1a40:	23 20       	jnz	$+72     	;abs 0x1a88
    1a42:	00 00       	bra	@r0		
    1a44:	20 00 4f 01 	bra	&0x0014f	
    1a48:	00 00       	bra	@r0		
    1a4a:	00 00       	bra	@r0		
    1a4c:	34 20       	jnz	$+106    	;abs 0x1ab6
    1a4e:	00 00       	bra	@r0		
    1a50:	20 00 51 01 	bra	&0x00151	
    1a54:	00 00       	bra	@r0		
    1a56:	00 00       	bra	@r0		
    1a58:	45 20       	jnz	$+140    	;abs 0x1ae4
    1a5a:	00 00       	bra	@r0		
    1a5c:	20 00 53 01 	bra	&0x00153	
    1a60:	00 00       	bra	@r0		
    1a62:	00 00       	bra	@r0		
    1a64:	57 20       	jnz	$+176    	;abs 0x1b14
    1a66:	00 00       	bra	@r0		
    1a68:	20 00 55 01 	bra	&0x00155	
    1a6c:	00 00       	bra	@r0		
    1a6e:	00 00       	bra	@r0		
    1a70:	69 20       	jnz	$+212    	;abs 0x1b44
    1a72:	00 00       	bra	@r0		
    1a74:	20 00 58 01 	bra	&0x00158	
    1a78:	00 00       	bra	@r0		
    1a7a:	00 00       	bra	@r0		
    1a7c:	76 20       	jnz	$+238    	;abs 0x1b6a
    1a7e:	00 00       	bra	@r0		
    1a80:	20 00 5a 01 	bra	&0x0015a	
    1a84:	00 00       	bra	@r0		
    1a86:	00 00       	bra	@r0		
    1a88:	84 20       	jnz	$+266    	;abs 0x1b92
    1a8a:	00 00       	bra	@r0		
    1a8c:	20 00 1a 00 	bra	&0x0001a	
    1a90:	00 00       	bra	@r0		
    1a92:	00 00       	bra	@r0		
    1a94:	92 20       	jnz	$+294    	;abs 0x1bba
    1a96:	00 00       	bra	@r0		
    1a98:	20 00 1c 00 	bra	&0x0001c	
    1a9c:	00 00       	bra	@r0		
    1a9e:	00 00       	bra	@r0		
    1aa0:	a1 20       	jnz	$+324    	;abs 0x1be4
    1aa2:	00 00       	bra	@r0		
    1aa4:	20 00 1e 00 	bra	&0x0001e	
    1aa8:	00 00       	bra	@r0		
    1aaa:	00 00       	bra	@r0		
    1aac:	ae 20       	jnz	$+350    	;abs 0x1c0a
    1aae:	00 00       	bra	@r0		
    1ab0:	20 00 21 00 	bra	&0x00021	
    1ab4:	00 00       	bra	@r0		
    1ab6:	00 00       	bra	@r0		
    1ab8:	bf 20       	jnz	$+384    	;abs 0x1c38
    1aba:	00 00       	bra	@r0		
    1abc:	20 00 23 00 	bra	&0x00023	
    1ac0:	00 00       	bra	@r0		
    1ac2:	00 00       	bra	@r0		
    1ac4:	d0 20       	jnz	$+418    	;abs 0x1c66
    1ac6:	00 00       	bra	@r0		
    1ac8:	20 00 25 00 	bra	&0x00025	
    1acc:	00 00       	bra	@r0		
    1ace:	00 00       	bra	@r0		
    1ad0:	e0 20       	jnz	$+450    	;abs 0x1c92
    1ad2:	00 00       	bra	@r0		
    1ad4:	20 00 27 00 	bra	&0x00027	
    1ad8:	00 00       	bra	@r0		
    1ada:	00 00       	bra	@r0		
    1adc:	f0 20       	jnz	$+482    	;abs 0x1cbe
    1ade:	00 00       	bra	@r0		
    1ae0:	20 00 47 00 	bra	&0x00047	
    1ae4:	00 00       	bra	@r0		
    1ae6:	00 00       	bra	@r0		
    1ae8:	01 21       	jnz	$+516    	;abs 0x1cec
    1aea:	00 00       	bra	@r0		
    1aec:	20 00 49 00 	bra	&0x00049	
    1af0:	00 00       	bra	@r0		
    1af2:	00 00       	bra	@r0		
    1af4:	11 21       	jnz	$+548    	;abs 0x1d18
    1af6:	00 00       	bra	@r0		
    1af8:	20 00 ac 00 	bra	&0x000ac	
    1afc:	00 00       	bra	@r0		
    1afe:	00 00       	bra	@r0		
    1b00:	20 21       	jnz	$+578    	;abs 0x1d42
    1b02:	00 00       	bra	@r0		
    1b04:	20 00 16 00 	bra	&0x00016	
    1b08:	00 00       	bra	@r0		
    1b0a:	00 00       	bra	@r0		
    1b0c:	2d 21       	jnz	$+604    	;abs 0x1d68
    1b0e:	00 00       	bra	@r0		
    1b10:	20 00 18 00 	bra	&0x00018	
    1b14:	00 00       	bra	@r0		
    1b16:	00 00       	bra	@r0		
    1b18:	3b 21       	jnz	$+632    	;abs 0x1d90
    1b1a:	00 00       	bra	@r0		
    1b1c:	20 00 1a 00 	bra	&0x0001a	
    1b20:	00 00       	bra	@r0		
    1b22:	00 00       	bra	@r0		
    1b24:	47 21       	jnz	$+656    	;abs 0x1db4
    1b26:	00 00       	bra	@r0		
    1b28:	20 00 1d 00 	bra	&0x0001d	
    1b2c:	00 00       	bra	@r0		
    1b2e:	00 00       	bra	@r0		
    1b30:	57 21       	jnz	$+688    	;abs 0x1de0
    1b32:	00 00       	bra	@r0		
    1b34:	20 00 1f 00 	bra	&0x0001f	
    1b38:	00 00       	bra	@r0		
    1b3a:	00 00       	bra	@r0		
    1b3c:	67 21       	jnz	$+720    	;abs 0x1e0c
    1b3e:	00 00       	bra	@r0		
    1b40:	20 00 21 00 	bra	&0x00021	
    1b44:	00 00       	bra	@r0		
    1b46:	00 00       	bra	@r0		
    1b48:	77 21       	jnz	$+752    	;abs 0x1e38
    1b4a:	00 00       	bra	@r0		
    1b4c:	20 00 23 00 	bra	&0x00023	
    1b50:	00 00       	bra	@r0		
    1b52:	00 00       	bra	@r0		
    1b54:	86 21       	jnz	$+782    	;abs 0x1e62
    1b56:	00 00       	bra	@r0		
    1b58:	20 00 25 00 	bra	&0x00025	
    1b5c:	00 00       	bra	@r0		
    1b5e:	00 00       	bra	@r0		
    1b60:	95 21       	jnz	$+812    	;abs 0x1e8c
    1b62:	00 00       	bra	@r0		
    1b64:	20 00 27 00 	bra	&0x00027	
    1b68:	00 00       	bra	@r0		
    1b6a:	00 00       	bra	@r0		
    1b6c:	a4 21       	jnz	$+842    	;abs 0x1eb6
    1b6e:	00 00       	bra	@r0		
    1b70:	20 00 2c 00 	bra	&0x0002c	
    1b74:	00 00       	bra	@r0		
    1b76:	00 00       	bra	@r0		
    1b78:	b4 21       	jnz	$+874    	;abs 0x1ee2
    1b7a:	00 00       	bra	@r0		
    1b7c:	20 00 2e 00 	bra	&0x0002e	
    1b80:	00 00       	bra	@r0		
    1b82:	00 00       	bra	@r0		
    1b84:	c4 21       	jnz	$+906    	;abs 0x1f0e
    1b86:	00 00       	bra	@r0		
    1b88:	20 00 30 00 	bra	&0x00030	
    1b8c:	00 00       	bra	@r0		
    1b8e:	00 00       	bra	@r0		
    1b90:	d4 21       	jnz	$+938    	;abs 0x1f3a
    1b92:	00 00       	bra	@r0		
    1b94:	20 00 32 00 	bra	&0x00032	
    1b98:	00 00       	bra	@r0		
    1b9a:	00 00       	bra	@r0		
    1b9c:	e4 21       	jnz	$+970    	;abs 0x1f66
    1b9e:	00 00       	bra	@r0		
    1ba0:	20 00 34 00 	bra	&0x00034	
    1ba4:	00 00       	bra	@r0		
    1ba6:	00 00       	bra	@r0		
    1ba8:	f3 21       	jnz	$+1000   	;abs 0x1f90
    1baa:	00 00       	bra	@r0		
    1bac:	20 00 36 00 	bra	&0x00036	
    1bb0:	00 00       	bra	@r0		
    1bb2:	00 00       	bra	@r0		
    1bb4:	02 22       	jnz	$-1018   	;abs 0x17ba
    1bb6:	00 00       	bra	@r0		
    1bb8:	20 00 38 00 	bra	&0x00038	
    1bbc:	00 00       	bra	@r0		
    1bbe:	00 00       	bra	@r0		
    1bc0:	11 22       	jnz	$-988    	;abs 0x17e4
    1bc2:	00 00       	bra	@r0		
    1bc4:	20 00 3a 00 	bra	&0x0003a	
    1bc8:	00 00       	bra	@r0		
    1bca:	00 00       	bra	@r0		
    1bcc:	20 22       	jnz	$-958    	;abs 0x180e
    1bce:	00 00       	bra	@r0		
    1bd0:	20 00 7a 00 	bra	&0x0007a	
    1bd4:	00 00       	bra	@r0		
    1bd6:	00 00       	bra	@r0		
    1bd8:	2f 22       	jnz	$-928    	;abs 0x1838
    1bda:	00 00       	bra	@r0		
    1bdc:	20 00 14 00 	bra	&0x00014	
    1be0:	00 00       	bra	@r0		
    1be2:	00 00       	bra	@r0		
    1be4:	3d 22       	jnz	$-900    	;abs 0x1860
    1be6:	00 00       	bra	@r0		
    1be8:	20 00 16 00 	bra	&0x00016	
    1bec:	00 00       	bra	@r0		
    1bee:	00 00       	bra	@r0		
    1bf0:	4c 22       	jnz	$-870    	;abs 0x188a
    1bf2:	00 00       	bra	@r0		
    1bf4:	20 00 18 00 	bra	&0x00018	
    1bf8:	00 00       	bra	@r0		
    1bfa:	00 00       	bra	@r0		
    1bfc:	5b 22       	jnz	$-840    	;abs 0x18b4
    1bfe:	00 00       	bra	@r0		
    1c00:	20 00 1b 00 	bra	&0x0001b	
    1c04:	00 00       	bra	@r0		
    1c06:	00 00       	bra	@r0		
    1c08:	6a 22       	jnz	$-810    	;abs 0x18de
    1c0a:	00 00       	bra	@r0		
    1c0c:	20 00 14 00 	bra	&0x00014	
    1c10:	00 00       	bra	@r0		
    1c12:	00 00       	bra	@r0		
    1c14:	78 22       	jnz	$-782    	;abs 0x1906
    1c16:	00 00       	bra	@r0		
    1c18:	20 00 16 00 	bra	&0x00016	
    1c1c:	00 00       	bra	@r0		
    1c1e:	00 00       	bra	@r0		
    1c20:	86 22       	jnz	$-754    	;abs 0x192e
    1c22:	00 00       	bra	@r0		
    1c24:	20 00 18 00 	bra	&0x00018	
    1c28:	00 00       	bra	@r0		
    1c2a:	00 00       	bra	@r0		
    1c2c:	94 22       	jnz	$-726    	;abs 0x1956
    1c2e:	00 00       	bra	@r0		
    1c30:	20 00 14 00 	bra	&0x00014	
    1c34:	00 00       	bra	@r0		
    1c36:	00 00       	bra	@r0		
    1c38:	a2 22       	jnz	$-698    	;abs 0x197e
    1c3a:	00 00       	bra	@r0		
    1c3c:	20 00 16 00 	bra	&0x00016	
    1c40:	00 00       	bra	@r0		
    1c42:	00 00       	bra	@r0		
    1c44:	b0 22       	jnz	$-670    	;abs 0x19a6
    1c46:	00 00       	bra	@r0		
    1c48:	20 00 18 00 	bra	&0x00018	
    1c4c:	00 00       	bra	@r0		
    1c4e:	00 00       	bra	@r0		
    1c50:	bc 22       	jnz	$-646    	;abs 0x19ca
    1c52:	00 00       	bra	@r0		
    1c54:	20 00 12 00 	bra	&0x00012	
    1c58:	00 00       	bra	@r0		
    1c5a:	00 00       	bra	@r0		
    1c5c:	ce 22       	jnz	$-610    	;abs 0x19fa
    1c5e:	00 00       	bra	@r0		
    1c60:	20 00 14 00 	bra	&0x00014	
    1c64:	00 00       	bra	@r0		
    1c66:	00 00       	bra	@r0		
    1c68:	e0 22       	jnz	$-574    	;abs 0x1a2a
    1c6a:	00 00       	bra	@r0		
    1c6c:	20 00 16 00 	bra	&0x00016	
    1c70:	00 00       	bra	@r0		
    1c72:	00 00       	bra	@r0		
    1c74:	f1 22       	jnz	$-540    	;abs 0x1a58
    1c76:	00 00       	bra	@r0		
    1c78:	20 00 18 00 	bra	&0x00018	
    1c7c:	00 00       	bra	@r0		
    1c7e:	00 00       	bra	@r0		
    1c80:	01 23       	jnz	$-508    	;abs 0x1a84
    1c82:	00 00       	bra	@r0		
    1c84:	20 00 1a 00 	bra	&0x0001a	
    1c88:	00 00       	bra	@r0		
    1c8a:	00 00       	bra	@r0		
    1c8c:	11 23       	jnz	$-476    	;abs 0x1ab0
    1c8e:	00 00       	bra	@r0		
    1c90:	20 00 58 00 	bra	&0x00058	
    1c94:	00 00       	bra	@r0		
    1c96:	00 00       	bra	@r0		
    1c98:	1f 23       	jnz	$-448    	;abs 0x1ad8
    1c9a:	00 00       	bra	@r0		
    1c9c:	20 00 64 00 	bra	&0x00064	
    1ca0:	00 00       	bra	@r0		
    1ca2:	00 00       	bra	@r0		
    1ca4:	31 23       	jnz	$-412    	;abs 0x1b08
    1ca6:	00 00       	bra	@r0		
    1ca8:	20 00 66 00 	bra	&0x00066	
    1cac:	00 00       	bra	@r0		
    1cae:	00 00       	bra	@r0		
    1cb0:	43 23       	jnz	$-376    	;abs 0x1b38
    1cb2:	00 00       	bra	@r0		
    1cb4:	20 00 68 00 	bra	&0x00068	
    1cb8:	00 00       	bra	@r0		
    1cba:	00 00       	bra	@r0		
    1cbc:	55 23       	jnz	$-340    	;abs 0x1b68
    1cbe:	00 00       	bra	@r0		
    1cc0:	20 00 6a 00 	bra	&0x0006a	
    1cc4:	00 00       	bra	@r0		
    1cc6:	00 00       	bra	@r0		
    1cc8:	67 23       	jnz	$-304    	;abs 0x1b98
    1cca:	00 00       	bra	@r0		
    1ccc:	20 00 6c 00 	bra	&0x0006c	
    1cd0:	00 00       	bra	@r0		
    1cd2:	00 00       	bra	@r0		
    1cd4:	79 23       	jnz	$-268    	;abs 0x1bc8
    1cd6:	00 00       	bra	@r0		
    1cd8:	20 00 6e 00 	bra	&0x0006e	
    1cdc:	00 00       	bra	@r0		
    1cde:	00 00       	bra	@r0		
    1ce0:	8b 23       	jnz	$-232    	;abs 0x1bf8
    1ce2:	00 00       	bra	@r0		
    1ce4:	20 00 70 00 	bra	&0x00070	
    1ce8:	00 00       	bra	@r0		
    1cea:	00 00       	bra	@r0		
    1cec:	9d 23       	jnz	$-196    	;abs 0x1c28
    1cee:	00 00       	bra	@r0		
    1cf0:	20 00 72 00 	bra	&0x00072	
    1cf4:	00 00       	bra	@r0		
    1cf6:	00 00       	bra	@r0		
    1cf8:	af 23       	jnz	$-160    	;abs 0x1c58
    1cfa:	00 00       	bra	@r0		
    1cfc:	20 00 74 00 	bra	&0x00074	
    1d00:	00 00       	bra	@r0		
    1d02:	00 00       	bra	@r0		
    1d04:	c1 23       	jnz	$-124    	;abs 0x1c88
    1d06:	00 00       	bra	@r0		
    1d08:	20 00 76 00 	bra	&0x00076	
    1d0c:	00 00       	bra	@r0		
    1d0e:	00 00       	bra	@r0		
    1d10:	d3 23       	jnz	$-88     	;abs 0x1cb8
    1d12:	00 00       	bra	@r0		
    1d14:	20 00 78 00 	bra	&0x00078	
    1d18:	00 00       	bra	@r0		
    1d1a:	00 00       	bra	@r0		
    1d1c:	e6 23       	jnz	$-50     	;abs 0x1cea
    1d1e:	00 00       	bra	@r0		
    1d20:	20 00 7a 00 	bra	&0x0007a	
    1d24:	00 00       	bra	@r0		
    1d26:	00 00       	bra	@r0		
    1d28:	f9 23       	jnz	$-12     	;abs 0x1d1c
    1d2a:	00 00       	bra	@r0		
    1d2c:	20 00 7c 00 	bra	&0x0007c	
    1d30:	00 00       	bra	@r0		
    1d32:	00 00       	bra	@r0		
    1d34:	0c 24       	jz	$+26     	;abs 0x1d4e
    1d36:	00 00       	bra	@r0		
    1d38:	20 00 7e 00 	bra	&0x0007e	
    1d3c:	00 00       	bra	@r0		
    1d3e:	00 00       	bra	@r0		
    1d40:	1f 24       	jz	$+64     	;abs 0x1d80
    1d42:	00 00       	bra	@r0		
    1d44:	20 00 80 00 	bra	&0x00080	
    1d48:	00 00       	bra	@r0		
    1d4a:	00 00       	bra	@r0		
    1d4c:	32 24       	jz	$+102    	;abs 0x1db2
    1d4e:	00 00       	bra	@r0		
    1d50:	20 00 82 00 	bra	&0x00082	
    1d54:	00 00       	bra	@r0		
    1d56:	00 00       	bra	@r0		
    1d58:	45 24       	jz	$+140    	;abs 0x1de4
    1d5a:	00 00       	bra	@r0		
    1d5c:	20 00 8b 00 	bra	&0x0008b	
    1d60:	00 00       	bra	@r0		
    1d62:	00 00       	bra	@r0		
    1d64:	57 24       	jz	$+176    	;abs 0x1e14
    1d66:	00 00       	bra	@r0		
    1d68:	20 00 8d 00 	bra	&0x0008d	
    1d6c:	00 00       	bra	@r0		
    1d6e:	00 00       	bra	@r0		
    1d70:	69 24       	jz	$+212    	;abs 0x1e44
    1d72:	00 00       	bra	@r0		
    1d74:	20 00 8f 00 	bra	&0x0008f	
    1d78:	00 00       	bra	@r0		
    1d7a:	00 00       	bra	@r0		
    1d7c:	7b 24       	jz	$+248    	;abs 0x1e74
    1d7e:	00 00       	bra	@r0		
    1d80:	20 00 91 00 	bra	&0x00091	
    1d84:	00 00       	bra	@r0		
    1d86:	00 00       	bra	@r0		
    1d88:	8d 24       	jz	$+284    	;abs 0x1ea4
    1d8a:	00 00       	bra	@r0		
    1d8c:	20 00 93 00 	bra	&0x00093	
    1d90:	00 00       	bra	@r0		
    1d92:	00 00       	bra	@r0		
    1d94:	9f 24       	jz	$+320    	;abs 0x1ed4
    1d96:	00 00       	bra	@r0		
    1d98:	20 00 95 00 	bra	&0x00095	
    1d9c:	00 00       	bra	@r0		
    1d9e:	00 00       	bra	@r0		
    1da0:	b1 24       	jz	$+356    	;abs 0x1f04
    1da2:	00 00       	bra	@r0		
    1da4:	20 00 97 00 	bra	&0x00097	
    1da8:	00 00       	bra	@r0		
    1daa:	00 00       	bra	@r0		
    1dac:	c3 24       	jz	$+392    	;abs 0x1f34
    1dae:	00 00       	bra	@r0		
    1db0:	20 00 99 00 	bra	&0x00099	
    1db4:	00 00       	bra	@r0		
    1db6:	00 00       	bra	@r0		
    1db8:	d5 24       	jz	$+428    	;abs 0x1f64
    1dba:	00 00       	bra	@r0		
    1dbc:	20 00 9b 00 	bra	&0x0009b	
    1dc0:	00 00       	bra	@r0		
    1dc2:	00 00       	bra	@r0		
    1dc4:	e7 24       	jz	$+464    	;abs 0x1f94
    1dc6:	00 00       	bra	@r0		
    1dc8:	20 00 9d 00 	bra	&0x0009d	
    1dcc:	00 00       	bra	@r0		
    1dce:	00 00       	bra	@r0		
    1dd0:	f9 24       	jz	$+500    	;abs 0x1fc4
    1dd2:	00 00       	bra	@r0		
    1dd4:	20 00 9f 00 	bra	&0x0009f	
    1dd8:	00 00       	bra	@r0		
    1dda:	00 00       	bra	@r0		
    1ddc:	0c 25       	jz	$+538    	;abs 0x1ff6
    1dde:	00 00       	bra	@r0		
    1de0:	20 00 a1 00 	bra	&0x000a1	
    1de4:	00 00       	bra	@r0		
    1de6:	00 00       	bra	@r0		
    1de8:	1f 25       	jz	$+576    	;abs 0x2028
    1dea:	00 00       	bra	@r0		
    1dec:	20 00 a3 00 	bra	&0x000a3	
    1df0:	00 00       	bra	@r0		
    1df2:	00 00       	bra	@r0		
    1df4:	32 25       	jz	$+614    	;abs 0x205a
    1df6:	00 00       	bra	@r0		
    1df8:	20 00 a5 00 	bra	&0x000a5	
    1dfc:	00 00       	bra	@r0		
    1dfe:	00 00       	bra	@r0		
    1e00:	45 25       	jz	$+652    	;abs 0x208c
    1e02:	00 00       	bra	@r0		
    1e04:	20 00 a7 00 	bra	&0x000a7	
    1e08:	00 00       	bra	@r0		
    1e0a:	00 00       	bra	@r0		
    1e0c:	58 25       	jz	$+690    	;abs 0x20be
    1e0e:	00 00       	bra	@r0		
    1e10:	20 00 a9 00 	bra	&0x000a9	
    1e14:	00 00       	bra	@r0		
    1e16:	00 00       	bra	@r0		
    1e18:	6b 25       	jz	$+728    	;abs 0x20f0
    1e1a:	00 00       	bra	@r0		
    1e1c:	20 00 12 00 	bra	&0x00012	
    1e20:	00 00       	bra	@r0		
    1e22:	00 00       	bra	@r0		
    1e24:	7e 25       	jz	$+766    	;abs 0x2122
    1e26:	00 00       	bra	@r0		
    1e28:	20 00 14 00 	bra	&0x00014	
    1e2c:	00 00       	bra	@r0		
    1e2e:	00 00       	bra	@r0		
    1e30:	91 25       	jz	$+804    	;abs 0x2154
    1e32:	00 00       	bra	@r0		
    1e34:	20 00 16 00 	bra	&0x00016	
    1e38:	00 00       	bra	@r0		
    1e3a:	00 00       	bra	@r0		
    1e3c:	a4 25       	jz	$+842    	;abs 0x2186
    1e3e:	00 00       	bra	@r0		
    1e40:	20 00 18 00 	bra	&0x00018	
    1e44:	00 00       	bra	@r0		
    1e46:	00 00       	bra	@r0		
    1e48:	b7 25       	jz	$+880    	;abs 0x21b8
    1e4a:	00 00       	bra	@r0		
    1e4c:	20 00 18 00 	bra	&0x00018	
    1e50:	00 00       	bra	@r0		
    1e52:	00 00       	bra	@r0		
    1e54:	c7 25       	jz	$+912    	;abs 0x21e4
    1e56:	00 00       	bra	@r0		
    1e58:	20 00 1a 00 	bra	&0x0001a	
    1e5c:	00 00       	bra	@r0		
    1e5e:	00 00       	bra	@r0		
    1e60:	d7 25       	jz	$+944    	;abs 0x2210
    1e62:	00 00       	bra	@r0		
    1e64:	20 00 1d 00 	bra	&0x0001d	
    1e68:	00 00       	bra	@r0		
    1e6a:	00 00       	bra	@r0		
    1e6c:	e5 25       	jz	$+972    	;abs 0x2238
    1e6e:	00 00       	bra	@r0		
    1e70:	20 00 3f 00 	bra	&0x0003f	
    1e74:	00 00       	bra	@r0		
    1e76:	00 00       	bra	@r0		
    1e78:	f5 25       	jz	$+1004   	;abs 0x2264
    1e7a:	00 00       	bra	@r0		
    1e7c:	20 00 41 00 	bra	&0x00041	
    1e80:	00 00       	bra	@r0		
    1e82:	00 00       	bra	@r0		
    1e84:	0a 26       	jz	$-1002   	;abs 0x1a9a
    1e86:	00 00       	bra	@r0		
    1e88:	20 00 43 00 	bra	&0x00043	
    1e8c:	00 00       	bra	@r0		
    1e8e:	00 00       	bra	@r0		
    1e90:	1a 26       	jz	$-970    	;abs 0x1ac6
    1e92:	00 00       	bra	@r0		
    1e94:	20 00 45 00 	bra	&0x00045	
    1e98:	00 00       	bra	@r0		
    1e9a:	00 00       	bra	@r0		
    1e9c:	28 26       	jz	$-942    	;abs 0x1aee
    1e9e:	00 00       	bra	@r0		
    1ea0:	20 00 47 00 	bra	&0x00047	
    1ea4:	00 00       	bra	@r0		
    1ea6:	00 00       	bra	@r0		
    1ea8:	38 26       	jz	$-910    	;abs 0x1b1a
    1eaa:	00 00       	bra	@r0		
    1eac:	20 00 49 00 	bra	&0x00049	
    1eb0:	00 00       	bra	@r0		
    1eb2:	00 00       	bra	@r0		
    1eb4:	47 26       	jz	$-880    	;abs 0x1b44
    1eb6:	00 00       	bra	@r0		
    1eb8:	20 00 4c 00 	bra	&0x0004c	
    1ebc:	00 00       	bra	@r0		
    1ebe:	00 00       	bra	@r0		
    1ec0:	57 26       	jz	$-848    	;abs 0x1b70
    1ec2:	00 00       	bra	@r0		
    1ec4:	20 00 4e 00 	bra	&0x0004e	
    1ec8:	00 00       	bra	@r0		
    1eca:	00 00       	bra	@r0		
    1ecc:	65 26       	jz	$-820    	;abs 0x1b98
    1ece:	00 00       	bra	@r0		
    1ed0:	20 00 50 00 	bra	&0x00050	
    1ed4:	00 00       	bra	@r0		
    1ed6:	00 00       	bra	@r0		
    1ed8:	75 26       	jz	$-788    	;abs 0x1bc4
    1eda:	00 00       	bra	@r0		
    1edc:	20 00 52 00 	bra	&0x00052	
    1ee0:	00 00       	bra	@r0		
    1ee2:	00 00       	bra	@r0		
    1ee4:	84 26       	jz	$-758    	;abs 0x1bee
    1ee6:	00 00       	bra	@r0		
    1ee8:	20 00 54 00 	bra	&0x00054	
    1eec:	00 00       	bra	@r0		
    1eee:	00 00       	bra	@r0		
    1ef0:	94 26       	jz	$-726    	;abs 0x1c1a
    1ef2:	00 00       	bra	@r0		
    1ef4:	20 00 56 00 	bra	&0x00056	
    1ef8:	00 00       	bra	@r0		
    1efa:	00 00       	bra	@r0		
    1efc:	a3 26       	jz	$-696    	;abs 0x1c44
    1efe:	00 00       	bra	@r0		
    1f00:	20 00 59 00 	bra	&0x00059	
    1f04:	00 00       	bra	@r0		
    1f06:	00 00       	bra	@r0		
    1f08:	b3 26       	jz	$-664    	;abs 0x1c70
    1f0a:	00 00       	bra	@r0		
    1f0c:	20 00 5b 00 	bra	&0x0005b	
    1f10:	00 00       	bra	@r0		
    1f12:	00 00       	bra	@r0		
    1f14:	c1 26       	jz	$-636    	;abs 0x1c98
    1f16:	00 00       	bra	@r0		
    1f18:	20 00 5d 00 	bra	&0x0005d	
    1f1c:	00 00       	bra	@r0		
    1f1e:	00 00       	bra	@r0		
    1f20:	d1 26       	jz	$-604    	;abs 0x1cc4
    1f22:	00 00       	bra	@r0		
    1f24:	20 00 5f 00 	bra	&0x0005f	
    1f28:	00 00       	bra	@r0		
    1f2a:	00 00       	bra	@r0		
    1f2c:	df 26       	jz	$-576    	;abs 0x1cec
    1f2e:	00 00       	bra	@r0		
    1f30:	20 00 61 00 	bra	&0x00061	
    1f34:	00 00       	bra	@r0		
    1f36:	00 00       	bra	@r0		
    1f38:	ef 26       	jz	$-544    	;abs 0x1d18
    1f3a:	00 00       	bra	@r0		
    1f3c:	20 00 63 00 	bra	&0x00063	
    1f40:	00 00       	bra	@r0		
    1f42:	00 00       	bra	@r0		
    1f44:	fe 26       	jz	$-514    	;abs 0x1d42
    1f46:	00 00       	bra	@r0		
    1f48:	20 00 47 00 	bra	&0x00047	
    1f4c:	00 00       	bra	@r0		
    1f4e:	00 00       	bra	@r0		
    1f50:	0d 27       	jz	$-484    	;abs 0x1d6c
    1f52:	00 00       	bra	@r0		
    1f54:	20 00 45 00 	bra	&0x00045	
    1f58:	00 00       	bra	@r0		
    1f5a:	00 00       	bra	@r0		
    1f5c:	18 27       	jz	$-462    	;abs 0x1d8e
    1f5e:	00 00       	bra	@r0		
    1f60:	20 00 4c 00 	bra	&0x0004c	
    1f64:	00 00       	bra	@r0		
    1f66:	00 00       	bra	@r0		
    1f68:	24 27       	jz	$-438    	;abs 0x1db2
    1f6a:	00 00       	bra	@r0		
    1f6c:	20 00 54 00 	bra	&0x00054	
    1f70:	00 00       	bra	@r0		
    1f72:	00 00       	bra	@r0		
    1f74:	2f 27       	jz	$-416    	;abs 0x1dd4
    1f76:	00 00       	bra	@r0		
    1f78:	20 00 5c 00 	bra	&0x0005c	
    1f7c:	00 00       	bra	@r0		
    1f7e:	00 00       	bra	@r0		
    1f80:	3b 27       	jz	$-392    	;abs 0x1df8
    1f82:	00 00       	bra	@r0		
    1f84:	20 00 6e 00 	bra	&0x0006e	
    1f88:	00 00       	bra	@r0		
    1f8a:	00 00       	bra	@r0		
    1f8c:	50 27       	jz	$-350    	;abs 0x1e2e
    1f8e:	00 00       	bra	@r0		
    1f90:	20 00 70 00 	bra	&0x00070	
    1f94:	00 00       	bra	@r0		
    1f96:	00 00       	bra	@r0		
    1f98:	66 27       	jz	$-306    	;abs 0x1e66
    1f9a:	00 00       	bra	@r0		
    1f9c:	20 00 72 00 	bra	&0x00072	
    1fa0:	00 00       	bra	@r0		
    1fa2:	00 00       	bra	@r0		
    1fa4:	7c 27       	jz	$-262    	;abs 0x1e9e
    1fa6:	00 00       	bra	@r0		
    1fa8:	20 00 74 00 	bra	&0x00074	
    1fac:	00 00       	bra	@r0		
    1fae:	00 00       	bra	@r0		
    1fb0:	93 27       	jz	$-216    	;abs 0x1ed8
    1fb2:	00 00       	bra	@r0		
    1fb4:	20 00 76 00 	bra	&0x00076	
    1fb8:	00 00       	bra	@r0		
    1fba:	00 00       	bra	@r0		
    1fbc:	aa 27       	jz	$-170    	;abs 0x1f12
    1fbe:	00 00       	bra	@r0		
    1fc0:	20 00 93 00 	bra	&0x00093	
    1fc4:	00 00       	bra	@r0		
    1fc6:	00 00       	bra	@r0		
    1fc8:	be 27       	jz	$-130    	;abs 0x1f46
    1fca:	00 00       	bra	@r0		
    1fcc:	20 00 95 00 	bra	&0x00095	
    1fd0:	00 00       	bra	@r0		
    1fd2:	00 00       	bra	@r0		
    1fd4:	d2 27       	jz	$-90     	;abs 0x1f7a
    1fd6:	00 00       	bra	@r0		
    1fd8:	20 00 97 00 	bra	&0x00097	
    1fdc:	00 00       	bra	@r0		
    1fde:	00 00       	bra	@r0		
    1fe0:	e6 27       	jz	$-50     	;abs 0x1fae
    1fe2:	00 00       	bra	@r0		
    1fe4:	20 00 99 00 	bra	&0x00099	
    1fe8:	00 00       	bra	@r0		
    1fea:	00 00       	bra	@r0		
    1fec:	fa 27       	jz	$-10     	;abs 0x1fe2
    1fee:	00 00       	bra	@r0		
    1ff0:	20 00 9b 00 	bra	&0x0009b	
    1ff4:	00 00       	bra	@r0		
    1ff6:	00 00       	bra	@r0		
    1ff8:	0d 28       	jnc	$+28     	;abs 0x2014
    1ffa:	00 00       	bra	@r0		
    1ffc:	20 00 9d 00 	bra	&0x0009d	
    2000:	00 00       	bra	@r0		
    2002:	00 00       	bra	@r0		
    2004:	20 28       	jnc	$+66     	;abs 0x2046
    2006:	00 00       	bra	@r0		
    2008:	20 00 9f 00 	bra	&0x0009f	
    200c:	00 00       	bra	@r0		
    200e:	00 00       	bra	@r0		
    2010:	33 28       	jnc	$+104    	;abs 0x2078
    2012:	00 00       	bra	@r0		
    2014:	20 00 a1 00 	bra	&0x000a1	
    2018:	00 00       	bra	@r0		
    201a:	00 00       	bra	@r0		
    201c:	46 28       	jnc	$+142    	;abs 0x20aa
    201e:	00 00       	bra	@r0		
    2020:	20 00 2b 00 	bra	&0x0002b	
    2024:	00 00       	bra	@r0		
    2026:	00 00       	bra	@r0		
    2028:	5c 28       	jnc	$+186    	;abs 0x20e2
    202a:	00 00       	bra	@r0		
    202c:	20 00 2c 00 	bra	&0x0002c	
    2030:	00 00       	bra	@r0		
    2032:	00 00       	bra	@r0		
    2034:	72 28       	jnc	$+230    	;abs 0x211a
    2036:	00 00       	bra	@r0		
    2038:	20 00 2d 00 	bra	&0x0002d	
    203c:	00 00       	bra	@r0		
    203e:	00 00       	bra	@r0		
    2040:	85 28       	jnc	$+268    	;abs 0x214c
    2042:	00 00       	bra	@r0		
    2044:	20 00 2e 00 	bra	&0x0002e	
    2048:	00 00       	bra	@r0		
    204a:	00 00       	bra	@r0		
    204c:	98 28       	jnc	$+306    	;abs 0x217e
    204e:	00 00       	bra	@r0		
    2050:	20 00 30 00 	bra	&0x00030	
	...
    205c:	64 00 00 00 	mova	r0,	&0x40000
    2060:	00 00       	bra	@r0		
	...
Disassembly of section .stabstr:

00000000 <.stabstr>:
       0:	00 6c       	addc	r12,	r0	
       2:	63 64       	.word	0x6463;	????	Illegal as 2-op instr
       4:	36 31       	jn	$+622    	;abs 0x272
       6:	30 30       	jn	$+98     	;abs 0x68
       8:	2e 63       	addc	#2,	r14	;r3 As==10
       a:	00 43       	clr	r0		
       c:	3a 5c       	add	@r12+,	r10	
       e:	55 73       	subc.b	#1,	r5	;r3 As==01
      10:	65 72       	subc.b	#4,	r5	;r2 As==10
      12:	73 5c       	.word	0x5c73;	????	Illegal as 2-op instr
      14:	66 6c       	addc.b	@r12,	r6	
      16:	61 76       	subc.b	@r6,	r1	
      18:	69 6f       	addc.b	@r15,	r9	
      1a:	68 70       	subc.b	@r0,	r8	
      1c:	6f 5c       	add.b	@r12,	r15	
      1e:	44 65       	addc.b	r5,	r4	
      20:	73 6b       	.word	0x6b73;	????	Illegal as 2-op instr
      22:	74 6f       	addc.b	@r15+,	r4	
      24:	70 5c       	add.b	@r12+,	r0	
      26:	6d 69       	addc.b	@r9,	r13	
      28:	63 72       	.word	0x7263;	????	Illegal as 2-op instr
      2a:	6f 71       	subc.b	@r1,	r15	
      2c:	75 61       	addc.b	@r1+,	r5	
      2e:	64 2f       	jc	$-310    	;abs 0xfef8
      30:	00 6c       	addc	r12,	r0	
      32:	63 64       	.word	0x6463;	????	Illegal as 2-op instr
      34:	36 31       	jn	$+622    	;abs 0x2a2
      36:	30 30       	jn	$+98     	;abs 0x98
      38:	2e 63       	addc	#2,	r14	;r3 As==10
      3a:	00 67       	addc	r7,	r0	
      3c:	63 63       	.word	0x6363;	????	Illegal as 2-op instr
      3e:	32 5f       	add	@r15+,	r2	
      40:	63 6f       	.word	0x6f63;	????	Illegal as 2-op instr
      42:	6d 70       	subc.b	@r0,	r13	
      44:	69 6c       	addc.b	@r12,	r9	
      46:	65 64       	addc.b	@r4,	r5	
      48:	2e 00 69 6e 	mova	&0x06e69,r14	
      4c:	74 3a       	jl	$-790    	;abs 0xfd36
      4e:	74 28       	jnc	$+234    	;abs 0x138
      50:	30 2c       	jc	$+98     	;abs 0xb2
      52:	31 29       	jnc	$+612    	;abs 0x2b6
      54:	3d 72       	subc	#8,	r13	;r2 As==11
      56:	28 30       	jn	$+82     	;abs 0xa8
      58:	2c 31       	jn	$+602    	;abs 0x2b2
      5a:	29 3b       	jl	$-428    	;abs 0xfeae
      5c:	2d 33       	jn	$-420    	;abs 0xfeb8
      5e:	32 37       	jge	$-410    	;abs 0xfec4
      60:	36 38       	jl	$+110    	;abs 0xce
      62:	3b 33       	jn	$-392    	;abs 0xfeda
      64:	32 37       	jge	$-410    	;abs 0xfeca
      66:	36 37       	jge	$-402    	;abs 0xfed4
      68:	3b 00 63 68 	mova	0x6863,	r11	;PC rel. 0x068cd
      6c:	61 72       	subc.b	#4,	r1	;r2 As==10
      6e:	3a 74       	subc	@r4+,	r10	
      70:	28 30       	jn	$+82     	;abs 0xc2
      72:	2c 32       	jn	$-934    	;abs 0xfccc
      74:	29 3d       	jmp	$+596    	;abs 0x2c8
      76:	72 28       	jnc	$+230    	;abs 0x15c
      78:	30 2c       	jc	$+98     	;abs 0xda
      7a:	32 29       	jnc	$+614    	;abs 0x2e0
      7c:	3b 30       	jn	$+120    	;abs 0xf4
      7e:	3b 31       	jn	$+632    	;abs 0x2f6
      80:	32 37       	jge	$-410    	;abs 0xfee6
      82:	3b 00 6c 6f 	mova	0x6f6c,	r11	;PC rel. 0x06ff0
      86:	6e 67       	addc.b	@r7,	r14	
      88:	20 69       	addc	@r9,	r0	
      8a:	6e 74       	subc.b	@r4,	r14	
      8c:	3a 74       	subc	@r4+,	r10	
      8e:	28 30       	jn	$+82     	;abs 0xe0
      90:	2c 33       	jn	$-422    	;abs 0xfeea
      92:	29 3d       	jmp	$+596    	;abs 0x2e6
      94:	40 73       	sbc.b	r0		
      96:	33 32       	jn	$-920    	;abs 0xfcfe
      98:	3b 72       	subc	#8,	r11	;r2 As==11
      9a:	28 30       	jn	$+82     	;abs 0xec
      9c:	2c 33       	jn	$-422    	;abs 0xfef6
      9e:	29 3b       	jl	$-428    	;abs 0xfef2
      a0:	30 30       	jn	$+98     	;abs 0x102
      a2:	32 30       	jn	$+102    	;abs 0x108
      a4:	30 30       	jn	$+98     	;abs 0x106
      a6:	30 30       	jn	$+98     	;abs 0x108
      a8:	30 30       	jn	$+98     	;abs 0x10a
      aa:	30 30       	jn	$+98     	;abs 0x10c
      ac:	30 3b       	jl	$-414    	;abs 0xff0e
      ae:	30 30       	jn	$+98     	;abs 0x110
      b0:	31 37       	jge	$-412    	;abs 0xff14
      b2:	37 37       	jge	$-400    	;abs 0xff22
      b4:	37 37       	jge	$-400    	;abs 0xff24
      b6:	37 37       	jge	$-400    	;abs 0xff26
      b8:	37 37       	jge	$-400    	;abs 0xff28
      ba:	37 3b       	jl	$-400    	;abs 0xff2a
      bc:	00 75       	subc	r5,	r0	
      be:	6e 73       	subc.b	#2,	r14	;r3 As==10
      c0:	69 67       	addc.b	@r7,	r9	
      c2:	6e 65       	addc.b	@r5,	r14	
      c4:	64 20       	jnz	$+202    	;abs 0x18e
      c6:	69 6e       	addc.b	@r14,	r9	
      c8:	74 3a       	jl	$-790    	;abs 0xfdb2
      ca:	74 28       	jnc	$+234    	;abs 0x1b4
      cc:	30 2c       	jc	$+98     	;abs 0x12e
      ce:	34 29       	jnc	$+618    	;abs 0x338
      d0:	3d 72       	subc	#8,	r13	;r2 As==11
      d2:	28 30       	jn	$+82     	;abs 0x124
      d4:	2c 34       	jge	$+90     	;abs 0x12e
      d6:	29 3b       	jl	$-428    	;abs 0xff2a
      d8:	30 30       	jn	$+98     	;abs 0x13a
      da:	30 30       	jn	$+98     	;abs 0x13c
      dc:	30 30       	jn	$+98     	;abs 0x13e
      de:	30 30       	jn	$+98     	;abs 0x140
      e0:	30 30       	jn	$+98     	;abs 0x142
      e2:	30 30       	jn	$+98     	;abs 0x144
      e4:	30 3b       	jl	$-414    	;abs 0xff46
      e6:	30 30       	jn	$+98     	;abs 0x148
      e8:	30 30       	jn	$+98     	;abs 0x14a
      ea:	30 30       	jn	$+98     	;abs 0x14c
      ec:	30 31       	jn	$+610    	;abs 0x34e
      ee:	37 37       	jge	$-400    	;abs 0xff5e
      f0:	37 37       	jge	$-400    	;abs 0xff60
      f2:	37 3b       	jl	$-400    	;abs 0xff62
      f4:	00 6c       	addc	r12,	r0	
      f6:	6f 6e       	addc.b	@r14,	r15	
      f8:	67 20       	jnz	$+208    	;abs 0x1c8
      fa:	75 6e       	addc.b	@r14+,	r5	
      fc:	73 69       	.word	0x6973;	????	Illegal as 2-op instr
      fe:	67 6e       	addc.b	@r14,	r7	
     100:	65 64       	addc.b	@r4,	r5	
     102:	20 69       	addc	@r9,	r0	
     104:	6e 74       	subc.b	@r4,	r14	
     106:	3a 74       	subc	@r4+,	r10	
     108:	28 30       	jn	$+82     	;abs 0x15a
     10a:	2c 35       	jge	$+602    	;abs 0x364
     10c:	29 3d       	jmp	$+596    	;abs 0x360
     10e:	40 73       	sbc.b	r0		
     110:	33 32       	jn	$-920    	;abs 0xfd78
     112:	3b 72       	subc	#8,	r11	;r2 As==11
     114:	28 30       	jn	$+82     	;abs 0x166
     116:	2c 35       	jge	$+602    	;abs 0x370
     118:	29 3b       	jl	$-428    	;abs 0xff6c
     11a:	30 30       	jn	$+98     	;abs 0x17c
     11c:	30 30       	jn	$+98     	;abs 0x17e
     11e:	30 30       	jn	$+98     	;abs 0x180
     120:	30 30       	jn	$+98     	;abs 0x182
     122:	30 30       	jn	$+98     	;abs 0x184
     124:	30 30       	jn	$+98     	;abs 0x186
     126:	30 3b       	jl	$-414    	;abs 0xff88
     128:	30 30       	jn	$+98     	;abs 0x18a
     12a:	33 37       	jge	$-408    	;abs 0xff92
     12c:	37 37       	jge	$-400    	;abs 0xff9c
     12e:	37 37       	jge	$-400    	;abs 0xff9e
     130:	37 37       	jge	$-400    	;abs 0xffa0
     132:	37 37       	jge	$-400    	;abs 0xffa2
     134:	37 3b       	jl	$-400    	;abs 0xffa4
     136:	00 6c       	addc	r12,	r0	
     138:	6f 6e       	addc.b	@r14,	r15	
     13a:	67 20       	jnz	$+208    	;abs 0x20a
     13c:	6c 6f       	addc.b	@r15,	r12	
     13e:	6e 67       	addc.b	@r7,	r14	
     140:	20 69       	addc	@r9,	r0	
     142:	6e 74       	subc.b	@r4,	r14	
     144:	3a 74       	subc	@r4+,	r10	
     146:	28 30       	jn	$+82     	;abs 0x198
     148:	2c 36       	jge	$-934    	;abs 0xfda2
     14a:	29 3d       	jmp	$+596    	;abs 0x39e
     14c:	40 73       	sbc.b	r0		
     14e:	36 34       	jge	$+110    	;abs 0x1bc
     150:	3b 72       	subc	#8,	r11	;r2 As==11
     152:	28 30       	jn	$+82     	;abs 0x1a4
     154:	2c 36       	jge	$-934    	;abs 0xfdae
     156:	29 3b       	jl	$-428    	;abs 0xffaa
     158:	30 31       	jn	$+610    	;abs 0x3ba
     15a:	30 30       	jn	$+98     	;abs 0x1bc
     15c:	30 30       	jn	$+98     	;abs 0x1be
     15e:	30 30       	jn	$+98     	;abs 0x1c0
     160:	30 30       	jn	$+98     	;abs 0x1c2
     162:	30 30       	jn	$+98     	;abs 0x1c4
     164:	30 30       	jn	$+98     	;abs 0x1c6
     166:	30 30       	jn	$+98     	;abs 0x1c8
     168:	30 30       	jn	$+98     	;abs 0x1ca
     16a:	30 30       	jn	$+98     	;abs 0x1cc
     16c:	30 30       	jn	$+98     	;abs 0x1ce
     16e:	30 3b       	jl	$-414    	;abs 0xffd0
     170:	30 37       	jge	$-414    	;abs 0xffd2
     172:	37 37       	jge	$-400    	;abs 0xffe2
     174:	37 37       	jge	$-400    	;abs 0xffe4
     176:	37 37       	jge	$-400    	;abs 0xffe6
     178:	37 37       	jge	$-400    	;abs 0xffe8
     17a:	37 37       	jge	$-400    	;abs 0xffea
     17c:	37 37       	jge	$-400    	;abs 0xffec
     17e:	37 37       	jge	$-400    	;abs 0xffee
     180:	37 37       	jge	$-400    	;abs 0xfff0
     182:	37 37       	jge	$-400    	;abs 0xfff2
     184:	37 37       	jge	$-400    	;abs 0xfff4
     186:	3b 00 6c 6f 	mova	0x6f6c,	r11	;PC rel. 0x070f4
     18a:	6e 67       	addc.b	@r7,	r14	
     18c:	20 6c       	addc	@r12,	r0	
     18e:	6f 6e       	addc.b	@r14,	r15	
     190:	67 20       	jnz	$+208    	;abs 0x260
     192:	75 6e       	addc.b	@r14+,	r5	
     194:	73 69       	.word	0x6973;	????	Illegal as 2-op instr
     196:	67 6e       	addc.b	@r14,	r7	
     198:	65 64       	addc.b	@r4,	r5	
     19a:	20 69       	addc	@r9,	r0	
     19c:	6e 74       	subc.b	@r4,	r14	
     19e:	3a 74       	subc	@r4+,	r10	
     1a0:	28 30       	jn	$+82     	;abs 0x1f2
     1a2:	2c 37       	jge	$-422    	;abs 0xfffc
     1a4:	29 3d       	jmp	$+596    	;abs 0x3f8
     1a6:	40 73       	sbc.b	r0		
     1a8:	36 34       	jge	$+110    	;abs 0x216
     1aa:	3b 72       	subc	#8,	r11	;r2 As==11
     1ac:	28 30       	jn	$+82     	;abs 0x1fe
     1ae:	2c 37       	jge	$-422    	;abs 0x8
     1b0:	29 3b       	jl	$-428    	;abs 0x4
     1b2:	30 30       	jn	$+98     	;abs 0x214
     1b4:	30 30       	jn	$+98     	;abs 0x216
     1b6:	30 30       	jn	$+98     	;abs 0x218
     1b8:	30 30       	jn	$+98     	;abs 0x21a
     1ba:	30 30       	jn	$+98     	;abs 0x21c
     1bc:	30 30       	jn	$+98     	;abs 0x21e
     1be:	30 3b       	jl	$-414    	;abs 0x20
     1c0:	30 31       	jn	$+610    	;abs 0x422
     1c2:	37 37       	jge	$-400    	;abs 0x32
     1c4:	37 37       	jge	$-400    	;abs 0x34
     1c6:	37 37       	jge	$-400    	;abs 0x36
     1c8:	37 37       	jge	$-400    	;abs 0x38
     1ca:	37 37       	jge	$-400    	;abs 0x3a
     1cc:	37 37       	jge	$-400    	;abs 0x3c
     1ce:	37 37       	jge	$-400    	;abs 0x3e
     1d0:	37 37       	jge	$-400    	;abs 0x40
     1d2:	37 37       	jge	$-400    	;abs 0x42
     1d4:	37 37       	jge	$-400    	;abs 0x44
     1d6:	37 3b       	jl	$-400    	;abs 0x46
     1d8:	00 73       	sbc	r0		
     1da:	68 6f       	addc.b	@r15,	r8	
     1dc:	72 74       	subc.b	@r4+,	r2	
     1de:	20 69       	addc	@r9,	r0	
     1e0:	6e 74       	subc.b	@r4,	r14	
     1e2:	3a 74       	subc	@r4+,	r10	
     1e4:	28 30       	jn	$+82     	;abs 0x236
     1e6:	2c 38       	jl	$+90     	;abs 0x240
     1e8:	29 3d       	jmp	$+596    	;abs 0x43c
     1ea:	72 28       	jnc	$+230    	;abs 0x2d0
     1ec:	30 2c       	jc	$+98     	;abs 0x24e
     1ee:	38 29       	jnc	$+626    	;abs 0x460
     1f0:	3b 2d       	jc	$+632    	;abs 0x468
     1f2:	33 32       	jn	$-920    	;abs 0xfe5a
     1f4:	37 36       	jge	$-912    	;abs 0xfe64
     1f6:	38 3b       	jl	$-398    	;abs 0x68
     1f8:	33 32       	jn	$-920    	;abs 0xfe60
     1fa:	37 36       	jge	$-912    	;abs 0xfe6a
     1fc:	37 3b       	jl	$-400    	;abs 0x6c
     1fe:	00 73       	sbc	r0		
     200:	68 6f       	addc.b	@r15,	r8	
     202:	72 74       	subc.b	@r4+,	r2	
     204:	20 75       	subc	@r5,	r0	
     206:	6e 73       	subc.b	#2,	r14	;r3 As==10
     208:	69 67       	addc.b	@r7,	r9	
     20a:	6e 65       	addc.b	@r5,	r14	
     20c:	64 20       	jnz	$+202    	;abs 0x2d6
     20e:	69 6e       	addc.b	@r14,	r9	
     210:	74 3a       	jl	$-790    	;abs 0xfefa
     212:	74 28       	jnc	$+234    	;abs 0x2fc
     214:	30 2c       	jc	$+98     	;abs 0x276
     216:	39 29       	jnc	$+628    	;abs 0x48a
     218:	3d 72       	subc	#8,	r13	;r2 As==11
     21a:	28 30       	jn	$+82     	;abs 0x26c
     21c:	2c 39       	jl	$+602    	;abs 0x476
     21e:	29 3b       	jl	$-428    	;abs 0x72
     220:	30 30       	jn	$+98     	;abs 0x282
     222:	30 30       	jn	$+98     	;abs 0x284
     224:	30 30       	jn	$+98     	;abs 0x286
     226:	30 30       	jn	$+98     	;abs 0x288
     228:	30 30       	jn	$+98     	;abs 0x28a
     22a:	30 30       	jn	$+98     	;abs 0x28c
     22c:	30 3b       	jl	$-414    	;abs 0x8e
     22e:	30 30       	jn	$+98     	;abs 0x290
     230:	30 30       	jn	$+98     	;abs 0x292
     232:	30 30       	jn	$+98     	;abs 0x294
     234:	30 31       	jn	$+610    	;abs 0x496
     236:	37 37       	jge	$-400    	;abs 0xa6
     238:	37 37       	jge	$-400    	;abs 0xa8
     23a:	37 3b       	jl	$-400    	;abs 0xaa
     23c:	00 73       	sbc	r0		
     23e:	69 67       	addc.b	@r7,	r9	
     240:	6e 65       	addc.b	@r5,	r14	
     242:	64 20       	jnz	$+202    	;abs 0x30c
     244:	63 68       	.word	0x6863;	????	Illegal as 2-op instr
     246:	61 72       	subc.b	#4,	r1	;r2 As==10
     248:	3a 74       	subc	@r4+,	r10	
     24a:	28 30       	jn	$+82     	;abs 0x29c
     24c:	2c 31       	jn	$+602    	;abs 0x4a6
     24e:	30 29       	jnc	$+610    	;abs 0x4b0
     250:	3d 40 73 38 	mov	#14451,	r13	;#0x3873
     254:	3b 72       	subc	#8,	r11	;r2 As==11
     256:	28 30       	jn	$+82     	;abs 0x2a8
     258:	2c 31       	jn	$+602    	;abs 0x4b2
     25a:	30 29       	jnc	$+610    	;abs 0x4bc
     25c:	3b 2d       	jc	$+632    	;abs 0x4d4
     25e:	31 32       	jn	$-924    	;abs 0xfec2
     260:	38 3b       	jl	$-398    	;abs 0xd2
     262:	31 32       	jn	$-924    	;abs 0xfec6
     264:	37 3b       	jl	$-400    	;abs 0xd4
     266:	00 75       	subc	r5,	r0	
     268:	6e 73       	subc.b	#2,	r14	;r3 As==10
     26a:	69 67       	addc.b	@r7,	r9	
     26c:	6e 65       	addc.b	@r5,	r14	
     26e:	64 20       	jnz	$+202    	;abs 0x338
     270:	63 68       	.word	0x6863;	????	Illegal as 2-op instr
     272:	61 72       	subc.b	#4,	r1	;r2 As==10
     274:	3a 74       	subc	@r4+,	r10	
     276:	28 30       	jn	$+82     	;abs 0x2c8
     278:	2c 31       	jn	$+602    	;abs 0x4d2
     27a:	31 29       	jnc	$+612    	;abs 0x4de
     27c:	3d 40 73 38 	mov	#14451,	r13	;#0x3873
                         

// printf para LCDNOKIA
int putchar(int c)
{
    lcd_putchar(c);
     280:	3b 72       	subc	#8,	r11	;r2 As==11
     282:	28 30       	jn	$+82     	;abs 0x2d4
    return 0;
}
     284:	2c 31       	jn	$+602    	;abs 0x4de
     286:	31 29       	jnc	$+612    	;abs 0x4ea
                         
void lcd_setcolor(unsigned char foreground_color, unsigned char background_color)
{
     288:	3b 30       	jn	$+120    	;abs 0x300
    color_back = background_color;
     28a:	3b 32       	jn	$-904    	;abs 0xff02
     28c:	35 35       	jge	$+620    	;abs 0x4f8
    color_fore = foreground_color;
     28e:	3b 00 66 6c 	mova	0x6c66,	r11	;PC rel. 0x06ef6
}
     292:	6f 61       	addc.b	@r1,	r15	
    cmd = 1 writedata without stop
    cmd = 2 writecommand with stop
    cmd = 3 writecommand without stop
*/
void n6100_send(unsigned char data, unsigned char cmd)
{
     294:	74 3a       	jl	$-790    	;abs 0xff7e
     296:	74 28       	jnc	$+234    	;abs 0x380
    unsigned char mask = 0x80;
     298:	30 2c       	jc	$+98     	;abs 0x2fa
     29a:	31 32       	jn	$-924    	;abs 0xfefe
    unsigned char i;
    
    if(cmd > 1){ 
     29c:	29 3d       	jmp	$+596    	;abs 0x4f0
     29e:	72 28       	jnc	$+230    	;abs 0x384
        P5OUT &= ~SDA; // comando
     2a0:	30 2c       	jc	$+98     	;abs 0x302
     2a2:	31 29       	jnc	$+612    	;abs 0x506
    }
    else{
        P5OUT |= SDA; // dado
    }
    
    P5OUT &= ~CSX;
     2a4:	3b 34       	jge	$+120    	;abs 0x31c
     2a6:	3b 30       	jn	$+120    	;abs 0x31e
    P5OUT |= SCLK;
     2a8:	3b 00 64 6f 	mova	0x6f64,	r11	;PC rel. 0x0720e
    P5OUT &= ~SCLK;
     2ac:	75 62       	addc.b	#8,	r5	;r2 As==11
     2ae:	6c 65       	addc.b	@r5,	r12	
    
    for (i=0; i<8; i++){
     2b0:	3a 74       	subc	@r4+,	r10	
        if(data & mask){
     2b2:	28 30       	jn	$+82     	;abs 0x304
     2b4:	2c 31       	jn	$+602    	;abs 0x50e
     2b6:	33 29       	jnc	$+616    	;abs 0x51e
            P5OUT |= SDA; 
     2b8:	3d 72       	subc	#8,	r13	;r2 As==11
     2ba:	28 30       	jn	$+82     	;abs 0x30c
        }
        else{
            P5OUT &= ~SDA;
        }
        P5OUT |= SCLK;
     2bc:	2c 31       	jn	$+602    	;abs 0x516
     2be:	29 3b       	jl	$-428    	;abs 0x112
        P5OUT &= ~SCLK;
     2c0:	34 3b       	jl	$-406    	;abs 0x12a
     2c2:	30 3b       	jl	$-414    	;abs 0x124
        mask >>= 1;
     2c4:	00 6c       	addc	r12,	r0	
     2c6:	6f 6e       	addc.b	@r14,	r15	
    
    P5OUT &= ~CSX;
    P5OUT |= SCLK;
    P5OUT &= ~SCLK;
    
    for (i=0; i<8; i++){
     2c8:	67 20       	jnz	$+208    	;abs 0x398
     2ca:	64 6f       	addc.b	@r15,	r4	
     2cc:	75 62       	addc.b	#8,	r5	;r2 As==11
        P5OUT |= SCLK;
        P5OUT &= ~SCLK;
        mask >>= 1;
    }
    
    if(cmd == 1 || cmd == 3)
     2ce:	6c 65       	addc.b	@r5,	r12	
     2d0:	3a 74       	subc	@r4+,	r10	
     2d2:	28 30       	jn	$+82     	;abs 0x324
     2d4:	2c 31       	jn	$+602    	;abs 0x52e
     2d6:	34 29       	jnc	$+618    	;abs 0x540
        return;
        
    P5OUT &= ~SDA;
     2d8:	3d 72       	subc	#8,	r13	;r2 As==11
     2da:	28 30       	jn	$+82     	;abs 0x32c
    P5OUT |= CSX;
     2dc:	2c 31       	jn	$+602    	;abs 0x536
     2de:	29 3b       	jl	$-428    	;abs 0x132
     2e0:	34 3b       	jl	$-406    	;abs 0x14a
    for (i=0; i<8; i++){
        if(data & mask){
            P5OUT |= SDA; 
        }
        else{
            P5OUT &= ~SDA;
     2e2:	30 3b       	jl	$-414    	;abs 0x144
     2e4:	00 63       	adc	r0		
     2e6:	6f 6d       	addc.b	@r13,	r15	
    
    if(cmd > 1){ 
        P5OUT &= ~SDA; // comando
    }
    else{
        P5OUT |= SDA; // dado
     2e8:	70 6c       	addc.b	@r12+,	r0	
     2ea:	65 78       	subc.b	@r8,	r5	
     2ec:	20 69       	addc	@r9,	r0	
    if(cmd == 1 || cmd == 3)
        return;
        
    P5OUT &= ~SDA;
    P5OUT |= CSX;
}
     2ee:	6e 74       	subc.b	@r4,	r14	
     2f0:	3a 74       	subc	@r4+,	r10	

void lcd_init(unsigned char cor)
{
     2f2:	28 30       	jn	$+82     	;abs 0x344
     2f4:	2c 31       	jn	$+602    	;abs 0x54e
    P5DIR |= CSX + SDA + SCLK + RESX;
     2f6:	35 29       	jnc	$+620    	;abs 0x562
     2f8:	3d 73       	subc	#-1,	r13	;r3 As==11
     2fa:	34 72       	subc	#8,	r4	;r2 As==11
    
  P5OUT |= CSX;
     2fc:	65 61       	addc.b	@r1,	r5	
     2fe:	6c 3a       	jl	$-806    	;abs 0xffd8
  P5OUT &= ~SDA;
     300:	28 30       	jn	$+82     	;abs 0x352
     302:	2c 31       	jn	$+602    	;abs 0x55c
  P5OUT &= ~SCLK;
     304:	29 2c       	jc	$+84     	;abs 0x358
     306:	30 2c       	jc	$+98     	;abs 0x368

  P5OUT &= ~RESX;
     308:	31 36       	jge	$-924    	;abs 0xff6c
     30a:	3b 69       	addc	@r9+,	r11	
  delayms(20);
     30c:	6d 61       	addc.b	@r1,	r13	
     30e:	67 3a       	jl	$-816    	;abs 0xffde
     310:	28 30       	jn	$+82     	;abs 0x362
     312:	2c 31       	jn	$+602    	;abs 0x56c
  P5OUT |= RESX;
     314:	29 2c       	jc	$+84     	;abs 0x368
     316:	31 36       	jge	$-924    	;abs 0xff7a
  delayms(20);
     318:	2c 31       	jn	$+602    	;abs 0x572
     31a:	36 3b       	jl	$-402    	;abs 0x188
     31c:	3b 00 63 6f 	mova	0x6f63,	r11	;PC rel. 0x07281

  // Sleep out...
  n6100_send(0x11,2);   
     320:	6d 70       	subc.b	@r0,	r13	
     322:	6c 65       	addc.b	@r5,	r12	
     324:	78 20       	jnz	$+242    	;abs 0x416
     326:	66 6c       	addc.b	@r12,	r6	
     328:	6f 61       	addc.b	@r1,	r15	
  // Ajusta o contraste...
  n6100_sendcom1(0x25, 0x40);
     32a:	74 3a       	jl	$-790    	;abs 0x14
     32c:	74 28       	jnc	$+234    	;abs 0x416
     32e:	30 2c       	jc	$+98     	;abs 0x390
     330:	31 36       	jge	$-924    	;abs 0xff94
     332:	29 3d       	jmp	$+596    	;abs 0x586
     334:	52 33       	jn	$-346    	;abs 0x1da
  // Liga o display e o booster...    
  n6100_send(0x29,2);
     336:	3b 38       	jl	$+120    	;abs 0x3ae
     338:	3b 30       	jn	$+120    	;abs 0x3b0
     33a:	3b 00 63 6f 	mova	0x6f63,	r11	;PC rel. 0x0729f
     33e:	6d 70       	subc.b	@r0,	r13	
  n6100_send(0x03,2);
     340:	6c 65       	addc.b	@r5,	r12	
     342:	78 20       	jnz	$+242    	;abs 0x434
     344:	64 6f       	addc.b	@r15,	r4	
     346:	75 62       	addc.b	#8,	r5	;r2 As==11
     348:	6c 65       	addc.b	@r5,	r12	
  delayms(10);  
     34a:	3a 74       	subc	@r4+,	r10	
     34c:	28 30       	jn	$+82     	;abs 0x39e
     34e:	2c 31       	jn	$+602    	;abs 0x5a8
     350:	37 29       	jnc	$+624    	;abs 0x5c0
    
  // Color Format... (8bits/pixel)
  n6100_sendcom1(0x3a, 0x02);
     352:	3d 52       	add	#8,	r13	;r2 As==11
     354:	33 3b       	jl	$-408    	;abs 0x1bc
     356:	38 3b       	jl	$-398    	;abs 0x1c8
     358:	30 3b       	jl	$-414    	;abs 0x1ba
     35a:	00 63       	adc	r0		
  // Inicializa a tabela de cores 8bits/pixel
  n6100_send(0x2d,2);
     35c:	6f 6d       	addc.b	@r13,	r15	
     35e:	70 6c       	addc.b	@r12+,	r0	
     360:	65 78       	subc.b	@r8,	r5	
     362:	20 6c       	addc	@r12,	r0	
     364:	6f 6e       	addc.b	@r14,	r15	
  // red
  n6100_send(0x00,0);
     366:	67 20       	jnz	$+208    	;abs 0x436
     368:	64 6f       	addc.b	@r15,	r4	
     36a:	75 62       	addc.b	#8,	r5	;r2 As==11
     36c:	6c 65       	addc.b	@r5,	r12	
  n6100_send(0x02,0);
     36e:	3a 74       	subc	@r4+,	r10	
     370:	28 30       	jn	$+82     	;abs 0x3c2
     372:	2c 31       	jn	$+602    	;abs 0x5cc
     374:	38 29       	jnc	$+626    	;abs 0x5e6
  n6100_send(0x05,0);
     376:	3d 52       	add	#8,	r13	;r2 As==11
     378:	33 3b       	jl	$-408    	;abs 0x1e0
     37a:	38 3b       	jl	$-398    	;abs 0x1ec
     37c:	30 3b       	jl	$-414    	;abs 0x1de
     37e:	00 5f       	add	r15,	r0	
  n6100_send(0x07,0);
     380:	5f 62 75 69 	addc.b	&0x6975,r15	
     384:	6c 74       	subc.b	@r4,	r12	
     386:	69 6e       	addc.b	@r14,	r9	
     388:	5f 76 61 5f 	subc.b	24417(r6),r15	;0x5f61(r6)
  n6100_send(0x09,0);
     38c:	6c 69       	addc.b	@r9,	r12	
     38e:	73 74       	.word	0x7473;	????	Illegal as 2-op instr
     390:	3a 74       	subc	@r4+,	r10	
     392:	28 30       	jn	$+82     	;abs 0x3e4
  n6100_send(0x0b,0);
     394:	2c 31       	jn	$+602    	;abs 0x5ee
     396:	39 29       	jnc	$+628    	;abs 0x60a
     398:	3d 2a       	jnc	$-900    	;abs 0x14
     39a:	28 30       	jn	$+82     	;abs 0x3ec
     39c:	2c 32       	jn	$-934    	;abs 0xfff6
  n6100_send(0x0d,0);
     39e:	30 29       	jnc	$+610    	;abs 0x600
     3a0:	3d 28       	jnc	$+124    	;abs 0x41c
     3a2:	30 2c       	jc	$+98     	;abs 0x404
     3a4:	32 30       	jn	$+102    	;abs 0x40a
     3a6:	29 00 5f 42 	mova	&0x0425f,r9	
  n6100_send(0x0f,0);
     3aa:	6f 6f       	addc.b	@r15,	r15	
     3ac:	6c 3a       	jl	$-806    	;abs 0x86
     3ae:	74 28       	jnc	$+234    	;abs 0x498
     3b0:	30 2c       	jc	$+98     	;abs 0x412
  // green
  n6100_send(0x00,0);
     3b2:	32 31       	jn	$+614    	;abs 0x618
     3b4:	29 3d       	jmp	$+596    	;abs 0x608
     3b6:	40 73       	sbc.b	r0		
     3b8:	38 3b       	jl	$-398    	;abs 0x22a
  n6100_send(0x02,0);
     3ba:	2d 31       	jn	$+604    	;abs 0x616
     3bc:	36 3b       	jl	$-402    	;abs 0x22a
     3be:	00 6c       	addc	r12,	r0	
     3c0:	63 64       	.word	0x6463;	????	Illegal as 2-op instr
  n6100_send(0x05,0);
     3c2:	36 31       	jn	$+622    	;abs 0x630
     3c4:	30 30       	jn	$+98     	;abs 0x426
     3c6:	2e 63       	addc	#2,	r14	;r3 As==10
     3c8:	00 63       	adc	r0		
     3ca:	3a 2f       	jc	$-394    	;abs 0x240
  n6100_send(0x07,0);
     3cc:	6d 73       	subc.b	#2,	r13	;r3 As==10
     3ce:	70 67       	addc.b	@r7+,	r0	
     3d0:	63 63       	.word	0x6363;	????	Illegal as 2-op instr
     3d2:	2f 6d       	addc	@r13,	r15	
     3d4:	73 70       	.word	0x7073;	????	Illegal as 2-op instr
  n6100_send(0x09,0);
     3d6:	34 33       	jn	$-406    	;abs 0x240
     3d8:	30 2f       	jc	$-414    	;abs 0x23a
     3da:	69 6e       	addc.b	@r14,	r9	
     3dc:	63 6c       	.word	0x6c63;	????	Illegal as 2-op instr
     3de:	75 64       	addc.b	@r4+,	r5	
  n6100_send(0x0b,0);
     3e0:	65 2f       	jc	$-308    	;abs 0x2ac
     3e2:	73 74       	.word	0x7473;	????	Illegal as 2-op instr
     3e4:	64 69       	addc.b	@r9,	r4	
     3e6:	6f 2e       	jc	$-800    	;abs 0xc6
     3e8:	68 00 63 3a 	mova	r0,	&0x83a63
  n6100_send(0x0d,0);
     3ec:	2f 6d       	addc	@r13,	r15	
     3ee:	73 70       	.word	0x7073;	????	Illegal as 2-op instr
     3f0:	67 63       	addc.b	#2,	r7	;r3 As==10
     3f2:	63 2f       	jc	$-312    	;abs 0x2ba
  n6100_send(0x0f,0);
     3f4:	6c 69       	addc.b	@r9,	r12	
     3f6:	62 2f       	jc	$-314    	;abs 0x2bc
     3f8:	67 63       	addc.b	#2,	r7	;r3 As==10
     3fa:	63 2d       	jc	$+712    	;abs 0x6c2
     3fc:	6c 69       	addc.b	@r9,	r12	
  // blue
  n6100_send(0x00,0);
     3fe:	62 2f       	jc	$-314    	;abs 0x2c4
     400:	6d 73       	subc.b	#2,	r13	;r3 As==10
     402:	70 34       	jge	$+226    	;abs 0x4e4
     404:	33 30       	jn	$+104    	;abs 0x46c
  n6100_send(0x05,0);
     406:	2f 33       	jn	$-416    	;abs 0x266
     408:	2e 32       	jn	$-930    	;abs 0x66
     40a:	2e 33       	jn	$-418    	;abs 0x268
     40c:	2f 69       	addc	@r9,	r15	
     40e:	6e 63       	addc.b	#2,	r14	;r3 As==10
  n6100_send(0x0b,0);
     410:	6c 75       	subc.b	@r5,	r12	
     412:	64 65       	addc.b	@r5,	r4	
     414:	2f 73       	subc	#2,	r15	;r3 As==10
     416:	74 64       	addc.b	@r4+,	r4	
     418:	64 65       	addc.b	@r5,	r4	
  n6100_send(0x0f,0);
     41a:	66 2e       	jc	$-818    	;abs 0xe8
     41c:	68 00 70 74 	mova	r0,	&0x87470
     420:	72 64       	addc.b	@r4+,	r2	
     422:	69 66       	addc.b	@r6,	r9	

  // Memory Access Control...  
  n6100_sendcom1(0x36, invertido);
     424:	66 5f       	add.b	@r15,	r6	
     426:	74 3a       	jl	$-790    	;abs 0x110
     428:	74 28       	jnc	$+234    	;abs 0x512
     42a:	33 2c       	jc	$+104    	;abs 0x492
     42c:	31 29       	jnc	$+612    	;abs 0x690
  // Agradecimentos...
  lcd_fillrect(0, 0, 132, 132, cor);
     42e:	3d 28       	jnc	$+124    	;abs 0x4aa
     430:	30 2c       	jc	$+98     	;abs 0x492
     432:	31 29       	jnc	$+612    	;abs 0x696
     434:	00 73       	sbc	r0		
     436:	69 7a       	subc.b	@r10,	r9	
     438:	65 5f       	add.b	@r15,	r5	
     43a:	74 3a       	jl	$-790    	;abs 0x124
     43c:	74 28       	jnc	$+234    	;abs 0x526
     43e:	33 2c       	jc	$+104    	;abs 0x4a6
     440:	32 29       	jnc	$+614    	;abs 0x6a6
  //n6100_putlogo(2, 2, 128, 128, (unsigned char *)Matrix);
  //delayms(4000);
}
     442:	3d 28       	jnc	$+124    	;abs 0x4be
     444:	30 2c       	jc	$+98     	;abs 0x4a6

void lcd_clear(unsigned char cor) 
{
  lcd_fillrect(0, 0, 132, 132, cor);
     446:	34 29       	jnc	$+618    	;abs 0x6b0
     448:	00 77       	subc	r7,	r0	
     44a:	63 68       	.word	0x6863;	????	Illegal as 2-op instr
     44c:	61 72       	subc.b	#4,	r1	;r2 As==10
     44e:	5f 74 3a 74 	subc.b	29754(r4),r15	;0x743a(r4)
     452:	28 33       	jn	$-430    	;abs 0x2a4
     454:	2c 33       	jn	$-422    	;abs 0x2ae
     456:	29 3d       	jmp	$+596    	;abs 0x6aa
     458:	28 30       	jn	$+82     	;abs 0x4aa
}
     45a:	2c 31       	jn	$+602    	;abs 0x6b4

void n6100_sendcom1(unsigned char comm, unsigned char dat)
{
     45c:	29 00 63 3a 	mova	&0x03a63,r9	
    n6100_send(comm, 3);
     460:	2f 6d       	addc	@r13,	r15	
     462:	73 70       	.word	0x7073;	????	Illegal as 2-op instr
     464:	67 63       	addc.b	#2,	r7	;r3 As==10
     466:	63 2f       	jc	$-312    	;abs 0x32e
    n6100_send(dat, 0);
     468:	6d 73       	subc.b	#2,	r13	;r3 As==10
     46a:	70 34       	jge	$+226    	;abs 0x54c
     46c:	33 30       	jn	$+104    	;abs 0x4d4
     46e:	2f 69       	addc	@r9,	r15	
}
     470:	6e 63       	addc.b	#2,	r14	;r3 As==10
     472:	6c 75       	subc.b	@r5,	r12	

void n6100_sendcom2(unsigned char comm, unsigned char dat1, unsigned char dat2)
{
     474:	64 65       	addc.b	@r5,	r4	
     476:	2f 73       	subc	#2,	r15	;r3 As==10
     478:	79 73       	subc.b	#-1,	r9	;r3 As==11
     47a:	2f 74       	subc	@r4,	r15	
    n6100_send(comm, 3);
     47c:	79 70 65 73 	subc.b	#29541,	r9	;#0x7365
     480:	2e 68       	addc	@r8,	r14	
     482:	00 63       	adc	r0		
    n6100_send(dat1, 1);
     484:	3a 2f       	jc	$-394    	;abs 0x2fa
     486:	6d 73       	subc.b	#2,	r13	;r3 As==10
     488:	70 67       	addc.b	@r7+,	r0	
     48a:	63 63       	.word	0x6363;	????	Illegal as 2-op instr
    n6100_send(dat2, 0);
     48c:	2f 6d       	addc	@r13,	r15	
     48e:	73 70       	.word	0x7073;	????	Illegal as 2-op instr
     490:	34 33       	jn	$-406    	;abs 0x2fa
     492:	30 2f       	jc	$-414    	;abs 0x2f4
}
     494:	69 6e       	addc.b	@r14,	r9	
     496:	63 6c       	.word	0x6c63;	????	Illegal as 2-op instr
     498:	75 64       	addc.b	@r4+,	r5	

void lcd_fillrect(unsigned char x, unsigned char y, unsigned char lx, unsigned char ly, unsigned char cor)
{
     49a:	65 2f       	jc	$-308    	;abs 0x366
     49c:	73 79       	.word	0x7973;	????	Illegal as 2-op instr
     49e:	73 2f       	jc	$-280    	;abs 0x386
     4a0:	63 64       	.word	0x6463;	????	Illegal as 2-op instr
     4a2:	65 66       	addc.b	@r6,	r5	
     4a4:	73 2e       	jc	$-792    	;abs 0x18c
     4a6:	68 00 63 3a 	mova	r0,	&0x83a63
     4aa:	2f 6d       	addc	@r13,	r15	
     4ac:	73 70       	.word	0x7073;	????	Illegal as 2-op instr
     4ae:	67 63       	addc.b	#2,	r7	;r3 As==10
     4b0:	63 2f       	jc	$-312    	;abs 0x378
     4b2:	6d 73       	subc.b	#2,	r13	;r3 As==10
    unsigned int addr, max;
    
    n6100_sendcom2(0x2a, x, x+lx-1);
     4b4:	70 34       	jge	$+226    	;abs 0x596
     4b6:	33 30       	jn	$+104    	;abs 0x51e
     4b8:	2f 69       	addc	@r9,	r15	
     4ba:	6e 63       	addc.b	#2,	r14	;r3 As==10
     4bc:	6c 75       	subc.b	@r5,	r12	
     4be:	64 65       	addc.b	@r5,	r4	
     4c0:	2f 73       	subc	#2,	r15	;r3 As==10
     4c2:	79 73       	subc.b	#-1,	r9	;r3 As==11
    n6100_sendcom2(0x2b, y, y+ly-1);
     4c4:	2f 69       	addc	@r9,	r15	
     4c6:	6e 74       	subc.b	@r4,	r14	
     4c8:	74 79       	subc.b	@r9+,	r4	
     4ca:	70 65       	addc.b	@r5+,	r0	
     4cc:	73 2e       	jc	$-792    	;abs 0x1b4
     4ce:	68 00 69 6e 	mova	r0,	&0x86e69
     4d2:	74 38       	jl	$+234    	;abs 0x5bc
     4d4:	5f 74 3a 74 	subc.b	29754(r4),r15	;0x743a(r4)
    
    n6100_send(0x2c, 3);
     4d8:	28 36       	jge	$-942    	;abs 0x12a
     4da:	2c 31       	jn	$+602    	;abs 0x734
     4dc:	29 3d       	jmp	$+596    	;abs 0x730
     4de:	28 30       	jn	$+82     	;abs 0x530
     4e0:	2c 31       	jn	$+602    	;abs 0x73a
    
    max = lx*ly;
     4e2:	30 29       	jnc	$+610    	;abs 0x744
     4e4:	00 75       	subc	r5,	r0	
     4e6:	69 6e       	addc.b	@r14,	r9	
     4e8:	74 38       	jl	$+234    	;abs 0x5d2
     4ea:	5f 74 3a 74 	subc.b	29754(r4),r15	;0x743a(r4)
     4ee:	28 36       	jge	$-942    	;abs 0x140
     4f0:	2c 32       	jn	$-934    	;abs 0x14a
     4f2:	29 3d       	jmp	$+596    	;abs 0x746
     4f4:	28 30       	jn	$+82     	;abs 0x546
    for(addr=0; addr<max; addr++)
     4f6:	2c 31       	jn	$+602    	;abs 0x750
     4f8:	31 29       	jnc	$+612    	;abs 0x75c
     4fa:	00 69       	addc	r9,	r0	
    {
      n6100_send(cor, 1);
     4fc:	6e 74       	subc.b	@r4,	r14	
     4fe:	31 36       	jge	$-924    	;abs 0x162
     500:	5f 74 3a 74 	subc.b	29754(r4),r15	;0x743a(r4)
    n6100_sendcom2(0x2b, y, y+ly-1);
    
    n6100_send(0x2c, 3);
    
    max = lx*ly;
    for(addr=0; addr<max; addr++)
     504:	28 36       	jge	$-942    	;abs 0x156
     506:	2c 33       	jn	$-422    	;abs 0x360
     508:	29 3d       	jmp	$+596    	;abs 0x75c
    {
      n6100_send(cor, 1);
    }
    
    P5OUT &= ~SDA;
     50a:	28 30       	jn	$+82     	;abs 0x55c
     50c:	2c 31       	jn	$+602    	;abs 0x766
    P5OUT |= CSX;
     50e:	29 00 75 69 	mova	&0x06975,r9	
    
    n6100_sendcom2(0x2a, 0, 0x83);
     512:	6e 74       	subc.b	@r4,	r14	
     514:	31 36       	jge	$-924    	;abs 0x178
     516:	5f 74 3a 74 	subc.b	29754(r4),r15	;0x743a(r4)
     51a:	28 36       	jge	$-942    	;abs 0x16c
     51c:	2c 34       	jge	$+90     	;abs 0x576
     51e:	29 3d       	jmp	$+596    	;abs 0x772
    n6100_sendcom2(0x2b, 0, 0x83);
     520:	28 30       	jn	$+82     	;abs 0x572
     522:	2c 34       	jge	$+90     	;abs 0x57c
     524:	29 00 69 6e 	mova	&0x06e69,r9	
     528:	74 33       	jn	$-278    	;abs 0x412
     52a:	32 5f       	add	@r15+,	r2	
     52c:	74 3a       	jl	$-790    	;abs 0x216
}
     52e:	74 28       	jnc	$+234    	;abs 0x618
     530:	36 2c       	jc	$+110    	;abs 0x59e
     532:	35 29       	jnc	$+620    	;abs 0x79e
     534:	3d 28       	jnc	$+124    	;abs 0x5b0
     536:	30 2c       	jc	$+98     	;abs 0x598
     538:	33 29       	jnc	$+616    	;abs 0x7a0


void lcd_drawcircle(unsigned int x0, unsigned int y0, unsigned int radius, unsigned char color, int width){
     53a:	00 75       	subc	r5,	r0	
     53c:	69 6e       	addc.b	@r14,	r9	
     53e:	74 33       	jn	$-278    	;abs 0x428
     540:	32 5f       	add	@r15+,	r2	
     542:	74 3a       	jl	$-790    	;abs 0x22c
     544:	74 28       	jnc	$+234    	;abs 0x62e
     546:	36 2c       	jc	$+110    	;abs 0x5b4
     548:	36 29       	jnc	$+622    	;abs 0x7b6
     54a:	3d 28       	jnc	$+124    	;abs 0x5c6
     54c:	30 2c       	jc	$+98     	;abs 0x5ae
     54e:	35 29       	jnc	$+620    	;abs 0x7ba
     550:	00 69       	addc	r9,	r0	
     552:	6e 74       	subc.b	@r4,	r14	
     554:	36 34       	jge	$+110    	;abs 0x5c2
     556:	5f 74 3a 74 	subc.b	29754(r4),r15	;0x743a(r4)
     55a:	28 36       	jge	$-942    	;abs 0x1ac
    int f = 1 - radius;
     55c:	2c 37       	jge	$-422    	;abs 0x3b6
     55e:	29 3d       	jmp	$+596    	;abs 0x7b2
     560:	28 30       	jn	$+82     	;abs 0x5b2
     562:	2c 36       	jge	$-934    	;abs 0x1bc
    int ddF_x = 0;
     564:	29 00 75 69 	mova	&0x06975,r9	
    int ddF_y = -2 * radius;
     568:	6e 74       	subc.b	@r4,	r14	
     56a:	36 34       	jge	$+110    	;abs 0x5d8
     56c:	5f 74 3a 74 	subc.b	29754(r4),r15	;0x743a(r4)
     570:	28 36       	jge	$-942    	;abs 0x1c2
     572:	2c 38       	jl	$+90     	;abs 0x5cc
     574:	29 3d       	jmp	$+596    	;abs 0x7c8
     576:	28 30       	jn	$+82     	;abs 0x5c8
    int x = 0;
     578:	2c 37       	jge	$-422    	;abs 0x3d2
    int y = radius;
     57a:	29 00 69 6e 	mova	&0x06e69,r9	
    lcd_fillrect(x0, y0 + radius,width,width, color);
     57e:	74 70 74 72 	subc.b	#29300,	r4	;#0x7274
     582:	5f 74 3a 74 	subc.b	29754(r4),r15	;0x743a(r4)
     586:	28 36       	jge	$-942    	;abs 0x1d8
     588:	2c 39       	jl	$+602    	;abs 0x7e2
     58a:	29 3d       	jmp	$+596    	;abs 0x7de
     58c:	28 36       	jge	$-942    	;abs 0x1de
     58e:	2c 33       	jn	$-422    	;abs 0x3e8
     590:	29 00 75 69 	mova	&0x06975,r9	
    lcd_fillrect(x0, y0 - radius,width,width, color);
     594:	6e 74       	subc.b	@r4,	r14	
     596:	70 74       	subc.b	@r4+,	r0	
     598:	72 5f       	add.b	@r15+,	r2	
     59a:	74 3a       	jl	$-790    	;abs 0x284
     59c:	74 28       	jnc	$+234    	;abs 0x686
     59e:	36 2c       	jc	$+110    	;abs 0x60c
     5a0:	31 30       	jn	$+100    	;abs 0x604
     5a2:	29 3d       	jmp	$+596    	;abs 0x7f6
     5a4:	28 36       	jge	$-942    	;abs 0x1f6
     5a6:	2c 34       	jge	$+90     	;abs 0x600
     5a8:	29 00 75 5f 	mova	&0x05f75,r9	
    lcd_fillrect(x0 + radius, y0,width,width, color);
     5ac:	63 68       	.word	0x6863;	????	Illegal as 2-op instr
     5ae:	61 72       	subc.b	#4,	r1	;r2 As==10
     5b0:	3a 74       	subc	@r4+,	r10	
     5b2:	28 34       	jge	$+82     	;abs 0x604
     5b4:	2c 31       	jn	$+602    	;abs 0x80e
     5b6:	29 3d       	jmp	$+596    	;abs 0x80a
     5b8:	28 30       	jn	$+82     	;abs 0x60a
     5ba:	2c 31       	jn	$+602    	;abs 0x814
     5bc:	31 29       	jnc	$+612    	;abs 0x820
     5be:	00 75       	subc	r5,	r0	
     5c0:	5f 73       	subc.b	#1,	r15	;r3 As==01
     5c2:	68 6f       	addc.b	@r15,	r8	
    lcd_fillrect(x0 - radius, y0,width,width, color);
     5c4:	72 74       	subc.b	@r4+,	r2	
     5c6:	3a 74       	subc	@r4+,	r10	
     5c8:	28 34       	jge	$+82     	;abs 0x61a
     5ca:	2c 32       	jn	$-934    	;abs 0x224
     5cc:	29 3d       	jmp	$+596    	;abs 0x820
     5ce:	28 30       	jn	$+82     	;abs 0x620
     5d0:	2c 39       	jl	$+602    	;abs 0x82a
     5d2:	29 00 75 5f 	mova	&0x05f75,r9	
     5d6:	69 6e       	addc.b	@r14,	r9	
     5d8:	74 3a       	jl	$-790    	;abs 0x2c2
     5da:	74 28       	jnc	$+234    	;abs 0x6c4
    while (x < y) {
     5dc:	34 2c       	jc	$+106    	;abs 0x646
     5de:	33 29       	jnc	$+616    	;abs 0x846
     5e0:	3d 28       	jnc	$+124    	;abs 0x65c
        if (f >= 0) {
     5e2:	30 2c       	jc	$+98     	;abs 0x644
     5e4:	34 29       	jnc	$+618    	;abs 0x84e
     5e6:	00 75       	subc	r5,	r0	
            y--;
     5e8:	5f 6c 6f 6e 	addc.b	28271(r12),r15	;0x6e6f(r12)
            ddF_y += 2;
     5ec:	67 3a       	jl	$-816    	;abs 0x2bc
            f += ddF_y;
     5ee:	74 28       	jnc	$+234    	;abs 0x6d8
     5f0:	34 2c       	jc	$+106    	;abs 0x65a
     5f2:	34 29       	jnc	$+618    	;abs 0x85c
     5f4:	3d 28       	jnc	$+124    	;abs 0x670
     5f6:	30 2c       	jc	$+98     	;abs 0x658
     5f8:	35 29       	jnc	$+620    	;abs 0x864
     5fa:	00 75       	subc	r5,	r0	
     5fc:	73 68       	.word	0x6873;	????	Illegal as 2-op instr
     5fe:	6f 72       	subc.b	#4,	r15	;r2 As==10
     600:	74 3a       	jl	$-790    	;abs 0x2ea
     602:	74 28       	jnc	$+234    	;abs 0x6ec
     604:	34 2c       	jc	$+106    	;abs 0x66e
     606:	35 29       	jnc	$+620    	;abs 0x872
     608:	3d 28       	jnc	$+124    	;abs 0x684
     60a:	30 2c       	jc	$+98     	;abs 0x66c
     60c:	39 29       	jnc	$+628    	;abs 0x880
     60e:	00 75       	subc	r5,	r0	
     610:	69 6e       	addc.b	@r14,	r9	
     612:	74 3a       	jl	$-790    	;abs 0x2fc
        }
        x++;
     614:	74 28       	jnc	$+234    	;abs 0x6fe
        ddF_x += 2;
     616:	34 2c       	jc	$+106    	;abs 0x680
     618:	36 29       	jnc	$+622    	;abs 0x886
        f += ddF_x + 1;
     61a:	3d 28       	jnc	$+124    	;abs 0x696
     61c:	30 2c       	jc	$+98     	;abs 0x67e
     61e:	34 29       	jnc	$+618    	;abs 0x888
     620:	00 75       	subc	r5,	r0	
     622:	5f 69 6e 74 	addc.b	29806(r9),r15	;0x746e(r9)
        lcd_fillrect(x0 + x, y0 + y,width,width, color);
     626:	38 5f       	add	@r15+,	r8	
     628:	74 3a       	jl	$-790    	;abs 0x312
     62a:	74 28       	jnc	$+234    	;abs 0x714
     62c:	34 2c       	jc	$+106    	;abs 0x696
     62e:	37 29       	jnc	$+624    	;abs 0x89e
     630:	3d 28       	jnc	$+124    	;abs 0x6ac
     632:	36 2c       	jc	$+110    	;abs 0x6a0
     634:	32 29       	jnc	$+614    	;abs 0x89a
     636:	00 75       	subc	r5,	r0	
        lcd_fillrect(x0 - x, y0 + y,width,width, color);
     638:	5f 69 6e 74 	addc.b	29806(r9),r15	;0x746e(r9)
     63c:	31 36       	jge	$-924    	;abs 0x2a0
     63e:	5f 74 3a 74 	subc.b	29754(r4),r15	;0x743a(r4)
     642:	28 34       	jge	$+82     	;abs 0x694
     644:	2c 38       	jl	$+90     	;abs 0x69e
     646:	29 3d       	jmp	$+596    	;abs 0x89a
     648:	28 36       	jge	$-942    	;abs 0x29a
     64a:	2c 34       	jge	$+90     	;abs 0x6a4
        lcd_fillrect(x0 + x, y0 - y,width,width, color);
     64c:	29 00 75 5f 	mova	&0x05f75,r9	
     650:	69 6e       	addc.b	@r14,	r9	
     652:	74 33       	jn	$-278    	;abs 0x53c
     654:	32 5f       	add	@r15+,	r2	
     656:	74 3a       	jl	$-790    	;abs 0x340
     658:	74 28       	jnc	$+234    	;abs 0x742
     65a:	34 2c       	jc	$+106    	;abs 0x6c4
        lcd_fillrect(x0 - x, y0 - y,width,width, color);
     65c:	39 29       	jnc	$+628    	;abs 0x8d0
     65e:	3d 28       	jnc	$+124    	;abs 0x6da
     660:	36 2c       	jc	$+110    	;abs 0x6ce
     662:	36 29       	jnc	$+622    	;abs 0x8d0
     664:	00 75       	subc	r5,	r0	
     666:	5f 69 6e 74 	addc.b	29806(r9),r15	;0x746e(r9)
     66a:	36 34       	jge	$+110    	;abs 0x6d8
        lcd_fillrect(x0 + y, y0 + x,width,width, color);
     66c:	5f 74 3a 74 	subc.b	29754(r4),r15	;0x743a(r4)
     670:	28 34       	jge	$+82     	;abs 0x6c2
     672:	2c 31       	jn	$+602    	;abs 0x8cc
     674:	30 29       	jnc	$+610    	;abs 0x8d6
     676:	3d 28       	jnc	$+124    	;abs 0x6f2
     678:	36 2c       	jc	$+110    	;abs 0x6e6
     67a:	38 29       	jnc	$+626    	;abs 0x8ec
     67c:	00 75       	subc	r5,	r0	
     67e:	5f 71 75 61 	subc.b	24949(r1),r15	;0x6175(r1)
        lcd_fillrect(x0 - y, y0 + x,width,width, color);
     682:	64 5f       	add.b	@r15,	r4	
     684:	74 3a       	jl	$-790    	;abs 0x36e
     686:	74 28       	jnc	$+234    	;abs 0x770
     688:	34 2c       	jc	$+106    	;abs 0x6f2
     68a:	31 31       	jn	$+612    	;abs 0x8ee
     68c:	29 3d       	jmp	$+596    	;abs 0x8e0
     68e:	28 34       	jge	$+82     	;abs 0x6e0
        lcd_fillrect(x0 + y, y0 - x,width,width, color);
     690:	2c 31       	jn	$+602    	;abs 0x8ea
     692:	30 29       	jnc	$+610    	;abs 0x8f4
     694:	00 71       	subc	r1,	r0	
     696:	75 61       	addc.b	@r1+,	r5	
     698:	64 5f       	add.b	@r15,	r4	
     69a:	74 3a       	jl	$-790    	;abs 0x384
     69c:	74 28       	jnc	$+234    	;abs 0x786
     69e:	34 2c       	jc	$+106    	;abs 0x708
     6a0:	31 32       	jn	$-924    	;abs 0x304
     6a2:	29 3d       	jmp	$+596    	;abs 0x8f6
        lcd_fillrect(x0 - y,y0 - x,width,width,color);   
     6a4:	28 36       	jge	$-942    	;abs 0x2f6
     6a6:	2c 37       	jge	$-422    	;abs 0x500
     6a8:	29 00 71 61 	mova	&0x06171,r9	
     6ac:	64 64       	addc.b	@r4,	r4	
     6ae:	72 5f       	add.b	@r15+,	r2	
     6b0:	74 3a       	jl	$-790    	;abs 0x39a
     6b2:	74 28       	jnc	$+234    	;abs 0x79c
     6b4:	34 2c       	jc	$+106    	;abs 0x71e
     6b6:	31 33       	jn	$-412    	;abs 0x51a
     6b8:	29 3d       	jmp	$+596    	;abs 0x90c
     6ba:	28 34       	jge	$+82     	;abs 0x70c
    }
}
     6bc:	2c 31       	jn	$+602    	;abs 0x916
     6be:	34 29       	jnc	$+618    	;abs 0x928
     6c0:	3d 2a       	jnc	$-900    	;abs 0x33c
     6c2:	28 34       	jge	$+82     	;abs 0x714
     6c4:	2c 31       	jn	$+602    	;abs 0x91e
     6c6:	32 29       	jnc	$+614    	;abs 0x92c
     6c8:	00 63       	adc	r0		
     6ca:	61 64       	addc.b	@r4,	r1	
     6cc:	64 72       	subc.b	#4,	r4	;r2 As==10
     6ce:	5f 74 3a 74 	subc.b	29754(r4),r15	;0x743a(r4)

void lcd_drawline(int x0, int y0, int x1, int y1, int color, int width) {
     6d2:	28 34       	jge	$+82     	;abs 0x724
     6d4:	2c 31       	jn	$+602    	;abs 0x92e
     6d6:	35 29       	jnc	$+620    	;abs 0x942
     6d8:	3d 28       	jnc	$+124    	;abs 0x754
     6da:	34 2c       	jc	$+106    	;abs 0x744
     6dc:	31 36       	jge	$-924    	;abs 0x340
     6de:	29 3d       	jmp	$+596    	;abs 0x932
     6e0:	2a 28       	jnc	$+86     	;abs 0x736
     6e2:	30 2c       	jc	$+98     	;abs 0x744
     6e4:	32 29       	jnc	$+614    	;abs 0x94a
     6e6:	00 63       	adc	r0		
     6e8:	5f 63       	addc.b	#1,	r15	;r3 As==01
     6ea:	61 64       	addc.b	@r4,	r1	
     6ec:	64 72       	subc.b	#4,	r4	;r2 As==10
     6ee:	5f 74 3a 74 	subc.b	29754(r4),r15	;0x743a(r4)
     6f2:	28 34       	jge	$+82     	;abs 0x744
     6f4:	2c 31       	jn	$+602    	;abs 0x94e
     6f6:	37 29       	jnc	$+624    	;abs 0x966
     6f8:	3d 28       	jnc	$+124    	;abs 0x774
     6fa:	34 2c       	jc	$+106    	;abs 0x764
    int dy = y1 - y0;
     6fc:	31 38       	jl	$+100    	;abs 0x760
     6fe:	29 3d       	jmp	$+596    	;abs 0x952
    int dx = x1 - x0;
     700:	2a 28       	jnc	$+86     	;abs 0x756
     702:	34 2c       	jc	$+106    	;abs 0x76c
    int stepx, stepy;
    if (dy < 0) { 
     704:	31 39       	jl	$+612    	;abs 0x968
     706:	29 3d       	jmp	$+596    	;abs 0x95a
        dy = -dy; 
        stepy = -1; 
    } 
    else { 
        stepy = 1; 
     708:	6b 28       	jnc	$+216    	;abs 0x7e0
     70a:	30 2c       	jc	$+98     	;abs 0x76c
    }
    if (dx < 0) {
     70c:	32 29       	jnc	$+614    	;abs 0x972
     70e:	00 76       	subc	r6,	r0	
        dx = -dx; 
        stepx = -1; 
    } 
    else { 
        stepx = 1; 
     710:	5f 63       	addc.b	#1,	r15	;r3 As==01
     712:	61 64       	addc.b	@r4,	r1	
    }
    dy <<= 1; // dy is now 2*dy
     714:	64 72       	subc.b	#4,	r4	;r2 As==10
    dx <<= 1; // dx is now 2*dx
     716:	5f 74 3a 74 	subc.b	29754(r4),r15	;0x743a(r4)
    lcd_fillrect(x0, y0, width, width, color);
     71a:	28 34       	jge	$+82     	;abs 0x76c
     71c:	2c 32       	jn	$-934    	;abs 0x376
     71e:	30 29       	jnc	$+610    	;abs 0x980
     720:	3d 28       	jnc	$+124    	;abs 0x79c
     722:	34 2c       	jc	$+106    	;abs 0x78c
     724:	32 31       	jn	$+614    	;abs 0x98a

    if (dx > dy) {
     726:	29 3d       	jmp	$+596    	;abs 0x97a
     728:	2a 28       	jnc	$+86     	;abs 0x77e
     72a:	34 2c       	jc	$+106    	;abs 0x794
        int fraction = dy - (dx >> 1); // same as 2*dy - dx
     72c:	32 32       	jn	$-922    	;abs 0x392
     72e:	29 3d       	jmp	$+596    	;abs 0x982
     730:	42 28       	jnc	$+134    	;abs 0x7b6
     732:	30 2c       	jc	$+98     	;abs 0x794
        while (x0 != x1) {
     734:	32 29       	jnc	$+614    	;abs 0x99a
     736:	00 66       	addc	r6,	r0	
            if (fraction >= 0) {
     738:	69 78       	subc.b	@r8,	r9	
     73a:	70 74       	subc.b	@r4+,	r0	
                y0 += stepy;
     73c:	5f 74 3a 74 	subc.b	29754(r4),r15	;0x743a(r4)
                fraction -= dx; // same as fraction -= 2*dx
     740:	28 34       	jge	$+82     	;abs 0x792
            }
            x0 += stepx;
     742:	2c 32       	jn	$-934    	;abs 0x39c
     744:	33 29       	jnc	$+616    	;abs 0x9ac
            fraction += dy; // same as fraction -= 2*dy
     746:	3d 28       	jnc	$+124    	;abs 0x7c2
            lcd_fillrect(x0, y0, width, width, color);
     748:	34 2c       	jc	$+106    	;abs 0x7b2
     74a:	39 29       	jnc	$+628    	;abs 0x9be
     74c:	00 67       	addc	r7,	r0	
     74e:	69 64       	addc.b	@r4,	r9	
     750:	5f 74 3a 74 	subc.b	29754(r4),r15	;0x743a(r4)
     754:	28 34       	jge	$+82     	;abs 0x7a6
     756:	2c 32       	jn	$-934    	;abs 0x3b0
     758:	34 29       	jnc	$+618    	;abs 0x9c2
     75a:	3d 28       	jnc	$+124    	;abs 0x7d6
     75c:	34 2c       	jc	$+106    	;abs 0x7c6
        }
    } 
    else {
        int fraction = dx - (dy >> 1);
     75e:	39 29       	jnc	$+628    	;abs 0x9d2
     760:	00 69       	addc	r9,	r0	
     762:	6e 5f       	add.b	@r15,	r14	
     764:	61 64       	addc.b	@r4,	r1	
        while (y0 != y1) {
     766:	64 72       	subc.b	#4,	r4	;r2 As==10
     768:	5f 74 3a 74 	subc.b	29754(r4),r15	;0x743a(r4)
            if (fraction >= 0) {
     76c:	28 34       	jge	$+82     	;abs 0x7be
                x0 += stepx;
     76e:	2c 32       	jn	$-934    	;abs 0x3c8
     770:	35 29       	jnc	$+620    	;abs 0x9dc
                fraction -= dy;
     772:	3d 28       	jnc	$+124    	;abs 0x7ee
            }
            y0 += stepy;
     774:	34 2c       	jc	$+106    	;abs 0x7de
     776:	39 29       	jnc	$+628    	;abs 0x9ea
            fraction += dx;
     778:	00 69       	addc	r9,	r0	
            lcd_fillrect(x0, y0, width, width, color);
     77a:	6e 5f       	add.b	@r15,	r14	
     77c:	70 6f       	addc.b	@r15+,	r0	
     77e:	72 74       	subc.b	@r4+,	r2	
     780:	5f 74 3a 74 	subc.b	29754(r4),r15	;0x743a(r4)
     784:	28 34       	jge	$+82     	;abs 0x7d6
     786:	2c 32       	jn	$-934    	;abs 0x3e0
     788:	36 29       	jnc	$+622    	;abs 0x9f6
     78a:	3d 28       	jnc	$+124    	;abs 0x806
     78c:	34 2c       	jc	$+106    	;abs 0x7f6
     78e:	38 29       	jnc	$+626    	;abs 0xa00
    } 
    else { 
        stepy = 1; 
    }
    if (dx < 0) {
        dx = -dx; 
     790:	00 69       	addc	r9,	r0	
     792:	6e 6f       	addc.b	@r15,	r14	
        stepx = -1; 
     794:	5f 74 3a 74 	subc.b	29754(r4),r15	;0x743a(r4)
     798:	28 34       	jge	$+82     	;abs 0x7ea
void lcd_drawline(int x0, int y0, int x1, int y1, int color, int width) {
    int dy = y1 - y0;
    int dx = x1 - x0;
    int stepx, stepy;
    if (dy < 0) { 
        dy = -dy; 
     79a:	2c 32       	jn	$-934    	;abs 0x3f4
     79c:	37 29       	jnc	$+624    	;abs 0xa0c
        stepy = -1; 
     79e:	3d 28       	jnc	$+124    	;abs 0x81a
     7a0:	34 2c       	jc	$+106    	;abs 0x80a
     7a2:	39 29       	jnc	$+628    	;abs 0xa16
            y0 += stepy;
            fraction += dx;
            lcd_fillrect(x0, y0, width, width, color);
        }
    }
}
     7a4:	00 6b       	addc	r11,	r0	
     7a6:	65 79       	subc.b	@r9,	r5	
     7a8:	5f 74 3a 74 	subc.b	29754(r4),r15	;0x743a(r4)
     7ac:	28 34       	jge	$+82     	;abs 0x7fe
     7ae:	2c 32       	jn	$-934    	;abs 0x408
     7b0:	38 29       	jnc	$+626    	;abs 0xa22
     7b2:	3d 28       	jnc	$+124    	;abs 0x82e
     7b4:	30 2c       	jc	$+98     	;abs 0x816
     7b6:	33 29       	jnc	$+616    	;abs 0xa1e
     7b8:	00 6d       	addc	r13,	r0	

void lcd_putlogo(unsigned char x, unsigned char y, unsigned char lx, unsigned char ly, unsigned char p[])
{
     7ba:	6f 64       	addc.b	@r4,	r15	
     7bc:	65 5f       	add.b	@r15,	r5	
     7be:	74 3a       	jl	$-790    	;abs 0x4a8
     7c0:	74 28       	jnc	$+234    	;abs 0x8aa
     7c2:	34 2c       	jc	$+106    	;abs 0x82c
     7c4:	32 39       	jl	$+614    	;abs 0xa2a
     7c6:	29 3d       	jmp	$+596    	;abs 0xa1a
     7c8:	28 34       	jge	$+82     	;abs 0x81a
     7ca:	2c 38       	jl	$+90     	;abs 0x824
     7cc:	29 00 6e 6c 	mova	&0x06c6e,r9	
     7d0:	69 6e       	addc.b	@r14,	r9	
     7d2:	6b 5f       	add.b	@r15,	r11	
    unsigned int addr, max;

    n6100_sendcom2(0x2a, x, x+lx-1);
     7d4:	74 3a       	jl	$-790    	;abs 0x4be
     7d6:	74 28       	jnc	$+234    	;abs 0x8c0
     7d8:	34 2c       	jc	$+106    	;abs 0x842
     7da:	33 30       	jn	$+104    	;abs 0x842
     7dc:	29 3d       	jmp	$+596    	;abs 0xa30
     7de:	28 34       	jge	$+82     	;abs 0x830
     7e0:	2c 38       	jl	$+90     	;abs 0x83a
     7e2:	29 00 72 6c 	mova	&0x06c72,r9	
    n6100_sendcom2(0x2b, y, y+ly-1);
     7e6:	69 6d       	addc.b	@r13,	r9	
     7e8:	5f 74 3a 74 	subc.b	29754(r4),r15	;0x743a(r4)
     7ec:	28 34       	jge	$+82     	;abs 0x83e
     7ee:	2c 33       	jn	$-422    	;abs 0x648
     7f0:	31 29       	jnc	$+612    	;abs 0xa54
     7f2:	3d 28       	jnc	$+124    	;abs 0x86e
     7f4:	34 2c       	jc	$+106    	;abs 0x85e
    
    n6100_send(0x2c, 3);
     7f6:	31 32       	jn	$-924    	;abs 0x45a
     7f8:	29 00 73 65 	mova	&0x06573,r9	
     7fc:	67 73       	subc.b	#2,	r7	;r3 As==10
     7fe:	7a 5f       	add.b	@r15+,	r10	
     800:	74 3a       	jl	$-790    	;abs 0x4ea
    
    max = lx*ly;
     802:	74 28       	jnc	$+234    	;abs 0x8ec
     804:	34 2c       	jc	$+106    	;abs 0x86e
     806:	33 32       	jn	$-920    	;abs 0x46e
     808:	29 3d       	jmp	$+596    	;abs 0xa5c
     80a:	28 36       	jge	$-942    	;abs 0x45c
     80c:	2c 35       	jge	$+602    	;abs 0xa66
     80e:	29 00 73 77 	mova	&0x07773,r9	
     812:	62 6c       	addc.b	@r12,	r2	
     814:	6b 5f       	add.b	@r15,	r11	
    for(addr=0; addr<max; addr++)
     816:	74 3a       	jl	$-790    	;abs 0x500
     818:	74 28       	jnc	$+234    	;abs 0x902
     81a:	34 2c       	jc	$+106    	;abs 0x884
    {
        n6100_send(p[addr], 1);
     81c:	33 33       	jn	$-408    	;abs 0x684
     81e:	29 3d       	jmp	$+596    	;abs 0xa72
     820:	28 36       	jge	$-942    	;abs 0x472
     822:	2c 35       	jge	$+602    	;abs 0xa7c
     824:	29 00 75 66 	mova	&0x06675,r9	
    n6100_sendcom2(0x2b, y, y+ly-1);
    
    n6100_send(0x2c, 3);
    
    max = lx*ly;
    for(addr=0; addr<max; addr++)
     828:	73 5f       	.word	0x5f73;	????	Illegal as 2-op instr
     82a:	64 61       	addc.b	@r1,	r4	
     82c:	64 64       	addc.b	@r4,	r4	
    {
        n6100_send(p[addr], 1);
    }
    
    P5OUT &= ~SDA;
     82e:	72 5f       	add.b	@r15+,	r2	
     830:	74 3a       	jl	$-790    	;abs 0x51a
    P5OUT |= CSX;
     832:	74 28       	jnc	$+234    	;abs 0x91c
     834:	34 2c       	jc	$+106    	;abs 0x89e
    
    n6100_sendcom2(0x2a, 0, 0x83);
     836:	33 34       	jge	$+104    	;abs 0x89e
     838:	29 3d       	jmp	$+596    	;abs 0xa8c
     83a:	28 36       	jge	$-942    	;abs 0x48c
     83c:	2c 35       	jge	$+602    	;abs 0xa96
     83e:	29 00 75 66 	mova	&0x06675,r9	
     842:	73 5f       	.word	0x5f73;	????	Illegal as 2-op instr
    n6100_sendcom2(0x2b, 0, 0x83);
     844:	74 69       	addc.b	@r9+,	r4	
     846:	6d 65       	addc.b	@r5,	r13	
     848:	5f 74 3a 74 	subc.b	29754(r4),r15	;0x743a(r4)
     84c:	28 34       	jge	$+82     	;abs 0x89e
     84e:	2c 33       	jn	$-422    	;abs 0x6a8
     850:	35 29       	jnc	$+620    	;abs 0xabc
}
     852:	3d 28       	jnc	$+124    	;abs 0x8ce
     854:	36 2c       	jc	$+110    	;abs 0x8c2
     856:	35 29       	jnc	$+620    	;abs 0xac2
     858:	00 75       	subc	r5,	r0	
     85a:	69 64       	addc.b	@r4,	r9	
     85c:	5f 74 3a 74 	subc.b	29754(r4),r15	;0x743a(r4)

void lcd_newline(void)
{
    if (++LCD_linecount == LCD_NLINE){
     860:	28 34       	jge	$+82     	;abs 0x8b2
     862:	2c 33       	jn	$-422    	;abs 0x6bc
     864:	36 29       	jnc	$+622    	;abs 0xad2
     866:	3d 28       	jnc	$+124    	;abs 0x8e2
     868:	34 2c       	jc	$+106    	;abs 0x8d2
        LCD_linecount = 0; 
     86a:	39 29       	jnc	$+628    	;abs 0xade
     86c:	00 63       	adc	r0		
    }
    LCD_charcount = 0;
     86e:	3a 2f       	jc	$-394    	;abs 0x6e4
     870:	6d 73       	subc.b	#2,	r13	;r3 As==10
}
     872:	70 67       	addc.b	@r7+,	r0	

void lcd_goto(unsigned char x, unsigned char y)
{
    if (x > LCD_NCHAR-1) x = 0;
     874:	63 63       	.word	0x6363;	????	Illegal as 2-op instr
     876:	2f 6c       	addc	@r12,	r15	
     878:	69 62       	addc.b	#4,	r9	;r2 As==10
     87a:	2f 67       	addc	@r7,	r15	
    if (y > LCD_NLINE-1) y = 0;
     87c:	63 63       	.word	0x6363;	????	Illegal as 2-op instr
     87e:	2d 6c       	addc	@r12,	r13	
     880:	69 62       	addc.b	#4,	r9	;r2 As==10
     882:	2f 6d       	addc	@r13,	r15	
    
    LCD_charcount = x;
     884:	73 70       	.word	0x7073;	????	Illegal as 2-op instr
     886:	34 33       	jn	$-406    	;abs 0x6f0
    LCD_linecount = y;
     888:	30 2f       	jc	$-414    	;abs 0x6ea
     88a:	33 2e       	jc	$-920    	;abs 0x4f2
}
     88c:	32 2e       	jc	$-922    	;abs 0x4f2

void lcd_wrchar(unsigned char c)
{
     88e:	33 2f       	jc	$-408    	;abs 0x6f6
     890:	69 6e       	addc.b	@r14,	r9	
     892:	63 6c       	.word	0x6c63;	????	Illegal as 2-op instr
     894:	75 64       	addc.b	@r4+,	r5	
     896:	65 2f       	jc	$-308    	;abs 0x762
     898:	73 74       	.word	0x7473;	????	Illegal as 2-op instr
     89a:	64 61       	addc.b	@r1,	r4	
  unsigned int j;
  unsigned char i, k, v, mask;

  // Posiciona área para copiar...
  i=6*LCD_charcount;
     89c:	72 67       	addc.b	@r7+,	r2	
     89e:	2e 68       	addc	@r8,	r14	
     8a0:	00 5f       	add	r15,	r0	
     8a2:	5f 67 6e 75 	addc.b	30062(r7),r15	;0x756e(r7)
     8a6:	63 5f       	.word	0x5f63;	????	Illegal as 2-op instr
     8a8:	76 61       	addc.b	@r1+,	r6	
     8aa:	5f 6c 69 73 	addc.b	29545(r12),r15	;0x7369(r12)
  n6100_sendcom2(0x2a, i, i+5);
     8ae:	74 3a       	jl	$-790    	;abs 0x598
     8b0:	74 28       	jnc	$+234    	;abs 0x99a
     8b2:	37 2c       	jc	$+112    	;abs 0x922
     8b4:	31 29       	jnc	$+612    	;abs 0xb18
     8b6:	3d 28       	jnc	$+124    	;abs 0x932
     8b8:	30 2c       	jc	$+98     	;abs 0x91a
  i=8*(LCD_linecount)+2;
     8ba:	31 39       	jl	$+612    	;abs 0xb1e
     8bc:	29 00 76 61 	mova	&0x06176,r9	
     8c0:	5f 6c 69 73 	addc.b	29545(r12),r15	;0x7369(r12)
     8c4:	74 3a       	jl	$-790    	;abs 0x5ae
     8c6:	74 28       	jnc	$+234    	;abs 0x9b0
  n6100_sendcom2(0x2b, i, i+7);
     8c8:	37 2c       	jc	$+112    	;abs 0x938
     8ca:	32 29       	jnc	$+614    	;abs 0xb30
     8cc:	3d 28       	jnc	$+124    	;abs 0x948
     8ce:	37 2c       	jc	$+112    	;abs 0x93e
     8d0:	31 29       	jnc	$+612    	;abs 0xb34
     8d2:	00 63       	adc	r0		
     8d4:	3a 2f       	jc	$-394    	;abs 0x74a
     8d6:	6d 73       	subc.b	#2,	r13	;r3 As==10

  // Rotina de escrita na memória...
  mask = 0x01;
     8d8:	70 67       	addc.b	@r7+,	r0	
  n6100_send(0x2c,2);
     8da:	63 63       	.word	0x6363;	????	Illegal as 2-op instr
     8dc:	2f 6d       	addc	@r13,	r15	
     8de:	73 70       	.word	0x7073;	????	Illegal as 2-op instr
     8e0:	34 33       	jn	$-406    	;abs 0x74a
     8e2:	30 2f       	jc	$-414    	;abs 0x744

  for (k=0; k<8; k++)
     8e4:	69 6e       	addc.b	@r14,	r9	
     8e6:	63 6c       	.word	0x6c63;	????	Illegal as 2-op instr
     8e8:	75 64       	addc.b	@r4+,	r5	
  {
    j = (unsigned int) c * 5;
     8ea:	65 2f       	jc	$-308    	;abs 0x7b6
     8ec:	73 74       	.word	0x7473;	????	Illegal as 2-op instr
     8ee:	64 6c       	addc.b	@r12,	r4	
     8f0:	69 62       	addc.b	#4,	r9	;r2 As==10
     8f2:	2e 68       	addc	@r8,	r14	
     8f4:	00 63       	adc	r0		
    for (i=0; i<5; i++)
     8f6:	3a 2f       	jc	$-394    	;abs 0x76c
     8f8:	6d 73       	subc.b	#2,	r13	;r3 As==10
     8fa:	70 67       	addc.b	@r7+,	r0	
    {
      v = asciitable[j];
     8fc:	63 63       	.word	0x6363;	????	Illegal as 2-op instr
     8fe:	2f 6c       	addc	@r12,	r15	
      if(v & mask) n6100_send(color_fore,0); else n6100_send(color_back,0);
     900:	69 62       	addc.b	#4,	r9	;r2 As==10
     902:	2f 67       	addc	@r7,	r15	
     904:	63 63       	.word	0x6363;	????	Illegal as 2-op instr
     906:	2d 6c       	addc	@r12,	r13	
     908:	69 62       	addc.b	#4,	r9	;r2 As==10
     90a:	2f 6d       	addc	@r13,	r15	
     90c:	73 70       	.word	0x7073;	????	Illegal as 2-op instr
  n6100_send(0x2c,2);

  for (k=0; k<8; k++)
  {
    j = (unsigned int) c * 5;
    for (i=0; i<5; i++)
     90e:	34 33       	jn	$-406    	;abs 0x778
     910:	30 2f       	jc	$-414    	;abs 0x772
     912:	33 2e       	jc	$-920    	;abs 0x57a
     914:	32 2e       	jc	$-922    	;abs 0x57a
     916:	33 2f       	jc	$-408    	;abs 0x77e
     918:	69 6e       	addc.b	@r14,	r9	
     91a:	63 6c       	.word	0x6c63;	????	Illegal as 2-op instr
     91c:	75 64       	addc.b	@r4+,	r5	
     91e:	65 2f       	jc	$-308    	;abs 0x7ea
    {
      v = asciitable[j];
      if(v & mask) n6100_send(color_fore,0); else n6100_send(color_back,0);
      j += 1;
    }
    n6100_send(color_back,0);
     920:	73 74       	.word	0x7473;	????	Illegal as 2-op instr
     922:	64 64       	addc.b	@r4,	r4	
     924:	65 66       	addc.b	@r6,	r5	
     926:	2e 68       	addc	@r8,	r14	
     928:	00 64       	addc	r4,	r0	
    mask <<= 1;
     92a:	69 76       	subc.b	@r6,	r9	

  // Rotina de escrita na memória...
  mask = 0x01;
  n6100_send(0x2c,2);

  for (k=0; k<8; k++)
     92c:	5f 74 3a 74 	subc.b	29754(r4),r15	;0x743a(r4)
     930:	28 38       	jl	$+82     	;abs 0x982
      j += 1;
    }
    n6100_send(color_back,0);
    mask <<= 1;
  }
}
     932:	2c 31       	jn	$+602    	;abs 0xb8c
     934:	29 3d       	jmp	$+596    	;abs 0xb88
     936:	28 38       	jl	$+82     	;abs 0x988
     938:	2c 32       	jn	$-934    	;abs 0x592
     93a:	29 3d       	jmp	$+596    	;abs 0xb8e
     93c:	73 34       	jge	$+232    	;abs 0xa24
     93e:	71 75       	subc.b	@r5+,	r1	

void lcd_putchar(unsigned char c)
{
     940:	6f 74       	subc.b	@r4,	r15	
     942:	3a 28       	jnc	$+118    	;abs 0x9b8
  switch (c)
     944:	30 2c       	jc	$+98     	;abs 0x9a6
     946:	31 29       	jnc	$+612    	;abs 0xbaa
     948:	2c 30       	jn	$+90     	;abs 0x9a2
     94a:	2c 31       	jn	$+602    	;abs 0xba4
     94c:	36 3b       	jl	$-402    	;abs 0x7ba
     94e:	72 65       	addc.b	@r5+,	r2	
     950:	6d 3a       	jl	$-804    	;abs 0x62c
  {
    case 10 : lcd_newline();
              break;
    case 13 : LCD_charcount = 0;
              break;
    default : if (LCD_charcount++ < LCD_NCHAR) lcd_wrchar(c);
     952:	28 30       	jn	$+82     	;abs 0x9a4
     954:	2c 31       	jn	$+602    	;abs 0xbae
     956:	29 2c       	jc	$+84     	;abs 0x9aa
     958:	31 36       	jge	$-924    	;abs 0x5bc
     95a:	2c 31       	jn	$+602    	;abs 0xbb4
     95c:	36 3b       	jl	$-402    	;abs 0x7ca
     95e:	3b 00 6c 64 	mova	0x646c,	r11	;PC rel. 0x06dcc
     962:	69 76       	subc.b	@r6,	r9	
     964:	5f 74 3a 74 	subc.b	29754(r4),r15	;0x743a(r4)
              else
              {
                lcd_newline();
     968:	28 38       	jl	$+82     	;abs 0x9ba
     96a:	2c 33       	jn	$-422    	;abs 0x7c4
                lcd_wrchar(c);
     96c:	29 3d       	jmp	$+596    	;abs 0xbc0
     96e:	28 38       	jl	$+82     	;abs 0x9c0
     970:	2c 34       	jge	$+90     	;abs 0x9ca
                LCD_charcount++;
     972:	29 3d       	jmp	$+596    	;abs 0xbc6
     974:	73 38       	jl	$+232    	;abs 0xa5c
     976:	71 75       	subc.b	@r5+,	r1	
{
  switch (c)
  {
    case 10 : lcd_newline();
              break;
    case 13 : LCD_charcount = 0;
     978:	6f 74       	subc.b	@r4,	r15	
     97a:	3a 28       	jnc	$+118    	;abs 0x9f0
              break;
     97c:	30 2c       	jc	$+98     	;abs 0x9de

void lcd_putchar(unsigned char c)
{
  switch (c)
  {
    case 10 : lcd_newline();
     97e:	33 29       	jnc	$+616    	;abs 0xbe6
     980:	2c 30       	jn	$+90     	;abs 0x9da
                lcd_newline();
                lcd_wrchar(c);
                LCD_charcount++;
              }
  }
}
     982:	2c 33       	jn	$-422    	;abs 0x7dc
     984:	32 3b       	jl	$-410    	;abs 0x7ea

void lcd_drawprogressbar(int x, int y, int lx, int ly, int color, int colorprogress, int percent){
     986:	72 65       	addc.b	@r5+,	r2	
     988:	6d 3a       	jl	$-804    	;abs 0x664
     98a:	28 30       	jn	$+82     	;abs 0x9dc
     98c:	2c 33       	jn	$-422    	;abs 0x7e6
     98e:	29 2c       	jc	$+84     	;abs 0x9e2
     990:	33 32       	jn	$-920    	;abs 0x5f8
     992:	2c 33       	jn	$-422    	;abs 0x7ec
     994:	32 3b       	jl	$-410    	;abs 0x7fa
     996:	3b 00 63 3a 	mova	0x3a63,	r11	;PC rel. 0x043fb
     99a:	2f 6d       	addc	@r13,	r15	
     99c:	73 70       	.word	0x7073;	????	Illegal as 2-op instr
     99e:	67 63       	addc.b	#2,	r7	;r3 As==10
     9a0:	63 2f       	jc	$-312    	;abs 0x868
     9a2:	6d 73       	subc.b	#2,	r13	;r3 As==10
     9a4:	70 34       	jge	$+226    	;abs 0xa86
     9a6:	33 30       	jn	$+104    	;abs 0xa0e
     9a8:	2f 69       	addc	@r9,	r15	
     9aa:	6e 63       	addc.b	#2,	r14	;r3 As==10
     9ac:	6c 75       	subc.b	@r5,	r12	
    int lx_progress = (lx * percent) / 100;
     9ae:	64 65       	addc.b	@r5,	r4	
     9b0:	2f 6d       	addc	@r13,	r15	
     9b2:	73 70       	.word	0x7073;	????	Illegal as 2-op instr
     9b4:	34 33       	jn	$-406    	;abs 0x81e
     9b6:	30 78       	subc	@r8+,	r0	
     9b8:	32 36       	jge	$-922    	;abs 0x61e
     9ba:	31 78       	subc	@r8+,	r1	
     9bc:	2e 68       	addc	@r8,	r14	
     9be:	00 63       	adc	r0		
     9c0:	3a 2f       	jc	$-394    	;abs 0x836
     9c2:	6d 73       	subc.b	#2,	r13	;r3 As==10
     9c4:	70 67       	addc.b	@r7+,	r0	
     9c6:	63 63       	.word	0x6363;	????	Illegal as 2-op instr
     9c8:	2f 6d       	addc	@r13,	r15	
     9ca:	73 70       	.word	0x7073;	????	Illegal as 2-op instr
     9cc:	34 33       	jn	$-406    	;abs 0x836
     9ce:	30 2f       	jc	$-414    	;abs 0x830
     9d0:	69 6e       	addc.b	@r14,	r9	
    lcd_fillrect(x0, ly, lx_progress, ly,color);
     9d2:	63 6c       	.word	0x6c63;	????	Illegal as 2-op instr
     9d4:	75 64       	addc.b	@r4+,	r5	
     9d6:	65 2f       	jc	$-308    	;abs 0x8a2
     9d8:	69 6f       	addc.b	@r15,	r9	
     9da:	6d 61       	addc.b	@r1,	r13	
     9dc:	63 72       	.word	0x7263;	????	Illegal as 2-op instr
     9de:	6f 73       	subc.b	#2,	r15	;r3 As==10
    lcd_fillrect(x0 + lx_progress, y, lx - lx_progress, ly,colorprogress);
     9e0:	2e 68       	addc	@r8,	r14	
     9e2:	00 63       	adc	r0		
     9e4:	3a 2f       	jc	$-394    	;abs 0x85a
     9e6:	6d 73       	subc.b	#2,	r13	;r3 As==10
     9e8:	70 67       	addc.b	@r7+,	r0	
     9ea:	63 63       	.word	0x6363;	????	Illegal as 2-op instr
     9ec:	2f 6d       	addc	@r13,	r15	
     9ee:	73 70       	.word	0x7073;	????	Illegal as 2-op instr
}
     9f0:	34 33       	jn	$-406    	;abs 0x85a
     9f2:	30 2f       	jc	$-414    	;abs 0x854
     9f4:	69 6e       	addc.b	@r14,	r9	
     9f6:	63 6c       	.word	0x6c63;	????	Illegal as 2-op instr
     9f8:	75 64       	addc.b	@r4+,	r5	
     9fa:	65 2f       	jc	$-308    	;abs 0x8c6
     9fc:	6d 73       	subc.b	#2,	r13	;r3 As==10
     9fe:	70 34       	jge	$+226    	;abs 0xae0
     a00:	33 30       	jn	$+104    	;abs 0xa68
     a02:	2f 6d       	addc	@r13,	r15	
     a04:	70 79       	subc.b	@r9+,	r0	
     a06:	2e 68       	addc	@r8,	r14	
     a08:	00 63       	adc	r0		
     a0a:	3a 2f       	jc	$-394    	;abs 0x880
     a0c:	6d 73       	subc.b	#2,	r13	;r3 As==10
     a0e:	70 67       	addc.b	@r7+,	r0	
     a10:	63 63       	.word	0x6363;	????	Illegal as 2-op instr
     a12:	2f 6d       	addc	@r13,	r15	
     a14:	73 70       	.word	0x7073;	????	Illegal as 2-op instr
     a16:	34 33       	jn	$-406    	;abs 0x880
     a18:	30 2f       	jc	$-414    	;abs 0x87a
     a1a:	69 6e       	addc.b	@r14,	r9	
     a1c:	63 6c       	.word	0x6c63;	????	Illegal as 2-op instr
     a1e:	75 64       	addc.b	@r4+,	r5	
     a20:	65 2f       	jc	$-308    	;abs 0x8ec
     a22:	6d 73       	subc.b	#2,	r13	;r3 As==10
     a24:	70 34       	jge	$+226    	;abs 0xb06
     a26:	33 30       	jn	$+104    	;abs 0xa8e
     a28:	2f 67       	addc	@r7,	r15	
     a2a:	70 69       	addc.b	@r9+,	r0	
     a2c:	6f 2e       	jc	$-800    	;abs 0x70c
     a2e:	68 00 63 3a 	mova	r0,	&0x83a63
     a32:	2f 6d       	addc	@r13,	r15	
     a34:	73 70       	.word	0x7073;	????	Illegal as 2-op instr
     a36:	67 63       	addc.b	#2,	r7	;r3 As==10
     a38:	63 2f       	jc	$-312    	;abs 0x900
     a3a:	6d 73       	subc.b	#2,	r13	;r3 As==10
     a3c:	70 34       	jge	$+226    	;abs 0xb1e
     a3e:	33 30       	jn	$+104    	;abs 0xaa6
     a40:	2f 69       	addc	@r9,	r15	
     a42:	6e 63       	addc.b	#2,	r14	;r3 As==10
     a44:	6c 75       	subc.b	@r5,	r12	
     a46:	64 65       	addc.b	@r5,	r4	
     a48:	2f 6d       	addc	@r13,	r15	
     a4a:	73 70       	.word	0x7073;	????	Illegal as 2-op instr
     a4c:	34 33       	jn	$-406    	;abs 0x8b6
     a4e:	30 2f       	jc	$-414    	;abs 0x8b0
     a50:	69 6f       	addc.b	@r15,	r9	
     a52:	73 74       	.word	0x7473;	????	Illegal as 2-op instr
     a54:	72 75       	subc.b	@r5+,	r2	
     a56:	63 74       	.word	0x7463;	????	Illegal as 2-op instr
     a58:	75 72       	subc.b	#8,	r5	;r2 As==11
     a5a:	65 73       	subc.b	#2,	r5	;r3 As==10
     a5c:	2e 68       	addc	@r8,	r14	
     a5e:	00 70       	subc	r0,	r0	
     a60:	6f 72       	subc.b	#4,	r15	;r2 As==10
     a62:	74 3a       	jl	$-790    	;abs 0x74c
     a64:	54 28       	jnc	$+170    	;abs 0xb0e
     a66:	31 34       	jge	$+100    	;abs 0xaca
     a68:	2c 31       	jn	$+602    	;abs 0xcc2
     a6a:	29 3d       	jmp	$+596    	;abs 0xcbe
     a6c:	75 32       	jn	$-788    	;abs 0x758
     a6e:	72 65       	addc.b	@r5+,	r2	
     a70:	67 5f       	add.b	@r15,	r7	
     a72:	70 3a       	jl	$-798    	;abs 0x754
     a74:	28 30       	jn	$+82     	;abs 0xac6
     a76:	2c 31       	jn	$+602    	;abs 0xcd0
     a78:	31 29       	jnc	$+612    	;abs 0xcdc
     a7a:	2c 30       	jn	$+90     	;abs 0xad4
     a7c:	2c 38       	jl	$+90     	;abs 0xad6
     a7e:	3b 5f       	add	@r15+,	r11	
     a80:	5f 70 69 6e 	subc.b	0x6e69,	r15	;PC rel. 0x078ed
     a84:	3a 28       	jnc	$+118    	;abs 0xafa
     a86:	31 34       	jge	$+100    	;abs 0xaea
     a88:	2c 32       	jn	$-934    	;abs 0x6e2
     a8a:	29 3d       	jmp	$+596    	;abs 0xcde
     a8c:	73 32       	jn	$-792    	;abs 0x774
     a8e:	5f 5f 70 30 	add.b	12400(r15),r15	;0x3070(r15)
     a92:	3a 28       	jnc	$+118    	;abs 0xb08
     a94:	30 2c       	jc	$+98     	;abs 0xaf6
     a96:	31 31       	jn	$+612    	;abs 0xcfa
     a98:	29 2c       	jc	$+84     	;abs 0xaec
     a9a:	30 2c       	jc	$+98     	;abs 0xafc
     a9c:	31 3b       	jl	$-412    	;abs 0x900
     a9e:	5f 5f 70 31 	add.b	12656(r15),r15	;0x3170(r15)
     aa2:	3a 28       	jnc	$+118    	;abs 0xb18
     aa4:	30 2c       	jc	$+98     	;abs 0xb06
     aa6:	31 31       	jn	$+612    	;abs 0xd0a
     aa8:	29 2c       	jc	$+84     	;abs 0xafc
     aaa:	31 2c       	jc	$+100    	;abs 0xb0e
     aac:	31 3b       	jl	$-412    	;abs 0x910
     aae:	5f 5f 70 32 	add.b	12912(r15),r15	;0x3270(r15)
     ab2:	3a 28       	jnc	$+118    	;abs 0xb28
     ab4:	30 2c       	jc	$+98     	;abs 0xb16
     ab6:	31 31       	jn	$+612    	;abs 0xd1a
     ab8:	29 2c       	jc	$+84     	;abs 0xb0c
     aba:	32 2c       	jc	$+102    	;abs 0xb20
     abc:	31 3b       	jl	$-412    	;abs 0x920
     abe:	5f 5f 70 33 	add.b	13168(r15),r15	;0x3370(r15)
     ac2:	3a 28       	jnc	$+118    	;abs 0xb38
     ac4:	30 2c       	jc	$+98     	;abs 0xb26
     ac6:	31 31       	jn	$+612    	;abs 0xd2a
     ac8:	29 2c       	jc	$+84     	;abs 0xb1c
     aca:	33 2c       	jc	$+104    	;abs 0xb32
     acc:	31 3b       	jl	$-412    	;abs 0x930
     ace:	5f 5f 70 34 	add.b	13424(r15),r15	;0x3470(r15)
     ad2:	3a 28       	jnc	$+118    	;abs 0xb48
     ad4:	30 2c       	jc	$+98     	;abs 0xb36
     ad6:	31 31       	jn	$+612    	;abs 0xd3a
     ad8:	29 2c       	jc	$+84     	;abs 0xb2c
     ada:	34 2c       	jc	$+106    	;abs 0xb44
     adc:	31 3b       	jl	$-412    	;abs 0x940
     ade:	5f 5f 70 35 	add.b	13680(r15),r15	;0x3570(r15)
     ae2:	3a 28       	jnc	$+118    	;abs 0xb58
     ae4:	30 2c       	jc	$+98     	;abs 0xb46
     ae6:	31 31       	jn	$+612    	;abs 0xd4a
     ae8:	29 2c       	jc	$+84     	;abs 0xb3c
     aea:	35 2c       	jc	$+108    	;abs 0xb56
     aec:	31 3b       	jl	$-412    	;abs 0x950
     aee:	5f 5f 70 36 	add.b	13936(r15),r15	;0x3670(r15)
     af2:	3a 28       	jnc	$+118    	;abs 0xb68
     af4:	30 2c       	jc	$+98     	;abs 0xb56
     af6:	31 31       	jn	$+612    	;abs 0xd5a
     af8:	29 2c       	jc	$+84     	;abs 0xb4c
     afa:	36 2c       	jc	$+110    	;abs 0xb68
     afc:	31 3b       	jl	$-412    	;abs 0x960
     afe:	5f 5f 70 37 	add.b	14192(r15),r15	;0x3770(r15)
     b02:	3a 28       	jnc	$+118    	;abs 0xb78
     b04:	30 2c       	jc	$+98     	;abs 0xb66
     b06:	31 31       	jn	$+612    	;abs 0xd6a
     b08:	29 2c       	jc	$+84     	;abs 0xb5c
     b0a:	37 2c       	jc	$+112    	;abs 0xb7a
     b0c:	31 3b       	jl	$-412    	;abs 0x970
     b0e:	3b 2c       	jc	$+120    	;abs 0xb86
     b10:	30 2c       	jc	$+98     	;abs 0xb72
     b12:	31 36       	jge	$-924    	;abs 0x776
     b14:	3b 3b       	jl	$-392    	;abs 0x98c
     b16:	00 69       	addc	r9,	r0	
     b18:	6f 72       	subc.b	#4,	r15	;r2 As==10
     b1a:	65 67       	addc.b	@r7,	r5	
     b1c:	69 73       	subc.b	#2,	r9	;r3 As==10
     b1e:	74 65       	addc.b	@r5+,	r4	
     b20:	72 5f       	add.b	@r15+,	r2	
     b22:	74 3a       	jl	$-790    	;abs 0x80c
     b24:	74 28       	jnc	$+234    	;abs 0xc0e
     b26:	31 34       	jge	$+100    	;abs 0xb8a
     b28:	2c 33       	jn	$-422    	;abs 0x982
     b2a:	29 3d       	jmp	$+596    	;abs 0xd7e
     b2c:	28 31       	jn	$+594    	;abs 0xd7e
     b2e:	34 2c       	jc	$+106    	;abs 0xb98
     b30:	31 29       	jnc	$+612    	;abs 0xd94
     b32:	00 70       	subc	r0,	r0	
     b34:	6f 72       	subc.b	#4,	r15	;r2 As==10
     b36:	74 5f       	add.b	@r15+,	r4	
     b38:	66 75       	subc.b	@r5,	r6	
     b3a:	6c 6c       	addc.b	@r12,	r12	
     b3c:	5f 74 3a 54 	subc.b	21562(r4),r15	;0x543a(r4)
     b40:	28 31       	jn	$+594    	;abs 0xd92
     b42:	34 2c       	jc	$+106    	;abs 0xbac
     b44:	34 29       	jnc	$+618    	;abs 0xdae
     b46:	3d 73       	subc	#-1,	r13	;r3 As==11
     b48:	31 36       	jge	$-924    	;abs 0x7ac
     b4a:	69 6e       	addc.b	@r14,	r9	
     b4c:	3a 28       	jnc	$+118    	;abs 0xbc2
     b4e:	31 34       	jge	$+100    	;abs 0xbb2
     b50:	2c 33       	jn	$-422    	;abs 0x9aa
     b52:	29 2c       	jc	$+84     	;abs 0xba6
     b54:	30 2c       	jc	$+98     	;abs 0xbb6
     b56:	31 36       	jge	$-924    	;abs 0x7ba
     b58:	3b 6f       	addc	@r15+,	r11	
     b5a:	75 74       	subc.b	@r4+,	r5	
     b5c:	3a 28       	jnc	$+118    	;abs 0xbd2
     b5e:	31 34       	jge	$+100    	;abs 0xbc2
     b60:	2c 33       	jn	$-422    	;abs 0x9ba
     b62:	29 2c       	jc	$+84     	;abs 0xbb6
     b64:	31 36       	jge	$-924    	;abs 0x7c8
     b66:	2c 31       	jn	$+602    	;abs 0xdc0
     b68:	36 3b       	jl	$-402    	;abs 0x9d6
     b6a:	64 69       	addc.b	@r9,	r4	
     b6c:	72 3a       	jl	$-794    	;abs 0x852
     b6e:	28 31       	jn	$+594    	;abs 0xdc0
     b70:	34 2c       	jc	$+106    	;abs 0xbda
     b72:	33 29       	jnc	$+616    	;abs 0xdda
     b74:	2c 33       	jn	$-422    	;abs 0x9ce
     b76:	32 2c       	jc	$+102    	;abs 0xbdc
     b78:	31 36       	jge	$-924    	;abs 0x7dc
     b7a:	3b 69       	addc	@r9+,	r11	
     b7c:	66 67       	addc.b	@r7,	r6	
     b7e:	3a 28       	jnc	$+118    	;abs 0xbf4
     b80:	31 34       	jge	$+100    	;abs 0xbe4
     b82:	2c 33       	jn	$-422    	;abs 0x9dc
     b84:	29 2c       	jc	$+84     	;abs 0xbd8
     b86:	34 38       	jl	$+106    	;abs 0xbf0
     b88:	2c 31       	jn	$+602    	;abs 0xde2
     b8a:	36 3b       	jl	$-402    	;abs 0x9f8
     b8c:	69 65       	addc.b	@r5,	r9	
     b8e:	73 3a       	jl	$-792    	;abs 0x876
     b90:	28 31       	jn	$+594    	;abs 0xde2
     b92:	34 2c       	jc	$+106    	;abs 0xbfc
     b94:	33 29       	jnc	$+616    	;abs 0xdfc
     b96:	2c 36       	jge	$-934    	;abs 0x7f0
     b98:	34 2c       	jc	$+106    	;abs 0xc02
     b9a:	31 36       	jge	$-924    	;abs 0x7fe
     b9c:	3b 69       	addc	@r9+,	r11	
     b9e:	65 3a       	jl	$-820    	;abs 0x86a
     ba0:	28 31       	jn	$+594    	;abs 0xdf2
     ba2:	34 2c       	jc	$+106    	;abs 0xc0c
     ba4:	33 29       	jnc	$+616    	;abs 0xe0c
     ba6:	2c 38       	jl	$+90     	;abs 0xc00
     ba8:	30 2c       	jc	$+98     	;abs 0xc0a
     baa:	31 36       	jge	$-924    	;abs 0x80e
     bac:	3b 73       	subc	#-1,	r11	;r3 As==11
     bae:	65 6c       	addc.b	@r12,	r5	
     bb0:	3a 28       	jnc	$+118    	;abs 0xc26
     bb2:	31 34       	jge	$+100    	;abs 0xc16
     bb4:	2c 33       	jn	$-422    	;abs 0xa0e
     bb6:	29 2c       	jc	$+84     	;abs 0xc0a
     bb8:	39 36       	jge	$-908    	;abs 0x82c
     bba:	2c 31       	jn	$+602    	;abs 0xe14
     bbc:	36 3b       	jl	$-402    	;abs 0xa2a
     bbe:	72 65       	addc.b	@r5+,	r2	
     bc0:	6e 3a       	jl	$-802    	;abs 0x89e
     bc2:	28 31       	jn	$+594    	;abs 0xe14
     bc4:	34 2c       	jc	$+106    	;abs 0xc2e
     bc6:	33 29       	jnc	$+616    	;abs 0xe2e
     bc8:	2c 31       	jn	$+602    	;abs 0xe22
     bca:	31 32       	jn	$-924    	;abs 0x82e
     bcc:	2c 31       	jn	$+602    	;abs 0xe26
     bce:	36 3b       	jl	$-402    	;abs 0xa3c
     bd0:	3b 00 70 6f 	mova	0x6f70,	r11	;PC rel. 0x07b42
     bd4:	72 74       	subc.b	@r4+,	r2	
     bd6:	5f 73       	subc.b	#1,	r15	;r3 As==01
     bd8:	69 6d       	addc.b	@r13,	r9	
     bda:	70 6c       	addc.b	@r12+,	r0	
     bdc:	65 5f       	add.b	@r15,	r5	
     bde:	74 3a       	jl	$-790    	;abs 0x8c8
     be0:	54 28       	jnc	$+170    	;abs 0xc8a
     be2:	31 34       	jge	$+100    	;abs 0xc46
     be4:	2c 35       	jge	$+602    	;abs 0xe3e
     be6:	29 3d       	jmp	$+596    	;abs 0xe3a
     be8:	73 38       	jl	$+232    	;abs 0xcd0
     bea:	69 6e       	addc.b	@r14,	r9	
     bec:	3a 28       	jnc	$+118    	;abs 0xc62
     bee:	31 34       	jge	$+100    	;abs 0xc52
     bf0:	2c 33       	jn	$-422    	;abs 0xa4a
     bf2:	29 2c       	jc	$+84     	;abs 0xc46
     bf4:	30 2c       	jc	$+98     	;abs 0xc56
     bf6:	31 36       	jge	$-924    	;abs 0x85a
     bf8:	3b 6f       	addc	@r15+,	r11	
     bfa:	75 74       	subc.b	@r4+,	r5	
     bfc:	3a 28       	jnc	$+118    	;abs 0xc72
     bfe:	31 34       	jge	$+100    	;abs 0xc62
     c00:	2c 33       	jn	$-422    	;abs 0xa5a
     c02:	29 2c       	jc	$+84     	;abs 0xc56
     c04:	31 36       	jge	$-924    	;abs 0x868
     c06:	2c 31       	jn	$+602    	;abs 0xe60
     c08:	36 3b       	jl	$-402    	;abs 0xa76
     c0a:	64 69       	addc.b	@r9,	r4	
     c0c:	72 3a       	jl	$-794    	;abs 0x8f2
     c0e:	28 31       	jn	$+594    	;abs 0xe60
     c10:	34 2c       	jc	$+106    	;abs 0xc7a
     c12:	33 29       	jnc	$+616    	;abs 0xe7a
     c14:	2c 33       	jn	$-422    	;abs 0xa6e
     c16:	32 2c       	jc	$+102    	;abs 0xc7c
     c18:	31 36       	jge	$-924    	;abs 0x87c
     c1a:	3b 73       	subc	#-1,	r11	;r3 As==11
     c1c:	65 6c       	addc.b	@r12,	r5	
     c1e:	3a 28       	jnc	$+118    	;abs 0xc94
     c20:	31 34       	jge	$+100    	;abs 0xc84
     c22:	2c 33       	jn	$-422    	;abs 0xa7c
     c24:	29 2c       	jc	$+84     	;abs 0xc78
     c26:	34 38       	jl	$+106    	;abs 0xc90
     c28:	2c 31       	jn	$+602    	;abs 0xe82
     c2a:	36 3b       	jl	$-402    	;abs 0xa98
     c2c:	3b 00 63 3a 	mova	0x3a63,	r11	;PC rel. 0x04691
     c30:	2f 6d       	addc	@r13,	r15	
     c32:	73 70       	.word	0x7073;	????	Illegal as 2-op instr
     c34:	67 63       	addc.b	#2,	r7	;r3 As==10
     c36:	63 2f       	jc	$-312    	;abs 0xafe
     c38:	6d 73       	subc.b	#2,	r13	;r3 As==10
     c3a:	70 34       	jge	$+226    	;abs 0xd1c
     c3c:	33 30       	jn	$+104    	;abs 0xca4
     c3e:	2f 69       	addc	@r9,	r15	
     c40:	6e 63       	addc.b	#2,	r14	;r3 As==10
     c42:	6c 75       	subc.b	@r5,	r12	
     c44:	64 65       	addc.b	@r5,	r4	
     c46:	2f 6d       	addc	@r13,	r15	
     c48:	73 70       	.word	0x7073;	????	Illegal as 2-op instr
     c4a:	34 33       	jn	$-406    	;abs 0xab4
     c4c:	30 2f       	jc	$-414    	;abs 0xaae
     c4e:	75 73       	subc.b	#-1,	r5	;r3 As==11
     c50:	63 69       	.word	0x6963;	????	Illegal as 2-op instr
     c52:	2e 68       	addc	@r8,	r14	
     c54:	00 63       	adc	r0		
     c56:	3a 2f       	jc	$-394    	;abs 0xacc
     c58:	6d 73       	subc.b	#2,	r13	;r3 As==10
     c5a:	70 67       	addc.b	@r7+,	r0	
     c5c:	63 63       	.word	0x6363;	????	Illegal as 2-op instr
     c5e:	2f 6d       	addc	@r13,	r15	
     c60:	73 70       	.word	0x7073;	????	Illegal as 2-op instr
     c62:	34 33       	jn	$-406    	;abs 0xacc
     c64:	30 2f       	jc	$-414    	;abs 0xac6
     c66:	69 6e       	addc.b	@r14,	r9	
     c68:	63 6c       	.word	0x6c63;	????	Illegal as 2-op instr
     c6a:	75 64       	addc.b	@r4+,	r5	
     c6c:	65 2f       	jc	$-308    	;abs 0xb38
     c6e:	6d 73       	subc.b	#2,	r13	;r3 As==10
     c70:	70 34       	jge	$+226    	;abs 0xd52
     c72:	33 30       	jn	$+104    	;abs 0xcda
     c74:	2f 74       	subc	@r4,	r15	
     c76:	69 6d       	addc.b	@r13,	r9	
     c78:	65 72       	subc.b	#4,	r5	;r2 As==10
     c7a:	61 2e       	jc	$-828    	;abs 0x93e
     c7c:	68 00 74 61 	mova	r0,	&0x86174
     c80:	63 74       	.word	0x7463;	????	Illegal as 2-op instr
     c82:	6c 5f       	add.b	@r15,	r12	
     c84:	74 3a       	jl	$-790    	;abs 0x96e
     c86:	74 28       	jnc	$+234    	;abs 0xd70
     c88:	31 36       	jge	$-924    	;abs 0x8ec
     c8a:	2c 31       	jn	$+602    	;abs 0xee4
     c8c:	29 3d       	jmp	$+596    	;abs 0xee0
     c8e:	28 31       	jn	$+594    	;abs 0xee0
     c90:	36 2c       	jc	$+110    	;abs 0xcfe
     c92:	32 29       	jnc	$+614    	;abs 0xef8
     c94:	3d 73       	subc	#-1,	r13	;r3 As==11
     c96:	32 74       	subc	@r4+,	r2	
     c98:	61 69       	addc.b	@r9,	r1	
     c9a:	66 67       	addc.b	@r7,	r6	
     c9c:	3a 28       	jnc	$+118    	;abs 0xd12
     c9e:	30 2c       	jc	$+98     	;abs 0xd00
     ca0:	34 29       	jnc	$+618    	;abs 0xf0a
     ca2:	2c 30       	jn	$+90     	;abs 0xcfc
     ca4:	2c 31       	jn	$+602    	;abs 0xefe
     ca6:	3b 74       	subc	@r4+,	r11	
     ca8:	61 69       	addc.b	@r9,	r1	
     caa:	65 3a       	jl	$-820    	;abs 0x976
     cac:	28 30       	jn	$+82     	;abs 0xcfe
     cae:	2c 34       	jge	$+90     	;abs 0xd08
     cb0:	29 2c       	jc	$+84     	;abs 0xd04
     cb2:	31 2c       	jc	$+100    	;abs 0xd16
     cb4:	31 3b       	jl	$-412    	;abs 0xb18
     cb6:	74 61       	addc.b	@r1+,	r4	
     cb8:	63 6c       	.word	0x6c63;	????	Illegal as 2-op instr
     cba:	72 3a       	jl	$-794    	;abs 0x9a0
     cbc:	28 30       	jn	$+82     	;abs 0xd0e
     cbe:	2c 34       	jge	$+90     	;abs 0xd18
     cc0:	29 2c       	jc	$+84     	;abs 0xd14
     cc2:	32 2c       	jc	$+102    	;abs 0xd28
     cc4:	31 3b       	jl	$-412    	;abs 0xb28
     cc6:	64 75       	subc.b	@r5,	r4	
     cc8:	6d 6d       	addc.b	@r13,	r13	
     cca:	79 3a       	jl	$-780    	;abs 0x9be
     ccc:	28 30       	jn	$+82     	;abs 0xd1e
     cce:	2c 34       	jge	$+90     	;abs 0xd28
     cd0:	29 2c       	jc	$+84     	;abs 0xd24
     cd2:	33 2c       	jc	$+104    	;abs 0xd3a
     cd4:	31 3b       	jl	$-412    	;abs 0xb38
     cd6:	74 61       	addc.b	@r1+,	r4	
     cd8:	6d 63       	addc.b	#2,	r13	;r3 As==10
     cda:	3a 28       	jnc	$+118    	;abs 0xd50
     cdc:	30 2c       	jc	$+98     	;abs 0xd3e
     cde:	34 29       	jnc	$+618    	;abs 0xf48
     ce0:	2c 34       	jge	$+90     	;abs 0xd3a
     ce2:	2c 32       	jn	$-934    	;abs 0x93c
     ce4:	3b 74       	subc	@r4+,	r11	
     ce6:	61 69       	addc.b	@r9,	r1	
     ce8:	64 3a       	jl	$-822    	;abs 0x9b2
     cea:	28 30       	jn	$+82     	;abs 0xd3c
     cec:	2c 34       	jge	$+90     	;abs 0xd46
     cee:	29 2c       	jc	$+84     	;abs 0xd42
     cf0:	36 2c       	jc	$+110    	;abs 0xd5e
     cf2:	32 3b       	jl	$-410    	;abs 0xb58
     cf4:	74 61       	addc.b	@r1+,	r4	
     cf6:	73 73       	.word	0x7373;	????	Illegal as 2-op instr
     cf8:	65 6c       	addc.b	@r12,	r5	
     cfa:	3a 28       	jnc	$+118    	;abs 0xd70
     cfc:	30 2c       	jc	$+98     	;abs 0xd5e
     cfe:	34 29       	jnc	$+618    	;abs 0xf68
     d00:	2c 38       	jl	$+90     	;abs 0xd5a
     d02:	2c 32       	jn	$-934    	;abs 0x95c
     d04:	3b 3b       	jl	$-392    	;abs 0xb7c
     d06:	00 74       	subc	r4,	r0	
     d08:	61 63       	addc.b	#2,	r1	;r3 As==10
     d0a:	63 74       	.word	0x7463;	????	Illegal as 2-op instr
     d0c:	6c 5f       	add.b	@r15,	r12	
     d0e:	74 3a       	jl	$-790    	;abs 0x9f8
     d10:	74 28       	jnc	$+234    	;abs 0xdfa
     d12:	31 36       	jge	$-924    	;abs 0x976
     d14:	2c 33       	jn	$-422    	;abs 0xb6e
     d16:	29 3d       	jmp	$+596    	;abs 0xf6a
     d18:	28 31       	jn	$+594    	;abs 0xf6a
     d1a:	36 2c       	jc	$+110    	;abs 0xd88
     d1c:	34 29       	jnc	$+618    	;abs 0xf86
     d1e:	3d 73       	subc	#-1,	r13	;r3 As==11
     d20:	32 63       	addc	#-1,	r2	;r3 As==11
     d22:	63 69       	.word	0x6963;	????	Illegal as 2-op instr
     d24:	66 67       	addc.b	@r7,	r6	
     d26:	3a 28       	jnc	$+118    	;abs 0xd9c
     d28:	30 2c       	jc	$+98     	;abs 0xd8a
     d2a:	34 29       	jnc	$+618    	;abs 0xf94
     d2c:	2c 30       	jn	$+90     	;abs 0xd86
     d2e:	2c 31       	jn	$+602    	;abs 0xf88
     d30:	3b 63       	addc	#-1,	r11	;r3 As==11
     d32:	6f 76       	subc.b	@r6,	r15	
     d34:	3a 28       	jnc	$+118    	;abs 0xdaa
     d36:	30 2c       	jc	$+98     	;abs 0xd98
     d38:	34 29       	jnc	$+618    	;abs 0xfa2
     d3a:	2c 31       	jn	$+602    	;abs 0xf94
     d3c:	2c 31       	jn	$+602    	;abs 0xf96
     d3e:	3b 6f       	addc	@r15+,	r11	
     d40:	75 74       	subc.b	@r4+,	r5	
     d42:	3a 28       	jnc	$+118    	;abs 0xdb8
     d44:	30 2c       	jc	$+98     	;abs 0xda6
     d46:	34 29       	jnc	$+618    	;abs 0xfb0
     d48:	2c 32       	jn	$-934    	;abs 0x9a2
     d4a:	2c 31       	jn	$+602    	;abs 0xfa4
     d4c:	3b 63       	addc	#-1,	r11	;r3 As==11
     d4e:	63 69       	.word	0x6963;	????	Illegal as 2-op instr
     d50:	3a 28       	jnc	$+118    	;abs 0xdc6
     d52:	30 2c       	jc	$+98     	;abs 0xdb4
     d54:	34 29       	jnc	$+618    	;abs 0xfbe
     d56:	2c 33       	jn	$-422    	;abs 0xbb0
     d58:	2c 31       	jn	$+602    	;abs 0xfb2
     d5a:	3b 63       	addc	#-1,	r11	;r3 As==11
     d5c:	63 69       	.word	0x6963;	????	Illegal as 2-op instr
     d5e:	65 3a       	jl	$-820    	;abs 0xa2a
     d60:	28 30       	jn	$+82     	;abs 0xdb2
     d62:	2c 34       	jge	$+90     	;abs 0xdbc
     d64:	29 2c       	jc	$+84     	;abs 0xdb8
     d66:	34 2c       	jc	$+106    	;abs 0xdd0
     d68:	31 3b       	jl	$-412    	;abs 0xbcc
     d6a:	6f 75       	subc.b	@r5,	r15	
     d6c:	74 6d       	addc.b	@r13+,	r4	
     d6e:	6f 64       	addc.b	@r4,	r15	
     d70:	3a 28       	jnc	$+118    	;abs 0xde6
     d72:	30 2c       	jc	$+98     	;abs 0xdd4
     d74:	34 29       	jnc	$+618    	;abs 0xfde
     d76:	2c 35       	jge	$+602    	;abs 0xfd0
     d78:	2c 33       	jn	$-422    	;abs 0xbd2
     d7a:	3b 63       	addc	#-1,	r11	;r3 As==11
     d7c:	61 70       	subc.b	@r0,	r1	
     d7e:	3a 28       	jnc	$+118    	;abs 0xdf4
     d80:	30 2c       	jc	$+98     	;abs 0xde2
     d82:	34 29       	jnc	$+618    	;abs 0xfec
     d84:	2c 38       	jl	$+90     	;abs 0xdde
     d86:	2c 31       	jn	$+602    	;abs 0xfe0
     d88:	3b 64       	addc	@r4+,	r11	
     d8a:	75 6d       	addc.b	@r13+,	r5	
     d8c:	6d 79       	subc.b	@r9,	r13	
     d8e:	3a 28       	jnc	$+118    	;abs 0xe04
     d90:	30 2c       	jc	$+98     	;abs 0xdf2
     d92:	34 29       	jnc	$+618    	;abs 0xffc
     d94:	2c 39       	jl	$+602    	;abs 0xfee
     d96:	2c 31       	jn	$+602    	;abs 0xff0
     d98:	3b 73       	subc	#-1,	r11	;r3 As==11
     d9a:	63 63       	.word	0x6363;	????	Illegal as 2-op instr
     d9c:	69 3a       	jl	$-812    	;abs 0xa70
     d9e:	28 30       	jn	$+82     	;abs 0xdf0
     da0:	2c 34       	jge	$+90     	;abs 0xdfa
     da2:	29 2c       	jc	$+84     	;abs 0xdf6
     da4:	31 30       	jn	$+100    	;abs 0xe08
     da6:	2c 31       	jn	$+602    	;abs 0x1000
     da8:	3b 73       	subc	#-1,	r11	;r3 As==11
     daa:	63 73       	.word	0x7363;	????	Illegal as 2-op instr
     dac:	3a 28       	jnc	$+118    	;abs 0xe22
     dae:	30 2c       	jc	$+98     	;abs 0xe10
     db0:	34 29       	jnc	$+618    	;abs 0x101a
     db2:	2c 31       	jn	$+602    	;abs 0x100c
     db4:	31 2c       	jc	$+100    	;abs 0xe18
     db6:	31 3b       	jl	$-412    	;abs 0xc1a
     db8:	63 63       	.word	0x6363;	????	Illegal as 2-op instr
     dba:	69 73       	subc.b	#2,	r9	;r3 As==10
     dbc:	3a 28       	jnc	$+118    	;abs 0xe32
     dbe:	30 2c       	jc	$+98     	;abs 0xe20
     dc0:	34 29       	jnc	$+618    	;abs 0x102a
     dc2:	2c 31       	jn	$+602    	;abs 0x101c
     dc4:	32 2c       	jc	$+102    	;abs 0xe2a
     dc6:	32 3b       	jl	$-410    	;abs 0xc2c
     dc8:	63 6d       	.word	0x6d63;	????	Illegal as 2-op instr
     dca:	3a 28       	jnc	$+118    	;abs 0xe40
     dcc:	30 2c       	jc	$+98     	;abs 0xe2e
     dce:	34 29       	jnc	$+618    	;abs 0x1038
     dd0:	2c 31       	jn	$+602    	;abs 0x102a
     dd2:	34 2c       	jc	$+106    	;abs 0xe3c
     dd4:	32 3b       	jl	$-410    	;abs 0xc3a
     dd6:	3b 00 74 69 	mova	0x6974,	r11	;PC rel. 0x0774c
     dda:	6d 65       	addc.b	@r5,	r13	
     ddc:	72 61       	addc.b	@r1+,	r2	
     dde:	5f 74 3a 54 	subc.b	21562(r4),r15	;0x543a(r4)
     de2:	28 31       	jn	$+594    	;abs 0x1034
     de4:	36 2c       	jc	$+110    	;abs 0xe52
     de6:	35 29       	jnc	$+620    	;abs 0x1052
     de8:	3d 73       	subc	#-1,	r13	;r3 As==11
     dea:	32 34       	jge	$+102    	;abs 0xe50
     dec:	63 74       	.word	0x7463;	????	Illegal as 2-op instr
     dee:	6c 3a       	jl	$-806    	;abs 0xac8
     df0:	28 31       	jn	$+594    	;abs 0x1042
     df2:	36 2c       	jc	$+110    	;abs 0xe60
     df4:	31 29       	jnc	$+612    	;abs 0x1058
     df6:	2c 30       	jn	$+90     	;abs 0xe50
     df8:	2c 31       	jn	$+602    	;abs 0x1052
     dfa:	36 3b       	jl	$-402    	;abs 0xc68
     dfc:	63 63       	.word	0x6363;	????	Illegal as 2-op instr
     dfe:	74 6c       	addc.b	@r12+,	r4	
     e00:	30 3a       	jl	$-926    	;abs 0xa62
     e02:	28 31       	jn	$+594    	;abs 0x1054
     e04:	36 2c       	jc	$+110    	;abs 0xe72
     e06:	33 29       	jnc	$+616    	;abs 0x106e
     e08:	2c 31       	jn	$+602    	;abs 0x1062
     e0a:	36 2c       	jc	$+110    	;abs 0xe78
     e0c:	31 36       	jge	$-924    	;abs 0xa70
     e0e:	3b 63       	addc	#-1,	r11	;r3 As==11
     e10:	63 74       	.word	0x7463;	????	Illegal as 2-op instr
     e12:	6c 31       	jn	$+730    	;abs 0x10ec
     e14:	3a 28       	jnc	$+118    	;abs 0xe8a
     e16:	31 36       	jge	$-924    	;abs 0xa7a
     e18:	2c 33       	jn	$-422    	;abs 0xc72
     e1a:	29 2c       	jc	$+84     	;abs 0xe6e
     e1c:	33 32       	jn	$-920    	;abs 0xa84
     e1e:	2c 31       	jn	$+602    	;abs 0x1078
     e20:	36 3b       	jl	$-402    	;abs 0xc8e
     e22:	63 63       	.word	0x6363;	????	Illegal as 2-op instr
     e24:	74 6c       	addc.b	@r12+,	r4	
     e26:	32 3a       	jl	$-922    	;abs 0xa8c
     e28:	28 31       	jn	$+594    	;abs 0x107a
     e2a:	36 2c       	jc	$+110    	;abs 0xe98
     e2c:	33 29       	jnc	$+616    	;abs 0x1094
     e2e:	2c 34       	jge	$+90     	;abs 0xe88
     e30:	38 2c       	jc	$+114    	;abs 0xea2
     e32:	31 36       	jge	$-924    	;abs 0xa96
     e34:	3b 64       	addc	@r4+,	r11	
     e36:	75 6d       	addc.b	@r13+,	r5	
     e38:	6d 79       	subc.b	@r9,	r13	
     e3a:	32 3a       	jl	$-922    	;abs 0xaa0
     e3c:	28 31       	jn	$+594    	;abs 0x108e
     e3e:	36 2c       	jc	$+110    	;abs 0xeac
     e40:	36 29       	jnc	$+622    	;abs 0x10ae
     e42:	3d 61       	addc	@r1+,	r13	
     e44:	72 28       	jnc	$+230    	;abs 0xf2a
     e46:	31 36       	jge	$-924    	;abs 0xaaa
     e48:	2c 37       	jge	$-422    	;abs 0xca2
     e4a:	29 3d       	jmp	$+596    	;abs 0x109e
     e4c:	72 28       	jnc	$+230    	;abs 0xf32
     e4e:	31 36       	jge	$-924    	;abs 0xab2
     e50:	2c 37       	jge	$-422    	;abs 0xcaa
     e52:	29 3b       	jl	$-428    	;abs 0xca6
     e54:	30 30       	jn	$+98     	;abs 0xeb6
     e56:	30 30       	jn	$+98     	;abs 0xeb8
     e58:	30 30       	jn	$+98     	;abs 0xeba
     e5a:	30 30       	jn	$+98     	;abs 0xebc
     e5c:	30 30       	jn	$+98     	;abs 0xebe
     e5e:	30 30       	jn	$+98     	;abs 0xec0
     e60:	30 3b       	jl	$-414    	;abs 0xcc2
     e62:	30 30       	jn	$+98     	;abs 0xec4
     e64:	30 30       	jn	$+98     	;abs 0xec6
     e66:	30 30       	jn	$+98     	;abs 0xec8
     e68:	30 31       	jn	$+610    	;abs 0x10ca
     e6a:	37 37       	jge	$-400    	;abs 0xcda
     e6c:	37 37       	jge	$-400    	;abs 0xcdc
     e6e:	37 3b       	jl	$-400    	;abs 0xcde
     e70:	3b 30       	jn	$+120    	;abs 0xee8
     e72:	3b 33       	jn	$-392    	;abs 0xcea
     e74:	3b 28       	jnc	$+120    	;abs 0xeec
     e76:	31 36       	jge	$-924    	;abs 0xada
     e78:	2c 38       	jl	$+90     	;abs 0xed2
     e7a:	29 3d       	jmp	$+596    	;abs 0x10ce
     e7c:	42 28       	jnc	$+134    	;abs 0xf02
     e7e:	30 2c       	jc	$+98     	;abs 0xee0
     e80:	34 29       	jnc	$+618    	;abs 0x10ea
     e82:	2c 36       	jge	$-934    	;abs 0xadc
     e84:	34 2c       	jc	$+106    	;abs 0xeee
     e86:	36 34       	jge	$+110    	;abs 0xef4
     e88:	3b 74       	subc	@r4+,	r11	
     e8a:	61 72       	subc.b	#4,	r1	;r2 As==10
     e8c:	3a 28       	jnc	$+118    	;abs 0xf02
     e8e:	30 2c       	jc	$+98     	;abs 0xef0
     e90:	34 29       	jnc	$+618    	;abs 0x10fa
     e92:	2c 31       	jn	$+602    	;abs 0x10ec
     e94:	32 38       	jl	$+102    	;abs 0xefa
     e96:	2c 31       	jn	$+602    	;abs 0x10f0
     e98:	36 3b       	jl	$-402    	;abs 0xd06
     e9a:	74 61       	addc.b	@r1+,	r4	
     e9c:	63 63       	.word	0x6363;	????	Illegal as 2-op instr
     e9e:	72 30       	jn	$+230    	;abs 0xf84
     ea0:	3a 28       	jnc	$+118    	;abs 0xf16
     ea2:	30 2c       	jc	$+98     	;abs 0xf04
     ea4:	34 29       	jnc	$+618    	;abs 0x110e
     ea6:	2c 31       	jn	$+602    	;abs 0x1100
     ea8:	34 34       	jge	$+106    	;abs 0xf12
     eaa:	2c 31       	jn	$+602    	;abs 0x1104
     eac:	36 3b       	jl	$-402    	;abs 0xd1a
     eae:	74 61       	addc.b	@r1+,	r4	
     eb0:	63 63       	.word	0x6363;	????	Illegal as 2-op instr
     eb2:	72 31       	jn	$+742    	;abs 0x1198
     eb4:	3a 28       	jnc	$+118    	;abs 0xf2a
     eb6:	30 2c       	jc	$+98     	;abs 0xf18
     eb8:	34 29       	jnc	$+618    	;abs 0x1122
     eba:	2c 31       	jn	$+602    	;abs 0x1114
     ebc:	36 30       	jn	$+110    	;abs 0xf2a
     ebe:	2c 31       	jn	$+602    	;abs 0x1118
     ec0:	36 3b       	jl	$-402    	;abs 0xd2e
     ec2:	74 61       	addc.b	@r1+,	r4	
     ec4:	63 63       	.word	0x6363;	????	Illegal as 2-op instr
     ec6:	72 32       	jn	$-794    	;abs 0xbac
     ec8:	3a 28       	jnc	$+118    	;abs 0xf3e
     eca:	30 2c       	jc	$+98     	;abs 0xf2c
     ecc:	34 29       	jnc	$+618    	;abs 0x1136
     ece:	2c 31       	jn	$+602    	;abs 0x1128
     ed0:	37 36       	jge	$-912    	;abs 0xb40
     ed2:	2c 31       	jn	$+602    	;abs 0x112c
     ed4:	36 3b       	jl	$-402    	;abs 0xd42
     ed6:	3b 00 63 3a 	mova	0x3a63,	r11	;PC rel. 0x0493b
     eda:	2f 6d       	addc	@r13,	r15	
     edc:	73 70       	.word	0x7073;	????	Illegal as 2-op instr
     ede:	67 63       	addc.b	#2,	r7	;r3 As==10
     ee0:	63 2f       	jc	$-312    	;abs 0xda8
     ee2:	6d 73       	subc.b	#2,	r13	;r3 As==10
     ee4:	70 34       	jge	$+226    	;abs 0xfc6
     ee6:	33 30       	jn	$+104    	;abs 0xf4e
     ee8:	2f 69       	addc	@r9,	r15	
     eea:	6e 63       	addc.b	#2,	r14	;r3 As==10
     eec:	6c 75       	subc.b	@r5,	r12	
     eee:	64 65       	addc.b	@r5,	r4	
     ef0:	2f 6d       	addc	@r13,	r15	
     ef2:	73 70       	.word	0x7073;	????	Illegal as 2-op instr
     ef4:	34 33       	jn	$-406    	;abs 0xd5e
     ef6:	30 2f       	jc	$-414    	;abs 0xd58
     ef8:	74 69       	addc.b	@r9+,	r4	
     efa:	6d 65       	addc.b	@r5,	r13	
     efc:	72 62       	addc.b	#8,	r2	;r2 As==11
     efe:	2e 68       	addc	@r8,	r14	
     f00:	00 74       	subc	r4,	r0	
     f02:	62 63       	addc.b	#2,	r2	;r3 As==10
     f04:	74 6c       	addc.b	@r12+,	r4	
     f06:	5f 74 3a 74 	subc.b	29754(r4),r15	;0x743a(r4)
     f0a:	28 31       	jn	$+594    	;abs 0x115c
     f0c:	37 2c       	jc	$+112    	;abs 0xf7c
     f0e:	31 29       	jnc	$+612    	;abs 0x1172
     f10:	3d 28       	jnc	$+124    	;abs 0xf8c
     f12:	31 37       	jge	$-412    	;abs 0xd76
     f14:	2c 32       	jn	$-934    	;abs 0xb6e
     f16:	29 3d       	jmp	$+596    	;abs 0x116a
     f18:	73 32       	jn	$-792    	;abs 0xc00
     f1a:	74 62       	addc.b	#8,	r4	;r2 As==11
     f1c:	69 66       	addc.b	@r6,	r9	
     f1e:	67 3a       	jl	$-816    	;abs 0xbee
     f20:	28 30       	jn	$+82     	;abs 0xf72
     f22:	2c 34       	jge	$+90     	;abs 0xf7c
     f24:	29 2c       	jc	$+84     	;abs 0xf78
     f26:	30 2c       	jc	$+98     	;abs 0xf88
     f28:	31 3b       	jl	$-412    	;abs 0xd8c
     f2a:	74 62       	addc.b	#8,	r4	;r2 As==11
     f2c:	69 65       	addc.b	@r5,	r9	
     f2e:	3a 28       	jnc	$+118    	;abs 0xfa4
     f30:	30 2c       	jc	$+98     	;abs 0xf92
     f32:	34 29       	jnc	$+618    	;abs 0x119c
     f34:	2c 31       	jn	$+602    	;abs 0x118e
     f36:	2c 31       	jn	$+602    	;abs 0x1190
     f38:	3b 74       	subc	@r4+,	r11	
     f3a:	62 63       	addc.b	#2,	r2	;r3 As==10
     f3c:	6c 72       	subc.b	#4,	r12	;r2 As==10
     f3e:	3a 28       	jnc	$+118    	;abs 0xfb4
     f40:	30 2c       	jc	$+98     	;abs 0xfa2
     f42:	34 29       	jnc	$+618    	;abs 0x11ac
     f44:	2c 32       	jn	$-934    	;abs 0xb9e
     f46:	2c 31       	jn	$+602    	;abs 0x11a0
     f48:	3b 64       	addc	@r4+,	r11	
     f4a:	75 6d       	addc.b	@r13+,	r5	
     f4c:	6d 79       	subc.b	@r9,	r13	
     f4e:	31 3a       	jl	$-924    	;abs 0xbb2
     f50:	28 30       	jn	$+82     	;abs 0xfa2
     f52:	2c 34       	jge	$+90     	;abs 0xfac
     f54:	29 2c       	jc	$+84     	;abs 0xfa8
     f56:	33 2c       	jc	$+104    	;abs 0xfbe
     f58:	31 3b       	jl	$-412    	;abs 0xdbc
     f5a:	74 62       	addc.b	#8,	r4	;r2 As==11
     f5c:	6d 63       	addc.b	#2,	r13	;r3 As==10
     f5e:	3a 28       	jnc	$+118    	;abs 0xfd4
     f60:	30 2c       	jc	$+98     	;abs 0xfc2
     f62:	34 29       	jnc	$+618    	;abs 0x11cc
     f64:	2c 34       	jge	$+90     	;abs 0xfbe
     f66:	2c 32       	jn	$-934    	;abs 0xbc0
     f68:	3b 74       	subc	@r4+,	r11	
     f6a:	62 69       	addc.b	@r9,	r2	
     f6c:	64 3a       	jl	$-822    	;abs 0xc36
     f6e:	28 30       	jn	$+82     	;abs 0xfc0
     f70:	2c 34       	jge	$+90     	;abs 0xfca
     f72:	29 2c       	jc	$+84     	;abs 0xfc6
     f74:	36 2c       	jc	$+110    	;abs 0xfe2
     f76:	32 3b       	jl	$-410    	;abs 0xddc
     f78:	74 62       	addc.b	#8,	r4	;r2 As==11
     f7a:	73 73       	.word	0x7373;	????	Illegal as 2-op instr
     f7c:	65 6c       	addc.b	@r12,	r5	
     f7e:	3a 28       	jnc	$+118    	;abs 0xff4
     f80:	30 2c       	jc	$+98     	;abs 0xfe2
     f82:	34 29       	jnc	$+618    	;abs 0x11ec
     f84:	2c 38       	jl	$+90     	;abs 0xfde
     f86:	2c 32       	jn	$-934    	;abs 0xbe0
     f88:	3b 64       	addc	@r4+,	r11	
     f8a:	75 6d       	addc.b	@r13+,	r5	
     f8c:	6d 79       	subc.b	@r9,	r13	
     f8e:	32 3a       	jl	$-922    	;abs 0xbf4
     f90:	28 30       	jn	$+82     	;abs 0xfe2
     f92:	2c 34       	jge	$+90     	;abs 0xfec
     f94:	29 2c       	jc	$+84     	;abs 0xfe8
     f96:	31 30       	jn	$+100    	;abs 0xffa
     f98:	2c 31       	jn	$+602    	;abs 0x11f2
     f9a:	3b 74       	subc	@r4+,	r11	
     f9c:	62 63       	addc.b	#2,	r2	;r3 As==10
     f9e:	6e 74       	subc.b	@r4,	r14	
     fa0:	6c 3a       	jl	$-806    	;abs 0xc7a
     fa2:	28 30       	jn	$+82     	;abs 0xff4
     fa4:	2c 34       	jge	$+90     	;abs 0xffe
     fa6:	29 2c       	jc	$+84     	;abs 0xffa
     fa8:	31 31       	jn	$+612    	;abs 0x120c
     faa:	2c 32       	jn	$-934    	;abs 0xc04
     fac:	3b 74       	subc	@r4+,	r11	
     fae:	62 63       	addc.b	#2,	r2	;r3 As==10
     fb0:	6c 67       	addc.b	@r7,	r12	
     fb2:	72 70 3a 28 	subc.b	#10298,	r2	;#0x283a
     fb6:	30 2c       	jc	$+98     	;abs 0x1018
     fb8:	34 29       	jnc	$+618    	;abs 0x1222
     fba:	2c 31       	jn	$+602    	;abs 0x1214
     fbc:	33 2c       	jc	$+104    	;abs 0x1024
     fbe:	32 3b       	jl	$-410    	;abs 0xe24
     fc0:	3b 00 74 62 	mova	0x6274,	r11	;PC rel. 0x07236
     fc4:	63 63       	.word	0x6363;	????	Illegal as 2-op instr
     fc6:	74 6c       	addc.b	@r12+,	r4	
     fc8:	5f 74 3a 74 	subc.b	29754(r4),r15	;0x743a(r4)
     fcc:	28 31       	jn	$+594    	;abs 0x121e
     fce:	37 2c       	jc	$+112    	;abs 0x103e
     fd0:	33 29       	jnc	$+616    	;abs 0x1238
     fd2:	3d 28       	jnc	$+124    	;abs 0x104e
     fd4:	31 37       	jge	$-412    	;abs 0xe38
     fd6:	2c 34       	jge	$+90     	;abs 0x1030
     fd8:	29 3d       	jmp	$+596    	;abs 0x122c
     fda:	73 32       	jn	$-792    	;abs 0xcc2
     fdc:	63 63       	.word	0x6363;	????	Illegal as 2-op instr
     fde:	69 66       	addc.b	@r6,	r9	
     fe0:	67 3a       	jl	$-816    	;abs 0xcb0
     fe2:	28 30       	jn	$+82     	;abs 0x1034
     fe4:	2c 34       	jge	$+90     	;abs 0x103e
     fe6:	29 2c       	jc	$+84     	;abs 0x103a
     fe8:	30 2c       	jc	$+98     	;abs 0x104a
     fea:	31 3b       	jl	$-412    	;abs 0xe4e
     fec:	63 6f       	.word	0x6f63;	????	Illegal as 2-op instr
     fee:	76 3a       	jl	$-786    	;abs 0xcdc
     ff0:	28 30       	jn	$+82     	;abs 0x1042
     ff2:	2c 34       	jge	$+90     	;abs 0x104c
     ff4:	29 2c       	jc	$+84     	;abs 0x1048
     ff6:	31 2c       	jc	$+100    	;abs 0x105a
     ff8:	31 3b       	jl	$-412    	;abs 0xe5c
     ffa:	6f 75       	subc.b	@r5,	r15	
     ffc:	74 3a       	jl	$-790    	;abs 0xce6
     ffe:	28 30       	jn	$+82     	;abs 0x1050
    1000:	2c 34       	jge	$+90     	;abs 0x105a
    1002:	29 2c       	jc	$+84     	;abs 0x1056
    1004:	32 2c       	jc	$+102    	;abs 0x106a
    1006:	31 3b       	jl	$-412    	;abs 0xe6a
    1008:	63 63       	.word	0x6363;	????	Illegal as 2-op instr
    100a:	69 3a       	jl	$-812    	;abs 0xcde
    100c:	28 30       	jn	$+82     	;abs 0x105e
    100e:	2c 34       	jge	$+90     	;abs 0x1068
    1010:	29 2c       	jc	$+84     	;abs 0x1064
    1012:	33 2c       	jc	$+104    	;abs 0x107a
    1014:	31 3b       	jl	$-412    	;abs 0xe78
    1016:	63 63       	.word	0x6363;	????	Illegal as 2-op instr
    1018:	69 65       	addc.b	@r5,	r9	
    101a:	3a 28       	jnc	$+118    	;abs 0x1090
    101c:	30 2c       	jc	$+98     	;abs 0x107e
    101e:	34 29       	jnc	$+618    	;abs 0x1288
    1020:	2c 34       	jge	$+90     	;abs 0x107a
    1022:	2c 31       	jn	$+602    	;abs 0x127c
    1024:	3b 6f       	addc	@r15+,	r11	
    1026:	75 74       	subc.b	@r4+,	r5	
    1028:	6d 6f       	addc.b	@r15,	r13	
    102a:	64 3a       	jl	$-822    	;abs 0xcf4
    102c:	28 30       	jn	$+82     	;abs 0x107e
    102e:	2c 34       	jge	$+90     	;abs 0x1088
    1030:	29 2c       	jc	$+84     	;abs 0x1084
    1032:	35 2c       	jc	$+108    	;abs 0x109e
    1034:	33 3b       	jl	$-408    	;abs 0xe9c
    1036:	63 61       	.word	0x6163;	????	Illegal as 2-op instr
    1038:	70 3a       	jl	$-798    	;abs 0xd1a
    103a:	28 30       	jn	$+82     	;abs 0x108c
    103c:	2c 34       	jge	$+90     	;abs 0x1096
    103e:	29 2c       	jc	$+84     	;abs 0x1092
    1040:	38 2c       	jc	$+114    	;abs 0x10b2
    1042:	31 3b       	jl	$-412    	;abs 0xea6
    1044:	63 6c       	.word	0x6c63;	????	Illegal as 2-op instr
    1046:	6c 64       	addc.b	@r4,	r12	
    1048:	3a 28       	jnc	$+118    	;abs 0x10be
    104a:	30 2c       	jc	$+98     	;abs 0x10ac
    104c:	34 29       	jnc	$+618    	;abs 0x12b6
    104e:	2c 39       	jl	$+602    	;abs 0x12a8
    1050:	2c 32       	jn	$-934    	;abs 0xcaa
    1052:	3b 73       	subc	#-1,	r11	;r3 As==11
    1054:	63 73       	.word	0x7363;	????	Illegal as 2-op instr
    1056:	3a 28       	jnc	$+118    	;abs 0x10cc
    1058:	30 2c       	jc	$+98     	;abs 0x10ba
    105a:	34 29       	jnc	$+618    	;abs 0x12c4
    105c:	2c 31       	jn	$+602    	;abs 0x12b6
    105e:	31 2c       	jc	$+100    	;abs 0x10c2
    1060:	31 3b       	jl	$-412    	;abs 0xec4
    1062:	63 63       	.word	0x6363;	????	Illegal as 2-op instr
    1064:	69 73       	subc.b	#2,	r9	;r3 As==10
    1066:	3a 28       	jnc	$+118    	;abs 0x10dc
    1068:	30 2c       	jc	$+98     	;abs 0x10ca
    106a:	34 29       	jnc	$+618    	;abs 0x12d4
    106c:	2c 31       	jn	$+602    	;abs 0x12c6
    106e:	32 2c       	jc	$+102    	;abs 0x10d4
    1070:	32 3b       	jl	$-410    	;abs 0xed6
    1072:	63 6d       	.word	0x6d63;	????	Illegal as 2-op instr
    1074:	3a 28       	jnc	$+118    	;abs 0x10ea
    1076:	30 2c       	jc	$+98     	;abs 0x10d8
    1078:	34 29       	jnc	$+618    	;abs 0x12e2
    107a:	2c 31       	jn	$+602    	;abs 0x12d4
    107c:	34 2c       	jc	$+106    	;abs 0x10e6
    107e:	32 3b       	jl	$-410    	;abs 0xee4
    1080:	3b 00 74 69 	mova	0x6974,	r11	;PC rel. 0x079f6
    1084:	6d 65       	addc.b	@r5,	r13	
    1086:	72 62       	addc.b	#8,	r2	;r2 As==11
    1088:	5f 74 3a 54 	subc.b	21562(r4),r15	;0x543a(r4)
    108c:	28 31       	jn	$+594    	;abs 0x12de
    108e:	37 2c       	jc	$+112    	;abs 0x10fe
    1090:	35 29       	jnc	$+620    	;abs 0x12fc
    1092:	3d 73       	subc	#-1,	r13	;r3 As==11
    1094:	33 32       	jn	$-920    	;abs 0xcfc
    1096:	63 74       	.word	0x7463;	????	Illegal as 2-op instr
    1098:	6c 3a       	jl	$-806    	;abs 0xd72
    109a:	28 31       	jn	$+594    	;abs 0x12ec
    109c:	37 2c       	jc	$+112    	;abs 0x110c
    109e:	31 29       	jnc	$+612    	;abs 0x1302
    10a0:	2c 30       	jn	$+90     	;abs 0x10fa
    10a2:	2c 31       	jn	$+602    	;abs 0x12fc
    10a4:	36 3b       	jl	$-402    	;abs 0xf12
    10a6:	63 63       	.word	0x6363;	????	Illegal as 2-op instr
    10a8:	74 6c       	addc.b	@r12+,	r4	
    10aa:	30 3a       	jl	$-926    	;abs 0xd0c
    10ac:	28 31       	jn	$+594    	;abs 0x12fe
    10ae:	37 2c       	jc	$+112    	;abs 0x111e
    10b0:	33 29       	jnc	$+616    	;abs 0x1318
    10b2:	2c 31       	jn	$+602    	;abs 0x130c
    10b4:	36 2c       	jc	$+110    	;abs 0x1122
    10b6:	31 36       	jge	$-924    	;abs 0xd1a
    10b8:	3b 63       	addc	#-1,	r11	;r3 As==11
    10ba:	63 74       	.word	0x7463;	????	Illegal as 2-op instr
    10bc:	6c 31       	jn	$+730    	;abs 0x1396
    10be:	3a 28       	jnc	$+118    	;abs 0x1134
    10c0:	31 37       	jge	$-412    	;abs 0xf24
    10c2:	2c 33       	jn	$-422    	;abs 0xf1c
    10c4:	29 2c       	jc	$+84     	;abs 0x1118
    10c6:	33 32       	jn	$-920    	;abs 0xd2e
    10c8:	2c 31       	jn	$+602    	;abs 0x1322
    10ca:	36 3b       	jl	$-402    	;abs 0xf38
    10cc:	63 63       	.word	0x6363;	????	Illegal as 2-op instr
    10ce:	74 6c       	addc.b	@r12+,	r4	
    10d0:	32 3a       	jl	$-922    	;abs 0xd36
    10d2:	28 31       	jn	$+594    	;abs 0x1324
    10d4:	37 2c       	jc	$+112    	;abs 0x1144
    10d6:	33 29       	jnc	$+616    	;abs 0x133e
    10d8:	2c 34       	jge	$+90     	;abs 0x1132
    10da:	38 2c       	jc	$+114    	;abs 0x114c
    10dc:	31 36       	jge	$-924    	;abs 0xd40
    10de:	3b 63       	addc	#-1,	r11	;r3 As==11
    10e0:	63 74       	.word	0x7463;	????	Illegal as 2-op instr
    10e2:	6c 33       	jn	$-294    	;abs 0xfbc
    10e4:	3a 28       	jnc	$+118    	;abs 0x115a
    10e6:	31 37       	jge	$-412    	;abs 0xf4a
    10e8:	2c 33       	jn	$-422    	;abs 0xf42
    10ea:	29 2c       	jc	$+84     	;abs 0x113e
    10ec:	36 34       	jge	$+110    	;abs 0x115a
    10ee:	2c 31       	jn	$+602    	;abs 0x1348
    10f0:	36 3b       	jl	$-402    	;abs 0xf5e
    10f2:	63 63       	.word	0x6363;	????	Illegal as 2-op instr
    10f4:	74 6c       	addc.b	@r12+,	r4	
    10f6:	34 3a       	jl	$-918    	;abs 0xd60
    10f8:	28 31       	jn	$+594    	;abs 0x134a
    10fa:	37 2c       	jc	$+112    	;abs 0x116a
    10fc:	33 29       	jnc	$+616    	;abs 0x1364
    10fe:	2c 38       	jl	$+90     	;abs 0x1158
    1100:	30 2c       	jc	$+98     	;abs 0x1162
    1102:	31 36       	jge	$-924    	;abs 0xd66
    1104:	3b 63       	addc	#-1,	r11	;r3 As==11
    1106:	63 74       	.word	0x7463;	????	Illegal as 2-op instr
    1108:	6c 35       	jge	$+730    	;abs 0x13e2
    110a:	3a 28       	jnc	$+118    	;abs 0x1180
    110c:	31 37       	jge	$-412    	;abs 0xf70
    110e:	2c 33       	jn	$-422    	;abs 0xf68
    1110:	29 2c       	jc	$+84     	;abs 0x1164
    1112:	39 36       	jge	$-908    	;abs 0xd86
    1114:	2c 31       	jn	$+602    	;abs 0x136e
    1116:	36 3b       	jl	$-402    	;abs 0xf84
    1118:	63 63       	.word	0x6363;	????	Illegal as 2-op instr
    111a:	74 6c       	addc.b	@r12+,	r4	
    111c:	36 3a       	jl	$-914    	;abs 0xd8a
    111e:	28 31       	jn	$+594    	;abs 0x1370
    1120:	37 2c       	jc	$+112    	;abs 0x1190
    1122:	33 29       	jnc	$+616    	;abs 0x138a
    1124:	2c 31       	jn	$+602    	;abs 0x137e
    1126:	31 32       	jn	$-924    	;abs 0xd8a
    1128:	2c 31       	jn	$+602    	;abs 0x1382
    112a:	36 3b       	jl	$-402    	;abs 0xf98
    112c:	74 62       	addc.b	#8,	r4	;r2 As==11
    112e:	72 3a       	jl	$-794    	;abs 0xe14
    1130:	28 30       	jn	$+82     	;abs 0x1182
    1132:	2c 34       	jge	$+90     	;abs 0x118c
    1134:	29 2c       	jc	$+84     	;abs 0x1188
    1136:	31 32       	jn	$-924    	;abs 0xd9a
    1138:	38 2c       	jc	$+114    	;abs 0x11aa
    113a:	31 36       	jge	$-924    	;abs 0xd9e
    113c:	3b 74       	subc	@r4+,	r11	
    113e:	62 63       	addc.b	#2,	r2	;r3 As==10
    1140:	63 72       	.word	0x7263;	????	Illegal as 2-op instr
    1142:	30 3a       	jl	$-926    	;abs 0xda4
    1144:	28 30       	jn	$+82     	;abs 0x1196
    1146:	2c 34       	jge	$+90     	;abs 0x11a0
    1148:	29 2c       	jc	$+84     	;abs 0x119c
    114a:	31 34       	jge	$+100    	;abs 0x11ae
    114c:	34 2c       	jc	$+106    	;abs 0x11b6
    114e:	31 36       	jge	$-924    	;abs 0xdb2
    1150:	3b 74       	subc	@r4+,	r11	
    1152:	62 63       	addc.b	#2,	r2	;r3 As==10
    1154:	63 72       	.word	0x7263;	????	Illegal as 2-op instr
    1156:	31 3a       	jl	$-924    	;abs 0xdba
    1158:	28 30       	jn	$+82     	;abs 0x11aa
    115a:	2c 34       	jge	$+90     	;abs 0x11b4
    115c:	29 2c       	jc	$+84     	;abs 0x11b0
    115e:	31 36       	jge	$-924    	;abs 0xdc2
    1160:	30 2c       	jc	$+98     	;abs 0x11c2
    1162:	31 36       	jge	$-924    	;abs 0xdc6
    1164:	3b 74       	subc	@r4+,	r11	
    1166:	62 63       	addc.b	#2,	r2	;r3 As==10
    1168:	63 72       	.word	0x7263;	????	Illegal as 2-op instr
    116a:	32 3a       	jl	$-922    	;abs 0xdd0
    116c:	28 30       	jn	$+82     	;abs 0x11be
    116e:	2c 34       	jge	$+90     	;abs 0x11c8
    1170:	29 2c       	jc	$+84     	;abs 0x11c4
    1172:	31 37       	jge	$-412    	;abs 0xfd6
    1174:	36 2c       	jc	$+110    	;abs 0x11e2
    1176:	31 36       	jge	$-924    	;abs 0xdda
    1178:	3b 74       	subc	@r4+,	r11	
    117a:	62 63       	addc.b	#2,	r2	;r3 As==10
    117c:	63 72       	.word	0x7263;	????	Illegal as 2-op instr
    117e:	33 3a       	jl	$-920    	;abs 0xde6
    1180:	28 30       	jn	$+82     	;abs 0x11d2
    1182:	2c 34       	jge	$+90     	;abs 0x11dc
    1184:	29 2c       	jc	$+84     	;abs 0x11d8
    1186:	31 39       	jl	$+612    	;abs 0x13ea
    1188:	32 2c       	jc	$+102    	;abs 0x11ee
    118a:	31 36       	jge	$-924    	;abs 0xdee
    118c:	3b 74       	subc	@r4+,	r11	
    118e:	62 63       	addc.b	#2,	r2	;r3 As==10
    1190:	63 72       	.word	0x7263;	????	Illegal as 2-op instr
    1192:	34 3a       	jl	$-918    	;abs 0xdfc
    1194:	28 30       	jn	$+82     	;abs 0x11e6
    1196:	2c 34       	jge	$+90     	;abs 0x11f0
    1198:	29 2c       	jc	$+84     	;abs 0x11ec
    119a:	32 30       	jn	$+102    	;abs 0x1200
    119c:	38 2c       	jc	$+114    	;abs 0x120e
    119e:	31 36       	jge	$-924    	;abs 0xe02
    11a0:	3b 74       	subc	@r4+,	r11	
    11a2:	62 63       	addc.b	#2,	r2	;r3 As==10
    11a4:	63 72       	.word	0x7263;	????	Illegal as 2-op instr
    11a6:	35 3a       	jl	$-916    	;abs 0xe12
    11a8:	28 30       	jn	$+82     	;abs 0x11fa
    11aa:	2c 34       	jge	$+90     	;abs 0x1204
    11ac:	29 2c       	jc	$+84     	;abs 0x1200
    11ae:	32 32       	jn	$-922    	;abs 0xe14
    11b0:	34 2c       	jc	$+106    	;abs 0x121a
    11b2:	31 36       	jge	$-924    	;abs 0xe16
    11b4:	3b 74       	subc	@r4+,	r11	
    11b6:	62 63       	addc.b	#2,	r2	;r3 As==10
    11b8:	63 72       	.word	0x7263;	????	Illegal as 2-op instr
    11ba:	36 3a       	jl	$-914    	;abs 0xe28
    11bc:	28 30       	jn	$+82     	;abs 0x120e
    11be:	2c 34       	jge	$+90     	;abs 0x1218
    11c0:	29 2c       	jc	$+84     	;abs 0x1214
    11c2:	32 34       	jge	$+102    	;abs 0x1228
    11c4:	30 2c       	jc	$+98     	;abs 0x1226
    11c6:	31 36       	jge	$-924    	;abs 0xe2a
    11c8:	3b 3b       	jl	$-392    	;abs 0x1040
    11ca:	00 63       	adc	r0		
    11cc:	3a 2f       	jc	$-394    	;abs 0x1042
    11ce:	6d 73       	subc.b	#2,	r13	;r3 As==10
    11d0:	70 67       	addc.b	@r7+,	r0	
    11d2:	63 63       	.word	0x6363;	????	Illegal as 2-op instr
    11d4:	2f 6d       	addc	@r13,	r15	
    11d6:	73 70       	.word	0x7073;	????	Illegal as 2-op instr
    11d8:	34 33       	jn	$-406    	;abs 0x1042
    11da:	30 2f       	jc	$-414    	;abs 0x103c
    11dc:	69 6e       	addc.b	@r14,	r9	
    11de:	63 6c       	.word	0x6c63;	????	Illegal as 2-op instr
    11e0:	75 64       	addc.b	@r4+,	r5	
    11e2:	65 2f       	jc	$-308    	;abs 0x10ae
    11e4:	6d 73       	subc.b	#2,	r13	;r3 As==10
    11e6:	70 34       	jge	$+226    	;abs 0x12c8
    11e8:	33 30       	jn	$+104    	;abs 0x1250
    11ea:	2f 62       	addc	#4,	r15	;r2 As==10
    11ec:	61 73       	subc.b	#2,	r1	;r3 As==10
    11ee:	69 63       	addc.b	#2,	r9	;r3 As==10
    11f0:	5f 63       	addc.b	#1,	r15	;r3 As==01
    11f2:	6c 6f       	addc.b	@r15,	r12	
    11f4:	63 6b       	.word	0x6b63;	????	Illegal as 2-op instr
    11f6:	2e 68       	addc	@r8,	r14	
    11f8:	00 63       	adc	r0		
    11fa:	3a 2f       	jc	$-394    	;abs 0x1070
    11fc:	6d 73       	subc.b	#2,	r13	;r3 As==10
    11fe:	70 67       	addc.b	@r7+,	r0	
    1200:	63 63       	.word	0x6363;	????	Illegal as 2-op instr
    1202:	2f 6d       	addc	@r13,	r15	
    1204:	73 70       	.word	0x7073;	????	Illegal as 2-op instr
    1206:	34 33       	jn	$-406    	;abs 0x1070
    1208:	30 2f       	jc	$-414    	;abs 0x106a
    120a:	69 6e       	addc.b	@r14,	r9	
    120c:	63 6c       	.word	0x6c63;	????	Illegal as 2-op instr
    120e:	75 64       	addc.b	@r4+,	r5	
    1210:	65 2f       	jc	$-308    	;abs 0x10dc
    1212:	6d 73       	subc.b	#2,	r13	;r3 As==10
    1214:	70 34       	jge	$+226    	;abs 0x12f6
    1216:	33 30       	jn	$+104    	;abs 0x127e
    1218:	2f 66       	addc	@r6,	r15	
    121a:	6c 61       	addc.b	@r1,	r12	
    121c:	73 68       	.word	0x6873;	????	Illegal as 2-op instr
    121e:	2e 68       	addc	@r8,	r14	
    1220:	00 63       	adc	r0		
    1222:	3a 2f       	jc	$-394    	;abs 0x1098
    1224:	6d 73       	subc.b	#2,	r13	;r3 As==10
    1226:	70 67       	addc.b	@r7+,	r0	
    1228:	63 63       	.word	0x6363;	????	Illegal as 2-op instr
    122a:	2f 6d       	addc	@r13,	r15	
    122c:	73 70       	.word	0x7073;	????	Illegal as 2-op instr
    122e:	34 33       	jn	$-406    	;abs 0x1098
    1230:	30 2f       	jc	$-414    	;abs 0x1092
    1232:	69 6e       	addc.b	@r14,	r9	
    1234:	63 6c       	.word	0x6c63;	????	Illegal as 2-op instr
    1236:	75 64       	addc.b	@r4+,	r5	
    1238:	65 2f       	jc	$-308    	;abs 0x1104
    123a:	6d 73       	subc.b	#2,	r13	;r3 As==10
    123c:	70 34       	jge	$+226    	;abs 0x131e
    123e:	33 30       	jn	$+104    	;abs 0x12a6
    1240:	2f 63       	addc	#2,	r15	;r3 As==10
    1242:	6f 6d       	addc.b	@r13,	r15	
    1244:	70 61       	addc.b	@r1+,	r0	
    1246:	2e 68       	addc	@r8,	r14	
    1248:	00 63       	adc	r0		
    124a:	3a 2f       	jc	$-394    	;abs 0x10c0
    124c:	6d 73       	subc.b	#2,	r13	;r3 As==10
    124e:	70 67       	addc.b	@r7+,	r0	
    1250:	63 63       	.word	0x6363;	????	Illegal as 2-op instr
    1252:	2f 6d       	addc	@r13,	r15	
    1254:	73 70       	.word	0x7073;	????	Illegal as 2-op instr
    1256:	34 33       	jn	$-406    	;abs 0x10c0
    1258:	30 2f       	jc	$-414    	;abs 0x10ba
    125a:	69 6e       	addc.b	@r14,	r9	
    125c:	63 6c       	.word	0x6c63;	????	Illegal as 2-op instr
    125e:	75 64       	addc.b	@r4+,	r5	
    1260:	65 2f       	jc	$-308    	;abs 0x112c
    1262:	6d 73       	subc.b	#2,	r13	;r3 As==10
    1264:	70 34       	jge	$+226    	;abs 0x1346
    1266:	33 30       	jn	$+104    	;abs 0x12ce
    1268:	2f 61       	addc	@r1,	r15	
    126a:	64 63       	addc.b	#2,	r4	;r3 As==10
    126c:	31 32       	jn	$-924    	;abs 0xed0
    126e:	2e 68       	addc	@r8,	r14	
    1270:	00 61       	addc	r1,	r0	
    1272:	64 63       	addc.b	#2,	r4	;r3 As==10
    1274:	31 32       	jn	$-924    	;abs 0xed8
    1276:	63 74       	.word	0x7463;	????	Illegal as 2-op instr
    1278:	6c 30       	jn	$+218    	;abs 0x1352
    127a:	5f 74 3a 74 	subc.b	29754(r4),r15	;0x743a(r4)
    127e:	28 32       	jn	$-942    	;abs 0xed0
    1280:	31 2c       	jc	$+100    	;abs 0x12e4
    1282:	31 29       	jnc	$+612    	;abs 0x14e6
    1284:	3d 28       	jnc	$+124    	;abs 0x1300
    1286:	32 31       	jn	$+614    	;abs 0x14ec
    1288:	2c 32       	jn	$-934    	;abs 0xee2
    128a:	29 3d       	jmp	$+596    	;abs 0x14de
    128c:	73 32       	jn	$-792    	;abs 0xf74
    128e:	61 64       	addc.b	@r4,	r1	
    1290:	63 31       	jn	$+712    	;abs 0x1558
    1292:	32 73       	subc	#-1,	r2	;r3 As==11
    1294:	63 3a       	jl	$-824    	;abs 0xf5c
    1296:	28 30       	jn	$+82     	;abs 0x12e8
    1298:	2c 34       	jge	$+90     	;abs 0x12f2
    129a:	29 2c       	jc	$+84     	;abs 0x12ee
    129c:	30 2c       	jc	$+98     	;abs 0x12fe
    129e:	31 3b       	jl	$-412    	;abs 0x1102
    12a0:	65 6e       	addc.b	@r14,	r5	
    12a2:	63 3a       	jl	$-824    	;abs 0xf6a
    12a4:	28 30       	jn	$+82     	;abs 0x12f6
    12a6:	2c 34       	jge	$+90     	;abs 0x1300
    12a8:	29 2c       	jc	$+84     	;abs 0x12fc
    12aa:	31 2c       	jc	$+100    	;abs 0x130e
    12ac:	31 3b       	jl	$-412    	;abs 0x1110
    12ae:	61 64       	addc.b	@r4,	r1	
    12b0:	63 31       	jn	$+712    	;abs 0x1578
    12b2:	32 74       	subc	@r4+,	r2	
    12b4:	6f 76       	subc.b	@r6,	r15	
    12b6:	69 65       	addc.b	@r5,	r9	
    12b8:	3a 28       	jnc	$+118    	;abs 0x132e
    12ba:	30 2c       	jc	$+98     	;abs 0x131c
    12bc:	34 29       	jnc	$+618    	;abs 0x1526
    12be:	2c 32       	jn	$-934    	;abs 0xf18
    12c0:	2c 31       	jn	$+602    	;abs 0x151a
    12c2:	3b 61       	addc	@r1+,	r11	
    12c4:	64 63       	addc.b	#2,	r4	;r3 As==10
    12c6:	31 32       	jn	$-924    	;abs 0xf2a
    12c8:	6f 76       	subc.b	@r6,	r15	
    12ca:	69 65       	addc.b	@r5,	r9	
    12cc:	3a 28       	jnc	$+118    	;abs 0x1342
    12ce:	30 2c       	jc	$+98     	;abs 0x1330
    12d0:	34 29       	jnc	$+618    	;abs 0x153a
    12d2:	2c 33       	jn	$-422    	;abs 0x112c
    12d4:	2c 31       	jn	$+602    	;abs 0x152e
    12d6:	3b 61       	addc	@r1+,	r11	
    12d8:	64 63       	addc.b	#2,	r4	;r3 As==10
    12da:	31 32       	jn	$-924    	;abs 0xf3e
    12dc:	6f 6e       	addc.b	@r14,	r15	
    12de:	3a 28       	jnc	$+118    	;abs 0x1354
    12e0:	30 2c       	jc	$+98     	;abs 0x1342
    12e2:	34 29       	jnc	$+618    	;abs 0x154c
    12e4:	2c 34       	jge	$+90     	;abs 0x133e
    12e6:	2c 31       	jn	$+602    	;abs 0x1540
    12e8:	3b 72       	subc	#8,	r11	;r2 As==11
    12ea:	65 66       	addc.b	@r6,	r5	
    12ec:	6f 6e       	addc.b	@r14,	r15	
    12ee:	3a 28       	jnc	$+118    	;abs 0x1364
    12f0:	30 2c       	jc	$+98     	;abs 0x1352
    12f2:	34 29       	jnc	$+618    	;abs 0x155c
    12f4:	2c 35       	jge	$+602    	;abs 0x154e
    12f6:	2c 31       	jn	$+602    	;abs 0x1550
    12f8:	3b 72       	subc	#8,	r11	;r2 As==11
    12fa:	32 5f       	add	@r15+,	r2	
    12fc:	35 76       	subc	@r6+,	r5	
    12fe:	3a 28       	jnc	$+118    	;abs 0x1374
    1300:	30 2c       	jc	$+98     	;abs 0x1362
    1302:	34 29       	jnc	$+618    	;abs 0x156c
    1304:	2c 36       	jge	$-934    	;abs 0xf5e
    1306:	2c 31       	jn	$+602    	;abs 0x1560
    1308:	3b 6d       	addc	@r13+,	r11	
    130a:	73 63       	.word	0x6373;	????	Illegal as 2-op instr
    130c:	3a 28       	jnc	$+118    	;abs 0x1382
    130e:	30 2c       	jc	$+98     	;abs 0x1370
    1310:	34 29       	jnc	$+618    	;abs 0x157a
    1312:	2c 37       	jge	$-422    	;abs 0x116c
    1314:	2c 31       	jn	$+602    	;abs 0x156e
    1316:	3b 73       	subc	#-1,	r11	;r3 As==11
    1318:	68 74       	subc.b	@r4,	r8	
    131a:	30 3a       	jl	$-926    	;abs 0xf7c
    131c:	28 30       	jn	$+82     	;abs 0x136e
    131e:	2c 34       	jge	$+90     	;abs 0x1378
    1320:	29 2c       	jc	$+84     	;abs 0x1374
    1322:	38 2c       	jc	$+114    	;abs 0x1394
    1324:	34 3b       	jl	$-406    	;abs 0x118e
    1326:	73 68       	.word	0x6873;	????	Illegal as 2-op instr
    1328:	74 31       	jn	$+746    	;abs 0x1612
    132a:	3a 28       	jnc	$+118    	;abs 0x13a0
    132c:	30 2c       	jc	$+98     	;abs 0x138e
    132e:	34 29       	jnc	$+618    	;abs 0x1598
    1330:	2c 31       	jn	$+602    	;abs 0x158a
    1332:	32 2c       	jc	$+102    	;abs 0x1398
    1334:	34 3b       	jl	$-406    	;abs 0x119e
    1336:	3b 00 61 64 	mova	0x6461,	r11	;PC rel. 0x07799
    133a:	63 31       	jn	$+712    	;abs 0x1602
    133c:	32 63       	addc	#-1,	r2	;r3 As==11
    133e:	74 6c       	addc.b	@r12+,	r4	
    1340:	31 5f       	add	@r15+,	r1	
    1342:	74 3a       	jl	$-790    	;abs 0x102c
    1344:	74 28       	jnc	$+234    	;abs 0x142e
    1346:	32 31       	jn	$+614    	;abs 0x15ac
    1348:	2c 33       	jn	$-422    	;abs 0x11a2
    134a:	29 3d       	jmp	$+596    	;abs 0x159e
    134c:	28 32       	jn	$-942    	;abs 0xf9e
    134e:	31 2c       	jc	$+100    	;abs 0x13b2
    1350:	34 29       	jnc	$+618    	;abs 0x15ba
    1352:	3d 73       	subc	#-1,	r13	;r3 As==11
    1354:	32 61       	addc	@r1+,	r2	
    1356:	64 63       	addc.b	#2,	r4	;r3 As==10
    1358:	31 32       	jn	$-924    	;abs 0xfbc
    135a:	62 75       	subc.b	@r5,	r2	
    135c:	73 79       	.word	0x7973;	????	Illegal as 2-op instr
    135e:	3a 28       	jnc	$+118    	;abs 0x13d4
    1360:	30 2c       	jc	$+98     	;abs 0x13c2
    1362:	34 29       	jnc	$+618    	;abs 0x15cc
    1364:	2c 30       	jn	$+90     	;abs 0x13be
    1366:	2c 31       	jn	$+602    	;abs 0x15c0
    1368:	3b 63       	addc	#-1,	r11	;r3 As==11
    136a:	6f 6e       	addc.b	@r14,	r15	
    136c:	73 65       	.word	0x6573;	????	Illegal as 2-op instr
    136e:	71 3a       	jl	$-796    	;abs 0x1052
    1370:	28 30       	jn	$+82     	;abs 0x13c2
    1372:	2c 34       	jge	$+90     	;abs 0x13cc
    1374:	29 2c       	jc	$+84     	;abs 0x13c8
    1376:	31 2c       	jc	$+100    	;abs 0x13da
    1378:	32 3b       	jl	$-410    	;abs 0x11de
    137a:	61 64       	addc.b	@r4,	r1	
    137c:	63 31       	jn	$+712    	;abs 0x1644
    137e:	32 73       	subc	#-1,	r2	;r3 As==11
    1380:	73 65       	.word	0x6573;	????	Illegal as 2-op instr
    1382:	6c 3a       	jl	$-806    	;abs 0x105c
    1384:	28 30       	jn	$+82     	;abs 0x13d6
    1386:	2c 34       	jge	$+90     	;abs 0x13e0
    1388:	29 2c       	jc	$+84     	;abs 0x13dc
    138a:	33 2c       	jc	$+104    	;abs 0x13f2
    138c:	32 3b       	jl	$-410    	;abs 0x11f2
    138e:	61 64       	addc.b	@r4,	r1	
    1390:	63 31       	jn	$+712    	;abs 0x1658
    1392:	32 64       	addc	@r4+,	r2	
    1394:	69 76       	subc.b	@r6,	r9	
    1396:	3a 28       	jnc	$+118    	;abs 0x140c
    1398:	30 2c       	jc	$+98     	;abs 0x13fa
    139a:	34 29       	jnc	$+618    	;abs 0x1604
    139c:	2c 35       	jge	$+602    	;abs 0x15f6
    139e:	2c 33       	jn	$-422    	;abs 0x11f8
    13a0:	3b 69       	addc	@r9+,	r11	
    13a2:	73 73       	.word	0x7373;	????	Illegal as 2-op instr
    13a4:	68 3a       	jl	$-814    	;abs 0x1076
    13a6:	28 30       	jn	$+82     	;abs 0x13f8
    13a8:	2c 34       	jge	$+90     	;abs 0x1402
    13aa:	29 2c       	jc	$+84     	;abs 0x13fe
    13ac:	38 2c       	jc	$+114    	;abs 0x141e
    13ae:	31 3b       	jl	$-412    	;abs 0x1212
    13b0:	73 68       	.word	0x6873;	????	Illegal as 2-op instr
    13b2:	70 3a       	jl	$-798    	;abs 0x1094
    13b4:	28 30       	jn	$+82     	;abs 0x1406
    13b6:	2c 34       	jge	$+90     	;abs 0x1410
    13b8:	29 2c       	jc	$+84     	;abs 0x140c
    13ba:	39 2c       	jc	$+116    	;abs 0x142e
    13bc:	31 3b       	jl	$-412    	;abs 0x1220
    13be:	73 68       	.word	0x6873;	????	Illegal as 2-op instr
    13c0:	73 3a       	jl	$-792    	;abs 0x10a8
    13c2:	28 30       	jn	$+82     	;abs 0x1414
    13c4:	2c 34       	jge	$+90     	;abs 0x141e
    13c6:	29 2c       	jc	$+84     	;abs 0x141a
    13c8:	31 30       	jn	$+100    	;abs 0x142c
    13ca:	2c 32       	jn	$-934    	;abs 0x1024
    13cc:	3b 63       	addc	#-1,	r11	;r3 As==11
    13ce:	73 74       	.word	0x7473;	????	Illegal as 2-op instr
    13d0:	61 72       	subc.b	#4,	r1	;r2 As==10
    13d2:	74 61       	addc.b	@r1+,	r4	
    13d4:	64 64       	addc.b	@r4,	r4	
    13d6:	3a 28       	jnc	$+118    	;abs 0x144c
    13d8:	30 2c       	jc	$+98     	;abs 0x143a
    13da:	34 29       	jnc	$+618    	;abs 0x1644
    13dc:	2c 31       	jn	$+602    	;abs 0x1636
    13de:	32 2c       	jc	$+102    	;abs 0x1444
    13e0:	34 3b       	jl	$-406    	;abs 0x124a
    13e2:	3b 00 61 64 	mova	0x6461,	r11	;PC rel. 0x07845
    13e6:	63 31       	jn	$+712    	;abs 0x16ae
    13e8:	32 78       	subc	@r8+,	r2	
    13ea:	66 6c       	addc.b	@r12,	r6	
    13ec:	67 5f       	add.b	@r15,	r7	
    13ee:	74 3a       	jl	$-790    	;abs 0x10d8
    13f0:	74 28       	jnc	$+234    	;abs 0x14da
    13f2:	32 31       	jn	$+614    	;abs 0x1658
    13f4:	2c 35       	jge	$+602    	;abs 0x164e
    13f6:	29 3d       	jmp	$+596    	;abs 0x164a
    13f8:	28 32       	jn	$-942    	;abs 0x104a
    13fa:	31 2c       	jc	$+100    	;abs 0x145e
    13fc:	36 29       	jnc	$+622    	;abs 0x166a
    13fe:	3d 73       	subc	#-1,	r13	;r3 As==11
    1400:	32 62       	addc	#8,	r2	;r2 As==11
    1402:	69 74       	subc.b	@r4,	r9	
    1404:	30 3a       	jl	$-926    	;abs 0x1066
    1406:	28 30       	jn	$+82     	;abs 0x1458
    1408:	2c 34       	jge	$+90     	;abs 0x1462
    140a:	29 2c       	jc	$+84     	;abs 0x145e
    140c:	30 2c       	jc	$+98     	;abs 0x146e
    140e:	31 3b       	jl	$-412    	;abs 0x1272
    1410:	62 69       	addc.b	@r9,	r2	
    1412:	74 31       	jn	$+746    	;abs 0x16fc
    1414:	3a 28       	jnc	$+118    	;abs 0x148a
    1416:	30 2c       	jc	$+98     	;abs 0x1478
    1418:	34 29       	jnc	$+618    	;abs 0x1682
    141a:	2c 31       	jn	$+602    	;abs 0x1674
    141c:	2c 31       	jn	$+602    	;abs 0x1676
    141e:	3b 62       	addc	#8,	r11	;r2 As==11
    1420:	69 74       	subc.b	@r4,	r9	
    1422:	32 3a       	jl	$-922    	;abs 0x1088
    1424:	28 30       	jn	$+82     	;abs 0x1476
    1426:	2c 34       	jge	$+90     	;abs 0x1480
    1428:	29 2c       	jc	$+84     	;abs 0x147c
    142a:	32 2c       	jc	$+102    	;abs 0x1490
    142c:	31 3b       	jl	$-412    	;abs 0x1290
    142e:	62 69       	addc.b	@r9,	r2	
    1430:	74 33       	jn	$-278    	;abs 0x131a
    1432:	3a 28       	jnc	$+118    	;abs 0x14a8
    1434:	30 2c       	jc	$+98     	;abs 0x1496
    1436:	34 29       	jnc	$+618    	;abs 0x16a0
    1438:	2c 33       	jn	$-422    	;abs 0x1292
    143a:	2c 31       	jn	$+602    	;abs 0x1694
    143c:	3b 62       	addc	#8,	r11	;r2 As==11
    143e:	69 74       	subc.b	@r4,	r9	
    1440:	34 3a       	jl	$-918    	;abs 0x10aa
    1442:	28 30       	jn	$+82     	;abs 0x1494
    1444:	2c 34       	jge	$+90     	;abs 0x149e
    1446:	29 2c       	jc	$+84     	;abs 0x149a
    1448:	34 2c       	jc	$+106    	;abs 0x14b2
    144a:	31 3b       	jl	$-412    	;abs 0x12ae
    144c:	62 69       	addc.b	@r9,	r2	
    144e:	74 35       	jge	$+746    	;abs 0x1738
    1450:	3a 28       	jnc	$+118    	;abs 0x14c6
    1452:	30 2c       	jc	$+98     	;abs 0x14b4
    1454:	34 29       	jnc	$+618    	;abs 0x16be
    1456:	2c 35       	jge	$+602    	;abs 0x16b0
    1458:	2c 31       	jn	$+602    	;abs 0x16b2
    145a:	3b 62       	addc	#8,	r11	;r2 As==11
    145c:	69 74       	subc.b	@r4,	r9	
    145e:	36 3a       	jl	$-914    	;abs 0x10cc
    1460:	28 30       	jn	$+82     	;abs 0x14b2
    1462:	2c 34       	jge	$+90     	;abs 0x14bc
    1464:	29 2c       	jc	$+84     	;abs 0x14b8
    1466:	36 2c       	jc	$+110    	;abs 0x14d4
    1468:	31 3b       	jl	$-412    	;abs 0x12cc
    146a:	62 69       	addc.b	@r9,	r2	
    146c:	74 37       	jge	$-278    	;abs 0x1356
    146e:	3a 28       	jnc	$+118    	;abs 0x14e4
    1470:	30 2c       	jc	$+98     	;abs 0x14d2
    1472:	34 29       	jnc	$+618    	;abs 0x16dc
    1474:	2c 37       	jge	$-422    	;abs 0x12ce
    1476:	2c 31       	jn	$+602    	;abs 0x16d0
    1478:	3b 62       	addc	#8,	r11	;r2 As==11
    147a:	69 74       	subc.b	@r4,	r9	
    147c:	38 3a       	jl	$-910    	;abs 0x10ee
    147e:	28 30       	jn	$+82     	;abs 0x14d0
    1480:	2c 34       	jge	$+90     	;abs 0x14da
    1482:	29 2c       	jc	$+84     	;abs 0x14d6
    1484:	38 2c       	jc	$+114    	;abs 0x14f6
    1486:	31 3b       	jl	$-412    	;abs 0x12ea
    1488:	62 69       	addc.b	@r9,	r2	
    148a:	74 39       	jl	$+746    	;abs 0x1774
    148c:	3a 28       	jnc	$+118    	;abs 0x1502
    148e:	30 2c       	jc	$+98     	;abs 0x14f0
    1490:	34 29       	jnc	$+618    	;abs 0x16fa
    1492:	2c 39       	jl	$+602    	;abs 0x16ec
    1494:	2c 31       	jn	$+602    	;abs 0x16ee
    1496:	3b 62       	addc	#8,	r11	;r2 As==11
    1498:	69 74       	subc.b	@r4,	r9	
    149a:	31 30       	jn	$+100    	;abs 0x14fe
    149c:	3a 28       	jnc	$+118    	;abs 0x1512
    149e:	30 2c       	jc	$+98     	;abs 0x1500
    14a0:	34 29       	jnc	$+618    	;abs 0x170a
    14a2:	2c 31       	jn	$+602    	;abs 0x16fc
    14a4:	30 2c       	jc	$+98     	;abs 0x1506
    14a6:	31 3b       	jl	$-412    	;abs 0x130a
    14a8:	62 69       	addc.b	@r9,	r2	
    14aa:	74 31       	jn	$+746    	;abs 0x1794
    14ac:	31 3a       	jl	$-924    	;abs 0x1110
    14ae:	28 30       	jn	$+82     	;abs 0x1500
    14b0:	2c 34       	jge	$+90     	;abs 0x150a
    14b2:	29 2c       	jc	$+84     	;abs 0x1506
    14b4:	31 31       	jn	$+612    	;abs 0x1718
    14b6:	2c 31       	jn	$+602    	;abs 0x1710
    14b8:	3b 62       	addc	#8,	r11	;r2 As==11
    14ba:	69 74       	subc.b	@r4,	r9	
    14bc:	31 32       	jn	$-924    	;abs 0x1120
    14be:	3a 28       	jnc	$+118    	;abs 0x1534
    14c0:	30 2c       	jc	$+98     	;abs 0x1522
    14c2:	34 29       	jnc	$+618    	;abs 0x172c
    14c4:	2c 31       	jn	$+602    	;abs 0x171e
    14c6:	32 2c       	jc	$+102    	;abs 0x152c
    14c8:	31 3b       	jl	$-412    	;abs 0x132c
    14ca:	62 69       	addc.b	@r9,	r2	
    14cc:	74 31       	jn	$+746    	;abs 0x17b6
    14ce:	33 3a       	jl	$-920    	;abs 0x1136
    14d0:	28 30       	jn	$+82     	;abs 0x1522
    14d2:	2c 34       	jge	$+90     	;abs 0x152c
    14d4:	29 2c       	jc	$+84     	;abs 0x1528
    14d6:	31 33       	jn	$-412    	;abs 0x133a
    14d8:	2c 31       	jn	$+602    	;abs 0x1732
    14da:	3b 62       	addc	#8,	r11	;r2 As==11
    14dc:	69 74       	subc.b	@r4,	r9	
    14de:	31 34       	jge	$+100    	;abs 0x1542
    14e0:	3a 28       	jnc	$+118    	;abs 0x1556
    14e2:	30 2c       	jc	$+98     	;abs 0x1544
    14e4:	34 29       	jnc	$+618    	;abs 0x174e
    14e6:	2c 31       	jn	$+602    	;abs 0x1740
    14e8:	34 2c       	jc	$+106    	;abs 0x1552
    14ea:	31 3b       	jl	$-412    	;abs 0x134e
    14ec:	62 69       	addc.b	@r9,	r2	
    14ee:	74 31       	jn	$+746    	;abs 0x17d8
    14f0:	35 3a       	jl	$-916    	;abs 0x115c
    14f2:	28 30       	jn	$+82     	;abs 0x1544
    14f4:	2c 34       	jge	$+90     	;abs 0x154e
    14f6:	29 2c       	jc	$+84     	;abs 0x154a
    14f8:	31 35       	jge	$+612    	;abs 0x175c
    14fa:	2c 31       	jn	$+602    	;abs 0x1754
    14fc:	3b 3b       	jl	$-392    	;abs 0x1374
    14fe:	00 61       	addc	r1,	r0	
    1500:	64 63       	addc.b	#2,	r4	;r3 As==10
    1502:	31 32       	jn	$-924    	;abs 0x1166
    1504:	5f 74 3a 54 	subc.b	21562(r4),r15	;0x543a(r4)
    1508:	28 32       	jn	$-942    	;abs 0x115a
    150a:	31 2c       	jc	$+100    	;abs 0x156e
    150c:	37 29       	jnc	$+624    	;abs 0x177c
    150e:	3d 73       	subc	#-1,	r13	;r3 As==11
    1510:	31 30       	jn	$+100    	;abs 0x1574
    1512:	63 74       	.word	0x7463;	????	Illegal as 2-op instr
    1514:	6c 30       	jn	$+218    	;abs 0x15ee
    1516:	3a 28       	jnc	$+118    	;abs 0x158c
    1518:	32 31       	jn	$+614    	;abs 0x177e
    151a:	2c 31       	jn	$+602    	;abs 0x1774
    151c:	29 2c       	jc	$+84     	;abs 0x1570
    151e:	30 2c       	jc	$+98     	;abs 0x1580
    1520:	31 36       	jge	$-924    	;abs 0x1184
    1522:	3b 63       	addc	#-1,	r11	;r3 As==11
    1524:	74 6c       	addc.b	@r12+,	r4	
    1526:	31 3a       	jl	$-924    	;abs 0x118a
    1528:	28 32       	jn	$-942    	;abs 0x117a
    152a:	31 2c       	jc	$+100    	;abs 0x158e
    152c:	33 29       	jnc	$+616    	;abs 0x1794
    152e:	2c 31       	jn	$+602    	;abs 0x1788
    1530:	36 2c       	jc	$+110    	;abs 0x159e
    1532:	31 36       	jge	$-924    	;abs 0x1196
    1534:	3b 69       	addc	@r9+,	r11	
    1536:	66 67       	addc.b	@r7,	r6	
    1538:	3a 28       	jnc	$+118    	;abs 0x15ae
    153a:	32 31       	jn	$+614    	;abs 0x17a0
    153c:	2c 35       	jge	$+602    	;abs 0x1796
    153e:	29 2c       	jc	$+84     	;abs 0x1592
    1540:	33 32       	jn	$-920    	;abs 0x11a8
    1542:	2c 31       	jn	$+602    	;abs 0x179c
    1544:	36 3b       	jl	$-402    	;abs 0x13b2
    1546:	69 65       	addc.b	@r5,	r9	
    1548:	3a 28       	jnc	$+118    	;abs 0x15be
    154a:	32 31       	jn	$+614    	;abs 0x17b0
    154c:	2c 35       	jge	$+602    	;abs 0x17a6
    154e:	29 2c       	jc	$+84     	;abs 0x15a2
    1550:	34 38       	jl	$+106    	;abs 0x15ba
    1552:	2c 31       	jn	$+602    	;abs 0x17ac
    1554:	36 3b       	jl	$-402    	;abs 0x13c2
    1556:	69 76       	subc.b	@r6,	r9	
    1558:	3a 28       	jnc	$+118    	;abs 0x15ce
    155a:	32 31       	jn	$+614    	;abs 0x17c0
    155c:	2c 35       	jge	$+602    	;abs 0x17b6
    155e:	29 2c       	jc	$+84     	;abs 0x15b2
    1560:	36 34       	jge	$+110    	;abs 0x15ce
    1562:	2c 31       	jn	$+602    	;abs 0x17bc
    1564:	36 3b       	jl	$-402    	;abs 0x13d2
    1566:	3b 00 63 3a 	mova	0x3a63,	r11	;PC rel. 0x04fcb
    156a:	2f 6d       	addc	@r13,	r15	
    156c:	73 70       	.word	0x7073;	????	Illegal as 2-op instr
    156e:	67 63       	addc.b	#2,	r7	;r3 As==10
    1570:	63 2f       	jc	$-312    	;abs 0x1438
    1572:	6d 73       	subc.b	#2,	r13	;r3 As==10
    1574:	70 34       	jge	$+226    	;abs 0x1656
    1576:	33 30       	jn	$+104    	;abs 0x15de
    1578:	2f 69       	addc	@r9,	r15	
    157a:	6e 63       	addc.b	#2,	r14	;r3 As==10
    157c:	6c 75       	subc.b	@r5,	r12	
    157e:	64 65       	addc.b	@r5,	r4	
    1580:	2f 6d       	addc	@r13,	r15	
    1582:	73 70       	.word	0x7073;	????	Illegal as 2-op instr
    1584:	34 33       	jn	$-406    	;abs 0x13ee
    1586:	30 2f       	jc	$-414    	;abs 0x13e8
    1588:	64 61       	addc.b	@r1,	r4	
    158a:	63 31       	jn	$+712    	;abs 0x1852
    158c:	32 2e       	jc	$-922    	;abs 0x11f2
    158e:	68 00 63 3a 	mova	r0,	&0x83a63
    1592:	2f 6d       	addc	@r13,	r15	
    1594:	73 70       	.word	0x7073;	????	Illegal as 2-op instr
    1596:	67 63       	addc.b	#2,	r7	;r3 As==10
    1598:	63 2f       	jc	$-312    	;abs 0x1460
    159a:	6d 73       	subc.b	#2,	r13	;r3 As==10
    159c:	70 34       	jge	$+226    	;abs 0x167e
    159e:	33 30       	jn	$+104    	;abs 0x1606
    15a0:	2f 69       	addc	@r9,	r15	
    15a2:	6e 63       	addc.b	#2,	r14	;r3 As==10
    15a4:	6c 75       	subc.b	@r5,	r12	
    15a6:	64 65       	addc.b	@r5,	r4	
    15a8:	2f 6d       	addc	@r13,	r15	
    15aa:	73 70       	.word	0x7073;	????	Illegal as 2-op instr
    15ac:	34 33       	jn	$-406    	;abs 0x1416
    15ae:	30 2f       	jc	$-414    	;abs 0x1410
    15b0:	64 6d       	addc.b	@r13,	r4	
    15b2:	61 2e       	jc	$-828    	;abs 0x1276
    15b4:	68 00 63 3a 	mova	r0,	&0x83a63
    15b8:	2f 6d       	addc	@r13,	r15	
    15ba:	73 70       	.word	0x7073;	????	Illegal as 2-op instr
    15bc:	67 63       	addc.b	#2,	r7	;r3 As==10
    15be:	63 2f       	jc	$-312    	;abs 0x1486
    15c0:	6d 73       	subc.b	#2,	r13	;r3 As==10
    15c2:	70 34       	jge	$+226    	;abs 0x16a4
    15c4:	33 30       	jn	$+104    	;abs 0x162c
    15c6:	2f 69       	addc	@r9,	r15	
    15c8:	6e 63       	addc.b	#2,	r14	;r3 As==10
    15ca:	6c 75       	subc.b	@r5,	r12	
    15cc:	64 65       	addc.b	@r5,	r4	
    15ce:	2f 6d       	addc	@r13,	r15	
    15d0:	73 70       	.word	0x7073;	????	Illegal as 2-op instr
    15d2:	34 33       	jn	$-406    	;abs 0x143c
    15d4:	30 2f       	jc	$-414    	;abs 0x1436
    15d6:	63 6f       	.word	0x6f63;	????	Illegal as 2-op instr
    15d8:	6d 6d       	addc.b	@r13,	r13	
    15da:	6f 6e       	addc.b	@r14,	r15	
    15dc:	2e 68       	addc	@r8,	r14	
    15de:	00 6c       	addc	r12,	r0	
    15e0:	63 64       	.word	0x6463;	????	Illegal as 2-op instr
    15e2:	36 31       	jn	$+622    	;abs 0x1850
    15e4:	30 30       	jn	$+98     	;abs 0x1646
    15e6:	2e 68       	addc	@r8,	r14	
    15e8:	00 64       	addc	r4,	r0	
    15ea:	65 6c       	addc.b	@r12,	r5	
    15ec:	61 79       	subc.b	@r9,	r1	
    15ee:	2e 68       	addc	@r8,	r14	
    15f0:	00 70       	subc	r0,	r0	
    15f2:	75 74       	subc.b	@r4+,	r5	
    15f4:	63 68       	.word	0x6863;	????	Illegal as 2-op instr
    15f6:	61 72       	subc.b	#4,	r1	;r2 As==10
    15f8:	3a 46       	mov	@r6+,	r10	
    15fa:	28 30       	jn	$+82     	;abs 0x164c
    15fc:	2c 31       	jn	$+602    	;abs 0x1856
    15fe:	29 00 63 3a 	mova	&0x03a63,r9	
    1602:	50 28       	jnc	$+162    	;abs 0x16a4
    1604:	30 2c       	jc	$+98     	;abs 0x1666
    1606:	31 29       	jnc	$+612    	;abs 0x186a
    1608:	00 6c       	addc	r12,	r0	
    160a:	63 64       	.word	0x6463;	????	Illegal as 2-op instr
    160c:	5f 73       	subc.b	#1,	r15	;r3 As==01
    160e:	65 74       	subc.b	@r4,	r5	
    1610:	63 6f       	.word	0x6f63;	????	Illegal as 2-op instr
    1612:	6c 6f       	addc.b	@r15,	r12	
    1614:	72 3a       	jl	$-794    	;abs 0x12fa
    1616:	46 28       	jnc	$+142    	;abs 0x16a4
    1618:	30 2c       	jc	$+98     	;abs 0x167a
    161a:	32 30       	jn	$+102    	;abs 0x1680
    161c:	29 00 66 6f 	mova	&0x06f66,r9	
    1620:	72 65       	addc.b	@r5+,	r2	
    1622:	67 72       	subc.b	#4,	r7	;r2 As==10
    1624:	6f 75       	subc.b	@r5,	r15	
    1626:	6e 64       	addc.b	@r4,	r14	
    1628:	5f 63       	addc.b	#1,	r15	;r3 As==01
    162a:	6f 6c       	addc.b	@r12,	r15	
    162c:	6f 72       	subc.b	#4,	r15	;r2 As==10
    162e:	3a 50 28 30 	add	#12328,	r10	;#0x3028
    1632:	2c 31       	jn	$+602    	;abs 0x188c
    1634:	31 29       	jnc	$+612    	;abs 0x1898
    1636:	00 62       	addc	r2,	r0	
    1638:	61 63       	addc.b	#2,	r1	;r3 As==10
    163a:	6b 67       	addc.b	@r7,	r11	
    163c:	72 6f       	addc.b	@r15+,	r2	
    163e:	75 6e       	addc.b	@r14+,	r5	
    1640:	64 5f       	add.b	@r15,	r4	
    1642:	63 6f       	.word	0x6f63;	????	Illegal as 2-op instr
    1644:	6c 6f       	addc.b	@r15,	r12	
    1646:	72 3a       	jl	$-794    	;abs 0x132c
    1648:	50 28       	jnc	$+162    	;abs 0x16ea
    164a:	30 2c       	jc	$+98     	;abs 0x16ac
    164c:	31 31       	jn	$+612    	;abs 0x18b0
    164e:	29 00 6e 36 	mova	&0x0366e,r9	
    1652:	31 30       	jn	$+100    	;abs 0x16b6
    1654:	30 5f       	add	@r15+,	r0	
    1656:	73 65       	.word	0x6573;	????	Illegal as 2-op instr
    1658:	6e 64       	addc.b	@r4,	r14	
    165a:	3a 46       	mov	@r6+,	r10	
    165c:	28 30       	jn	$+82     	;abs 0x16ae
    165e:	2c 32       	jn	$-934    	;abs 0x12b8
    1660:	30 29       	jnc	$+610    	;abs 0x18c2
    1662:	00 64       	addc	r4,	r0	
    1664:	61 74       	subc.b	@r4,	r1	
    1666:	61 3a       	jl	$-828    	;abs 0x132a
    1668:	50 28       	jnc	$+162    	;abs 0x170a
    166a:	30 2c       	jc	$+98     	;abs 0x16cc
    166c:	31 31       	jn	$+612    	;abs 0x18d0
    166e:	29 00 63 6d 	mova	&0x06d63,r9	
    1672:	64 3a       	jl	$-822    	;abs 0x133c
    1674:	50 28       	jnc	$+162    	;abs 0x1716
    1676:	30 2c       	jc	$+98     	;abs 0x16d8
    1678:	31 31       	jn	$+612    	;abs 0x18dc
    167a:	29 00 6d 61 	mova	&0x0616d,r9	
    167e:	73 6b       	.word	0x6b73;	????	Illegal as 2-op instr
    1680:	3a 72       	subc	#8,	r10	;r2 As==11
    1682:	28 30       	jn	$+82     	;abs 0x16d4
    1684:	2c 31       	jn	$+602    	;abs 0x18de
    1686:	31 29       	jnc	$+612    	;abs 0x18ea
    1688:	00 69       	addc	r9,	r0	
    168a:	3a 72       	subc	#8,	r10	;r2 As==11
    168c:	28 30       	jn	$+82     	;abs 0x16de
    168e:	2c 31       	jn	$+602    	;abs 0x18e8
    1690:	31 29       	jnc	$+612    	;abs 0x18f4
    1692:	00 6c       	addc	r12,	r0	
    1694:	63 64       	.word	0x6463;	????	Illegal as 2-op instr
    1696:	5f 69 6e 69 	addc.b	26990(r9),r15	;0x696e(r9)
    169a:	74 3a       	jl	$-790    	;abs 0x1384
    169c:	46 28       	jnc	$+142    	;abs 0x172a
    169e:	30 2c       	jc	$+98     	;abs 0x1700
    16a0:	32 30       	jn	$+102    	;abs 0x1706
    16a2:	29 00 63 6f 	mova	&0x06f63,r9	
    16a6:	72 3a       	jl	$-794    	;abs 0x138c
    16a8:	50 28       	jnc	$+162    	;abs 0x174a
    16aa:	30 2c       	jc	$+98     	;abs 0x170c
    16ac:	31 31       	jn	$+612    	;abs 0x1910
    16ae:	29 00 6c 63 	mova	&0x0636c,r9	
    16b2:	64 5f       	add.b	@r15,	r4	
    16b4:	63 6c       	.word	0x6c63;	????	Illegal as 2-op instr
    16b6:	65 61       	addc.b	@r1,	r5	
    16b8:	72 3a       	jl	$-794    	;abs 0x139e
    16ba:	46 28       	jnc	$+142    	;abs 0x1748
    16bc:	30 2c       	jc	$+98     	;abs 0x171e
    16be:	32 30       	jn	$+102    	;abs 0x1724
    16c0:	29 00 63 6f 	mova	&0x06f63,r9	
    16c4:	72 3a       	jl	$-794    	;abs 0x13aa
    16c6:	50 28       	jnc	$+162    	;abs 0x1768
    16c8:	30 2c       	jc	$+98     	;abs 0x172a
    16ca:	31 31       	jn	$+612    	;abs 0x192e
    16cc:	29 00 6e 36 	mova	&0x0366e,r9	
    16d0:	31 30       	jn	$+100    	;abs 0x1734
    16d2:	30 5f       	add	@r15+,	r0	
    16d4:	73 65       	.word	0x6573;	????	Illegal as 2-op instr
    16d6:	6e 64       	addc.b	@r4,	r14	
    16d8:	63 6f       	.word	0x6f63;	????	Illegal as 2-op instr
    16da:	6d 31       	jn	$+732    	;abs 0x19b6
    16dc:	3a 46       	mov	@r6+,	r10	
    16de:	28 30       	jn	$+82     	;abs 0x1730
    16e0:	2c 32       	jn	$-934    	;abs 0x133a
    16e2:	30 29       	jnc	$+610    	;abs 0x1944
    16e4:	00 63       	adc	r0		
    16e6:	6f 6d       	addc.b	@r13,	r15	
    16e8:	6d 3a       	jl	$-804    	;abs 0x13c4
    16ea:	50 28       	jnc	$+162    	;abs 0x178c
    16ec:	30 2c       	jc	$+98     	;abs 0x174e
    16ee:	31 31       	jn	$+612    	;abs 0x1952
    16f0:	29 00 64 61 	mova	&0x06164,r9	
    16f4:	74 3a       	jl	$-790    	;abs 0x13de
    16f6:	50 28       	jnc	$+162    	;abs 0x1798
    16f8:	30 2c       	jc	$+98     	;abs 0x175a
    16fa:	31 31       	jn	$+612    	;abs 0x195e
    16fc:	29 00 6e 36 	mova	&0x0366e,r9	
    1700:	31 30       	jn	$+100    	;abs 0x1764
    1702:	30 5f       	add	@r15+,	r0	
    1704:	73 65       	.word	0x6573;	????	Illegal as 2-op instr
    1706:	6e 64       	addc.b	@r4,	r14	
    1708:	63 6f       	.word	0x6f63;	????	Illegal as 2-op instr
    170a:	6d 32       	jn	$-804    	;abs 0x13e6
    170c:	3a 46       	mov	@r6+,	r10	
    170e:	28 30       	jn	$+82     	;abs 0x1760
    1710:	2c 32       	jn	$-934    	;abs 0x136a
    1712:	30 29       	jnc	$+610    	;abs 0x1974
    1714:	00 63       	adc	r0		
    1716:	6f 6d       	addc.b	@r13,	r15	
    1718:	6d 3a       	jl	$-804    	;abs 0x13f4
    171a:	50 28       	jnc	$+162    	;abs 0x17bc
    171c:	30 2c       	jc	$+98     	;abs 0x177e
    171e:	31 31       	jn	$+612    	;abs 0x1982
    1720:	29 00 64 61 	mova	&0x06164,r9	
    1724:	74 31       	jn	$+746    	;abs 0x1a0e
    1726:	3a 50 28 30 	add	#12328,	r10	;#0x3028
    172a:	2c 31       	jn	$+602    	;abs 0x1984
    172c:	31 29       	jnc	$+612    	;abs 0x1990
    172e:	00 64       	addc	r4,	r0	
    1730:	61 74       	subc.b	@r4,	r1	
    1732:	32 3a       	jl	$-922    	;abs 0x1398
    1734:	50 28       	jnc	$+162    	;abs 0x17d6
    1736:	30 2c       	jc	$+98     	;abs 0x1798
    1738:	31 31       	jn	$+612    	;abs 0x199c
    173a:	29 00 6c 63 	mova	&0x0636c,r9	
    173e:	64 5f       	add.b	@r15,	r4	
    1740:	66 69       	addc.b	@r9,	r6	
    1742:	6c 6c       	addc.b	@r12,	r12	
    1744:	72 65       	addc.b	@r5+,	r2	
    1746:	63 74       	.word	0x7463;	????	Illegal as 2-op instr
    1748:	3a 46       	mov	@r6+,	r10	
    174a:	28 30       	jn	$+82     	;abs 0x179c
    174c:	2c 32       	jn	$-934    	;abs 0x13a6
    174e:	30 29       	jnc	$+610    	;abs 0x19b0
    1750:	00 78       	subc	r8,	r0	
    1752:	3a 50 28 30 	add	#12328,	r10	;#0x3028
    1756:	2c 31       	jn	$+602    	;abs 0x19b0
    1758:	31 29       	jnc	$+612    	;abs 0x19bc
    175a:	00 79       	subc	r9,	r0	
    175c:	3a 50 28 30 	add	#12328,	r10	;#0x3028
    1760:	2c 31       	jn	$+602    	;abs 0x19ba
    1762:	31 29       	jnc	$+612    	;abs 0x19c6
    1764:	00 6c       	addc	r12,	r0	
    1766:	78 3a       	jl	$-782    	;abs 0x1458
    1768:	50 28       	jnc	$+162    	;abs 0x180a
    176a:	30 2c       	jc	$+98     	;abs 0x17cc
    176c:	31 31       	jn	$+612    	;abs 0x19d0
    176e:	29 00 6c 79 	mova	&0x0796c,r9	
    1772:	3a 50 28 30 	add	#12328,	r10	;#0x3028
    1776:	2c 31       	jn	$+602    	;abs 0x19d0
    1778:	31 29       	jnc	$+612    	;abs 0x19dc
    177a:	00 63       	adc	r0		
    177c:	6f 72       	subc.b	#4,	r15	;r2 As==10
    177e:	3a 70 28 30 	subc	#12328,	r10	;#0x3028
    1782:	2c 31       	jn	$+602    	;abs 0x19dc
    1784:	31 29       	jnc	$+612    	;abs 0x19e8
    1786:	00 63       	adc	r0		
    1788:	6f 72       	subc.b	#4,	r15	;r2 As==10
    178a:	3a 72       	subc	#8,	r10	;r2 As==11
    178c:	28 30       	jn	$+82     	;abs 0x17de
    178e:	2c 31       	jn	$+602    	;abs 0x19e8
    1790:	31 29       	jnc	$+612    	;abs 0x19f4
    1792:	00 61       	addc	r1,	r0	
    1794:	64 64       	addc.b	@r4,	r4	
    1796:	72 3a       	jl	$-794    	;abs 0x147c
    1798:	72 28       	jnc	$+230    	;abs 0x187e
    179a:	30 2c       	jc	$+98     	;abs 0x17fc
    179c:	34 29       	jnc	$+618    	;abs 0x1a06
    179e:	00 6d       	addc	r13,	r0	
    17a0:	61 78       	subc.b	@r8,	r1	
    17a2:	3a 72       	subc	#8,	r10	;r2 As==11
    17a4:	28 30       	jn	$+82     	;abs 0x17f6
    17a6:	2c 34       	jge	$+90     	;abs 0x1800
    17a8:	29 00 6c 63 	mova	&0x0636c,r9	
    17ac:	64 5f       	add.b	@r15,	r4	
    17ae:	64 72       	subc.b	#4,	r4	;r2 As==10
    17b0:	61 77       	subc.b	@r7,	r1	
    17b2:	63 69       	.word	0x6963;	????	Illegal as 2-op instr
    17b4:	72 63       	addc.b	#-1,	r2	;r3 As==11
    17b6:	6c 65       	addc.b	@r5,	r12	
    17b8:	3a 46       	mov	@r6+,	r10	
    17ba:	28 30       	jn	$+82     	;abs 0x180c
    17bc:	2c 32       	jn	$-934    	;abs 0x1416
    17be:	30 29       	jnc	$+610    	;abs 0x1a20
    17c0:	00 78       	subc	r8,	r0	
    17c2:	30 3a       	jl	$-926    	;abs 0x1424
    17c4:	50 28       	jnc	$+162    	;abs 0x1866
    17c6:	30 2c       	jc	$+98     	;abs 0x1828
    17c8:	34 29       	jnc	$+618    	;abs 0x1a32
    17ca:	00 79       	subc	r9,	r0	
    17cc:	30 3a       	jl	$-926    	;abs 0x142e
    17ce:	50 28       	jnc	$+162    	;abs 0x1870
    17d0:	30 2c       	jc	$+98     	;abs 0x1832
    17d2:	34 29       	jnc	$+618    	;abs 0x1a3c
    17d4:	00 72       	subc	r2,	r0	
    17d6:	61 64       	addc.b	@r4,	r1	
    17d8:	69 75       	subc.b	@r5,	r9	
    17da:	73 3a       	jl	$-792    	;abs 0x14c2
    17dc:	50 28       	jnc	$+162    	;abs 0x187e
    17de:	30 2c       	jc	$+98     	;abs 0x1840
    17e0:	34 29       	jnc	$+618    	;abs 0x1a4a
    17e2:	00 63       	adc	r0		
    17e4:	6f 6c       	addc.b	@r12,	r15	
    17e6:	6f 72       	subc.b	#4,	r15	;r2 As==10
    17e8:	3a 50 28 30 	add	#12328,	r10	;#0x3028
    17ec:	2c 31       	jn	$+602    	;abs 0x1a46
    17ee:	31 29       	jnc	$+612    	;abs 0x1a52
    17f0:	00 77       	subc	r7,	r0	
    17f2:	69 64       	addc.b	@r4,	r9	
    17f4:	74 68       	addc.b	@r8+,	r4	
    17f6:	3a 70 28 30 	subc	#12328,	r10	;#0x3028
    17fa:	2c 31       	jn	$+602    	;abs 0x1a54
    17fc:	29 00 77 69 	mova	&0x06977,r9	
    1800:	64 74       	subc.b	@r4,	r4	
    1802:	68 3a       	jl	$-814    	;abs 0x14d4
    1804:	72 28       	jnc	$+230    	;abs 0x18ea
    1806:	30 2c       	jc	$+98     	;abs 0x1868
    1808:	31 29       	jnc	$+612    	;abs 0x1a6c
    180a:	00 66       	addc	r6,	r0	
    180c:	3a 28       	jnc	$+118    	;abs 0x1882
    180e:	30 2c       	jc	$+98     	;abs 0x1870
    1810:	31 29       	jnc	$+612    	;abs 0x1a74
    1812:	00 64       	addc	r4,	r0	
    1814:	64 46       	mov.b	@r6,	r4	
    1816:	5f 78 3a 28 	subc.b	10298(r8),r15	;0x283a(r8)
    181a:	30 2c       	jc	$+98     	;abs 0x187c
    181c:	31 29       	jnc	$+612    	;abs 0x1a80
    181e:	00 64       	addc	r4,	r0	
    1820:	64 46       	mov.b	@r6,	r4	
    1822:	5f 79 3a 28 	subc.b	10298(r9),r15	;0x283a(r9)
    1826:	30 2c       	jc	$+98     	;abs 0x1888
    1828:	31 29       	jnc	$+612    	;abs 0x1a8c
    182a:	00 78       	subc	r8,	r0	
    182c:	3a 72       	subc	#8,	r10	;r2 As==11
    182e:	28 30       	jn	$+82     	;abs 0x1880
    1830:	2c 31       	jn	$+602    	;abs 0x1a8a
    1832:	29 00 79 3a 	mova	&0x03a79,r9	
    1836:	72 28       	jnc	$+230    	;abs 0x191c
    1838:	30 2c       	jc	$+98     	;abs 0x189a
    183a:	31 29       	jnc	$+612    	;abs 0x1a9e
    183c:	00 6c       	addc	r12,	r0	
    183e:	63 64       	.word	0x6463;	????	Illegal as 2-op instr
    1840:	5f 64 72 61 	addc.b	24946(r4),r15	;0x6172(r4)
    1844:	77 6c       	addc.b	@r12+,	r7	
    1846:	69 6e       	addc.b	@r14,	r9	
    1848:	65 3a       	jl	$-820    	;abs 0x1514
    184a:	46 28       	jnc	$+142    	;abs 0x18d8
    184c:	30 2c       	jc	$+98     	;abs 0x18ae
    184e:	32 30       	jn	$+102    	;abs 0x18b4
    1850:	29 00 78 30 	mova	&0x03078,r9	
    1854:	3a 50 28 30 	add	#12328,	r10	;#0x3028
    1858:	2c 31       	jn	$+602    	;abs 0x1ab2
    185a:	29 00 79 30 	mova	&0x03079,r9	
    185e:	3a 50 28 30 	add	#12328,	r10	;#0x3028
    1862:	2c 31       	jn	$+602    	;abs 0x1abc
    1864:	29 00 78 31 	mova	&0x03178,r9	
    1868:	3a 70 28 30 	subc	#12328,	r10	;#0x3028
    186c:	2c 31       	jn	$+602    	;abs 0x1ac6
    186e:	29 00 79 31 	mova	&0x03179,r9	
    1872:	3a 50 28 30 	add	#12328,	r10	;#0x3028
    1876:	2c 31       	jn	$+602    	;abs 0x1ad0
    1878:	29 00 63 6f 	mova	&0x06f63,r9	
    187c:	6c 6f       	addc.b	@r15,	r12	
    187e:	72 3a       	jl	$-794    	;abs 0x1564
    1880:	70 28       	jnc	$+226    	;abs 0x1962
    1882:	30 2c       	jc	$+98     	;abs 0x18e4
    1884:	31 29       	jnc	$+612    	;abs 0x1ae8
    1886:	00 77       	subc	r7,	r0	
    1888:	69 64       	addc.b	@r4,	r9	
    188a:	74 68       	addc.b	@r8+,	r4	
    188c:	3a 70 28 30 	subc	#12328,	r10	;#0x3028
    1890:	2c 31       	jn	$+602    	;abs 0x1aea
    1892:	29 00 63 6f 	mova	&0x06f63,r9	
    1896:	6c 6f       	addc.b	@r15,	r12	
    1898:	72 3a       	jl	$-794    	;abs 0x157e
    189a:	72 28       	jnc	$+230    	;abs 0x1980
    189c:	30 2c       	jc	$+98     	;abs 0x18fe
    189e:	31 29       	jnc	$+612    	;abs 0x1b02
    18a0:	00 77       	subc	r7,	r0	
    18a2:	69 64       	addc.b	@r4,	r9	
    18a4:	74 68       	addc.b	@r8+,	r4	
    18a6:	3a 72       	subc	#8,	r10	;r2 As==11
    18a8:	28 30       	jn	$+82     	;abs 0x18fa
    18aa:	2c 31       	jn	$+602    	;abs 0x1b04
    18ac:	29 00 64 79 	mova	&0x07964,r9	
    18b0:	3a 72       	subc	#8,	r10	;r2 As==11
    18b2:	28 30       	jn	$+82     	;abs 0x1904
    18b4:	2c 31       	jn	$+602    	;abs 0x1b0e
    18b6:	29 00 64 78 	mova	&0x07864,r9	
    18ba:	3a 72       	subc	#8,	r10	;r2 As==11
    18bc:	28 30       	jn	$+82     	;abs 0x190e
    18be:	2c 31       	jn	$+602    	;abs 0x1b18
    18c0:	29 00 73 74 	mova	&0x07473,r9	
    18c4:	65 70       	subc.b	@r0,	r5	
    18c6:	78 3a       	jl	$-782    	;abs 0x15b8
    18c8:	28 30       	jn	$+82     	;abs 0x191a
    18ca:	2c 31       	jn	$+602    	;abs 0x1b24
    18cc:	29 00 73 74 	mova	&0x07473,r9	
    18d0:	65 70       	subc.b	@r0,	r5	
    18d2:	79 3a       	jl	$-780    	;abs 0x15c6
    18d4:	28 30       	jn	$+82     	;abs 0x1926
    18d6:	2c 31       	jn	$+602    	;abs 0x1b30
    18d8:	29 00 66 72 	mova	&0x07266,r9	
    18dc:	61 63       	addc.b	#2,	r1	;r3 As==10
    18de:	74 69       	addc.b	@r9+,	r4	
    18e0:	6f 6e       	addc.b	@r14,	r15	
    18e2:	3a 72       	subc	#8,	r10	;r2 As==11
    18e4:	28 30       	jn	$+82     	;abs 0x1936
    18e6:	2c 31       	jn	$+602    	;abs 0x1b40
    18e8:	29 00 66 72 	mova	&0x07266,r9	
    18ec:	61 63       	addc.b	#2,	r1	;r3 As==10
    18ee:	74 69       	addc.b	@r9+,	r4	
    18f0:	6f 6e       	addc.b	@r14,	r15	
    18f2:	3a 72       	subc	#8,	r10	;r2 As==11
    18f4:	28 30       	jn	$+82     	;abs 0x1946
    18f6:	2c 31       	jn	$+602    	;abs 0x1b50
    18f8:	29 00 6c 63 	mova	&0x0636c,r9	
    18fc:	64 5f       	add.b	@r15,	r4	
    18fe:	70 75       	subc.b	@r5+,	r0	
    1900:	74 6c       	addc.b	@r12+,	r4	
    1902:	6f 67       	addc.b	@r7,	r15	
    1904:	6f 3a       	jl	$-800    	;abs 0x15e4
    1906:	46 28       	jnc	$+142    	;abs 0x1994
    1908:	30 2c       	jc	$+98     	;abs 0x196a
    190a:	32 30       	jn	$+102    	;abs 0x1970
    190c:	29 00 78 3a 	mova	&0x03a78,r9	
    1910:	50 28       	jnc	$+162    	;abs 0x19b2
    1912:	30 2c       	jc	$+98     	;abs 0x1974
    1914:	31 31       	jn	$+612    	;abs 0x1b78
    1916:	29 00 79 3a 	mova	&0x03a79,r9	
    191a:	50 28       	jnc	$+162    	;abs 0x19bc
    191c:	30 2c       	jc	$+98     	;abs 0x197e
    191e:	31 31       	jn	$+612    	;abs 0x1b82
    1920:	29 00 6c 78 	mova	&0x0786c,r9	
    1924:	3a 50 28 30 	add	#12328,	r10	;#0x3028
    1928:	2c 31       	jn	$+602    	;abs 0x1b82
    192a:	31 29       	jnc	$+612    	;abs 0x1b8e
    192c:	00 6c       	addc	r12,	r0	
    192e:	79 3a       	jl	$-780    	;abs 0x1622
    1930:	50 28       	jnc	$+162    	;abs 0x19d2
    1932:	30 2c       	jc	$+98     	;abs 0x1994
    1934:	31 31       	jn	$+612    	;abs 0x1b98
    1936:	29 00 70 3a 	mova	&0x03a70,r9	
    193a:	70 28       	jnc	$+226    	;abs 0x1a1c
    193c:	31 2c       	jc	$+100    	;abs 0x19a0
    193e:	31 29       	jnc	$+612    	;abs 0x1ba2
    1940:	3d 2a       	jnc	$-900    	;abs 0x15bc
    1942:	28 30       	jn	$+82     	;abs 0x1994
    1944:	2c 31       	jn	$+602    	;abs 0x1b9e
    1946:	31 29       	jnc	$+612    	;abs 0x1baa
    1948:	00 70       	subc	r0,	r0	
    194a:	3a 72       	subc	#8,	r10	;r2 As==11
    194c:	28 31       	jn	$+594    	;abs 0x1b9e
    194e:	2c 31       	jn	$+602    	;abs 0x1ba8
    1950:	29 00 61 64 	mova	&0x06461,r9	
    1954:	64 72       	subc.b	#4,	r4	;r2 As==10
    1956:	3a 72       	subc	#8,	r10	;r2 As==11
    1958:	28 30       	jn	$+82     	;abs 0x19aa
    195a:	2c 34       	jge	$+90     	;abs 0x19b4
    195c:	29 00 6d 61 	mova	&0x0616d,r9	
    1960:	78 3a       	jl	$-782    	;abs 0x1652
    1962:	72 28       	jnc	$+230    	;abs 0x1a48
    1964:	30 2c       	jc	$+98     	;abs 0x19c6
    1966:	34 29       	jnc	$+618    	;abs 0x1bd0
    1968:	00 6c       	addc	r12,	r0	
    196a:	63 64       	.word	0x6463;	????	Illegal as 2-op instr
    196c:	5f 6e 65 77 	addc.b	30565(r14),r15	;0x7765(r14)
    1970:	6c 69       	addc.b	@r9,	r12	
    1972:	6e 65       	addc.b	@r5,	r14	
    1974:	3a 46       	mov	@r6+,	r10	
    1976:	28 30       	jn	$+82     	;abs 0x19c8
    1978:	2c 32       	jn	$-934    	;abs 0x15d2
    197a:	30 29       	jnc	$+610    	;abs 0x1bdc
    197c:	00 6c       	addc	r12,	r0	
    197e:	63 64       	.word	0x6463;	????	Illegal as 2-op instr
    1980:	5f 67 6f 74 	addc.b	29807(r7),r15	;0x746f(r7)
    1984:	6f 3a       	jl	$-800    	;abs 0x1664
    1986:	46 28       	jnc	$+142    	;abs 0x1a14
    1988:	30 2c       	jc	$+98     	;abs 0x19ea
    198a:	32 30       	jn	$+102    	;abs 0x19f0
    198c:	29 00 78 3a 	mova	&0x03a78,r9	
    1990:	50 28       	jnc	$+162    	;abs 0x1a32
    1992:	30 2c       	jc	$+98     	;abs 0x19f4
    1994:	31 31       	jn	$+612    	;abs 0x1bf8
    1996:	29 00 79 3a 	mova	&0x03a79,r9	
    199a:	50 28       	jnc	$+162    	;abs 0x1a3c
    199c:	30 2c       	jc	$+98     	;abs 0x19fe
    199e:	31 31       	jn	$+612    	;abs 0x1c02
    19a0:	29 00 6c 63 	mova	&0x0636c,r9	
    19a4:	64 5f       	add.b	@r15,	r4	
    19a6:	77 72       	subc.b	#8,	r7	;r2 As==11
    19a8:	63 68       	.word	0x6863;	????	Illegal as 2-op instr
    19aa:	61 72       	subc.b	#4,	r1	;r2 As==10
    19ac:	3a 46       	mov	@r6+,	r10	
    19ae:	28 30       	jn	$+82     	;abs 0x1a00
    19b0:	2c 32       	jn	$-934    	;abs 0x160a
    19b2:	30 29       	jnc	$+610    	;abs 0x1c14
    19b4:	00 63       	adc	r0		
    19b6:	3a 50 28 30 	add	#12328,	r10	;#0x3028
    19ba:	2c 31       	jn	$+602    	;abs 0x1c14
    19bc:	31 29       	jnc	$+612    	;abs 0x1c20
    19be:	00 69       	addc	r9,	r0	
    19c0:	3a 72       	subc	#8,	r10	;r2 As==11
    19c2:	28 30       	jn	$+82     	;abs 0x1a14
    19c4:	2c 31       	jn	$+602    	;abs 0x1c1e
    19c6:	31 29       	jnc	$+612    	;abs 0x1c2a
    19c8:	00 6b       	addc	r11,	r0	
    19ca:	3a 72       	subc	#8,	r10	;r2 As==11
    19cc:	28 30       	jn	$+82     	;abs 0x1a1e
    19ce:	2c 31       	jn	$+602    	;abs 0x1c28
    19d0:	31 29       	jnc	$+612    	;abs 0x1c34
    19d2:	00 6d       	addc	r13,	r0	
    19d4:	61 73       	subc.b	#2,	r1	;r3 As==10
    19d6:	6b 3a       	jl	$-808    	;abs 0x16ae
    19d8:	72 28       	jnc	$+230    	;abs 0x1abe
    19da:	30 2c       	jc	$+98     	;abs 0x1a3c
    19dc:	31 31       	jn	$+612    	;abs 0x1c40
    19de:	29 00 6c 63 	mova	&0x0636c,r9	
    19e2:	64 5f       	add.b	@r15,	r4	
    19e4:	70 75       	subc.b	@r5+,	r0	
    19e6:	74 63       	addc.b	#-1,	r4	;r3 As==11
    19e8:	68 61       	addc.b	@r1,	r8	
    19ea:	72 3a       	jl	$-794    	;abs 0x16d0
    19ec:	46 28       	jnc	$+142    	;abs 0x1a7a
    19ee:	30 2c       	jc	$+98     	;abs 0x1a50
    19f0:	32 30       	jn	$+102    	;abs 0x1a56
    19f2:	29 00 63 3a 	mova	&0x03a63,r9	
    19f6:	50 28       	jnc	$+162    	;abs 0x1a98
    19f8:	30 2c       	jc	$+98     	;abs 0x1a5a
    19fa:	31 31       	jn	$+612    	;abs 0x1c5e
    19fc:	29 00 6c 63 	mova	&0x0636c,r9	
    1a00:	64 5f       	add.b	@r15,	r4	
    1a02:	64 72       	subc.b	#4,	r4	;r2 As==10
    1a04:	61 77       	subc.b	@r7,	r1	
    1a06:	70 72       	subc.b	#8,	r0	;r2 As==11
    1a08:	6f 67       	addc.b	@r7,	r15	
    1a0a:	72 65       	addc.b	@r5+,	r2	
    1a0c:	73 73       	.word	0x7373;	????	Illegal as 2-op instr
    1a0e:	62 61       	addc.b	@r1,	r2	
    1a10:	72 3a       	jl	$-794    	;abs 0x16f6
    1a12:	46 28       	jnc	$+142    	;abs 0x1aa0
    1a14:	30 2c       	jc	$+98     	;abs 0x1a76
    1a16:	32 30       	jn	$+102    	;abs 0x1a7c
    1a18:	29 00 78 30 	mova	&0x03078,r9	
    1a1c:	3a 50 28 30 	add	#12328,	r10	;#0x3028
    1a20:	2c 31       	jn	$+602    	;abs 0x1c7a
    1a22:	29 00 79 30 	mova	&0x03079,r9	
    1a26:	3a 50 28 30 	add	#12328,	r10	;#0x3028
    1a2a:	2c 31       	jn	$+602    	;abs 0x1c84
    1a2c:	29 00 78 31 	mova	&0x03178,r9	
    1a30:	3a 50 28 30 	add	#12328,	r10	;#0x3028
    1a34:	2c 31       	jn	$+602    	;abs 0x1c8e
    1a36:	29 00 79 31 	mova	&0x03179,r9	
    1a3a:	3a 50 28 30 	add	#12328,	r10	;#0x3028
    1a3e:	2c 31       	jn	$+602    	;abs 0x1c98
    1a40:	29 00 63 6f 	mova	&0x06f63,r9	
    1a44:	6c 6f       	addc.b	@r15,	r12	
    1a46:	72 3a       	jl	$-794    	;abs 0x172c
    1a48:	70 28       	jnc	$+226    	;abs 0x1b2a
    1a4a:	30 2c       	jc	$+98     	;abs 0x1aac
    1a4c:	31 29       	jnc	$+612    	;abs 0x1cb0
    1a4e:	00 63       	adc	r0		
    1a50:	6f 6c       	addc.b	@r12,	r15	
    1a52:	6f 72       	subc.b	#4,	r15	;r2 As==10
    1a54:	70 72       	subc.b	#8,	r0	;r2 As==11
    1a56:	6f 67       	addc.b	@r7,	r15	
    1a58:	72 65       	addc.b	@r5+,	r2	
    1a5a:	73 73       	.word	0x7373;	????	Illegal as 2-op instr
    1a5c:	3a 70 28 30 	subc	#12328,	r10	;#0x3028
    1a60:	2c 31       	jn	$+602    	;abs 0x1cba
    1a62:	29 00 70 65 	mova	&0x06570,r9	
    1a66:	72 63       	addc.b	#-1,	r2	;r3 As==11
    1a68:	65 6e       	addc.b	@r14,	r5	
    1a6a:	74 3a       	jl	$-790    	;abs 0x1754
    1a6c:	70 28       	jnc	$+226    	;abs 0x1b4e
    1a6e:	30 2c       	jc	$+98     	;abs 0x1ad0
    1a70:	31 29       	jnc	$+612    	;abs 0x1cd4
    1a72:	00 63       	adc	r0		
    1a74:	6f 6c       	addc.b	@r12,	r15	
    1a76:	6f 72       	subc.b	#4,	r15	;r2 As==10
    1a78:	3a 72       	subc	#8,	r10	;r2 As==11
    1a7a:	28 30       	jn	$+82     	;abs 0x1acc
    1a7c:	2c 31       	jn	$+602    	;abs 0x1cd6
    1a7e:	29 00 63 6f 	mova	&0x06f63,r9	
    1a82:	6c 6f       	addc.b	@r15,	r12	
    1a84:	72 70 72 6f 	subc.b	#28530,	r2	;#0x6f72
    1a88:	67 72       	subc.b	#4,	r7	;r2 As==10
    1a8a:	65 73       	subc.b	#2,	r5	;r3 As==10
    1a8c:	73 3a       	jl	$-792    	;abs 0x1774
    1a8e:	72 28       	jnc	$+230    	;abs 0x1b74
    1a90:	30 2c       	jc	$+98     	;abs 0x1af2
    1a92:	31 29       	jnc	$+612    	;abs 0x1cf6
    1a94:	00 70       	subc	r0,	r0	
    1a96:	65 72       	subc.b	#4,	r5	;r2 As==10
    1a98:	63 65       	.word	0x6563;	????	Illegal as 2-op instr
    1a9a:	6e 74       	subc.b	@r4,	r14	
    1a9c:	3a 72       	subc	#8,	r10	;r2 As==11
    1a9e:	28 30       	jn	$+82     	;abs 0x1af0
    1aa0:	2c 31       	jn	$+602    	;abs 0x1cfa
    1aa2:	29 00 4d 50 	mova	&0x0504d,r9	
    1aa6:	59 3a       	jl	$-844    	;abs 0x175a
    1aa8:	47 28       	jnc	$+144    	;abs 0x1b38
    1aaa:	31 36       	jge	$-924    	;abs 0x170e
    1aac:	2c 38       	jl	$+90     	;abs 0x1b06
    1aae:	29 00 4d 50 	mova	&0x0504d,r9	
    1ab2:	59 53       	inc.b	r9		
    1ab4:	3a 47       	mov	@r7+,	r10	
    1ab6:	28 31       	jn	$+594    	;abs 0x1d08
    1ab8:	36 2c       	jc	$+110    	;abs 0x1b26
    1aba:	38 29       	jnc	$+626    	;abs 0x1d2c
    1abc:	00 4d       	br	r13		
    1abe:	41 43       	clr.b	r1		
    1ac0:	3a 47       	mov	@r7+,	r10	
    1ac2:	28 31       	jn	$+594    	;abs 0x1d14
    1ac4:	36 2c       	jc	$+110    	;abs 0x1b32
    1ac6:	38 29       	jnc	$+626    	;abs 0x1d38
    1ac8:	00 4d       	br	r13		
    1aca:	41 43       	clr.b	r1		
    1acc:	53 3a       	jl	$-856    	;abs 0x1774
    1ace:	47 28       	jnc	$+144    	;abs 0x1b5e
    1ad0:	31 36       	jge	$-924    	;abs 0x1734
    1ad2:	2c 38       	jl	$+90     	;abs 0x1b2c
    1ad4:	29 00 4f 50 	mova	&0x0504f,r9	
    1ad8:	32 3a       	jl	$-922    	;abs 0x173e
    1ada:	47 28       	jnc	$+144    	;abs 0x1b6a
    1adc:	31 36       	jge	$-924    	;abs 0x1740
    1ade:	2c 38       	jl	$+90     	;abs 0x1b38
    1ae0:	29 00 52 45 	mova	&0x04552,r9	
    1ae4:	53 4c       	.word	0x4c53;	????	Illegal as 2-op instr
    1ae6:	4f 3a       	jl	$-864    	;abs 0x1786
    1ae8:	47 28       	jnc	$+144    	;abs 0x1b78
    1aea:	31 36       	jge	$-924    	;abs 0x174e
    1aec:	2c 38       	jl	$+90     	;abs 0x1b46
    1aee:	29 00 52 45 	mova	&0x04552,r9	
    1af2:	53 48       	.word	0x4853;	????	Illegal as 2-op instr
    1af4:	49 3a       	jl	$-876    	;abs 0x1788
    1af6:	47 28       	jnc	$+144    	;abs 0x1b86
    1af8:	31 36       	jge	$-924    	;abs 0x175c
    1afa:	2c 38       	jl	$+90     	;abs 0x1b54
    1afc:	29 00 53 55 	mova	&0x05553,r9	
    1b00:	4d 45       	mov.b	r5,	r13	
    1b02:	58 54 3a 47 	add.b	18234(r4),r8	;0x473a(r4)
    1b06:	28 31       	jn	$+594    	;abs 0x1d58
    1b08:	36 2c       	jc	$+110    	;abs 0x1b76
    1b0a:	38 29       	jnc	$+626    	;abs 0x1d7c
    1b0c:	00 70       	subc	r0,	r0	
    1b0e:	6f 72       	subc.b	#4,	r15	;r2 As==10
    1b10:	74 31       	jn	$+746    	;abs 0x1dfa
    1b12:	3a 47       	mov	@r7+,	r10	
    1b14:	28 31       	jn	$+594    	;abs 0x1d66
    1b16:	34 2c       	jc	$+106    	;abs 0x1b80
    1b18:	34 29       	jnc	$+618    	;abs 0x1d82
    1b1a:	00 70       	subc	r0,	r0	
    1b1c:	6f 72       	subc.b	#4,	r15	;r2 As==10
    1b1e:	74 32       	jn	$-790    	;abs 0x1808
    1b20:	3a 47       	mov	@r7+,	r10	
    1b22:	28 31       	jn	$+594    	;abs 0x1d74
    1b24:	34 2c       	jc	$+106    	;abs 0x1b8e
    1b26:	34 29       	jnc	$+618    	;abs 0x1d90
    1b28:	00 70       	subc	r0,	r0	
    1b2a:	6f 72       	subc.b	#4,	r15	;r2 As==10
    1b2c:	74 33       	jn	$-278    	;abs 0x1a16
    1b2e:	3a 47       	mov	@r7+,	r10	
    1b30:	28 31       	jn	$+594    	;abs 0x1d82
    1b32:	34 2c       	jc	$+106    	;abs 0x1b9c
    1b34:	35 29       	jnc	$+620    	;abs 0x1da0
    1b36:	00 70       	subc	r0,	r0	
    1b38:	6f 72       	subc.b	#4,	r15	;r2 As==10
    1b3a:	74 34       	jge	$+234    	;abs 0x1c24
    1b3c:	3a 47       	mov	@r7+,	r10	
    1b3e:	28 31       	jn	$+594    	;abs 0x1d90
    1b40:	34 2c       	jc	$+106    	;abs 0x1baa
    1b42:	35 29       	jnc	$+620    	;abs 0x1dae
    1b44:	00 70       	subc	r0,	r0	
    1b46:	6f 72       	subc.b	#4,	r15	;r2 As==10
    1b48:	74 35       	jge	$+746    	;abs 0x1e32
    1b4a:	3a 47       	mov	@r7+,	r10	
    1b4c:	28 31       	jn	$+594    	;abs 0x1d9e
    1b4e:	34 2c       	jc	$+106    	;abs 0x1bb8
    1b50:	35 29       	jnc	$+620    	;abs 0x1dbc
    1b52:	00 70       	subc	r0,	r0	
    1b54:	6f 72       	subc.b	#4,	r15	;r2 As==10
    1b56:	74 36       	jge	$-790    	;abs 0x1840
    1b58:	3a 47       	mov	@r7+,	r10	
    1b5a:	28 31       	jn	$+594    	;abs 0x1dac
    1b5c:	34 2c       	jc	$+106    	;abs 0x1bc6
    1b5e:	35 29       	jnc	$+620    	;abs 0x1dca
    1b60:	00 50       	rla	r0		
    1b62:	31 49       	mov	@r9+,	r1	
    1b64:	4e 3a       	jl	$-866    	;abs 0x1802
    1b66:	47 28       	jnc	$+144    	;abs 0x1bf6
    1b68:	31 2c       	jc	$+100    	;abs 0x1bcc
    1b6a:	32 29       	jnc	$+614    	;abs 0x1dd0
    1b6c:	3d 42       	mov	#8,	r13	;r2 As==11
    1b6e:	28 30       	jn	$+82     	;abs 0x1bc0
    1b70:	2c 31       	jn	$+602    	;abs 0x1dca
    1b72:	31 29       	jnc	$+612    	;abs 0x1dd6
    1b74:	00 50       	rla	r0		
    1b76:	31 4f       	mov	@r15+,	r1	
    1b78:	55 54 3a 47 	add.b	18234(r4),r5	;0x473a(r4)
    1b7c:	28 31       	jn	$+594    	;abs 0x1dce
    1b7e:	2c 32       	jn	$-934    	;abs 0x17d8
    1b80:	29 00 50 31 	mova	&0x03150,r9	
    1b84:	44 49       	mov.b	r9,	r4	
    1b86:	52 3a       	jl	$-858    	;abs 0x182c
    1b88:	47 28       	jnc	$+144    	;abs 0x1c18
    1b8a:	31 2c       	jc	$+100    	;abs 0x1bee
    1b8c:	32 29       	jnc	$+614    	;abs 0x1df2
    1b8e:	00 50       	rla	r0		
    1b90:	31 49       	mov	@r9+,	r1	
    1b92:	46 47       	mov.b	r7,	r6	
    1b94:	3a 47       	mov	@r7+,	r10	
    1b96:	28 31       	jn	$+594    	;abs 0x1de8
    1b98:	2c 32       	jn	$-934    	;abs 0x17f2
    1b9a:	29 00 50 31 	mova	&0x03150,r9	
    1b9e:	49 45       	mov.b	r5,	r9	
    1ba0:	53 3a       	jl	$-856    	;abs 0x1848
    1ba2:	47 28       	jnc	$+144    	;abs 0x1c32
    1ba4:	31 2c       	jc	$+100    	;abs 0x1c08
    1ba6:	32 29       	jnc	$+614    	;abs 0x1e0c
    1ba8:	00 50       	rla	r0		
    1baa:	31 49       	mov	@r9+,	r1	
    1bac:	45 3a       	jl	$-884    	;abs 0x1838
    1bae:	47 28       	jnc	$+144    	;abs 0x1c3e
    1bb0:	31 2c       	jc	$+100    	;abs 0x1c14
    1bb2:	32 29       	jnc	$+614    	;abs 0x1e18
    1bb4:	00 50       	rla	r0		
    1bb6:	31 53       	add	#-1,	r1	;r3 As==11
    1bb8:	45 4c       	mov.b	r12,	r5	
    1bba:	3a 47       	mov	@r7+,	r10	
    1bbc:	28 31       	jn	$+594    	;abs 0x1e0e
    1bbe:	2c 32       	jn	$-934    	;abs 0x1818
    1bc0:	29 00 50 31 	mova	&0x03150,r9	
    1bc4:	52 45 4e 3a 	mov.b	14926(r5),r2	;0x3a4e(r5)
    1bc8:	47 28       	jnc	$+144    	;abs 0x1c58
    1bca:	31 2c       	jc	$+100    	;abs 0x1c2e
    1bcc:	32 29       	jnc	$+614    	;abs 0x1e32
    1bce:	00 50       	rla	r0		
    1bd0:	32 49       	mov	@r9+,	r2	
    1bd2:	4e 3a       	jl	$-866    	;abs 0x1870
    1bd4:	47 28       	jnc	$+144    	;abs 0x1c64
    1bd6:	31 2c       	jc	$+100    	;abs 0x1c3a
    1bd8:	32 29       	jnc	$+614    	;abs 0x1e3e
    1bda:	00 50       	rla	r0		
    1bdc:	32 4f       	mov	@r15+,	r2	
    1bde:	55 54 3a 47 	add.b	18234(r4),r5	;0x473a(r4)
    1be2:	28 31       	jn	$+594    	;abs 0x1e34
    1be4:	2c 32       	jn	$-934    	;abs 0x183e
    1be6:	29 00 50 32 	mova	&0x03250,r9	
    1bea:	44 49       	mov.b	r9,	r4	
    1bec:	52 3a       	jl	$-858    	;abs 0x1892
    1bee:	47 28       	jnc	$+144    	;abs 0x1c7e
    1bf0:	31 2c       	jc	$+100    	;abs 0x1c54
    1bf2:	32 29       	jnc	$+614    	;abs 0x1e58
    1bf4:	00 50       	rla	r0		
    1bf6:	32 49       	mov	@r9+,	r2	
    1bf8:	46 47       	mov.b	r7,	r6	
    1bfa:	3a 47       	mov	@r7+,	r10	
    1bfc:	28 31       	jn	$+594    	;abs 0x1e4e
    1bfe:	2c 32       	jn	$-934    	;abs 0x1858
    1c00:	29 00 50 32 	mova	&0x03250,r9	
    1c04:	49 45       	mov.b	r5,	r9	
    1c06:	53 3a       	jl	$-856    	;abs 0x18ae
    1c08:	47 28       	jnc	$+144    	;abs 0x1c98
    1c0a:	31 2c       	jc	$+100    	;abs 0x1c6e
    1c0c:	32 29       	jnc	$+614    	;abs 0x1e72
    1c0e:	00 50       	rla	r0		
    1c10:	32 49       	mov	@r9+,	r2	
    1c12:	45 3a       	jl	$-884    	;abs 0x189e
    1c14:	47 28       	jnc	$+144    	;abs 0x1ca4
    1c16:	31 2c       	jc	$+100    	;abs 0x1c7a
    1c18:	32 29       	jnc	$+614    	;abs 0x1e7e
    1c1a:	00 50       	rla	r0		
    1c1c:	32 53       	add	#-1,	r2	;r3 As==11
    1c1e:	45 4c       	mov.b	r12,	r5	
    1c20:	3a 47       	mov	@r7+,	r10	
    1c22:	28 31       	jn	$+594    	;abs 0x1e74
    1c24:	2c 32       	jn	$-934    	;abs 0x187e
    1c26:	29 00 50 32 	mova	&0x03250,r9	
    1c2a:	52 45 4e 3a 	mov.b	14926(r5),r2	;0x3a4e(r5)
    1c2e:	47 28       	jnc	$+144    	;abs 0x1cbe
    1c30:	31 2c       	jc	$+100    	;abs 0x1c94
    1c32:	32 29       	jnc	$+614    	;abs 0x1e98
    1c34:	00 50       	rla	r0		
    1c36:	33 49       	.word	0x4933;	????	Illegal as 2-op instr
    1c38:	4e 3a       	jl	$-866    	;abs 0x18d6
    1c3a:	47 28       	jnc	$+144    	;abs 0x1cca
    1c3c:	31 2c       	jc	$+100    	;abs 0x1ca0
    1c3e:	32 29       	jnc	$+614    	;abs 0x1ea4
    1c40:	00 50       	rla	r0		
    1c42:	33 4f       	.word	0x4f33;	????	Illegal as 2-op instr
    1c44:	55 54 3a 47 	add.b	18234(r4),r5	;0x473a(r4)
    1c48:	28 31       	jn	$+594    	;abs 0x1e9a
    1c4a:	2c 32       	jn	$-934    	;abs 0x18a4
    1c4c:	29 00 50 33 	mova	&0x03350,r9	
    1c50:	44 49       	mov.b	r9,	r4	
    1c52:	52 3a       	jl	$-858    	;abs 0x18f8
    1c54:	47 28       	jnc	$+144    	;abs 0x1ce4
    1c56:	31 2c       	jc	$+100    	;abs 0x1cba
    1c58:	32 29       	jnc	$+614    	;abs 0x1ebe
    1c5a:	00 50       	rla	r0		
    1c5c:	33 53       	.word	0x5333;	????	Illegal as 2-op instr
    1c5e:	45 4c       	mov.b	r12,	r5	
    1c60:	3a 47       	mov	@r7+,	r10	
    1c62:	28 31       	jn	$+594    	;abs 0x1eb4
    1c64:	2c 32       	jn	$-934    	;abs 0x18be
    1c66:	29 00 50 33 	mova	&0x03350,r9	
    1c6a:	52 45 4e 3a 	mov.b	14926(r5),r2	;0x3a4e(r5)
    1c6e:	47 28       	jnc	$+144    	;abs 0x1cfe
    1c70:	31 2c       	jc	$+100    	;abs 0x1cd4
    1c72:	32 29       	jnc	$+614    	;abs 0x1ed8
    1c74:	00 50       	rla	r0		
    1c76:	34 49       	mov	@r9+,	r4	
    1c78:	4e 3a       	jl	$-866    	;abs 0x1916
    1c7a:	47 28       	jnc	$+144    	;abs 0x1d0a
    1c7c:	31 2c       	jc	$+100    	;abs 0x1ce0
    1c7e:	32 29       	jnc	$+614    	;abs 0x1ee4
    1c80:	00 50       	rla	r0		
    1c82:	34 4f       	mov	@r15+,	r4	
    1c84:	55 54 3a 47 	add.b	18234(r4),r5	;0x473a(r4)
    1c88:	28 31       	jn	$+594    	;abs 0x1eda
    1c8a:	2c 32       	jn	$-934    	;abs 0x18e4
    1c8c:	29 00 50 34 	mova	&0x03450,r9	
    1c90:	44 49       	mov.b	r9,	r4	
    1c92:	52 3a       	jl	$-858    	;abs 0x1938
    1c94:	47 28       	jnc	$+144    	;abs 0x1d24
    1c96:	31 2c       	jc	$+100    	;abs 0x1cfa
    1c98:	32 29       	jnc	$+614    	;abs 0x1efe
    1c9a:	00 50       	rla	r0		
    1c9c:	34 53       	add	#-1,	r4	;r3 As==11
    1c9e:	45 4c       	mov.b	r12,	r5	
    1ca0:	3a 47       	mov	@r7+,	r10	
    1ca2:	28 31       	jn	$+594    	;abs 0x1ef4
    1ca4:	2c 32       	jn	$-934    	;abs 0x18fe
    1ca6:	29 00 50 34 	mova	&0x03450,r9	
    1caa:	52 45 4e 3a 	mov.b	14926(r5),r2	;0x3a4e(r5)
    1cae:	47 28       	jnc	$+144    	;abs 0x1d3e
    1cb0:	31 2c       	jc	$+100    	;abs 0x1d14
    1cb2:	32 29       	jnc	$+614    	;abs 0x1f18
    1cb4:	00 50       	rla	r0		
    1cb6:	35 49       	mov	@r9+,	r5	
    1cb8:	4e 3a       	jl	$-866    	;abs 0x1956
    1cba:	47 28       	jnc	$+144    	;abs 0x1d4a
    1cbc:	31 2c       	jc	$+100    	;abs 0x1d20
    1cbe:	32 29       	jnc	$+614    	;abs 0x1f24
    1cc0:	00 50       	rla	r0		
    1cc2:	35 4f       	mov	@r15+,	r5	
    1cc4:	55 54 3a 47 	add.b	18234(r4),r5	;0x473a(r4)
    1cc8:	28 31       	jn	$+594    	;abs 0x1f1a
    1cca:	2c 32       	jn	$-934    	;abs 0x1924
    1ccc:	29 00 50 35 	mova	&0x03550,r9	
    1cd0:	44 49       	mov.b	r9,	r4	
    1cd2:	52 3a       	jl	$-858    	;abs 0x1978
    1cd4:	47 28       	jnc	$+144    	;abs 0x1d64
    1cd6:	31 2c       	jc	$+100    	;abs 0x1d3a
    1cd8:	32 29       	jnc	$+614    	;abs 0x1f3e
    1cda:	00 50       	rla	r0		
    1cdc:	35 53       	add	#-1,	r5	;r3 As==11
    1cde:	45 4c       	mov.b	r12,	r5	
    1ce0:	3a 47       	mov	@r7+,	r10	
    1ce2:	28 31       	jn	$+594    	;abs 0x1f34
    1ce4:	2c 32       	jn	$-934    	;abs 0x193e
    1ce6:	29 00 50 35 	mova	&0x03550,r9	
    1cea:	52 45 4e 3a 	mov.b	14926(r5),r2	;0x3a4e(r5)
    1cee:	47 28       	jnc	$+144    	;abs 0x1d7e
    1cf0:	31 2c       	jc	$+100    	;abs 0x1d54
    1cf2:	32 29       	jnc	$+614    	;abs 0x1f58
    1cf4:	00 50       	rla	r0		
    1cf6:	36 49       	mov	@r9+,	r6	
    1cf8:	4e 3a       	jl	$-866    	;abs 0x1996
    1cfa:	47 28       	jnc	$+144    	;abs 0x1d8a
    1cfc:	31 2c       	jc	$+100    	;abs 0x1d60
    1cfe:	32 29       	jnc	$+614    	;abs 0x1f64
    1d00:	00 50       	rla	r0		
    1d02:	36 4f       	mov	@r15+,	r6	
    1d04:	55 54 3a 47 	add.b	18234(r4),r5	;0x473a(r4)
    1d08:	28 31       	jn	$+594    	;abs 0x1f5a
    1d0a:	2c 32       	jn	$-934    	;abs 0x1964
    1d0c:	29 00 50 36 	mova	&0x03650,r9	
    1d10:	44 49       	mov.b	r9,	r4	
    1d12:	52 3a       	jl	$-858    	;abs 0x19b8
    1d14:	47 28       	jnc	$+144    	;abs 0x1da4
    1d16:	31 2c       	jc	$+100    	;abs 0x1d7a
    1d18:	32 29       	jnc	$+614    	;abs 0x1f7e
    1d1a:	00 50       	rla	r0		
    1d1c:	36 53       	add	#-1,	r6	;r3 As==11
    1d1e:	45 4c       	mov.b	r12,	r5	
    1d20:	3a 47       	mov	@r7+,	r10	
    1d22:	28 31       	jn	$+594    	;abs 0x1f74
    1d24:	2c 32       	jn	$-934    	;abs 0x197e
    1d26:	29 00 50 36 	mova	&0x03650,r9	
    1d2a:	52 45 4e 3a 	mov.b	14926(r5),r2	;0x3a4e(r5)
    1d2e:	47 28       	jnc	$+144    	;abs 0x1dbe
    1d30:	31 2c       	jc	$+100    	;abs 0x1d94
    1d32:	32 29       	jnc	$+614    	;abs 0x1f98
    1d34:	00 50       	rla	r0		
    1d36:	37 49       	mov	@r9+,	r7	
    1d38:	4e 3a       	jl	$-866    	;abs 0x19d6
    1d3a:	47 28       	jnc	$+144    	;abs 0x1dca
    1d3c:	31 2c       	jc	$+100    	;abs 0x1da0
    1d3e:	32 29       	jnc	$+614    	;abs 0x1fa4
    1d40:	00 50       	rla	r0		
    1d42:	37 4f       	mov	@r15+,	r7	
    1d44:	55 54 3a 47 	add.b	18234(r4),r5	;0x473a(r4)
    1d48:	28 31       	jn	$+594    	;abs 0x1f9a
    1d4a:	2c 32       	jn	$-934    	;abs 0x19a4
    1d4c:	29 00 50 37 	mova	&0x03750,r9	
    1d50:	44 49       	mov.b	r9,	r4	
    1d52:	52 3a       	jl	$-858    	;abs 0x19f8
    1d54:	47 28       	jnc	$+144    	;abs 0x1de4
    1d56:	31 2c       	jc	$+100    	;abs 0x1dba
    1d58:	32 29       	jnc	$+614    	;abs 0x1fbe
    1d5a:	00 50       	rla	r0		
    1d5c:	37 53       	add	#-1,	r7	;r3 As==11
    1d5e:	45 4c       	mov.b	r12,	r5	
    1d60:	3a 47       	mov	@r7+,	r10	
    1d62:	28 31       	jn	$+594    	;abs 0x1fb4
    1d64:	2c 32       	jn	$-934    	;abs 0x19be
    1d66:	29 00 50 37 	mova	&0x03750,r9	
    1d6a:	52 45 4e 3a 	mov.b	14926(r5),r2	;0x3a4e(r5)
    1d6e:	47 28       	jnc	$+144    	;abs 0x1dfe
    1d70:	31 2c       	jc	$+100    	;abs 0x1dd4
    1d72:	32 29       	jnc	$+614    	;abs 0x1fd8
    1d74:	00 50       	rla	r0		
    1d76:	38 49       	mov	@r9+,	r8	
    1d78:	4e 3a       	jl	$-866    	;abs 0x1a16
    1d7a:	47 28       	jnc	$+144    	;abs 0x1e0a
    1d7c:	31 2c       	jc	$+100    	;abs 0x1de0
    1d7e:	32 29       	jnc	$+614    	;abs 0x1fe4
    1d80:	00 50       	rla	r0		
    1d82:	38 4f       	mov	@r15+,	r8	
    1d84:	55 54 3a 47 	add.b	18234(r4),r5	;0x473a(r4)
    1d88:	28 31       	jn	$+594    	;abs 0x1fda
    1d8a:	2c 32       	jn	$-934    	;abs 0x19e4
    1d8c:	29 00 50 38 	mova	&0x03850,r9	
    1d90:	44 49       	mov.b	r9,	r4	
    1d92:	52 3a       	jl	$-858    	;abs 0x1a38
    1d94:	47 28       	jnc	$+144    	;abs 0x1e24
    1d96:	31 2c       	jc	$+100    	;abs 0x1dfa
    1d98:	32 29       	jnc	$+614    	;abs 0x1ffe
    1d9a:	00 50       	rla	r0		
    1d9c:	38 53       	add	#-1,	r8	;r3 As==11
    1d9e:	45 4c       	mov.b	r12,	r5	
    1da0:	3a 47       	mov	@r7+,	r10	
    1da2:	28 31       	jn	$+594    	;abs 0x1ff4
    1da4:	2c 32       	jn	$-934    	;abs 0x19fe
    1da6:	29 00 50 38 	mova	&0x03850,r9	
    1daa:	52 45 4e 3a 	mov.b	14926(r5),r2	;0x3a4e(r5)
    1dae:	47 28       	jnc	$+144    	;abs 0x1e3e
    1db0:	31 2c       	jc	$+100    	;abs 0x1e14
    1db2:	32 29       	jnc	$+614    	;abs 0x2018
    1db4:	00 55       	add	r5,	r0	
    1db6:	43 41       	.word	0x4143;	????	Illegal as 2-op instr
    1db8:	30 43       	br	#-1		;r3 As==11
    1dba:	54 4c 30 3a 	mov.b	14896(r12),r4	;0x3a30(r12)
    1dbe:	47 28       	jnc	$+144    	;abs 0x1e4e
    1dc0:	31 2c       	jc	$+100    	;abs 0x1e24
    1dc2:	32 29       	jnc	$+614    	;abs 0x2028
    1dc4:	00 55       	add	r5,	r0	
    1dc6:	43 41       	.word	0x4143;	????	Illegal as 2-op instr
    1dc8:	30 43       	br	#-1		;r3 As==11
    1dca:	54 4c 31 3a 	mov.b	14897(r12),r4	;0x3a31(r12)
    1dce:	47 28       	jnc	$+144    	;abs 0x1e5e
    1dd0:	31 2c       	jc	$+100    	;abs 0x1e34
    1dd2:	32 29       	jnc	$+614    	;abs 0x2038
    1dd4:	00 55       	add	r5,	r0	
    1dd6:	43 41       	.word	0x4143;	????	Illegal as 2-op instr
    1dd8:	30 42       	br	#8		;r2 As==11
    1dda:	52 30       	jn	$+166    	;abs 0x1e80
    1ddc:	3a 47       	mov	@r7+,	r10	
    1dde:	28 31       	jn	$+594    	;abs 0x2030
    1de0:	2c 32       	jn	$-934    	;abs 0x1a3a
    1de2:	29 00 55 43 	mova	&0x04355,r9	
    1de6:	41 30       	jn	$+132    	;abs 0x1e6a
    1de8:	42 52       	rla.b	r2		
    1dea:	31 3a       	jl	$-924    	;abs 0x1a4e
    1dec:	47 28       	jnc	$+144    	;abs 0x1e7c
    1dee:	31 2c       	jc	$+100    	;abs 0x1e52
    1df0:	32 29       	jnc	$+614    	;abs 0x2056
    1df2:	00 55       	add	r5,	r0	
    1df4:	43 41       	.word	0x4143;	????	Illegal as 2-op instr
    1df6:	30 4d       	br	@r13+		
    1df8:	43 54       	.word	0x5443;	????	Illegal as 2-op instr
    1dfa:	4c 3a       	jl	$-870    	;abs 0x1a94
    1dfc:	47 28       	jnc	$+144    	;abs 0x1e8c
    1dfe:	31 2c       	jc	$+100    	;abs 0x1e62
    1e00:	32 29       	jnc	$+614    	;abs 0x2066
    1e02:	00 55       	add	r5,	r0	
    1e04:	43 41       	.word	0x4143;	????	Illegal as 2-op instr
    1e06:	30 53       	add	#-1,	r0	;r3 As==11
    1e08:	54 41 54 3a 	mov.b	14932(r1),r4	;0x3a54(r1)
    1e0c:	47 28       	jnc	$+144    	;abs 0x1e9c
    1e0e:	31 2c       	jc	$+100    	;abs 0x1e72
    1e10:	32 29       	jnc	$+614    	;abs 0x2076
    1e12:	00 55       	add	r5,	r0	
    1e14:	43 41       	.word	0x4143;	????	Illegal as 2-op instr
    1e16:	30 52       	add	#8,	r0	;r2 As==11
    1e18:	58 42 55 46 	mov.b	&0x4655,r8	
    1e1c:	3a 47       	mov	@r7+,	r10	
    1e1e:	28 31       	jn	$+594    	;abs 0x2070
    1e20:	2c 32       	jn	$-934    	;abs 0x1a7a
    1e22:	29 00 55 43 	mova	&0x04355,r9	
    1e26:	41 30       	jn	$+132    	;abs 0x1eaa
    1e28:	54 58 42 55 	add.b	21826(r8),r4	;0x5542(r8)
    1e2c:	46 3a       	jl	$-882    	;abs 0x1aba
    1e2e:	47 28       	jnc	$+144    	;abs 0x1ebe
    1e30:	31 2c       	jc	$+100    	;abs 0x1e94
    1e32:	32 29       	jnc	$+614    	;abs 0x2098
    1e34:	00 55       	add	r5,	r0	
    1e36:	43 41       	.word	0x4143;	????	Illegal as 2-op instr
    1e38:	30 41       	ret			
    1e3a:	42 43       	clr.b	r2		
    1e3c:	54 4c 3a 47 	mov.b	18234(r12),r4	;0x473a(r12)
    1e40:	28 31       	jn	$+594    	;abs 0x2092
    1e42:	2c 32       	jn	$-934    	;abs 0x1a9c
    1e44:	29 00 55 43 	mova	&0x04355,r9	
    1e48:	41 30       	jn	$+132    	;abs 0x1ecc
    1e4a:	49 52       	add.b	r2,	r9	
    1e4c:	54 43       	mov.b	#1,	r4	;r3 As==01
    1e4e:	54 4c 3a 47 	mov.b	18234(r12),r4	;0x473a(r12)
    1e52:	28 31       	jn	$+594    	;abs 0x20a4
    1e54:	2c 32       	jn	$-934    	;abs 0x1aae
    1e56:	29 00 55 43 	mova	&0x04355,r9	
    1e5a:	41 30       	jn	$+132    	;abs 0x1ede
    1e5c:	49 52       	add.b	r2,	r9	
    1e5e:	52 43       	mov.b	#1,	r2	;r3 As==01
    1e60:	54 4c 3a 47 	mov.b	18234(r12),r4	;0x473a(r12)
    1e64:	28 31       	jn	$+594    	;abs 0x20b6
    1e66:	2c 32       	jn	$-934    	;abs 0x1ac0
    1e68:	29 00 55 43 	mova	&0x04355,r9	
    1e6c:	42 30       	jn	$+134    	;abs 0x1ef2
    1e6e:	43 54       	.word	0x5443;	????	Illegal as 2-op instr
    1e70:	4c 30       	jn	$+154    	;abs 0x1f0a
    1e72:	3a 47       	mov	@r7+,	r10	
    1e74:	28 31       	jn	$+594    	;abs 0x20c6
    1e76:	2c 32       	jn	$-934    	;abs 0x1ad0
    1e78:	29 00 55 43 	mova	&0x04355,r9	
    1e7c:	42 30       	jn	$+134    	;abs 0x1f02
    1e7e:	43 54       	.word	0x5443;	????	Illegal as 2-op instr
    1e80:	4c 31       	jn	$+666    	;abs 0x211a
    1e82:	3a 47       	mov	@r7+,	r10	
    1e84:	28 31       	jn	$+594    	;abs 0x20d6
    1e86:	2c 32       	jn	$-934    	;abs 0x1ae0
    1e88:	29 00 55 43 	mova	&0x04355,r9	
    1e8c:	42 30       	jn	$+134    	;abs 0x1f12
    1e8e:	42 52       	rla.b	r2		
    1e90:	30 3a       	jl	$-926    	;abs 0x1af2
    1e92:	47 28       	jnc	$+144    	;abs 0x1f22
    1e94:	31 2c       	jc	$+100    	;abs 0x1ef8
    1e96:	32 29       	jnc	$+614    	;abs 0x20fc
    1e98:	00 55       	add	r5,	r0	
    1e9a:	43 42       	.word	0x4243;	????	Illegal as 2-op instr
    1e9c:	30 42       	br	#8		;r2 As==11
    1e9e:	52 31       	jn	$+678    	;abs 0x2144
    1ea0:	3a 47       	mov	@r7+,	r10	
    1ea2:	28 31       	jn	$+594    	;abs 0x20f4
    1ea4:	2c 32       	jn	$-934    	;abs 0x1afe
    1ea6:	29 00 55 43 	mova	&0x04355,r9	
    1eaa:	42 30       	jn	$+134    	;abs 0x1f30
    1eac:	49 32       	jn	$-876    	;abs 0x1b40
    1eae:	43 49       	.word	0x4943;	????	Illegal as 2-op instr
    1eb0:	45 3a       	jl	$-884    	;abs 0x1b3c
    1eb2:	47 28       	jnc	$+144    	;abs 0x1f42
    1eb4:	31 2c       	jc	$+100    	;abs 0x1f18
    1eb6:	32 29       	jnc	$+614    	;abs 0x211c
    1eb8:	00 55       	add	r5,	r0	
    1eba:	43 42       	.word	0x4243;	????	Illegal as 2-op instr
    1ebc:	30 53       	add	#-1,	r0	;r3 As==11
    1ebe:	54 41 54 3a 	mov.b	14932(r1),r4	;0x3a54(r1)
    1ec2:	47 28       	jnc	$+144    	;abs 0x1f52
    1ec4:	31 2c       	jc	$+100    	;abs 0x1f28
    1ec6:	32 29       	jnc	$+614    	;abs 0x212c
    1ec8:	00 55       	add	r5,	r0	
    1eca:	43 42       	.word	0x4243;	????	Illegal as 2-op instr
    1ecc:	30 52       	add	#8,	r0	;r2 As==11
    1ece:	58 42 55 46 	mov.b	&0x4655,r8	
    1ed2:	3a 47       	mov	@r7+,	r10	
    1ed4:	28 31       	jn	$+594    	;abs 0x2126
    1ed6:	2c 32       	jn	$-934    	;abs 0x1b30
    1ed8:	29 00 55 43 	mova	&0x04355,r9	
    1edc:	42 30       	jn	$+134    	;abs 0x1f62
    1ede:	54 58 42 55 	add.b	21826(r8),r4	;0x5542(r8)
    1ee2:	46 3a       	jl	$-882    	;abs 0x1b70
    1ee4:	47 28       	jnc	$+144    	;abs 0x1f74
    1ee6:	31 2c       	jc	$+100    	;abs 0x1f4a
    1ee8:	32 29       	jnc	$+614    	;abs 0x214e
    1eea:	00 55       	add	r5,	r0	
    1eec:	43 42       	.word	0x4243;	????	Illegal as 2-op instr
    1eee:	30 49       	br	@r9+		
    1ef0:	32 43       	mov	#-1,	r2	;r3 As==11
    1ef2:	4f 41       	mov.b	r1,	r15	
    1ef4:	3a 47       	mov	@r7+,	r10	
    1ef6:	28 31       	jn	$+594    	;abs 0x2148
    1ef8:	36 2c       	jc	$+110    	;abs 0x1f66
    1efa:	38 29       	jnc	$+626    	;abs 0x216c
    1efc:	00 55       	add	r5,	r0	
    1efe:	43 42       	.word	0x4243;	????	Illegal as 2-op instr
    1f00:	30 49       	br	@r9+		
    1f02:	32 43       	mov	#-1,	r2	;r3 As==11
    1f04:	53 41       	.word	0x4153;	????	Illegal as 2-op instr
    1f06:	3a 47       	mov	@r7+,	r10	
    1f08:	28 31       	jn	$+594    	;abs 0x215a
    1f0a:	36 2c       	jc	$+110    	;abs 0x1f78
    1f0c:	38 29       	jnc	$+626    	;abs 0x217e
    1f0e:	00 55       	add	r5,	r0	
    1f10:	43 41       	.word	0x4143;	????	Illegal as 2-op instr
    1f12:	31 43       	mov	#-1,	r1	;r3 As==11
    1f14:	54 4c 30 3a 	mov.b	14896(r12),r4	;0x3a30(r12)
    1f18:	47 28       	jnc	$+144    	;abs 0x1fa8
    1f1a:	31 2c       	jc	$+100    	;abs 0x1f7e
    1f1c:	32 29       	jnc	$+614    	;abs 0x2182
    1f1e:	00 55       	add	r5,	r0	
    1f20:	43 41       	.word	0x4143;	????	Illegal as 2-op instr
    1f22:	31 43       	mov	#-1,	r1	;r3 As==11
    1f24:	54 4c 31 3a 	mov.b	14897(r12),r4	;0x3a31(r12)
    1f28:	47 28       	jnc	$+144    	;abs 0x1fb8
    1f2a:	31 2c       	jc	$+100    	;abs 0x1f8e
    1f2c:	32 29       	jnc	$+614    	;abs 0x2192
    1f2e:	00 55       	add	r5,	r0	
    1f30:	43 41       	.word	0x4143;	????	Illegal as 2-op instr
    1f32:	31 42       	mov	#8,	r1	;r2 As==11
    1f34:	52 30       	jn	$+166    	;abs 0x1fda
    1f36:	3a 47       	mov	@r7+,	r10	
    1f38:	28 31       	jn	$+594    	;abs 0x218a
    1f3a:	2c 32       	jn	$-934    	;abs 0x1b94
    1f3c:	29 00 55 43 	mova	&0x04355,r9	
    1f40:	41 31       	jn	$+644    	;abs 0x21c4
    1f42:	42 52       	rla.b	r2		
    1f44:	31 3a       	jl	$-924    	;abs 0x1ba8
    1f46:	47 28       	jnc	$+144    	;abs 0x1fd6
    1f48:	31 2c       	jc	$+100    	;abs 0x1fac
    1f4a:	32 29       	jnc	$+614    	;abs 0x21b0
    1f4c:	00 55       	add	r5,	r0	
    1f4e:	43 41       	.word	0x4143;	????	Illegal as 2-op instr
    1f50:	31 4d       	mov	@r13+,	r1	
    1f52:	43 54       	.word	0x5443;	????	Illegal as 2-op instr
    1f54:	4c 3a       	jl	$-870    	;abs 0x1bee
    1f56:	47 28       	jnc	$+144    	;abs 0x1fe6
    1f58:	31 2c       	jc	$+100    	;abs 0x1fbc
    1f5a:	32 29       	jnc	$+614    	;abs 0x21c0
    1f5c:	00 55       	add	r5,	r0	
    1f5e:	43 41       	.word	0x4143;	????	Illegal as 2-op instr
    1f60:	31 53       	add	#-1,	r1	;r3 As==11
    1f62:	54 41 54 3a 	mov.b	14932(r1),r4	;0x3a54(r1)
    1f66:	47 28       	jnc	$+144    	;abs 0x1ff6
    1f68:	31 2c       	jc	$+100    	;abs 0x1fcc
    1f6a:	32 29       	jnc	$+614    	;abs 0x21d0
    1f6c:	00 55       	add	r5,	r0	
    1f6e:	43 41       	.word	0x4143;	????	Illegal as 2-op instr
    1f70:	31 52       	add	#8,	r1	;r2 As==11
    1f72:	58 42 55 46 	mov.b	&0x4655,r8	
    1f76:	3a 47       	mov	@r7+,	r10	
    1f78:	28 31       	jn	$+594    	;abs 0x21ca
    1f7a:	2c 32       	jn	$-934    	;abs 0x1bd4
    1f7c:	29 00 55 43 	mova	&0x04355,r9	
    1f80:	41 31       	jn	$+644    	;abs 0x2204
    1f82:	54 58 42 55 	add.b	21826(r8),r4	;0x5542(r8)
    1f86:	46 3a       	jl	$-882    	;abs 0x1c14
    1f88:	47 28       	jnc	$+144    	;abs 0x2018
    1f8a:	31 2c       	jc	$+100    	;abs 0x1fee
    1f8c:	32 29       	jnc	$+614    	;abs 0x21f2
    1f8e:	00 55       	add	r5,	r0	
    1f90:	43 41       	.word	0x4143;	????	Illegal as 2-op instr
    1f92:	31 41       	pop	r1		
    1f94:	42 43       	clr.b	r2		
    1f96:	54 4c 3a 47 	mov.b	18234(r12),r4	;0x473a(r12)
    1f9a:	28 31       	jn	$+594    	;abs 0x21ec
    1f9c:	2c 32       	jn	$-934    	;abs 0x1bf6
    1f9e:	29 00 55 43 	mova	&0x04355,r9	
    1fa2:	41 31       	jn	$+644    	;abs 0x2226
    1fa4:	49 52       	add.b	r2,	r9	
    1fa6:	54 43       	mov.b	#1,	r4	;r3 As==01
    1fa8:	54 4c 3a 47 	mov.b	18234(r12),r4	;0x473a(r12)
    1fac:	28 31       	jn	$+594    	;abs 0x21fe
    1fae:	2c 32       	jn	$-934    	;abs 0x1c08
    1fb0:	29 00 55 43 	mova	&0x04355,r9	
    1fb4:	41 31       	jn	$+644    	;abs 0x2238
    1fb6:	49 52       	add.b	r2,	r9	
    1fb8:	52 43       	mov.b	#1,	r2	;r3 As==01
    1fba:	54 4c 3a 47 	mov.b	18234(r12),r4	;0x473a(r12)
    1fbe:	28 31       	jn	$+594    	;abs 0x2210
    1fc0:	2c 32       	jn	$-934    	;abs 0x1c1a
    1fc2:	29 00 55 43 	mova	&0x04355,r9	
    1fc6:	42 31       	jn	$+646    	;abs 0x224c
    1fc8:	43 54       	.word	0x5443;	????	Illegal as 2-op instr
    1fca:	4c 30       	jn	$+154    	;abs 0x2064
    1fcc:	3a 47       	mov	@r7+,	r10	
    1fce:	28 31       	jn	$+594    	;abs 0x2220
    1fd0:	2c 32       	jn	$-934    	;abs 0x1c2a
    1fd2:	29 00 55 43 	mova	&0x04355,r9	
    1fd6:	42 31       	jn	$+646    	;abs 0x225c
    1fd8:	43 54       	.word	0x5443;	????	Illegal as 2-op instr
    1fda:	4c 31       	jn	$+666    	;abs 0x2274
    1fdc:	3a 47       	mov	@r7+,	r10	
    1fde:	28 31       	jn	$+594    	;abs 0x2230
    1fe0:	2c 32       	jn	$-934    	;abs 0x1c3a
    1fe2:	29 00 55 43 	mova	&0x04355,r9	
    1fe6:	42 31       	jn	$+646    	;abs 0x226c
    1fe8:	42 52       	rla.b	r2		
    1fea:	30 3a       	jl	$-926    	;abs 0x1c4c
    1fec:	47 28       	jnc	$+144    	;abs 0x207c
    1fee:	31 2c       	jc	$+100    	;abs 0x2052
    1ff0:	32 29       	jnc	$+614    	;abs 0x2256
    1ff2:	00 55       	add	r5,	r0	
    1ff4:	43 42       	.word	0x4243;	????	Illegal as 2-op instr
    1ff6:	31 42       	mov	#8,	r1	;r2 As==11
    1ff8:	52 31       	jn	$+678    	;abs 0x229e
    1ffa:	3a 47       	mov	@r7+,	r10	
    1ffc:	28 31       	jn	$+594    	;abs 0x224e
    1ffe:	2c 32       	jn	$-934    	;abs 0x1c58
    2000:	29 00 55 43 	mova	&0x04355,r9	
    2004:	42 31       	jn	$+646    	;abs 0x228a
    2006:	49 32       	jn	$-876    	;abs 0x1c9a
    2008:	43 49       	.word	0x4943;	????	Illegal as 2-op instr
    200a:	45 3a       	jl	$-884    	;abs 0x1c96
    200c:	47 28       	jnc	$+144    	;abs 0x209c
    200e:	31 2c       	jc	$+100    	;abs 0x2072
    2010:	32 29       	jnc	$+614    	;abs 0x2276
    2012:	00 55       	add	r5,	r0	
    2014:	43 42       	.word	0x4243;	????	Illegal as 2-op instr
    2016:	31 53       	add	#-1,	r1	;r3 As==11
    2018:	54 41 54 3a 	mov.b	14932(r1),r4	;0x3a54(r1)
    201c:	47 28       	jnc	$+144    	;abs 0x20ac
    201e:	31 2c       	jc	$+100    	;abs 0x2082
    2020:	32 29       	jnc	$+614    	;abs 0x2286
    2022:	00 55       	add	r5,	r0	
    2024:	43 42       	.word	0x4243;	????	Illegal as 2-op instr
    2026:	31 52       	add	#8,	r1	;r2 As==11
    2028:	58 42 55 46 	mov.b	&0x4655,r8	
    202c:	3a 47       	mov	@r7+,	r10	
    202e:	28 31       	jn	$+594    	;abs 0x2280
    2030:	2c 32       	jn	$-934    	;abs 0x1c8a
    2032:	29 00 55 43 	mova	&0x04355,r9	
    2036:	42 31       	jn	$+646    	;abs 0x22bc
    2038:	54 58 42 55 	add.b	21826(r8),r4	;0x5542(r8)
    203c:	46 3a       	jl	$-882    	;abs 0x1cca
    203e:	47 28       	jnc	$+144    	;abs 0x20ce
    2040:	31 2c       	jc	$+100    	;abs 0x20a4
    2042:	32 29       	jnc	$+614    	;abs 0x22a8
    2044:	00 55       	add	r5,	r0	
    2046:	43 42       	.word	0x4243;	????	Illegal as 2-op instr
    2048:	31 49       	mov	@r9+,	r1	
    204a:	32 43       	mov	#-1,	r2	;r3 As==11
    204c:	4f 41       	mov.b	r1,	r15	
    204e:	3a 47       	mov	@r7+,	r10	
    2050:	28 31       	jn	$+594    	;abs 0x22a2
    2052:	36 2c       	jc	$+110    	;abs 0x20c0
    2054:	38 29       	jnc	$+626    	;abs 0x22c6
    2056:	00 55       	add	r5,	r0	
    2058:	43 42       	.word	0x4243;	????	Illegal as 2-op instr
    205a:	31 49       	mov	@r9+,	r1	
    205c:	32 43       	mov	#-1,	r2	;r3 As==11
    205e:	53 41       	.word	0x4153;	????	Illegal as 2-op instr
    2060:	3a 47       	mov	@r7+,	r10	
    2062:	28 31       	jn	$+594    	;abs 0x22b4
    2064:	36 2c       	jc	$+110    	;abs 0x20d2
    2066:	38 29       	jnc	$+626    	;abs 0x22d8
    2068:	00 55       	add	r5,	r0	
    206a:	43 31       	jn	$+648    	;abs 0x22f2
    206c:	49 45       	mov.b	r5,	r9	
    206e:	3a 47       	mov	@r7+,	r10	
    2070:	28 31       	jn	$+594    	;abs 0x22c2
    2072:	2c 32       	jn	$-934    	;abs 0x1ccc
    2074:	29 00 55 43 	mova	&0x04355,r9	
    2078:	31 49       	mov	@r9+,	r1	
    207a:	46 47       	mov.b	r7,	r6	
    207c:	3a 47       	mov	@r7+,	r10	
    207e:	28 31       	jn	$+594    	;abs 0x22d0
    2080:	2c 32       	jn	$-934    	;abs 0x1cda
    2082:	29 00 54 41 	mova	&0x04154,r9	
    2086:	30 49       	br	@r9+		
    2088:	56 3a       	jl	$-850    	;abs 0x1d36
    208a:	47 28       	jnc	$+144    	;abs 0x211a
    208c:	31 36       	jge	$-924    	;abs 0x1cf0
    208e:	2c 38       	jl	$+90     	;abs 0x20e8
    2090:	29 00 54 41 	mova	&0x04154,r9	
    2094:	30 43       	br	#-1		;r3 As==11
    2096:	54 4c 3a 47 	mov.b	18234(r12),r4	;0x473a(r12)
    209a:	28 31       	jn	$+594    	;abs 0x22ec
    209c:	36 2c       	jc	$+110    	;abs 0x210a
    209e:	38 29       	jnc	$+626    	;abs 0x2310
    20a0:	00 54       	add	r4,	r0	
    20a2:	41 30       	jn	$+132    	;abs 0x2126
    20a4:	52 3a       	jl	$-858    	;abs 0x1d4a
    20a6:	47 28       	jnc	$+144    	;abs 0x2136
    20a8:	31 36       	jge	$-924    	;abs 0x1d0c
    20aa:	2c 38       	jl	$+90     	;abs 0x2104
    20ac:	29 00 54 41 	mova	&0x04154,r9	
    20b0:	30 43       	br	#-1		;r3 As==11
    20b2:	43 54       	.word	0x5443;	????	Illegal as 2-op instr
    20b4:	4c 30       	jn	$+154    	;abs 0x214e
    20b6:	3a 47       	mov	@r7+,	r10	
    20b8:	28 31       	jn	$+594    	;abs 0x230a
    20ba:	36 2c       	jc	$+110    	;abs 0x2128
    20bc:	38 29       	jnc	$+626    	;abs 0x232e
    20be:	00 54       	add	r4,	r0	
    20c0:	41 30       	jn	$+132    	;abs 0x2144
    20c2:	43 43       	clr.b	#0		;r3 As==00
    20c4:	54 4c 31 3a 	mov.b	14897(r12),r4	;0x3a31(r12)
    20c8:	47 28       	jnc	$+144    	;abs 0x2158
    20ca:	31 36       	jge	$-924    	;abs 0x1d2e
    20cc:	2c 38       	jl	$+90     	;abs 0x2126
    20ce:	29 00 54 41 	mova	&0x04154,r9	
    20d2:	30 43       	br	#-1		;r3 As==11
    20d4:	43 52       	.word	0x5243;	????	Illegal as 2-op instr
    20d6:	30 3a       	jl	$-926    	;abs 0x1d38
    20d8:	47 28       	jnc	$+144    	;abs 0x2168
    20da:	31 36       	jge	$-924    	;abs 0x1d3e
    20dc:	2c 38       	jl	$+90     	;abs 0x2136
    20de:	29 00 54 41 	mova	&0x04154,r9	
    20e2:	30 43       	br	#-1		;r3 As==11
    20e4:	43 52       	.word	0x5243;	????	Illegal as 2-op instr
    20e6:	31 3a       	jl	$-924    	;abs 0x1d4a
    20e8:	47 28       	jnc	$+144    	;abs 0x2178
    20ea:	31 36       	jge	$-924    	;abs 0x1d4e
    20ec:	2c 38       	jl	$+90     	;abs 0x2146
    20ee:	29 00 54 41 	mova	&0x04154,r9	
    20f2:	30 43       	br	#-1		;r3 As==11
    20f4:	43 54       	.word	0x5443;	????	Illegal as 2-op instr
    20f6:	4c 32       	jn	$-870    	;abs 0x1d90
    20f8:	3a 47       	mov	@r7+,	r10	
    20fa:	28 31       	jn	$+594    	;abs 0x234c
    20fc:	36 2c       	jc	$+110    	;abs 0x216a
    20fe:	38 29       	jnc	$+626    	;abs 0x2370
    2100:	00 54       	add	r4,	r0	
    2102:	41 30       	jn	$+132    	;abs 0x2186
    2104:	43 43       	clr.b	#0		;r3 As==00
    2106:	52 32       	jn	$-858    	;abs 0x1dac
    2108:	3a 47       	mov	@r7+,	r10	
    210a:	28 31       	jn	$+594    	;abs 0x235c
    210c:	36 2c       	jc	$+110    	;abs 0x217a
    210e:	38 29       	jnc	$+626    	;abs 0x2380
    2110:	00 74       	subc	r4,	r0	
    2112:	69 6d       	addc.b	@r13,	r9	
    2114:	65 72       	subc.b	#4,	r5	;r2 As==10
    2116:	61 3a       	jl	$-828    	;abs 0x1dda
    2118:	47 28       	jnc	$+144    	;abs 0x21a8
    211a:	31 36       	jge	$-924    	;abs 0x1d7e
    211c:	2c 35       	jge	$+602    	;abs 0x2376
    211e:	29 00 54 42 	mova	&0x04254,r9	
    2122:	49 56       	add.b	r6,	r9	
    2124:	3a 47       	mov	@r7+,	r10	
    2126:	28 31       	jn	$+594    	;abs 0x2378
    2128:	36 2c       	jc	$+110    	;abs 0x2196
    212a:	38 29       	jnc	$+626    	;abs 0x239c
    212c:	00 54       	add	r4,	r0	
    212e:	42 43       	clr.b	r2		
    2130:	54 4c 3a 47 	mov.b	18234(r12),r4	;0x473a(r12)
    2134:	28 31       	jn	$+594    	;abs 0x2386
    2136:	36 2c       	jc	$+110    	;abs 0x21a4
    2138:	38 29       	jnc	$+626    	;abs 0x23aa
    213a:	00 54       	add	r4,	r0	
    213c:	42 52       	rla.b	r2		
    213e:	3a 47       	mov	@r7+,	r10	
    2140:	28 31       	jn	$+594    	;abs 0x2392
    2142:	36 2c       	jc	$+110    	;abs 0x21b0
    2144:	38 29       	jnc	$+626    	;abs 0x23b6
    2146:	00 54       	add	r4,	r0	
    2148:	42 43       	clr.b	r2		
    214a:	43 54       	.word	0x5443;	????	Illegal as 2-op instr
    214c:	4c 30       	jn	$+154    	;abs 0x21e6
    214e:	3a 47       	mov	@r7+,	r10	
    2150:	28 31       	jn	$+594    	;abs 0x23a2
    2152:	36 2c       	jc	$+110    	;abs 0x21c0
    2154:	38 29       	jnc	$+626    	;abs 0x23c6
    2156:	00 54       	add	r4,	r0	
    2158:	42 43       	clr.b	r2		
    215a:	43 54       	.word	0x5443;	????	Illegal as 2-op instr
    215c:	4c 31       	jn	$+666    	;abs 0x23f6
    215e:	3a 47       	mov	@r7+,	r10	
    2160:	28 31       	jn	$+594    	;abs 0x23b2
    2162:	36 2c       	jc	$+110    	;abs 0x21d0
    2164:	38 29       	jnc	$+626    	;abs 0x23d6
    2166:	00 54       	add	r4,	r0	
    2168:	42 43       	clr.b	r2		
    216a:	43 54       	.word	0x5443;	????	Illegal as 2-op instr
    216c:	4c 32       	jn	$-870    	;abs 0x1e06
    216e:	3a 47       	mov	@r7+,	r10	
    2170:	28 31       	jn	$+594    	;abs 0x23c2
    2172:	36 2c       	jc	$+110    	;abs 0x21e0
    2174:	38 29       	jnc	$+626    	;abs 0x23e6
    2176:	00 54       	add	r4,	r0	
    2178:	42 43       	clr.b	r2		
    217a:	43 52       	.word	0x5243;	????	Illegal as 2-op instr
    217c:	30 3a       	jl	$-926    	;abs 0x1dde
    217e:	47 28       	jnc	$+144    	;abs 0x220e
    2180:	31 36       	jge	$-924    	;abs 0x1de4
    2182:	2c 38       	jl	$+90     	;abs 0x21dc
    2184:	29 00 54 42 	mova	&0x04254,r9	
    2188:	43 43       	clr.b	#0		;r3 As==00
    218a:	52 31       	jn	$+678    	;abs 0x2430
    218c:	3a 47       	mov	@r7+,	r10	
    218e:	28 31       	jn	$+594    	;abs 0x23e0
    2190:	36 2c       	jc	$+110    	;abs 0x21fe
    2192:	38 29       	jnc	$+626    	;abs 0x2404
    2194:	00 54       	add	r4,	r0	
    2196:	42 43       	clr.b	r2		
    2198:	43 52       	.word	0x5243;	????	Illegal as 2-op instr
    219a:	32 3a       	jl	$-922    	;abs 0x1e00
    219c:	47 28       	jnc	$+144    	;abs 0x222c
    219e:	31 36       	jge	$-924    	;abs 0x1e02
    21a0:	2c 38       	jl	$+90     	;abs 0x21fa
    21a2:	29 00 54 42 	mova	&0x04254,r9	
    21a6:	43 43       	clr.b	#0		;r3 As==00
    21a8:	54 4c 33 3a 	mov.b	14899(r12),r4	;0x3a33(r12)
    21ac:	47 28       	jnc	$+144    	;abs 0x223c
    21ae:	31 36       	jge	$-924    	;abs 0x1e12
    21b0:	2c 38       	jl	$+90     	;abs 0x220a
    21b2:	29 00 54 42 	mova	&0x04254,r9	
    21b6:	43 43       	clr.b	#0		;r3 As==00
    21b8:	54 4c 34 3a 	mov.b	14900(r12),r4	;0x3a34(r12)
    21bc:	47 28       	jnc	$+144    	;abs 0x224c
    21be:	31 36       	jge	$-924    	;abs 0x1e22
    21c0:	2c 38       	jl	$+90     	;abs 0x221a
    21c2:	29 00 54 42 	mova	&0x04254,r9	
    21c6:	43 43       	clr.b	#0		;r3 As==00
    21c8:	54 4c 35 3a 	mov.b	14901(r12),r4	;0x3a35(r12)
    21cc:	47 28       	jnc	$+144    	;abs 0x225c
    21ce:	31 36       	jge	$-924    	;abs 0x1e32
    21d0:	2c 38       	jl	$+90     	;abs 0x222a
    21d2:	29 00 54 42 	mova	&0x04254,r9	
    21d6:	43 43       	clr.b	#0		;r3 As==00
    21d8:	54 4c 36 3a 	mov.b	14902(r12),r4	;0x3a36(r12)
    21dc:	47 28       	jnc	$+144    	;abs 0x226c
    21de:	31 36       	jge	$-924    	;abs 0x1e42
    21e0:	2c 38       	jl	$+90     	;abs 0x223a
    21e2:	29 00 54 42 	mova	&0x04254,r9	
    21e6:	43 43       	clr.b	#0		;r3 As==00
    21e8:	52 33       	jn	$-346    	;abs 0x208e
    21ea:	3a 47       	mov	@r7+,	r10	
    21ec:	28 31       	jn	$+594    	;abs 0x243e
    21ee:	36 2c       	jc	$+110    	;abs 0x225c
    21f0:	38 29       	jnc	$+626    	;abs 0x2462
    21f2:	00 54       	add	r4,	r0	
    21f4:	42 43       	clr.b	r2		
    21f6:	43 52       	.word	0x5243;	????	Illegal as 2-op instr
    21f8:	34 3a       	jl	$-918    	;abs 0x1e62
    21fa:	47 28       	jnc	$+144    	;abs 0x228a
    21fc:	31 36       	jge	$-924    	;abs 0x1e60
    21fe:	2c 38       	jl	$+90     	;abs 0x2258
    2200:	29 00 54 42 	mova	&0x04254,r9	
    2204:	43 43       	clr.b	#0		;r3 As==00
    2206:	52 35       	jge	$+678    	;abs 0x24ac
    2208:	3a 47       	mov	@r7+,	r10	
    220a:	28 31       	jn	$+594    	;abs 0x245c
    220c:	36 2c       	jc	$+110    	;abs 0x227a
    220e:	38 29       	jnc	$+626    	;abs 0x2480
    2210:	00 54       	add	r4,	r0	
    2212:	42 43       	clr.b	r2		
    2214:	43 52       	.word	0x5243;	????	Illegal as 2-op instr
    2216:	36 3a       	jl	$-914    	;abs 0x1e84
    2218:	47 28       	jnc	$+144    	;abs 0x22a8
    221a:	31 36       	jge	$-924    	;abs 0x1e7e
    221c:	2c 38       	jl	$+90     	;abs 0x2276
    221e:	29 00 74 69 	mova	&0x06974,r9	
    2222:	6d 65       	addc.b	@r5,	r13	
    2224:	72 62       	addc.b	#8,	r2	;r2 As==11
    2226:	3a 47       	mov	@r7+,	r10	
    2228:	28 31       	jn	$+594    	;abs 0x247a
    222a:	37 2c       	jc	$+112    	;abs 0x229a
    222c:	35 29       	jnc	$+620    	;abs 0x2498
    222e:	00 44       	br	r4		
    2230:	43 4f       	.word	0x4f43;	????	Illegal as 2-op instr
    2232:	43 54       	.word	0x5443;	????	Illegal as 2-op instr
    2234:	4c 3a       	jl	$-870    	;abs 0x1ece
    2236:	47 28       	jnc	$+144    	;abs 0x22c6
    2238:	31 2c       	jc	$+100    	;abs 0x229c
    223a:	32 29       	jnc	$+614    	;abs 0x24a0
    223c:	00 42       	br	r2		
    223e:	43 53       	.word	0x5343;	????	Illegal as emulation instr
    2240:	43 54       	.word	0x5443;	????	Illegal as 2-op instr
    2242:	4c 31       	jn	$+666    	;abs 0x24dc
    2244:	3a 47       	mov	@r7+,	r10	
    2246:	28 31       	jn	$+594    	;abs 0x2498
    2248:	2c 32       	jn	$-934    	;abs 0x1ea2
    224a:	29 00 42 43 	mova	&0x04342,r9	
    224e:	53 43       	.word	0x4353;	????	Illegal as 2-op instr
    2250:	54 4c 32 3a 	mov.b	14898(r12),r4	;0x3a32(r12)
    2254:	47 28       	jnc	$+144    	;abs 0x22e4
    2256:	31 2c       	jc	$+100    	;abs 0x22ba
    2258:	32 29       	jnc	$+614    	;abs 0x24be
    225a:	00 42       	br	r2		
    225c:	43 53       	.word	0x5343;	????	Illegal as emulation instr
    225e:	43 54       	.word	0x5443;	????	Illegal as 2-op instr
    2260:	4c 33       	jn	$-358    	;abs 0x20fa
    2262:	3a 47       	mov	@r7+,	r10	
    2264:	28 31       	jn	$+594    	;abs 0x24b6
    2266:	2c 32       	jn	$-934    	;abs 0x1ec0
    2268:	29 00 46 43 	mova	&0x04346,r9	
    226c:	54 4c 31 3a 	mov.b	14897(r12),r4	;0x3a31(r12)
    2270:	47 28       	jnc	$+144    	;abs 0x2300
    2272:	31 36       	jge	$-924    	;abs 0x1ed6
    2274:	2c 38       	jl	$+90     	;abs 0x22ce
    2276:	29 00 46 43 	mova	&0x04346,r9	
    227a:	54 4c 32 3a 	mov.b	14898(r12),r4	;0x3a32(r12)
    227e:	47 28       	jnc	$+144    	;abs 0x230e
    2280:	31 36       	jge	$-924    	;abs 0x1ee4
    2282:	2c 38       	jl	$+90     	;abs 0x22dc
    2284:	29 00 46 43 	mova	&0x04346,r9	
    2288:	54 4c 33 3a 	mov.b	14899(r12),r4	;0x3a33(r12)
    228c:	47 28       	jnc	$+144    	;abs 0x231c
    228e:	31 36       	jge	$-924    	;abs 0x1ef2
    2290:	2c 38       	jl	$+90     	;abs 0x22ea
    2292:	29 00 43 41 	mova	&0x04143,r9	
    2296:	43 54       	.word	0x5443;	????	Illegal as 2-op instr
    2298:	4c 31       	jn	$+666    	;abs 0x2532
    229a:	3a 47       	mov	@r7+,	r10	
    229c:	28 31       	jn	$+594    	;abs 0x24ee
    229e:	2c 32       	jn	$-934    	;abs 0x1ef8
    22a0:	29 00 43 41 	mova	&0x04143,r9	
    22a4:	43 54       	.word	0x5443;	????	Illegal as 2-op instr
    22a6:	4c 32       	jn	$-870    	;abs 0x1f40
    22a8:	3a 47       	mov	@r7+,	r10	
    22aa:	28 31       	jn	$+594    	;abs 0x24fc
    22ac:	2c 32       	jn	$-934    	;abs 0x1f06
    22ae:	29 00 43 41 	mova	&0x04143,r9	
    22b2:	50 44 3a 47 	br	18234(r4)	;0x473a(r4)
    22b6:	28 31       	jn	$+594    	;abs 0x2508
    22b8:	2c 32       	jn	$-934    	;abs 0x1f12
    22ba:	29 00 41 44 	mova	&0x04441,r9	
    22be:	43 31       	jn	$+648    	;abs 0x2546
    22c0:	32 43       	mov	#-1,	r2	;r3 As==11
    22c2:	54 4c 30 3a 	mov.b	14896(r12),r4	;0x3a30(r12)
    22c6:	47 28       	jnc	$+144    	;abs 0x2356
    22c8:	31 36       	jge	$-924    	;abs 0x1f2c
    22ca:	2c 38       	jl	$+90     	;abs 0x2324
    22cc:	29 00 41 44 	mova	&0x04441,r9	
    22d0:	43 31       	jn	$+648    	;abs 0x2558
    22d2:	32 43       	mov	#-1,	r2	;r3 As==11
    22d4:	54 4c 31 3a 	mov.b	14897(r12),r4	;0x3a31(r12)
    22d8:	47 28       	jnc	$+144    	;abs 0x2368
    22da:	31 36       	jge	$-924    	;abs 0x1f3e
    22dc:	2c 38       	jl	$+90     	;abs 0x2336
    22de:	29 00 41 44 	mova	&0x04441,r9	
    22e2:	43 31       	jn	$+648    	;abs 0x256a
    22e4:	32 49       	mov	@r9+,	r2	
    22e6:	46 47       	mov.b	r7,	r6	
    22e8:	3a 47       	mov	@r7+,	r10	
    22ea:	28 31       	jn	$+594    	;abs 0x253c
    22ec:	36 2c       	jc	$+110    	;abs 0x235a
    22ee:	38 29       	jnc	$+626    	;abs 0x2560
    22f0:	00 41       	br	r1		
    22f2:	44 43       	clr.b	r4		
    22f4:	31 32       	jn	$-924    	;abs 0x1f58
    22f6:	49 45       	mov.b	r5,	r9	
    22f8:	3a 47       	mov	@r7+,	r10	
    22fa:	28 31       	jn	$+594    	;abs 0x254c
    22fc:	36 2c       	jc	$+110    	;abs 0x236a
    22fe:	38 29       	jnc	$+626    	;abs 0x2570
    2300:	00 41       	br	r1		
    2302:	44 43       	clr.b	r4		
    2304:	31 32       	jn	$-924    	;abs 0x1f68
    2306:	49 56       	add.b	r6,	r9	
    2308:	3a 47       	mov	@r7+,	r10	
    230a:	28 31       	jn	$+594    	;abs 0x255c
    230c:	36 2c       	jc	$+110    	;abs 0x237a
    230e:	38 29       	jnc	$+626    	;abs 0x2580
    2310:	00 61       	addc	r1,	r0	
    2312:	64 63       	addc.b	#2,	r4	;r3 As==10
    2314:	31 32       	jn	$-924    	;abs 0x1f78
    2316:	3a 47       	mov	@r7+,	r10	
    2318:	28 32       	jn	$-942    	;abs 0x1f6a
    231a:	31 2c       	jc	$+100    	;abs 0x237e
    231c:	37 29       	jnc	$+624    	;abs 0x258c
    231e:	00 41       	br	r1		
    2320:	44 43       	clr.b	r4		
    2322:	31 32       	jn	$-924    	;abs 0x1f86
    2324:	4d 45       	mov.b	r5,	r13	
    2326:	4d 30       	jn	$+156    	;abs 0x23c2
    2328:	3a 47       	mov	@r7+,	r10	
    232a:	28 31       	jn	$+594    	;abs 0x257c
    232c:	36 2c       	jc	$+110    	;abs 0x239a
    232e:	38 29       	jnc	$+626    	;abs 0x25a0
    2330:	00 41       	br	r1		
    2332:	44 43       	clr.b	r4		
    2334:	31 32       	jn	$-924    	;abs 0x1f98
    2336:	4d 45       	mov.b	r5,	r13	
    2338:	4d 31       	jn	$+668    	;abs 0x25d4
    233a:	3a 47       	mov	@r7+,	r10	
    233c:	28 31       	jn	$+594    	;abs 0x258e
    233e:	36 2c       	jc	$+110    	;abs 0x23ac
    2340:	38 29       	jnc	$+626    	;abs 0x25b2
    2342:	00 41       	br	r1		
    2344:	44 43       	clr.b	r4		
    2346:	31 32       	jn	$-924    	;abs 0x1faa
    2348:	4d 45       	mov.b	r5,	r13	
    234a:	4d 32       	jn	$-868    	;abs 0x1fe6
    234c:	3a 47       	mov	@r7+,	r10	
    234e:	28 31       	jn	$+594    	;abs 0x25a0
    2350:	36 2c       	jc	$+110    	;abs 0x23be
    2352:	38 29       	jnc	$+626    	;abs 0x25c4
    2354:	00 41       	br	r1		
    2356:	44 43       	clr.b	r4		
    2358:	31 32       	jn	$-924    	;abs 0x1fbc
    235a:	4d 45       	mov.b	r5,	r13	
    235c:	4d 33       	jn	$-356    	;abs 0x21f8
    235e:	3a 47       	mov	@r7+,	r10	
    2360:	28 31       	jn	$+594    	;abs 0x25b2
    2362:	36 2c       	jc	$+110    	;abs 0x23d0
    2364:	38 29       	jnc	$+626    	;abs 0x25d6
    2366:	00 41       	br	r1		
    2368:	44 43       	clr.b	r4		
    236a:	31 32       	jn	$-924    	;abs 0x1fce
    236c:	4d 45       	mov.b	r5,	r13	
    236e:	4d 34       	jge	$+156    	;abs 0x240a
    2370:	3a 47       	mov	@r7+,	r10	
    2372:	28 31       	jn	$+594    	;abs 0x25c4
    2374:	36 2c       	jc	$+110    	;abs 0x23e2
    2376:	38 29       	jnc	$+626    	;abs 0x25e8
    2378:	00 41       	br	r1		
    237a:	44 43       	clr.b	r4		
    237c:	31 32       	jn	$-924    	;abs 0x1fe0
    237e:	4d 45       	mov.b	r5,	r13	
    2380:	4d 35       	jge	$+668    	;abs 0x261c
    2382:	3a 47       	mov	@r7+,	r10	
    2384:	28 31       	jn	$+594    	;abs 0x25d6
    2386:	36 2c       	jc	$+110    	;abs 0x23f4
    2388:	38 29       	jnc	$+626    	;abs 0x25fa
    238a:	00 41       	br	r1		
    238c:	44 43       	clr.b	r4		
    238e:	31 32       	jn	$-924    	;abs 0x1ff2
    2390:	4d 45       	mov.b	r5,	r13	
    2392:	4d 36       	jge	$-868    	;abs 0x202e
    2394:	3a 47       	mov	@r7+,	r10	
    2396:	28 31       	jn	$+594    	;abs 0x25e8
    2398:	36 2c       	jc	$+110    	;abs 0x2406
    239a:	38 29       	jnc	$+626    	;abs 0x260c
    239c:	00 41       	br	r1		
    239e:	44 43       	clr.b	r4		
    23a0:	31 32       	jn	$-924    	;abs 0x2004
    23a2:	4d 45       	mov.b	r5,	r13	
    23a4:	4d 37       	jge	$-356    	;abs 0x2240
    23a6:	3a 47       	mov	@r7+,	r10	
    23a8:	28 31       	jn	$+594    	;abs 0x25fa
    23aa:	36 2c       	jc	$+110    	;abs 0x2418
    23ac:	38 29       	jnc	$+626    	;abs 0x261e
    23ae:	00 41       	br	r1		
    23b0:	44 43       	clr.b	r4		
    23b2:	31 32       	jn	$-924    	;abs 0x2016
    23b4:	4d 45       	mov.b	r5,	r13	
    23b6:	4d 38       	jl	$+156    	;abs 0x2452
    23b8:	3a 47       	mov	@r7+,	r10	
    23ba:	28 31       	jn	$+594    	;abs 0x260c
    23bc:	36 2c       	jc	$+110    	;abs 0x242a
    23be:	38 29       	jnc	$+626    	;abs 0x2630
    23c0:	00 41       	br	r1		
    23c2:	44 43       	clr.b	r4		
    23c4:	31 32       	jn	$-924    	;abs 0x2028
    23c6:	4d 45       	mov.b	r5,	r13	
    23c8:	4d 39       	jl	$+668    	;abs 0x2664
    23ca:	3a 47       	mov	@r7+,	r10	
    23cc:	28 31       	jn	$+594    	;abs 0x261e
    23ce:	36 2c       	jc	$+110    	;abs 0x243c
    23d0:	38 29       	jnc	$+626    	;abs 0x2642
    23d2:	00 41       	br	r1		
    23d4:	44 43       	clr.b	r4		
    23d6:	31 32       	jn	$-924    	;abs 0x203a
    23d8:	4d 45       	mov.b	r5,	r13	
    23da:	4d 31       	jn	$+668    	;abs 0x2676
    23dc:	30 3a       	jl	$-926    	;abs 0x203e
    23de:	47 28       	jnc	$+144    	;abs 0x246e
    23e0:	31 36       	jge	$-924    	;abs 0x2044
    23e2:	2c 38       	jl	$+90     	;abs 0x243c
    23e4:	29 00 41 44 	mova	&0x04441,r9	
    23e8:	43 31       	jn	$+648    	;abs 0x2670
    23ea:	32 4d       	mov	@r13+,	r2	
    23ec:	45 4d       	mov.b	r13,	r5	
    23ee:	31 31       	jn	$+612    	;abs 0x2652
    23f0:	3a 47       	mov	@r7+,	r10	
    23f2:	28 31       	jn	$+594    	;abs 0x2644
    23f4:	36 2c       	jc	$+110    	;abs 0x2462
    23f6:	38 29       	jnc	$+626    	;abs 0x2668
    23f8:	00 41       	br	r1		
    23fa:	44 43       	clr.b	r4		
    23fc:	31 32       	jn	$-924    	;abs 0x2060
    23fe:	4d 45       	mov.b	r5,	r13	
    2400:	4d 31       	jn	$+668    	;abs 0x269c
    2402:	32 3a       	jl	$-922    	;abs 0x2068
    2404:	47 28       	jnc	$+144    	;abs 0x2494
    2406:	31 36       	jge	$-924    	;abs 0x206a
    2408:	2c 38       	jl	$+90     	;abs 0x2462
    240a:	29 00 41 44 	mova	&0x04441,r9	
    240e:	43 31       	jn	$+648    	;abs 0x2696
    2410:	32 4d       	mov	@r13+,	r2	
    2412:	45 4d       	mov.b	r13,	r5	
    2414:	31 33       	jn	$-412    	;abs 0x2278
    2416:	3a 47       	mov	@r7+,	r10	
    2418:	28 31       	jn	$+594    	;abs 0x266a
    241a:	36 2c       	jc	$+110    	;abs 0x2488
    241c:	38 29       	jnc	$+626    	;abs 0x268e
    241e:	00 41       	br	r1		
    2420:	44 43       	clr.b	r4		
    2422:	31 32       	jn	$-924    	;abs 0x2086
    2424:	4d 45       	mov.b	r5,	r13	
    2426:	4d 31       	jn	$+668    	;abs 0x26c2
    2428:	34 3a       	jl	$-918    	;abs 0x2092
    242a:	47 28       	jnc	$+144    	;abs 0x24ba
    242c:	31 36       	jge	$-924    	;abs 0x2090
    242e:	2c 38       	jl	$+90     	;abs 0x2488
    2430:	29 00 41 44 	mova	&0x04441,r9	
    2434:	43 31       	jn	$+648    	;abs 0x26bc
    2436:	32 4d       	mov	@r13+,	r2	
    2438:	45 4d       	mov.b	r13,	r5	
    243a:	31 35       	jge	$+612    	;abs 0x269e
    243c:	3a 47       	mov	@r7+,	r10	
    243e:	28 31       	jn	$+594    	;abs 0x2690
    2440:	36 2c       	jc	$+110    	;abs 0x24ae
    2442:	38 29       	jnc	$+626    	;abs 0x26b4
    2444:	00 41       	br	r1		
    2446:	44 43       	clr.b	r4		
    2448:	31 32       	jn	$-924    	;abs 0x20ac
    244a:	4d 43       	clr.b	r13		
    244c:	54 4c 30 3a 	mov.b	14896(r12),r4	;0x3a30(r12)
    2450:	47 28       	jnc	$+144    	;abs 0x24e0
    2452:	31 2c       	jc	$+100    	;abs 0x24b6
    2454:	32 29       	jnc	$+614    	;abs 0x26ba
    2456:	00 41       	br	r1		
    2458:	44 43       	clr.b	r4		
    245a:	31 32       	jn	$-924    	;abs 0x20be
    245c:	4d 43       	clr.b	r13		
    245e:	54 4c 31 3a 	mov.b	14897(r12),r4	;0x3a31(r12)
    2462:	47 28       	jnc	$+144    	;abs 0x24f2
    2464:	31 2c       	jc	$+100    	;abs 0x24c8
    2466:	32 29       	jnc	$+614    	;abs 0x26cc
    2468:	00 41       	br	r1		
    246a:	44 43       	clr.b	r4		
    246c:	31 32       	jn	$-924    	;abs 0x20d0
    246e:	4d 43       	clr.b	r13		
    2470:	54 4c 32 3a 	mov.b	14898(r12),r4	;0x3a32(r12)
    2474:	47 28       	jnc	$+144    	;abs 0x2504
    2476:	31 2c       	jc	$+100    	;abs 0x24da
    2478:	32 29       	jnc	$+614    	;abs 0x26de
    247a:	00 41       	br	r1		
    247c:	44 43       	clr.b	r4		
    247e:	31 32       	jn	$-924    	;abs 0x20e2
    2480:	4d 43       	clr.b	r13		
    2482:	54 4c 33 3a 	mov.b	14899(r12),r4	;0x3a33(r12)
    2486:	47 28       	jnc	$+144    	;abs 0x2516
    2488:	31 2c       	jc	$+100    	;abs 0x24ec
    248a:	32 29       	jnc	$+614    	;abs 0x26f0
    248c:	00 41       	br	r1		
    248e:	44 43       	clr.b	r4		
    2490:	31 32       	jn	$-924    	;abs 0x20f4
    2492:	4d 43       	clr.b	r13		
    2494:	54 4c 34 3a 	mov.b	14900(r12),r4	;0x3a34(r12)
    2498:	47 28       	jnc	$+144    	;abs 0x2528
    249a:	31 2c       	jc	$+100    	;abs 0x24fe
    249c:	32 29       	jnc	$+614    	;abs 0x2702
    249e:	00 41       	br	r1		
    24a0:	44 43       	clr.b	r4		
    24a2:	31 32       	jn	$-924    	;abs 0x2106
    24a4:	4d 43       	clr.b	r13		
    24a6:	54 4c 35 3a 	mov.b	14901(r12),r4	;0x3a35(r12)
    24aa:	47 28       	jnc	$+144    	;abs 0x253a
    24ac:	31 2c       	jc	$+100    	;abs 0x2510
    24ae:	32 29       	jnc	$+614    	;abs 0x2714
    24b0:	00 41       	br	r1		
    24b2:	44 43       	clr.b	r4		
    24b4:	31 32       	jn	$-924    	;abs 0x2118
    24b6:	4d 43       	clr.b	r13		
    24b8:	54 4c 36 3a 	mov.b	14902(r12),r4	;0x3a36(r12)
    24bc:	47 28       	jnc	$+144    	;abs 0x254c
    24be:	31 2c       	jc	$+100    	;abs 0x2522
    24c0:	32 29       	jnc	$+614    	;abs 0x2726
    24c2:	00 41       	br	r1		
    24c4:	44 43       	clr.b	r4		
    24c6:	31 32       	jn	$-924    	;abs 0x212a
    24c8:	4d 43       	clr.b	r13		
    24ca:	54 4c 37 3a 	mov.b	14903(r12),r4	;0x3a37(r12)
    24ce:	47 28       	jnc	$+144    	;abs 0x255e
    24d0:	31 2c       	jc	$+100    	;abs 0x2534
    24d2:	32 29       	jnc	$+614    	;abs 0x2738
    24d4:	00 41       	br	r1		
    24d6:	44 43       	clr.b	r4		
    24d8:	31 32       	jn	$-924    	;abs 0x213c
    24da:	4d 43       	clr.b	r13		
    24dc:	54 4c 38 3a 	mov.b	14904(r12),r4	;0x3a38(r12)
    24e0:	47 28       	jnc	$+144    	;abs 0x2570
    24e2:	31 2c       	jc	$+100    	;abs 0x2546
    24e4:	32 29       	jnc	$+614    	;abs 0x274a
    24e6:	00 41       	br	r1		
    24e8:	44 43       	clr.b	r4		
    24ea:	31 32       	jn	$-924    	;abs 0x214e
    24ec:	4d 43       	clr.b	r13		
    24ee:	54 4c 39 3a 	mov.b	14905(r12),r4	;0x3a39(r12)
    24f2:	47 28       	jnc	$+144    	;abs 0x2582
    24f4:	31 2c       	jc	$+100    	;abs 0x2558
    24f6:	32 29       	jnc	$+614    	;abs 0x275c
    24f8:	00 41       	br	r1		
    24fa:	44 43       	clr.b	r4		
    24fc:	31 32       	jn	$-924    	;abs 0x2160
    24fe:	4d 43       	clr.b	r13		
    2500:	54 4c 31 30 	mov.b	12337(r12),r4	;0x3031(r12)
    2504:	3a 47       	mov	@r7+,	r10	
    2506:	28 31       	jn	$+594    	;abs 0x2758
    2508:	2c 32       	jn	$-934    	;abs 0x2162
    250a:	29 00 41 44 	mova	&0x04441,r9	
    250e:	43 31       	jn	$+648    	;abs 0x2796
    2510:	32 4d       	mov	@r13+,	r2	
    2512:	43 54       	.word	0x5443;	????	Illegal as 2-op instr
    2514:	4c 31       	jn	$+666    	;abs 0x27ae
    2516:	31 3a       	jl	$-924    	;abs 0x217a
    2518:	47 28       	jnc	$+144    	;abs 0x25a8
    251a:	31 2c       	jc	$+100    	;abs 0x257e
    251c:	32 29       	jnc	$+614    	;abs 0x2782
    251e:	00 41       	br	r1		
    2520:	44 43       	clr.b	r4		
    2522:	31 32       	jn	$-924    	;abs 0x2186
    2524:	4d 43       	clr.b	r13		
    2526:	54 4c 31 32 	mov.b	12849(r12),r4	;0x3231(r12)
    252a:	3a 47       	mov	@r7+,	r10	
    252c:	28 31       	jn	$+594    	;abs 0x277e
    252e:	2c 32       	jn	$-934    	;abs 0x2188
    2530:	29 00 41 44 	mova	&0x04441,r9	
    2534:	43 31       	jn	$+648    	;abs 0x27bc
    2536:	32 4d       	mov	@r13+,	r2	
    2538:	43 54       	.word	0x5443;	????	Illegal as 2-op instr
    253a:	4c 31       	jn	$+666    	;abs 0x27d4
    253c:	33 3a       	jl	$-920    	;abs 0x21a4
    253e:	47 28       	jnc	$+144    	;abs 0x25ce
    2540:	31 2c       	jc	$+100    	;abs 0x25a4
    2542:	32 29       	jnc	$+614    	;abs 0x27a8
    2544:	00 41       	br	r1		
    2546:	44 43       	clr.b	r4		
    2548:	31 32       	jn	$-924    	;abs 0x21ac
    254a:	4d 43       	clr.b	r13		
    254c:	54 4c 31 34 	mov.b	13361(r12),r4	;0x3431(r12)
    2550:	3a 47       	mov	@r7+,	r10	
    2552:	28 31       	jn	$+594    	;abs 0x27a4
    2554:	2c 32       	jn	$-934    	;abs 0x21ae
    2556:	29 00 41 44 	mova	&0x04441,r9	
    255a:	43 31       	jn	$+648    	;abs 0x27e2
    255c:	32 4d       	mov	@r13+,	r2	
    255e:	43 54       	.word	0x5443;	????	Illegal as 2-op instr
    2560:	4c 31       	jn	$+666    	;abs 0x27fa
    2562:	35 3a       	jl	$-916    	;abs 0x21ce
    2564:	47 28       	jnc	$+144    	;abs 0x25f4
    2566:	31 2c       	jc	$+100    	;abs 0x25ca
    2568:	32 29       	jnc	$+614    	;abs 0x27ce
    256a:	00 44       	br	r4		
    256c:	41 43       	clr.b	r1		
    256e:	31 32       	jn	$-924    	;abs 0x21d2
    2570:	5f 30       	jn	$+192    	;abs 0x2630
    2572:	43 54       	.word	0x5443;	????	Illegal as 2-op instr
    2574:	4c 3a       	jl	$-870    	;abs 0x220e
    2576:	47 28       	jnc	$+144    	;abs 0x2606
    2578:	31 36       	jge	$-924    	;abs 0x21dc
    257a:	2c 38       	jl	$+90     	;abs 0x25d4
    257c:	29 00 44 41 	mova	&0x04144,r9	
    2580:	43 31       	jn	$+648    	;abs 0x2808
    2582:	32 5f       	add	@r15+,	r2	
    2584:	31 43       	mov	#-1,	r1	;r3 As==11
    2586:	54 4c 3a 47 	mov.b	18234(r12),r4	;0x473a(r12)
    258a:	28 31       	jn	$+594    	;abs 0x27dc
    258c:	36 2c       	jc	$+110    	;abs 0x25fa
    258e:	38 29       	jnc	$+626    	;abs 0x2800
    2590:	00 44       	br	r4		
    2592:	41 43       	clr.b	r1		
    2594:	31 32       	jn	$-924    	;abs 0x21f8
    2596:	5f 30       	jn	$+192    	;abs 0x2656
    2598:	44 41       	mov.b	r1,	r4	
    259a:	54 3a       	jl	$-854    	;abs 0x2244
    259c:	47 28       	jnc	$+144    	;abs 0x262c
    259e:	31 36       	jge	$-924    	;abs 0x2202
    25a0:	2c 38       	jl	$+90     	;abs 0x25fa
    25a2:	29 00 44 41 	mova	&0x04144,r9	
    25a6:	43 31       	jn	$+648    	;abs 0x282e
    25a8:	32 5f       	add	@r15+,	r2	
    25aa:	31 44       	mov	@r4+,	r1	
    25ac:	41 54       	add.b	r4,	r1	
    25ae:	3a 47       	mov	@r7+,	r10	
    25b0:	28 31       	jn	$+594    	;abs 0x2802
    25b2:	36 2c       	jc	$+110    	;abs 0x2620
    25b4:	38 29       	jnc	$+626    	;abs 0x2826
    25b6:	00 44       	br	r4		
    25b8:	4d 41       	mov.b	r1,	r13	
    25ba:	43 54       	.word	0x5443;	????	Illegal as 2-op instr
    25bc:	4c 30       	jn	$+154    	;abs 0x2656
    25be:	3a 47       	mov	@r7+,	r10	
    25c0:	28 31       	jn	$+594    	;abs 0x2812
    25c2:	36 2c       	jc	$+110    	;abs 0x2630
    25c4:	38 29       	jnc	$+626    	;abs 0x2836
    25c6:	00 44       	br	r4		
    25c8:	4d 41       	mov.b	r1,	r13	
    25ca:	43 54       	.word	0x5443;	????	Illegal as 2-op instr
    25cc:	4c 31       	jn	$+666    	;abs 0x2866
    25ce:	3a 47       	mov	@r7+,	r10	
    25d0:	28 31       	jn	$+594    	;abs 0x2822
    25d2:	36 2c       	jc	$+110    	;abs 0x2640
    25d4:	38 29       	jnc	$+626    	;abs 0x2846
    25d6:	00 44       	br	r4		
    25d8:	4d 41       	mov.b	r1,	r13	
    25da:	49 56       	add.b	r6,	r9	
    25dc:	3a 47       	mov	@r7+,	r10	
    25de:	28 31       	jn	$+594    	;abs 0x2830
    25e0:	36 2c       	jc	$+110    	;abs 0x264e
    25e2:	38 29       	jnc	$+626    	;abs 0x2854
    25e4:	00 44       	br	r4		
    25e6:	4d 41       	mov.b	r1,	r13	
    25e8:	30 43       	br	#-1		;r3 As==11
    25ea:	54 4c 3a 47 	mov.b	18234(r12),r4	;0x473a(r12)
    25ee:	28 31       	jn	$+594    	;abs 0x2840
    25f0:	36 2c       	jc	$+110    	;abs 0x265e
    25f2:	38 29       	jnc	$+626    	;abs 0x2864
    25f4:	00 44       	br	r4		
    25f6:	4d 41       	mov.b	r1,	r13	
    25f8:	30 53       	add	#-1,	r0	;r3 As==11
    25fa:	41 3a       	jl	$-892    	;abs 0x227e
    25fc:	47 28       	jnc	$+144    	;abs 0x268c
    25fe:	31 2c       	jc	$+100    	;abs 0x2662
    2600:	33 29       	jnc	$+616    	;abs 0x2868
    2602:	3d 42       	mov	#8,	r13	;r2 As==11
    2604:	28 30       	jn	$+82     	;abs 0x2656
    2606:	2c 35       	jge	$+602    	;abs 0x2860
    2608:	29 00 44 4d 	mova	&0x04d44,r9	
    260c:	41 30       	jn	$+132    	;abs 0x2690
    260e:	53 41       	.word	0x4153;	????	Illegal as 2-op instr
    2610:	4c 3a       	jl	$-870    	;abs 0x22aa
    2612:	47 28       	jnc	$+144    	;abs 0x26a2
    2614:	31 36       	jge	$-924    	;abs 0x2278
    2616:	2c 38       	jl	$+90     	;abs 0x2670
    2618:	29 00 44 4d 	mova	&0x04d44,r9	
    261c:	41 30       	jn	$+132    	;abs 0x26a0
    261e:	44 41       	mov.b	r1,	r4	
    2620:	3a 47       	mov	@r7+,	r10	
    2622:	28 31       	jn	$+594    	;abs 0x2874
    2624:	2c 33       	jn	$-422    	;abs 0x247e
    2626:	29 00 44 4d 	mova	&0x04d44,r9	
    262a:	41 30       	jn	$+132    	;abs 0x26ae
    262c:	44 41       	mov.b	r1,	r4	
    262e:	4c 3a       	jl	$-870    	;abs 0x22c8
    2630:	47 28       	jnc	$+144    	;abs 0x26c0
    2632:	31 36       	jge	$-924    	;abs 0x2296
    2634:	2c 38       	jl	$+90     	;abs 0x268e
    2636:	29 00 44 4d 	mova	&0x04d44,r9	
    263a:	41 30       	jn	$+132    	;abs 0x26be
    263c:	53 5a       	.word	0x5a53;	????	Illegal as 2-op instr
    263e:	3a 47       	mov	@r7+,	r10	
    2640:	28 31       	jn	$+594    	;abs 0x2892
    2642:	36 2c       	jc	$+110    	;abs 0x26b0
    2644:	38 29       	jnc	$+626    	;abs 0x28b6
    2646:	00 44       	br	r4		
    2648:	4d 41       	mov.b	r1,	r13	
    264a:	31 43       	mov	#-1,	r1	;r3 As==11
    264c:	54 4c 3a 47 	mov.b	18234(r12),r4	;0x473a(r12)
    2650:	28 31       	jn	$+594    	;abs 0x28a2
    2652:	36 2c       	jc	$+110    	;abs 0x26c0
    2654:	38 29       	jnc	$+626    	;abs 0x28c6
    2656:	00 44       	br	r4		
    2658:	4d 41       	mov.b	r1,	r13	
    265a:	31 53       	add	#-1,	r1	;r3 As==11
    265c:	41 3a       	jl	$-892    	;abs 0x22e0
    265e:	47 28       	jnc	$+144    	;abs 0x26ee
    2660:	31 2c       	jc	$+100    	;abs 0x26c4
    2662:	33 29       	jnc	$+616    	;abs 0x28ca
    2664:	00 44       	br	r4		
    2666:	4d 41       	mov.b	r1,	r13	
    2668:	31 53       	add	#-1,	r1	;r3 As==11
    266a:	41 4c       	mov.b	r12,	r1	
    266c:	3a 47       	mov	@r7+,	r10	
    266e:	28 31       	jn	$+594    	;abs 0x28c0
    2670:	36 2c       	jc	$+110    	;abs 0x26de
    2672:	38 29       	jnc	$+626    	;abs 0x28e4
    2674:	00 44       	br	r4		
    2676:	4d 41       	mov.b	r1,	r13	
    2678:	31 44       	mov	@r4+,	r1	
    267a:	41 3a       	jl	$-892    	;abs 0x22fe
    267c:	47 28       	jnc	$+144    	;abs 0x270c
    267e:	31 36       	jge	$-924    	;abs 0x22e2
    2680:	2c 38       	jl	$+90     	;abs 0x26da
    2682:	29 00 44 4d 	mova	&0x04d44,r9	
    2686:	41 31       	jn	$+644    	;abs 0x290a
    2688:	44 41       	mov.b	r1,	r4	
    268a:	4c 3a       	jl	$-870    	;abs 0x2324
    268c:	47 28       	jnc	$+144    	;abs 0x271c
    268e:	31 36       	jge	$-924    	;abs 0x22f2
    2690:	2c 38       	jl	$+90     	;abs 0x26ea
    2692:	29 00 44 4d 	mova	&0x04d44,r9	
    2696:	41 31       	jn	$+644    	;abs 0x291a
    2698:	53 5a       	.word	0x5a53;	????	Illegal as 2-op instr
    269a:	3a 47       	mov	@r7+,	r10	
    269c:	28 31       	jn	$+594    	;abs 0x28ee
    269e:	36 2c       	jc	$+110    	;abs 0x270c
    26a0:	38 29       	jnc	$+626    	;abs 0x2912
    26a2:	00 44       	br	r4		
    26a4:	4d 41       	mov.b	r1,	r13	
    26a6:	32 43       	mov	#-1,	r2	;r3 As==11
    26a8:	54 4c 3a 47 	mov.b	18234(r12),r4	;0x473a(r12)
    26ac:	28 31       	jn	$+594    	;abs 0x28fe
    26ae:	36 2c       	jc	$+110    	;abs 0x271c
    26b0:	38 29       	jnc	$+626    	;abs 0x2922
    26b2:	00 44       	br	r4		
    26b4:	4d 41       	mov.b	r1,	r13	
    26b6:	32 53       	add	#-1,	r2	;r3 As==11
    26b8:	41 3a       	jl	$-892    	;abs 0x233c
    26ba:	47 28       	jnc	$+144    	;abs 0x274a
    26bc:	31 2c       	jc	$+100    	;abs 0x2720
    26be:	33 29       	jnc	$+616    	;abs 0x2926
    26c0:	00 44       	br	r4		
    26c2:	4d 41       	mov.b	r1,	r13	
    26c4:	32 53       	add	#-1,	r2	;r3 As==11
    26c6:	41 4c       	mov.b	r12,	r1	
    26c8:	3a 47       	mov	@r7+,	r10	
    26ca:	28 31       	jn	$+594    	;abs 0x291c
    26cc:	36 2c       	jc	$+110    	;abs 0x273a
    26ce:	38 29       	jnc	$+626    	;abs 0x2940
    26d0:	00 44       	br	r4		
    26d2:	4d 41       	mov.b	r1,	r13	
    26d4:	32 44       	mov	@r4+,	r2	
    26d6:	41 3a       	jl	$-892    	;abs 0x235a
    26d8:	47 28       	jnc	$+144    	;abs 0x2768
    26da:	31 2c       	jc	$+100    	;abs 0x273e
    26dc:	33 29       	jnc	$+616    	;abs 0x2944
    26de:	00 44       	br	r4		
    26e0:	4d 41       	mov.b	r1,	r13	
    26e2:	32 44       	mov	@r4+,	r2	
    26e4:	41 4c       	mov.b	r12,	r1	
    26e6:	3a 47       	mov	@r7+,	r10	
    26e8:	28 31       	jn	$+594    	;abs 0x293a
    26ea:	36 2c       	jc	$+110    	;abs 0x2758
    26ec:	38 29       	jnc	$+626    	;abs 0x295e
    26ee:	00 44       	br	r4		
    26f0:	4d 41       	mov.b	r1,	r13	
    26f2:	32 53       	add	#-1,	r2	;r3 As==11
    26f4:	5a 3a       	jl	$-842    	;abs 0x23aa
    26f6:	47 28       	jnc	$+144    	;abs 0x2786
    26f8:	31 36       	jge	$-924    	;abs 0x235c
    26fa:	2c 38       	jl	$+90     	;abs 0x2754
    26fc:	29 00 57 44 	mova	&0x04457,r9	
    2700:	54 43       	mov.b	#1,	r4	;r3 As==01
    2702:	54 4c 3a 47 	mov.b	18234(r12),r4	;0x473a(r12)
    2706:	28 31       	jn	$+594    	;abs 0x2958
    2708:	36 2c       	jc	$+110    	;abs 0x2776
    270a:	38 29       	jnc	$+626    	;abs 0x297c
    270c:	00 49       	br	r9		
    270e:	45 31       	jn	$+652    	;abs 0x299a
    2710:	3a 47       	mov	@r7+,	r10	
    2712:	28 31       	jn	$+594    	;abs 0x2964
    2714:	2c 32       	jn	$-934    	;abs 0x236e
    2716:	29 00 49 46 	mova	&0x04649,r9	
    271a:	47 31       	jn	$+656    	;abs 0x29aa
    271c:	3a 47       	mov	@r7+,	r10	
    271e:	28 31       	jn	$+594    	;abs 0x2970
    2720:	2c 32       	jn	$-934    	;abs 0x237a
    2722:	29 00 49 45 	mova	&0x04549,r9	
    2726:	32 3a       	jl	$-922    	;abs 0x238c
    2728:	47 28       	jnc	$+144    	;abs 0x27b8
    272a:	31 2c       	jc	$+100    	;abs 0x278e
    272c:	32 29       	jnc	$+614    	;abs 0x2992
    272e:	00 49       	br	r9		
    2730:	46 47       	mov.b	r7,	r6	
    2732:	32 3a       	jl	$-922    	;abs 0x2398
    2734:	47 28       	jnc	$+144    	;abs 0x27c4
    2736:	31 2c       	jc	$+100    	;abs 0x279a
    2738:	32 29       	jnc	$+614    	;abs 0x299e
    273a:	00 54       	add	r4,	r0	
    273c:	4c 56       	add.b	r6,	r12	
    273e:	5f 43       	mov.b	#1,	r15	;r3 As==01
    2740:	48 45       	mov.b	r5,	r8	
    2742:	43 4b       	.word	0x4b43;	????	Illegal as 2-op instr
    2744:	53 55       	.word	0x5553;	????	Illegal as 2-op instr
    2746:	4d 3a       	jl	$-868    	;abs 0x23e2
    2748:	47 28       	jnc	$+144    	;abs 0x27d8
    274a:	31 36       	jge	$-924    	;abs 0x23ae
    274c:	2c 38       	jl	$+90     	;abs 0x27a6
    274e:	29 00 54 4c 	mova	&0x04c54,r9	
    2752:	56 5f 44 43 	add.b	17220(r15),r6	;0x4344(r15)
    2756:	4f 5f       	rla.b	r15		
    2758:	33 30       	jn	$+104    	;abs 0x27c0
    275a:	5f 54 41 47 	add.b	18241(r4),r15	;0x4741(r4)
    275e:	3a 47       	mov	@r7+,	r10	
    2760:	28 31       	jn	$+594    	;abs 0x29b2
    2762:	2c 32       	jn	$-934    	;abs 0x23bc
    2764:	29 00 54 4c 	mova	&0x04c54,r9	
    2768:	56 5f 44 43 	add.b	17220(r15),r6	;0x4344(r15)
    276c:	4f 5f       	rla.b	r15		
    276e:	33 30       	jn	$+104    	;abs 0x27d6
    2770:	5f 4c 45 4e 	mov.b	20037(r12),r15	;0x4e45(r12)
    2774:	3a 47       	mov	@r7+,	r10	
    2776:	28 31       	jn	$+594    	;abs 0x29c8
    2778:	2c 32       	jn	$-934    	;abs 0x23d2
    277a:	29 00 54 4c 	mova	&0x04c54,r9	
    277e:	56 5f 41 44 	add.b	17473(r15),r6	;0x4441(r15)
    2782:	43 31       	jn	$+648    	;abs 0x2a0a
    2784:	32 5f       	add	@r15+,	r2	
    2786:	31 5f       	add	@r15+,	r1	
    2788:	54 41 47 3a 	mov.b	14919(r1),r4	;0x3a47(r1)
    278c:	47 28       	jnc	$+144    	;abs 0x281c
    278e:	31 2c       	jc	$+100    	;abs 0x27f2
    2790:	32 29       	jnc	$+614    	;abs 0x29f6
    2792:	00 54       	add	r4,	r0	
    2794:	4c 56       	add.b	r6,	r12	
    2796:	5f 41 44 43 	mov.b	17220(r1),r15	;0x4344(r1)
    279a:	31 32       	jn	$-924    	;abs 0x23fe
    279c:	5f 31       	jn	$+704    	;abs 0x2a5c
    279e:	5f 4c 45 4e 	mov.b	20037(r12),r15	;0x4e45(r12)
    27a2:	3a 47       	mov	@r7+,	r10	
    27a4:	28 31       	jn	$+594    	;abs 0x29f6
    27a6:	2c 32       	jn	$-934    	;abs 0x2400
    27a8:	29 00 43 41 	mova	&0x04143,r9	
    27ac:	4c 44       	mov.b	r4,	r12	
    27ae:	43 4f       	.word	0x4f43;	????	Illegal as 2-op instr
    27b0:	5f 31       	jn	$+704    	;abs 0x2a70
    27b2:	36 4d       	mov	@r13+,	r6	
    27b4:	48 5a       	add.b	r10,	r8	
    27b6:	3a 47       	mov	@r7+,	r10	
    27b8:	28 31       	jn	$+594    	;abs 0x2a0a
    27ba:	2c 32       	jn	$-934    	;abs 0x2414
    27bc:	29 00 43 41 	mova	&0x04143,r9	
    27c0:	4c 42       	mov.b	r2,	r12	
    27c2:	43 31       	jn	$+648    	;abs 0x2a4a
    27c4:	5f 31       	jn	$+704    	;abs 0x2a84
    27c6:	36 4d       	mov	@r13+,	r6	
    27c8:	48 5a       	add.b	r10,	r8	
    27ca:	3a 47       	mov	@r7+,	r10	
    27cc:	28 31       	jn	$+594    	;abs 0x2a1e
    27ce:	2c 32       	jn	$-934    	;abs 0x2428
    27d0:	29 00 43 41 	mova	&0x04143,r9	
    27d4:	4c 44       	mov.b	r4,	r12	
    27d6:	43 4f       	.word	0x4f43;	????	Illegal as 2-op instr
    27d8:	5f 31       	jn	$+704    	;abs 0x2a98
    27da:	32 4d       	mov	@r13+,	r2	
    27dc:	48 5a       	add.b	r10,	r8	
    27de:	3a 47       	mov	@r7+,	r10	
    27e0:	28 31       	jn	$+594    	;abs 0x2a32
    27e2:	2c 32       	jn	$-934    	;abs 0x243c
    27e4:	29 00 43 41 	mova	&0x04143,r9	
    27e8:	4c 42       	mov.b	r2,	r12	
    27ea:	43 31       	jn	$+648    	;abs 0x2a72
    27ec:	5f 31       	jn	$+704    	;abs 0x2aac
    27ee:	32 4d       	mov	@r13+,	r2	
    27f0:	48 5a       	add.b	r10,	r8	
    27f2:	3a 47       	mov	@r7+,	r10	
    27f4:	28 31       	jn	$+594    	;abs 0x2a46
    27f6:	2c 32       	jn	$-934    	;abs 0x2450
    27f8:	29 00 43 41 	mova	&0x04143,r9	
    27fc:	4c 44       	mov.b	r4,	r12	
    27fe:	43 4f       	.word	0x4f43;	????	Illegal as 2-op instr
    2800:	5f 38       	jl	$+192    	;abs 0x28c0
    2802:	4d 48       	mov.b	r8,	r13	
    2804:	5a 3a       	jl	$-842    	;abs 0x24ba
    2806:	47 28       	jnc	$+144    	;abs 0x2896
    2808:	31 2c       	jc	$+100    	;abs 0x286c
    280a:	32 29       	jnc	$+614    	;abs 0x2a70
    280c:	00 43       	clr	r0		
    280e:	41 4c       	mov.b	r12,	r1	
    2810:	42 43       	clr.b	r2		
    2812:	31 5f       	add	@r15+,	r1	
    2814:	38 4d       	mov	@r13+,	r8	
    2816:	48 5a       	add.b	r10,	r8	
    2818:	3a 47       	mov	@r7+,	r10	
    281a:	28 31       	jn	$+594    	;abs 0x2a6c
    281c:	2c 32       	jn	$-934    	;abs 0x2476
    281e:	29 00 43 41 	mova	&0x04143,r9	
    2822:	4c 44       	mov.b	r4,	r12	
    2824:	43 4f       	.word	0x4f43;	????	Illegal as 2-op instr
    2826:	5f 31       	jn	$+704    	;abs 0x2ae6
    2828:	4d 48       	mov.b	r8,	r13	
    282a:	5a 3a       	jl	$-842    	;abs 0x24e0
    282c:	47 28       	jnc	$+144    	;abs 0x28bc
    282e:	31 2c       	jc	$+100    	;abs 0x2892
    2830:	32 29       	jnc	$+614    	;abs 0x2a96
    2832:	00 43       	clr	r0		
    2834:	41 4c       	mov.b	r12,	r1	
    2836:	42 43       	clr.b	r2		
    2838:	31 5f       	add	@r15+,	r1	
    283a:	31 4d       	mov	@r13+,	r1	
    283c:	48 5a       	add.b	r10,	r8	
    283e:	3a 47       	mov	@r7+,	r10	
    2840:	28 31       	jn	$+594    	;abs 0x2a92
    2842:	2c 32       	jn	$-934    	;abs 0x249c
    2844:	29 00 4c 43 	mova	&0x0434c,r9	
    2848:	44 5f       	add.b	r15,	r4	
    284a:	6c 69       	addc.b	@r9,	r12	
    284c:	6e 65       	addc.b	@r5,	r14	
    284e:	63 6f       	.word	0x6f63;	????	Illegal as 2-op instr
    2850:	75 6e       	addc.b	@r14+,	r5	
    2852:	74 3a       	jl	$-790    	;abs 0x253c
    2854:	47 28       	jnc	$+144    	;abs 0x28e4
    2856:	30 2c       	jc	$+98     	;abs 0x28b8
    2858:	31 31       	jn	$+612    	;abs 0x2abc
    285a:	29 00 4c 43 	mova	&0x0434c,r9	
    285e:	44 5f       	add.b	r15,	r4	
    2860:	63 68       	.word	0x6863;	????	Illegal as 2-op instr
    2862:	61 72       	subc.b	#4,	r1	;r2 As==10
    2864:	63 6f       	.word	0x6f63;	????	Illegal as 2-op instr
    2866:	75 6e       	addc.b	@r14+,	r5	
    2868:	74 3a       	jl	$-790    	;abs 0x2552
    286a:	47 28       	jnc	$+144    	;abs 0x28fa
    286c:	30 2c       	jc	$+98     	;abs 0x28ce
    286e:	31 31       	jn	$+612    	;abs 0x2ad2
    2870:	29 00 63 6f 	mova	&0x06f63,r9	
    2874:	6c 6f       	addc.b	@r15,	r12	
    2876:	72 5f       	add.b	@r15+,	r2	
    2878:	62 61       	addc.b	@r1,	r2	
    287a:	63 6b       	.word	0x6b63;	????	Illegal as 2-op instr
    287c:	3a 47       	mov	@r7+,	r10	
    287e:	28 30       	jn	$+82     	;abs 0x28d0
    2880:	2c 31       	jn	$+602    	;abs 0x2ada
    2882:	31 29       	jnc	$+612    	;abs 0x2ae6
    2884:	00 63       	adc	r0		
    2886:	6f 6c       	addc.b	@r12,	r15	
    2888:	6f 72       	subc.b	#4,	r15	;r2 As==10
    288a:	5f 66 6f 72 	addc.b	29295(r6),r15	;0x726f(r6)
    288e:	65 3a       	jl	$-820    	;abs 0x255a
    2890:	47 28       	jnc	$+144    	;abs 0x2920
    2892:	30 2c       	jc	$+98     	;abs 0x28f4
    2894:	31 31       	jn	$+612    	;abs 0x2af8
    2896:	29 00 61 73 	mova	&0x07361,r9	
    289a:	63 69       	.word	0x6963;	????	Illegal as 2-op instr
    289c:	69 74       	subc.b	@r4,	r9	
    289e:	61 62       	addc.b	#4,	r1	;r2 As==10
    28a0:	6c 65       	addc.b	@r5,	r12	
    28a2:	3a 47       	mov	@r7+,	r10	
    28a4:	28 31       	jn	$+594    	;abs 0x2af6
    28a6:	2c 34       	jge	$+90     	;abs 0x2900
    28a8:	29 3d       	jmp	$+596    	;abs 0x2afc
    28aa:	61 72       	subc.b	#4,	r1	;r2 As==10
    28ac:	28 31       	jn	$+594    	;abs 0x2afe
    28ae:	36 2c       	jc	$+110    	;abs 0x291c
    28b0:	37 29       	jnc	$+624    	;abs 0x2b20
    28b2:	3b 30       	jn	$+120    	;abs 0x292a
    28b4:	3b 36       	jge	$-904    	;abs 0x252c
    28b6:	33 39       	jl	$+616    	;abs 0x2b1e
    28b8:	3b 28       	jnc	$+120    	;abs 0x2930
    28ba:	34 2c       	jc	$+106    	;abs 0x2924
    28bc:	31 39       	jl	$+612    	;abs 0x2b20
    28be:	29 00 06 7b 	Address 0x000028c0 is out of bounds.
mova	&0x0ffff,r9	
