
main.o:     file format elf32-msp430

Disassembly of section .text:

00002100 <__init_stack>:
    2100:	31 40 00 21 	mov	#8448,	r1	;#0x2100

00002104 <__low_level_init>:
    2104:	b2 40 80 5a 	mov	#23168,	&0x0120	;#0x5a80
    2108:	20 01 

0000210a <__do_copy_data>:
    210a:	3f 40 00 00 	mov	#0,	r15	;#0x0000
    210e:	0f 93       	tst	r15		
    2110:	05 24       	jz	$+12     	;abs 0x211c
    2112:	2f 83       	decd	r15		
    2114:	9f 4f 42 21 	mov	8514(r15),4352(r15);0x2142(r15), 0x1100(r15)
    2118:	00 11 
    211a:	fb 23       	jnz	$-8      	;abs 0x2112

0000211c <__do_clear_bss>:
    211c:	3f 40 00 00 	mov	#0,	r15	;#0x0000
    2120:	0f 93       	tst	r15		
    2122:	04 24       	jz	$+10     	;abs 0x212c
    2124:	1f 83       	dec	r15		
    2126:	cf 43 00 11 	mov.b	#0,	4352(r15);r3 As==00, 0x1100(r15)
    212a:	fc 23       	jnz	$-6      	;abs 0x2124

0000212c <__jump_to_main>:
    212c:	30 40 36 21 	br	#0x2136	

00002130 <__ctors_end>:
    2130:	30 40 34 21 	br	#0x2134	

00002134 <_unexpected_>:
    2134:	00 13       	reti			

00002136 <main>:
#include "pins.h"

int main(){
    2136:	31 40 00 21 	mov	#8448,	r1	;#0x2100
	while(1){
    213a:	ff 3f       	jmp	$+0      	;abs 0x213a
	
	}
}
    213c:	30 40 40 21 	br	#0x2140	

00002140 <__stop_progExec__>:
    2140:	ff 3f       	jmp	$+0      	;abs 0x2140
Disassembly of section .vectors:

0000ffc0 <InterruptVectors>:
    ffc0:	30 21       	interrupt service routine at 0x2130
    ffc2:	30 21       	interrupt service routine at 0x2130
    ffc4:	30 21       	interrupt service routine at 0x2130
    ffc6:	30 21       	interrupt service routine at 0x2130
    ffc8:	30 21       	interrupt service routine at 0x2130
    ffca:	30 21       	interrupt service routine at 0x2130
    ffcc:	30 21       	interrupt service routine at 0x2130
    ffce:	30 21       	interrupt service routine at 0x2130
    ffd0:	30 21       	interrupt service routine at 0x2130
    ffd2:	30 21       	interrupt service routine at 0x2130
    ffd4:	30 21       	interrupt service routine at 0x2130
    ffd6:	30 21       	interrupt service routine at 0x2130
    ffd8:	30 21       	interrupt service routine at 0x2130
    ffda:	30 21       	interrupt service routine at 0x2130
    ffdc:	30 21       	interrupt service routine at 0x2130
    ffde:	30 21       	interrupt service routine at 0x2130
    ffe0:	30 21       	interrupt service routine at 0x2130
    ffe2:	30 21       	interrupt service routine at 0x2130
    ffe4:	30 21       	interrupt service routine at 0x2130
    ffe6:	30 21       	interrupt service routine at 0x2130
    ffe8:	30 21       	interrupt service routine at 0x2130
    ffea:	30 21       	interrupt service routine at 0x2130
    ffec:	30 21       	interrupt service routine at 0x2130
    ffee:	30 21       	interrupt service routine at 0x2130
    fff0:	30 21       	interrupt service routine at 0x2130
    fff2:	30 21       	interrupt service routine at 0x2130
    fff4:	30 21       	interrupt service routine at 0x2130
    fff6:	30 21       	interrupt service routine at 0x2130
    fff8:	30 21       	interrupt service routine at 0x2130
    fffa:	30 21       	interrupt service routine at 0x2130
    fffc:	30 21       	interrupt service routine at 0x2130
    fffe:	00 21       	interrupt service routine at 0x2100
Disassembly of section .stab:

00000000 <_efartext-0x10000>:
       0:	01 00       	mova	@r0,	r1	
       2:	00 00       	bra	@r0		
       4:	00 00       	bra	@r0		
       6:	5a 01       	rram	#1,	r10	
       8:	c9 1e       	.word	0x1ec9;	????	
       a:	00 00       	bra	@r0		
       c:	01 00       	mova	@r0,	r1	
       e:	00 00       	bra	@r0		
      10:	64 00 00 00 	mova	r0,	&0x40000
      14:	30 21       	jnz	$+610    	;abs 0x276
      16:	00 00       	bra	@r0		
      18:	2b 00 00 00 	mova	&0x00000,r11	
      1c:	84 00 00 00 	mova	#0x00000,r4	
      20:	30 21       	jnz	$+610    	;abs 0x282
      22:	00 00       	bra	@r0		
      24:	00 00       	bra	@r0		
      26:	00 00       	bra	@r0		
      28:	44 00       	rrcm.a	#1,	r4	
      2a:	28 00 30 21 	mova	&0x02130,r8	
      2e:	00 00       	bra	@r0		
      30:	00 00       	bra	@r0		
      32:	00 00       	bra	@r0		
      34:	44 00       	rrcm.a	#1,	r4	
      36:	2a 00 34 21 	mova	&0x02134,r10	
      3a:	00 00       	bra	@r0		
      3c:	00 00       	bra	@r0		
      3e:	00 00       	bra	@r0		
      40:	44 00       	rrcm.a	#1,	r4	
      42:	63 00 c0 ff 	mova	r0,	&0x3ffc0
      46:	00 00       	bra	@r0		
      48:	00 00       	bra	@r0		
      4a:	00 00       	bra	@r0		
      4c:	44 00       	rrcm.a	#1,	r4	
      4e:	64 00 c2 ff 	mova	r0,	&0x4ffc2
      52:	00 00       	bra	@r0		
      54:	00 00       	bra	@r0		
      56:	00 00       	bra	@r0		
      58:	44 00       	rrcm.a	#1,	r4	
      5a:	65 00 c4 ff 	mova	r0,	&0x5ffc4
      5e:	00 00       	bra	@r0		
      60:	00 00       	bra	@r0		
      62:	00 00       	bra	@r0		
      64:	44 00       	rrcm.a	#1,	r4	
      66:	66 00 c6 ff 	mova	r0,	&0x6ffc6
      6a:	00 00       	bra	@r0		
      6c:	00 00       	bra	@r0		
      6e:	00 00       	bra	@r0		
      70:	44 00       	rrcm.a	#1,	r4	
      72:	67 00 c8 ff 	mova	r0,	&0x7ffc8
      76:	00 00       	bra	@r0		
      78:	00 00       	bra	@r0		
      7a:	00 00       	bra	@r0		
      7c:	44 00       	rrcm.a	#1,	r4	
      7e:	68 00 ca ff 	mova	r0,	&0x8ffca
      82:	00 00       	bra	@r0		
      84:	00 00       	bra	@r0		
      86:	00 00       	bra	@r0		
      88:	44 00       	rrcm.a	#1,	r4	
      8a:	69 00 cc ff 	mova	r0,	&0x9ffcc
      8e:	00 00       	bra	@r0		
      90:	00 00       	bra	@r0		
      92:	00 00       	bra	@r0		
      94:	44 00       	rrcm.a	#1,	r4	
      96:	6a 00 ce ff 	mova	r0,	&0xaffce
      9a:	00 00       	bra	@r0		
      9c:	00 00       	bra	@r0		
      9e:	00 00       	bra	@r0		
      a0:	44 00       	rrcm.a	#1,	r4	
      a2:	6b 00 d0 ff 	mova	r0,	&0xbffd0
      a6:	00 00       	bra	@r0		
      a8:	00 00       	bra	@r0		
      aa:	00 00       	bra	@r0		
      ac:	44 00       	rrcm.a	#1,	r4	
      ae:	6c 00 d2 ff 	mova	r0,	&0xcffd2
      b2:	00 00       	bra	@r0		
      b4:	00 00       	bra	@r0		
      b6:	00 00       	bra	@r0		
      b8:	44 00       	rrcm.a	#1,	r4	
      ba:	6d 00 d4 ff 	mova	r0,	&0xdffd4
      be:	00 00       	bra	@r0		
      c0:	00 00       	bra	@r0		
      c2:	00 00       	bra	@r0		
      c4:	44 00       	rrcm.a	#1,	r4	
      c6:	6e 00 d6 ff 	mova	r0,	&0xeffd6
      ca:	00 00       	bra	@r0		
      cc:	00 00       	bra	@r0		
      ce:	00 00       	bra	@r0		
      d0:	44 00       	rrcm.a	#1,	r4	
      d2:	6f 00 d8 ff 	mova	r0,	&0xfffd8
      d6:	00 00       	bra	@r0		
      d8:	00 00       	bra	@r0		
      da:	00 00       	bra	@r0		
      dc:	44 00       	rrcm.a	#1,	r4	
      de:	70 00 da ff 	mova	r0,	0xffda	;PC rel. 0x000ba
      e2:	00 00       	bra	@r0		
      e4:	00 00       	bra	@r0		
      e6:	00 00       	bra	@r0		
      e8:	44 00       	rrcm.a	#1,	r4	
      ea:	71 00 dc ff 	mova	r0,	-36(r1)	;0xffdc(r1)
      ee:	00 00       	bra	@r0		
      f0:	00 00       	bra	@r0		
      f2:	00 00       	bra	@r0		
      f4:	44 00       	rrcm.a	#1,	r4	
      f6:	72 00 de ff 	mova	r0,	&0xffde	
      fa:	00 00       	bra	@r0		
      fc:	00 00       	bra	@r0		
      fe:	00 00       	bra	@r0		
     100:	44 00       	rrcm.a	#1,	r4	
     102:	74 00 e0 ff 	mova	r0,	-32(r4)	;0xffe0(r4)
     106:	00 00       	bra	@r0		
     108:	00 00       	bra	@r0		
     10a:	00 00       	bra	@r0		
     10c:	44 00       	rrcm.a	#1,	r4	
     10e:	75 00 e2 ff 	mova	r0,	-30(r5)	;0xffe2(r5)
     112:	00 00       	bra	@r0		
     114:	00 00       	bra	@r0		
     116:	00 00       	bra	@r0		
     118:	44 00       	rrcm.a	#1,	r4	
     11a:	76 00 e4 ff 	mova	r0,	-28(r6)	;0xffe4(r6)
     11e:	00 00       	bra	@r0		
     120:	00 00       	bra	@r0		
     122:	00 00       	bra	@r0		
     124:	44 00       	rrcm.a	#1,	r4	
     126:	77 00 e6 ff 	mova	r0,	-26(r7)	;0xffe6(r7)
     12a:	00 00       	bra	@r0		
     12c:	00 00       	bra	@r0		
     12e:	00 00       	bra	@r0		
     130:	44 00       	rrcm.a	#1,	r4	
     132:	78 00 e8 ff 	mova	r0,	-24(r8)	;0xffe8(r8)
     136:	00 00       	bra	@r0		
     138:	00 00       	bra	@r0		
     13a:	00 00       	bra	@r0		
     13c:	44 00       	rrcm.a	#1,	r4	
     13e:	79 00 ea ff 	mova	r0,	-22(r9)	;0xffea(r9)
     142:	00 00       	bra	@r0		
     144:	00 00       	bra	@r0		
     146:	00 00       	bra	@r0		
     148:	44 00       	rrcm.a	#1,	r4	
     14a:	7a 00 ec ff 	mova	r0,	-20(r10);0xffec(r10)
     14e:	00 00       	bra	@r0		
     150:	00 00       	bra	@r0		
     152:	00 00       	bra	@r0		
     154:	44 00       	rrcm.a	#1,	r4	
     156:	7b 00 ee ff 	mova	r0,	-18(r11);0xffee(r11)
     15a:	00 00       	bra	@r0		
     15c:	00 00       	bra	@r0		
     15e:	00 00       	bra	@r0		
     160:	44 00       	rrcm.a	#1,	r4	
     162:	7c 00 f0 ff 	mova	r0,	-16(r12);0xfff0(r12)
     166:	00 00       	bra	@r0		
     168:	00 00       	bra	@r0		
     16a:	00 00       	bra	@r0		
     16c:	44 00       	rrcm.a	#1,	r4	
     16e:	7d 00 f2 ff 	mova	r0,	-14(r13);0xfff2(r13)
     172:	00 00       	bra	@r0		
     174:	00 00       	bra	@r0		
     176:	00 00       	bra	@r0		
     178:	44 00       	rrcm.a	#1,	r4	
     17a:	7e 00 f4 ff 	mova	r0,	-12(r14);0xfff4(r14)
     17e:	00 00       	bra	@r0		
     180:	00 00       	bra	@r0		
     182:	00 00       	bra	@r0		
     184:	44 00       	rrcm.a	#1,	r4	
     186:	7f 00 f6 ff 	mova	r0,	-10(r15);0xfff6(r15)
     18a:	00 00       	bra	@r0		
     18c:	00 00       	bra	@r0		
     18e:	00 00       	bra	@r0		
     190:	44 00       	rrcm.a	#1,	r4	
     192:	80 00 f8 ff 	bra	#0x0fff8	
     196:	00 00       	bra	@r0		
     198:	00 00       	bra	@r0		
     19a:	00 00       	bra	@r0		
     19c:	44 00       	rrcm.a	#1,	r4	
     19e:	81 00 fa ff 	mova	#0x0fffa,r1	
     1a2:	00 00       	bra	@r0		
     1a4:	00 00       	bra	@r0		
     1a6:	00 00       	bra	@r0		
     1a8:	44 00       	rrcm.a	#1,	r4	
     1aa:	82 00 fc ff 	mova	#0x0fffc,r2	
     1ae:	00 00       	bra	@r0		
     1b0:	33 00       	.word	0x0033;	????	Illegal as address instr
     1b2:	00 00       	bra	@r0		
     1b4:	64 00 00 00 	mova	r0,	&0x40000
     1b8:	36 21       	jnz	$+622    	;abs 0x426
     1ba:	00 00       	bra	@r0		
     1bc:	58 00       	rrcm	#1,	r8	
     1be:	00 00       	bra	@r0		
     1c0:	64 00 00 00 	mova	r0,	&0x40000
     1c4:	36 21       	jnz	$+622    	;abs 0x432
     1c6:	00 00       	bra	@r0		
     1c8:	5f 00       	rrcm	#1,	r15	
     1ca:	00 00       	bra	@r0		
     1cc:	3c 00 00 00 	mova	0x0000,	r12	;PC rel. 0x001ce
     1d0:	00 00       	bra	@r0		
     1d2:	00 00       	bra	@r0		
     1d4:	6e 00 00 00 	mova	r0,	&0xe0000
     1d8:	80 00 00 00 	bra	#0x00000	
     1dc:	00 00       	bra	@r0		
     1de:	00 00       	bra	@r0		
     1e0:	8e 00 00 00 	mova	#0x00000,r14	
     1e4:	80 00 00 00 	bra	#0x00000	
     1e8:	00 00       	bra	@r0		
     1ea:	00 00       	bra	@r0		
     1ec:	a8 00 00 00 	adda	#0x00000,r8	
     1f0:	80 00 00 00 	bra	#0x00000	
     1f4:	00 00       	bra	@r0		
     1f6:	00 00       	bra	@r0		
     1f8:	e1 00       	adda	r0,	r1	
     1fa:	00 00       	bra	@r0		
     1fc:	80 00 00 00 	bra	#0x00000	
     200:	00 00       	bra	@r0		
     202:	00 00       	bra	@r0		
     204:	19 01       	mova	@r1+,	r9	
     206:	00 00       	bra	@r0		
     208:	80 00 00 00 	bra	#0x00000	
     20c:	00 00       	bra	@r0		
     20e:	00 00       	bra	@r0		
     210:	5b 01       	rram	#1,	r11	
     212:	00 00       	bra	@r0		
     214:	80 00 00 00 	bra	#0x00000	
     218:	00 00       	bra	@r0		
     21a:	00 00       	bra	@r0		
     21c:	ac 01 00 00 	adda	#0x10000,r12	
     220:	80 00 00 00 	bra	#0x00000	
     224:	00 00       	bra	@r0		
     226:	00 00       	bra	@r0		
     228:	fd 01       	suba	r1,	r13	
     22a:	00 00       	bra	@r0		
     22c:	80 00 00 00 	bra	#0x00000	
     230:	00 00       	bra	@r0		
     232:	00 00       	bra	@r0		
     234:	23 02       	.word	0x0223;	????	Illegal as address instr
     236:	00 00       	bra	@r0		
     238:	80 00 00 00 	bra	#0x00000	
     23c:	00 00       	bra	@r0		
     23e:	00 00       	bra	@r0		
     240:	61 02 00 00 	mova	r2,	&0x10000
     244:	80 00 00 00 	bra	#0x00000	
     248:	00 00       	bra	@r0		
     24a:	00 00       	bra	@r0		
     24c:	8b 02 00 00 	mova	#0x20000,r11	
     250:	80 00 00 00 	bra	#0x00000	
     254:	00 00       	bra	@r0		
     256:	00 00       	bra	@r0		
     258:	b4 02 00 00 	suba	#0x20000,r4	
     25c:	80 00 00 00 	bra	#0x00000	
     260:	00 00       	bra	@r0		
     262:	00 00       	bra	@r0		
     264:	ce 02       	mova	r2,	r14	
     266:	00 00       	bra	@r0		
     268:	80 00 00 00 	bra	#0x00000	
     26c:	00 00       	bra	@r0		
     26e:	00 00       	bra	@r0		
     270:	e9 02       	adda	r2,	r9	
     272:	00 00       	bra	@r0		
     274:	80 00 00 00 	bra	#0x00000	
     278:	00 00       	bra	@r0		
     27a:	00 00       	bra	@r0		
     27c:	09 03       	mova	#2,	r9	;r3 As==10
     27e:	00 00       	bra	@r0		
     280:	80 00 00 00 	bra	#0x00000	
     284:	00 00       	bra	@r0		
     286:	00 00       	bra	@r0		
     288:	42 03       	rrum.a	#1,	r2	
     28a:	00 00       	bra	@r0		
     28c:	80 00 00 00 	bra	#0x00000	
     290:	00 00       	bra	@r0		
     292:	00 00       	bra	@r0		
     294:	60 03 00 00 	mova	#0,	&0x00000;r3 As==00
     298:	80 00 00 00 	bra	#0x00000	
     29c:	00 00       	bra	@r0		
     29e:	00 00       	bra	@r0		
     2a0:	7f 03 00 00 	mova	#0,	0(r15)	;r3 As==00, 0x0000(r15)
     2a4:	80 00 00 00 	bra	#0x00000	
     2a8:	00 00       	bra	@r0		
     2aa:	00 00       	bra	@r0		
     2ac:	a3 03       	.word	0x03a3;	????	Illegal as address instr
     2ae:	00 00       	bra	@r0		
     2b0:	80 00 00 00 	bra	#0x00000	
     2b4:	00 00       	bra	@r0		
     2b6:	00 00       	bra	@r0		
     2b8:	cc 03       	mova	#0,	r12	;r3 As==00
     2ba:	00 00       	bra	@r0		
     2bc:	80 00 00 00 	bra	#0x00000	
     2c0:	00 00       	bra	@r0		
     2c2:	00 00       	bra	@r0		
     2c4:	58 00       	rrcm	#1,	r8	
     2c6:	00 00       	bra	@r0		
     2c8:	82 00 00 00 	mova	#0x00000,r2	
     2cc:	98 c4 02 00 	bic	2(r4),	995(r8)	;0x0002(r4), 0x03e3(r8)
     2d0:	e3 03 
     2d2:	00 00       	bra	@r0		
     2d4:	82 00 00 00 	mova	#0x00000,r2	
     2d8:	00 00       	bra	@r0		
     2da:	00 00       	bra	@r0		
     2dc:	ea 03       	incda	r10		
     2de:	00 00       	bra	@r0		
     2e0:	82 00 00 00 	mova	#0x00000,r2	
     2e4:	00 00       	bra	@r0		
     2e6:	00 00       	bra	@r0		
     2e8:	11 04       	mova	@r4+,	r1	
     2ea:	00 00       	bra	@r0		
     2ec:	82 00 00 00 	mova	#0x00000,r2	
     2f0:	00 00       	bra	@r0		
     2f2:	00 00       	bra	@r0		
     2f4:	35 04 00 00 	mova	0(r4),	r5	;0x0000(r4)
     2f8:	82 00 00 00 	mova	#0x00000,r2	
     2fc:	91 34       	jge	$+292    	;abs 0x420
     2fe:	00 00       	bra	@r0		
     300:	5d 04       	rrcm	#2,	r13	
     302:	00 00       	bra	@r0		
     304:	80 00 26 00 	bra	#0x00026	
     308:	00 00       	bra	@r0		
     30a:	00 00       	bra	@r0		
     30c:	72 04 00 00 	mova	r4,	&0x0000	
     310:	80 00 27 00 	bra	#0x00027	
     314:	00 00       	bra	@r0		
     316:	00 00       	bra	@r0		
     318:	88 04 00 00 	mova	#0x40000,r8	
     31c:	80 00 29 00 	bra	#0x00029	
     320:	00 00       	bra	@r0		
     322:	00 00       	bra	@r0		
     324:	9d 04 00 00 	cmpa	#0x40000,r13	
     328:	80 00 2a 00 	bra	#0x0002a	
     32c:	00 00       	bra	@r0		
     32e:	00 00       	bra	@r0		
     330:	b3 04       	.word	0x04b3;	????	Illegal as address instr
     332:	00 00       	bra	@r0		
     334:	80 00 2c 00 	bra	#0x0002c	
     338:	00 00       	bra	@r0		
     33a:	00 00       	bra	@r0		
     33c:	c8 04       	mova	r4,	r8	
     33e:	00 00       	bra	@r0		
     340:	80 00 2d 00 	bra	#0x0002d	
     344:	00 00       	bra	@r0		
     346:	00 00       	bra	@r0		
     348:	de 04       	cmpa	r4,	r14	
     34a:	00 00       	bra	@r0		
     34c:	80 00 2f 00 	bra	#0x0002f	
     350:	00 00       	bra	@r0		
     352:	00 00       	bra	@r0		
     354:	f3 04       	.word	0x04f3;	????	Illegal as address instr
     356:	00 00       	bra	@r0		
     358:	80 00 30 00 	bra	#0x00030	
     35c:	00 00       	bra	@r0		
     35e:	00 00       	bra	@r0		
     360:	09 05       	mova	@r5,	r9	
     362:	00 00       	bra	@r0		
     364:	80 00 35 00 	bra	#0x00035	
     368:	00 00       	bra	@r0		
     36a:	00 00       	bra	@r0		
     36c:	1f 05       	mova	@r5+,	r15	
     36e:	00 00       	bra	@r0		
     370:	80 00 36 00 	bra	#0x00036	
	...
     37c:	a2 00 00 00 	adda	#0x00000,r2	
	...
     388:	a2 00 00 00 	adda	#0x00000,r2	
     38c:	00 00       	bra	@r0		
     38e:	00 00       	bra	@r0		
     390:	37 05 00 00 	mova	0(r5),	r7	;0x0000(r5)
     394:	82 00 00 00 	mova	#0x00000,r2	
	...
     3a0:	a2 00 00 00 	adda	#0x00000,r2	
     3a4:	00 00       	bra	@r0		
     3a6:	00 00       	bra	@r0		
     3a8:	5d 05       	rram	#2,	r13	
     3aa:	00 00       	bra	@r0		
     3ac:	82 00 00 00 	mova	#0x00000,r2	
     3b0:	00 00       	bra	@r0		
     3b2:	00 00       	bra	@r0		
     3b4:	84 05 00 00 	mova	#0x50000,r4	
     3b8:	82 00 00 00 	mova	#0x00000,r2	
     3bc:	c1 68 00 00 	addc.b	r8,	0(r1)	;0x0000(r1)
     3c0:	b3 05       	.word	0x05b3;	????	Illegal as address instr
     3c2:	00 00       	bra	@r0		
     3c4:	80 00 00 00 	bra	#0x00000	
     3c8:	00 00       	bra	@r0		
     3ca:	00 00       	bra	@r0		
     3cc:	69 06 00 00 	mova	r6,	&0x90000
     3d0:	80 00 27 00 	bra	#0x00027	
     3d4:	00 00       	bra	@r0		
     3d6:	00 00       	bra	@r0		
     3d8:	83 06       	.word	0x0683;	????	Illegal as address instr
     3da:	00 00       	bra	@r0		
     3dc:	80 00 00 00 	bra	#0x00000	
     3e0:	00 00       	bra	@r0		
     3e2:	00 00       	bra	@r0		
     3e4:	19 07       	mova	@r7+,	r9	
     3e6:	00 00       	bra	@r0		
     3e8:	80 00 00 00 	bra	#0x00000	
	...
     3f4:	a2 00 00 00 	adda	#0x00000,r2	
	...
     400:	a2 00 00 00 	adda	#0x00000,r2	
     404:	00 00       	bra	@r0		
     406:	00 00       	bra	@r0		
     408:	70 07 00 00 	mova	r7,	0x0000	;PC rel. 0x0040a
     40c:	82 00 00 00 	mova	#0x00000,r2	
	...
     418:	a2 00 00 00 	adda	#0x00000,r2	
     41c:	00 00       	bra	@r0		
     41e:	00 00       	bra	@r0		
     420:	97 07 00 00 	cmpa	#0x70000,r7	
     424:	82 00 00 00 	mova	#0x00000,r2	
     428:	3e 8a       	sub	@r10+,	r14	
     42a:	00 00       	bra	@r0		
     42c:	c0 07       	bra	r7		
     42e:	00 00       	bra	@r0		
     430:	80 00 84 00 	bra	#0x00084	
     434:	00 00       	bra	@r0		
     436:	00 00       	bra	@r0		
     438:	49 08       	rrcm.a	#3,	r9	
     43a:	00 00       	bra	@r0		
     43c:	80 00 94 00 	bra	#0x00094	
     440:	00 00       	bra	@r0		
     442:	00 00       	bra	@r0		
     444:	1a 09       	mova	@r9+,	r10	
     446:	00 00       	bra	@r0		
     448:	80 00 00 00 	bra	#0x00000	
	...
     454:	a2 00 00 00 	adda	#0x00000,r2	
     458:	00 00       	bra	@r0		
     45a:	00 00       	bra	@r0		
     45c:	1a 0a       	mova	@r10+,	r10	
     45e:	00 00       	bra	@r0		
     460:	82 00 00 00 	mova	#0x00000,r2	
     464:	90 a7 00 00 	dadd	0(r7),	0x0a43	;0x0000(r7), PC rel. 0x00ead
     468:	43 0a 
     46a:	00 00       	bra	@r0		
     46c:	80 00 4c 00 	bra	#0x0004c	
     470:	00 00       	bra	@r0		
     472:	00 00       	bra	@r0		
     474:	04 0b       	mova	@r11,	r4	
     476:	00 00       	bra	@r0		
     478:	80 00 5b 00 	bra	#0x0005b	
     47c:	00 00       	bra	@r0		
     47e:	00 00       	bra	@r0		
     480:	c4 0b       	mova	r11,	r4	
     482:	00 00       	bra	@r0		
     484:	80 00 00 00 	bra	#0x00000	
	...
     490:	a2 00 00 00 	adda	#0x00000,r2	
     494:	00 00       	bra	@r0		
     496:	00 00       	bra	@r0		
     498:	0d 0d       	mova	@r13,	r13	
     49a:	00 00       	bra	@r0		
     49c:	82 00 00 00 	mova	#0x00000,r2	
	...
     4a8:	a2 00 00 00 	adda	#0x00000,r2	
     4ac:	00 00       	bra	@r0		
     4ae:	00 00       	bra	@r0		
     4b0:	3b 0d 00 00 	mova	0(r13),	r11	;0x0000(r13)
     4b4:	82 00 00 00 	mova	#0x00000,r2	
	...
     4c0:	a2 00 00 00 	adda	#0x00000,r2	
     4c4:	00 00       	bra	@r0		
     4c6:	00 00       	bra	@r0		
     4c8:	63 0d 00 00 	mova	r13,	&0x30000
     4cc:	82 00 00 00 	mova	#0x00000,r2	
	...
     4d8:	a2 00 00 00 	adda	#0x00000,r2	
     4dc:	00 00       	bra	@r0		
     4de:	00 00       	bra	@r0		
     4e0:	8b 0d 00 00 	mova	#0xd0000,r11	
     4e4:	82 00 00 00 	mova	#0x00000,r2	
     4e8:	0c af       	dadd	r15,	r12	
     4ea:	00 00       	bra	@r0		
     4ec:	b3 0d       	.word	0x0db3;	????	Illegal as address instr
     4ee:	00 00       	bra	@r0		
     4f0:	80 00 2a 00 	bra	#0x0002a	
     4f4:	00 00       	bra	@r0		
     4f6:	00 00       	bra	@r0		
     4f8:	7a 0e 00 00 	mova	r14,	0(r10)	;0x0000(r10)
     4fc:	80 00 36 00 	bra	#0x00036	
     500:	00 00       	bra	@r0		
     502:	00 00       	bra	@r0		
     504:	26 0f 00 00 	mova	&0xf0000,r6	
     508:	80 00 4a 00 	bra	#0x0004a	
     50c:	00 00       	bra	@r0		
     50e:	00 00       	bra	@r0		
     510:	41 10       	rrc.b	r1		
     512:	00 00       	bra	@r0		
     514:	80 00 00 00 	bra	#0x00000	
	...
     520:	a2 00 00 00 	adda	#0x00000,r2	
     524:	00 00       	bra	@r0		
     526:	00 00       	bra	@r0		
     528:	aa 10       	swpb	@r10		
     52a:	00 00       	bra	@r0		
     52c:	82 00 00 00 	mova	#0x00000,r2	
	...
     538:	a2 00 00 00 	adda	#0x00000,r2	
     53c:	00 00       	bra	@r0		
     53e:	00 00       	bra	@r0		
     540:	d2 10       	.word	0x10d2;	????	
     542:	00 00       	bra	@r0		
     544:	82 00 00 00 	mova	#0x00000,r2	
	...
     550:	a2 00 00 00 	adda	#0x00000,r2	
     554:	00 00       	bra	@r0		
     556:	00 00       	bra	@r0		
     558:	f8 10       	.word	0x10f8;	????	
     55a:	00 00       	bra	@r0		
     55c:	82 00 00 00 	mova	#0x00000,r2	
	...
     568:	a2 00 00 00 	adda	#0x00000,r2	
	...
     574:	a2 00 00 00 	adda	#0x00000,r2	
	...
     580:	a2 00 00 00 	adda	#0x00000,r2	
     584:	00 00       	bra	@r0		
     586:	00 00       	bra	@r0		
     588:	21 11       	rra	@r1		
     58a:	00 00       	bra	@r0		
     58c:	24 00 03 00 	mova	&0x00003,r4	
     590:	36 21       	jnz	$+622    	;abs 0x7fe
     592:	00 00       	bra	@r0		
     594:	00 00       	bra	@r0		
     596:	00 00       	bra	@r0		
     598:	44 00       	rrcm.a	#1,	r4	
     59a:	03 00       	.word	0x0003;	????	Illegal as address instr
	...
     5a4:	44 00       	rrcm.a	#1,	r4	
     5a6:	04 00       	mova	@r0,	r4	
     5a8:	04 00       	mova	@r0,	r4	
     5aa:	00 00       	bra	@r0		
     5ac:	00 00       	bra	@r0		
     5ae:	00 00       	bra	@r0		
     5b0:	44 00       	rrcm.a	#1,	r4	
     5b2:	07 00       	mova	@r0,	r7	
     5b4:	06 00       	mova	@r0,	r6	
     5b6:	00 00       	bra	@r0		
     5b8:	00 00       	bra	@r0		
     5ba:	00 00       	bra	@r0		
     5bc:	24 00 00 00 	mova	&0x00000,r4	
     5c0:	0a 00       	mova	@r0,	r10	
     5c2:	00 00       	bra	@r0		
     5c4:	2d 11       	rra	@r13		
     5c6:	00 00       	bra	@r0		
     5c8:	20 00 12 00 	bra	&0x00012	
     5cc:	00 00       	bra	@r0		
     5ce:	00 00       	bra	@r0		
     5d0:	39 11       	rra	@r9+		
     5d2:	00 00       	bra	@r0		
     5d4:	20 00 14 00 	bra	&0x00014	
     5d8:	00 00       	bra	@r0		
     5da:	00 00       	bra	@r0		
     5dc:	46 11       	rra.b	r6		
     5de:	00 00       	bra	@r0		
     5e0:	20 00 16 00 	bra	&0x00016	
     5e4:	00 00       	bra	@r0		
     5e6:	00 00       	bra	@r0		
     5e8:	52 11 00 00 	rra.b	&0x0000	
     5ec:	20 00 18 00 	bra	&0x00018	
     5f0:	00 00       	bra	@r0		
     5f2:	00 00       	bra	@r0		
     5f4:	5f 11 00 00 	rra.b	0(r15)		;0x0000(r15)
     5f8:	20 00 1a 00 	bra	&0x0001a	
     5fc:	00 00       	bra	@r0		
     5fe:	00 00       	bra	@r0		
     600:	6b 11       	rra.b	@r11		
     602:	00 00       	bra	@r0		
     604:	20 00 1c 00 	bra	&0x0001c	
     608:	00 00       	bra	@r0		
     60a:	00 00       	bra	@r0		
     60c:	79 11       	rra.b	@r9+		
     60e:	00 00       	bra	@r0		
     610:	20 00 1e 00 	bra	&0x0001e	
     614:	00 00       	bra	@r0		
     616:	00 00       	bra	@r0		
     618:	87 11       	sxt	r7		
     61a:	00 00       	bra	@r0		
     61c:	20 00 20 00 	bra	&0x00020	
     620:	00 00       	bra	@r0		
     622:	00 00       	bra	@r0		
     624:	96 11 00 00 	sxt	0(r6)		;0x0000(r6)
     628:	20 00 88 00 	bra	&0x00088	
     62c:	00 00       	bra	@r0		
     62e:	00 00       	bra	@r0		
     630:	a3 11       	sxt	#2		;r3 As==10
     632:	00 00       	bra	@r0		
     634:	20 00 8c 00 	bra	&0x0008c	
     638:	00 00       	bra	@r0		
     63a:	00 00       	bra	@r0		
     63c:	b0 11 00 00 	sxt	#0		;#0x0000
     640:	20 00 90 00 	bra	&0x00090	
     644:	00 00       	bra	@r0		
     646:	00 00       	bra	@r0		
     648:	bd 11       	sxt	@r13+		
     64a:	00 00       	bra	@r0		
     64c:	20 00 94 00 	bra	&0x00094	
     650:	00 00       	bra	@r0		
     652:	00 00       	bra	@r0		
     654:	ca 11       	.word	0x11ca;	????	
     656:	00 00       	bra	@r0		
     658:	20 00 98 00 	bra	&0x00098	
     65c:	00 00       	bra	@r0		
     65e:	00 00       	bra	@r0		
     660:	d7 11       	.word	0x11d7;	????	
     662:	00 00       	bra	@r0		
     664:	20 00 9c 00 	bra	&0x0009c	
     668:	00 00       	bra	@r0		
     66a:	00 00       	bra	@r0		
     66c:	e4 11       	.word	0x11e4;	????	
     66e:	00 00       	bra	@r0		
     670:	20 00 7a 00 	bra	&0x0007a	
     674:	00 00       	bra	@r0		
     676:	00 00       	bra	@r0		
     678:	f8 11       	.word	0x11f8;	????	
     67a:	00 00       	bra	@r0		
     67c:	20 00 7c 00 	bra	&0x0007c	
     680:	00 00       	bra	@r0		
     682:	00 00       	bra	@r0		
     684:	05 12       	push	r5		
     686:	00 00       	bra	@r0		
     688:	20 00 7e 00 	bra	&0x0007e	
     68c:	00 00       	bra	@r0		
     68e:	00 00       	bra	@r0		
     690:	12 12 00 00 	push	&0x0000	
     694:	20 00 80 00 	bra	&0x00080	
     698:	00 00       	bra	@r0		
     69a:	00 00       	bra	@r0		
     69c:	1f 12 00 00 	push	0(r15)		;0x0000(r15)
     6a0:	20 00 82 00 	bra	&0x00082	
     6a4:	00 00       	bra	@r0		
     6a6:	00 00       	bra	@r0		
     6a8:	2c 12       	push	@r12		
     6aa:	00 00       	bra	@r0		
     6ac:	20 00 84 00 	bra	&0x00084	
     6b0:	00 00       	bra	@r0		
     6b2:	00 00       	bra	@r0		
     6b4:	38 12       	push	@r8+		
     6b6:	00 00       	bra	@r0		
     6b8:	20 00 86 00 	bra	&0x00086	
     6bc:	00 00       	bra	@r0		
     6be:	00 00       	bra	@r0		
     6c0:	45 12       	push.b	r5		
     6c2:	00 00       	bra	@r0		
     6c4:	20 00 89 00 	bra	&0x00089	
     6c8:	00 00       	bra	@r0		
     6ca:	00 00       	bra	@r0		
     6cc:	52 12 00 00 	push.b	&0x0000	
     6d0:	20 00 8f 00 	bra	&0x0008f	
     6d4:	00 00       	bra	@r0		
     6d6:	00 00       	bra	@r0		
     6d8:	5e 12 00 00 	push.b	0(r14)		;0x0000(r14)
     6dc:	20 00 91 00 	bra	&0x00091	
     6e0:	00 00       	bra	@r0		
     6e2:	00 00       	bra	@r0		
     6e4:	6b 12       	push.b	@r11		
     6e6:	00 00       	bra	@r0		
     6e8:	20 00 93 00 	bra	&0x00093	
     6ec:	00 00       	bra	@r0		
     6ee:	00 00       	bra	@r0		
     6f0:	78 12       	push.b	@r8+		
     6f2:	00 00       	bra	@r0		
     6f4:	20 00 95 00 	bra	&0x00095	
     6f8:	00 00       	bra	@r0		
     6fa:	00 00       	bra	@r0		
     6fc:	85 12       	call	r5		
     6fe:	00 00       	bra	@r0		
     700:	20 00 97 00 	bra	&0x00097	
     704:	00 00       	bra	@r0		
     706:	00 00       	bra	@r0		
     708:	92 12 00 00 	call	&0x0000	
     70c:	20 00 99 00 	bra	&0x00099	
     710:	00 00       	bra	@r0		
     712:	00 00       	bra	@r0		
     714:	9e 12 00 00 	call	0(r14)		;0x0000(r14)
     718:	20 00 9b 00 	bra	&0x0009b	
     71c:	00 00       	bra	@r0		
     71e:	00 00       	bra	@r0		
     720:	ab 12       	call	@r11		
     722:	00 00       	bra	@r0		
     724:	20 00 9e 00 	bra	&0x0009e	
     728:	00 00       	bra	@r0		
     72a:	00 00       	bra	@r0		
     72c:	b8 12       	call	@r8+		
     72e:	00 00       	bra	@r0		
     730:	20 00 a4 00 	bra	&0x000a4	
     734:	00 00       	bra	@r0		
     736:	00 00       	bra	@r0		
     738:	c4 12       	.word	0x12c4;	????	
     73a:	00 00       	bra	@r0		
     73c:	20 00 a6 00 	bra	&0x000a6	
     740:	00 00       	bra	@r0		
     742:	00 00       	bra	@r0		
     744:	d1 12       	.word	0x12d1;	????	
     746:	00 00       	bra	@r0		
     748:	20 00 a8 00 	bra	&0x000a8	
     74c:	00 00       	bra	@r0		
     74e:	00 00       	bra	@r0		
     750:	de 12       	.word	0x12de;	????	
     752:	00 00       	bra	@r0		
     754:	20 00 aa 00 	bra	&0x000aa	
     758:	00 00       	bra	@r0		
     75a:	00 00       	bra	@r0		
     75c:	eb 12       	.word	0x12eb;	????	
     75e:	00 00       	bra	@r0		
     760:	20 00 ad 00 	bra	&0x000ad	
     764:	00 00       	bra	@r0		
     766:	00 00       	bra	@r0		
     768:	f8 12       	.word	0x12f8;	????	
     76a:	00 00       	bra	@r0		
     76c:	20 00 b3 00 	bra	&0x000b3	
     770:	00 00       	bra	@r0		
     772:	00 00       	bra	@r0		
     774:	04 13       	reti			;return from interupt
     776:	00 00       	bra	@r0		
     778:	20 00 b5 00 	bra	&0x000b5	
     77c:	00 00       	bra	@r0		
     77e:	00 00       	bra	@r0		
     780:	11 13       	reti			;return from interupt
     782:	00 00       	bra	@r0		
     784:	20 00 b7 00 	bra	&0x000b7	
     788:	00 00       	bra	@r0		
     78a:	00 00       	bra	@r0		
     78c:	1e 13       	reti			;return from interupt
     78e:	00 00       	bra	@r0		
     790:	20 00 b9 00 	bra	&0x000b9	
     794:	00 00       	bra	@r0		
     796:	00 00       	bra	@r0		
     798:	2b 13       	reti			;return from interupt
     79a:	00 00       	bra	@r0		
     79c:	20 00 bc 00 	bra	&0x000bc	
     7a0:	00 00       	bra	@r0		
     7a2:	00 00       	bra	@r0		
     7a4:	38 13       	reti			;return from interupt
     7a6:	00 00       	bra	@r0		
     7a8:	20 00 c2 00 	bra	&0x000c2	
     7ac:	00 00       	bra	@r0		
     7ae:	00 00       	bra	@r0		
     7b0:	44 13       	calla	r4		
     7b2:	00 00       	bra	@r0		
     7b4:	20 00 c4 00 	bra	&0x000c4	
     7b8:	00 00       	bra	@r0		
     7ba:	00 00       	bra	@r0		
     7bc:	51 13 00 00 	calla	0(r1)		;0x0000(r1)
     7c0:	20 00 c6 00 	bra	&0x000c6	
     7c4:	00 00       	bra	@r0		
     7c6:	00 00       	bra	@r0		
     7c8:	5e 13 00 00 	calla	0(r14)		;0x0000(r14)
     7cc:	20 00 c8 00 	bra	&0x000c8	
     7d0:	00 00       	bra	@r0		
     7d2:	00 00       	bra	@r0		
     7d4:	6b 13       	calla	@r11		
     7d6:	00 00       	bra	@r0		
     7d8:	20 00 cb 00 	bra	&0x000cb	
     7dc:	00 00       	bra	@r0		
     7de:	00 00       	bra	@r0		
     7e0:	78 13       	calla	@r8+		
     7e2:	00 00       	bra	@r0		
     7e4:	20 00 d1 00 	bra	&0x000d1	
     7e8:	00 00       	bra	@r0		
     7ea:	00 00       	bra	@r0		
     7ec:	84 13 00 00 	calla	&0x40000	
     7f0:	20 00 d3 00 	bra	&0x000d3	
     7f4:	00 00       	bra	@r0		
     7f6:	00 00       	bra	@r0		
     7f8:	91 13 00 00 	calla	0x10000	;PC rel. 0x107fc
     7fc:	20 00 d5 00 	bra	&0x000d5	
     800:	00 00       	bra	@r0		
     802:	00 00       	bra	@r0		
     804:	9e 13 00 00 	calla	0xe0000	;PC rel. 0xe0808
     808:	20 00 d7 00 	bra	&0x000d7	
     80c:	00 00       	bra	@r0		
     80e:	00 00       	bra	@r0		
     810:	ab 13       	calla			
     812:	00 00       	bra	@r0		
     814:	20 00 da 00 	bra	&0x000da	
     818:	00 00       	bra	@r0		
     81a:	00 00       	bra	@r0		
     81c:	b8 13 00 00 	calla	#0x80000	
     820:	20 00 e0 00 	bra	&0x000e0	
     824:	00 00       	bra	@r0		
     826:	00 00       	bra	@r0		
     828:	c4 13       	calla			
     82a:	00 00       	bra	@r0		
     82c:	20 00 e2 00 	bra	&0x000e2	
     830:	00 00       	bra	@r0		
     832:	00 00       	bra	@r0		
     834:	d1 13       	calla			
     836:	00 00       	bra	@r0		
     838:	20 00 e4 00 	bra	&0x000e4	
     83c:	00 00       	bra	@r0		
     83e:	00 00       	bra	@r0		
     840:	de 13       	calla			
     842:	00 00       	bra	@r0		
     844:	20 00 e6 00 	bra	&0x000e6	
     848:	00 00       	bra	@r0		
     84a:	00 00       	bra	@r0		
     84c:	eb 13       	calla			
     84e:	00 00       	bra	@r0		
     850:	20 00 e9 00 	bra	&0x000e9	
     854:	00 00       	bra	@r0		
     856:	00 00       	bra	@r0		
     858:	f8 13       	calla			
     85a:	00 00       	bra	@r0		
     85c:	20 00 ef 00 	bra	&0x000ef	
     860:	00 00       	bra	@r0		
     862:	00 00       	bra	@r0		
     864:	04 14       	pushm.a	#1,	r4	
     866:	00 00       	bra	@r0		
     868:	20 00 f1 00 	bra	&0x000f1	
     86c:	00 00       	bra	@r0		
     86e:	00 00       	bra	@r0		
     870:	11 14       	pushm.a	#2,	r1	
     872:	00 00       	bra	@r0		
     874:	20 00 f3 00 	bra	&0x000f3	
     878:	00 00       	bra	@r0		
     87a:	00 00       	bra	@r0		
     87c:	1e 14       	pushm.a	#2,	r14	
     87e:	00 00       	bra	@r0		
     880:	20 00 f5 00 	bra	&0x000f5	
     884:	00 00       	bra	@r0		
     886:	00 00       	bra	@r0		
     888:	2b 14       	pushm.a	#3,	r11	
     88a:	00 00       	bra	@r0		
     88c:	20 00 f8 00 	bra	&0x000f8	
     890:	00 00       	bra	@r0		
     892:	00 00       	bra	@r0		
     894:	38 14       	pushm.a	#4,	r8	
     896:	00 00       	bra	@r0		
     898:	20 00 fc 00 	bra	&0x000fc	
     89c:	00 00       	bra	@r0		
     89e:	00 00       	bra	@r0		
     8a0:	48 14       	pushm.a	#5,	r8	
     8a2:	00 00       	bra	@r0		
     8a4:	20 00 fe 00 	bra	&0x000fe	
     8a8:	00 00       	bra	@r0		
     8aa:	00 00       	bra	@r0		
     8ac:	58 14       	pushm.a	#6,	r8	
     8ae:	00 00       	bra	@r0		
     8b0:	20 00 00 01 	bra	&0x00100	
     8b4:	00 00       	bra	@r0		
     8b6:	00 00       	bra	@r0		
     8b8:	67 14       	pushm.a	#7,	r7	
     8ba:	00 00       	bra	@r0		
     8bc:	20 00 02 01 	bra	&0x00102	
     8c0:	00 00       	bra	@r0		
     8c2:	00 00       	bra	@r0		
     8c4:	76 14       	pushm.a	#8,	r6	
     8c6:	00 00       	bra	@r0		
     8c8:	20 00 04 01 	bra	&0x00104	
     8cc:	00 00       	bra	@r0		
     8ce:	00 00       	bra	@r0		
     8d0:	86 14       	pushm.a	#9,	r6	
     8d2:	00 00       	bra	@r0		
     8d4:	20 00 06 01 	bra	&0x00106	
     8d8:	00 00       	bra	@r0		
     8da:	00 00       	bra	@r0		
     8dc:	96 14       	pushm.a	#10,	r6	
     8de:	00 00       	bra	@r0		
     8e0:	20 00 08 01 	bra	&0x00108	
     8e4:	00 00       	bra	@r0		
     8e6:	00 00       	bra	@r0		
     8e8:	a7 14       	pushm.a	#11,	r7	
     8ea:	00 00       	bra	@r0		
     8ec:	20 00 0a 01 	bra	&0x0010a	
     8f0:	00 00       	bra	@r0		
     8f2:	00 00       	bra	@r0		
     8f4:	b8 14       	pushm.a	#12,	r8	
     8f6:	00 00       	bra	@r0		
     8f8:	20 00 0c 01 	bra	&0x0010c	
     8fc:	00 00       	bra	@r0		
     8fe:	00 00       	bra	@r0		
     900:	c9 14       	pushm.a	#13,	r9	
     902:	00 00       	bra	@r0		
     904:	20 00 0e 01 	bra	&0x0010e	
     908:	00 00       	bra	@r0		
     90a:	00 00       	bra	@r0		
     90c:	db 14       	pushm.a	#14,	r11	
     90e:	00 00       	bra	@r0		
     910:	20 00 10 01 	bra	&0x00110	
     914:	00 00       	bra	@r0		
     916:	00 00       	bra	@r0		
     918:	ed 14       	pushm.a	#15,	r13	
     91a:	00 00       	bra	@r0		
     91c:	20 00 13 01 	bra	&0x00113	
     920:	00 00       	bra	@r0		
     922:	00 00       	bra	@r0		
     924:	fd 14       	pushm.a	#16,	r13	
     926:	00 00       	bra	@r0		
     928:	20 00 15 01 	bra	&0x00115	
     92c:	00 00       	bra	@r0		
     92e:	00 00       	bra	@r0		
     930:	0d 15       	pushm	#1,	r13	
     932:	00 00       	bra	@r0		
     934:	20 00 17 01 	bra	&0x00117	
     938:	00 00       	bra	@r0		
     93a:	00 00       	bra	@r0		
     93c:	1c 15       	pushm	#2,	r12	
     93e:	00 00       	bra	@r0		
     940:	20 00 19 01 	bra	&0x00119	
     944:	00 00       	bra	@r0		
     946:	00 00       	bra	@r0		
     948:	2b 15       	pushm	#3,	r11	
     94a:	00 00       	bra	@r0		
     94c:	20 00 1b 01 	bra	&0x0011b	
     950:	00 00       	bra	@r0		
     952:	00 00       	bra	@r0		
     954:	3c 15       	pushm	#4,	r12	
     956:	00 00       	bra	@r0		
     958:	20 00 1d 01 	bra	&0x0011d	
     95c:	00 00       	bra	@r0		
     95e:	00 00       	bra	@r0		
     960:	4c 15       	pushm	#5,	r12	
     962:	00 00       	bra	@r0		
     964:	20 00 1f 01 	bra	&0x0011f	
     968:	00 00       	bra	@r0		
     96a:	00 00       	bra	@r0		
     96c:	5d 15       	pushm	#6,	r13	
     96e:	00 00       	bra	@r0		
     970:	20 00 21 01 	bra	&0x00121	
     974:	00 00       	bra	@r0		
     976:	00 00       	bra	@r0		
     978:	6e 15       	pushm	#7,	r14	
     97a:	00 00       	bra	@r0		
     97c:	20 00 23 01 	bra	&0x00123	
     980:	00 00       	bra	@r0		
     982:	00 00       	bra	@r0		
     984:	80 15       	pushm	#9,	r0	
     986:	00 00       	bra	@r0		
     988:	20 00 25 01 	bra	&0x00125	
     98c:	00 00       	bra	@r0		
     98e:	00 00       	bra	@r0		
     990:	92 15       	pushm	#10,	r2	
     992:	00 00       	bra	@r0		
     994:	20 00 2c 01 	bra	&0x0012c	
     998:	00 00       	bra	@r0		
     99a:	00 00       	bra	@r0		
     99c:	a2 15       	pushm	#11,	r2	
     99e:	00 00       	bra	@r0		
     9a0:	20 00 2e 01 	bra	&0x0012e	
     9a4:	00 00       	bra	@r0		
     9a6:	00 00       	bra	@r0		
     9a8:	b2 15       	pushm	#12,	r2	
     9aa:	00 00       	bra	@r0		
     9ac:	20 00 30 01 	bra	&0x00130	
     9b0:	00 00       	bra	@r0		
     9b2:	00 00       	bra	@r0		
     9b4:	c1 15       	pushm	#13,	r1	
     9b6:	00 00       	bra	@r0		
     9b8:	20 00 32 01 	bra	&0x00132	
     9bc:	00 00       	bra	@r0		
     9be:	00 00       	bra	@r0		
     9c0:	d0 15       	pushm	#14,	r0	
     9c2:	00 00       	bra	@r0		
     9c4:	20 00 34 01 	bra	&0x00134	
     9c8:	00 00       	bra	@r0		
     9ca:	00 00       	bra	@r0		
     9cc:	e0 15       	pushm	#15,	r0	
     9ce:	00 00       	bra	@r0		
     9d0:	20 00 36 01 	bra	&0x00136	
     9d4:	00 00       	bra	@r0		
     9d6:	00 00       	bra	@r0		
     9d8:	f0 15       	pushm	#16,	r0	
     9da:	00 00       	bra	@r0		
     9dc:	20 00 38 01 	bra	&0x00138	
     9e0:	00 00       	bra	@r0		
     9e2:	00 00       	bra	@r0		
     9e4:	01 16       	popm.a	#1,	r1	
     9e6:	00 00       	bra	@r0		
     9e8:	20 00 3a 01 	bra	&0x0013a	
     9ec:	00 00       	bra	@r0		
     9ee:	00 00       	bra	@r0		
     9f0:	12 16       	popm.a	#2,	#0	;r3 As==00
     9f2:	00 00       	bra	@r0		
     9f4:	20 00 3c 01 	bra	&0x0013c	
     9f8:	00 00       	bra	@r0		
     9fa:	00 00       	bra	@r0		
     9fc:	23 16       	popm.a	#3,	r5	
     9fe:	00 00       	bra	@r0		
     a00:	20 00 3e 01 	bra	&0x0013e	
     a04:	00 00       	bra	@r0		
     a06:	00 00       	bra	@r0		
     a08:	35 16       	popm.a	#4,	r8	
     a0a:	00 00       	bra	@r0		
     a0c:	20 00 40 01 	bra	&0x00140	
     a10:	00 00       	bra	@r0		
     a12:	00 00       	bra	@r0		
     a14:	47 16       	popm.a	#5,	r11	
     a16:	00 00       	bra	@r0		
     a18:	20 00 43 01 	bra	&0x00143	
     a1c:	00 00       	bra	@r0		
     a1e:	00 00       	bra	@r0		
     a20:	57 16       	popm.a	#6,	r12	
     a22:	00 00       	bra	@r0		
     a24:	20 00 45 01 	bra	&0x00145	
     a28:	00 00       	bra	@r0		
     a2a:	00 00       	bra	@r0		
     a2c:	67 16       	popm.a	#7,	r13	
     a2e:	00 00       	bra	@r0		
     a30:	20 00 47 01 	bra	&0x00147	
     a34:	00 00       	bra	@r0		
     a36:	00 00       	bra	@r0		
     a38:	76 16       	popm.a	#8,	r13	
     a3a:	00 00       	bra	@r0		
     a3c:	20 00 49 01 	bra	&0x00149	
     a40:	00 00       	bra	@r0		
     a42:	00 00       	bra	@r0		
     a44:	85 16       	popm.a	#9,	r13	
     a46:	00 00       	bra	@r0		
     a48:	20 00 4b 01 	bra	&0x0014b	
     a4c:	00 00       	bra	@r0		
     a4e:	00 00       	bra	@r0		
     a50:	96 16       	popm.a	#10,	r15	
     a52:	00 00       	bra	@r0		
     a54:	20 00 4d 01 	bra	&0x0014d	
     a58:	00 00       	bra	@r0		
     a5a:	00 00       	bra	@r0		
     a5c:	a6 16       	popm.a	#11,	r0	
     a5e:	00 00       	bra	@r0		
     a60:	20 00 4f 01 	bra	&0x0014f	
     a64:	00 00       	bra	@r0		
     a66:	00 00       	bra	@r0		
     a68:	b7 16       	popm.a	#12,	r2	
     a6a:	00 00       	bra	@r0		
     a6c:	20 00 51 01 	bra	&0x00151	
     a70:	00 00       	bra	@r0		
     a72:	00 00       	bra	@r0		
     a74:	c8 16       	popm.a	#13,	r4	
     a76:	00 00       	bra	@r0		
     a78:	20 00 53 01 	bra	&0x00153	
     a7c:	00 00       	bra	@r0		
     a7e:	00 00       	bra	@r0		
     a80:	da 16       	popm.a	#14,	r7	
     a82:	00 00       	bra	@r0		
     a84:	20 00 55 01 	bra	&0x00155	
     a88:	00 00       	bra	@r0		
     a8a:	00 00       	bra	@r0		
     a8c:	ec 16       	popm.a	#15,	r10	
     a8e:	00 00       	bra	@r0		
     a90:	20 00 58 01 	bra	&0x00158	
     a94:	00 00       	bra	@r0		
     a96:	00 00       	bra	@r0		
     a98:	f9 16       	popm.a	#16,	r8	
     a9a:	00 00       	bra	@r0		
     a9c:	20 00 5a 01 	bra	&0x0015a	
     aa0:	00 00       	bra	@r0		
     aa2:	00 00       	bra	@r0		
     aa4:	07 17       	popm	#1,	r7	
     aa6:	00 00       	bra	@r0		
     aa8:	20 00 1a 00 	bra	&0x0001a	
     aac:	00 00       	bra	@r0		
     aae:	00 00       	bra	@r0		
     ab0:	15 17       	popm	#2,	r6	
     ab2:	00 00       	bra	@r0		
     ab4:	20 00 1c 00 	bra	&0x0001c	
     ab8:	00 00       	bra	@r0		
     aba:	00 00       	bra	@r0		
     abc:	24 17       	popm	#3,	r6	
     abe:	00 00       	bra	@r0		
     ac0:	20 00 1e 00 	bra	&0x0001e	
     ac4:	00 00       	bra	@r0		
     ac6:	00 00       	bra	@r0		
     ac8:	31 17       	popm	#4,	r4	
     aca:	00 00       	bra	@r0		
     acc:	20 00 21 00 	bra	&0x00021	
     ad0:	00 00       	bra	@r0		
     ad2:	00 00       	bra	@r0		
     ad4:	42 17       	popm	#5,	r6	
     ad6:	00 00       	bra	@r0		
     ad8:	20 00 23 00 	bra	&0x00023	
     adc:	00 00       	bra	@r0		
     ade:	00 00       	bra	@r0		
     ae0:	53 17       	popm	#6,	r8	
     ae2:	00 00       	bra	@r0		
     ae4:	20 00 25 00 	bra	&0x00025	
     ae8:	00 00       	bra	@r0		
     aea:	00 00       	bra	@r0		
     aec:	63 17       	popm	#7,	r9	
     aee:	00 00       	bra	@r0		
     af0:	20 00 27 00 	bra	&0x00027	
     af4:	00 00       	bra	@r0		
     af6:	00 00       	bra	@r0		
     af8:	73 17       	popm	#8,	r10	
     afa:	00 00       	bra	@r0		
     afc:	20 00 47 00 	bra	&0x00047	
     b00:	00 00       	bra	@r0		
     b02:	00 00       	bra	@r0		
     b04:	84 17       	popm	#9,	r12	
     b06:	00 00       	bra	@r0		
     b08:	20 00 49 00 	bra	&0x00049	
     b0c:	00 00       	bra	@r0		
     b0e:	00 00       	bra	@r0		
     b10:	94 17       	popm	#10,	r13	
     b12:	00 00       	bra	@r0		
     b14:	20 00 ac 00 	bra	&0x000ac	
     b18:	00 00       	bra	@r0		
     b1a:	00 00       	bra	@r0		
     b1c:	a3 17       	popm	#11,	r13	
     b1e:	00 00       	bra	@r0		
     b20:	20 00 16 00 	bra	&0x00016	
     b24:	00 00       	bra	@r0		
     b26:	00 00       	bra	@r0		
     b28:	b0 17       	popm	#12,	r11	
     b2a:	00 00       	bra	@r0		
     b2c:	20 00 18 00 	bra	&0x00018	
     b30:	00 00       	bra	@r0		
     b32:	00 00       	bra	@r0		
     b34:	be 17       	popm	#12,	r9	
     b36:	00 00       	bra	@r0		
     b38:	20 00 1a 00 	bra	&0x0001a	
     b3c:	00 00       	bra	@r0		
     b3e:	00 00       	bra	@r0		
     b40:	ca 17       	popm	#13,	r6	
     b42:	00 00       	bra	@r0		
     b44:	20 00 1d 00 	bra	&0x0001d	
     b48:	00 00       	bra	@r0		
     b4a:	00 00       	bra	@r0		
     b4c:	da 17       	popm	#14,	r7	
     b4e:	00 00       	bra	@r0		
     b50:	20 00 1f 00 	bra	&0x0001f	
     b54:	00 00       	bra	@r0		
     b56:	00 00       	bra	@r0		
     b58:	ea 17       	popm	#15,	r8	
     b5a:	00 00       	bra	@r0		
     b5c:	20 00 21 00 	bra	&0x00021	
     b60:	00 00       	bra	@r0		
     b62:	00 00       	bra	@r0		
     b64:	fa 17       	popm	#16,	r9	
     b66:	00 00       	bra	@r0		
     b68:	20 00 23 00 	bra	&0x00023	
     b6c:	00 00       	bra	@r0		
     b6e:	00 00       	bra	@r0		
     b70:	09 18       	.word	0x1809;	????	
     b72:	00 00       	bra	@r0		
     b74:	20 00 25 00 	bra	&0x00025	
     b78:	00 00       	bra	@r0		
     b7a:	00 00       	bra	@r0		
     b7c:	18 18       	.word	0x1818;	????	
     b7e:	00 00       	bra	@r0		
     b80:	20 00 27 00 	bra	&0x00027	
     b84:	00 00       	bra	@r0		
     b86:	00 00       	bra	@r0		
     b88:	27 18       	.word	0x1827;	????	
     b8a:	00 00       	bra	@r0		
     b8c:	20 00 2c 00 	bra	&0x0002c	
     b90:	00 00       	bra	@r0		
     b92:	00 00       	bra	@r0		
     b94:	37 18       	.word	0x1837;	????	
     b96:	00 00       	bra	@r0		
     b98:	20 00 2e 00 	bra	&0x0002e	
     b9c:	00 00       	bra	@r0		
     b9e:	00 00       	bra	@r0		
     ba0:	47 18       	.word	0x1847;	????	
     ba2:	00 00       	bra	@r0		
     ba4:	20 00 30 00 	bra	&0x00030	
     ba8:	00 00       	bra	@r0		
     baa:	00 00       	bra	@r0		
     bac:	57 18       	.word	0x1857;	????	
     bae:	00 00       	bra	@r0		
     bb0:	20 00 32 00 	bra	&0x00032	
     bb4:	00 00       	bra	@r0		
     bb6:	00 00       	bra	@r0		
     bb8:	67 18       	.word	0x1867;	????	
     bba:	00 00       	bra	@r0		
     bbc:	20 00 34 00 	bra	&0x00034	
     bc0:	00 00       	bra	@r0		
     bc2:	00 00       	bra	@r0		
     bc4:	76 18       	.word	0x1876;	????	
     bc6:	00 00       	bra	@r0		
     bc8:	20 00 36 00 	bra	&0x00036	
     bcc:	00 00       	bra	@r0		
     bce:	00 00       	bra	@r0		
     bd0:	85 18       	.word	0x1885;	????	
     bd2:	00 00       	bra	@r0		
     bd4:	20 00 38 00 	bra	&0x00038	
     bd8:	00 00       	bra	@r0		
     bda:	00 00       	bra	@r0		
     bdc:	94 18       	.word	0x1894;	????	
     bde:	00 00       	bra	@r0		
     be0:	20 00 3a 00 	bra	&0x0003a	
     be4:	00 00       	bra	@r0		
     be6:	00 00       	bra	@r0		
     be8:	a3 18       	.word	0x18a3;	????	
     bea:	00 00       	bra	@r0		
     bec:	20 00 7a 00 	bra	&0x0007a	
     bf0:	00 00       	bra	@r0		
     bf2:	00 00       	bra	@r0		
     bf4:	b2 18       	.word	0x18b2;	????	
     bf6:	00 00       	bra	@r0		
     bf8:	20 00 14 00 	bra	&0x00014	
     bfc:	00 00       	bra	@r0		
     bfe:	00 00       	bra	@r0		
     c00:	c0 18       	.word	0x18c0;	????	
     c02:	00 00       	bra	@r0		
     c04:	20 00 16 00 	bra	&0x00016	
     c08:	00 00       	bra	@r0		
     c0a:	00 00       	bra	@r0		
     c0c:	cf 18       	.word	0x18cf;	????	
     c0e:	00 00       	bra	@r0		
     c10:	20 00 18 00 	bra	&0x00018	
     c14:	00 00       	bra	@r0		
     c16:	00 00       	bra	@r0		
     c18:	de 18       	.word	0x18de;	????	
     c1a:	00 00       	bra	@r0		
     c1c:	20 00 1b 00 	bra	&0x0001b	
     c20:	00 00       	bra	@r0		
     c22:	00 00       	bra	@r0		
     c24:	ed 18       	.word	0x18ed;	????	
     c26:	00 00       	bra	@r0		
     c28:	20 00 14 00 	bra	&0x00014	
     c2c:	00 00       	bra	@r0		
     c2e:	00 00       	bra	@r0		
     c30:	fb 18       	.word	0x18fb;	????	
     c32:	00 00       	bra	@r0		
     c34:	20 00 16 00 	bra	&0x00016	
     c38:	00 00       	bra	@r0		
     c3a:	00 00       	bra	@r0		
     c3c:	09 19       	.word	0x1909;	????	
     c3e:	00 00       	bra	@r0		
     c40:	20 00 18 00 	bra	&0x00018	
     c44:	00 00       	bra	@r0		
     c46:	00 00       	bra	@r0		
     c48:	17 19       	.word	0x1917;	????	
     c4a:	00 00       	bra	@r0		
     c4c:	20 00 14 00 	bra	&0x00014	
     c50:	00 00       	bra	@r0		
     c52:	00 00       	bra	@r0		
     c54:	25 19       	.word	0x1925;	????	
     c56:	00 00       	bra	@r0		
     c58:	20 00 16 00 	bra	&0x00016	
     c5c:	00 00       	bra	@r0		
     c5e:	00 00       	bra	@r0		
     c60:	33 19       	.word	0x1933;	????	
     c62:	00 00       	bra	@r0		
     c64:	20 00 18 00 	bra	&0x00018	
     c68:	00 00       	bra	@r0		
     c6a:	00 00       	bra	@r0		
     c6c:	3f 19       	.word	0x193f;	????	
     c6e:	00 00       	bra	@r0		
     c70:	20 00 12 00 	bra	&0x00012	
     c74:	00 00       	bra	@r0		
     c76:	00 00       	bra	@r0		
     c78:	51 19       	.word	0x1951;	????	
     c7a:	00 00       	bra	@r0		
     c7c:	20 00 14 00 	bra	&0x00014	
     c80:	00 00       	bra	@r0		
     c82:	00 00       	bra	@r0		
     c84:	63 19       	.word	0x1963;	????	
     c86:	00 00       	bra	@r0		
     c88:	20 00 16 00 	bra	&0x00016	
     c8c:	00 00       	bra	@r0		
     c8e:	00 00       	bra	@r0		
     c90:	74 19       	.word	0x1974;	????	
     c92:	00 00       	bra	@r0		
     c94:	20 00 18 00 	bra	&0x00018	
     c98:	00 00       	bra	@r0		
     c9a:	00 00       	bra	@r0		
     c9c:	84 19       	.word	0x1984;	????	
     c9e:	00 00       	bra	@r0		
     ca0:	20 00 1a 00 	bra	&0x0001a	
     ca4:	00 00       	bra	@r0		
     ca6:	00 00       	bra	@r0		
     ca8:	94 19       	.word	0x1994;	????	
     caa:	00 00       	bra	@r0		
     cac:	20 00 58 00 	bra	&0x00058	
     cb0:	00 00       	bra	@r0		
     cb2:	00 00       	bra	@r0		
     cb4:	a2 19       	.word	0x19a2;	????	
     cb6:	00 00       	bra	@r0		
     cb8:	20 00 64 00 	bra	&0x00064	
     cbc:	00 00       	bra	@r0		
     cbe:	00 00       	bra	@r0		
     cc0:	b4 19       	.word	0x19b4;	????	
     cc2:	00 00       	bra	@r0		
     cc4:	20 00 66 00 	bra	&0x00066	
     cc8:	00 00       	bra	@r0		
     cca:	00 00       	bra	@r0		
     ccc:	c6 19       	.word	0x19c6;	????	
     cce:	00 00       	bra	@r0		
     cd0:	20 00 68 00 	bra	&0x00068	
     cd4:	00 00       	bra	@r0		
     cd6:	00 00       	bra	@r0		
     cd8:	d8 19       	.word	0x19d8;	????	
     cda:	00 00       	bra	@r0		
     cdc:	20 00 6a 00 	bra	&0x0006a	
     ce0:	00 00       	bra	@r0		
     ce2:	00 00       	bra	@r0		
     ce4:	ea 19       	.word	0x19ea;	????	
     ce6:	00 00       	bra	@r0		
     ce8:	20 00 6c 00 	bra	&0x0006c	
     cec:	00 00       	bra	@r0		
     cee:	00 00       	bra	@r0		
     cf0:	fc 19       	.word	0x19fc;	????	
     cf2:	00 00       	bra	@r0		
     cf4:	20 00 6e 00 	bra	&0x0006e	
     cf8:	00 00       	bra	@r0		
     cfa:	00 00       	bra	@r0		
     cfc:	0e 1a       	.word	0x1a0e;	????	
     cfe:	00 00       	bra	@r0		
     d00:	20 00 70 00 	bra	&0x00070	
     d04:	00 00       	bra	@r0		
     d06:	00 00       	bra	@r0		
     d08:	20 1a       	.word	0x1a20;	????	
     d0a:	00 00       	bra	@r0		
     d0c:	20 00 72 00 	bra	&0x00072	
     d10:	00 00       	bra	@r0		
     d12:	00 00       	bra	@r0		
     d14:	32 1a       	.word	0x1a32;	????	
     d16:	00 00       	bra	@r0		
     d18:	20 00 74 00 	bra	&0x00074	
     d1c:	00 00       	bra	@r0		
     d1e:	00 00       	bra	@r0		
     d20:	44 1a       	.word	0x1a44;	????	
     d22:	00 00       	bra	@r0		
     d24:	20 00 76 00 	bra	&0x00076	
     d28:	00 00       	bra	@r0		
     d2a:	00 00       	bra	@r0		
     d2c:	56 1a       	.word	0x1a56;	????	
     d2e:	00 00       	bra	@r0		
     d30:	20 00 78 00 	bra	&0x00078	
     d34:	00 00       	bra	@r0		
     d36:	00 00       	bra	@r0		
     d38:	69 1a       	.word	0x1a69;	????	
     d3a:	00 00       	bra	@r0		
     d3c:	20 00 7a 00 	bra	&0x0007a	
     d40:	00 00       	bra	@r0		
     d42:	00 00       	bra	@r0		
     d44:	7c 1a       	.word	0x1a7c;	????	
     d46:	00 00       	bra	@r0		
     d48:	20 00 7c 00 	bra	&0x0007c	
     d4c:	00 00       	bra	@r0		
     d4e:	00 00       	bra	@r0		
     d50:	8f 1a       	.word	0x1a8f;	????	
     d52:	00 00       	bra	@r0		
     d54:	20 00 7e 00 	bra	&0x0007e	
     d58:	00 00       	bra	@r0		
     d5a:	00 00       	bra	@r0		
     d5c:	a2 1a       	.word	0x1aa2;	????	
     d5e:	00 00       	bra	@r0		
     d60:	20 00 80 00 	bra	&0x00080	
     d64:	00 00       	bra	@r0		
     d66:	00 00       	bra	@r0		
     d68:	b5 1a       	.word	0x1ab5;	????	
     d6a:	00 00       	bra	@r0		
     d6c:	20 00 82 00 	bra	&0x00082	
     d70:	00 00       	bra	@r0		
     d72:	00 00       	bra	@r0		
     d74:	c8 1a       	.word	0x1ac8;	????	
     d76:	00 00       	bra	@r0		
     d78:	20 00 8b 00 	bra	&0x0008b	
     d7c:	00 00       	bra	@r0		
     d7e:	00 00       	bra	@r0		
     d80:	da 1a       	.word	0x1ada;	????	
     d82:	00 00       	bra	@r0		
     d84:	20 00 8d 00 	bra	&0x0008d	
     d88:	00 00       	bra	@r0		
     d8a:	00 00       	bra	@r0		
     d8c:	ec 1a       	.word	0x1aec;	????	
     d8e:	00 00       	bra	@r0		
     d90:	20 00 8f 00 	bra	&0x0008f	
     d94:	00 00       	bra	@r0		
     d96:	00 00       	bra	@r0		
     d98:	fe 1a       	.word	0x1afe;	????	
     d9a:	00 00       	bra	@r0		
     d9c:	20 00 91 00 	bra	&0x00091	
     da0:	00 00       	bra	@r0		
     da2:	00 00       	bra	@r0		
     da4:	10 1b       	.word	0x1b10;	????	
     da6:	00 00       	bra	@r0		
     da8:	20 00 93 00 	bra	&0x00093	
     dac:	00 00       	bra	@r0		
     dae:	00 00       	bra	@r0		
     db0:	22 1b       	.word	0x1b22;	????	
     db2:	00 00       	bra	@r0		
     db4:	20 00 95 00 	bra	&0x00095	
     db8:	00 00       	bra	@r0		
     dba:	00 00       	bra	@r0		
     dbc:	34 1b       	.word	0x1b34;	????	
     dbe:	00 00       	bra	@r0		
     dc0:	20 00 97 00 	bra	&0x00097	
     dc4:	00 00       	bra	@r0		
     dc6:	00 00       	bra	@r0		
     dc8:	46 1b       	.word	0x1b46;	????	
     dca:	00 00       	bra	@r0		
     dcc:	20 00 99 00 	bra	&0x00099	
     dd0:	00 00       	bra	@r0		
     dd2:	00 00       	bra	@r0		
     dd4:	58 1b       	.word	0x1b58;	????	
     dd6:	00 00       	bra	@r0		
     dd8:	20 00 9b 00 	bra	&0x0009b	
     ddc:	00 00       	bra	@r0		
     dde:	00 00       	bra	@r0		
     de0:	6a 1b       	.word	0x1b6a;	????	
     de2:	00 00       	bra	@r0		
     de4:	20 00 9d 00 	bra	&0x0009d	
     de8:	00 00       	bra	@r0		
     dea:	00 00       	bra	@r0		
     dec:	7c 1b       	.word	0x1b7c;	????	
     dee:	00 00       	bra	@r0		
     df0:	20 00 9f 00 	bra	&0x0009f	
     df4:	00 00       	bra	@r0		
     df6:	00 00       	bra	@r0		
     df8:	8f 1b       	.word	0x1b8f;	????	
     dfa:	00 00       	bra	@r0		
     dfc:	20 00 a1 00 	bra	&0x000a1	
     e00:	00 00       	bra	@r0		
     e02:	00 00       	bra	@r0		
     e04:	a2 1b       	.word	0x1ba2;	????	
     e06:	00 00       	bra	@r0		
     e08:	20 00 a3 00 	bra	&0x000a3	
     e0c:	00 00       	bra	@r0		
     e0e:	00 00       	bra	@r0		
     e10:	b5 1b       	.word	0x1bb5;	????	
     e12:	00 00       	bra	@r0		
     e14:	20 00 a5 00 	bra	&0x000a5	
     e18:	00 00       	bra	@r0		
     e1a:	00 00       	bra	@r0		
     e1c:	c8 1b       	.word	0x1bc8;	????	
     e1e:	00 00       	bra	@r0		
     e20:	20 00 a7 00 	bra	&0x000a7	
     e24:	00 00       	bra	@r0		
     e26:	00 00       	bra	@r0		
     e28:	db 1b       	.word	0x1bdb;	????	
     e2a:	00 00       	bra	@r0		
     e2c:	20 00 a9 00 	bra	&0x000a9	
     e30:	00 00       	bra	@r0		
     e32:	00 00       	bra	@r0		
     e34:	ee 1b       	.word	0x1bee;	????	
     e36:	00 00       	bra	@r0		
     e38:	20 00 12 00 	bra	&0x00012	
     e3c:	00 00       	bra	@r0		
     e3e:	00 00       	bra	@r0		
     e40:	01 1c       	.word	0x1c01;	????	
     e42:	00 00       	bra	@r0		
     e44:	20 00 14 00 	bra	&0x00014	
     e48:	00 00       	bra	@r0		
     e4a:	00 00       	bra	@r0		
     e4c:	14 1c       	.word	0x1c14;	????	
     e4e:	00 00       	bra	@r0		
     e50:	20 00 16 00 	bra	&0x00016	
     e54:	00 00       	bra	@r0		
     e56:	00 00       	bra	@r0		
     e58:	27 1c       	.word	0x1c27;	????	
     e5a:	00 00       	bra	@r0		
     e5c:	20 00 18 00 	bra	&0x00018	
     e60:	00 00       	bra	@r0		
     e62:	00 00       	bra	@r0		
     e64:	3a 1c       	.word	0x1c3a;	????	
     e66:	00 00       	bra	@r0		
     e68:	20 00 18 00 	bra	&0x00018	
     e6c:	00 00       	bra	@r0		
     e6e:	00 00       	bra	@r0		
     e70:	4a 1c       	.word	0x1c4a;	????	
     e72:	00 00       	bra	@r0		
     e74:	20 00 1a 00 	bra	&0x0001a	
     e78:	00 00       	bra	@r0		
     e7a:	00 00       	bra	@r0		
     e7c:	5a 1c       	.word	0x1c5a;	????	
     e7e:	00 00       	bra	@r0		
     e80:	20 00 1d 00 	bra	&0x0001d	
     e84:	00 00       	bra	@r0		
     e86:	00 00       	bra	@r0		
     e88:	68 1c       	.word	0x1c68;	????	
     e8a:	00 00       	bra	@r0		
     e8c:	20 00 3f 00 	bra	&0x0003f	
     e90:	00 00       	bra	@r0		
     e92:	00 00       	bra	@r0		
     e94:	78 1c       	.word	0x1c78;	????	
     e96:	00 00       	bra	@r0		
     e98:	20 00 41 00 	bra	&0x00041	
     e9c:	00 00       	bra	@r0		
     e9e:	00 00       	bra	@r0		
     ea0:	8d 1c       	.word	0x1c8d;	????	
     ea2:	00 00       	bra	@r0		
     ea4:	20 00 43 00 	bra	&0x00043	
     ea8:	00 00       	bra	@r0		
     eaa:	00 00       	bra	@r0		
     eac:	9d 1c       	.word	0x1c9d;	????	
     eae:	00 00       	bra	@r0		
     eb0:	20 00 45 00 	bra	&0x00045	
     eb4:	00 00       	bra	@r0		
     eb6:	00 00       	bra	@r0		
     eb8:	ab 1c       	.word	0x1cab;	????	
     eba:	00 00       	bra	@r0		
     ebc:	20 00 47 00 	bra	&0x00047	
     ec0:	00 00       	bra	@r0		
     ec2:	00 00       	bra	@r0		
     ec4:	bb 1c       	.word	0x1cbb;	????	
     ec6:	00 00       	bra	@r0		
     ec8:	20 00 49 00 	bra	&0x00049	
     ecc:	00 00       	bra	@r0		
     ece:	00 00       	bra	@r0		
     ed0:	ca 1c       	.word	0x1cca;	????	
     ed2:	00 00       	bra	@r0		
     ed4:	20 00 4c 00 	bra	&0x0004c	
     ed8:	00 00       	bra	@r0		
     eda:	00 00       	bra	@r0		
     edc:	da 1c       	.word	0x1cda;	????	
     ede:	00 00       	bra	@r0		
     ee0:	20 00 4e 00 	bra	&0x0004e	
     ee4:	00 00       	bra	@r0		
     ee6:	00 00       	bra	@r0		
     ee8:	e8 1c       	.word	0x1ce8;	????	
     eea:	00 00       	bra	@r0		
     eec:	20 00 50 00 	bra	&0x00050	
     ef0:	00 00       	bra	@r0		
     ef2:	00 00       	bra	@r0		
     ef4:	f8 1c       	.word	0x1cf8;	????	
     ef6:	00 00       	bra	@r0		
     ef8:	20 00 52 00 	bra	&0x00052	
     efc:	00 00       	bra	@r0		
     efe:	00 00       	bra	@r0		
     f00:	07 1d       	.word	0x1d07;	????	
     f02:	00 00       	bra	@r0		
     f04:	20 00 54 00 	bra	&0x00054	
     f08:	00 00       	bra	@r0		
     f0a:	00 00       	bra	@r0		
     f0c:	17 1d       	.word	0x1d17;	????	
     f0e:	00 00       	bra	@r0		
     f10:	20 00 56 00 	bra	&0x00056	
     f14:	00 00       	bra	@r0		
     f16:	00 00       	bra	@r0		
     f18:	26 1d       	.word	0x1d26;	????	
     f1a:	00 00       	bra	@r0		
     f1c:	20 00 59 00 	bra	&0x00059	
     f20:	00 00       	bra	@r0		
     f22:	00 00       	bra	@r0		
     f24:	36 1d       	.word	0x1d36;	????	
     f26:	00 00       	bra	@r0		
     f28:	20 00 5b 00 	bra	&0x0005b	
     f2c:	00 00       	bra	@r0		
     f2e:	00 00       	bra	@r0		
     f30:	44 1d       	.word	0x1d44;	????	
     f32:	00 00       	bra	@r0		
     f34:	20 00 5d 00 	bra	&0x0005d	
     f38:	00 00       	bra	@r0		
     f3a:	00 00       	bra	@r0		
     f3c:	54 1d       	.word	0x1d54;	????	
     f3e:	00 00       	bra	@r0		
     f40:	20 00 5f 00 	bra	&0x0005f	
     f44:	00 00       	bra	@r0		
     f46:	00 00       	bra	@r0		
     f48:	62 1d       	.word	0x1d62;	????	
     f4a:	00 00       	bra	@r0		
     f4c:	20 00 61 00 	bra	&0x00061	
     f50:	00 00       	bra	@r0		
     f52:	00 00       	bra	@r0		
     f54:	72 1d       	.word	0x1d72;	????	
     f56:	00 00       	bra	@r0		
     f58:	20 00 63 00 	bra	&0x00063	
     f5c:	00 00       	bra	@r0		
     f5e:	00 00       	bra	@r0		
     f60:	81 1d       	.word	0x1d81;	????	
     f62:	00 00       	bra	@r0		
     f64:	20 00 47 00 	bra	&0x00047	
     f68:	00 00       	bra	@r0		
     f6a:	00 00       	bra	@r0		
     f6c:	90 1d       	.word	0x1d90;	????	
     f6e:	00 00       	bra	@r0		
     f70:	20 00 45 00 	bra	&0x00045	
     f74:	00 00       	bra	@r0		
     f76:	00 00       	bra	@r0		
     f78:	9b 1d       	.word	0x1d9b;	????	
     f7a:	00 00       	bra	@r0		
     f7c:	20 00 4c 00 	bra	&0x0004c	
     f80:	00 00       	bra	@r0		
     f82:	00 00       	bra	@r0		
     f84:	a7 1d       	.word	0x1da7;	????	
     f86:	00 00       	bra	@r0		
     f88:	20 00 54 00 	bra	&0x00054	
     f8c:	00 00       	bra	@r0		
     f8e:	00 00       	bra	@r0		
     f90:	b2 1d       	.word	0x1db2;	????	
     f92:	00 00       	bra	@r0		
     f94:	20 00 5c 00 	bra	&0x0005c	
     f98:	00 00       	bra	@r0		
     f9a:	00 00       	bra	@r0		
     f9c:	be 1d       	.word	0x1dbe;	????	
     f9e:	00 00       	bra	@r0		
     fa0:	20 00 6e 00 	bra	&0x0006e	
     fa4:	00 00       	bra	@r0		
     fa6:	00 00       	bra	@r0		
     fa8:	d3 1d       	.word	0x1dd3;	????	
     faa:	00 00       	bra	@r0		
     fac:	20 00 70 00 	bra	&0x00070	
     fb0:	00 00       	bra	@r0		
     fb2:	00 00       	bra	@r0		
     fb4:	e9 1d       	.word	0x1de9;	????	
     fb6:	00 00       	bra	@r0		
     fb8:	20 00 72 00 	bra	&0x00072	
     fbc:	00 00       	bra	@r0		
     fbe:	00 00       	bra	@r0		
     fc0:	ff 1d       	.word	0x1dff;	????	
     fc2:	00 00       	bra	@r0		
     fc4:	20 00 74 00 	bra	&0x00074	
     fc8:	00 00       	bra	@r0		
     fca:	00 00       	bra	@r0		
     fcc:	16 1e       	.word	0x1e16;	????	
     fce:	00 00       	bra	@r0		
     fd0:	20 00 76 00 	bra	&0x00076	
     fd4:	00 00       	bra	@r0		
     fd6:	00 00       	bra	@r0		
     fd8:	2d 1e       	.word	0x1e2d;	????	
     fda:	00 00       	bra	@r0		
     fdc:	20 00 93 00 	bra	&0x00093	
     fe0:	00 00       	bra	@r0		
     fe2:	00 00       	bra	@r0		
     fe4:	41 1e       	.word	0x1e41;	????	
     fe6:	00 00       	bra	@r0		
     fe8:	20 00 95 00 	bra	&0x00095	
     fec:	00 00       	bra	@r0		
     fee:	00 00       	bra	@r0		
     ff0:	55 1e       	.word	0x1e55;	????	
     ff2:	00 00       	bra	@r0		
     ff4:	20 00 97 00 	bra	&0x00097	
     ff8:	00 00       	bra	@r0		
     ffa:	00 00       	bra	@r0		
     ffc:	69 1e       	.word	0x1e69;	????	
     ffe:	00 00       	bra	@r0		
    1000:	20 00 99 00 	bra	&0x00099	
    1004:	00 00       	bra	@r0		
    1006:	00 00       	bra	@r0		
    1008:	7d 1e       	.word	0x1e7d;	????	
    100a:	00 00       	bra	@r0		
    100c:	20 00 9b 00 	bra	&0x0009b	
    1010:	00 00       	bra	@r0		
    1012:	00 00       	bra	@r0		
    1014:	90 1e       	.word	0x1e90;	????	
    1016:	00 00       	bra	@r0		
    1018:	20 00 9d 00 	bra	&0x0009d	
    101c:	00 00       	bra	@r0		
    101e:	00 00       	bra	@r0		
    1020:	a3 1e       	.word	0x1ea3;	????	
    1022:	00 00       	bra	@r0		
    1024:	20 00 9f 00 	bra	&0x0009f	
    1028:	00 00       	bra	@r0		
    102a:	00 00       	bra	@r0		
    102c:	b6 1e       	.word	0x1eb6;	????	
    102e:	00 00       	bra	@r0		
    1030:	20 00 a1 00 	bra	&0x000a1	
	...
    103c:	64 00 00 00 	mova	r0,	&0x40000
    1040:	40 21       	jnz	$+642    	;abs 0x12c2
	...
Disassembly of section .stabstr:

00000000 <.stabstr>:
       0:	00 43       	clr	r0		
       2:	3a 2f       	jc	$-394    	;abs 0xfe78
       4:	44 4f       	mov.b	r15,	r4	
       6:	4b 55       	add.b	r5,	r11	
       8:	4d 45       	mov.b	r5,	r13	
       a:	7e 31       	jn	$+766    	;abs 0x308
       c:	2f 77       	subc	@r7,	r15	
       e:	6f 72       	subc.b	#4,	r15	;r2 As==10
      10:	6b 2f       	jc	$-296    	;abs 0xfee8
      12:	4c 4f       	mov.b	r15,	r12	
      14:	4b 41       	mov.b	r1,	r11	
      16:	4c 45       	mov.b	r5,	r12	
      18:	7e 31       	jn	$+766    	;abs 0x316
      1a:	2f 54       	add	@r4,	r15	
      1c:	65 6d       	addc.b	@r13,	r5	
      1e:	70 2f       	jc	$-286    	;abs 0xff00
      20:	63 63       	.word	0x6363;	????	Illegal as 2-op instr
      22:	70 48       	br	@r8+		
      24:	45 51       	add.b	r1,	r5	
      26:	33 61       	.word	0x6133;	????	Illegal as 2-op instr
      28:	2e 73       	subc	#2,	r14	;r3 As==10
      2a:	00 67       	addc	r7,	r0	
      2c:	63 72       	.word	0x7263;	????	Illegal as 2-op instr
      2e:	74 30       	jn	$+234    	;abs 0x118
      30:	2e 53       	incd	r14		
      32:	00 43       	clr	r0		
      34:	3a 5c       	add	@r12+,	r10	
      36:	55 73       	subc.b	#1,	r5	;r3 As==01
      38:	65 72       	subc.b	#4,	r5	;r2 As==10
      3a:	73 5c       	.word	0x5c73;	????	Illegal as 2-op instr
      3c:	76 61       	addc.b	@r1+,	r6	
      3e:	67 69       	addc.b	@r9,	r7	
      40:	6e 61       	addc.b	@r1,	r14	
      42:	5c 44 6f 63 	mov.b	25455(r4),r12	;0x636f(r4)
      46:	75 6d       	addc.b	@r13+,	r5	
      48:	65 6e       	addc.b	@r14,	r5	
      4a:	74 73       	subc.b	#-1,	r4	;r3 As==11
      4c:	5c 4d 69 63 	mov.b	25449(r13),r12	;0x6369(r13)
      50:	72 6f       	addc.b	@r15+,	r2	
      52:	51 75 61 64 	subc.b	25697(r5),r1	;0x6461(r5)
      56:	2f 00 6d 61 	mova	&0x0616d,r15	
      5a:	69 6e       	addc.b	@r14,	r9	
      5c:	2e 63       	addc	#2,	r14	;r3 As==10
      5e:	00 67       	addc	r7,	r0	
      60:	63 63       	.word	0x6363;	????	Illegal as 2-op instr
      62:	32 5f       	add	@r15+,	r2	
      64:	63 6f       	.word	0x6f63;	????	Illegal as 2-op instr
      66:	6d 70       	subc.b	@r0,	r13	
      68:	69 6c       	addc.b	@r12,	r9	
      6a:	65 64       	addc.b	@r4,	r5	
      6c:	2e 00 69 6e 	mova	&0x06e69,r14	
      70:	74 3a       	jl	$-790    	;abs 0xfd5a
      72:	74 28       	jnc	$+234    	;abs 0x15c
      74:	30 2c       	jc	$+98     	;abs 0xd6
      76:	31 29       	jnc	$+612    	;abs 0x2da
      78:	3d 72       	subc	#8,	r13	;r2 As==11
      7a:	28 30       	jn	$+82     	;abs 0xcc
      7c:	2c 31       	jn	$+602    	;abs 0x2d6
      7e:	29 3b       	jl	$-428    	;abs 0xfed2
      80:	2d 33       	jn	$-420    	;abs 0xfedc
      82:	32 37       	jge	$-410    	;abs 0xfee8
      84:	36 38       	jl	$+110    	;abs 0xf2
      86:	3b 33       	jn	$-392    	;abs 0xfefe
      88:	32 37       	jge	$-410    	;abs 0xfeee
      8a:	36 37       	jge	$-402    	;abs 0xfef8
      8c:	3b 00 63 68 	mova	0x6863,	r11	;PC rel. 0x068f1
      90:	61 72       	subc.b	#4,	r1	;r2 As==10
      92:	3a 74       	subc	@r4+,	r10	
      94:	28 30       	jn	$+82     	;abs 0xe6
      96:	2c 32       	jn	$-934    	;abs 0xfcf0
      98:	29 3d       	jmp	$+596    	;abs 0x2ec
      9a:	72 28       	jnc	$+230    	;abs 0x180
      9c:	30 2c       	jc	$+98     	;abs 0xfe
      9e:	32 29       	jnc	$+614    	;abs 0x304
      a0:	3b 30       	jn	$+120    	;abs 0x118
      a2:	3b 31       	jn	$+632    	;abs 0x31a
      a4:	32 37       	jge	$-410    	;abs 0xff0a
      a6:	3b 00 6c 6f 	mova	0x6f6c,	r11	;PC rel. 0x07014
      aa:	6e 67       	addc.b	@r7,	r14	
      ac:	20 69       	addc	@r9,	r0	
      ae:	6e 74       	subc.b	@r4,	r14	
      b0:	3a 74       	subc	@r4+,	r10	
      b2:	28 30       	jn	$+82     	;abs 0x104
      b4:	2c 33       	jn	$-422    	;abs 0xff0e
      b6:	29 3d       	jmp	$+596    	;abs 0x30a
      b8:	40 73       	sbc.b	r0		
      ba:	33 32       	jn	$-920    	;abs 0xfd22
      bc:	3b 72       	subc	#8,	r11	;r2 As==11
      be:	28 30       	jn	$+82     	;abs 0x110
      c0:	2c 33       	jn	$-422    	;abs 0xff1a
      c2:	29 3b       	jl	$-428    	;abs 0xff16
      c4:	30 30       	jn	$+98     	;abs 0x126
      c6:	32 30       	jn	$+102    	;abs 0x12c
      c8:	30 30       	jn	$+98     	;abs 0x12a
      ca:	30 30       	jn	$+98     	;abs 0x12c
      cc:	30 30       	jn	$+98     	;abs 0x12e
      ce:	30 30       	jn	$+98     	;abs 0x130
      d0:	30 3b       	jl	$-414    	;abs 0xff32
      d2:	30 30       	jn	$+98     	;abs 0x134
      d4:	31 37       	jge	$-412    	;abs 0xff38
      d6:	37 37       	jge	$-400    	;abs 0xff46
      d8:	37 37       	jge	$-400    	;abs 0xff48
      da:	37 37       	jge	$-400    	;abs 0xff4a
      dc:	37 37       	jge	$-400    	;abs 0xff4c
      de:	37 3b       	jl	$-400    	;abs 0xff4e
      e0:	00 75       	subc	r5,	r0	
      e2:	6e 73       	subc.b	#2,	r14	;r3 As==10
      e4:	69 67       	addc.b	@r7,	r9	
      e6:	6e 65       	addc.b	@r5,	r14	
      e8:	64 20       	jnz	$+202    	;abs 0x1b2
      ea:	69 6e       	addc.b	@r14,	r9	
      ec:	74 3a       	jl	$-790    	;abs 0xfdd6
      ee:	74 28       	jnc	$+234    	;abs 0x1d8
      f0:	30 2c       	jc	$+98     	;abs 0x152
      f2:	34 29       	jnc	$+618    	;abs 0x35c
      f4:	3d 72       	subc	#8,	r13	;r2 As==11
      f6:	28 30       	jn	$+82     	;abs 0x148
      f8:	2c 34       	jge	$+90     	;abs 0x152
      fa:	29 3b       	jl	$-428    	;abs 0xff4e
      fc:	30 30       	jn	$+98     	;abs 0x15e
      fe:	30 30       	jn	$+98     	;abs 0x160
     100:	30 30       	jn	$+98     	;abs 0x162
     102:	30 30       	jn	$+98     	;abs 0x164
     104:	30 30       	jn	$+98     	;abs 0x166
     106:	30 30       	jn	$+98     	;abs 0x168
     108:	30 3b       	jl	$-414    	;abs 0xff6a
     10a:	30 30       	jn	$+98     	;abs 0x16c
     10c:	30 30       	jn	$+98     	;abs 0x16e
     10e:	30 30       	jn	$+98     	;abs 0x170
     110:	30 31       	jn	$+610    	;abs 0x372
     112:	37 37       	jge	$-400    	;abs 0xff82
     114:	37 37       	jge	$-400    	;abs 0xff84
     116:	37 3b       	jl	$-400    	;abs 0xff86
     118:	00 6c       	addc	r12,	r0	
     11a:	6f 6e       	addc.b	@r14,	r15	
     11c:	67 20       	jnz	$+208    	;abs 0x1ec
     11e:	75 6e       	addc.b	@r14+,	r5	
     120:	73 69       	.word	0x6973;	????	Illegal as 2-op instr
     122:	67 6e       	addc.b	@r14,	r7	
     124:	65 64       	addc.b	@r4,	r5	
     126:	20 69       	addc	@r9,	r0	
     128:	6e 74       	subc.b	@r4,	r14	
     12a:	3a 74       	subc	@r4+,	r10	
     12c:	28 30       	jn	$+82     	;abs 0x17e
     12e:	2c 35       	jge	$+602    	;abs 0x388
     130:	29 3d       	jmp	$+596    	;abs 0x384
     132:	40 73       	sbc.b	r0		
     134:	33 32       	jn	$-920    	;abs 0xfd9c
     136:	3b 72       	subc	#8,	r11	;r2 As==11
     138:	28 30       	jn	$+82     	;abs 0x18a
     13a:	2c 35       	jge	$+602    	;abs 0x394
     13c:	29 3b       	jl	$-428    	;abs 0xff90
     13e:	30 30       	jn	$+98     	;abs 0x1a0
     140:	30 30       	jn	$+98     	;abs 0x1a2
     142:	30 30       	jn	$+98     	;abs 0x1a4
     144:	30 30       	jn	$+98     	;abs 0x1a6
     146:	30 30       	jn	$+98     	;abs 0x1a8
     148:	30 30       	jn	$+98     	;abs 0x1aa
     14a:	30 3b       	jl	$-414    	;abs 0xffac
     14c:	30 30       	jn	$+98     	;abs 0x1ae
     14e:	33 37       	jge	$-408    	;abs 0xffb6
     150:	37 37       	jge	$-400    	;abs 0xffc0
     152:	37 37       	jge	$-400    	;abs 0xffc2
     154:	37 37       	jge	$-400    	;abs 0xffc4
     156:	37 37       	jge	$-400    	;abs 0xffc6
     158:	37 3b       	jl	$-400    	;abs 0xffc8
     15a:	00 6c       	addc	r12,	r0	
     15c:	6f 6e       	addc.b	@r14,	r15	
     15e:	67 20       	jnz	$+208    	;abs 0x22e
     160:	6c 6f       	addc.b	@r15,	r12	
     162:	6e 67       	addc.b	@r7,	r14	
     164:	20 69       	addc	@r9,	r0	
     166:	6e 74       	subc.b	@r4,	r14	
     168:	3a 74       	subc	@r4+,	r10	
     16a:	28 30       	jn	$+82     	;abs 0x1bc
     16c:	2c 36       	jge	$-934    	;abs 0xfdc6
     16e:	29 3d       	jmp	$+596    	;abs 0x3c2
     170:	40 73       	sbc.b	r0		
     172:	36 34       	jge	$+110    	;abs 0x1e0
     174:	3b 72       	subc	#8,	r11	;r2 As==11
     176:	28 30       	jn	$+82     	;abs 0x1c8
     178:	2c 36       	jge	$-934    	;abs 0xfdd2
     17a:	29 3b       	jl	$-428    	;abs 0xffce
     17c:	30 31       	jn	$+610    	;abs 0x3de
     17e:	30 30       	jn	$+98     	;abs 0x1e0
     180:	30 30       	jn	$+98     	;abs 0x1e2
     182:	30 30       	jn	$+98     	;abs 0x1e4
     184:	30 30       	jn	$+98     	;abs 0x1e6
     186:	30 30       	jn	$+98     	;abs 0x1e8
     188:	30 30       	jn	$+98     	;abs 0x1ea
     18a:	30 30       	jn	$+98     	;abs 0x1ec
     18c:	30 30       	jn	$+98     	;abs 0x1ee
     18e:	30 30       	jn	$+98     	;abs 0x1f0
     190:	30 30       	jn	$+98     	;abs 0x1f2
     192:	30 3b       	jl	$-414    	;abs 0xfff4
     194:	30 37       	jge	$-414    	;abs 0xfff6
     196:	37 37       	jge	$-400    	;abs 0x6
     198:	37 37       	jge	$-400    	;abs 0x8
     19a:	37 37       	jge	$-400    	;abs 0xa
     19c:	37 37       	jge	$-400    	;abs 0xc
     19e:	37 37       	jge	$-400    	;abs 0xe
     1a0:	37 37       	jge	$-400    	;abs 0x10
     1a2:	37 37       	jge	$-400    	;abs 0x12
     1a4:	37 37       	jge	$-400    	;abs 0x14
     1a6:	37 37       	jge	$-400    	;abs 0x16
     1a8:	37 37       	jge	$-400    	;abs 0x18
     1aa:	3b 00 6c 6f 	mova	0x6f6c,	r11	;PC rel. 0x07118
     1ae:	6e 67       	addc.b	@r7,	r14	
     1b0:	20 6c       	addc	@r12,	r0	
     1b2:	6f 6e       	addc.b	@r14,	r15	
     1b4:	67 20       	jnz	$+208    	;abs 0x284
     1b6:	75 6e       	addc.b	@r14+,	r5	
     1b8:	73 69       	.word	0x6973;	????	Illegal as 2-op instr
     1ba:	67 6e       	addc.b	@r14,	r7	
     1bc:	65 64       	addc.b	@r4,	r5	
     1be:	20 69       	addc	@r9,	r0	
     1c0:	6e 74       	subc.b	@r4,	r14	
     1c2:	3a 74       	subc	@r4+,	r10	
     1c4:	28 30       	jn	$+82     	;abs 0x216
     1c6:	2c 37       	jge	$-422    	;abs 0x20
     1c8:	29 3d       	jmp	$+596    	;abs 0x41c
     1ca:	40 73       	sbc.b	r0		
     1cc:	36 34       	jge	$+110    	;abs 0x23a
     1ce:	3b 72       	subc	#8,	r11	;r2 As==11
     1d0:	28 30       	jn	$+82     	;abs 0x222
     1d2:	2c 37       	jge	$-422    	;abs 0x2c
     1d4:	29 3b       	jl	$-428    	;abs 0x28
     1d6:	30 30       	jn	$+98     	;abs 0x238
     1d8:	30 30       	jn	$+98     	;abs 0x23a
     1da:	30 30       	jn	$+98     	;abs 0x23c
     1dc:	30 30       	jn	$+98     	;abs 0x23e
     1de:	30 30       	jn	$+98     	;abs 0x240
     1e0:	30 30       	jn	$+98     	;abs 0x242
     1e2:	30 3b       	jl	$-414    	;abs 0x44
     1e4:	30 31       	jn	$+610    	;abs 0x446
     1e6:	37 37       	jge	$-400    	;abs 0x56
     1e8:	37 37       	jge	$-400    	;abs 0x58
     1ea:	37 37       	jge	$-400    	;abs 0x5a
     1ec:	37 37       	jge	$-400    	;abs 0x5c
     1ee:	37 37       	jge	$-400    	;abs 0x5e
     1f0:	37 37       	jge	$-400    	;abs 0x60
     1f2:	37 37       	jge	$-400    	;abs 0x62
     1f4:	37 37       	jge	$-400    	;abs 0x64
     1f6:	37 37       	jge	$-400    	;abs 0x66
     1f8:	37 37       	jge	$-400    	;abs 0x68
     1fa:	37 3b       	jl	$-400    	;abs 0x6a
     1fc:	00 73       	sbc	r0		
     1fe:	68 6f       	addc.b	@r15,	r8	
     200:	72 74       	subc.b	@r4+,	r2	
     202:	20 69       	addc	@r9,	r0	
     204:	6e 74       	subc.b	@r4,	r14	
     206:	3a 74       	subc	@r4+,	r10	
     208:	28 30       	jn	$+82     	;abs 0x25a
     20a:	2c 38       	jl	$+90     	;abs 0x264
     20c:	29 3d       	jmp	$+596    	;abs 0x460
     20e:	72 28       	jnc	$+230    	;abs 0x2f4
     210:	30 2c       	jc	$+98     	;abs 0x272
     212:	38 29       	jnc	$+626    	;abs 0x484
     214:	3b 2d       	jc	$+632    	;abs 0x48c
     216:	33 32       	jn	$-920    	;abs 0xfe7e
     218:	37 36       	jge	$-912    	;abs 0xfe88
     21a:	38 3b       	jl	$-398    	;abs 0x8c
     21c:	33 32       	jn	$-920    	;abs 0xfe84
     21e:	37 36       	jge	$-912    	;abs 0xfe8e
     220:	37 3b       	jl	$-400    	;abs 0x90
     222:	00 73       	sbc	r0		
     224:	68 6f       	addc.b	@r15,	r8	
     226:	72 74       	subc.b	@r4+,	r2	
     228:	20 75       	subc	@r5,	r0	
     22a:	6e 73       	subc.b	#2,	r14	;r3 As==10
     22c:	69 67       	addc.b	@r7,	r9	
     22e:	6e 65       	addc.b	@r5,	r14	
     230:	64 20       	jnz	$+202    	;abs 0x2fa
     232:	69 6e       	addc.b	@r14,	r9	
     234:	74 3a       	jl	$-790    	;abs 0xff1e
     236:	74 28       	jnc	$+234    	;abs 0x320
     238:	30 2c       	jc	$+98     	;abs 0x29a
     23a:	39 29       	jnc	$+628    	;abs 0x4ae
     23c:	3d 72       	subc	#8,	r13	;r2 As==11
     23e:	28 30       	jn	$+82     	;abs 0x290
     240:	2c 39       	jl	$+602    	;abs 0x49a
     242:	29 3b       	jl	$-428    	;abs 0x96
     244:	30 30       	jn	$+98     	;abs 0x2a6
     246:	30 30       	jn	$+98     	;abs 0x2a8
     248:	30 30       	jn	$+98     	;abs 0x2aa
     24a:	30 30       	jn	$+98     	;abs 0x2ac
     24c:	30 30       	jn	$+98     	;abs 0x2ae
     24e:	30 30       	jn	$+98     	;abs 0x2b0
     250:	30 3b       	jl	$-414    	;abs 0xb2
     252:	30 30       	jn	$+98     	;abs 0x2b4
     254:	30 30       	jn	$+98     	;abs 0x2b6
     256:	30 30       	jn	$+98     	;abs 0x2b8
     258:	30 31       	jn	$+610    	;abs 0x4ba
     25a:	37 37       	jge	$-400    	;abs 0xca
     25c:	37 37       	jge	$-400    	;abs 0xcc
     25e:	37 3b       	jl	$-400    	;abs 0xce
     260:	00 73       	sbc	r0		
     262:	69 67       	addc.b	@r7,	r9	
     264:	6e 65       	addc.b	@r5,	r14	
     266:	64 20       	jnz	$+202    	;abs 0x330
     268:	63 68       	.word	0x6863;	????	Illegal as 2-op instr
     26a:	61 72       	subc.b	#4,	r1	;r2 As==10
     26c:	3a 74       	subc	@r4+,	r10	
     26e:	28 30       	jn	$+82     	;abs 0x2c0
     270:	2c 31       	jn	$+602    	;abs 0x4ca
     272:	30 29       	jnc	$+610    	;abs 0x4d4
     274:	3d 40 73 38 	mov	#14451,	r13	;#0x3873
     278:	3b 72       	subc	#8,	r11	;r2 As==11
     27a:	28 30       	jn	$+82     	;abs 0x2cc
     27c:	2c 31       	jn	$+602    	;abs 0x4d6
     27e:	30 29       	jnc	$+610    	;abs 0x4e0
     280:	3b 2d       	jc	$+632    	;abs 0x4f8
     282:	31 32       	jn	$-924    	;abs 0xfee6
     284:	38 3b       	jl	$-398    	;abs 0xf6
     286:	31 32       	jn	$-924    	;abs 0xfeea
     288:	37 3b       	jl	$-400    	;abs 0xf8
     28a:	00 75       	subc	r5,	r0	
     28c:	6e 73       	subc.b	#2,	r14	;r3 As==10
     28e:	69 67       	addc.b	@r7,	r9	
     290:	6e 65       	addc.b	@r5,	r14	
     292:	64 20       	jnz	$+202    	;abs 0x35c
     294:	63 68       	.word	0x6863;	????	Illegal as 2-op instr
     296:	61 72       	subc.b	#4,	r1	;r2 As==10
     298:	3a 74       	subc	@r4+,	r10	
     29a:	28 30       	jn	$+82     	;abs 0x2ec
     29c:	2c 31       	jn	$+602    	;abs 0x4f6
     29e:	31 29       	jnc	$+612    	;abs 0x502
     2a0:	3d 40 73 38 	mov	#14451,	r13	;#0x3873
     2a4:	3b 72       	subc	#8,	r11	;r2 As==11
     2a6:	28 30       	jn	$+82     	;abs 0x2f8
     2a8:	2c 31       	jn	$+602    	;abs 0x502
     2aa:	31 29       	jnc	$+612    	;abs 0x50e
     2ac:	3b 30       	jn	$+120    	;abs 0x324
     2ae:	3b 32       	jn	$-904    	;abs 0xff26
     2b0:	35 35       	jge	$+620    	;abs 0x51c
     2b2:	3b 00 66 6c 	mova	0x6c66,	r11	;PC rel. 0x06f1a
     2b6:	6f 61       	addc.b	@r1,	r15	
     2b8:	74 3a       	jl	$-790    	;abs 0xffa2
     2ba:	74 28       	jnc	$+234    	;abs 0x3a4
     2bc:	30 2c       	jc	$+98     	;abs 0x31e
     2be:	31 32       	jn	$-924    	;abs 0xff22
     2c0:	29 3d       	jmp	$+596    	;abs 0x514
     2c2:	72 28       	jnc	$+230    	;abs 0x3a8
     2c4:	30 2c       	jc	$+98     	;abs 0x326
     2c6:	31 29       	jnc	$+612    	;abs 0x52a
     2c8:	3b 34       	jge	$+120    	;abs 0x340
     2ca:	3b 30       	jn	$+120    	;abs 0x342
     2cc:	3b 00 64 6f 	mova	0x6f64,	r11	;PC rel. 0x07232
     2d0:	75 62       	addc.b	#8,	r5	;r2 As==11
     2d2:	6c 65       	addc.b	@r5,	r12	
     2d4:	3a 74       	subc	@r4+,	r10	
     2d6:	28 30       	jn	$+82     	;abs 0x328
     2d8:	2c 31       	jn	$+602    	;abs 0x532
     2da:	33 29       	jnc	$+616    	;abs 0x542
     2dc:	3d 72       	subc	#8,	r13	;r2 As==11
     2de:	28 30       	jn	$+82     	;abs 0x330
     2e0:	2c 31       	jn	$+602    	;abs 0x53a
     2e2:	29 3b       	jl	$-428    	;abs 0x136
     2e4:	34 3b       	jl	$-406    	;abs 0x14e
     2e6:	30 3b       	jl	$-414    	;abs 0x148
     2e8:	00 6c       	addc	r12,	r0	
     2ea:	6f 6e       	addc.b	@r14,	r15	
     2ec:	67 20       	jnz	$+208    	;abs 0x3bc
     2ee:	64 6f       	addc.b	@r15,	r4	
     2f0:	75 62       	addc.b	#8,	r5	;r2 As==11
     2f2:	6c 65       	addc.b	@r5,	r12	
     2f4:	3a 74       	subc	@r4+,	r10	
     2f6:	28 30       	jn	$+82     	;abs 0x348
     2f8:	2c 31       	jn	$+602    	;abs 0x552
     2fa:	34 29       	jnc	$+618    	;abs 0x564
     2fc:	3d 72       	subc	#8,	r13	;r2 As==11
     2fe:	28 30       	jn	$+82     	;abs 0x350
     300:	2c 31       	jn	$+602    	;abs 0x55a
     302:	29 3b       	jl	$-428    	;abs 0x156
     304:	34 3b       	jl	$-406    	;abs 0x16e
     306:	30 3b       	jl	$-414    	;abs 0x168
     308:	00 63       	adc	r0		
     30a:	6f 6d       	addc.b	@r13,	r15	
     30c:	70 6c       	addc.b	@r12+,	r0	
     30e:	65 78       	subc.b	@r8,	r5	
     310:	20 69       	addc	@r9,	r0	
     312:	6e 74       	subc.b	@r4,	r14	
     314:	3a 74       	subc	@r4+,	r10	
     316:	28 30       	jn	$+82     	;abs 0x368
     318:	2c 31       	jn	$+602    	;abs 0x572
     31a:	35 29       	jnc	$+620    	;abs 0x586
     31c:	3d 73       	subc	#-1,	r13	;r3 As==11
     31e:	34 72       	subc	#8,	r4	;r2 As==11
     320:	65 61       	addc.b	@r1,	r5	
     322:	6c 3a       	jl	$-806    	;abs 0xfffc
     324:	28 30       	jn	$+82     	;abs 0x376
     326:	2c 31       	jn	$+602    	;abs 0x580
     328:	29 2c       	jc	$+84     	;abs 0x37c
     32a:	30 2c       	jc	$+98     	;abs 0x38c
     32c:	31 36       	jge	$-924    	;abs 0xff90
     32e:	3b 69       	addc	@r9+,	r11	
     330:	6d 61       	addc.b	@r1,	r13	
     332:	67 3a       	jl	$-816    	;abs 0x2
     334:	28 30       	jn	$+82     	;abs 0x386
     336:	2c 31       	jn	$+602    	;abs 0x590
     338:	29 2c       	jc	$+84     	;abs 0x38c
     33a:	31 36       	jge	$-924    	;abs 0xff9e
     33c:	2c 31       	jn	$+602    	;abs 0x596
     33e:	36 3b       	jl	$-402    	;abs 0x1ac
     340:	3b 00 63 6f 	mova	0x6f63,	r11	;PC rel. 0x072a5
     344:	6d 70       	subc.b	@r0,	r13	
     346:	6c 65       	addc.b	@r5,	r12	
     348:	78 20       	jnz	$+242    	;abs 0x43a
     34a:	66 6c       	addc.b	@r12,	r6	
     34c:	6f 61       	addc.b	@r1,	r15	
     34e:	74 3a       	jl	$-790    	;abs 0x38
     350:	74 28       	jnc	$+234    	;abs 0x43a
     352:	30 2c       	jc	$+98     	;abs 0x3b4
     354:	31 36       	jge	$-924    	;abs 0xffb8
     356:	29 3d       	jmp	$+596    	;abs 0x5aa
     358:	52 33       	jn	$-346    	;abs 0x1fe
     35a:	3b 38       	jl	$+120    	;abs 0x3d2
     35c:	3b 30       	jn	$+120    	;abs 0x3d4
     35e:	3b 00 63 6f 	mova	0x6f63,	r11	;PC rel. 0x072c3
     362:	6d 70       	subc.b	@r0,	r13	
     364:	6c 65       	addc.b	@r5,	r12	
     366:	78 20       	jnz	$+242    	;abs 0x458
     368:	64 6f       	addc.b	@r15,	r4	
     36a:	75 62       	addc.b	#8,	r5	;r2 As==11
     36c:	6c 65       	addc.b	@r5,	r12	
     36e:	3a 74       	subc	@r4+,	r10	
     370:	28 30       	jn	$+82     	;abs 0x3c2
     372:	2c 31       	jn	$+602    	;abs 0x5cc
     374:	37 29       	jnc	$+624    	;abs 0x5e4
     376:	3d 52       	add	#8,	r13	;r2 As==11
     378:	33 3b       	jl	$-408    	;abs 0x1e0
     37a:	38 3b       	jl	$-398    	;abs 0x1ec
     37c:	30 3b       	jl	$-414    	;abs 0x1de
     37e:	00 63       	adc	r0		
     380:	6f 6d       	addc.b	@r13,	r15	
     382:	70 6c       	addc.b	@r12+,	r0	
     384:	65 78       	subc.b	@r8,	r5	
     386:	20 6c       	addc	@r12,	r0	
     388:	6f 6e       	addc.b	@r14,	r15	
     38a:	67 20       	jnz	$+208    	;abs 0x45a
     38c:	64 6f       	addc.b	@r15,	r4	
     38e:	75 62       	addc.b	#8,	r5	;r2 As==11
     390:	6c 65       	addc.b	@r5,	r12	
     392:	3a 74       	subc	@r4+,	r10	
     394:	28 30       	jn	$+82     	;abs 0x3e6
     396:	2c 31       	jn	$+602    	;abs 0x5f0
     398:	38 29       	jnc	$+626    	;abs 0x60a
     39a:	3d 52       	add	#8,	r13	;r2 As==11
     39c:	33 3b       	jl	$-408    	;abs 0x204
     39e:	38 3b       	jl	$-398    	;abs 0x210
     3a0:	30 3b       	jl	$-414    	;abs 0x202
     3a2:	00 5f       	add	r15,	r0	
     3a4:	5f 62 75 69 	addc.b	&0x6975,r15	
     3a8:	6c 74       	subc.b	@r4,	r12	
     3aa:	69 6e       	addc.b	@r14,	r9	
     3ac:	5f 76 61 5f 	subc.b	24417(r6),r15	;0x5f61(r6)
     3b0:	6c 69       	addc.b	@r9,	r12	
     3b2:	73 74       	.word	0x7473;	????	Illegal as 2-op instr
     3b4:	3a 74       	subc	@r4+,	r10	
     3b6:	28 30       	jn	$+82     	;abs 0x408
     3b8:	2c 31       	jn	$+602    	;abs 0x612
     3ba:	39 29       	jnc	$+628    	;abs 0x62e
     3bc:	3d 2a       	jnc	$-900    	;abs 0x38
     3be:	28 30       	jn	$+82     	;abs 0x410
     3c0:	2c 32       	jn	$-934    	;abs 0x1a
     3c2:	30 29       	jnc	$+610    	;abs 0x624
     3c4:	3d 28       	jnc	$+124    	;abs 0x440
     3c6:	30 2c       	jc	$+98     	;abs 0x428
     3c8:	32 30       	jn	$+102    	;abs 0x42e
     3ca:	29 00 5f 42 	mova	&0x0425f,r9	
     3ce:	6f 6f       	addc.b	@r15,	r15	
     3d0:	6c 3a       	jl	$-806    	;abs 0xaa
     3d2:	74 28       	jnc	$+234    	;abs 0x4bc
     3d4:	30 2c       	jc	$+98     	;abs 0x436
     3d6:	32 31       	jn	$+614    	;abs 0x63c
     3d8:	29 3d       	jmp	$+596    	;abs 0x62c
     3da:	40 73       	sbc.b	r0		
     3dc:	38 3b       	jl	$-398    	;abs 0x24e
     3de:	2d 31       	jn	$+604    	;abs 0x63a
     3e0:	36 3b       	jl	$-402    	;abs 0x24e
     3e2:	00 70       	subc	r0,	r0	
     3e4:	69 6e       	addc.b	@r14,	r9	
     3e6:	73 2e       	jc	$-792    	;abs 0xce
     3e8:	68 00 63 3a 	mova	r0,	&0x83a63
     3ec:	2f 6d       	addc	@r13,	r15	
     3ee:	73 70       	.word	0x7073;	????	Illegal as 2-op instr
     3f0:	67 63       	addc.b	#2,	r7	;r3 As==10
     3f2:	63 2f       	jc	$-312    	;abs 0x2ba
     3f4:	6d 73       	subc.b	#2,	r13	;r3 As==10
     3f6:	70 34       	jge	$+226    	;abs 0x4d8
     3f8:	33 30       	jn	$+104    	;abs 0x460
     3fa:	2f 69       	addc	@r9,	r15	
     3fc:	6e 63       	addc.b	#2,	r14	;r3 As==10
     3fe:	6c 75       	subc.b	@r5,	r12	
     400:	64 65       	addc.b	@r5,	r4	
     402:	2f 6d       	addc	@r13,	r15	
     404:	73 70       	.word	0x7073;	????	Illegal as 2-op instr
     406:	34 33       	jn	$-406    	;abs 0x270
     408:	30 78       	subc	@r8+,	r0	
     40a:	32 36       	jge	$-922    	;abs 0x70
     40c:	31 78       	subc	@r8+,	r1	
     40e:	2e 68       	addc	@r8,	r14	
     410:	00 63       	adc	r0		
     412:	3a 2f       	jc	$-394    	;abs 0x288
     414:	6d 73       	subc.b	#2,	r13	;r3 As==10
     416:	70 67       	addc.b	@r7+,	r0	
     418:	63 63       	.word	0x6363;	????	Illegal as 2-op instr
     41a:	2f 6d       	addc	@r13,	r15	
     41c:	73 70       	.word	0x7073;	????	Illegal as 2-op instr
     41e:	34 33       	jn	$-406    	;abs 0x288
     420:	30 2f       	jc	$-414    	;abs 0x282
     422:	69 6e       	addc.b	@r14,	r9	
     424:	63 6c       	.word	0x6c63;	????	Illegal as 2-op instr
     426:	75 64       	addc.b	@r4+,	r5	
     428:	65 2f       	jc	$-308    	;abs 0x2f4
     42a:	69 6f       	addc.b	@r15,	r9	
     42c:	6d 61       	addc.b	@r1,	r13	
     42e:	63 72       	.word	0x7263;	????	Illegal as 2-op instr
     430:	6f 73       	subc.b	#2,	r15	;r3 As==10
     432:	2e 68       	addc	@r8,	r14	
     434:	00 63       	adc	r0		
     436:	3a 2f       	jc	$-394    	;abs 0x2ac
     438:	6d 73       	subc.b	#2,	r13	;r3 As==10
     43a:	70 67       	addc.b	@r7+,	r0	
     43c:	63 63       	.word	0x6363;	????	Illegal as 2-op instr
     43e:	2f 6d       	addc	@r13,	r15	
     440:	73 70       	.word	0x7073;	????	Illegal as 2-op instr
     442:	34 33       	jn	$-406    	;abs 0x2ac
     444:	30 2f       	jc	$-414    	;abs 0x2a6
     446:	69 6e       	addc.b	@r14,	r9	
     448:	63 6c       	.word	0x6c63;	????	Illegal as 2-op instr
     44a:	75 64       	addc.b	@r4+,	r5	
     44c:	65 2f       	jc	$-308    	;abs 0x318
     44e:	73 79       	.word	0x7973;	????	Illegal as 2-op instr
     450:	73 2f       	jc	$-280    	;abs 0x338
     452:	69 6e       	addc.b	@r14,	r9	
     454:	74 74       	subc.b	@r4+,	r4	
     456:	79 70 65 73 	subc.b	#29541,	r9	;#0x7365
     45a:	2e 68       	addc	@r8,	r14	
     45c:	00 69       	addc	r9,	r0	
     45e:	6e 74       	subc.b	@r4,	r14	
     460:	38 5f       	add	@r15+,	r8	
     462:	74 3a       	jl	$-790    	;abs 0x14c
     464:	74 28       	jnc	$+234    	;abs 0x54e
     466:	35 2c       	jc	$+108    	;abs 0x4d2
     468:	31 29       	jnc	$+612    	;abs 0x6cc
     46a:	3d 28       	jnc	$+124    	;abs 0x4e6
     46c:	30 2c       	jc	$+98     	;abs 0x4ce
     46e:	31 30       	jn	$+100    	;abs 0x4d2
     470:	29 00 75 69 	mova	&0x06975,r9	
     474:	6e 74       	subc.b	@r4,	r14	
     476:	38 5f       	add	@r15+,	r8	
     478:	74 3a       	jl	$-790    	;abs 0x162
     47a:	74 28       	jnc	$+234    	;abs 0x564
     47c:	35 2c       	jc	$+108    	;abs 0x4e8
     47e:	32 29       	jnc	$+614    	;abs 0x6e4
     480:	3d 28       	jnc	$+124    	;abs 0x4fc
     482:	30 2c       	jc	$+98     	;abs 0x4e4
     484:	31 31       	jn	$+612    	;abs 0x6e8
     486:	29 00 69 6e 	mova	&0x06e69,r9	
     48a:	74 31       	jn	$+746    	;abs 0x774
     48c:	36 5f       	add	@r15+,	r6	
     48e:	74 3a       	jl	$-790    	;abs 0x178
     490:	74 28       	jnc	$+234    	;abs 0x57a
     492:	35 2c       	jc	$+108    	;abs 0x4fe
     494:	33 29       	jnc	$+616    	;abs 0x6fc
     496:	3d 28       	jnc	$+124    	;abs 0x512
     498:	30 2c       	jc	$+98     	;abs 0x4fa
     49a:	31 29       	jnc	$+612    	;abs 0x6fe
     49c:	00 75       	subc	r5,	r0	
     49e:	69 6e       	addc.b	@r14,	r9	
     4a0:	74 31       	jn	$+746    	;abs 0x78a
     4a2:	36 5f       	add	@r15+,	r6	
     4a4:	74 3a       	jl	$-790    	;abs 0x18e
     4a6:	74 28       	jnc	$+234    	;abs 0x590
     4a8:	35 2c       	jc	$+108    	;abs 0x514
     4aa:	34 29       	jnc	$+618    	;abs 0x714
     4ac:	3d 28       	jnc	$+124    	;abs 0x528
     4ae:	30 2c       	jc	$+98     	;abs 0x510
     4b0:	34 29       	jnc	$+618    	;abs 0x71a
     4b2:	00 69       	addc	r9,	r0	
     4b4:	6e 74       	subc.b	@r4,	r14	
     4b6:	33 32       	jn	$-920    	;abs 0x11e
     4b8:	5f 74 3a 74 	subc.b	29754(r4),r15	;0x743a(r4)
     4bc:	28 35       	jge	$+594    	;abs 0x70e
     4be:	2c 35       	jge	$+602    	;abs 0x718
     4c0:	29 3d       	jmp	$+596    	;abs 0x714
     4c2:	28 30       	jn	$+82     	;abs 0x514
     4c4:	2c 33       	jn	$-422    	;abs 0x31e
     4c6:	29 00 75 69 	mova	&0x06975,r9	
     4ca:	6e 74       	subc.b	@r4,	r14	
     4cc:	33 32       	jn	$-920    	;abs 0x134
     4ce:	5f 74 3a 74 	subc.b	29754(r4),r15	;0x743a(r4)
     4d2:	28 35       	jge	$+594    	;abs 0x724
     4d4:	2c 36       	jge	$-934    	;abs 0x12e
     4d6:	29 3d       	jmp	$+596    	;abs 0x72a
     4d8:	28 30       	jn	$+82     	;abs 0x52a
     4da:	2c 35       	jge	$+602    	;abs 0x734
     4dc:	29 00 69 6e 	mova	&0x06e69,r9	
     4e0:	74 36       	jge	$-790    	;abs 0x1ca
     4e2:	34 5f       	add	@r15+,	r4	
     4e4:	74 3a       	jl	$-790    	;abs 0x1ce
     4e6:	74 28       	jnc	$+234    	;abs 0x5d0
     4e8:	35 2c       	jc	$+108    	;abs 0x554
     4ea:	37 29       	jnc	$+624    	;abs 0x75a
     4ec:	3d 28       	jnc	$+124    	;abs 0x568
     4ee:	30 2c       	jc	$+98     	;abs 0x550
     4f0:	36 29       	jnc	$+622    	;abs 0x75e
     4f2:	00 75       	subc	r5,	r0	
     4f4:	69 6e       	addc.b	@r14,	r9	
     4f6:	74 36       	jge	$-790    	;abs 0x1e0
     4f8:	34 5f       	add	@r15+,	r4	
     4fa:	74 3a       	jl	$-790    	;abs 0x1e4
     4fc:	74 28       	jnc	$+234    	;abs 0x5e6
     4fe:	35 2c       	jc	$+108    	;abs 0x56a
     500:	38 29       	jnc	$+626    	;abs 0x772
     502:	3d 28       	jnc	$+124    	;abs 0x57e
     504:	30 2c       	jc	$+98     	;abs 0x566
     506:	37 29       	jnc	$+624    	;abs 0x776
     508:	00 69       	addc	r9,	r0	
     50a:	6e 74       	subc.b	@r4,	r14	
     50c:	70 74       	subc.b	@r4+,	r0	
     50e:	72 5f       	add.b	@r15+,	r2	
     510:	74 3a       	jl	$-790    	;abs 0x1fa
     512:	74 28       	jnc	$+234    	;abs 0x5fc
     514:	35 2c       	jc	$+108    	;abs 0x580
     516:	39 29       	jnc	$+628    	;abs 0x78a
     518:	3d 28       	jnc	$+124    	;abs 0x594
     51a:	35 2c       	jc	$+108    	;abs 0x586
     51c:	33 29       	jnc	$+616    	;abs 0x784
     51e:	00 75       	subc	r5,	r0	
     520:	69 6e       	addc.b	@r14,	r9	
     522:	74 70 74 72 	subc.b	#29300,	r4	;#0x7274
     526:	5f 74 3a 74 	subc.b	29754(r4),r15	;0x743a(r4)
     52a:	28 35       	jge	$+594    	;abs 0x77c
     52c:	2c 31       	jn	$+602    	;abs 0x786
     52e:	30 29       	jnc	$+610    	;abs 0x790
     530:	3d 28       	jnc	$+124    	;abs 0x5ac
     532:	35 2c       	jc	$+108    	;abs 0x59e
     534:	34 29       	jnc	$+618    	;abs 0x79e
     536:	00 63       	adc	r0		
     538:	3a 2f       	jc	$-394    	;abs 0x3ae
     53a:	6d 73       	subc.b	#2,	r13	;r3 As==10
     53c:	70 67       	addc.b	@r7+,	r0	
     53e:	63 63       	.word	0x6363;	????	Illegal as 2-op instr
     540:	2f 6d       	addc	@r13,	r15	
     542:	73 70       	.word	0x7073;	????	Illegal as 2-op instr
     544:	34 33       	jn	$-406    	;abs 0x3ae
     546:	30 2f       	jc	$-414    	;abs 0x3a8
     548:	69 6e       	addc.b	@r14,	r9	
     54a:	63 6c       	.word	0x6c63;	????	Illegal as 2-op instr
     54c:	75 64       	addc.b	@r4+,	r5	
     54e:	65 2f       	jc	$-308    	;abs 0x41a
     550:	6d 73       	subc.b	#2,	r13	;r3 As==10
     552:	70 34       	jge	$+226    	;abs 0x634
     554:	33 30       	jn	$+104    	;abs 0x5bc
     556:	2f 6d       	addc	@r13,	r15	
     558:	70 79       	subc.b	@r9+,	r0	
     55a:	2e 68       	addc	@r8,	r14	
     55c:	00 63       	adc	r0		
     55e:	3a 2f       	jc	$-394    	;abs 0x3d4
     560:	6d 73       	subc.b	#2,	r13	;r3 As==10
     562:	70 67       	addc.b	@r7+,	r0	
     564:	63 63       	.word	0x6363;	????	Illegal as 2-op instr
     566:	2f 6d       	addc	@r13,	r15	
     568:	73 70       	.word	0x7073;	????	Illegal as 2-op instr
     56a:	34 33       	jn	$-406    	;abs 0x3d4
     56c:	30 2f       	jc	$-414    	;abs 0x3ce
     56e:	69 6e       	addc.b	@r14,	r9	
     570:	63 6c       	.word	0x6c63;	????	Illegal as 2-op instr
     572:	75 64       	addc.b	@r4+,	r5	
     574:	65 2f       	jc	$-308    	;abs 0x440
     576:	6d 73       	subc.b	#2,	r13	;r3 As==10
     578:	70 34       	jge	$+226    	;abs 0x65a
     57a:	33 30       	jn	$+104    	;abs 0x5e2
     57c:	2f 67       	addc	@r7,	r15	
     57e:	70 69       	addc.b	@r9+,	r0	
     580:	6f 2e       	jc	$-800    	;abs 0x260
     582:	68 00 63 3a 	mova	r0,	&0x83a63
     586:	2f 6d       	addc	@r13,	r15	
     588:	73 70       	.word	0x7073;	????	Illegal as 2-op instr
     58a:	67 63       	addc.b	#2,	r7	;r3 As==10
     58c:	63 2f       	jc	$-312    	;abs 0x454
     58e:	6d 73       	subc.b	#2,	r13	;r3 As==10
     590:	70 34       	jge	$+226    	;abs 0x672
     592:	33 30       	jn	$+104    	;abs 0x5fa
     594:	2f 69       	addc	@r9,	r15	
     596:	6e 63       	addc.b	#2,	r14	;r3 As==10
     598:	6c 75       	subc.b	@r5,	r12	
     59a:	64 65       	addc.b	@r5,	r4	
     59c:	2f 6d       	addc	@r13,	r15	
     59e:	73 70       	.word	0x7073;	????	Illegal as 2-op instr
     5a0:	34 33       	jn	$-406    	;abs 0x40a
     5a2:	30 2f       	jc	$-414    	;abs 0x404
     5a4:	69 6f       	addc.b	@r15,	r9	
     5a6:	73 74       	.word	0x7473;	????	Illegal as 2-op instr
     5a8:	72 75       	subc.b	@r5+,	r2	
     5aa:	63 74       	.word	0x7463;	????	Illegal as 2-op instr
     5ac:	75 72       	subc.b	#8,	r5	;r2 As==11
     5ae:	65 73       	subc.b	#2,	r5	;r3 As==10
     5b0:	2e 68       	addc	@r8,	r14	
     5b2:	00 70       	subc	r0,	r0	
     5b4:	6f 72       	subc.b	#4,	r15	;r2 As==10
     5b6:	74 3a       	jl	$-790    	;abs 0x2a0
     5b8:	54 28       	jnc	$+170    	;abs 0x662
     5ba:	38 2c       	jc	$+114    	;abs 0x62c
     5bc:	31 29       	jnc	$+612    	;abs 0x820
     5be:	3d 75       	subc	@r5+,	r13	
     5c0:	32 72       	subc	#8,	r2	;r2 As==11
     5c2:	65 67       	addc.b	@r7,	r5	
     5c4:	5f 70 3a 28 	subc.b	0x283a,	r15	;PC rel. 0x02e02
     5c8:	30 2c       	jc	$+98     	;abs 0x62a
     5ca:	31 31       	jn	$+612    	;abs 0x82e
     5cc:	29 2c       	jc	$+84     	;abs 0x620
     5ce:	30 2c       	jc	$+98     	;abs 0x630
     5d0:	38 3b       	jl	$-398    	;abs 0x442
     5d2:	5f 5f 70 69 	add.b	26992(r15),r15	;0x6970(r15)
     5d6:	6e 3a       	jl	$-802    	;abs 0x2b4
     5d8:	28 38       	jl	$+82     	;abs 0x62a
     5da:	2c 32       	jn	$-934    	;abs 0x234
     5dc:	29 3d       	jmp	$+596    	;abs 0x830
     5de:	73 32       	jn	$-792    	;abs 0x2c6
     5e0:	5f 5f 70 30 	add.b	12400(r15),r15	;0x3070(r15)
     5e4:	3a 28       	jnc	$+118    	;abs 0x65a
     5e6:	30 2c       	jc	$+98     	;abs 0x648
     5e8:	31 31       	jn	$+612    	;abs 0x84c
     5ea:	29 2c       	jc	$+84     	;abs 0x63e
     5ec:	30 2c       	jc	$+98     	;abs 0x64e
     5ee:	31 3b       	jl	$-412    	;abs 0x452
     5f0:	5f 5f 70 31 	add.b	12656(r15),r15	;0x3170(r15)
     5f4:	3a 28       	jnc	$+118    	;abs 0x66a
     5f6:	30 2c       	jc	$+98     	;abs 0x658
     5f8:	31 31       	jn	$+612    	;abs 0x85c
     5fa:	29 2c       	jc	$+84     	;abs 0x64e
     5fc:	31 2c       	jc	$+100    	;abs 0x660
     5fe:	31 3b       	jl	$-412    	;abs 0x462
     600:	5f 5f 70 32 	add.b	12912(r15),r15	;0x3270(r15)
     604:	3a 28       	jnc	$+118    	;abs 0x67a
     606:	30 2c       	jc	$+98     	;abs 0x668
     608:	31 31       	jn	$+612    	;abs 0x86c
     60a:	29 2c       	jc	$+84     	;abs 0x65e
     60c:	32 2c       	jc	$+102    	;abs 0x672
     60e:	31 3b       	jl	$-412    	;abs 0x472
     610:	5f 5f 70 33 	add.b	13168(r15),r15	;0x3370(r15)
     614:	3a 28       	jnc	$+118    	;abs 0x68a
     616:	30 2c       	jc	$+98     	;abs 0x678
     618:	31 31       	jn	$+612    	;abs 0x87c
     61a:	29 2c       	jc	$+84     	;abs 0x66e
     61c:	33 2c       	jc	$+104    	;abs 0x684
     61e:	31 3b       	jl	$-412    	;abs 0x482
     620:	5f 5f 70 34 	add.b	13424(r15),r15	;0x3470(r15)
     624:	3a 28       	jnc	$+118    	;abs 0x69a
     626:	30 2c       	jc	$+98     	;abs 0x688
     628:	31 31       	jn	$+612    	;abs 0x88c
     62a:	29 2c       	jc	$+84     	;abs 0x67e
     62c:	34 2c       	jc	$+106    	;abs 0x696
     62e:	31 3b       	jl	$-412    	;abs 0x492
     630:	5f 5f 70 35 	add.b	13680(r15),r15	;0x3570(r15)
     634:	3a 28       	jnc	$+118    	;abs 0x6aa
     636:	30 2c       	jc	$+98     	;abs 0x698
     638:	31 31       	jn	$+612    	;abs 0x89c
     63a:	29 2c       	jc	$+84     	;abs 0x68e
     63c:	35 2c       	jc	$+108    	;abs 0x6a8
     63e:	31 3b       	jl	$-412    	;abs 0x4a2
     640:	5f 5f 70 36 	add.b	13936(r15),r15	;0x3670(r15)
     644:	3a 28       	jnc	$+118    	;abs 0x6ba
     646:	30 2c       	jc	$+98     	;abs 0x6a8
     648:	31 31       	jn	$+612    	;abs 0x8ac
     64a:	29 2c       	jc	$+84     	;abs 0x69e
     64c:	36 2c       	jc	$+110    	;abs 0x6ba
     64e:	31 3b       	jl	$-412    	;abs 0x4b2
     650:	5f 5f 70 37 	add.b	14192(r15),r15	;0x3770(r15)
     654:	3a 28       	jnc	$+118    	;abs 0x6ca
     656:	30 2c       	jc	$+98     	;abs 0x6b8
     658:	31 31       	jn	$+612    	;abs 0x8bc
     65a:	29 2c       	jc	$+84     	;abs 0x6ae
     65c:	37 2c       	jc	$+112    	;abs 0x6cc
     65e:	31 3b       	jl	$-412    	;abs 0x4c2
     660:	3b 2c       	jc	$+120    	;abs 0x6d8
     662:	30 2c       	jc	$+98     	;abs 0x6c4
     664:	31 36       	jge	$-924    	;abs 0x2c8
     666:	3b 3b       	jl	$-392    	;abs 0x4de
     668:	00 69       	addc	r9,	r0	
     66a:	6f 72       	subc.b	#4,	r15	;r2 As==10
     66c:	65 67       	addc.b	@r7,	r5	
     66e:	69 73       	subc.b	#2,	r9	;r3 As==10
     670:	74 65       	addc.b	@r5+,	r4	
     672:	72 5f       	add.b	@r15+,	r2	
     674:	74 3a       	jl	$-790    	;abs 0x35e
     676:	74 28       	jnc	$+234    	;abs 0x760
     678:	38 2c       	jc	$+114    	;abs 0x6ea
     67a:	33 29       	jnc	$+616    	;abs 0x8e2
     67c:	3d 28       	jnc	$+124    	;abs 0x6f8
     67e:	38 2c       	jc	$+114    	;abs 0x6f0
     680:	31 29       	jnc	$+612    	;abs 0x8e4
     682:	00 70       	subc	r0,	r0	
     684:	6f 72       	subc.b	#4,	r15	;r2 As==10
     686:	74 5f       	add.b	@r15+,	r4	
     688:	66 75       	subc.b	@r5,	r6	
     68a:	6c 6c       	addc.b	@r12,	r12	
     68c:	5f 74 3a 54 	subc.b	21562(r4),r15	;0x543a(r4)
     690:	28 38       	jl	$+82     	;abs 0x6e2
     692:	2c 34       	jge	$+90     	;abs 0x6ec
     694:	29 3d       	jmp	$+596    	;abs 0x8e8
     696:	73 31       	jn	$+744    	;abs 0x97e
     698:	36 69       	addc	@r9+,	r6	
     69a:	6e 3a       	jl	$-802    	;abs 0x378
     69c:	28 38       	jl	$+82     	;abs 0x6ee
     69e:	2c 33       	jn	$-422    	;abs 0x4f8
     6a0:	29 2c       	jc	$+84     	;abs 0x6f4
     6a2:	30 2c       	jc	$+98     	;abs 0x704
     6a4:	31 36       	jge	$-924    	;abs 0x308
     6a6:	3b 6f       	addc	@r15+,	r11	
     6a8:	75 74       	subc.b	@r4+,	r5	
     6aa:	3a 28       	jnc	$+118    	;abs 0x720
     6ac:	38 2c       	jc	$+114    	;abs 0x71e
     6ae:	33 29       	jnc	$+616    	;abs 0x916
     6b0:	2c 31       	jn	$+602    	;abs 0x90a
     6b2:	36 2c       	jc	$+110    	;abs 0x720
     6b4:	31 36       	jge	$-924    	;abs 0x318
     6b6:	3b 64       	addc	@r4+,	r11	
     6b8:	69 72       	subc.b	#4,	r9	;r2 As==10
     6ba:	3a 28       	jnc	$+118    	;abs 0x730
     6bc:	38 2c       	jc	$+114    	;abs 0x72e
     6be:	33 29       	jnc	$+616    	;abs 0x926
     6c0:	2c 33       	jn	$-422    	;abs 0x51a
     6c2:	32 2c       	jc	$+102    	;abs 0x728
     6c4:	31 36       	jge	$-924    	;abs 0x328
     6c6:	3b 69       	addc	@r9+,	r11	
     6c8:	66 67       	addc.b	@r7,	r6	
     6ca:	3a 28       	jnc	$+118    	;abs 0x740
     6cc:	38 2c       	jc	$+114    	;abs 0x73e
     6ce:	33 29       	jnc	$+616    	;abs 0x936
     6d0:	2c 34       	jge	$+90     	;abs 0x72a
     6d2:	38 2c       	jc	$+114    	;abs 0x744
     6d4:	31 36       	jge	$-924    	;abs 0x338
     6d6:	3b 69       	addc	@r9+,	r11	
     6d8:	65 73       	subc.b	#2,	r5	;r3 As==10
     6da:	3a 28       	jnc	$+118    	;abs 0x750
     6dc:	38 2c       	jc	$+114    	;abs 0x74e
     6de:	33 29       	jnc	$+616    	;abs 0x946
     6e0:	2c 36       	jge	$-934    	;abs 0x33a
     6e2:	34 2c       	jc	$+106    	;abs 0x74c
     6e4:	31 36       	jge	$-924    	;abs 0x348
     6e6:	3b 69       	addc	@r9+,	r11	
     6e8:	65 3a       	jl	$-820    	;abs 0x3b4
     6ea:	28 38       	jl	$+82     	;abs 0x73c
     6ec:	2c 33       	jn	$-422    	;abs 0x546
     6ee:	29 2c       	jc	$+84     	;abs 0x742
     6f0:	38 30       	jn	$+114    	;abs 0x762
     6f2:	2c 31       	jn	$+602    	;abs 0x94c
     6f4:	36 3b       	jl	$-402    	;abs 0x562
     6f6:	73 65       	.word	0x6573;	????	Illegal as 2-op instr
     6f8:	6c 3a       	jl	$-806    	;abs 0x3d2
     6fa:	28 38       	jl	$+82     	;abs 0x74c
     6fc:	2c 33       	jn	$-422    	;abs 0x556
     6fe:	29 2c       	jc	$+84     	;abs 0x752
     700:	39 36       	jge	$-908    	;abs 0x374
     702:	2c 31       	jn	$+602    	;abs 0x95c
     704:	36 3b       	jl	$-402    	;abs 0x572
     706:	72 65       	addc.b	@r5+,	r2	
     708:	6e 3a       	jl	$-802    	;abs 0x3e6
     70a:	28 38       	jl	$+82     	;abs 0x75c
     70c:	2c 33       	jn	$-422    	;abs 0x566
     70e:	29 2c       	jc	$+84     	;abs 0x762
     710:	31 31       	jn	$+612    	;abs 0x974
     712:	32 2c       	jc	$+102    	;abs 0x778
     714:	31 36       	jge	$-924    	;abs 0x378
     716:	3b 3b       	jl	$-392    	;abs 0x58e
     718:	00 70       	subc	r0,	r0	
     71a:	6f 72       	subc.b	#4,	r15	;r2 As==10
     71c:	74 5f       	add.b	@r15+,	r4	
     71e:	73 69       	.word	0x6973;	????	Illegal as 2-op instr
     720:	6d 70       	subc.b	@r0,	r13	
     722:	6c 65       	addc.b	@r5,	r12	
     724:	5f 74 3a 54 	subc.b	21562(r4),r15	;0x543a(r4)
     728:	28 38       	jl	$+82     	;abs 0x77a
     72a:	2c 35       	jge	$+602    	;abs 0x984
     72c:	29 3d       	jmp	$+596    	;abs 0x980
     72e:	73 38       	jl	$+232    	;abs 0x816
     730:	69 6e       	addc.b	@r14,	r9	
     732:	3a 28       	jnc	$+118    	;abs 0x7a8
     734:	38 2c       	jc	$+114    	;abs 0x7a6
     736:	33 29       	jnc	$+616    	;abs 0x99e
     738:	2c 30       	jn	$+90     	;abs 0x792
     73a:	2c 31       	jn	$+602    	;abs 0x994
     73c:	36 3b       	jl	$-402    	;abs 0x5aa
     73e:	6f 75       	subc.b	@r5,	r15	
     740:	74 3a       	jl	$-790    	;abs 0x42a
     742:	28 38       	jl	$+82     	;abs 0x794
     744:	2c 33       	jn	$-422    	;abs 0x59e
     746:	29 2c       	jc	$+84     	;abs 0x79a
     748:	31 36       	jge	$-924    	;abs 0x3ac
     74a:	2c 31       	jn	$+602    	;abs 0x9a4
     74c:	36 3b       	jl	$-402    	;abs 0x5ba
     74e:	64 69       	addc.b	@r9,	r4	
     750:	72 3a       	jl	$-794    	;abs 0x436
     752:	28 38       	jl	$+82     	;abs 0x7a4
     754:	2c 33       	jn	$-422    	;abs 0x5ae
     756:	29 2c       	jc	$+84     	;abs 0x7aa
     758:	33 32       	jn	$-920    	;abs 0x3c0
     75a:	2c 31       	jn	$+602    	;abs 0x9b4
     75c:	36 3b       	jl	$-402    	;abs 0x5ca
     75e:	73 65       	.word	0x6573;	????	Illegal as 2-op instr
     760:	6c 3a       	jl	$-806    	;abs 0x43a
     762:	28 38       	jl	$+82     	;abs 0x7b4
     764:	2c 33       	jn	$-422    	;abs 0x5be
     766:	29 2c       	jc	$+84     	;abs 0x7ba
     768:	34 38       	jl	$+106    	;abs 0x7d2
     76a:	2c 31       	jn	$+602    	;abs 0x9c4
     76c:	36 3b       	jl	$-402    	;abs 0x5da
     76e:	3b 00 63 3a 	mova	0x3a63,	r11	;PC rel. 0x041d3
     772:	2f 6d       	addc	@r13,	r15	
     774:	73 70       	.word	0x7073;	????	Illegal as 2-op instr
     776:	67 63       	addc.b	#2,	r7	;r3 As==10
     778:	63 2f       	jc	$-312    	;abs 0x640
     77a:	6d 73       	subc.b	#2,	r13	;r3 As==10
     77c:	70 34       	jge	$+226    	;abs 0x85e
     77e:	33 30       	jn	$+104    	;abs 0x7e6
     780:	2f 69       	addc	@r9,	r15	
     782:	6e 63       	addc.b	#2,	r14	;r3 As==10
     784:	6c 75       	subc.b	@r5,	r12	
     786:	64 65       	addc.b	@r5,	r4	
     788:	2f 6d       	addc	@r13,	r15	
     78a:	73 70       	.word	0x7073;	????	Illegal as 2-op instr
     78c:	34 33       	jn	$-406    	;abs 0x5f6
     78e:	30 2f       	jc	$-414    	;abs 0x5f0
     790:	75 73       	subc.b	#-1,	r5	;r3 As==11
     792:	63 69       	.word	0x6963;	????	Illegal as 2-op instr
     794:	2e 68       	addc	@r8,	r14	
     796:	00 63       	adc	r0		
     798:	3a 2f       	jc	$-394    	;abs 0x60e
     79a:	6d 73       	subc.b	#2,	r13	;r3 As==10
     79c:	70 67       	addc.b	@r7+,	r0	
     79e:	63 63       	.word	0x6363;	????	Illegal as 2-op instr
     7a0:	2f 6d       	addc	@r13,	r15	
     7a2:	73 70       	.word	0x7073;	????	Illegal as 2-op instr
     7a4:	34 33       	jn	$-406    	;abs 0x60e
     7a6:	30 2f       	jc	$-414    	;abs 0x608
     7a8:	69 6e       	addc.b	@r14,	r9	
     7aa:	63 6c       	.word	0x6c63;	????	Illegal as 2-op instr
     7ac:	75 64       	addc.b	@r4+,	r5	
     7ae:	65 2f       	jc	$-308    	;abs 0x67a
     7b0:	6d 73       	subc.b	#2,	r13	;r3 As==10
     7b2:	70 34       	jge	$+226    	;abs 0x894
     7b4:	33 30       	jn	$+104    	;abs 0x81c
     7b6:	2f 74       	subc	@r4,	r15	
     7b8:	69 6d       	addc.b	@r13,	r9	
     7ba:	65 72       	subc.b	#4,	r5	;r2 As==10
     7bc:	61 2e       	jc	$-828    	;abs 0x480
     7be:	68 00 74 61 	mova	r0,	&0x86174
     7c2:	63 74       	.word	0x7463;	????	Illegal as 2-op instr
     7c4:	6c 5f       	add.b	@r15,	r12	
     7c6:	74 3a       	jl	$-790    	;abs 0x4b0
     7c8:	74 28       	jnc	$+234    	;abs 0x8b2
     7ca:	31 30       	jn	$+100    	;abs 0x82e
     7cc:	2c 31       	jn	$+602    	;abs 0xa26
     7ce:	29 3d       	jmp	$+596    	;abs 0xa22
     7d0:	28 31       	jn	$+594    	;abs 0xa22
     7d2:	30 2c       	jc	$+98     	;abs 0x834
     7d4:	32 29       	jnc	$+614    	;abs 0xa3a
     7d6:	3d 73       	subc	#-1,	r13	;r3 As==11
     7d8:	32 74       	subc	@r4+,	r2	
     7da:	61 69       	addc.b	@r9,	r1	
     7dc:	66 67       	addc.b	@r7,	r6	
     7de:	3a 28       	jnc	$+118    	;abs 0x854
     7e0:	30 2c       	jc	$+98     	;abs 0x842
     7e2:	34 29       	jnc	$+618    	;abs 0xa4c
     7e4:	2c 30       	jn	$+90     	;abs 0x83e
     7e6:	2c 31       	jn	$+602    	;abs 0xa40
     7e8:	3b 74       	subc	@r4+,	r11	
     7ea:	61 69       	addc.b	@r9,	r1	
     7ec:	65 3a       	jl	$-820    	;abs 0x4b8
     7ee:	28 30       	jn	$+82     	;abs 0x840
     7f0:	2c 34       	jge	$+90     	;abs 0x84a
     7f2:	29 2c       	jc	$+84     	;abs 0x846
     7f4:	31 2c       	jc	$+100    	;abs 0x858
     7f6:	31 3b       	jl	$-412    	;abs 0x65a
     7f8:	74 61       	addc.b	@r1+,	r4	
     7fa:	63 6c       	.word	0x6c63;	????	Illegal as 2-op instr
     7fc:	72 3a       	jl	$-794    	;abs 0x4e2
     7fe:	28 30       	jn	$+82     	;abs 0x850
     800:	2c 34       	jge	$+90     	;abs 0x85a
     802:	29 2c       	jc	$+84     	;abs 0x856
     804:	32 2c       	jc	$+102    	;abs 0x86a
     806:	31 3b       	jl	$-412    	;abs 0x66a
     808:	64 75       	subc.b	@r5,	r4	
     80a:	6d 6d       	addc.b	@r13,	r13	
     80c:	79 3a       	jl	$-780    	;abs 0x500
     80e:	28 30       	jn	$+82     	;abs 0x860
     810:	2c 34       	jge	$+90     	;abs 0x86a
     812:	29 2c       	jc	$+84     	;abs 0x866
     814:	33 2c       	jc	$+104    	;abs 0x87c
     816:	31 3b       	jl	$-412    	;abs 0x67a
     818:	74 61       	addc.b	@r1+,	r4	
     81a:	6d 63       	addc.b	#2,	r13	;r3 As==10
     81c:	3a 28       	jnc	$+118    	;abs 0x892
     81e:	30 2c       	jc	$+98     	;abs 0x880
     820:	34 29       	jnc	$+618    	;abs 0xa8a
     822:	2c 34       	jge	$+90     	;abs 0x87c
     824:	2c 32       	jn	$-934    	;abs 0x47e
     826:	3b 74       	subc	@r4+,	r11	
     828:	61 69       	addc.b	@r9,	r1	
     82a:	64 3a       	jl	$-822    	;abs 0x4f4
     82c:	28 30       	jn	$+82     	;abs 0x87e
     82e:	2c 34       	jge	$+90     	;abs 0x888
     830:	29 2c       	jc	$+84     	;abs 0x884
     832:	36 2c       	jc	$+110    	;abs 0x8a0
     834:	32 3b       	jl	$-410    	;abs 0x69a
     836:	74 61       	addc.b	@r1+,	r4	
     838:	73 73       	.word	0x7373;	????	Illegal as 2-op instr
     83a:	65 6c       	addc.b	@r12,	r5	
     83c:	3a 28       	jnc	$+118    	;abs 0x8b2
     83e:	30 2c       	jc	$+98     	;abs 0x8a0
     840:	34 29       	jnc	$+618    	;abs 0xaaa
     842:	2c 38       	jl	$+90     	;abs 0x89c
     844:	2c 32       	jn	$-934    	;abs 0x49e
     846:	3b 3b       	jl	$-392    	;abs 0x6be
     848:	00 74       	subc	r4,	r0	
     84a:	61 63       	addc.b	#2,	r1	;r3 As==10
     84c:	63 74       	.word	0x7463;	????	Illegal as 2-op instr
     84e:	6c 5f       	add.b	@r15,	r12	
     850:	74 3a       	jl	$-790    	;abs 0x53a
     852:	74 28       	jnc	$+234    	;abs 0x93c
     854:	31 30       	jn	$+100    	;abs 0x8b8
     856:	2c 33       	jn	$-422    	;abs 0x6b0
     858:	29 3d       	jmp	$+596    	;abs 0xaac
     85a:	28 31       	jn	$+594    	;abs 0xaac
     85c:	30 2c       	jc	$+98     	;abs 0x8be
     85e:	34 29       	jnc	$+618    	;abs 0xac8
     860:	3d 73       	subc	#-1,	r13	;r3 As==11
     862:	32 63       	addc	#-1,	r2	;r3 As==11
     864:	63 69       	.word	0x6963;	????	Illegal as 2-op instr
     866:	66 67       	addc.b	@r7,	r6	
     868:	3a 28       	jnc	$+118    	;abs 0x8de
     86a:	30 2c       	jc	$+98     	;abs 0x8cc
     86c:	34 29       	jnc	$+618    	;abs 0xad6
     86e:	2c 30       	jn	$+90     	;abs 0x8c8
     870:	2c 31       	jn	$+602    	;abs 0xaca
     872:	3b 63       	addc	#-1,	r11	;r3 As==11
     874:	6f 76       	subc.b	@r6,	r15	
     876:	3a 28       	jnc	$+118    	;abs 0x8ec
     878:	30 2c       	jc	$+98     	;abs 0x8da
     87a:	34 29       	jnc	$+618    	;abs 0xae4
     87c:	2c 31       	jn	$+602    	;abs 0xad6
     87e:	2c 31       	jn	$+602    	;abs 0xad8
     880:	3b 6f       	addc	@r15+,	r11	
     882:	75 74       	subc.b	@r4+,	r5	
     884:	3a 28       	jnc	$+118    	;abs 0x8fa
     886:	30 2c       	jc	$+98     	;abs 0x8e8
     888:	34 29       	jnc	$+618    	;abs 0xaf2
     88a:	2c 32       	jn	$-934    	;abs 0x4e4
     88c:	2c 31       	jn	$+602    	;abs 0xae6
     88e:	3b 63       	addc	#-1,	r11	;r3 As==11
     890:	63 69       	.word	0x6963;	????	Illegal as 2-op instr
     892:	3a 28       	jnc	$+118    	;abs 0x908
     894:	30 2c       	jc	$+98     	;abs 0x8f6
     896:	34 29       	jnc	$+618    	;abs 0xb00
     898:	2c 33       	jn	$-422    	;abs 0x6f2
     89a:	2c 31       	jn	$+602    	;abs 0xaf4
     89c:	3b 63       	addc	#-1,	r11	;r3 As==11
     89e:	63 69       	.word	0x6963;	????	Illegal as 2-op instr
     8a0:	65 3a       	jl	$-820    	;abs 0x56c
     8a2:	28 30       	jn	$+82     	;abs 0x8f4
     8a4:	2c 34       	jge	$+90     	;abs 0x8fe
     8a6:	29 2c       	jc	$+84     	;abs 0x8fa
     8a8:	34 2c       	jc	$+106    	;abs 0x912
     8aa:	31 3b       	jl	$-412    	;abs 0x70e
     8ac:	6f 75       	subc.b	@r5,	r15	
     8ae:	74 6d       	addc.b	@r13+,	r4	
     8b0:	6f 64       	addc.b	@r4,	r15	
     8b2:	3a 28       	jnc	$+118    	;abs 0x928
     8b4:	30 2c       	jc	$+98     	;abs 0x916
     8b6:	34 29       	jnc	$+618    	;abs 0xb20
     8b8:	2c 35       	jge	$+602    	;abs 0xb12
     8ba:	2c 33       	jn	$-422    	;abs 0x714
     8bc:	3b 63       	addc	#-1,	r11	;r3 As==11
     8be:	61 70       	subc.b	@r0,	r1	
     8c0:	3a 28       	jnc	$+118    	;abs 0x936
     8c2:	30 2c       	jc	$+98     	;abs 0x924
     8c4:	34 29       	jnc	$+618    	;abs 0xb2e
     8c6:	2c 38       	jl	$+90     	;abs 0x920
     8c8:	2c 31       	jn	$+602    	;abs 0xb22
     8ca:	3b 64       	addc	@r4+,	r11	
     8cc:	75 6d       	addc.b	@r13+,	r5	
     8ce:	6d 79       	subc.b	@r9,	r13	
     8d0:	3a 28       	jnc	$+118    	;abs 0x946
     8d2:	30 2c       	jc	$+98     	;abs 0x934
     8d4:	34 29       	jnc	$+618    	;abs 0xb3e
     8d6:	2c 39       	jl	$+602    	;abs 0xb30
     8d8:	2c 31       	jn	$+602    	;abs 0xb32
     8da:	3b 73       	subc	#-1,	r11	;r3 As==11
     8dc:	63 63       	.word	0x6363;	????	Illegal as 2-op instr
     8de:	69 3a       	jl	$-812    	;abs 0x5b2
     8e0:	28 30       	jn	$+82     	;abs 0x932
     8e2:	2c 34       	jge	$+90     	;abs 0x93c
     8e4:	29 2c       	jc	$+84     	;abs 0x938
     8e6:	31 30       	jn	$+100    	;abs 0x94a
     8e8:	2c 31       	jn	$+602    	;abs 0xb42
     8ea:	3b 73       	subc	#-1,	r11	;r3 As==11
     8ec:	63 73       	.word	0x7363;	????	Illegal as 2-op instr
     8ee:	3a 28       	jnc	$+118    	;abs 0x964
     8f0:	30 2c       	jc	$+98     	;abs 0x952
     8f2:	34 29       	jnc	$+618    	;abs 0xb5c
     8f4:	2c 31       	jn	$+602    	;abs 0xb4e
     8f6:	31 2c       	jc	$+100    	;abs 0x95a
     8f8:	31 3b       	jl	$-412    	;abs 0x75c
     8fa:	63 63       	.word	0x6363;	????	Illegal as 2-op instr
     8fc:	69 73       	subc.b	#2,	r9	;r3 As==10
     8fe:	3a 28       	jnc	$+118    	;abs 0x974
     900:	30 2c       	jc	$+98     	;abs 0x962
     902:	34 29       	jnc	$+618    	;abs 0xb6c
     904:	2c 31       	jn	$+602    	;abs 0xb5e
     906:	32 2c       	jc	$+102    	;abs 0x96c
     908:	32 3b       	jl	$-410    	;abs 0x76e
     90a:	63 6d       	.word	0x6d63;	????	Illegal as 2-op instr
     90c:	3a 28       	jnc	$+118    	;abs 0x982
     90e:	30 2c       	jc	$+98     	;abs 0x970
     910:	34 29       	jnc	$+618    	;abs 0xb7a
     912:	2c 31       	jn	$+602    	;abs 0xb6c
     914:	34 2c       	jc	$+106    	;abs 0x97e
     916:	32 3b       	jl	$-410    	;abs 0x77c
     918:	3b 00 74 69 	mova	0x6974,	r11	;PC rel. 0x0728e
     91c:	6d 65       	addc.b	@r5,	r13	
     91e:	72 61       	addc.b	@r1+,	r2	
     920:	5f 74 3a 54 	subc.b	21562(r4),r15	;0x543a(r4)
     924:	28 31       	jn	$+594    	;abs 0xb76
     926:	30 2c       	jc	$+98     	;abs 0x988
     928:	35 29       	jnc	$+620    	;abs 0xb94
     92a:	3d 73       	subc	#-1,	r13	;r3 As==11
     92c:	32 34       	jge	$+102    	;abs 0x992
     92e:	63 74       	.word	0x7463;	????	Illegal as 2-op instr
     930:	6c 3a       	jl	$-806    	;abs 0x60a
     932:	28 31       	jn	$+594    	;abs 0xb84
     934:	30 2c       	jc	$+98     	;abs 0x996
     936:	31 29       	jnc	$+612    	;abs 0xb9a
     938:	2c 30       	jn	$+90     	;abs 0x992
     93a:	2c 31       	jn	$+602    	;abs 0xb94
     93c:	36 3b       	jl	$-402    	;abs 0x7aa
     93e:	63 63       	.word	0x6363;	????	Illegal as 2-op instr
     940:	74 6c       	addc.b	@r12+,	r4	
     942:	30 3a       	jl	$-926    	;abs 0x5a4
     944:	28 31       	jn	$+594    	;abs 0xb96
     946:	30 2c       	jc	$+98     	;abs 0x9a8
     948:	33 29       	jnc	$+616    	;abs 0xbb0
     94a:	2c 31       	jn	$+602    	;abs 0xba4
     94c:	36 2c       	jc	$+110    	;abs 0x9ba
     94e:	31 36       	jge	$-924    	;abs 0x5b2
     950:	3b 63       	addc	#-1,	r11	;r3 As==11
     952:	63 74       	.word	0x7463;	????	Illegal as 2-op instr
     954:	6c 31       	jn	$+730    	;abs 0xc2e
     956:	3a 28       	jnc	$+118    	;abs 0x9cc
     958:	31 30       	jn	$+100    	;abs 0x9bc
     95a:	2c 33       	jn	$-422    	;abs 0x7b4
     95c:	29 2c       	jc	$+84     	;abs 0x9b0
     95e:	33 32       	jn	$-920    	;abs 0x5c6
     960:	2c 31       	jn	$+602    	;abs 0xbba
     962:	36 3b       	jl	$-402    	;abs 0x7d0
     964:	63 63       	.word	0x6363;	????	Illegal as 2-op instr
     966:	74 6c       	addc.b	@r12+,	r4	
     968:	32 3a       	jl	$-922    	;abs 0x5ce
     96a:	28 31       	jn	$+594    	;abs 0xbbc
     96c:	30 2c       	jc	$+98     	;abs 0x9ce
     96e:	33 29       	jnc	$+616    	;abs 0xbd6
     970:	2c 34       	jge	$+90     	;abs 0x9ca
     972:	38 2c       	jc	$+114    	;abs 0x9e4
     974:	31 36       	jge	$-924    	;abs 0x5d8
     976:	3b 64       	addc	@r4+,	r11	
     978:	75 6d       	addc.b	@r13+,	r5	
     97a:	6d 79       	subc.b	@r9,	r13	
     97c:	32 3a       	jl	$-922    	;abs 0x5e2
     97e:	28 31       	jn	$+594    	;abs 0xbd0
     980:	30 2c       	jc	$+98     	;abs 0x9e2
     982:	36 29       	jnc	$+622    	;abs 0xbf0
     984:	3d 61       	addc	@r1+,	r13	
     986:	72 28       	jnc	$+230    	;abs 0xa6c
     988:	31 30       	jn	$+100    	;abs 0x9ec
     98a:	2c 37       	jge	$-422    	;abs 0x7e4
     98c:	29 3d       	jmp	$+596    	;abs 0xbe0
     98e:	72 28       	jnc	$+230    	;abs 0xa74
     990:	31 30       	jn	$+100    	;abs 0x9f4
     992:	2c 37       	jge	$-422    	;abs 0x7ec
     994:	29 3b       	jl	$-428    	;abs 0x7e8
     996:	30 30       	jn	$+98     	;abs 0x9f8
     998:	30 30       	jn	$+98     	;abs 0x9fa
     99a:	30 30       	jn	$+98     	;abs 0x9fc
     99c:	30 30       	jn	$+98     	;abs 0x9fe
     99e:	30 30       	jn	$+98     	;abs 0xa00
     9a0:	30 30       	jn	$+98     	;abs 0xa02
     9a2:	30 3b       	jl	$-414    	;abs 0x804
     9a4:	30 30       	jn	$+98     	;abs 0xa06
     9a6:	30 30       	jn	$+98     	;abs 0xa08
     9a8:	30 30       	jn	$+98     	;abs 0xa0a
     9aa:	30 31       	jn	$+610    	;abs 0xc0c
     9ac:	37 37       	jge	$-400    	;abs 0x81c
     9ae:	37 37       	jge	$-400    	;abs 0x81e
     9b0:	37 3b       	jl	$-400    	;abs 0x820
     9b2:	3b 30       	jn	$+120    	;abs 0xa2a
     9b4:	3b 33       	jn	$-392    	;abs 0x82c
     9b6:	3b 28       	jnc	$+120    	;abs 0xa2e
     9b8:	31 30       	jn	$+100    	;abs 0xa1c
     9ba:	2c 38       	jl	$+90     	;abs 0xa14
     9bc:	29 3d       	jmp	$+596    	;abs 0xc10
     9be:	42 28       	jnc	$+134    	;abs 0xa44
     9c0:	30 2c       	jc	$+98     	;abs 0xa22
     9c2:	34 29       	jnc	$+618    	;abs 0xc2c
     9c4:	2c 36       	jge	$-934    	;abs 0x61e
     9c6:	34 2c       	jc	$+106    	;abs 0xa30
     9c8:	36 34       	jge	$+110    	;abs 0xa36
     9ca:	3b 74       	subc	@r4+,	r11	
     9cc:	61 72       	subc.b	#4,	r1	;r2 As==10
     9ce:	3a 28       	jnc	$+118    	;abs 0xa44
     9d0:	30 2c       	jc	$+98     	;abs 0xa32
     9d2:	34 29       	jnc	$+618    	;abs 0xc3c
     9d4:	2c 31       	jn	$+602    	;abs 0xc2e
     9d6:	32 38       	jl	$+102    	;abs 0xa3c
     9d8:	2c 31       	jn	$+602    	;abs 0xc32
     9da:	36 3b       	jl	$-402    	;abs 0x848
     9dc:	74 61       	addc.b	@r1+,	r4	
     9de:	63 63       	.word	0x6363;	????	Illegal as 2-op instr
     9e0:	72 30       	jn	$+230    	;abs 0xac6
     9e2:	3a 28       	jnc	$+118    	;abs 0xa58
     9e4:	30 2c       	jc	$+98     	;abs 0xa46
     9e6:	34 29       	jnc	$+618    	;abs 0xc50
     9e8:	2c 31       	jn	$+602    	;abs 0xc42
     9ea:	34 34       	jge	$+106    	;abs 0xa54
     9ec:	2c 31       	jn	$+602    	;abs 0xc46
     9ee:	36 3b       	jl	$-402    	;abs 0x85c
     9f0:	74 61       	addc.b	@r1+,	r4	
     9f2:	63 63       	.word	0x6363;	????	Illegal as 2-op instr
     9f4:	72 31       	jn	$+742    	;abs 0xcda
     9f6:	3a 28       	jnc	$+118    	;abs 0xa6c
     9f8:	30 2c       	jc	$+98     	;abs 0xa5a
     9fa:	34 29       	jnc	$+618    	;abs 0xc64
     9fc:	2c 31       	jn	$+602    	;abs 0xc56
     9fe:	36 30       	jn	$+110    	;abs 0xa6c
     a00:	2c 31       	jn	$+602    	;abs 0xc5a
     a02:	36 3b       	jl	$-402    	;abs 0x870
     a04:	74 61       	addc.b	@r1+,	r4	
     a06:	63 63       	.word	0x6363;	????	Illegal as 2-op instr
     a08:	72 32       	jn	$-794    	;abs 0x6ee
     a0a:	3a 28       	jnc	$+118    	;abs 0xa80
     a0c:	30 2c       	jc	$+98     	;abs 0xa6e
     a0e:	34 29       	jnc	$+618    	;abs 0xc78
     a10:	2c 31       	jn	$+602    	;abs 0xc6a
     a12:	37 36       	jge	$-912    	;abs 0x682
     a14:	2c 31       	jn	$+602    	;abs 0xc6e
     a16:	36 3b       	jl	$-402    	;abs 0x884
     a18:	3b 00 63 3a 	mova	0x3a63,	r11	;PC rel. 0x0447d
     a1c:	2f 6d       	addc	@r13,	r15	
     a1e:	73 70       	.word	0x7073;	????	Illegal as 2-op instr
     a20:	67 63       	addc.b	#2,	r7	;r3 As==10
     a22:	63 2f       	jc	$-312    	;abs 0x8ea
     a24:	6d 73       	subc.b	#2,	r13	;r3 As==10
     a26:	70 34       	jge	$+226    	;abs 0xb08
     a28:	33 30       	jn	$+104    	;abs 0xa90
     a2a:	2f 69       	addc	@r9,	r15	
     a2c:	6e 63       	addc.b	#2,	r14	;r3 As==10
     a2e:	6c 75       	subc.b	@r5,	r12	
     a30:	64 65       	addc.b	@r5,	r4	
     a32:	2f 6d       	addc	@r13,	r15	
     a34:	73 70       	.word	0x7073;	????	Illegal as 2-op instr
     a36:	34 33       	jn	$-406    	;abs 0x8a0
     a38:	30 2f       	jc	$-414    	;abs 0x89a
     a3a:	74 69       	addc.b	@r9+,	r4	
     a3c:	6d 65       	addc.b	@r5,	r13	
     a3e:	72 62       	addc.b	#8,	r2	;r2 As==11
     a40:	2e 68       	addc	@r8,	r14	
     a42:	00 74       	subc	r4,	r0	
     a44:	62 63       	addc.b	#2,	r2	;r3 As==10
     a46:	74 6c       	addc.b	@r12+,	r4	
     a48:	5f 74 3a 74 	subc.b	29754(r4),r15	;0x743a(r4)
     a4c:	28 31       	jn	$+594    	;abs 0xc9e
     a4e:	31 2c       	jc	$+100    	;abs 0xab2
     a50:	31 29       	jnc	$+612    	;abs 0xcb4
     a52:	3d 28       	jnc	$+124    	;abs 0xace
     a54:	31 31       	jn	$+612    	;abs 0xcb8
     a56:	2c 32       	jn	$-934    	;abs 0x6b0
     a58:	29 3d       	jmp	$+596    	;abs 0xcac
     a5a:	73 32       	jn	$-792    	;abs 0x742
     a5c:	74 62       	addc.b	#8,	r4	;r2 As==11
     a5e:	69 66       	addc.b	@r6,	r9	
     a60:	67 3a       	jl	$-816    	;abs 0x730
     a62:	28 30       	jn	$+82     	;abs 0xab4
     a64:	2c 34       	jge	$+90     	;abs 0xabe
     a66:	29 2c       	jc	$+84     	;abs 0xaba
     a68:	30 2c       	jc	$+98     	;abs 0xaca
     a6a:	31 3b       	jl	$-412    	;abs 0x8ce
     a6c:	74 62       	addc.b	#8,	r4	;r2 As==11
     a6e:	69 65       	addc.b	@r5,	r9	
     a70:	3a 28       	jnc	$+118    	;abs 0xae6
     a72:	30 2c       	jc	$+98     	;abs 0xad4
     a74:	34 29       	jnc	$+618    	;abs 0xcde
     a76:	2c 31       	jn	$+602    	;abs 0xcd0
     a78:	2c 31       	jn	$+602    	;abs 0xcd2
     a7a:	3b 74       	subc	@r4+,	r11	
     a7c:	62 63       	addc.b	#2,	r2	;r3 As==10
     a7e:	6c 72       	subc.b	#4,	r12	;r2 As==10
     a80:	3a 28       	jnc	$+118    	;abs 0xaf6
     a82:	30 2c       	jc	$+98     	;abs 0xae4
     a84:	34 29       	jnc	$+618    	;abs 0xcee
     a86:	2c 32       	jn	$-934    	;abs 0x6e0
     a88:	2c 31       	jn	$+602    	;abs 0xce2
     a8a:	3b 64       	addc	@r4+,	r11	
     a8c:	75 6d       	addc.b	@r13+,	r5	
     a8e:	6d 79       	subc.b	@r9,	r13	
     a90:	31 3a       	jl	$-924    	;abs 0x6f4
     a92:	28 30       	jn	$+82     	;abs 0xae4
     a94:	2c 34       	jge	$+90     	;abs 0xaee
     a96:	29 2c       	jc	$+84     	;abs 0xaea
     a98:	33 2c       	jc	$+104    	;abs 0xb00
     a9a:	31 3b       	jl	$-412    	;abs 0x8fe
     a9c:	74 62       	addc.b	#8,	r4	;r2 As==11
     a9e:	6d 63       	addc.b	#2,	r13	;r3 As==10
     aa0:	3a 28       	jnc	$+118    	;abs 0xb16
     aa2:	30 2c       	jc	$+98     	;abs 0xb04
     aa4:	34 29       	jnc	$+618    	;abs 0xd0e
     aa6:	2c 34       	jge	$+90     	;abs 0xb00
     aa8:	2c 32       	jn	$-934    	;abs 0x702
     aaa:	3b 74       	subc	@r4+,	r11	
     aac:	62 69       	addc.b	@r9,	r2	
     aae:	64 3a       	jl	$-822    	;abs 0x778
     ab0:	28 30       	jn	$+82     	;abs 0xb02
     ab2:	2c 34       	jge	$+90     	;abs 0xb0c
     ab4:	29 2c       	jc	$+84     	;abs 0xb08
     ab6:	36 2c       	jc	$+110    	;abs 0xb24
     ab8:	32 3b       	jl	$-410    	;abs 0x91e
     aba:	74 62       	addc.b	#8,	r4	;r2 As==11
     abc:	73 73       	.word	0x7373;	????	Illegal as 2-op instr
     abe:	65 6c       	addc.b	@r12,	r5	
     ac0:	3a 28       	jnc	$+118    	;abs 0xb36
     ac2:	30 2c       	jc	$+98     	;abs 0xb24
     ac4:	34 29       	jnc	$+618    	;abs 0xd2e
     ac6:	2c 38       	jl	$+90     	;abs 0xb20
     ac8:	2c 32       	jn	$-934    	;abs 0x722
     aca:	3b 64       	addc	@r4+,	r11	
     acc:	75 6d       	addc.b	@r13+,	r5	
     ace:	6d 79       	subc.b	@r9,	r13	
     ad0:	32 3a       	jl	$-922    	;abs 0x736
     ad2:	28 30       	jn	$+82     	;abs 0xb24
     ad4:	2c 34       	jge	$+90     	;abs 0xb2e
     ad6:	29 2c       	jc	$+84     	;abs 0xb2a
     ad8:	31 30       	jn	$+100    	;abs 0xb3c
     ada:	2c 31       	jn	$+602    	;abs 0xd34
     adc:	3b 74       	subc	@r4+,	r11	
     ade:	62 63       	addc.b	#2,	r2	;r3 As==10
     ae0:	6e 74       	subc.b	@r4,	r14	
     ae2:	6c 3a       	jl	$-806    	;abs 0x7bc
     ae4:	28 30       	jn	$+82     	;abs 0xb36
     ae6:	2c 34       	jge	$+90     	;abs 0xb40
     ae8:	29 2c       	jc	$+84     	;abs 0xb3c
     aea:	31 31       	jn	$+612    	;abs 0xd4e
     aec:	2c 32       	jn	$-934    	;abs 0x746
     aee:	3b 74       	subc	@r4+,	r11	
     af0:	62 63       	addc.b	#2,	r2	;r3 As==10
     af2:	6c 67       	addc.b	@r7,	r12	
     af4:	72 70 3a 28 	subc.b	#10298,	r2	;#0x283a
     af8:	30 2c       	jc	$+98     	;abs 0xb5a
     afa:	34 29       	jnc	$+618    	;abs 0xd64
     afc:	2c 31       	jn	$+602    	;abs 0xd56
     afe:	33 2c       	jc	$+104    	;abs 0xb66
     b00:	32 3b       	jl	$-410    	;abs 0x966
     b02:	3b 00 74 62 	mova	0x6274,	r11	;PC rel. 0x06d78
     b06:	63 63       	.word	0x6363;	????	Illegal as 2-op instr
     b08:	74 6c       	addc.b	@r12+,	r4	
     b0a:	5f 74 3a 74 	subc.b	29754(r4),r15	;0x743a(r4)
     b0e:	28 31       	jn	$+594    	;abs 0xd60
     b10:	31 2c       	jc	$+100    	;abs 0xb74
     b12:	33 29       	jnc	$+616    	;abs 0xd7a
     b14:	3d 28       	jnc	$+124    	;abs 0xb90
     b16:	31 31       	jn	$+612    	;abs 0xd7a
     b18:	2c 34       	jge	$+90     	;abs 0xb72
     b1a:	29 3d       	jmp	$+596    	;abs 0xd6e
     b1c:	73 32       	jn	$-792    	;abs 0x804
     b1e:	63 63       	.word	0x6363;	????	Illegal as 2-op instr
     b20:	69 66       	addc.b	@r6,	r9	
     b22:	67 3a       	jl	$-816    	;abs 0x7f2
     b24:	28 30       	jn	$+82     	;abs 0xb76
     b26:	2c 34       	jge	$+90     	;abs 0xb80
     b28:	29 2c       	jc	$+84     	;abs 0xb7c
     b2a:	30 2c       	jc	$+98     	;abs 0xb8c
     b2c:	31 3b       	jl	$-412    	;abs 0x990
     b2e:	63 6f       	.word	0x6f63;	????	Illegal as 2-op instr
     b30:	76 3a       	jl	$-786    	;abs 0x81e
     b32:	28 30       	jn	$+82     	;abs 0xb84
     b34:	2c 34       	jge	$+90     	;abs 0xb8e
     b36:	29 2c       	jc	$+84     	;abs 0xb8a
     b38:	31 2c       	jc	$+100    	;abs 0xb9c
     b3a:	31 3b       	jl	$-412    	;abs 0x99e
     b3c:	6f 75       	subc.b	@r5,	r15	
     b3e:	74 3a       	jl	$-790    	;abs 0x828
     b40:	28 30       	jn	$+82     	;abs 0xb92
     b42:	2c 34       	jge	$+90     	;abs 0xb9c
     b44:	29 2c       	jc	$+84     	;abs 0xb98
     b46:	32 2c       	jc	$+102    	;abs 0xbac
     b48:	31 3b       	jl	$-412    	;abs 0x9ac
     b4a:	63 63       	.word	0x6363;	????	Illegal as 2-op instr
     b4c:	69 3a       	jl	$-812    	;abs 0x820
     b4e:	28 30       	jn	$+82     	;abs 0xba0
     b50:	2c 34       	jge	$+90     	;abs 0xbaa
     b52:	29 2c       	jc	$+84     	;abs 0xba6
     b54:	33 2c       	jc	$+104    	;abs 0xbbc
     b56:	31 3b       	jl	$-412    	;abs 0x9ba
     b58:	63 63       	.word	0x6363;	????	Illegal as 2-op instr
     b5a:	69 65       	addc.b	@r5,	r9	
     b5c:	3a 28       	jnc	$+118    	;abs 0xbd2
     b5e:	30 2c       	jc	$+98     	;abs 0xbc0
     b60:	34 29       	jnc	$+618    	;abs 0xdca
     b62:	2c 34       	jge	$+90     	;abs 0xbbc
     b64:	2c 31       	jn	$+602    	;abs 0xdbe
     b66:	3b 6f       	addc	@r15+,	r11	
     b68:	75 74       	subc.b	@r4+,	r5	
     b6a:	6d 6f       	addc.b	@r15,	r13	
     b6c:	64 3a       	jl	$-822    	;abs 0x836
     b6e:	28 30       	jn	$+82     	;abs 0xbc0
     b70:	2c 34       	jge	$+90     	;abs 0xbca
     b72:	29 2c       	jc	$+84     	;abs 0xbc6
     b74:	35 2c       	jc	$+108    	;abs 0xbe0
     b76:	33 3b       	jl	$-408    	;abs 0x9de
     b78:	63 61       	.word	0x6163;	????	Illegal as 2-op instr
     b7a:	70 3a       	jl	$-798    	;abs 0x85c
     b7c:	28 30       	jn	$+82     	;abs 0xbce
     b7e:	2c 34       	jge	$+90     	;abs 0xbd8
     b80:	29 2c       	jc	$+84     	;abs 0xbd4
     b82:	38 2c       	jc	$+114    	;abs 0xbf4
     b84:	31 3b       	jl	$-412    	;abs 0x9e8
     b86:	63 6c       	.word	0x6c63;	????	Illegal as 2-op instr
     b88:	6c 64       	addc.b	@r4,	r12	
     b8a:	3a 28       	jnc	$+118    	;abs 0xc00
     b8c:	30 2c       	jc	$+98     	;abs 0xbee
     b8e:	34 29       	jnc	$+618    	;abs 0xdf8
     b90:	2c 39       	jl	$+602    	;abs 0xdea
     b92:	2c 32       	jn	$-934    	;abs 0x7ec
     b94:	3b 73       	subc	#-1,	r11	;r3 As==11
     b96:	63 73       	.word	0x7363;	????	Illegal as 2-op instr
     b98:	3a 28       	jnc	$+118    	;abs 0xc0e
     b9a:	30 2c       	jc	$+98     	;abs 0xbfc
     b9c:	34 29       	jnc	$+618    	;abs 0xe06
     b9e:	2c 31       	jn	$+602    	;abs 0xdf8
     ba0:	31 2c       	jc	$+100    	;abs 0xc04
     ba2:	31 3b       	jl	$-412    	;abs 0xa06
     ba4:	63 63       	.word	0x6363;	????	Illegal as 2-op instr
     ba6:	69 73       	subc.b	#2,	r9	;r3 As==10
     ba8:	3a 28       	jnc	$+118    	;abs 0xc1e
     baa:	30 2c       	jc	$+98     	;abs 0xc0c
     bac:	34 29       	jnc	$+618    	;abs 0xe16
     bae:	2c 31       	jn	$+602    	;abs 0xe08
     bb0:	32 2c       	jc	$+102    	;abs 0xc16
     bb2:	32 3b       	jl	$-410    	;abs 0xa18
     bb4:	63 6d       	.word	0x6d63;	????	Illegal as 2-op instr
     bb6:	3a 28       	jnc	$+118    	;abs 0xc2c
     bb8:	30 2c       	jc	$+98     	;abs 0xc1a
     bba:	34 29       	jnc	$+618    	;abs 0xe24
     bbc:	2c 31       	jn	$+602    	;abs 0xe16
     bbe:	34 2c       	jc	$+106    	;abs 0xc28
     bc0:	32 3b       	jl	$-410    	;abs 0xa26
     bc2:	3b 00 74 69 	mova	0x6974,	r11	;PC rel. 0x07538
     bc6:	6d 65       	addc.b	@r5,	r13	
     bc8:	72 62       	addc.b	#8,	r2	;r2 As==11
     bca:	5f 74 3a 54 	subc.b	21562(r4),r15	;0x543a(r4)
     bce:	28 31       	jn	$+594    	;abs 0xe20
     bd0:	31 2c       	jc	$+100    	;abs 0xc34
     bd2:	35 29       	jnc	$+620    	;abs 0xe3e
     bd4:	3d 73       	subc	#-1,	r13	;r3 As==11
     bd6:	33 32       	jn	$-920    	;abs 0x83e
     bd8:	63 74       	.word	0x7463;	????	Illegal as 2-op instr
     bda:	6c 3a       	jl	$-806    	;abs 0x8b4
     bdc:	28 31       	jn	$+594    	;abs 0xe2e
     bde:	31 2c       	jc	$+100    	;abs 0xc42
     be0:	31 29       	jnc	$+612    	;abs 0xe44
     be2:	2c 30       	jn	$+90     	;abs 0xc3c
     be4:	2c 31       	jn	$+602    	;abs 0xe3e
     be6:	36 3b       	jl	$-402    	;abs 0xa54
     be8:	63 63       	.word	0x6363;	????	Illegal as 2-op instr
     bea:	74 6c       	addc.b	@r12+,	r4	
     bec:	30 3a       	jl	$-926    	;abs 0x84e
     bee:	28 31       	jn	$+594    	;abs 0xe40
     bf0:	31 2c       	jc	$+100    	;abs 0xc54
     bf2:	33 29       	jnc	$+616    	;abs 0xe5a
     bf4:	2c 31       	jn	$+602    	;abs 0xe4e
     bf6:	36 2c       	jc	$+110    	;abs 0xc64
     bf8:	31 36       	jge	$-924    	;abs 0x85c
     bfa:	3b 63       	addc	#-1,	r11	;r3 As==11
     bfc:	63 74       	.word	0x7463;	????	Illegal as 2-op instr
     bfe:	6c 31       	jn	$+730    	;abs 0xed8
     c00:	3a 28       	jnc	$+118    	;abs 0xc76
     c02:	31 31       	jn	$+612    	;abs 0xe66
     c04:	2c 33       	jn	$-422    	;abs 0xa5e
     c06:	29 2c       	jc	$+84     	;abs 0xc5a
     c08:	33 32       	jn	$-920    	;abs 0x870
     c0a:	2c 31       	jn	$+602    	;abs 0xe64
     c0c:	36 3b       	jl	$-402    	;abs 0xa7a
     c0e:	63 63       	.word	0x6363;	????	Illegal as 2-op instr
     c10:	74 6c       	addc.b	@r12+,	r4	
     c12:	32 3a       	jl	$-922    	;abs 0x878
     c14:	28 31       	jn	$+594    	;abs 0xe66
     c16:	31 2c       	jc	$+100    	;abs 0xc7a
     c18:	33 29       	jnc	$+616    	;abs 0xe80
     c1a:	2c 34       	jge	$+90     	;abs 0xc74
     c1c:	38 2c       	jc	$+114    	;abs 0xc8e
     c1e:	31 36       	jge	$-924    	;abs 0x882
     c20:	3b 63       	addc	#-1,	r11	;r3 As==11
     c22:	63 74       	.word	0x7463;	????	Illegal as 2-op instr
     c24:	6c 33       	jn	$-294    	;abs 0xafe
     c26:	3a 28       	jnc	$+118    	;abs 0xc9c
     c28:	31 31       	jn	$+612    	;abs 0xe8c
     c2a:	2c 33       	jn	$-422    	;abs 0xa84
     c2c:	29 2c       	jc	$+84     	;abs 0xc80
     c2e:	36 34       	jge	$+110    	;abs 0xc9c
     c30:	2c 31       	jn	$+602    	;abs 0xe8a
     c32:	36 3b       	jl	$-402    	;abs 0xaa0
     c34:	63 63       	.word	0x6363;	????	Illegal as 2-op instr
     c36:	74 6c       	addc.b	@r12+,	r4	
     c38:	34 3a       	jl	$-918    	;abs 0x8a2
     c3a:	28 31       	jn	$+594    	;abs 0xe8c
     c3c:	31 2c       	jc	$+100    	;abs 0xca0
     c3e:	33 29       	jnc	$+616    	;abs 0xea6
     c40:	2c 38       	jl	$+90     	;abs 0xc9a
     c42:	30 2c       	jc	$+98     	;abs 0xca4
     c44:	31 36       	jge	$-924    	;abs 0x8a8
     c46:	3b 63       	addc	#-1,	r11	;r3 As==11
     c48:	63 74       	.word	0x7463;	????	Illegal as 2-op instr
     c4a:	6c 35       	jge	$+730    	;abs 0xf24
     c4c:	3a 28       	jnc	$+118    	;abs 0xcc2
     c4e:	31 31       	jn	$+612    	;abs 0xeb2
     c50:	2c 33       	jn	$-422    	;abs 0xaaa
     c52:	29 2c       	jc	$+84     	;abs 0xca6
     c54:	39 36       	jge	$-908    	;abs 0x8c8
     c56:	2c 31       	jn	$+602    	;abs 0xeb0
     c58:	36 3b       	jl	$-402    	;abs 0xac6
     c5a:	63 63       	.word	0x6363;	????	Illegal as 2-op instr
     c5c:	74 6c       	addc.b	@r12+,	r4	
     c5e:	36 3a       	jl	$-914    	;abs 0x8cc
     c60:	28 31       	jn	$+594    	;abs 0xeb2
     c62:	31 2c       	jc	$+100    	;abs 0xcc6
     c64:	33 29       	jnc	$+616    	;abs 0xecc
     c66:	2c 31       	jn	$+602    	;abs 0xec0
     c68:	31 32       	jn	$-924    	;abs 0x8cc
     c6a:	2c 31       	jn	$+602    	;abs 0xec4
     c6c:	36 3b       	jl	$-402    	;abs 0xada
     c6e:	74 62       	addc.b	#8,	r4	;r2 As==11
     c70:	72 3a       	jl	$-794    	;abs 0x956
     c72:	28 30       	jn	$+82     	;abs 0xcc4
     c74:	2c 34       	jge	$+90     	;abs 0xcce
     c76:	29 2c       	jc	$+84     	;abs 0xcca
     c78:	31 32       	jn	$-924    	;abs 0x8dc
     c7a:	38 2c       	jc	$+114    	;abs 0xcec
     c7c:	31 36       	jge	$-924    	;abs 0x8e0
     c7e:	3b 74       	subc	@r4+,	r11	
     c80:	62 63       	addc.b	#2,	r2	;r3 As==10
     c82:	63 72       	.word	0x7263;	????	Illegal as 2-op instr
     c84:	30 3a       	jl	$-926    	;abs 0x8e6
     c86:	28 30       	jn	$+82     	;abs 0xcd8
     c88:	2c 34       	jge	$+90     	;abs 0xce2
     c8a:	29 2c       	jc	$+84     	;abs 0xcde
     c8c:	31 34       	jge	$+100    	;abs 0xcf0
     c8e:	34 2c       	jc	$+106    	;abs 0xcf8
     c90:	31 36       	jge	$-924    	;abs 0x8f4
     c92:	3b 74       	subc	@r4+,	r11	
     c94:	62 63       	addc.b	#2,	r2	;r3 As==10
     c96:	63 72       	.word	0x7263;	????	Illegal as 2-op instr
     c98:	31 3a       	jl	$-924    	;abs 0x8fc
     c9a:	28 30       	jn	$+82     	;abs 0xcec
     c9c:	2c 34       	jge	$+90     	;abs 0xcf6
     c9e:	29 2c       	jc	$+84     	;abs 0xcf2
     ca0:	31 36       	jge	$-924    	;abs 0x904
     ca2:	30 2c       	jc	$+98     	;abs 0xd04
     ca4:	31 36       	jge	$-924    	;abs 0x908
     ca6:	3b 74       	subc	@r4+,	r11	
     ca8:	62 63       	addc.b	#2,	r2	;r3 As==10
     caa:	63 72       	.word	0x7263;	????	Illegal as 2-op instr
     cac:	32 3a       	jl	$-922    	;abs 0x912
     cae:	28 30       	jn	$+82     	;abs 0xd00
     cb0:	2c 34       	jge	$+90     	;abs 0xd0a
     cb2:	29 2c       	jc	$+84     	;abs 0xd06
     cb4:	31 37       	jge	$-412    	;abs 0xb18
     cb6:	36 2c       	jc	$+110    	;abs 0xd24
     cb8:	31 36       	jge	$-924    	;abs 0x91c
     cba:	3b 74       	subc	@r4+,	r11	
     cbc:	62 63       	addc.b	#2,	r2	;r3 As==10
     cbe:	63 72       	.word	0x7263;	????	Illegal as 2-op instr
     cc0:	33 3a       	jl	$-920    	;abs 0x928
     cc2:	28 30       	jn	$+82     	;abs 0xd14
     cc4:	2c 34       	jge	$+90     	;abs 0xd1e
     cc6:	29 2c       	jc	$+84     	;abs 0xd1a
     cc8:	31 39       	jl	$+612    	;abs 0xf2c
     cca:	32 2c       	jc	$+102    	;abs 0xd30
     ccc:	31 36       	jge	$-924    	;abs 0x930
     cce:	3b 74       	subc	@r4+,	r11	
     cd0:	62 63       	addc.b	#2,	r2	;r3 As==10
     cd2:	63 72       	.word	0x7263;	????	Illegal as 2-op instr
     cd4:	34 3a       	jl	$-918    	;abs 0x93e
     cd6:	28 30       	jn	$+82     	;abs 0xd28
     cd8:	2c 34       	jge	$+90     	;abs 0xd32
     cda:	29 2c       	jc	$+84     	;abs 0xd2e
     cdc:	32 30       	jn	$+102    	;abs 0xd42
     cde:	38 2c       	jc	$+114    	;abs 0xd50
     ce0:	31 36       	jge	$-924    	;abs 0x944
     ce2:	3b 74       	subc	@r4+,	r11	
     ce4:	62 63       	addc.b	#2,	r2	;r3 As==10
     ce6:	63 72       	.word	0x7263;	????	Illegal as 2-op instr
     ce8:	35 3a       	jl	$-916    	;abs 0x954
     cea:	28 30       	jn	$+82     	;abs 0xd3c
     cec:	2c 34       	jge	$+90     	;abs 0xd46
     cee:	29 2c       	jc	$+84     	;abs 0xd42
     cf0:	32 32       	jn	$-922    	;abs 0x956
     cf2:	34 2c       	jc	$+106    	;abs 0xd5c
     cf4:	31 36       	jge	$-924    	;abs 0x958
     cf6:	3b 74       	subc	@r4+,	r11	
     cf8:	62 63       	addc.b	#2,	r2	;r3 As==10
     cfa:	63 72       	.word	0x7263;	????	Illegal as 2-op instr
     cfc:	36 3a       	jl	$-914    	;abs 0x96a
     cfe:	28 30       	jn	$+82     	;abs 0xd50
     d00:	2c 34       	jge	$+90     	;abs 0xd5a
     d02:	29 2c       	jc	$+84     	;abs 0xd56
     d04:	32 34       	jge	$+102    	;abs 0xd6a
     d06:	30 2c       	jc	$+98     	;abs 0xd68
     d08:	31 36       	jge	$-924    	;abs 0x96c
     d0a:	3b 3b       	jl	$-392    	;abs 0xb82
     d0c:	00 63       	adc	r0		
     d0e:	3a 2f       	jc	$-394    	;abs 0xb84
     d10:	6d 73       	subc.b	#2,	r13	;r3 As==10
     d12:	70 67       	addc.b	@r7+,	r0	
     d14:	63 63       	.word	0x6363;	????	Illegal as 2-op instr
     d16:	2f 6d       	addc	@r13,	r15	
     d18:	73 70       	.word	0x7073;	????	Illegal as 2-op instr
     d1a:	34 33       	jn	$-406    	;abs 0xb84
     d1c:	30 2f       	jc	$-414    	;abs 0xb7e
     d1e:	69 6e       	addc.b	@r14,	r9	
     d20:	63 6c       	.word	0x6c63;	????	Illegal as 2-op instr
     d22:	75 64       	addc.b	@r4+,	r5	
     d24:	65 2f       	jc	$-308    	;abs 0xbf0
     d26:	6d 73       	subc.b	#2,	r13	;r3 As==10
     d28:	70 34       	jge	$+226    	;abs 0xe0a
     d2a:	33 30       	jn	$+104    	;abs 0xd92
     d2c:	2f 62       	addc	#4,	r15	;r2 As==10
     d2e:	61 73       	subc.b	#2,	r1	;r3 As==10
     d30:	69 63       	addc.b	#2,	r9	;r3 As==10
     d32:	5f 63       	addc.b	#1,	r15	;r3 As==01
     d34:	6c 6f       	addc.b	@r15,	r12	
     d36:	63 6b       	.word	0x6b63;	????	Illegal as 2-op instr
     d38:	2e 68       	addc	@r8,	r14	
     d3a:	00 63       	adc	r0		
     d3c:	3a 2f       	jc	$-394    	;abs 0xbb2
     d3e:	6d 73       	subc.b	#2,	r13	;r3 As==10
     d40:	70 67       	addc.b	@r7+,	r0	
     d42:	63 63       	.word	0x6363;	????	Illegal as 2-op instr
     d44:	2f 6d       	addc	@r13,	r15	
     d46:	73 70       	.word	0x7073;	????	Illegal as 2-op instr
     d48:	34 33       	jn	$-406    	;abs 0xbb2
     d4a:	30 2f       	jc	$-414    	;abs 0xbac
     d4c:	69 6e       	addc.b	@r14,	r9	
     d4e:	63 6c       	.word	0x6c63;	????	Illegal as 2-op instr
     d50:	75 64       	addc.b	@r4+,	r5	
     d52:	65 2f       	jc	$-308    	;abs 0xc1e
     d54:	6d 73       	subc.b	#2,	r13	;r3 As==10
     d56:	70 34       	jge	$+226    	;abs 0xe38
     d58:	33 30       	jn	$+104    	;abs 0xdc0
     d5a:	2f 66       	addc	@r6,	r15	
     d5c:	6c 61       	addc.b	@r1,	r12	
     d5e:	73 68       	.word	0x6873;	????	Illegal as 2-op instr
     d60:	2e 68       	addc	@r8,	r14	
     d62:	00 63       	adc	r0		
     d64:	3a 2f       	jc	$-394    	;abs 0xbda
     d66:	6d 73       	subc.b	#2,	r13	;r3 As==10
     d68:	70 67       	addc.b	@r7+,	r0	
     d6a:	63 63       	.word	0x6363;	????	Illegal as 2-op instr
     d6c:	2f 6d       	addc	@r13,	r15	
     d6e:	73 70       	.word	0x7073;	????	Illegal as 2-op instr
     d70:	34 33       	jn	$-406    	;abs 0xbda
     d72:	30 2f       	jc	$-414    	;abs 0xbd4
     d74:	69 6e       	addc.b	@r14,	r9	
     d76:	63 6c       	.word	0x6c63;	????	Illegal as 2-op instr
     d78:	75 64       	addc.b	@r4+,	r5	
     d7a:	65 2f       	jc	$-308    	;abs 0xc46
     d7c:	6d 73       	subc.b	#2,	r13	;r3 As==10
     d7e:	70 34       	jge	$+226    	;abs 0xe60
     d80:	33 30       	jn	$+104    	;abs 0xde8
     d82:	2f 63       	addc	#2,	r15	;r3 As==10
     d84:	6f 6d       	addc.b	@r13,	r15	
     d86:	70 61       	addc.b	@r1+,	r0	
     d88:	2e 68       	addc	@r8,	r14	
     d8a:	00 63       	adc	r0		
     d8c:	3a 2f       	jc	$-394    	;abs 0xc02
     d8e:	6d 73       	subc.b	#2,	r13	;r3 As==10
     d90:	70 67       	addc.b	@r7+,	r0	
     d92:	63 63       	.word	0x6363;	????	Illegal as 2-op instr
     d94:	2f 6d       	addc	@r13,	r15	
     d96:	73 70       	.word	0x7073;	????	Illegal as 2-op instr
     d98:	34 33       	jn	$-406    	;abs 0xc02
     d9a:	30 2f       	jc	$-414    	;abs 0xbfc
     d9c:	69 6e       	addc.b	@r14,	r9	
     d9e:	63 6c       	.word	0x6c63;	????	Illegal as 2-op instr
     da0:	75 64       	addc.b	@r4+,	r5	
     da2:	65 2f       	jc	$-308    	;abs 0xc6e
     da4:	6d 73       	subc.b	#2,	r13	;r3 As==10
     da6:	70 34       	jge	$+226    	;abs 0xe88
     da8:	33 30       	jn	$+104    	;abs 0xe10
     daa:	2f 61       	addc	@r1,	r15	
     dac:	64 63       	addc.b	#2,	r4	;r3 As==10
     dae:	31 32       	jn	$-924    	;abs 0xa12
     db0:	2e 68       	addc	@r8,	r14	
     db2:	00 61       	addc	r1,	r0	
     db4:	64 63       	addc.b	#2,	r4	;r3 As==10
     db6:	31 32       	jn	$-924    	;abs 0xa1a
     db8:	63 74       	.word	0x7463;	????	Illegal as 2-op instr
     dba:	6c 30       	jn	$+218    	;abs 0xe94
     dbc:	5f 74 3a 74 	subc.b	29754(r4),r15	;0x743a(r4)
     dc0:	28 31       	jn	$+594    	;abs 0x1012
     dc2:	35 2c       	jc	$+108    	;abs 0xe2e
     dc4:	31 29       	jnc	$+612    	;abs 0x1028
     dc6:	3d 28       	jnc	$+124    	;abs 0xe42
     dc8:	31 35       	jge	$+612    	;abs 0x102c
     dca:	2c 32       	jn	$-934    	;abs 0xa24
     dcc:	29 3d       	jmp	$+596    	;abs 0x1020
     dce:	73 32       	jn	$-792    	;abs 0xab6
     dd0:	61 64       	addc.b	@r4,	r1	
     dd2:	63 31       	jn	$+712    	;abs 0x109a
     dd4:	32 73       	subc	#-1,	r2	;r3 As==11
     dd6:	63 3a       	jl	$-824    	;abs 0xa9e
     dd8:	28 30       	jn	$+82     	;abs 0xe2a
     dda:	2c 34       	jge	$+90     	;abs 0xe34
     ddc:	29 2c       	jc	$+84     	;abs 0xe30
     dde:	30 2c       	jc	$+98     	;abs 0xe40
     de0:	31 3b       	jl	$-412    	;abs 0xc44
     de2:	65 6e       	addc.b	@r14,	r5	
     de4:	63 3a       	jl	$-824    	;abs 0xaac
     de6:	28 30       	jn	$+82     	;abs 0xe38
     de8:	2c 34       	jge	$+90     	;abs 0xe42
     dea:	29 2c       	jc	$+84     	;abs 0xe3e
     dec:	31 2c       	jc	$+100    	;abs 0xe50
     dee:	31 3b       	jl	$-412    	;abs 0xc52
     df0:	61 64       	addc.b	@r4,	r1	
     df2:	63 31       	jn	$+712    	;abs 0x10ba
     df4:	32 74       	subc	@r4+,	r2	
     df6:	6f 76       	subc.b	@r6,	r15	
     df8:	69 65       	addc.b	@r5,	r9	
     dfa:	3a 28       	jnc	$+118    	;abs 0xe70
     dfc:	30 2c       	jc	$+98     	;abs 0xe5e
     dfe:	34 29       	jnc	$+618    	;abs 0x1068
     e00:	2c 32       	jn	$-934    	;abs 0xa5a
     e02:	2c 31       	jn	$+602    	;abs 0x105c
     e04:	3b 61       	addc	@r1+,	r11	
     e06:	64 63       	addc.b	#2,	r4	;r3 As==10
     e08:	31 32       	jn	$-924    	;abs 0xa6c
     e0a:	6f 76       	subc.b	@r6,	r15	
     e0c:	69 65       	addc.b	@r5,	r9	
     e0e:	3a 28       	jnc	$+118    	;abs 0xe84
     e10:	30 2c       	jc	$+98     	;abs 0xe72
     e12:	34 29       	jnc	$+618    	;abs 0x107c
     e14:	2c 33       	jn	$-422    	;abs 0xc6e
     e16:	2c 31       	jn	$+602    	;abs 0x1070
     e18:	3b 61       	addc	@r1+,	r11	
     e1a:	64 63       	addc.b	#2,	r4	;r3 As==10
     e1c:	31 32       	jn	$-924    	;abs 0xa80
     e1e:	6f 6e       	addc.b	@r14,	r15	
     e20:	3a 28       	jnc	$+118    	;abs 0xe96
     e22:	30 2c       	jc	$+98     	;abs 0xe84
     e24:	34 29       	jnc	$+618    	;abs 0x108e
     e26:	2c 34       	jge	$+90     	;abs 0xe80
     e28:	2c 31       	jn	$+602    	;abs 0x1082
     e2a:	3b 72       	subc	#8,	r11	;r2 As==11
     e2c:	65 66       	addc.b	@r6,	r5	
     e2e:	6f 6e       	addc.b	@r14,	r15	
     e30:	3a 28       	jnc	$+118    	;abs 0xea6
     e32:	30 2c       	jc	$+98     	;abs 0xe94
     e34:	34 29       	jnc	$+618    	;abs 0x109e
     e36:	2c 35       	jge	$+602    	;abs 0x1090
     e38:	2c 31       	jn	$+602    	;abs 0x1092
     e3a:	3b 72       	subc	#8,	r11	;r2 As==11
     e3c:	32 5f       	add	@r15+,	r2	
     e3e:	35 76       	subc	@r6+,	r5	
     e40:	3a 28       	jnc	$+118    	;abs 0xeb6
     e42:	30 2c       	jc	$+98     	;abs 0xea4
     e44:	34 29       	jnc	$+618    	;abs 0x10ae
     e46:	2c 36       	jge	$-934    	;abs 0xaa0
     e48:	2c 31       	jn	$+602    	;abs 0x10a2
     e4a:	3b 6d       	addc	@r13+,	r11	
     e4c:	73 63       	.word	0x6373;	????	Illegal as 2-op instr
     e4e:	3a 28       	jnc	$+118    	;abs 0xec4
     e50:	30 2c       	jc	$+98     	;abs 0xeb2
     e52:	34 29       	jnc	$+618    	;abs 0x10bc
     e54:	2c 37       	jge	$-422    	;abs 0xcae
     e56:	2c 31       	jn	$+602    	;abs 0x10b0
     e58:	3b 73       	subc	#-1,	r11	;r3 As==11
     e5a:	68 74       	subc.b	@r4,	r8	
     e5c:	30 3a       	jl	$-926    	;abs 0xabe
     e5e:	28 30       	jn	$+82     	;abs 0xeb0
     e60:	2c 34       	jge	$+90     	;abs 0xeba
     e62:	29 2c       	jc	$+84     	;abs 0xeb6
     e64:	38 2c       	jc	$+114    	;abs 0xed6
     e66:	34 3b       	jl	$-406    	;abs 0xcd0
     e68:	73 68       	.word	0x6873;	????	Illegal as 2-op instr
     e6a:	74 31       	jn	$+746    	;abs 0x1154
     e6c:	3a 28       	jnc	$+118    	;abs 0xee2
     e6e:	30 2c       	jc	$+98     	;abs 0xed0
     e70:	34 29       	jnc	$+618    	;abs 0x10da
     e72:	2c 31       	jn	$+602    	;abs 0x10cc
     e74:	32 2c       	jc	$+102    	;abs 0xeda
     e76:	34 3b       	jl	$-406    	;abs 0xce0
     e78:	3b 00 61 64 	mova	0x6461,	r11	;PC rel. 0x072db
     e7c:	63 31       	jn	$+712    	;abs 0x1144
     e7e:	32 63       	addc	#-1,	r2	;r3 As==11
     e80:	74 6c       	addc.b	@r12+,	r4	
     e82:	31 5f       	add	@r15+,	r1	
     e84:	74 3a       	jl	$-790    	;abs 0xb6e
     e86:	74 28       	jnc	$+234    	;abs 0xf70
     e88:	31 35       	jge	$+612    	;abs 0x10ec
     e8a:	2c 33       	jn	$-422    	;abs 0xce4
     e8c:	29 3d       	jmp	$+596    	;abs 0x10e0
     e8e:	28 31       	jn	$+594    	;abs 0x10e0
     e90:	35 2c       	jc	$+108    	;abs 0xefc
     e92:	34 29       	jnc	$+618    	;abs 0x10fc
     e94:	3d 73       	subc	#-1,	r13	;r3 As==11
     e96:	32 61       	addc	@r1+,	r2	
     e98:	64 63       	addc.b	#2,	r4	;r3 As==10
     e9a:	31 32       	jn	$-924    	;abs 0xafe
     e9c:	62 75       	subc.b	@r5,	r2	
     e9e:	73 79       	.word	0x7973;	????	Illegal as 2-op instr
     ea0:	3a 28       	jnc	$+118    	;abs 0xf16
     ea2:	30 2c       	jc	$+98     	;abs 0xf04
     ea4:	34 29       	jnc	$+618    	;abs 0x110e
     ea6:	2c 30       	jn	$+90     	;abs 0xf00
     ea8:	2c 31       	jn	$+602    	;abs 0x1102
     eaa:	3b 63       	addc	#-1,	r11	;r3 As==11
     eac:	6f 6e       	addc.b	@r14,	r15	
     eae:	73 65       	.word	0x6573;	????	Illegal as 2-op instr
     eb0:	71 3a       	jl	$-796    	;abs 0xb94
     eb2:	28 30       	jn	$+82     	;abs 0xf04
     eb4:	2c 34       	jge	$+90     	;abs 0xf0e
     eb6:	29 2c       	jc	$+84     	;abs 0xf0a
     eb8:	31 2c       	jc	$+100    	;abs 0xf1c
     eba:	32 3b       	jl	$-410    	;abs 0xd20
     ebc:	61 64       	addc.b	@r4,	r1	
     ebe:	63 31       	jn	$+712    	;abs 0x1186
     ec0:	32 73       	subc	#-1,	r2	;r3 As==11
     ec2:	73 65       	.word	0x6573;	????	Illegal as 2-op instr
     ec4:	6c 3a       	jl	$-806    	;abs 0xb9e
     ec6:	28 30       	jn	$+82     	;abs 0xf18
     ec8:	2c 34       	jge	$+90     	;abs 0xf22
     eca:	29 2c       	jc	$+84     	;abs 0xf1e
     ecc:	33 2c       	jc	$+104    	;abs 0xf34
     ece:	32 3b       	jl	$-410    	;abs 0xd34
     ed0:	61 64       	addc.b	@r4,	r1	
     ed2:	63 31       	jn	$+712    	;abs 0x119a
     ed4:	32 64       	addc	@r4+,	r2	
     ed6:	69 76       	subc.b	@r6,	r9	
     ed8:	3a 28       	jnc	$+118    	;abs 0xf4e
     eda:	30 2c       	jc	$+98     	;abs 0xf3c
     edc:	34 29       	jnc	$+618    	;abs 0x1146
     ede:	2c 35       	jge	$+602    	;abs 0x1138
     ee0:	2c 33       	jn	$-422    	;abs 0xd3a
     ee2:	3b 69       	addc	@r9+,	r11	
     ee4:	73 73       	.word	0x7373;	????	Illegal as 2-op instr
     ee6:	68 3a       	jl	$-814    	;abs 0xbb8
     ee8:	28 30       	jn	$+82     	;abs 0xf3a
     eea:	2c 34       	jge	$+90     	;abs 0xf44
     eec:	29 2c       	jc	$+84     	;abs 0xf40
     eee:	38 2c       	jc	$+114    	;abs 0xf60
     ef0:	31 3b       	jl	$-412    	;abs 0xd54
     ef2:	73 68       	.word	0x6873;	????	Illegal as 2-op instr
     ef4:	70 3a       	jl	$-798    	;abs 0xbd6
     ef6:	28 30       	jn	$+82     	;abs 0xf48
     ef8:	2c 34       	jge	$+90     	;abs 0xf52
     efa:	29 2c       	jc	$+84     	;abs 0xf4e
     efc:	39 2c       	jc	$+116    	;abs 0xf70
     efe:	31 3b       	jl	$-412    	;abs 0xd62
     f00:	73 68       	.word	0x6873;	????	Illegal as 2-op instr
     f02:	73 3a       	jl	$-792    	;abs 0xbea
     f04:	28 30       	jn	$+82     	;abs 0xf56
     f06:	2c 34       	jge	$+90     	;abs 0xf60
     f08:	29 2c       	jc	$+84     	;abs 0xf5c
     f0a:	31 30       	jn	$+100    	;abs 0xf6e
     f0c:	2c 32       	jn	$-934    	;abs 0xb66
     f0e:	3b 63       	addc	#-1,	r11	;r3 As==11
     f10:	73 74       	.word	0x7473;	????	Illegal as 2-op instr
     f12:	61 72       	subc.b	#4,	r1	;r2 As==10
     f14:	74 61       	addc.b	@r1+,	r4	
     f16:	64 64       	addc.b	@r4,	r4	
     f18:	3a 28       	jnc	$+118    	;abs 0xf8e
     f1a:	30 2c       	jc	$+98     	;abs 0xf7c
     f1c:	34 29       	jnc	$+618    	;abs 0x1186
     f1e:	2c 31       	jn	$+602    	;abs 0x1178
     f20:	32 2c       	jc	$+102    	;abs 0xf86
     f22:	34 3b       	jl	$-406    	;abs 0xd8c
     f24:	3b 00 61 64 	mova	0x6461,	r11	;PC rel. 0x07387
     f28:	63 31       	jn	$+712    	;abs 0x11f0
     f2a:	32 78       	subc	@r8+,	r2	
     f2c:	66 6c       	addc.b	@r12,	r6	
     f2e:	67 5f       	add.b	@r15,	r7	
     f30:	74 3a       	jl	$-790    	;abs 0xc1a
     f32:	74 28       	jnc	$+234    	;abs 0x101c
     f34:	31 35       	jge	$+612    	;abs 0x1198
     f36:	2c 35       	jge	$+602    	;abs 0x1190
     f38:	29 3d       	jmp	$+596    	;abs 0x118c
     f3a:	28 31       	jn	$+594    	;abs 0x118c
     f3c:	35 2c       	jc	$+108    	;abs 0xfa8
     f3e:	36 29       	jnc	$+622    	;abs 0x11ac
     f40:	3d 73       	subc	#-1,	r13	;r3 As==11
     f42:	32 62       	addc	#8,	r2	;r2 As==11
     f44:	69 74       	subc.b	@r4,	r9	
     f46:	30 3a       	jl	$-926    	;abs 0xba8
     f48:	28 30       	jn	$+82     	;abs 0xf9a
     f4a:	2c 34       	jge	$+90     	;abs 0xfa4
     f4c:	29 2c       	jc	$+84     	;abs 0xfa0
     f4e:	30 2c       	jc	$+98     	;abs 0xfb0
     f50:	31 3b       	jl	$-412    	;abs 0xdb4
     f52:	62 69       	addc.b	@r9,	r2	
     f54:	74 31       	jn	$+746    	;abs 0x123e
     f56:	3a 28       	jnc	$+118    	;abs 0xfcc
     f58:	30 2c       	jc	$+98     	;abs 0xfba
     f5a:	34 29       	jnc	$+618    	;abs 0x11c4
     f5c:	2c 31       	jn	$+602    	;abs 0x11b6
     f5e:	2c 31       	jn	$+602    	;abs 0x11b8
     f60:	3b 62       	addc	#8,	r11	;r2 As==11
     f62:	69 74       	subc.b	@r4,	r9	
     f64:	32 3a       	jl	$-922    	;abs 0xbca
     f66:	28 30       	jn	$+82     	;abs 0xfb8
     f68:	2c 34       	jge	$+90     	;abs 0xfc2
     f6a:	29 2c       	jc	$+84     	;abs 0xfbe
     f6c:	32 2c       	jc	$+102    	;abs 0xfd2
     f6e:	31 3b       	jl	$-412    	;abs 0xdd2
     f70:	62 69       	addc.b	@r9,	r2	
     f72:	74 33       	jn	$-278    	;abs 0xe5c
     f74:	3a 28       	jnc	$+118    	;abs 0xfea
     f76:	30 2c       	jc	$+98     	;abs 0xfd8
     f78:	34 29       	jnc	$+618    	;abs 0x11e2
     f7a:	2c 33       	jn	$-422    	;abs 0xdd4
     f7c:	2c 31       	jn	$+602    	;abs 0x11d6
     f7e:	3b 62       	addc	#8,	r11	;r2 As==11
     f80:	69 74       	subc.b	@r4,	r9	
     f82:	34 3a       	jl	$-918    	;abs 0xbec
     f84:	28 30       	jn	$+82     	;abs 0xfd6
     f86:	2c 34       	jge	$+90     	;abs 0xfe0
     f88:	29 2c       	jc	$+84     	;abs 0xfdc
     f8a:	34 2c       	jc	$+106    	;abs 0xff4
     f8c:	31 3b       	jl	$-412    	;abs 0xdf0
     f8e:	62 69       	addc.b	@r9,	r2	
     f90:	74 35       	jge	$+746    	;abs 0x127a
     f92:	3a 28       	jnc	$+118    	;abs 0x1008
     f94:	30 2c       	jc	$+98     	;abs 0xff6
     f96:	34 29       	jnc	$+618    	;abs 0x1200
     f98:	2c 35       	jge	$+602    	;abs 0x11f2
     f9a:	2c 31       	jn	$+602    	;abs 0x11f4
     f9c:	3b 62       	addc	#8,	r11	;r2 As==11
     f9e:	69 74       	subc.b	@r4,	r9	
     fa0:	36 3a       	jl	$-914    	;abs 0xc0e
     fa2:	28 30       	jn	$+82     	;abs 0xff4
     fa4:	2c 34       	jge	$+90     	;abs 0xffe
     fa6:	29 2c       	jc	$+84     	;abs 0xffa
     fa8:	36 2c       	jc	$+110    	;abs 0x1016
     faa:	31 3b       	jl	$-412    	;abs 0xe0e
     fac:	62 69       	addc.b	@r9,	r2	
     fae:	74 37       	jge	$-278    	;abs 0xe98
     fb0:	3a 28       	jnc	$+118    	;abs 0x1026
     fb2:	30 2c       	jc	$+98     	;abs 0x1014
     fb4:	34 29       	jnc	$+618    	;abs 0x121e
     fb6:	2c 37       	jge	$-422    	;abs 0xe10
     fb8:	2c 31       	jn	$+602    	;abs 0x1212
     fba:	3b 62       	addc	#8,	r11	;r2 As==11
     fbc:	69 74       	subc.b	@r4,	r9	
     fbe:	38 3a       	jl	$-910    	;abs 0xc30
     fc0:	28 30       	jn	$+82     	;abs 0x1012
     fc2:	2c 34       	jge	$+90     	;abs 0x101c
     fc4:	29 2c       	jc	$+84     	;abs 0x1018
     fc6:	38 2c       	jc	$+114    	;abs 0x1038
     fc8:	31 3b       	jl	$-412    	;abs 0xe2c
     fca:	62 69       	addc.b	@r9,	r2	
     fcc:	74 39       	jl	$+746    	;abs 0x12b6
     fce:	3a 28       	jnc	$+118    	;abs 0x1044
     fd0:	30 2c       	jc	$+98     	;abs 0x1032
     fd2:	34 29       	jnc	$+618    	;abs 0x123c
     fd4:	2c 39       	jl	$+602    	;abs 0x122e
     fd6:	2c 31       	jn	$+602    	;abs 0x1230
     fd8:	3b 62       	addc	#8,	r11	;r2 As==11
     fda:	69 74       	subc.b	@r4,	r9	
     fdc:	31 30       	jn	$+100    	;abs 0x1040
     fde:	3a 28       	jnc	$+118    	;abs 0x1054
     fe0:	30 2c       	jc	$+98     	;abs 0x1042
     fe2:	34 29       	jnc	$+618    	;abs 0x124c
     fe4:	2c 31       	jn	$+602    	;abs 0x123e
     fe6:	30 2c       	jc	$+98     	;abs 0x1048
     fe8:	31 3b       	jl	$-412    	;abs 0xe4c
     fea:	62 69       	addc.b	@r9,	r2	
     fec:	74 31       	jn	$+746    	;abs 0x12d6
     fee:	31 3a       	jl	$-924    	;abs 0xc52
     ff0:	28 30       	jn	$+82     	;abs 0x1042
     ff2:	2c 34       	jge	$+90     	;abs 0x104c
     ff4:	29 2c       	jc	$+84     	;abs 0x1048
     ff6:	31 31       	jn	$+612    	;abs 0x125a
     ff8:	2c 31       	jn	$+602    	;abs 0x1252
     ffa:	3b 62       	addc	#8,	r11	;r2 As==11
     ffc:	69 74       	subc.b	@r4,	r9	
     ffe:	31 32       	jn	$-924    	;abs 0xc62
    1000:	3a 28       	jnc	$+118    	;abs 0x1076
    1002:	30 2c       	jc	$+98     	;abs 0x1064
    1004:	34 29       	jnc	$+618    	;abs 0x126e
    1006:	2c 31       	jn	$+602    	;abs 0x1260
    1008:	32 2c       	jc	$+102    	;abs 0x106e
    100a:	31 3b       	jl	$-412    	;abs 0xe6e
    100c:	62 69       	addc.b	@r9,	r2	
    100e:	74 31       	jn	$+746    	;abs 0x12f8
    1010:	33 3a       	jl	$-920    	;abs 0xc78
    1012:	28 30       	jn	$+82     	;abs 0x1064
    1014:	2c 34       	jge	$+90     	;abs 0x106e
    1016:	29 2c       	jc	$+84     	;abs 0x106a
    1018:	31 33       	jn	$-412    	;abs 0xe7c
    101a:	2c 31       	jn	$+602    	;abs 0x1274
    101c:	3b 62       	addc	#8,	r11	;r2 As==11
    101e:	69 74       	subc.b	@r4,	r9	
    1020:	31 34       	jge	$+100    	;abs 0x1084
    1022:	3a 28       	jnc	$+118    	;abs 0x1098
    1024:	30 2c       	jc	$+98     	;abs 0x1086
    1026:	34 29       	jnc	$+618    	;abs 0x1290
    1028:	2c 31       	jn	$+602    	;abs 0x1282
    102a:	34 2c       	jc	$+106    	;abs 0x1094
    102c:	31 3b       	jl	$-412    	;abs 0xe90
    102e:	62 69       	addc.b	@r9,	r2	
    1030:	74 31       	jn	$+746    	;abs 0x131a
    1032:	35 3a       	jl	$-916    	;abs 0xc9e
    1034:	28 30       	jn	$+82     	;abs 0x1086
    1036:	2c 34       	jge	$+90     	;abs 0x1090
    1038:	29 2c       	jc	$+84     	;abs 0x108c
    103a:	31 35       	jge	$+612    	;abs 0x129e
    103c:	2c 31       	jn	$+602    	;abs 0x1296
    103e:	3b 3b       	jl	$-392    	;abs 0xeb6
    1040:	00 61       	addc	r1,	r0	
    1042:	64 63       	addc.b	#2,	r4	;r3 As==10
    1044:	31 32       	jn	$-924    	;abs 0xca8
    1046:	5f 74 3a 54 	subc.b	21562(r4),r15	;0x543a(r4)
    104a:	28 31       	jn	$+594    	;abs 0x129c
    104c:	35 2c       	jc	$+108    	;abs 0x10b8
    104e:	37 29       	jnc	$+624    	;abs 0x12be
    1050:	3d 73       	subc	#-1,	r13	;r3 As==11
    1052:	31 30       	jn	$+100    	;abs 0x10b6
    1054:	63 74       	.word	0x7463;	????	Illegal as 2-op instr
    1056:	6c 30       	jn	$+218    	;abs 0x1130
    1058:	3a 28       	jnc	$+118    	;abs 0x10ce
    105a:	31 35       	jge	$+612    	;abs 0x12be
    105c:	2c 31       	jn	$+602    	;abs 0x12b6
    105e:	29 2c       	jc	$+84     	;abs 0x10b2
    1060:	30 2c       	jc	$+98     	;abs 0x10c2
    1062:	31 36       	jge	$-924    	;abs 0xcc6
    1064:	3b 63       	addc	#-1,	r11	;r3 As==11
    1066:	74 6c       	addc.b	@r12+,	r4	
    1068:	31 3a       	jl	$-924    	;abs 0xccc
    106a:	28 31       	jn	$+594    	;abs 0x12bc
    106c:	35 2c       	jc	$+108    	;abs 0x10d8
    106e:	33 29       	jnc	$+616    	;abs 0x12d6
    1070:	2c 31       	jn	$+602    	;abs 0x12ca
    1072:	36 2c       	jc	$+110    	;abs 0x10e0
    1074:	31 36       	jge	$-924    	;abs 0xcd8
    1076:	3b 69       	addc	@r9+,	r11	
    1078:	66 67       	addc.b	@r7,	r6	
    107a:	3a 28       	jnc	$+118    	;abs 0x10f0
    107c:	31 35       	jge	$+612    	;abs 0x12e0
    107e:	2c 35       	jge	$+602    	;abs 0x12d8
    1080:	29 2c       	jc	$+84     	;abs 0x10d4
    1082:	33 32       	jn	$-920    	;abs 0xcea
    1084:	2c 31       	jn	$+602    	;abs 0x12de
    1086:	36 3b       	jl	$-402    	;abs 0xef4
    1088:	69 65       	addc.b	@r5,	r9	
    108a:	3a 28       	jnc	$+118    	;abs 0x1100
    108c:	31 35       	jge	$+612    	;abs 0x12f0
    108e:	2c 35       	jge	$+602    	;abs 0x12e8
    1090:	29 2c       	jc	$+84     	;abs 0x10e4
    1092:	34 38       	jl	$+106    	;abs 0x10fc
    1094:	2c 31       	jn	$+602    	;abs 0x12ee
    1096:	36 3b       	jl	$-402    	;abs 0xf04
    1098:	69 76       	subc.b	@r6,	r9	
    109a:	3a 28       	jnc	$+118    	;abs 0x1110
    109c:	31 35       	jge	$+612    	;abs 0x1300
    109e:	2c 35       	jge	$+602    	;abs 0x12f8
    10a0:	29 2c       	jc	$+84     	;abs 0x10f4
    10a2:	36 34       	jge	$+110    	;abs 0x1110
    10a4:	2c 31       	jn	$+602    	;abs 0x12fe
    10a6:	36 3b       	jl	$-402    	;abs 0xf14
    10a8:	3b 00 63 3a 	mova	0x3a63,	r11	;PC rel. 0x04b0d
    10ac:	2f 6d       	addc	@r13,	r15	
    10ae:	73 70       	.word	0x7073;	????	Illegal as 2-op instr
    10b0:	67 63       	addc.b	#2,	r7	;r3 As==10
    10b2:	63 2f       	jc	$-312    	;abs 0xf7a
    10b4:	6d 73       	subc.b	#2,	r13	;r3 As==10
    10b6:	70 34       	jge	$+226    	;abs 0x1198
    10b8:	33 30       	jn	$+104    	;abs 0x1120
    10ba:	2f 69       	addc	@r9,	r15	
    10bc:	6e 63       	addc.b	#2,	r14	;r3 As==10
    10be:	6c 75       	subc.b	@r5,	r12	
    10c0:	64 65       	addc.b	@r5,	r4	
    10c2:	2f 6d       	addc	@r13,	r15	
    10c4:	73 70       	.word	0x7073;	????	Illegal as 2-op instr
    10c6:	34 33       	jn	$-406    	;abs 0xf30
    10c8:	30 2f       	jc	$-414    	;abs 0xf2a
    10ca:	64 61       	addc.b	@r1,	r4	
    10cc:	63 31       	jn	$+712    	;abs 0x1394
    10ce:	32 2e       	jc	$-922    	;abs 0xd34
    10d0:	68 00 63 3a 	mova	r0,	&0x83a63
    10d4:	2f 6d       	addc	@r13,	r15	
    10d6:	73 70       	.word	0x7073;	????	Illegal as 2-op instr
    10d8:	67 63       	addc.b	#2,	r7	;r3 As==10
    10da:	63 2f       	jc	$-312    	;abs 0xfa2
    10dc:	6d 73       	subc.b	#2,	r13	;r3 As==10
    10de:	70 34       	jge	$+226    	;abs 0x11c0
    10e0:	33 30       	jn	$+104    	;abs 0x1148
    10e2:	2f 69       	addc	@r9,	r15	
    10e4:	6e 63       	addc.b	#2,	r14	;r3 As==10
    10e6:	6c 75       	subc.b	@r5,	r12	
    10e8:	64 65       	addc.b	@r5,	r4	
    10ea:	2f 6d       	addc	@r13,	r15	
    10ec:	73 70       	.word	0x7073;	????	Illegal as 2-op instr
    10ee:	34 33       	jn	$-406    	;abs 0xf58
    10f0:	30 2f       	jc	$-414    	;abs 0xf52
    10f2:	64 6d       	addc.b	@r13,	r4	
    10f4:	61 2e       	jc	$-828    	;abs 0xdb8
    10f6:	68 00 63 3a 	mova	r0,	&0x83a63
    10fa:	2f 6d       	addc	@r13,	r15	
    10fc:	73 70       	.word	0x7073;	????	Illegal as 2-op instr
    10fe:	67 63       	addc.b	#2,	r7	;r3 As==10
    1100:	63 2f       	jc	$-312    	;abs 0xfc8
    1102:	6d 73       	subc.b	#2,	r13	;r3 As==10
    1104:	70 34       	jge	$+226    	;abs 0x11e6
    1106:	33 30       	jn	$+104    	;abs 0x116e
    1108:	2f 69       	addc	@r9,	r15	
    110a:	6e 63       	addc.b	#2,	r14	;r3 As==10
    110c:	6c 75       	subc.b	@r5,	r12	
    110e:	64 65       	addc.b	@r5,	r4	
    1110:	2f 6d       	addc	@r13,	r15	
    1112:	73 70       	.word	0x7073;	????	Illegal as 2-op instr
    1114:	34 33       	jn	$-406    	;abs 0xf7e
    1116:	30 2f       	jc	$-414    	;abs 0xf78
    1118:	63 6f       	.word	0x6f63;	????	Illegal as 2-op instr
    111a:	6d 6d       	addc.b	@r13,	r13	
    111c:	6f 6e       	addc.b	@r14,	r15	
    111e:	2e 68       	addc	@r8,	r14	
    1120:	00 6d       	addc	r13,	r0	
    1122:	61 69       	addc.b	@r9,	r1	
    1124:	6e 3a       	jl	$-802    	;abs 0xe02
    1126:	46 28       	jnc	$+142    	;abs 0x11b4
    1128:	30 2c       	jc	$+98     	;abs 0x118a
    112a:	31 29       	jnc	$+612    	;abs 0x138e
    112c:	00 4d       	br	r13		
    112e:	50 59 3a 47 	add.b	18234(r9),r0	;0x473a(r9)
    1132:	28 31       	jn	$+594    	;abs 0x1384
    1134:	30 2c       	jc	$+98     	;abs 0x1196
    1136:	38 29       	jnc	$+626    	;abs 0x13a8
    1138:	00 4d       	br	r13		
    113a:	50 59 53 3a 	add.b	14931(r9),r0	;0x3a53(r9)
    113e:	47 28       	jnc	$+144    	;abs 0x11ce
    1140:	31 30       	jn	$+100    	;abs 0x11a4
    1142:	2c 38       	jl	$+90     	;abs 0x119c
    1144:	29 00 4d 41 	mova	&0x0414d,r9	
    1148:	43 3a       	jl	$-888    	;abs 0xdd0
    114a:	47 28       	jnc	$+144    	;abs 0x11da
    114c:	31 30       	jn	$+100    	;abs 0x11b0
    114e:	2c 38       	jl	$+90     	;abs 0x11a8
    1150:	29 00 4d 41 	mova	&0x0414d,r9	
    1154:	43 53       	.word	0x5343;	????	Illegal as emulation instr
    1156:	3a 47       	mov	@r7+,	r10	
    1158:	28 31       	jn	$+594    	;abs 0x13aa
    115a:	30 2c       	jc	$+98     	;abs 0x11bc
    115c:	38 29       	jnc	$+626    	;abs 0x13ce
    115e:	00 4f       	br	r15		
    1160:	50 32       	jn	$-862    	;abs 0xe02
    1162:	3a 47       	mov	@r7+,	r10	
    1164:	28 31       	jn	$+594    	;abs 0x13b6
    1166:	30 2c       	jc	$+98     	;abs 0x11c8
    1168:	38 29       	jnc	$+626    	;abs 0x13da
    116a:	00 52       	add	r2,	r0	
    116c:	45 53       	add.b	#0,	r5	;r3 As==00
    116e:	4c 4f       	mov.b	r15,	r12	
    1170:	3a 47       	mov	@r7+,	r10	
    1172:	28 31       	jn	$+594    	;abs 0x13c4
    1174:	30 2c       	jc	$+98     	;abs 0x11d6
    1176:	38 29       	jnc	$+626    	;abs 0x13e8
    1178:	00 52       	add	r2,	r0	
    117a:	45 53       	add.b	#0,	r5	;r3 As==00
    117c:	48 49       	mov.b	r9,	r8	
    117e:	3a 47       	mov	@r7+,	r10	
    1180:	28 31       	jn	$+594    	;abs 0x13d2
    1182:	30 2c       	jc	$+98     	;abs 0x11e4
    1184:	38 29       	jnc	$+626    	;abs 0x13f6
    1186:	00 53       	add	#0,	r0	;r3 As==00
    1188:	55 4d 45 58 	mov.b	22597(r13),r5	;0x5845(r13)
    118c:	54 3a       	jl	$-854    	;abs 0xe36
    118e:	47 28       	jnc	$+144    	;abs 0x121e
    1190:	31 30       	jn	$+100    	;abs 0x11f4
    1192:	2c 38       	jl	$+90     	;abs 0x11ec
    1194:	29 00 70 6f 	mova	&0x06f70,r9	
    1198:	72 74       	subc.b	@r4+,	r2	
    119a:	31 3a       	jl	$-924    	;abs 0xdfe
    119c:	47 28       	jnc	$+144    	;abs 0x122c
    119e:	38 2c       	jc	$+114    	;abs 0x1210
    11a0:	34 29       	jnc	$+618    	;abs 0x140a
    11a2:	00 70       	subc	r0,	r0	
    11a4:	6f 72       	subc.b	#4,	r15	;r2 As==10
    11a6:	74 32       	jn	$-790    	;abs 0xe90
    11a8:	3a 47       	mov	@r7+,	r10	
    11aa:	28 38       	jl	$+82     	;abs 0x11fc
    11ac:	2c 34       	jge	$+90     	;abs 0x1206
    11ae:	29 00 70 6f 	mova	&0x06f70,r9	
    11b2:	72 74       	subc.b	@r4+,	r2	
    11b4:	33 3a       	jl	$-920    	;abs 0xe1c
    11b6:	47 28       	jnc	$+144    	;abs 0x1246
    11b8:	38 2c       	jc	$+114    	;abs 0x122a
    11ba:	35 29       	jnc	$+620    	;abs 0x1426
    11bc:	00 70       	subc	r0,	r0	
    11be:	6f 72       	subc.b	#4,	r15	;r2 As==10
    11c0:	74 34       	jge	$+234    	;abs 0x12aa
    11c2:	3a 47       	mov	@r7+,	r10	
    11c4:	28 38       	jl	$+82     	;abs 0x1216
    11c6:	2c 35       	jge	$+602    	;abs 0x1420
    11c8:	29 00 70 6f 	mova	&0x06f70,r9	
    11cc:	72 74       	subc.b	@r4+,	r2	
    11ce:	35 3a       	jl	$-916    	;abs 0xe3a
    11d0:	47 28       	jnc	$+144    	;abs 0x1260
    11d2:	38 2c       	jc	$+114    	;abs 0x1244
    11d4:	35 29       	jnc	$+620    	;abs 0x1440
    11d6:	00 70       	subc	r0,	r0	
    11d8:	6f 72       	subc.b	#4,	r15	;r2 As==10
    11da:	74 36       	jge	$-790    	;abs 0xec4
    11dc:	3a 47       	mov	@r7+,	r10	
    11de:	28 38       	jl	$+82     	;abs 0x1230
    11e0:	2c 35       	jge	$+602    	;abs 0x143a
    11e2:	29 00 50 31 	mova	&0x03150,r9	
    11e6:	49 4e       	mov.b	r14,	r9	
    11e8:	3a 47       	mov	@r7+,	r10	
    11ea:	28 31       	jn	$+594    	;abs 0x143c
    11ec:	2c 31       	jn	$+602    	;abs 0x1446
    11ee:	29 3d       	jmp	$+596    	;abs 0x1442
    11f0:	42 28       	jnc	$+134    	;abs 0x1276
    11f2:	30 2c       	jc	$+98     	;abs 0x1254
    11f4:	31 31       	jn	$+612    	;abs 0x1458
    11f6:	29 00 50 31 	mova	&0x03150,r9	
    11fa:	4f 55       	add.b	r5,	r15	
    11fc:	54 3a       	jl	$-854    	;abs 0xea6
    11fe:	47 28       	jnc	$+144    	;abs 0x128e
    1200:	31 2c       	jc	$+100    	;abs 0x1264
    1202:	31 29       	jnc	$+612    	;abs 0x1466
    1204:	00 50       	rla	r0		
    1206:	31 44       	mov	@r4+,	r1	
    1208:	49 52       	add.b	r2,	r9	
    120a:	3a 47       	mov	@r7+,	r10	
    120c:	28 31       	jn	$+594    	;abs 0x145e
    120e:	2c 31       	jn	$+602    	;abs 0x1468
    1210:	29 00 50 31 	mova	&0x03150,r9	
    1214:	49 46       	mov.b	r6,	r9	
    1216:	47 3a       	jl	$-880    	;abs 0xea6
    1218:	47 28       	jnc	$+144    	;abs 0x12a8
    121a:	31 2c       	jc	$+100    	;abs 0x127e
    121c:	31 29       	jnc	$+612    	;abs 0x1480
    121e:	00 50       	rla	r0		
    1220:	31 49       	mov	@r9+,	r1	
    1222:	45 53       	add.b	#0,	r5	;r3 As==00
    1224:	3a 47       	mov	@r7+,	r10	
    1226:	28 31       	jn	$+594    	;abs 0x1478
    1228:	2c 31       	jn	$+602    	;abs 0x1482
    122a:	29 00 50 31 	mova	&0x03150,r9	
    122e:	49 45       	mov.b	r5,	r9	
    1230:	3a 47       	mov	@r7+,	r10	
    1232:	28 31       	jn	$+594    	;abs 0x1484
    1234:	2c 31       	jn	$+602    	;abs 0x148e
    1236:	29 00 50 31 	mova	&0x03150,r9	
    123a:	53 45       	.word	0x4553;	????	Illegal as 2-op instr
    123c:	4c 3a       	jl	$-870    	;abs 0xed6
    123e:	47 28       	jnc	$+144    	;abs 0x12ce
    1240:	31 2c       	jc	$+100    	;abs 0x12a4
    1242:	31 29       	jnc	$+612    	;abs 0x14a6
    1244:	00 50       	rla	r0		
    1246:	31 52       	add	#8,	r1	;r2 As==11
    1248:	45 4e       	mov.b	r14,	r5	
    124a:	3a 47       	mov	@r7+,	r10	
    124c:	28 31       	jn	$+594    	;abs 0x149e
    124e:	2c 31       	jn	$+602    	;abs 0x14a8
    1250:	29 00 50 32 	mova	&0x03250,r9	
    1254:	49 4e       	mov.b	r14,	r9	
    1256:	3a 47       	mov	@r7+,	r10	
    1258:	28 31       	jn	$+594    	;abs 0x14aa
    125a:	2c 31       	jn	$+602    	;abs 0x14b4
    125c:	29 00 50 32 	mova	&0x03250,r9	
    1260:	4f 55       	add.b	r5,	r15	
    1262:	54 3a       	jl	$-854    	;abs 0xf0c
    1264:	47 28       	jnc	$+144    	;abs 0x12f4
    1266:	31 2c       	jc	$+100    	;abs 0x12ca
    1268:	31 29       	jnc	$+612    	;abs 0x14cc
    126a:	00 50       	rla	r0		
    126c:	32 44       	mov	@r4+,	r2	
    126e:	49 52       	add.b	r2,	r9	
    1270:	3a 47       	mov	@r7+,	r10	
    1272:	28 31       	jn	$+594    	;abs 0x14c4
    1274:	2c 31       	jn	$+602    	;abs 0x14ce
    1276:	29 00 50 32 	mova	&0x03250,r9	
    127a:	49 46       	mov.b	r6,	r9	
    127c:	47 3a       	jl	$-880    	;abs 0xf0c
    127e:	47 28       	jnc	$+144    	;abs 0x130e
    1280:	31 2c       	jc	$+100    	;abs 0x12e4
    1282:	31 29       	jnc	$+612    	;abs 0x14e6
    1284:	00 50       	rla	r0		
    1286:	32 49       	mov	@r9+,	r2	
    1288:	45 53       	add.b	#0,	r5	;r3 As==00
    128a:	3a 47       	mov	@r7+,	r10	
    128c:	28 31       	jn	$+594    	;abs 0x14de
    128e:	2c 31       	jn	$+602    	;abs 0x14e8
    1290:	29 00 50 32 	mova	&0x03250,r9	
    1294:	49 45       	mov.b	r5,	r9	
    1296:	3a 47       	mov	@r7+,	r10	
    1298:	28 31       	jn	$+594    	;abs 0x14ea
    129a:	2c 31       	jn	$+602    	;abs 0x14f4
    129c:	29 00 50 32 	mova	&0x03250,r9	
    12a0:	53 45       	.word	0x4553;	????	Illegal as 2-op instr
    12a2:	4c 3a       	jl	$-870    	;abs 0xf3c
    12a4:	47 28       	jnc	$+144    	;abs 0x1334
    12a6:	31 2c       	jc	$+100    	;abs 0x130a
    12a8:	31 29       	jnc	$+612    	;abs 0x150c
    12aa:	00 50       	rla	r0		
    12ac:	32 52       	add	#8,	r2	;r2 As==11
    12ae:	45 4e       	mov.b	r14,	r5	
    12b0:	3a 47       	mov	@r7+,	r10	
    12b2:	28 31       	jn	$+594    	;abs 0x1504
    12b4:	2c 31       	jn	$+602    	;abs 0x150e
    12b6:	29 00 50 33 	mova	&0x03350,r9	
    12ba:	49 4e       	mov.b	r14,	r9	
    12bc:	3a 47       	mov	@r7+,	r10	
    12be:	28 31       	jn	$+594    	;abs 0x1510
    12c0:	2c 31       	jn	$+602    	;abs 0x151a
    12c2:	29 00 50 33 	mova	&0x03350,r9	
    12c6:	4f 55       	add.b	r5,	r15	
    12c8:	54 3a       	jl	$-854    	;abs 0xf72
    12ca:	47 28       	jnc	$+144    	;abs 0x135a
    12cc:	31 2c       	jc	$+100    	;abs 0x1330
    12ce:	31 29       	jnc	$+612    	;abs 0x1532
    12d0:	00 50       	rla	r0		
    12d2:	33 44       	.word	0x4433;	????	Illegal as 2-op instr
    12d4:	49 52       	add.b	r2,	r9	
    12d6:	3a 47       	mov	@r7+,	r10	
    12d8:	28 31       	jn	$+594    	;abs 0x152a
    12da:	2c 31       	jn	$+602    	;abs 0x1534
    12dc:	29 00 50 33 	mova	&0x03350,r9	
    12e0:	53 45       	.word	0x4553;	????	Illegal as 2-op instr
    12e2:	4c 3a       	jl	$-870    	;abs 0xf7c
    12e4:	47 28       	jnc	$+144    	;abs 0x1374
    12e6:	31 2c       	jc	$+100    	;abs 0x134a
    12e8:	31 29       	jnc	$+612    	;abs 0x154c
    12ea:	00 50       	rla	r0		
    12ec:	33 52       	.word	0x5233;	????	Illegal as 2-op instr
    12ee:	45 4e       	mov.b	r14,	r5	
    12f0:	3a 47       	mov	@r7+,	r10	
    12f2:	28 31       	jn	$+594    	;abs 0x1544
    12f4:	2c 31       	jn	$+602    	;abs 0x154e
    12f6:	29 00 50 34 	mova	&0x03450,r9	
    12fa:	49 4e       	mov.b	r14,	r9	
    12fc:	3a 47       	mov	@r7+,	r10	
    12fe:	28 31       	jn	$+594    	;abs 0x1550
    1300:	2c 31       	jn	$+602    	;abs 0x155a
    1302:	29 00 50 34 	mova	&0x03450,r9	
    1306:	4f 55       	add.b	r5,	r15	
    1308:	54 3a       	jl	$-854    	;abs 0xfb2
    130a:	47 28       	jnc	$+144    	;abs 0x139a
    130c:	31 2c       	jc	$+100    	;abs 0x1370
    130e:	31 29       	jnc	$+612    	;abs 0x1572
    1310:	00 50       	rla	r0		
    1312:	34 44       	mov	@r4+,	r4	
    1314:	49 52       	add.b	r2,	r9	
    1316:	3a 47       	mov	@r7+,	r10	
    1318:	28 31       	jn	$+594    	;abs 0x156a
    131a:	2c 31       	jn	$+602    	;abs 0x1574
    131c:	29 00 50 34 	mova	&0x03450,r9	
    1320:	53 45       	.word	0x4553;	????	Illegal as 2-op instr
    1322:	4c 3a       	jl	$-870    	;abs 0xfbc
    1324:	47 28       	jnc	$+144    	;abs 0x13b4
    1326:	31 2c       	jc	$+100    	;abs 0x138a
    1328:	31 29       	jnc	$+612    	;abs 0x158c
    132a:	00 50       	rla	r0		
    132c:	34 52       	add	#8,	r4	;r2 As==11
    132e:	45 4e       	mov.b	r14,	r5	
    1330:	3a 47       	mov	@r7+,	r10	
    1332:	28 31       	jn	$+594    	;abs 0x1584
    1334:	2c 31       	jn	$+602    	;abs 0x158e
    1336:	29 00 50 35 	mova	&0x03550,r9	
    133a:	49 4e       	mov.b	r14,	r9	
    133c:	3a 47       	mov	@r7+,	r10	
    133e:	28 31       	jn	$+594    	;abs 0x1590
    1340:	2c 31       	jn	$+602    	;abs 0x159a
    1342:	29 00 50 35 	mova	&0x03550,r9	
    1346:	4f 55       	add.b	r5,	r15	
    1348:	54 3a       	jl	$-854    	;abs 0xff2
    134a:	47 28       	jnc	$+144    	;abs 0x13da
    134c:	31 2c       	jc	$+100    	;abs 0x13b0
    134e:	31 29       	jnc	$+612    	;abs 0x15b2
    1350:	00 50       	rla	r0		
    1352:	35 44       	mov	@r4+,	r5	
    1354:	49 52       	add.b	r2,	r9	
    1356:	3a 47       	mov	@r7+,	r10	
    1358:	28 31       	jn	$+594    	;abs 0x15aa
    135a:	2c 31       	jn	$+602    	;abs 0x15b4
    135c:	29 00 50 35 	mova	&0x03550,r9	
    1360:	53 45       	.word	0x4553;	????	Illegal as 2-op instr
    1362:	4c 3a       	jl	$-870    	;abs 0xffc
    1364:	47 28       	jnc	$+144    	;abs 0x13f4
    1366:	31 2c       	jc	$+100    	;abs 0x13ca
    1368:	31 29       	jnc	$+612    	;abs 0x15cc
    136a:	00 50       	rla	r0		
    136c:	35 52       	add	#8,	r5	;r2 As==11
    136e:	45 4e       	mov.b	r14,	r5	
    1370:	3a 47       	mov	@r7+,	r10	
    1372:	28 31       	jn	$+594    	;abs 0x15c4
    1374:	2c 31       	jn	$+602    	;abs 0x15ce
    1376:	29 00 50 36 	mova	&0x03650,r9	
    137a:	49 4e       	mov.b	r14,	r9	
    137c:	3a 47       	mov	@r7+,	r10	
    137e:	28 31       	jn	$+594    	;abs 0x15d0
    1380:	2c 31       	jn	$+602    	;abs 0x15da
    1382:	29 00 50 36 	mova	&0x03650,r9	
    1386:	4f 55       	add.b	r5,	r15	
    1388:	54 3a       	jl	$-854    	;abs 0x1032
    138a:	47 28       	jnc	$+144    	;abs 0x141a
    138c:	31 2c       	jc	$+100    	;abs 0x13f0
    138e:	31 29       	jnc	$+612    	;abs 0x15f2
    1390:	00 50       	rla	r0		
    1392:	36 44       	mov	@r4+,	r6	
    1394:	49 52       	add.b	r2,	r9	
    1396:	3a 47       	mov	@r7+,	r10	
    1398:	28 31       	jn	$+594    	;abs 0x15ea
    139a:	2c 31       	jn	$+602    	;abs 0x15f4
    139c:	29 00 50 36 	mova	&0x03650,r9	
    13a0:	53 45       	.word	0x4553;	????	Illegal as 2-op instr
    13a2:	4c 3a       	jl	$-870    	;abs 0x103c
    13a4:	47 28       	jnc	$+144    	;abs 0x1434
    13a6:	31 2c       	jc	$+100    	;abs 0x140a
    13a8:	31 29       	jnc	$+612    	;abs 0x160c
    13aa:	00 50       	rla	r0		
    13ac:	36 52       	add	#8,	r6	;r2 As==11
    13ae:	45 4e       	mov.b	r14,	r5	
    13b0:	3a 47       	mov	@r7+,	r10	
    13b2:	28 31       	jn	$+594    	;abs 0x1604
    13b4:	2c 31       	jn	$+602    	;abs 0x160e
    13b6:	29 00 50 37 	mova	&0x03750,r9	
    13ba:	49 4e       	mov.b	r14,	r9	
    13bc:	3a 47       	mov	@r7+,	r10	
    13be:	28 31       	jn	$+594    	;abs 0x1610
    13c0:	2c 31       	jn	$+602    	;abs 0x161a
    13c2:	29 00 50 37 	mova	&0x03750,r9	
    13c6:	4f 55       	add.b	r5,	r15	
    13c8:	54 3a       	jl	$-854    	;abs 0x1072
    13ca:	47 28       	jnc	$+144    	;abs 0x145a
    13cc:	31 2c       	jc	$+100    	;abs 0x1430
    13ce:	31 29       	jnc	$+612    	;abs 0x1632
    13d0:	00 50       	rla	r0		
    13d2:	37 44       	mov	@r4+,	r7	
    13d4:	49 52       	add.b	r2,	r9	
    13d6:	3a 47       	mov	@r7+,	r10	
    13d8:	28 31       	jn	$+594    	;abs 0x162a
    13da:	2c 31       	jn	$+602    	;abs 0x1634
    13dc:	29 00 50 37 	mova	&0x03750,r9	
    13e0:	53 45       	.word	0x4553;	????	Illegal as 2-op instr
    13e2:	4c 3a       	jl	$-870    	;abs 0x107c
    13e4:	47 28       	jnc	$+144    	;abs 0x1474
    13e6:	31 2c       	jc	$+100    	;abs 0x144a
    13e8:	31 29       	jnc	$+612    	;abs 0x164c
    13ea:	00 50       	rla	r0		
    13ec:	37 52       	add	#8,	r7	;r2 As==11
    13ee:	45 4e       	mov.b	r14,	r5	
    13f0:	3a 47       	mov	@r7+,	r10	
    13f2:	28 31       	jn	$+594    	;abs 0x1644
    13f4:	2c 31       	jn	$+602    	;abs 0x164e
    13f6:	29 00 50 38 	mova	&0x03850,r9	
    13fa:	49 4e       	mov.b	r14,	r9	
    13fc:	3a 47       	mov	@r7+,	r10	
    13fe:	28 31       	jn	$+594    	;abs 0x1650
    1400:	2c 31       	jn	$+602    	;abs 0x165a
    1402:	29 00 50 38 	mova	&0x03850,r9	
    1406:	4f 55       	add.b	r5,	r15	
    1408:	54 3a       	jl	$-854    	;abs 0x10b2
    140a:	47 28       	jnc	$+144    	;abs 0x149a
    140c:	31 2c       	jc	$+100    	;abs 0x1470
    140e:	31 29       	jnc	$+612    	;abs 0x1672
    1410:	00 50       	rla	r0		
    1412:	38 44       	mov	@r4+,	r8	
    1414:	49 52       	add.b	r2,	r9	
    1416:	3a 47       	mov	@r7+,	r10	
    1418:	28 31       	jn	$+594    	;abs 0x166a
    141a:	2c 31       	jn	$+602    	;abs 0x1674
    141c:	29 00 50 38 	mova	&0x03850,r9	
    1420:	53 45       	.word	0x4553;	????	Illegal as 2-op instr
    1422:	4c 3a       	jl	$-870    	;abs 0x10bc
    1424:	47 28       	jnc	$+144    	;abs 0x14b4
    1426:	31 2c       	jc	$+100    	;abs 0x148a
    1428:	31 29       	jnc	$+612    	;abs 0x168c
    142a:	00 50       	rla	r0		
    142c:	38 52       	add	#8,	r8	;r2 As==11
    142e:	45 4e       	mov.b	r14,	r5	
    1430:	3a 47       	mov	@r7+,	r10	
    1432:	28 31       	jn	$+594    	;abs 0x1684
    1434:	2c 31       	jn	$+602    	;abs 0x168e
    1436:	29 00 55 43 	mova	&0x04355,r9	
    143a:	41 30       	jn	$+132    	;abs 0x14be
    143c:	43 54       	.word	0x5443;	????	Illegal as 2-op instr
    143e:	4c 30       	jn	$+154    	;abs 0x14d8
    1440:	3a 47       	mov	@r7+,	r10	
    1442:	28 31       	jn	$+594    	;abs 0x1694
    1444:	2c 31       	jn	$+602    	;abs 0x169e
    1446:	29 00 55 43 	mova	&0x04355,r9	
    144a:	41 30       	jn	$+132    	;abs 0x14ce
    144c:	43 54       	.word	0x5443;	????	Illegal as 2-op instr
    144e:	4c 31       	jn	$+666    	;abs 0x16e8
    1450:	3a 47       	mov	@r7+,	r10	
    1452:	28 31       	jn	$+594    	;abs 0x16a4
    1454:	2c 31       	jn	$+602    	;abs 0x16ae
    1456:	29 00 55 43 	mova	&0x04355,r9	
    145a:	41 30       	jn	$+132    	;abs 0x14de
    145c:	42 52       	rla.b	r2		
    145e:	30 3a       	jl	$-926    	;abs 0x10c0
    1460:	47 28       	jnc	$+144    	;abs 0x14f0
    1462:	31 2c       	jc	$+100    	;abs 0x14c6
    1464:	31 29       	jnc	$+612    	;abs 0x16c8
    1466:	00 55       	add	r5,	r0	
    1468:	43 41       	.word	0x4143;	????	Illegal as 2-op instr
    146a:	30 42       	br	#8		;r2 As==11
    146c:	52 31       	jn	$+678    	;abs 0x1712
    146e:	3a 47       	mov	@r7+,	r10	
    1470:	28 31       	jn	$+594    	;abs 0x16c2
    1472:	2c 31       	jn	$+602    	;abs 0x16cc
    1474:	29 00 55 43 	mova	&0x04355,r9	
    1478:	41 30       	jn	$+132    	;abs 0x14fc
    147a:	4d 43       	clr.b	r13		
    147c:	54 4c 3a 47 	mov.b	18234(r12),r4	;0x473a(r12)
    1480:	28 31       	jn	$+594    	;abs 0x16d2
    1482:	2c 31       	jn	$+602    	;abs 0x16dc
    1484:	29 00 55 43 	mova	&0x04355,r9	
    1488:	41 30       	jn	$+132    	;abs 0x150c
    148a:	53 54       	.word	0x5453;	????	Illegal as 2-op instr
    148c:	41 54       	add.b	r4,	r1	
    148e:	3a 47       	mov	@r7+,	r10	
    1490:	28 31       	jn	$+594    	;abs 0x16e2
    1492:	2c 31       	jn	$+602    	;abs 0x16ec
    1494:	29 00 55 43 	mova	&0x04355,r9	
    1498:	41 30       	jn	$+132    	;abs 0x151c
    149a:	52 58 42 55 	add.b	21826(r8),r2	;0x5542(r8)
    149e:	46 3a       	jl	$-882    	;abs 0x112c
    14a0:	47 28       	jnc	$+144    	;abs 0x1530
    14a2:	31 2c       	jc	$+100    	;abs 0x1506
    14a4:	31 29       	jnc	$+612    	;abs 0x1708
    14a6:	00 55       	add	r5,	r0	
    14a8:	43 41       	.word	0x4143;	????	Illegal as 2-op instr
    14aa:	30 54       	add	@r4+,	r0	
    14ac:	58 42 55 46 	mov.b	&0x4655,r8	
    14b0:	3a 47       	mov	@r7+,	r10	
    14b2:	28 31       	jn	$+594    	;abs 0x1704
    14b4:	2c 31       	jn	$+602    	;abs 0x170e
    14b6:	29 00 55 43 	mova	&0x04355,r9	
    14ba:	41 30       	jn	$+132    	;abs 0x153e
    14bc:	41 42       	mov.b	r2,	r1	
    14be:	43 54       	.word	0x5443;	????	Illegal as 2-op instr
    14c0:	4c 3a       	jl	$-870    	;abs 0x115a
    14c2:	47 28       	jnc	$+144    	;abs 0x1552
    14c4:	31 2c       	jc	$+100    	;abs 0x1528
    14c6:	31 29       	jnc	$+612    	;abs 0x172a
    14c8:	00 55       	add	r5,	r0	
    14ca:	43 41       	.word	0x4143;	????	Illegal as 2-op instr
    14cc:	30 49       	br	@r9+		
    14ce:	52 54 43 54 	add.b	21571(r4),r2	;0x5443(r4)
    14d2:	4c 3a       	jl	$-870    	;abs 0x116c
    14d4:	47 28       	jnc	$+144    	;abs 0x1564
    14d6:	31 2c       	jc	$+100    	;abs 0x153a
    14d8:	31 29       	jnc	$+612    	;abs 0x173c
    14da:	00 55       	add	r5,	r0	
    14dc:	43 41       	.word	0x4143;	????	Illegal as 2-op instr
    14de:	30 49       	br	@r9+		
    14e0:	52 52 43 54 	add.b	&0x5443,r2	
    14e4:	4c 3a       	jl	$-870    	;abs 0x117e
    14e6:	47 28       	jnc	$+144    	;abs 0x1576
    14e8:	31 2c       	jc	$+100    	;abs 0x154c
    14ea:	31 29       	jnc	$+612    	;abs 0x174e
    14ec:	00 55       	add	r5,	r0	
    14ee:	43 42       	.word	0x4243;	????	Illegal as 2-op instr
    14f0:	30 43       	br	#-1		;r3 As==11
    14f2:	54 4c 30 3a 	mov.b	14896(r12),r4	;0x3a30(r12)
    14f6:	47 28       	jnc	$+144    	;abs 0x1586
    14f8:	31 2c       	jc	$+100    	;abs 0x155c
    14fa:	31 29       	jnc	$+612    	;abs 0x175e
    14fc:	00 55       	add	r5,	r0	
    14fe:	43 42       	.word	0x4243;	????	Illegal as 2-op instr
    1500:	30 43       	br	#-1		;r3 As==11
    1502:	54 4c 31 3a 	mov.b	14897(r12),r4	;0x3a31(r12)
    1506:	47 28       	jnc	$+144    	;abs 0x1596
    1508:	31 2c       	jc	$+100    	;abs 0x156c
    150a:	31 29       	jnc	$+612    	;abs 0x176e
    150c:	00 55       	add	r5,	r0	
    150e:	43 42       	.word	0x4243;	????	Illegal as 2-op instr
    1510:	30 42       	br	#8		;r2 As==11
    1512:	52 30       	jn	$+166    	;abs 0x15b8
    1514:	3a 47       	mov	@r7+,	r10	
    1516:	28 31       	jn	$+594    	;abs 0x1768
    1518:	2c 31       	jn	$+602    	;abs 0x1772
    151a:	29 00 55 43 	mova	&0x04355,r9	
    151e:	42 30       	jn	$+134    	;abs 0x15a4
    1520:	42 52       	rla.b	r2		
    1522:	31 3a       	jl	$-924    	;abs 0x1186
    1524:	47 28       	jnc	$+144    	;abs 0x15b4
    1526:	31 2c       	jc	$+100    	;abs 0x158a
    1528:	31 29       	jnc	$+612    	;abs 0x178c
    152a:	00 55       	add	r5,	r0	
    152c:	43 42       	.word	0x4243;	????	Illegal as 2-op instr
    152e:	30 49       	br	@r9+		
    1530:	32 43       	mov	#-1,	r2	;r3 As==11
    1532:	49 45       	mov.b	r5,	r9	
    1534:	3a 47       	mov	@r7+,	r10	
    1536:	28 31       	jn	$+594    	;abs 0x1788
    1538:	2c 31       	jn	$+602    	;abs 0x1792
    153a:	29 00 55 43 	mova	&0x04355,r9	
    153e:	42 30       	jn	$+134    	;abs 0x15c4
    1540:	53 54       	.word	0x5453;	????	Illegal as 2-op instr
    1542:	41 54       	add.b	r4,	r1	
    1544:	3a 47       	mov	@r7+,	r10	
    1546:	28 31       	jn	$+594    	;abs 0x1798
    1548:	2c 31       	jn	$+602    	;abs 0x17a2
    154a:	29 00 55 43 	mova	&0x04355,r9	
    154e:	42 30       	jn	$+134    	;abs 0x15d4
    1550:	52 58 42 55 	add.b	21826(r8),r2	;0x5542(r8)
    1554:	46 3a       	jl	$-882    	;abs 0x11e2
    1556:	47 28       	jnc	$+144    	;abs 0x15e6
    1558:	31 2c       	jc	$+100    	;abs 0x15bc
    155a:	31 29       	jnc	$+612    	;abs 0x17be
    155c:	00 55       	add	r5,	r0	
    155e:	43 42       	.word	0x4243;	????	Illegal as 2-op instr
    1560:	30 54       	add	@r4+,	r0	
    1562:	58 42 55 46 	mov.b	&0x4655,r8	
    1566:	3a 47       	mov	@r7+,	r10	
    1568:	28 31       	jn	$+594    	;abs 0x17ba
    156a:	2c 31       	jn	$+602    	;abs 0x17c4
    156c:	29 00 55 43 	mova	&0x04355,r9	
    1570:	42 30       	jn	$+134    	;abs 0x15f6
    1572:	49 32       	jn	$-876    	;abs 0x1206
    1574:	43 4f       	.word	0x4f43;	????	Illegal as 2-op instr
    1576:	41 3a       	jl	$-892    	;abs 0x11fa
    1578:	47 28       	jnc	$+144    	;abs 0x1608
    157a:	31 30       	jn	$+100    	;abs 0x15de
    157c:	2c 38       	jl	$+90     	;abs 0x15d6
    157e:	29 00 55 43 	mova	&0x04355,r9	
    1582:	42 30       	jn	$+134    	;abs 0x1608
    1584:	49 32       	jn	$-876    	;abs 0x1218
    1586:	43 53       	.word	0x5343;	????	Illegal as emulation instr
    1588:	41 3a       	jl	$-892    	;abs 0x120c
    158a:	47 28       	jnc	$+144    	;abs 0x161a
    158c:	31 30       	jn	$+100    	;abs 0x15f0
    158e:	2c 38       	jl	$+90     	;abs 0x15e8
    1590:	29 00 55 43 	mova	&0x04355,r9	
    1594:	41 31       	jn	$+644    	;abs 0x1818
    1596:	43 54       	.word	0x5443;	????	Illegal as 2-op instr
    1598:	4c 30       	jn	$+154    	;abs 0x1632
    159a:	3a 47       	mov	@r7+,	r10	
    159c:	28 31       	jn	$+594    	;abs 0x17ee
    159e:	2c 31       	jn	$+602    	;abs 0x17f8
    15a0:	29 00 55 43 	mova	&0x04355,r9	
    15a4:	41 31       	jn	$+644    	;abs 0x1828
    15a6:	43 54       	.word	0x5443;	????	Illegal as 2-op instr
    15a8:	4c 31       	jn	$+666    	;abs 0x1842
    15aa:	3a 47       	mov	@r7+,	r10	
    15ac:	28 31       	jn	$+594    	;abs 0x17fe
    15ae:	2c 31       	jn	$+602    	;abs 0x1808
    15b0:	29 00 55 43 	mova	&0x04355,r9	
    15b4:	41 31       	jn	$+644    	;abs 0x1838
    15b6:	42 52       	rla.b	r2		
    15b8:	30 3a       	jl	$-926    	;abs 0x121a
    15ba:	47 28       	jnc	$+144    	;abs 0x164a
    15bc:	31 2c       	jc	$+100    	;abs 0x1620
    15be:	31 29       	jnc	$+612    	;abs 0x1822
    15c0:	00 55       	add	r5,	r0	
    15c2:	43 41       	.word	0x4143;	????	Illegal as 2-op instr
    15c4:	31 42       	mov	#8,	r1	;r2 As==11
    15c6:	52 31       	jn	$+678    	;abs 0x186c
    15c8:	3a 47       	mov	@r7+,	r10	
    15ca:	28 31       	jn	$+594    	;abs 0x181c
    15cc:	2c 31       	jn	$+602    	;abs 0x1826
    15ce:	29 00 55 43 	mova	&0x04355,r9	
    15d2:	41 31       	jn	$+644    	;abs 0x1856
    15d4:	4d 43       	clr.b	r13		
    15d6:	54 4c 3a 47 	mov.b	18234(r12),r4	;0x473a(r12)
    15da:	28 31       	jn	$+594    	;abs 0x182c
    15dc:	2c 31       	jn	$+602    	;abs 0x1836
    15de:	29 00 55 43 	mova	&0x04355,r9	
    15e2:	41 31       	jn	$+644    	;abs 0x1866
    15e4:	53 54       	.word	0x5453;	????	Illegal as 2-op instr
    15e6:	41 54       	add.b	r4,	r1	
    15e8:	3a 47       	mov	@r7+,	r10	
    15ea:	28 31       	jn	$+594    	;abs 0x183c
    15ec:	2c 31       	jn	$+602    	;abs 0x1846
    15ee:	29 00 55 43 	mova	&0x04355,r9	
    15f2:	41 31       	jn	$+644    	;abs 0x1876
    15f4:	52 58 42 55 	add.b	21826(r8),r2	;0x5542(r8)
    15f8:	46 3a       	jl	$-882    	;abs 0x1286
    15fa:	47 28       	jnc	$+144    	;abs 0x168a
    15fc:	31 2c       	jc	$+100    	;abs 0x1660
    15fe:	31 29       	jnc	$+612    	;abs 0x1862
    1600:	00 55       	add	r5,	r0	
    1602:	43 41       	.word	0x4143;	????	Illegal as 2-op instr
    1604:	31 54       	add	@r4+,	r1	
    1606:	58 42 55 46 	mov.b	&0x4655,r8	
    160a:	3a 47       	mov	@r7+,	r10	
    160c:	28 31       	jn	$+594    	;abs 0x185e
    160e:	2c 31       	jn	$+602    	;abs 0x1868
    1610:	29 00 55 43 	mova	&0x04355,r9	
    1614:	41 31       	jn	$+644    	;abs 0x1898
    1616:	41 42       	mov.b	r2,	r1	
    1618:	43 54       	.word	0x5443;	????	Illegal as 2-op instr
    161a:	4c 3a       	jl	$-870    	;abs 0x12b4
    161c:	47 28       	jnc	$+144    	;abs 0x16ac
    161e:	31 2c       	jc	$+100    	;abs 0x1682
    1620:	31 29       	jnc	$+612    	;abs 0x1884
    1622:	00 55       	add	r5,	r0	
    1624:	43 41       	.word	0x4143;	????	Illegal as 2-op instr
    1626:	31 49       	mov	@r9+,	r1	
    1628:	52 54 43 54 	add.b	21571(r4),r2	;0x5443(r4)
    162c:	4c 3a       	jl	$-870    	;abs 0x12c6
    162e:	47 28       	jnc	$+144    	;abs 0x16be
    1630:	31 2c       	jc	$+100    	;abs 0x1694
    1632:	31 29       	jnc	$+612    	;abs 0x1896
    1634:	00 55       	add	r5,	r0	
    1636:	43 41       	.word	0x4143;	????	Illegal as 2-op instr
    1638:	31 49       	mov	@r9+,	r1	
    163a:	52 52 43 54 	add.b	&0x5443,r2	
    163e:	4c 3a       	jl	$-870    	;abs 0x12d8
    1640:	47 28       	jnc	$+144    	;abs 0x16d0
    1642:	31 2c       	jc	$+100    	;abs 0x16a6
    1644:	31 29       	jnc	$+612    	;abs 0x18a8
    1646:	00 55       	add	r5,	r0	
    1648:	43 42       	.word	0x4243;	????	Illegal as 2-op instr
    164a:	31 43       	mov	#-1,	r1	;r3 As==11
    164c:	54 4c 30 3a 	mov.b	14896(r12),r4	;0x3a30(r12)
    1650:	47 28       	jnc	$+144    	;abs 0x16e0
    1652:	31 2c       	jc	$+100    	;abs 0x16b6
    1654:	31 29       	jnc	$+612    	;abs 0x18b8
    1656:	00 55       	add	r5,	r0	
    1658:	43 42       	.word	0x4243;	????	Illegal as 2-op instr
    165a:	31 43       	mov	#-1,	r1	;r3 As==11
    165c:	54 4c 31 3a 	mov.b	14897(r12),r4	;0x3a31(r12)
    1660:	47 28       	jnc	$+144    	;abs 0x16f0
    1662:	31 2c       	jc	$+100    	;abs 0x16c6
    1664:	31 29       	jnc	$+612    	;abs 0x18c8
    1666:	00 55       	add	r5,	r0	
    1668:	43 42       	.word	0x4243;	????	Illegal as 2-op instr
    166a:	31 42       	mov	#8,	r1	;r2 As==11
    166c:	52 30       	jn	$+166    	;abs 0x1712
    166e:	3a 47       	mov	@r7+,	r10	
    1670:	28 31       	jn	$+594    	;abs 0x18c2
    1672:	2c 31       	jn	$+602    	;abs 0x18cc
    1674:	29 00 55 43 	mova	&0x04355,r9	
    1678:	42 31       	jn	$+646    	;abs 0x18fe
    167a:	42 52       	rla.b	r2		
    167c:	31 3a       	jl	$-924    	;abs 0x12e0
    167e:	47 28       	jnc	$+144    	;abs 0x170e
    1680:	31 2c       	jc	$+100    	;abs 0x16e4
    1682:	31 29       	jnc	$+612    	;abs 0x18e6
    1684:	00 55       	add	r5,	r0	
    1686:	43 42       	.word	0x4243;	????	Illegal as 2-op instr
    1688:	31 49       	mov	@r9+,	r1	
    168a:	32 43       	mov	#-1,	r2	;r3 As==11
    168c:	49 45       	mov.b	r5,	r9	
    168e:	3a 47       	mov	@r7+,	r10	
    1690:	28 31       	jn	$+594    	;abs 0x18e2
    1692:	2c 31       	jn	$+602    	;abs 0x18ec
    1694:	29 00 55 43 	mova	&0x04355,r9	
    1698:	42 31       	jn	$+646    	;abs 0x191e
    169a:	53 54       	.word	0x5453;	????	Illegal as 2-op instr
    169c:	41 54       	add.b	r4,	r1	
    169e:	3a 47       	mov	@r7+,	r10	
    16a0:	28 31       	jn	$+594    	;abs 0x18f2
    16a2:	2c 31       	jn	$+602    	;abs 0x18fc
    16a4:	29 00 55 43 	mova	&0x04355,r9	
    16a8:	42 31       	jn	$+646    	;abs 0x192e
    16aa:	52 58 42 55 	add.b	21826(r8),r2	;0x5542(r8)
    16ae:	46 3a       	jl	$-882    	;abs 0x133c
    16b0:	47 28       	jnc	$+144    	;abs 0x1740
    16b2:	31 2c       	jc	$+100    	;abs 0x1716
    16b4:	31 29       	jnc	$+612    	;abs 0x1918
    16b6:	00 55       	add	r5,	r0	
    16b8:	43 42       	.word	0x4243;	????	Illegal as 2-op instr
    16ba:	31 54       	add	@r4+,	r1	
    16bc:	58 42 55 46 	mov.b	&0x4655,r8	
    16c0:	3a 47       	mov	@r7+,	r10	
    16c2:	28 31       	jn	$+594    	;abs 0x1914
    16c4:	2c 31       	jn	$+602    	;abs 0x191e
    16c6:	29 00 55 43 	mova	&0x04355,r9	
    16ca:	42 31       	jn	$+646    	;abs 0x1950
    16cc:	49 32       	jn	$-876    	;abs 0x1360
    16ce:	43 4f       	.word	0x4f43;	????	Illegal as 2-op instr
    16d0:	41 3a       	jl	$-892    	;abs 0x1354
    16d2:	47 28       	jnc	$+144    	;abs 0x1762
    16d4:	31 30       	jn	$+100    	;abs 0x1738
    16d6:	2c 38       	jl	$+90     	;abs 0x1730
    16d8:	29 00 55 43 	mova	&0x04355,r9	
    16dc:	42 31       	jn	$+646    	;abs 0x1962
    16de:	49 32       	jn	$-876    	;abs 0x1372
    16e0:	43 53       	.word	0x5343;	????	Illegal as emulation instr
    16e2:	41 3a       	jl	$-892    	;abs 0x1366
    16e4:	47 28       	jnc	$+144    	;abs 0x1774
    16e6:	31 30       	jn	$+100    	;abs 0x174a
    16e8:	2c 38       	jl	$+90     	;abs 0x1742
    16ea:	29 00 55 43 	mova	&0x04355,r9	
    16ee:	31 49       	mov	@r9+,	r1	
    16f0:	45 3a       	jl	$-884    	;abs 0x137c
    16f2:	47 28       	jnc	$+144    	;abs 0x1782
    16f4:	31 2c       	jc	$+100    	;abs 0x1758
    16f6:	31 29       	jnc	$+612    	;abs 0x195a
    16f8:	00 55       	add	r5,	r0	
    16fa:	43 31       	jn	$+648    	;abs 0x1982
    16fc:	49 46       	mov.b	r6,	r9	
    16fe:	47 3a       	jl	$-880    	;abs 0x138e
    1700:	47 28       	jnc	$+144    	;abs 0x1790
    1702:	31 2c       	jc	$+100    	;abs 0x1766
    1704:	31 29       	jnc	$+612    	;abs 0x1968
    1706:	00 54       	add	r4,	r0	
    1708:	41 30       	jn	$+132    	;abs 0x178c
    170a:	49 56       	add.b	r6,	r9	
    170c:	3a 47       	mov	@r7+,	r10	
    170e:	28 31       	jn	$+594    	;abs 0x1960
    1710:	30 2c       	jc	$+98     	;abs 0x1772
    1712:	38 29       	jnc	$+626    	;abs 0x1984
    1714:	00 54       	add	r4,	r0	
    1716:	41 30       	jn	$+132    	;abs 0x179a
    1718:	43 54       	.word	0x5443;	????	Illegal as 2-op instr
    171a:	4c 3a       	jl	$-870    	;abs 0x13b4
    171c:	47 28       	jnc	$+144    	;abs 0x17ac
    171e:	31 30       	jn	$+100    	;abs 0x1782
    1720:	2c 38       	jl	$+90     	;abs 0x177a
    1722:	29 00 54 41 	mova	&0x04154,r9	
    1726:	30 52       	add	#8,	r0	;r2 As==11
    1728:	3a 47       	mov	@r7+,	r10	
    172a:	28 31       	jn	$+594    	;abs 0x197c
    172c:	30 2c       	jc	$+98     	;abs 0x178e
    172e:	38 29       	jnc	$+626    	;abs 0x19a0
    1730:	00 54       	add	r4,	r0	
    1732:	41 30       	jn	$+132    	;abs 0x17b6
    1734:	43 43       	clr.b	#0		;r3 As==00
    1736:	54 4c 30 3a 	mov.b	14896(r12),r4	;0x3a30(r12)
    173a:	47 28       	jnc	$+144    	;abs 0x17ca
    173c:	31 30       	jn	$+100    	;abs 0x17a0
    173e:	2c 38       	jl	$+90     	;abs 0x1798
    1740:	29 00 54 41 	mova	&0x04154,r9	
    1744:	30 43       	br	#-1		;r3 As==11
    1746:	43 54       	.word	0x5443;	????	Illegal as 2-op instr
    1748:	4c 31       	jn	$+666    	;abs 0x19e2
    174a:	3a 47       	mov	@r7+,	r10	
    174c:	28 31       	jn	$+594    	;abs 0x199e
    174e:	30 2c       	jc	$+98     	;abs 0x17b0
    1750:	38 29       	jnc	$+626    	;abs 0x19c2
    1752:	00 54       	add	r4,	r0	
    1754:	41 30       	jn	$+132    	;abs 0x17d8
    1756:	43 43       	clr.b	#0		;r3 As==00
    1758:	52 30       	jn	$+166    	;abs 0x17fe
    175a:	3a 47       	mov	@r7+,	r10	
    175c:	28 31       	jn	$+594    	;abs 0x19ae
    175e:	30 2c       	jc	$+98     	;abs 0x17c0
    1760:	38 29       	jnc	$+626    	;abs 0x19d2
    1762:	00 54       	add	r4,	r0	
    1764:	41 30       	jn	$+132    	;abs 0x17e8
    1766:	43 43       	clr.b	#0		;r3 As==00
    1768:	52 31       	jn	$+678    	;abs 0x1a0e
    176a:	3a 47       	mov	@r7+,	r10	
    176c:	28 31       	jn	$+594    	;abs 0x19be
    176e:	30 2c       	jc	$+98     	;abs 0x17d0
    1770:	38 29       	jnc	$+626    	;abs 0x19e2
    1772:	00 54       	add	r4,	r0	
    1774:	41 30       	jn	$+132    	;abs 0x17f8
    1776:	43 43       	clr.b	#0		;r3 As==00
    1778:	54 4c 32 3a 	mov.b	14898(r12),r4	;0x3a32(r12)
    177c:	47 28       	jnc	$+144    	;abs 0x180c
    177e:	31 30       	jn	$+100    	;abs 0x17e2
    1780:	2c 38       	jl	$+90     	;abs 0x17da
    1782:	29 00 54 41 	mova	&0x04154,r9	
    1786:	30 43       	br	#-1		;r3 As==11
    1788:	43 52       	.word	0x5243;	????	Illegal as 2-op instr
    178a:	32 3a       	jl	$-922    	;abs 0x13f0
    178c:	47 28       	jnc	$+144    	;abs 0x181c
    178e:	31 30       	jn	$+100    	;abs 0x17f2
    1790:	2c 38       	jl	$+90     	;abs 0x17ea
    1792:	29 00 74 69 	mova	&0x06974,r9	
    1796:	6d 65       	addc.b	@r5,	r13	
    1798:	72 61       	addc.b	@r1+,	r2	
    179a:	3a 47       	mov	@r7+,	r10	
    179c:	28 31       	jn	$+594    	;abs 0x19ee
    179e:	30 2c       	jc	$+98     	;abs 0x1800
    17a0:	35 29       	jnc	$+620    	;abs 0x1a0c
    17a2:	00 54       	add	r4,	r0	
    17a4:	42 49       	mov.b	r9,	r2	
    17a6:	56 3a       	jl	$-850    	;abs 0x1454
    17a8:	47 28       	jnc	$+144    	;abs 0x1838
    17aa:	31 30       	jn	$+100    	;abs 0x180e
    17ac:	2c 38       	jl	$+90     	;abs 0x1806
    17ae:	29 00 54 42 	mova	&0x04254,r9	
    17b2:	43 54       	.word	0x5443;	????	Illegal as 2-op instr
    17b4:	4c 3a       	jl	$-870    	;abs 0x144e
    17b6:	47 28       	jnc	$+144    	;abs 0x1846
    17b8:	31 30       	jn	$+100    	;abs 0x181c
    17ba:	2c 38       	jl	$+90     	;abs 0x1814
    17bc:	29 00 54 42 	mova	&0x04254,r9	
    17c0:	52 3a       	jl	$-858    	;abs 0x1466
    17c2:	47 28       	jnc	$+144    	;abs 0x1852
    17c4:	31 30       	jn	$+100    	;abs 0x1828
    17c6:	2c 38       	jl	$+90     	;abs 0x1820
    17c8:	29 00 54 42 	mova	&0x04254,r9	
    17cc:	43 43       	clr.b	#0		;r3 As==00
    17ce:	54 4c 30 3a 	mov.b	14896(r12),r4	;0x3a30(r12)
    17d2:	47 28       	jnc	$+144    	;abs 0x1862
    17d4:	31 30       	jn	$+100    	;abs 0x1838
    17d6:	2c 38       	jl	$+90     	;abs 0x1830
    17d8:	29 00 54 42 	mova	&0x04254,r9	
    17dc:	43 43       	clr.b	#0		;r3 As==00
    17de:	54 4c 31 3a 	mov.b	14897(r12),r4	;0x3a31(r12)
    17e2:	47 28       	jnc	$+144    	;abs 0x1872
    17e4:	31 30       	jn	$+100    	;abs 0x1848
    17e6:	2c 38       	jl	$+90     	;abs 0x1840
    17e8:	29 00 54 42 	mova	&0x04254,r9	
    17ec:	43 43       	clr.b	#0		;r3 As==00
    17ee:	54 4c 32 3a 	mov.b	14898(r12),r4	;0x3a32(r12)
    17f2:	47 28       	jnc	$+144    	;abs 0x1882
    17f4:	31 30       	jn	$+100    	;abs 0x1858
    17f6:	2c 38       	jl	$+90     	;abs 0x1850
    17f8:	29 00 54 42 	mova	&0x04254,r9	
    17fc:	43 43       	clr.b	#0		;r3 As==00
    17fe:	52 30       	jn	$+166    	;abs 0x18a4
    1800:	3a 47       	mov	@r7+,	r10	
    1802:	28 31       	jn	$+594    	;abs 0x1a54
    1804:	30 2c       	jc	$+98     	;abs 0x1866
    1806:	38 29       	jnc	$+626    	;abs 0x1a78
    1808:	00 54       	add	r4,	r0	
    180a:	42 43       	clr.b	r2		
    180c:	43 52       	.word	0x5243;	????	Illegal as 2-op instr
    180e:	31 3a       	jl	$-924    	;abs 0x1472
    1810:	47 28       	jnc	$+144    	;abs 0x18a0
    1812:	31 30       	jn	$+100    	;abs 0x1876
    1814:	2c 38       	jl	$+90     	;abs 0x186e
    1816:	29 00 54 42 	mova	&0x04254,r9	
    181a:	43 43       	clr.b	#0		;r3 As==00
    181c:	52 32       	jn	$-858    	;abs 0x14c2
    181e:	3a 47       	mov	@r7+,	r10	
    1820:	28 31       	jn	$+594    	;abs 0x1a72
    1822:	30 2c       	jc	$+98     	;abs 0x1884
    1824:	38 29       	jnc	$+626    	;abs 0x1a96
    1826:	00 54       	add	r4,	r0	
    1828:	42 43       	clr.b	r2		
    182a:	43 54       	.word	0x5443;	????	Illegal as 2-op instr
    182c:	4c 33       	jn	$-358    	;abs 0x16c6
    182e:	3a 47       	mov	@r7+,	r10	
    1830:	28 31       	jn	$+594    	;abs 0x1a82
    1832:	30 2c       	jc	$+98     	;abs 0x1894
    1834:	38 29       	jnc	$+626    	;abs 0x1aa6
    1836:	00 54       	add	r4,	r0	
    1838:	42 43       	clr.b	r2		
    183a:	43 54       	.word	0x5443;	????	Illegal as 2-op instr
    183c:	4c 34       	jge	$+154    	;abs 0x18d6
    183e:	3a 47       	mov	@r7+,	r10	
    1840:	28 31       	jn	$+594    	;abs 0x1a92
    1842:	30 2c       	jc	$+98     	;abs 0x18a4
    1844:	38 29       	jnc	$+626    	;abs 0x1ab6
    1846:	00 54       	add	r4,	r0	
    1848:	42 43       	clr.b	r2		
    184a:	43 54       	.word	0x5443;	????	Illegal as 2-op instr
    184c:	4c 35       	jge	$+666    	;abs 0x1ae6
    184e:	3a 47       	mov	@r7+,	r10	
    1850:	28 31       	jn	$+594    	;abs 0x1aa2
    1852:	30 2c       	jc	$+98     	;abs 0x18b4
    1854:	38 29       	jnc	$+626    	;abs 0x1ac6
    1856:	00 54       	add	r4,	r0	
    1858:	42 43       	clr.b	r2		
    185a:	43 54       	.word	0x5443;	????	Illegal as 2-op instr
    185c:	4c 36       	jge	$-870    	;abs 0x14f6
    185e:	3a 47       	mov	@r7+,	r10	
    1860:	28 31       	jn	$+594    	;abs 0x1ab2
    1862:	30 2c       	jc	$+98     	;abs 0x18c4
    1864:	38 29       	jnc	$+626    	;abs 0x1ad6
    1866:	00 54       	add	r4,	r0	
    1868:	42 43       	clr.b	r2		
    186a:	43 52       	.word	0x5243;	????	Illegal as 2-op instr
    186c:	33 3a       	jl	$-920    	;abs 0x14d4
    186e:	47 28       	jnc	$+144    	;abs 0x18fe
    1870:	31 30       	jn	$+100    	;abs 0x18d4
    1872:	2c 38       	jl	$+90     	;abs 0x18cc
    1874:	29 00 54 42 	mova	&0x04254,r9	
    1878:	43 43       	clr.b	#0		;r3 As==00
    187a:	52 34       	jge	$+166    	;abs 0x1920
    187c:	3a 47       	mov	@r7+,	r10	
    187e:	28 31       	jn	$+594    	;abs 0x1ad0
    1880:	30 2c       	jc	$+98     	;abs 0x18e2
    1882:	38 29       	jnc	$+626    	;abs 0x1af4
    1884:	00 54       	add	r4,	r0	
    1886:	42 43       	clr.b	r2		
    1888:	43 52       	.word	0x5243;	????	Illegal as 2-op instr
    188a:	35 3a       	jl	$-916    	;abs 0x14f6
    188c:	47 28       	jnc	$+144    	;abs 0x191c
    188e:	31 30       	jn	$+100    	;abs 0x18f2
    1890:	2c 38       	jl	$+90     	;abs 0x18ea
    1892:	29 00 54 42 	mova	&0x04254,r9	
    1896:	43 43       	clr.b	#0		;r3 As==00
    1898:	52 36       	jge	$-858    	;abs 0x153e
    189a:	3a 47       	mov	@r7+,	r10	
    189c:	28 31       	jn	$+594    	;abs 0x1aee
    189e:	30 2c       	jc	$+98     	;abs 0x1900
    18a0:	38 29       	jnc	$+626    	;abs 0x1b12
    18a2:	00 74       	subc	r4,	r0	
    18a4:	69 6d       	addc.b	@r13,	r9	
    18a6:	65 72       	subc.b	#4,	r5	;r2 As==10
    18a8:	62 3a       	jl	$-826    	;abs 0x156e
    18aa:	47 28       	jnc	$+144    	;abs 0x193a
    18ac:	31 31       	jn	$+612    	;abs 0x1b10
    18ae:	2c 35       	jge	$+602    	;abs 0x1b08
    18b0:	29 00 44 43 	mova	&0x04344,r9	
    18b4:	4f 43       	clr.b	r15		
    18b6:	54 4c 3a 47 	mov.b	18234(r12),r4	;0x473a(r12)
    18ba:	28 31       	jn	$+594    	;abs 0x1b0c
    18bc:	2c 31       	jn	$+602    	;abs 0x1b16
    18be:	29 00 42 43 	mova	&0x04342,r9	
    18c2:	53 43       	.word	0x4353;	????	Illegal as 2-op instr
    18c4:	54 4c 31 3a 	mov.b	14897(r12),r4	;0x3a31(r12)
    18c8:	47 28       	jnc	$+144    	;abs 0x1958
    18ca:	31 2c       	jc	$+100    	;abs 0x192e
    18cc:	31 29       	jnc	$+612    	;abs 0x1b30
    18ce:	00 42       	br	r2		
    18d0:	43 53       	.word	0x5343;	????	Illegal as emulation instr
    18d2:	43 54       	.word	0x5443;	????	Illegal as 2-op instr
    18d4:	4c 32       	jn	$-870    	;abs 0x156e
    18d6:	3a 47       	mov	@r7+,	r10	
    18d8:	28 31       	jn	$+594    	;abs 0x1b2a
    18da:	2c 31       	jn	$+602    	;abs 0x1b34
    18dc:	29 00 42 43 	mova	&0x04342,r9	
    18e0:	53 43       	.word	0x4353;	????	Illegal as 2-op instr
    18e2:	54 4c 33 3a 	mov.b	14899(r12),r4	;0x3a33(r12)
    18e6:	47 28       	jnc	$+144    	;abs 0x1976
    18e8:	31 2c       	jc	$+100    	;abs 0x194c
    18ea:	31 29       	jnc	$+612    	;abs 0x1b4e
    18ec:	00 46       	br	r6		
    18ee:	43 54       	.word	0x5443;	????	Illegal as 2-op instr
    18f0:	4c 31       	jn	$+666    	;abs 0x1b8a
    18f2:	3a 47       	mov	@r7+,	r10	
    18f4:	28 31       	jn	$+594    	;abs 0x1b46
    18f6:	30 2c       	jc	$+98     	;abs 0x1958
    18f8:	38 29       	jnc	$+626    	;abs 0x1b6a
    18fa:	00 46       	br	r6		
    18fc:	43 54       	.word	0x5443;	????	Illegal as 2-op instr
    18fe:	4c 32       	jn	$-870    	;abs 0x1598
    1900:	3a 47       	mov	@r7+,	r10	
    1902:	28 31       	jn	$+594    	;abs 0x1b54
    1904:	30 2c       	jc	$+98     	;abs 0x1966
    1906:	38 29       	jnc	$+626    	;abs 0x1b78
    1908:	00 46       	br	r6		
    190a:	43 54       	.word	0x5443;	????	Illegal as 2-op instr
    190c:	4c 33       	jn	$-358    	;abs 0x17a6
    190e:	3a 47       	mov	@r7+,	r10	
    1910:	28 31       	jn	$+594    	;abs 0x1b62
    1912:	30 2c       	jc	$+98     	;abs 0x1974
    1914:	38 29       	jnc	$+626    	;abs 0x1b86
    1916:	00 43       	clr	r0		
    1918:	41 43       	clr.b	r1		
    191a:	54 4c 31 3a 	mov.b	14897(r12),r4	;0x3a31(r12)
    191e:	47 28       	jnc	$+144    	;abs 0x19ae
    1920:	31 2c       	jc	$+100    	;abs 0x1984
    1922:	31 29       	jnc	$+612    	;abs 0x1b86
    1924:	00 43       	clr	r0		
    1926:	41 43       	clr.b	r1		
    1928:	54 4c 32 3a 	mov.b	14898(r12),r4	;0x3a32(r12)
    192c:	47 28       	jnc	$+144    	;abs 0x19bc
    192e:	31 2c       	jc	$+100    	;abs 0x1992
    1930:	31 29       	jnc	$+612    	;abs 0x1b94
    1932:	00 43       	clr	r0		
    1934:	41 50       	add.b	r0,	r1	
    1936:	44 3a       	jl	$-886    	;abs 0x15c0
    1938:	47 28       	jnc	$+144    	;abs 0x19c8
    193a:	31 2c       	jc	$+100    	;abs 0x199e
    193c:	31 29       	jnc	$+612    	;abs 0x1ba0
    193e:	00 41       	br	r1		
    1940:	44 43       	clr.b	r4		
    1942:	31 32       	jn	$-924    	;abs 0x15a6
    1944:	43 54       	.word	0x5443;	????	Illegal as 2-op instr
    1946:	4c 30       	jn	$+154    	;abs 0x19e0
    1948:	3a 47       	mov	@r7+,	r10	
    194a:	28 31       	jn	$+594    	;abs 0x1b9c
    194c:	30 2c       	jc	$+98     	;abs 0x19ae
    194e:	38 29       	jnc	$+626    	;abs 0x1bc0
    1950:	00 41       	br	r1		
    1952:	44 43       	clr.b	r4		
    1954:	31 32       	jn	$-924    	;abs 0x15b8
    1956:	43 54       	.word	0x5443;	????	Illegal as 2-op instr
    1958:	4c 31       	jn	$+666    	;abs 0x1bf2
    195a:	3a 47       	mov	@r7+,	r10	
    195c:	28 31       	jn	$+594    	;abs 0x1bae
    195e:	30 2c       	jc	$+98     	;abs 0x19c0
    1960:	38 29       	jnc	$+626    	;abs 0x1bd2
    1962:	00 41       	br	r1		
    1964:	44 43       	clr.b	r4		
    1966:	31 32       	jn	$-924    	;abs 0x15ca
    1968:	49 46       	mov.b	r6,	r9	
    196a:	47 3a       	jl	$-880    	;abs 0x15fa
    196c:	47 28       	jnc	$+144    	;abs 0x19fc
    196e:	31 30       	jn	$+100    	;abs 0x19d2
    1970:	2c 38       	jl	$+90     	;abs 0x19ca
    1972:	29 00 41 44 	mova	&0x04441,r9	
    1976:	43 31       	jn	$+648    	;abs 0x1bfe
    1978:	32 49       	mov	@r9+,	r2	
    197a:	45 3a       	jl	$-884    	;abs 0x1606
    197c:	47 28       	jnc	$+144    	;abs 0x1a0c
    197e:	31 30       	jn	$+100    	;abs 0x19e2
    1980:	2c 38       	jl	$+90     	;abs 0x19da
    1982:	29 00 41 44 	mova	&0x04441,r9	
    1986:	43 31       	jn	$+648    	;abs 0x1c0e
    1988:	32 49       	mov	@r9+,	r2	
    198a:	56 3a       	jl	$-850    	;abs 0x1638
    198c:	47 28       	jnc	$+144    	;abs 0x1a1c
    198e:	31 30       	jn	$+100    	;abs 0x19f2
    1990:	2c 38       	jl	$+90     	;abs 0x19ea
    1992:	29 00 61 64 	mova	&0x06461,r9	
    1996:	63 31       	jn	$+712    	;abs 0x1c5e
    1998:	32 3a       	jl	$-922    	;abs 0x15fe
    199a:	47 28       	jnc	$+144    	;abs 0x1a2a
    199c:	31 35       	jge	$+612    	;abs 0x1c00
    199e:	2c 37       	jge	$-422    	;abs 0x17f8
    19a0:	29 00 41 44 	mova	&0x04441,r9	
    19a4:	43 31       	jn	$+648    	;abs 0x1c2c
    19a6:	32 4d       	mov	@r13+,	r2	
    19a8:	45 4d       	mov.b	r13,	r5	
    19aa:	30 3a       	jl	$-926    	;abs 0x160c
    19ac:	47 28       	jnc	$+144    	;abs 0x1a3c
    19ae:	31 30       	jn	$+100    	;abs 0x1a12
    19b0:	2c 38       	jl	$+90     	;abs 0x1a0a
    19b2:	29 00 41 44 	mova	&0x04441,r9	
    19b6:	43 31       	jn	$+648    	;abs 0x1c3e
    19b8:	32 4d       	mov	@r13+,	r2	
    19ba:	45 4d       	mov.b	r13,	r5	
    19bc:	31 3a       	jl	$-924    	;abs 0x1620
    19be:	47 28       	jnc	$+144    	;abs 0x1a4e
    19c0:	31 30       	jn	$+100    	;abs 0x1a24
    19c2:	2c 38       	jl	$+90     	;abs 0x1a1c
    19c4:	29 00 41 44 	mova	&0x04441,r9	
    19c8:	43 31       	jn	$+648    	;abs 0x1c50
    19ca:	32 4d       	mov	@r13+,	r2	
    19cc:	45 4d       	mov.b	r13,	r5	
    19ce:	32 3a       	jl	$-922    	;abs 0x1634
    19d0:	47 28       	jnc	$+144    	;abs 0x1a60
    19d2:	31 30       	jn	$+100    	;abs 0x1a36
    19d4:	2c 38       	jl	$+90     	;abs 0x1a2e
    19d6:	29 00 41 44 	mova	&0x04441,r9	
    19da:	43 31       	jn	$+648    	;abs 0x1c62
    19dc:	32 4d       	mov	@r13+,	r2	
    19de:	45 4d       	mov.b	r13,	r5	
    19e0:	33 3a       	jl	$-920    	;abs 0x1648
    19e2:	47 28       	jnc	$+144    	;abs 0x1a72
    19e4:	31 30       	jn	$+100    	;abs 0x1a48
    19e6:	2c 38       	jl	$+90     	;abs 0x1a40
    19e8:	29 00 41 44 	mova	&0x04441,r9	
    19ec:	43 31       	jn	$+648    	;abs 0x1c74
    19ee:	32 4d       	mov	@r13+,	r2	
    19f0:	45 4d       	mov.b	r13,	r5	
    19f2:	34 3a       	jl	$-918    	;abs 0x165c
    19f4:	47 28       	jnc	$+144    	;abs 0x1a84
    19f6:	31 30       	jn	$+100    	;abs 0x1a5a
    19f8:	2c 38       	jl	$+90     	;abs 0x1a52
    19fa:	29 00 41 44 	mova	&0x04441,r9	
    19fe:	43 31       	jn	$+648    	;abs 0x1c86
    1a00:	32 4d       	mov	@r13+,	r2	
    1a02:	45 4d       	mov.b	r13,	r5	
    1a04:	35 3a       	jl	$-916    	;abs 0x1670
    1a06:	47 28       	jnc	$+144    	;abs 0x1a96
    1a08:	31 30       	jn	$+100    	;abs 0x1a6c
    1a0a:	2c 38       	jl	$+90     	;abs 0x1a64
    1a0c:	29 00 41 44 	mova	&0x04441,r9	
    1a10:	43 31       	jn	$+648    	;abs 0x1c98
    1a12:	32 4d       	mov	@r13+,	r2	
    1a14:	45 4d       	mov.b	r13,	r5	
    1a16:	36 3a       	jl	$-914    	;abs 0x1684
    1a18:	47 28       	jnc	$+144    	;abs 0x1aa8
    1a1a:	31 30       	jn	$+100    	;abs 0x1a7e
    1a1c:	2c 38       	jl	$+90     	;abs 0x1a76
    1a1e:	29 00 41 44 	mova	&0x04441,r9	
    1a22:	43 31       	jn	$+648    	;abs 0x1caa
    1a24:	32 4d       	mov	@r13+,	r2	
    1a26:	45 4d       	mov.b	r13,	r5	
    1a28:	37 3a       	jl	$-912    	;abs 0x1698
    1a2a:	47 28       	jnc	$+144    	;abs 0x1aba
    1a2c:	31 30       	jn	$+100    	;abs 0x1a90
    1a2e:	2c 38       	jl	$+90     	;abs 0x1a88
    1a30:	29 00 41 44 	mova	&0x04441,r9	
    1a34:	43 31       	jn	$+648    	;abs 0x1cbc
    1a36:	32 4d       	mov	@r13+,	r2	
    1a38:	45 4d       	mov.b	r13,	r5	
    1a3a:	38 3a       	jl	$-910    	;abs 0x16ac
    1a3c:	47 28       	jnc	$+144    	;abs 0x1acc
    1a3e:	31 30       	jn	$+100    	;abs 0x1aa2
    1a40:	2c 38       	jl	$+90     	;abs 0x1a9a
    1a42:	29 00 41 44 	mova	&0x04441,r9	
    1a46:	43 31       	jn	$+648    	;abs 0x1cce
    1a48:	32 4d       	mov	@r13+,	r2	
    1a4a:	45 4d       	mov.b	r13,	r5	
    1a4c:	39 3a       	jl	$-908    	;abs 0x16c0
    1a4e:	47 28       	jnc	$+144    	;abs 0x1ade
    1a50:	31 30       	jn	$+100    	;abs 0x1ab4
    1a52:	2c 38       	jl	$+90     	;abs 0x1aac
    1a54:	29 00 41 44 	mova	&0x04441,r9	
    1a58:	43 31       	jn	$+648    	;abs 0x1ce0
    1a5a:	32 4d       	mov	@r13+,	r2	
    1a5c:	45 4d       	mov.b	r13,	r5	
    1a5e:	31 30       	jn	$+100    	;abs 0x1ac2
    1a60:	3a 47       	mov	@r7+,	r10	
    1a62:	28 31       	jn	$+594    	;abs 0x1cb4
    1a64:	30 2c       	jc	$+98     	;abs 0x1ac6
    1a66:	38 29       	jnc	$+626    	;abs 0x1cd8
    1a68:	00 41       	br	r1		
    1a6a:	44 43       	clr.b	r4		
    1a6c:	31 32       	jn	$-924    	;abs 0x16d0
    1a6e:	4d 45       	mov.b	r5,	r13	
    1a70:	4d 31       	jn	$+668    	;abs 0x1d0c
    1a72:	31 3a       	jl	$-924    	;abs 0x16d6
    1a74:	47 28       	jnc	$+144    	;abs 0x1b04
    1a76:	31 30       	jn	$+100    	;abs 0x1ada
    1a78:	2c 38       	jl	$+90     	;abs 0x1ad2
    1a7a:	29 00 41 44 	mova	&0x04441,r9	
    1a7e:	43 31       	jn	$+648    	;abs 0x1d06
    1a80:	32 4d       	mov	@r13+,	r2	
    1a82:	45 4d       	mov.b	r13,	r5	
    1a84:	31 32       	jn	$-924    	;abs 0x16e8
    1a86:	3a 47       	mov	@r7+,	r10	
    1a88:	28 31       	jn	$+594    	;abs 0x1cda
    1a8a:	30 2c       	jc	$+98     	;abs 0x1aec
    1a8c:	38 29       	jnc	$+626    	;abs 0x1cfe
    1a8e:	00 41       	br	r1		
    1a90:	44 43       	clr.b	r4		
    1a92:	31 32       	jn	$-924    	;abs 0x16f6
    1a94:	4d 45       	mov.b	r5,	r13	
    1a96:	4d 31       	jn	$+668    	;abs 0x1d32
    1a98:	33 3a       	jl	$-920    	;abs 0x1700
    1a9a:	47 28       	jnc	$+144    	;abs 0x1b2a
    1a9c:	31 30       	jn	$+100    	;abs 0x1b00
    1a9e:	2c 38       	jl	$+90     	;abs 0x1af8
    1aa0:	29 00 41 44 	mova	&0x04441,r9	
    1aa4:	43 31       	jn	$+648    	;abs 0x1d2c
    1aa6:	32 4d       	mov	@r13+,	r2	
    1aa8:	45 4d       	mov.b	r13,	r5	
    1aaa:	31 34       	jge	$+100    	;abs 0x1b0e
    1aac:	3a 47       	mov	@r7+,	r10	
    1aae:	28 31       	jn	$+594    	;abs 0x1d00
    1ab0:	30 2c       	jc	$+98     	;abs 0x1b12
    1ab2:	38 29       	jnc	$+626    	;abs 0x1d24
    1ab4:	00 41       	br	r1		
    1ab6:	44 43       	clr.b	r4		
    1ab8:	31 32       	jn	$-924    	;abs 0x171c
    1aba:	4d 45       	mov.b	r5,	r13	
    1abc:	4d 31       	jn	$+668    	;abs 0x1d58
    1abe:	35 3a       	jl	$-916    	;abs 0x172a
    1ac0:	47 28       	jnc	$+144    	;abs 0x1b50
    1ac2:	31 30       	jn	$+100    	;abs 0x1b26
    1ac4:	2c 38       	jl	$+90     	;abs 0x1b1e
    1ac6:	29 00 41 44 	mova	&0x04441,r9	
    1aca:	43 31       	jn	$+648    	;abs 0x1d52
    1acc:	32 4d       	mov	@r13+,	r2	
    1ace:	43 54       	.word	0x5443;	????	Illegal as 2-op instr
    1ad0:	4c 30       	jn	$+154    	;abs 0x1b6a
    1ad2:	3a 47       	mov	@r7+,	r10	
    1ad4:	28 31       	jn	$+594    	;abs 0x1d26
    1ad6:	2c 31       	jn	$+602    	;abs 0x1d30
    1ad8:	29 00 41 44 	mova	&0x04441,r9	
    1adc:	43 31       	jn	$+648    	;abs 0x1d64
    1ade:	32 4d       	mov	@r13+,	r2	
    1ae0:	43 54       	.word	0x5443;	????	Illegal as 2-op instr
    1ae2:	4c 31       	jn	$+666    	;abs 0x1d7c
    1ae4:	3a 47       	mov	@r7+,	r10	
    1ae6:	28 31       	jn	$+594    	;abs 0x1d38
    1ae8:	2c 31       	jn	$+602    	;abs 0x1d42
    1aea:	29 00 41 44 	mova	&0x04441,r9	
    1aee:	43 31       	jn	$+648    	;abs 0x1d76
    1af0:	32 4d       	mov	@r13+,	r2	
    1af2:	43 54       	.word	0x5443;	????	Illegal as 2-op instr
    1af4:	4c 32       	jn	$-870    	;abs 0x178e
    1af6:	3a 47       	mov	@r7+,	r10	
    1af8:	28 31       	jn	$+594    	;abs 0x1d4a
    1afa:	2c 31       	jn	$+602    	;abs 0x1d54
    1afc:	29 00 41 44 	mova	&0x04441,r9	
    1b00:	43 31       	jn	$+648    	;abs 0x1d88
    1b02:	32 4d       	mov	@r13+,	r2	
    1b04:	43 54       	.word	0x5443;	????	Illegal as 2-op instr
    1b06:	4c 33       	jn	$-358    	;abs 0x19a0
    1b08:	3a 47       	mov	@r7+,	r10	
    1b0a:	28 31       	jn	$+594    	;abs 0x1d5c
    1b0c:	2c 31       	jn	$+602    	;abs 0x1d66
    1b0e:	29 00 41 44 	mova	&0x04441,r9	
    1b12:	43 31       	jn	$+648    	;abs 0x1d9a
    1b14:	32 4d       	mov	@r13+,	r2	
    1b16:	43 54       	.word	0x5443;	????	Illegal as 2-op instr
    1b18:	4c 34       	jge	$+154    	;abs 0x1bb2
    1b1a:	3a 47       	mov	@r7+,	r10	
    1b1c:	28 31       	jn	$+594    	;abs 0x1d6e
    1b1e:	2c 31       	jn	$+602    	;abs 0x1d78
    1b20:	29 00 41 44 	mova	&0x04441,r9	
    1b24:	43 31       	jn	$+648    	;abs 0x1dac
    1b26:	32 4d       	mov	@r13+,	r2	
    1b28:	43 54       	.word	0x5443;	????	Illegal as 2-op instr
    1b2a:	4c 35       	jge	$+666    	;abs 0x1dc4
    1b2c:	3a 47       	mov	@r7+,	r10	
    1b2e:	28 31       	jn	$+594    	;abs 0x1d80
    1b30:	2c 31       	jn	$+602    	;abs 0x1d8a
    1b32:	29 00 41 44 	mova	&0x04441,r9	
    1b36:	43 31       	jn	$+648    	;abs 0x1dbe
    1b38:	32 4d       	mov	@r13+,	r2	
    1b3a:	43 54       	.word	0x5443;	????	Illegal as 2-op instr
    1b3c:	4c 36       	jge	$-870    	;abs 0x17d6
    1b3e:	3a 47       	mov	@r7+,	r10	
    1b40:	28 31       	jn	$+594    	;abs 0x1d92
    1b42:	2c 31       	jn	$+602    	;abs 0x1d9c
    1b44:	29 00 41 44 	mova	&0x04441,r9	
    1b48:	43 31       	jn	$+648    	;abs 0x1dd0
    1b4a:	32 4d       	mov	@r13+,	r2	
    1b4c:	43 54       	.word	0x5443;	????	Illegal as 2-op instr
    1b4e:	4c 37       	jge	$-358    	;abs 0x19e8
    1b50:	3a 47       	mov	@r7+,	r10	
    1b52:	28 31       	jn	$+594    	;abs 0x1da4
    1b54:	2c 31       	jn	$+602    	;abs 0x1dae
    1b56:	29 00 41 44 	mova	&0x04441,r9	
    1b5a:	43 31       	jn	$+648    	;abs 0x1de2
    1b5c:	32 4d       	mov	@r13+,	r2	
    1b5e:	43 54       	.word	0x5443;	????	Illegal as 2-op instr
    1b60:	4c 38       	jl	$+154    	;abs 0x1bfa
    1b62:	3a 47       	mov	@r7+,	r10	
    1b64:	28 31       	jn	$+594    	;abs 0x1db6
    1b66:	2c 31       	jn	$+602    	;abs 0x1dc0
    1b68:	29 00 41 44 	mova	&0x04441,r9	
    1b6c:	43 31       	jn	$+648    	;abs 0x1df4
    1b6e:	32 4d       	mov	@r13+,	r2	
    1b70:	43 54       	.word	0x5443;	????	Illegal as 2-op instr
    1b72:	4c 39       	jl	$+666    	;abs 0x1e0c
    1b74:	3a 47       	mov	@r7+,	r10	
    1b76:	28 31       	jn	$+594    	;abs 0x1dc8
    1b78:	2c 31       	jn	$+602    	;abs 0x1dd2
    1b7a:	29 00 41 44 	mova	&0x04441,r9	
    1b7e:	43 31       	jn	$+648    	;abs 0x1e06
    1b80:	32 4d       	mov	@r13+,	r2	
    1b82:	43 54       	.word	0x5443;	????	Illegal as 2-op instr
    1b84:	4c 31       	jn	$+666    	;abs 0x1e1e
    1b86:	30 3a       	jl	$-926    	;abs 0x17e8
    1b88:	47 28       	jnc	$+144    	;abs 0x1c18
    1b8a:	31 2c       	jc	$+100    	;abs 0x1bee
    1b8c:	31 29       	jnc	$+612    	;abs 0x1df0
    1b8e:	00 41       	br	r1		
    1b90:	44 43       	clr.b	r4		
    1b92:	31 32       	jn	$-924    	;abs 0x17f6
    1b94:	4d 43       	clr.b	r13		
    1b96:	54 4c 31 31 	mov.b	12593(r12),r4	;0x3131(r12)
    1b9a:	3a 47       	mov	@r7+,	r10	
    1b9c:	28 31       	jn	$+594    	;abs 0x1dee
    1b9e:	2c 31       	jn	$+602    	;abs 0x1df8
    1ba0:	29 00 41 44 	mova	&0x04441,r9	
    1ba4:	43 31       	jn	$+648    	;abs 0x1e2c
    1ba6:	32 4d       	mov	@r13+,	r2	
    1ba8:	43 54       	.word	0x5443;	????	Illegal as 2-op instr
    1baa:	4c 31       	jn	$+666    	;abs 0x1e44
    1bac:	32 3a       	jl	$-922    	;abs 0x1812
    1bae:	47 28       	jnc	$+144    	;abs 0x1c3e
    1bb0:	31 2c       	jc	$+100    	;abs 0x1c14
    1bb2:	31 29       	jnc	$+612    	;abs 0x1e16
    1bb4:	00 41       	br	r1		
    1bb6:	44 43       	clr.b	r4		
    1bb8:	31 32       	jn	$-924    	;abs 0x181c
    1bba:	4d 43       	clr.b	r13		
    1bbc:	54 4c 31 33 	mov.b	13105(r12),r4	;0x3331(r12)
    1bc0:	3a 47       	mov	@r7+,	r10	
    1bc2:	28 31       	jn	$+594    	;abs 0x1e14
    1bc4:	2c 31       	jn	$+602    	;abs 0x1e1e
    1bc6:	29 00 41 44 	mova	&0x04441,r9	
    1bca:	43 31       	jn	$+648    	;abs 0x1e52
    1bcc:	32 4d       	mov	@r13+,	r2	
    1bce:	43 54       	.word	0x5443;	????	Illegal as 2-op instr
    1bd0:	4c 31       	jn	$+666    	;abs 0x1e6a
    1bd2:	34 3a       	jl	$-918    	;abs 0x183c
    1bd4:	47 28       	jnc	$+144    	;abs 0x1c64
    1bd6:	31 2c       	jc	$+100    	;abs 0x1c3a
    1bd8:	31 29       	jnc	$+612    	;abs 0x1e3c
    1bda:	00 41       	br	r1		
    1bdc:	44 43       	clr.b	r4		
    1bde:	31 32       	jn	$-924    	;abs 0x1842
    1be0:	4d 43       	clr.b	r13		
    1be2:	54 4c 31 35 	mov.b	13617(r12),r4	;0x3531(r12)
    1be6:	3a 47       	mov	@r7+,	r10	
    1be8:	28 31       	jn	$+594    	;abs 0x1e3a
    1bea:	2c 31       	jn	$+602    	;abs 0x1e44
    1bec:	29 00 44 41 	mova	&0x04144,r9	
    1bf0:	43 31       	jn	$+648    	;abs 0x1e78
    1bf2:	32 5f       	add	@r15+,	r2	
    1bf4:	30 43       	br	#-1		;r3 As==11
    1bf6:	54 4c 3a 47 	mov.b	18234(r12),r4	;0x473a(r12)
    1bfa:	28 31       	jn	$+594    	;abs 0x1e4c
    1bfc:	30 2c       	jc	$+98     	;abs 0x1c5e
    1bfe:	38 29       	jnc	$+626    	;abs 0x1e70
    1c00:	00 44       	br	r4		
    1c02:	41 43       	clr.b	r1		
    1c04:	31 32       	jn	$-924    	;abs 0x1868
    1c06:	5f 31       	jn	$+704    	;abs 0x1ec6
    1c08:	43 54       	.word	0x5443;	????	Illegal as 2-op instr
    1c0a:	4c 3a       	jl	$-870    	;abs 0x18a4
    1c0c:	47 28       	jnc	$+144    	;abs 0x1c9c
    1c0e:	31 30       	jn	$+100    	;abs 0x1c72
    1c10:	2c 38       	jl	$+90     	;abs 0x1c6a
    1c12:	29 00 44 41 	mova	&0x04144,r9	
    1c16:	43 31       	jn	$+648    	;abs 0x1e9e
    1c18:	32 5f       	add	@r15+,	r2	
    1c1a:	30 44       	br	@r4+		
    1c1c:	41 54       	add.b	r4,	r1	
    1c1e:	3a 47       	mov	@r7+,	r10	
    1c20:	28 31       	jn	$+594    	;abs 0x1e72
    1c22:	30 2c       	jc	$+98     	;abs 0x1c84
    1c24:	38 29       	jnc	$+626    	;abs 0x1e96
    1c26:	00 44       	br	r4		
    1c28:	41 43       	clr.b	r1		
    1c2a:	31 32       	jn	$-924    	;abs 0x188e
    1c2c:	5f 31       	jn	$+704    	;abs 0x1eec
    1c2e:	44 41       	mov.b	r1,	r4	
    1c30:	54 3a       	jl	$-854    	;abs 0x18da
    1c32:	47 28       	jnc	$+144    	;abs 0x1cc2
    1c34:	31 30       	jn	$+100    	;abs 0x1c98
    1c36:	2c 38       	jl	$+90     	;abs 0x1c90
    1c38:	29 00 44 4d 	mova	&0x04d44,r9	
    1c3c:	41 43       	clr.b	r1		
    1c3e:	54 4c 30 3a 	mov.b	14896(r12),r4	;0x3a30(r12)
    1c42:	47 28       	jnc	$+144    	;abs 0x1cd2
    1c44:	31 30       	jn	$+100    	;abs 0x1ca8
    1c46:	2c 38       	jl	$+90     	;abs 0x1ca0
    1c48:	29 00 44 4d 	mova	&0x04d44,r9	
    1c4c:	41 43       	clr.b	r1		
    1c4e:	54 4c 31 3a 	mov.b	14897(r12),r4	;0x3a31(r12)
    1c52:	47 28       	jnc	$+144    	;abs 0x1ce2
    1c54:	31 30       	jn	$+100    	;abs 0x1cb8
    1c56:	2c 38       	jl	$+90     	;abs 0x1cb0
    1c58:	29 00 44 4d 	mova	&0x04d44,r9	
    1c5c:	41 49       	mov.b	r9,	r1	
    1c5e:	56 3a       	jl	$-850    	;abs 0x190c
    1c60:	47 28       	jnc	$+144    	;abs 0x1cf0
    1c62:	31 30       	jn	$+100    	;abs 0x1cc6
    1c64:	2c 38       	jl	$+90     	;abs 0x1cbe
    1c66:	29 00 44 4d 	mova	&0x04d44,r9	
    1c6a:	41 30       	jn	$+132    	;abs 0x1cee
    1c6c:	43 54       	.word	0x5443;	????	Illegal as 2-op instr
    1c6e:	4c 3a       	jl	$-870    	;abs 0x1908
    1c70:	47 28       	jnc	$+144    	;abs 0x1d00
    1c72:	31 30       	jn	$+100    	;abs 0x1cd6
    1c74:	2c 38       	jl	$+90     	;abs 0x1cce
    1c76:	29 00 44 4d 	mova	&0x04d44,r9	
    1c7a:	41 30       	jn	$+132    	;abs 0x1cfe
    1c7c:	53 41       	.word	0x4153;	????	Illegal as 2-op instr
    1c7e:	3a 47       	mov	@r7+,	r10	
    1c80:	28 31       	jn	$+594    	;abs 0x1ed2
    1c82:	2c 32       	jn	$-934    	;abs 0x18dc
    1c84:	29 3d       	jmp	$+596    	;abs 0x1ed8
    1c86:	42 28       	jnc	$+134    	;abs 0x1d0c
    1c88:	30 2c       	jc	$+98     	;abs 0x1cea
    1c8a:	35 29       	jnc	$+620    	;abs 0x1ef6
    1c8c:	00 44       	br	r4		
    1c8e:	4d 41       	mov.b	r1,	r13	
    1c90:	30 53       	add	#-1,	r0	;r3 As==11
    1c92:	41 4c       	mov.b	r12,	r1	
    1c94:	3a 47       	mov	@r7+,	r10	
    1c96:	28 31       	jn	$+594    	;abs 0x1ee8
    1c98:	30 2c       	jc	$+98     	;abs 0x1cfa
    1c9a:	38 29       	jnc	$+626    	;abs 0x1f0c
    1c9c:	00 44       	br	r4		
    1c9e:	4d 41       	mov.b	r1,	r13	
    1ca0:	30 44       	br	@r4+		
    1ca2:	41 3a       	jl	$-892    	;abs 0x1926
    1ca4:	47 28       	jnc	$+144    	;abs 0x1d34
    1ca6:	31 2c       	jc	$+100    	;abs 0x1d0a
    1ca8:	32 29       	jnc	$+614    	;abs 0x1f0e
    1caa:	00 44       	br	r4		
    1cac:	4d 41       	mov.b	r1,	r13	
    1cae:	30 44       	br	@r4+		
    1cb0:	41 4c       	mov.b	r12,	r1	
    1cb2:	3a 47       	mov	@r7+,	r10	
    1cb4:	28 31       	jn	$+594    	;abs 0x1f06
    1cb6:	30 2c       	jc	$+98     	;abs 0x1d18
    1cb8:	38 29       	jnc	$+626    	;abs 0x1f2a
    1cba:	00 44       	br	r4		
    1cbc:	4d 41       	mov.b	r1,	r13	
    1cbe:	30 53       	add	#-1,	r0	;r3 As==11
    1cc0:	5a 3a       	jl	$-842    	;abs 0x1976
    1cc2:	47 28       	jnc	$+144    	;abs 0x1d52
    1cc4:	31 30       	jn	$+100    	;abs 0x1d28
    1cc6:	2c 38       	jl	$+90     	;abs 0x1d20
    1cc8:	29 00 44 4d 	mova	&0x04d44,r9	
    1ccc:	41 31       	jn	$+644    	;abs 0x1f50
    1cce:	43 54       	.word	0x5443;	????	Illegal as 2-op instr
    1cd0:	4c 3a       	jl	$-870    	;abs 0x196a
    1cd2:	47 28       	jnc	$+144    	;abs 0x1d62
    1cd4:	31 30       	jn	$+100    	;abs 0x1d38
    1cd6:	2c 38       	jl	$+90     	;abs 0x1d30
    1cd8:	29 00 44 4d 	mova	&0x04d44,r9	
    1cdc:	41 31       	jn	$+644    	;abs 0x1f60
    1cde:	53 41       	.word	0x4153;	????	Illegal as 2-op instr
    1ce0:	3a 47       	mov	@r7+,	r10	
    1ce2:	28 31       	jn	$+594    	;abs 0x1f34
    1ce4:	2c 32       	jn	$-934    	;abs 0x193e
    1ce6:	29 00 44 4d 	mova	&0x04d44,r9	
    1cea:	41 31       	jn	$+644    	;abs 0x1f6e
    1cec:	53 41       	.word	0x4153;	????	Illegal as 2-op instr
    1cee:	4c 3a       	jl	$-870    	;abs 0x1988
    1cf0:	47 28       	jnc	$+144    	;abs 0x1d80
    1cf2:	31 30       	jn	$+100    	;abs 0x1d56
    1cf4:	2c 38       	jl	$+90     	;abs 0x1d4e
    1cf6:	29 00 44 4d 	mova	&0x04d44,r9	
    1cfa:	41 31       	jn	$+644    	;abs 0x1f7e
    1cfc:	44 41       	mov.b	r1,	r4	
    1cfe:	3a 47       	mov	@r7+,	r10	
    1d00:	28 31       	jn	$+594    	;abs 0x1f52
    1d02:	30 2c       	jc	$+98     	;abs 0x1d64
    1d04:	38 29       	jnc	$+626    	;abs 0x1f76
    1d06:	00 44       	br	r4		
    1d08:	4d 41       	mov.b	r1,	r13	
    1d0a:	31 44       	mov	@r4+,	r1	
    1d0c:	41 4c       	mov.b	r12,	r1	
    1d0e:	3a 47       	mov	@r7+,	r10	
    1d10:	28 31       	jn	$+594    	;abs 0x1f62
    1d12:	30 2c       	jc	$+98     	;abs 0x1d74
    1d14:	38 29       	jnc	$+626    	;abs 0x1f86
    1d16:	00 44       	br	r4		
    1d18:	4d 41       	mov.b	r1,	r13	
    1d1a:	31 53       	add	#-1,	r1	;r3 As==11
    1d1c:	5a 3a       	jl	$-842    	;abs 0x19d2
    1d1e:	47 28       	jnc	$+144    	;abs 0x1dae
    1d20:	31 30       	jn	$+100    	;abs 0x1d84
    1d22:	2c 38       	jl	$+90     	;abs 0x1d7c
    1d24:	29 00 44 4d 	mova	&0x04d44,r9	
    1d28:	41 32       	jn	$-892    	;abs 0x19ac
    1d2a:	43 54       	.word	0x5443;	????	Illegal as 2-op instr
    1d2c:	4c 3a       	jl	$-870    	;abs 0x19c6
    1d2e:	47 28       	jnc	$+144    	;abs 0x1dbe
    1d30:	31 30       	jn	$+100    	;abs 0x1d94
    1d32:	2c 38       	jl	$+90     	;abs 0x1d8c
    1d34:	29 00 44 4d 	mova	&0x04d44,r9	
    1d38:	41 32       	jn	$-892    	;abs 0x19bc
    1d3a:	53 41       	.word	0x4153;	????	Illegal as 2-op instr
    1d3c:	3a 47       	mov	@r7+,	r10	
    1d3e:	28 31       	jn	$+594    	;abs 0x1f90
    1d40:	2c 32       	jn	$-934    	;abs 0x199a
    1d42:	29 00 44 4d 	mova	&0x04d44,r9	
    1d46:	41 32       	jn	$-892    	;abs 0x19ca
    1d48:	53 41       	.word	0x4153;	????	Illegal as 2-op instr
    1d4a:	4c 3a       	jl	$-870    	;abs 0x19e4
    1d4c:	47 28       	jnc	$+144    	;abs 0x1ddc
    1d4e:	31 30       	jn	$+100    	;abs 0x1db2
    1d50:	2c 38       	jl	$+90     	;abs 0x1daa
    1d52:	29 00 44 4d 	mova	&0x04d44,r9	
    1d56:	41 32       	jn	$-892    	;abs 0x19da
    1d58:	44 41       	mov.b	r1,	r4	
    1d5a:	3a 47       	mov	@r7+,	r10	
    1d5c:	28 31       	jn	$+594    	;abs 0x1fae
    1d5e:	2c 32       	jn	$-934    	;abs 0x19b8
    1d60:	29 00 44 4d 	mova	&0x04d44,r9	
    1d64:	41 32       	jn	$-892    	;abs 0x19e8
    1d66:	44 41       	mov.b	r1,	r4	
    1d68:	4c 3a       	jl	$-870    	;abs 0x1a02
    1d6a:	47 28       	jnc	$+144    	;abs 0x1dfa
    1d6c:	31 30       	jn	$+100    	;abs 0x1dd0
    1d6e:	2c 38       	jl	$+90     	;abs 0x1dc8
    1d70:	29 00 44 4d 	mova	&0x04d44,r9	
    1d74:	41 32       	jn	$-892    	;abs 0x19f8
    1d76:	53 5a       	.word	0x5a53;	????	Illegal as 2-op instr
    1d78:	3a 47       	mov	@r7+,	r10	
    1d7a:	28 31       	jn	$+594    	;abs 0x1fcc
    1d7c:	30 2c       	jc	$+98     	;abs 0x1dde
    1d7e:	38 29       	jnc	$+626    	;abs 0x1ff0
    1d80:	00 57       	add	r7,	r0	
    1d82:	44 54       	rla.b	r4		
    1d84:	43 54       	.word	0x5443;	????	Illegal as 2-op instr
    1d86:	4c 3a       	jl	$-870    	;abs 0x1a20
    1d88:	47 28       	jnc	$+144    	;abs 0x1e18
    1d8a:	31 30       	jn	$+100    	;abs 0x1dee
    1d8c:	2c 38       	jl	$+90     	;abs 0x1de6
    1d8e:	29 00 49 45 	mova	&0x04549,r9	
    1d92:	31 3a       	jl	$-924    	;abs 0x19f6
    1d94:	47 28       	jnc	$+144    	;abs 0x1e24
    1d96:	31 2c       	jc	$+100    	;abs 0x1dfa
    1d98:	31 29       	jnc	$+612    	;abs 0x1ffc
    1d9a:	00 49       	br	r9		
    1d9c:	46 47       	mov.b	r7,	r6	
    1d9e:	31 3a       	jl	$-924    	;abs 0x1a02
    1da0:	47 28       	jnc	$+144    	;abs 0x1e30
    1da2:	31 2c       	jc	$+100    	;abs 0x1e06
    1da4:	31 29       	jnc	$+612    	;abs 0x2008
    1da6:	00 49       	br	r9		
    1da8:	45 32       	jn	$-884    	;abs 0x1a34
    1daa:	3a 47       	mov	@r7+,	r10	
    1dac:	28 31       	jn	$+594    	;abs 0x1ffe
    1dae:	2c 31       	jn	$+602    	;abs 0x2008
    1db0:	29 00 49 46 	mova	&0x04649,r9	
    1db4:	47 32       	jn	$-880    	;abs 0x1a44
    1db6:	3a 47       	mov	@r7+,	r10	
    1db8:	28 31       	jn	$+594    	;abs 0x200a
    1dba:	2c 31       	jn	$+602    	;abs 0x2014
    1dbc:	29 00 54 4c 	mova	&0x04c54,r9	
    1dc0:	56 5f 43 48 	add.b	18499(r15),r6	;0x4843(r15)
    1dc4:	45 43       	clr.b	r5		
    1dc6:	4b 53       	add.b	#0,	r11	;r3 As==00
    1dc8:	55 4d 3a 47 	mov.b	18234(r13),r5	;0x473a(r13)
    1dcc:	28 31       	jn	$+594    	;abs 0x201e
    1dce:	30 2c       	jc	$+98     	;abs 0x1e30
    1dd0:	38 29       	jnc	$+626    	;abs 0x2042
    1dd2:	00 54       	add	r4,	r0	
    1dd4:	4c 56       	add.b	r6,	r12	
    1dd6:	5f 44 43 4f 	mov.b	20291(r4),r15	;0x4f43(r4)
    1dda:	5f 33       	jn	$-320    	;abs 0x1c9a
    1ddc:	30 5f       	add	@r15+,	r0	
    1dde:	54 41 47 3a 	mov.b	14919(r1),r4	;0x3a47(r1)
    1de2:	47 28       	jnc	$+144    	;abs 0x1e72
    1de4:	31 2c       	jc	$+100    	;abs 0x1e48
    1de6:	31 29       	jnc	$+612    	;abs 0x204a
    1de8:	00 54       	add	r4,	r0	
    1dea:	4c 56       	add.b	r6,	r12	
    1dec:	5f 44 43 4f 	mov.b	20291(r4),r15	;0x4f43(r4)
    1df0:	5f 33       	jn	$-320    	;abs 0x1cb0
    1df2:	30 5f       	add	@r15+,	r0	
    1df4:	4c 45       	mov.b	r5,	r12	
    1df6:	4e 3a       	jl	$-866    	;abs 0x1a94
    1df8:	47 28       	jnc	$+144    	;abs 0x1e88
    1dfa:	31 2c       	jc	$+100    	;abs 0x1e5e
    1dfc:	31 29       	jnc	$+612    	;abs 0x2060
    1dfe:	00 54       	add	r4,	r0	
    1e00:	4c 56       	add.b	r6,	r12	
    1e02:	5f 41 44 43 	mov.b	17220(r1),r15	;0x4344(r1)
    1e06:	31 32       	jn	$-924    	;abs 0x1a6a
    1e08:	5f 31       	jn	$+704    	;abs 0x20c8
    1e0a:	5f 54 41 47 	add.b	18241(r4),r15	;0x4741(r4)
    1e0e:	3a 47       	mov	@r7+,	r10	
    1e10:	28 31       	jn	$+594    	;abs 0x2062
    1e12:	2c 31       	jn	$+602    	;abs 0x206c
    1e14:	29 00 54 4c 	mova	&0x04c54,r9	
    1e18:	56 5f 41 44 	add.b	17473(r15),r6	;0x4441(r15)
    1e1c:	43 31       	jn	$+648    	;abs 0x20a4
    1e1e:	32 5f       	add	@r15+,	r2	
    1e20:	31 5f       	add	@r15+,	r1	
    1e22:	4c 45       	mov.b	r5,	r12	
    1e24:	4e 3a       	jl	$-866    	;abs 0x1ac2
    1e26:	47 28       	jnc	$+144    	;abs 0x1eb6
    1e28:	31 2c       	jc	$+100    	;abs 0x1e8c
    1e2a:	31 29       	jnc	$+612    	;abs 0x208e
    1e2c:	00 43       	clr	r0		
    1e2e:	41 4c       	mov.b	r12,	r1	
    1e30:	44 43       	clr.b	r4		
    1e32:	4f 5f       	rla.b	r15		
    1e34:	31 36       	jge	$-924    	;abs 0x1a98
    1e36:	4d 48       	mov.b	r8,	r13	
    1e38:	5a 3a       	jl	$-842    	;abs 0x1aee
    1e3a:	47 28       	jnc	$+144    	;abs 0x1eca
    1e3c:	31 2c       	jc	$+100    	;abs 0x1ea0
    1e3e:	31 29       	jnc	$+612    	;abs 0x20a2
    1e40:	00 43       	clr	r0		
    1e42:	41 4c       	mov.b	r12,	r1	
    1e44:	42 43       	clr.b	r2		
    1e46:	31 5f       	add	@r15+,	r1	
    1e48:	31 36       	jge	$-924    	;abs 0x1aac
    1e4a:	4d 48       	mov.b	r8,	r13	
    1e4c:	5a 3a       	jl	$-842    	;abs 0x1b02
    1e4e:	47 28       	jnc	$+144    	;abs 0x1ede
    1e50:	31 2c       	jc	$+100    	;abs 0x1eb4
    1e52:	31 29       	jnc	$+612    	;abs 0x20b6
    1e54:	00 43       	clr	r0		
    1e56:	41 4c       	mov.b	r12,	r1	
    1e58:	44 43       	clr.b	r4		
    1e5a:	4f 5f       	rla.b	r15		
    1e5c:	31 32       	jn	$-924    	;abs 0x1ac0
    1e5e:	4d 48       	mov.b	r8,	r13	
    1e60:	5a 3a       	jl	$-842    	;abs 0x1b16
    1e62:	47 28       	jnc	$+144    	;abs 0x1ef2
    1e64:	31 2c       	jc	$+100    	;abs 0x1ec8
    1e66:	31 29       	jnc	$+612    	;abs 0x20ca
    1e68:	00 43       	clr	r0		
    1e6a:	41 4c       	mov.b	r12,	r1	
    1e6c:	42 43       	clr.b	r2		
    1e6e:	31 5f       	add	@r15+,	r1	
    1e70:	31 32       	jn	$-924    	;abs 0x1ad4
    1e72:	4d 48       	mov.b	r8,	r13	
    1e74:	5a 3a       	jl	$-842    	;abs 0x1b2a
    1e76:	47 28       	jnc	$+144    	;abs 0x1f06
    1e78:	31 2c       	jc	$+100    	;abs 0x1edc
    1e7a:	31 29       	jnc	$+612    	;abs 0x20de
    1e7c:	00 43       	clr	r0		
    1e7e:	41 4c       	mov.b	r12,	r1	
    1e80:	44 43       	clr.b	r4		
    1e82:	4f 5f       	rla.b	r15		
    1e84:	38 4d       	mov	@r13+,	r8	
    1e86:	48 5a       	add.b	r10,	r8	
    1e88:	3a 47       	mov	@r7+,	r10	
    1e8a:	28 31       	jn	$+594    	;abs 0x20dc
    1e8c:	2c 31       	jn	$+602    	;abs 0x20e6
    1e8e:	29 00 43 41 	mova	&0x04143,r9	
    1e92:	4c 42       	mov.b	r2,	r12	
    1e94:	43 31       	jn	$+648    	;abs 0x211c
    1e96:	5f 38       	jl	$+192    	;abs 0x1f56
    1e98:	4d 48       	mov.b	r8,	r13	
    1e9a:	5a 3a       	jl	$-842    	;abs 0x1b50
    1e9c:	47 28       	jnc	$+144    	;abs 0x1f2c
    1e9e:	31 2c       	jc	$+100    	;abs 0x1f02
    1ea0:	31 29       	jnc	$+612    	;abs 0x2104
    1ea2:	00 43       	clr	r0		
    1ea4:	41 4c       	mov.b	r12,	r1	
    1ea6:	44 43       	clr.b	r4		
    1ea8:	4f 5f       	rla.b	r15		
    1eaa:	31 4d       	mov	@r13+,	r1	
    1eac:	48 5a       	add.b	r10,	r8	
    1eae:	3a 47       	mov	@r7+,	r10	
    1eb0:	28 31       	jn	$+594    	;abs 0x2102
    1eb2:	2c 31       	jn	$+602    	;abs 0x210c
    1eb4:	29 00 43 41 	mova	&0x04143,r9	
    1eb8:	4c 42       	mov.b	r2,	r12	
    1eba:	43 31       	jn	$+648    	;abs 0x2142
    1ebc:	5f 31       	jn	$+704    	;abs 0x217c
    1ebe:	4d 48       	mov.b	r8,	r13	
    1ec0:	5a 3a       	jl	$-842    	;abs 0x1b76
    1ec2:	47 28       	jnc	$+144    	;abs 0x1f52
    1ec4:	31 2c       	jc	$+100    	;abs 0x1f28
    1ec6:	31 29       	jnc	$+612    	;abs 0x212a
	...
