
main.o:     file format elf32-msp430


Disassembly of section .text:

00003100 <__init_stack>:
    3100:	31 40 00 31 	mov	#12544,	r1	;#0x3100

00003104 <__low_level_init>:
    3104:	15 42 20 01 	mov	&0x0120,r5	
    3108:	75 f3       	and.b	#-1,	r5	;r3 As==11
    310a:	35 d0 08 5a 	bis	#23048,	r5	;#0x5a08

0000310e <__do_copy_data>:
    310e:	3f 40 02 00 	mov	#2,	r15	;#0x0002
    3112:	0f 93       	tst	r15		
    3114:	07 24       	jz	$+16     	;abs 0x3124
    3116:	82 45 20 01 	mov	r5,	&0x0120	
    311a:	2f 83       	decd	r15		
    311c:	9f 4f d2 45 	mov	17874(r15),4352(r15);0x45d2(r15), 0x1100(r15)
    3120:	00 11 
    3122:	f9 23       	jnz	$-12     	;abs 0x3116

00003124 <__do_clear_bss>:
    3124:	3f 40 06 00 	mov	#6,	r15	;#0x0006
    3128:	0f 93       	tst	r15		
    312a:	06 24       	jz	$+14     	;abs 0x3138
    312c:	82 45 20 01 	mov	r5,	&0x0120	
    3130:	1f 83       	dec	r15		
    3132:	cf 43 02 11 	mov.b	#0,	4354(r15);r3 As==00, 0x1102(r15)
    3136:	fa 23       	jnz	$-10     	;abs 0x312c

00003138 <main>:
ITG3200 config:
8kHz
256Hz lowpass
*/

int main(void){
    3138:	21 83       	decd	r1		
    unsigned char ITG3200_I2CAddress = 0x68;
    unsigned char EEPROM_I2CAddress = 0x50;
    
    unsigned char Data = 0;
    313a:	c1 43 00 00 	mov.b	#0,	0(r1)	;r3 As==00, 0x0000(r1)

    hardware_setup();
    313e:	b0 12 94 40 	call	#0x4094	
    
    lcd_init(LCDBackColor);
    3142:	5f 42 00 11 	mov.b	&0x1100,r15	
    3146:	b0 12 0e 37 	call	#0x370e	
    

    // config ITG3200
    delayms(150);
    314a:	3f 40 96 00 	mov	#150,	r15	;#0x0096
    314e:	b0 12 56 34 	call	#0x3456	
    i2c_write_register(0x17, 0x05, ITG3200_I2CAddress);
    3152:	7d 40 68 00 	mov.b	#104,	r13	;#0x0068
    3156:	7e 40 05 00 	mov.b	#5,	r14	;#0x0005
    315a:	7f 40 17 00 	mov.b	#23,	r15	;#0x0017
    315e:	b0 12 88 35 	call	#0x3588	
    delayms(100);
    3162:	3f 40 64 00 	mov	#100,	r15	;#0x0064
    3166:	b0 12 56 34 	call	#0x3456	
    i2c_write_register(0x3E, 0x01, ITG3200_I2CAddress);
    316a:	7d 40 68 00 	mov.b	#104,	r13	;#0x0068
    316e:	5e 43       	mov.b	#1,	r14	;r3 As==01
    3170:	7f 40 3e 00 	mov.b	#62,	r15	;#0x003e
    3174:	b0 12 88 35 	call	#0x3588	
    delayms(100);
    3178:	3f 40 64 00 	mov	#100,	r15	;#0x0064
    317c:	b0 12 56 34 	call	#0x3456	
    i2c_write_register(0x16, 0x18, ITG3200_I2CAddress);
    3180:	7d 40 68 00 	mov.b	#104,	r13	;#0x0068
    3184:	7e 40 18 00 	mov.b	#24,	r14	;#0x0018
    3188:	7f 40 16 00 	mov.b	#22,	r15	;#0x0016
    318c:	b0 12 88 35 	call	#0x3588	
    delayms(100);
    3190:	3f 40 64 00 	mov	#100,	r15	;#0x0064
    3194:	b0 12 56 34 	call	#0x3456	
    i2c_write_register(0x15, 0x00, ITG3200_I2CAddress);
    3198:	7d 40 68 00 	mov.b	#104,	r13	;#0x0068
    319c:	4e 43       	clr.b	r14		
    319e:	7f 40 15 00 	mov.b	#21,	r15	;#0x0015
    31a2:	b0 12 88 35 	call	#0x3588	
    delayms(100);
    31a6:	3f 40 64 00 	mov	#100,	r15	;#0x0064
    31aa:	b0 12 56 34 	call	#0x3456	
    
    // i2c test
    while(1){
        lcd_goto(0,0);
    31ae:	4e 43       	clr.b	r14		
    31b0:	4f 4e       	mov.b	r14,	r15	
    31b2:	b0 12 02 3c 	call	#0x3c02	
        printf("%X\n", UCB0STAT);        
    31b6:	5f 42 6d 00 	mov.b	&0x006d,r15	
    31ba:	0f 12       	push	r15		
    31bc:	30 12 b2 33 	push	#13234		;#0x33b2
    31c0:	b0 12 be 40 	call	#0x40be	
    31c4:	21 52       	add	#4,	r1	;r2 As==10
        delayms(1);
    31c6:	1f 43       	mov	#1,	r15	;r3 As==01
    31c8:	b0 12 56 34 	call	#0x3456	
        
        i2c_read_register(0, &Data, ITG3200_I2CAddress);
    31cc:	7d 40 68 00 	mov.b	#104,	r13	;#0x0068
    31d0:	0e 41       	mov	r1,	r14	
    31d2:	4f 43       	clr.b	r15		
    31d4:	b0 12 4e 35 	call	#0x354e	
        printf("00: %02X\n", Data);
    31d8:	6f 41       	mov.b	@r1,	r15	
    31da:	0f 12       	push	r15		
    31dc:	30 12 b6 33 	push	#13238		;#0x33b6
    31e0:	b0 12 be 40 	call	#0x40be	
    31e4:	21 52       	add	#4,	r1	;r2 As==10
        delayms(I2C_INTERVAL);
    31e6:	1f 43       	mov	#1,	r15	;r3 As==01
    31e8:	b0 12 56 34 	call	#0x3456	
        
        i2c_read_register(21, &Data, ITG3200_I2CAddress);
    31ec:	7d 40 68 00 	mov.b	#104,	r13	;#0x0068
    31f0:	0e 41       	mov	r1,	r14	
    31f2:	7f 40 15 00 	mov.b	#21,	r15	;#0x0015
    31f6:	b0 12 4e 35 	call	#0x354e	
        printf("21: %02X\n", Data);
    31fa:	6f 41       	mov.b	@r1,	r15	
    31fc:	0f 12       	push	r15		
    31fe:	30 12 c0 33 	push	#13248		;#0x33c0
    3202:	b0 12 be 40 	call	#0x40be	
    3206:	21 52       	add	#4,	r1	;r2 As==10
        delayms(I2C_INTERVAL);
    3208:	1f 43       	mov	#1,	r15	;r3 As==01
    320a:	b0 12 56 34 	call	#0x3456	
        
        i2c_read_register(22, &Data, ITG3200_I2CAddress);
    320e:	7d 40 68 00 	mov.b	#104,	r13	;#0x0068
    3212:	0e 41       	mov	r1,	r14	
    3214:	7f 40 16 00 	mov.b	#22,	r15	;#0x0016
    3218:	b0 12 4e 35 	call	#0x354e	
        printf("22: %02X\n", Data);
    321c:	6f 41       	mov.b	@r1,	r15	
    321e:	0f 12       	push	r15		
    3220:	30 12 ca 33 	push	#13258		;#0x33ca
    3224:	b0 12 be 40 	call	#0x40be	
    3228:	21 52       	add	#4,	r1	;r2 As==10
        delayms(I2C_INTERVAL);
    322a:	1f 43       	mov	#1,	r15	;r3 As==01
    322c:	b0 12 56 34 	call	#0x3456	
        
        i2c_read_register(23, &Data, ITG3200_I2CAddress);
    3230:	7d 40 68 00 	mov.b	#104,	r13	;#0x0068
    3234:	0e 41       	mov	r1,	r14	
    3236:	7f 40 17 00 	mov.b	#23,	r15	;#0x0017
    323a:	b0 12 4e 35 	call	#0x354e	
        printf("23: %02X\n", Data);
    323e:	6f 41       	mov.b	@r1,	r15	
    3240:	0f 12       	push	r15		
    3242:	30 12 d4 33 	push	#13268		;#0x33d4
    3246:	b0 12 be 40 	call	#0x40be	
    324a:	21 52       	add	#4,	r1	;r2 As==10
        delayms(I2C_INTERVAL);
    324c:	1f 43       	mov	#1,	r15	;r3 As==01
    324e:	b0 12 56 34 	call	#0x3456	
    
        i2c_read_register(26, &Data, ITG3200_I2CAddress);
    3252:	7d 40 68 00 	mov.b	#104,	r13	;#0x0068
    3256:	0e 41       	mov	r1,	r14	
    3258:	7f 40 1a 00 	mov.b	#26,	r15	;#0x001a
    325c:	b0 12 4e 35 	call	#0x354e	
        printf("26: %02X\n", Data);
    3260:	6f 41       	mov.b	@r1,	r15	
    3262:	0f 12       	push	r15		
    3264:	30 12 de 33 	push	#13278		;#0x33de
    3268:	b0 12 be 40 	call	#0x40be	
    326c:	21 52       	add	#4,	r1	;r2 As==10
        delayms(I2C_INTERVAL);
    326e:	1f 43       	mov	#1,	r15	;r3 As==01
    3270:	b0 12 56 34 	call	#0x3456	
        
        i2c_read_register(27, &Data, ITG3200_I2CAddress);
    3274:	7d 40 68 00 	mov.b	#104,	r13	;#0x0068
    3278:	0e 41       	mov	r1,	r14	
    327a:	7f 40 1b 00 	mov.b	#27,	r15	;#0x001b
    327e:	b0 12 4e 35 	call	#0x354e	
        printf("27: %02X\n", Data);
    3282:	6f 41       	mov.b	@r1,	r15	
    3284:	0f 12       	push	r15		
    3286:	30 12 e8 33 	push	#13288		;#0x33e8
    328a:	b0 12 be 40 	call	#0x40be	
    328e:	21 52       	add	#4,	r1	;r2 As==10
        delayms(I2C_INTERVAL);
    3290:	1f 43       	mov	#1,	r15	;r3 As==01
    3292:	b0 12 56 34 	call	#0x3456	
        
        i2c_read_register(28, &Data, ITG3200_I2CAddress);
    3296:	7d 40 68 00 	mov.b	#104,	r13	;#0x0068
    329a:	0e 41       	mov	r1,	r14	
    329c:	7f 40 1c 00 	mov.b	#28,	r15	;#0x001c
    32a0:	b0 12 4e 35 	call	#0x354e	
        printf("28: %02X\n", Data);
    32a4:	6f 41       	mov.b	@r1,	r15	
    32a6:	0f 12       	push	r15		
    32a8:	30 12 f2 33 	push	#13298		;#0x33f2
    32ac:	b0 12 be 40 	call	#0x40be	
    32b0:	21 52       	add	#4,	r1	;r2 As==10
        delayms(I2C_INTERVAL);
    32b2:	1f 43       	mov	#1,	r15	;r3 As==01
    32b4:	b0 12 56 34 	call	#0x3456	
        
        i2c_read_register(29, &Data, ITG3200_I2CAddress);
    32b8:	7d 40 68 00 	mov.b	#104,	r13	;#0x0068
    32bc:	0e 41       	mov	r1,	r14	
    32be:	7f 40 1d 00 	mov.b	#29,	r15	;#0x001d
    32c2:	b0 12 4e 35 	call	#0x354e	
        printf("29: %02X\n", Data);
    32c6:	6f 41       	mov.b	@r1,	r15	
    32c8:	0f 12       	push	r15		
    32ca:	30 12 fc 33 	push	#13308		;#0x33fc
    32ce:	b0 12 be 40 	call	#0x40be	
    32d2:	21 52       	add	#4,	r1	;r2 As==10
        delayms(I2C_INTERVAL);
    32d4:	1f 43       	mov	#1,	r15	;r3 As==01
    32d6:	b0 12 56 34 	call	#0x3456	
        
        i2c_read_register(30, &Data, ITG3200_I2CAddress);
    32da:	7d 40 68 00 	mov.b	#104,	r13	;#0x0068
    32de:	0e 41       	mov	r1,	r14	
    32e0:	7f 40 1e 00 	mov.b	#30,	r15	;#0x001e
    32e4:	b0 12 4e 35 	call	#0x354e	
        printf("30: %02X\n", Data);
    32e8:	6f 41       	mov.b	@r1,	r15	
    32ea:	0f 12       	push	r15		
    32ec:	30 12 06 34 	push	#13318		;#0x3406
    32f0:	b0 12 be 40 	call	#0x40be	
    32f4:	21 52       	add	#4,	r1	;r2 As==10
        delayms(I2C_INTERVAL);
    32f6:	1f 43       	mov	#1,	r15	;r3 As==01
    32f8:	b0 12 56 34 	call	#0x3456	
        
        i2c_read_register(31, &Data, ITG3200_I2CAddress);
    32fc:	7d 40 68 00 	mov.b	#104,	r13	;#0x0068
    3300:	0e 41       	mov	r1,	r14	
    3302:	7f 40 1f 00 	mov.b	#31,	r15	;#0x001f
    3306:	b0 12 4e 35 	call	#0x354e	
        printf("31: %02X\n", Data);
    330a:	6f 41       	mov.b	@r1,	r15	
    330c:	0f 12       	push	r15		
    330e:	30 12 10 34 	push	#13328		;#0x3410
    3312:	b0 12 be 40 	call	#0x40be	
    3316:	21 52       	add	#4,	r1	;r2 As==10
        delayms(I2C_INTERVAL);
    3318:	1f 43       	mov	#1,	r15	;r3 As==01
    331a:	b0 12 56 34 	call	#0x3456	
        
        i2c_read_register(32, &Data, ITG3200_I2CAddress);
    331e:	7d 40 68 00 	mov.b	#104,	r13	;#0x0068
    3322:	0e 41       	mov	r1,	r14	
    3324:	7f 40 20 00 	mov.b	#32,	r15	;#0x0020
    3328:	b0 12 4e 35 	call	#0x354e	
        printf("32: %02X\n", Data);
    332c:	6f 41       	mov.b	@r1,	r15	
    332e:	0f 12       	push	r15		
    3330:	30 12 1a 34 	push	#13338		;#0x341a
    3334:	b0 12 be 40 	call	#0x40be	
    3338:	21 52       	add	#4,	r1	;r2 As==10
        delayms(I2C_INTERVAL);
    333a:	1f 43       	mov	#1,	r15	;r3 As==01
    333c:	b0 12 56 34 	call	#0x3456	
        
        i2c_read_register(33, &Data, ITG3200_I2CAddress);
    3340:	7d 40 68 00 	mov.b	#104,	r13	;#0x0068
    3344:	0e 41       	mov	r1,	r14	
    3346:	7f 40 21 00 	mov.b	#33,	r15	;#0x0021
    334a:	b0 12 4e 35 	call	#0x354e	
        printf("33: %02X\n", Data);
    334e:	6f 41       	mov.b	@r1,	r15	
    3350:	0f 12       	push	r15		
    3352:	30 12 24 34 	push	#13348		;#0x3424
    3356:	b0 12 be 40 	call	#0x40be	
    335a:	21 52       	add	#4,	r1	;r2 As==10
        delayms(I2C_INTERVAL);
    335c:	1f 43       	mov	#1,	r15	;r3 As==01
    335e:	b0 12 56 34 	call	#0x3456	
        
        i2c_read_register(34, &Data, ITG3200_I2CAddress);
    3362:	7d 40 68 00 	mov.b	#104,	r13	;#0x0068
    3366:	0e 41       	mov	r1,	r14	
    3368:	7f 40 22 00 	mov.b	#34,	r15	;#0x0022
    336c:	b0 12 4e 35 	call	#0x354e	
        printf("34: %02X\n", Data);
    3370:	6f 41       	mov.b	@r1,	r15	
    3372:	0f 12       	push	r15		
    3374:	30 12 2e 34 	push	#13358		;#0x342e
    3378:	b0 12 be 40 	call	#0x40be	
    337c:	21 52       	add	#4,	r1	;r2 As==10
        delayms(I2C_INTERVAL);
    337e:	1f 43       	mov	#1,	r15	;r3 As==01
    3380:	b0 12 56 34 	call	#0x3456	
        
        i2c_read_register(62, &Data, ITG3200_I2CAddress);
    3384:	7d 40 68 00 	mov.b	#104,	r13	;#0x0068
    3388:	0e 41       	mov	r1,	r14	
    338a:	7f 40 3e 00 	mov.b	#62,	r15	;#0x003e
    338e:	b0 12 4e 35 	call	#0x354e	
        printf("62: %02X\n", Data);
    3392:	6f 41       	mov.b	@r1,	r15	
    3394:	0f 12       	push	r15		
    3396:	30 12 38 34 	push	#13368		;#0x3438
    339a:	b0 12 be 40 	call	#0x40be	
    339e:	21 52       	add	#4,	r1	;r2 As==10
        delayms(I2C_INTERVAL);
    33a0:	1f 43       	mov	#1,	r15	;r3 As==01
    33a2:	b0 12 56 34 	call	#0x3456	
    33a6:	03 3f       	jmp	$-504    	;abs 0x31ae

000033a8 <__stop_progExec__>:
    33a8:	32 d0 f0 00 	bis	#240,	r2	;#0x00f0
    33ac:	fd 3f       	jmp	$-4      	;abs 0x33a8

000033ae <__ctors_end>:
    33ae:	30 40 d0 45 	br	#0x45d0	
    33b2:	25 58       	add	@r8,	r5	
    33b4:	0a 00       	mova	@r0,	r10	
    33b6:	30 30       	jn	$+98     	;abs 0x3418
    33b8:	3a 20       	jnz	$+118    	;abs 0x342e
    33ba:	25 30       	jn	$+76     	;abs 0x3406
    33bc:	32 58       	add	@r8+,	r2	
    33be:	0a 00       	mova	@r0,	r10	
    33c0:	32 31       	jn	$+614    	;abs 0x3626
    33c2:	3a 20       	jnz	$+118    	;abs 0x3438
    33c4:	25 30       	jn	$+76     	;abs 0x3410
    33c6:	32 58       	add	@r8+,	r2	
    33c8:	0a 00       	mova	@r0,	r10	
    33ca:	32 32       	jn	$-922    	;abs 0x3030
    33cc:	3a 20       	jnz	$+118    	;abs 0x3442
    33ce:	25 30       	jn	$+76     	;abs 0x341a
    33d0:	32 58       	add	@r8+,	r2	
    33d2:	0a 00       	mova	@r0,	r10	
    33d4:	32 33       	jn	$-410    	;abs 0x323a
    33d6:	3a 20       	jnz	$+118    	;abs 0x344c
    33d8:	25 30       	jn	$+76     	;abs 0x3424
    33da:	32 58       	add	@r8+,	r2	
    33dc:	0a 00       	mova	@r0,	r10	
    33de:	32 36       	jge	$-922    	;abs 0x3044
    33e0:	3a 20       	jnz	$+118    	;abs 0x3456
    33e2:	25 30       	jn	$+76     	;abs 0x342e
    33e4:	32 58       	add	@r8+,	r2	
    33e6:	0a 00       	mova	@r0,	r10	
    33e8:	32 37       	jge	$-410    	;abs 0x324e
    33ea:	3a 20       	jnz	$+118    	;abs 0x3460
    33ec:	25 30       	jn	$+76     	;abs 0x3438
    33ee:	32 58       	add	@r8+,	r2	
    33f0:	0a 00       	mova	@r0,	r10	
    33f2:	32 38       	jl	$+102    	;abs 0x3458
    33f4:	3a 20       	jnz	$+118    	;abs 0x346a
    33f6:	25 30       	jn	$+76     	;abs 0x3442
    33f8:	32 58       	add	@r8+,	r2	
    33fa:	0a 00       	mova	@r0,	r10	
    33fc:	32 39       	jl	$+614    	;abs 0x3662
    33fe:	3a 20       	jnz	$+118    	;abs 0x3474
    3400:	25 30       	jn	$+76     	;abs 0x344c
    3402:	32 58       	add	@r8+,	r2	
    3404:	0a 00       	mova	@r0,	r10	
    3406:	33 30       	jn	$+104    	;abs 0x346e
    3408:	3a 20       	jnz	$+118    	;abs 0x347e
    340a:	25 30       	jn	$+76     	;abs 0x3456
    340c:	32 58       	add	@r8+,	r2	
    340e:	0a 00       	mova	@r0,	r10	
    3410:	33 31       	jn	$+616    	;abs 0x3678
    3412:	3a 20       	jnz	$+118    	;abs 0x3488
    3414:	25 30       	jn	$+76     	;abs 0x3460
    3416:	32 58       	add	@r8+,	r2	
    3418:	0a 00       	mova	@r0,	r10	
    341a:	33 32       	jn	$-920    	;abs 0x3082
    341c:	3a 20       	jnz	$+118    	;abs 0x3492
    341e:	25 30       	jn	$+76     	;abs 0x346a
    3420:	32 58       	add	@r8+,	r2	
    3422:	0a 00       	mova	@r0,	r10	
    3424:	33 33       	jn	$-408    	;abs 0x328c
    3426:	3a 20       	jnz	$+118    	;abs 0x349c
    3428:	25 30       	jn	$+76     	;abs 0x3474
    342a:	32 58       	add	@r8+,	r2	
    342c:	0a 00       	mova	@r0,	r10	
    342e:	33 34       	jge	$+104    	;abs 0x3496
    3430:	3a 20       	jnz	$+118    	;abs 0x34a6
    3432:	25 30       	jn	$+76     	;abs 0x347e
    3434:	32 58       	add	@r8+,	r2	
    3436:	0a 00       	mova	@r0,	r10	
    3438:	36 32       	jn	$-914    	;abs 0x30a6
    343a:	3a 20       	jnz	$+118    	;abs 0x34b0
    343c:	25 30       	jn	$+76     	;abs 0x3488
    343e:	32 58       	add	@r8+,	r2	
    3440:	0a 00       	mova	@r0,	r10	

00003442 <delay2us>:
{
  unsigned int tempo = 6;

  do (tempo--);
  while (tempo != 0);
}
    3442:	30 41       	ret			

00003444 <delay5us>:
{
  unsigned int tempo = 17;

  do (tempo--);
  while (tempo != 0);
}
    3444:	30 41       	ret			

00003446 <delayus>:
//
void delayus(unsigned int tempo)
{
  int i;

  for(i = 0; i < tempo; i++) nop();
    3446:	0f 93       	tst	r15		
    3448:	05 24       	jz	$+12     	;abs 0x3454
    344a:	0e 43       	clr	r14		
    344c:	03 43       	nop			
    344e:	1e 53       	inc	r14		
    3450:	0e 9f       	cmp	r15,	r14	
    3452:	fc 2b       	jnc	$-6      	;abs 0x344c
    3454:	30 41       	ret			

00003456 <delayms>:
}

// Aproximadamente 1ms...
//
void delayms(unsigned int tempo)
{
    3456:	0b 12       	push	r11		
    3458:	0a 12       	push	r10		
    345a:	0a 4f       	mov	r15,	r10	
  int i;

  for(i = 0; i < tempo; i++) delayus(3420);
    345c:	0f 93       	tst	r15		
    345e:	08 24       	jz	$+18     	;abs 0x3470
    3460:	0b 43       	clr	r11		
    3462:	3f 40 5c 0d 	mov	#3420,	r15	;#0x0d5c
    3466:	b0 12 46 34 	call	#0x3446	
    346a:	1b 53       	inc	r11		
    346c:	0b 9a       	cmp	r10,	r11	
    346e:	f9 2b       	jnc	$-12     	;abs 0x3462
}
    3470:	3a 41       	pop	r10		
    3472:	3b 41       	pop	r11		
    3474:	30 41       	ret			

00003476 <i2c_init_module>:

// inicializa I2C na UCB0
// P3.2 e P3.1
I2C_STATUS i2c_init_module(void){   
    // desable i2c module
    UCB0CTL1 = UCSWRST;
    3476:	d2 43 69 00 	mov.b	#1,	&0x0069	;r3 As==01
#ifdef I2C_LOW_SPEED // 10k
    UCB0BR0 = 0x40;
    UCB0BR1 = 0x06;
#else
 #ifdef I2C_HIGH_SPEED // 400k
    UCB0BR0 = 0xA0;
    347a:	f2 40 a0 ff 	mov.b	#-96,	&0x006a	;#0xffa0
    347e:	6a 00 
    UCB0BR1 = 0x00;
    3480:	c2 43 6b 00 	mov.b	#0,	&0x006b	;r3 As==00
    UCB0BR0 = 0x28
    UCB0BR1 = 0x00;
 #endif
#endif
    // I2CMODE
    UCB0CTL1 |= UCSSEL1;
    3484:	f2 d0 80 ff 	bis.b	#-128,	&0x0069	;#0xff80
    3488:	69 00 
    // clock MSCLK
    UCB0CTL0 = UCMST + UCMODE_3 + UCSYNC;    
    348a:	f2 40 0f 00 	mov.b	#15,	&0x0068	;#0x000f
    348e:	68 00 
    // config ports
    I2C_PORTS_CFG();
    3490:	f2 d0 06 00 	bis.b	#6,	&0x001b	;#0x0006
    3494:	1b 00 
    // libera o reset
    UCB0CTL1 &= ~UCSWRST;
    3496:	f2 f0 fe ff 	and.b	#-2,	&0x0069	;#0xfffe
    349a:	69 00 

    if(I2C_IS_BUSY()){
    349c:	5f 42 6d 00 	mov.b	&0x006d,r15	
    34a0:	3f f0 10 00 	and	#16,	r15	;#0x0010
    34a4:	0a 24       	jz	$+22     	;abs 0x34ba
        I2C_SET_SLAVE_ADDR(0);
    34a6:	82 43 1a 01 	mov	#0,	&0x011a	;r3 As==00
        I2C_START_TRANSMIT();
    34aa:	f2 d0 12 00 	bis.b	#18,	&0x0069	;#0x0012
    34ae:	69 00 
        I2C_GENERATE_NACK();
    34b0:	f2 d2 69 00 	bis.b	#8,	&0x0069	;r2 As==11
        I2C_GENERATE_STOP();
    34b4:	f2 d0 14 00 	bis.b	#20,	&0x0069	;#0x0014
    34b8:	69 00 
    I2C_START_TRANSMIT();
    I2C_GENERATE_STOP();
#endif // __I2C_TEST

    return I2C_STAT_DONE;
}
    34ba:	3f 40 03 00 	mov	#3,	r15	;#0x0003
    34be:	30 41       	ret			

000034c0 <i2c_find_address>:

I2C_STATUS i2c_find_address(unsigned char SlaveAddress){
    // seta slave address
    I2C_SET_SLAVE_ADDR(SlaveAddress);
    34c0:	4f 4f       	mov.b	r15,	r15	
    34c2:	82 4f 1a 01 	mov	r15,	&0x011a	
    // start condition + slave address
    I2C_START_TRANSMIT();
    34c6:	f2 d0 12 00 	bis.b	#18,	&0x0069	;#0x0012
    34ca:	69 00 
    I2C_GENERATE_STOP();
    34cc:	f2 d0 14 00 	bis.b	#20,	&0x0069	;#0x0014
    34d0:	69 00 
    // se deu ack
    if(I2C_GET_NACK()){
    34d2:	5f 42 6d 00 	mov.b	&0x006d,r15	
    34d6:	3f f2       	and	#8,	r15	;r2 As==11
    34d8:	03 20       	jnz	$+8      	;abs 0x34e0
        return I2C_STAT_NOT_FOUND;
    }
    return I2C_STAT_FOUND;
    34da:	3f 40 06 00 	mov	#6,	r15	;#0x0006
}
    34de:	30 41       	ret			
    // start condition + slave address
    I2C_START_TRANSMIT();
    I2C_GENERATE_STOP();
    // se deu ack
    if(I2C_GET_NACK()){
        return I2C_STAT_NOT_FOUND;
    34e0:	3f 40 07 00 	mov	#7,	r15	;#0x0007
    34e4:	30 41       	ret			

000034e6 <i2c_read_byte>:

    return Result;
}

I2C_STATUS i2c_read_byte(unsigned char SendNack, unsigned char SendStop, unsigned char* Data){
    while(!I2C_GET_TXIFG());
    34e6:	5c 42 03 00 	mov.b	&0x0003,r12	
    34ea:	3c f2       	and	#8,	r12	;r2 As==11
    34ec:	fc 27       	jz	$-6      	;abs 0x34e6
    while(!I2C_GET_RXIFG());
    34ee:	5c 42 03 00 	mov.b	&0x0003,r12	
    34f2:	2c f2       	and	#4,	r12	;r2 As==10
    34f4:	fc 27       	jz	$-6      	;abs 0x34ee
    *Data = UCB0RXBUF;
    34f6:	dd 42 6e 00 	mov.b	&0x006e,0(r13)	;0x0000(r13)
    34fa:	00 00 
    if(SendNack){
    34fc:	4f 93       	tst.b	r15		
    34fe:	08 20       	jnz	$+18     	;abs 0x3510
        I2C_GENERATE_NACK();
    }
    if(SendStop){
    3500:	4e 93       	tst.b	r14		
    3502:	03 24       	jz	$+8      	;abs 0x350a
        I2C_GENERATE_STOP();
    3504:	f2 d0 14 00 	bis.b	#20,	&0x0069	;#0x0014
    3508:	69 00 
    }
    return I2C_STAT_DONE;
}
    350a:	3f 40 03 00 	mov	#3,	r15	;#0x0003
    350e:	30 41       	ret			
I2C_STATUS i2c_read_byte(unsigned char SendNack, unsigned char SendStop, unsigned char* Data){
    while(!I2C_GET_TXIFG());
    while(!I2C_GET_RXIFG());
    *Data = UCB0RXBUF;
    if(SendNack){
        I2C_GENERATE_NACK();
    3510:	f2 d2 69 00 	bis.b	#8,	&0x0069	;r2 As==11
    3514:	f5 3f       	jmp	$-20     	;abs 0x3500

00003516 <i2c_write_byte>:
    }
    return I2C_STAT_DONE;
}

I2C_STATUS i2c_write_byte(unsigned char SendStop, unsigned char Data){
    while(!I2C_GET_TXIFG());
    3516:	5d 42 03 00 	mov.b	&0x0003,r13	
    351a:	3d f2       	and	#8,	r13	;r2 As==11
    351c:	fc 27       	jz	$-6      	;abs 0x3516
    UCB0TXBUF = Data;
    351e:	c2 4e 6f 00 	mov.b	r14,	&0x006f	
    while(!I2C_GET_TXIFG());
    3522:	5e 42 03 00 	mov.b	&0x0003,r14	
    3526:	3e f2       	and	#8,	r14	;r2 As==11
    3528:	fc 27       	jz	$-6      	;abs 0x3522
    if(I2C_GET_NACK()){
    352a:	5e 42 6d 00 	mov.b	&0x006d,r14	
    352e:	3e f2       	and	#8,	r14	;r2 As==11
    3530:	0b 20       	jnz	$+24     	;abs 0x3548
        return I2C_STAT_DATA_NACK;
    }

    if(SendStop){
    3532:	4f 93       	tst.b	r15		
    3534:	06 24       	jz	$+14     	;abs 0x3542
        I2C_GENERATE_STOP();
    3536:	f2 d0 14 00 	bis.b	#20,	&0x0069	;#0x0014
    353a:	69 00 
    }
    return I2C_STAT_DONE;
    353c:	3f 40 03 00 	mov	#3,	r15	;#0x0003
    3540:	30 41       	ret			
    3542:	3f 40 03 00 	mov	#3,	r15	;#0x0003
}
    3546:	30 41       	ret			
I2C_STATUS i2c_write_byte(unsigned char SendStop, unsigned char Data){
    while(!I2C_GET_TXIFG());
    UCB0TXBUF = Data;
    while(!I2C_GET_TXIFG());
    if(I2C_GET_NACK()){
        return I2C_STAT_DATA_NACK;
    3548:	3f 40 0c 00 	mov	#12,	r15	;#0x000c
    354c:	30 41       	ret			

0000354e <i2c_read_register>:
    }

    return Result;
}

I2C_STATUS i2c_read_register(unsigned char Register, unsigned char *Data, unsigned char SlaveAddress){
    354e:	0b 12       	push	r11		
    3550:	0b 4e       	mov	r14,	r11	
    I2C_STATUS Result = I2C_STAT_NONE;
    
    // set slave address
    I2C_SET_SLAVE_ADDR(SlaveAddress);
    3552:	4c 4d       	mov.b	r13,	r12	
    3554:	82 4c 1a 01 	mov	r12,	&0x011a	
    
    // send address + write
    I2C_START_TRANSMIT();
    3558:	f2 d0 12 00 	bis.b	#18,	&0x0069	;#0x0012
    355c:	69 00 
    
    // write register
    Result = i2c_write_byte( 0, Register);
    355e:	4e 4f       	mov.b	r15,	r14	
    3560:	4f 43       	clr.b	r15		
    3562:	b0 12 16 35 	call	#0x3516	
    
    // if wrote register ok
    if(Result == I2C_STAT_DONE){
    3566:	3f 90 03 00 	cmp	#3,	r15	;#0x0003
    356a:	02 24       	jz	$+6      	;abs 0x3570
        // read one byte send nack and stop
        Result = i2c_read_byte(1, 1, Data);
    }

    return Result;
}
    356c:	3b 41       	pop	r11		
    356e:	30 41       	ret			
    Result = i2c_write_byte( 0, Register);
    
    // if wrote register ok
    if(Result == I2C_STAT_DONE){
        // send address + read
        I2C_START_RECEIVE();
    3570:	f2 f0 ef ff 	and.b	#-17,	&0x0069	;#0xffef
    3574:	69 00 
    3576:	e2 d3 69 00 	bis.b	#2,	&0x0069	;r3 As==10
        
        // read one byte send nack and stop
        Result = i2c_read_byte(1, 1, Data);
    357a:	0d 4b       	mov	r11,	r13	
    357c:	5e 43       	mov.b	#1,	r14	;r3 As==01
    357e:	4f 4e       	mov.b	r14,	r15	
    3580:	b0 12 e6 34 	call	#0x34e6	
    }

    return Result;
}
    3584:	3b 41       	pop	r11		
    3586:	30 41       	ret			

00003588 <i2c_write_register>:
        return I2C_STAT_NOT_FOUND;
    }
    return I2C_STAT_FOUND;
}

I2C_STATUS i2c_write_register(unsigned char Register, unsigned char Data, unsigned char SlaveAddress){
    3588:	0b 12       	push	r11		
    358a:	4b 4e       	mov.b	r14,	r11	
    I2C_STATUS Result = I2C_STAT_NONE;
    I2C_SET_SLAVE_ADDR(SlaveAddress);
    358c:	4d 4d       	mov.b	r13,	r13	
    358e:	82 4d 1a 01 	mov	r13,	&0x011a	
    I2C_START_TRANSMIT();
    3592:	f2 d0 12 00 	bis.b	#18,	&0x0069	;#0x0012
    3596:	69 00 
    Result = i2c_write_byte(0, Register);
    3598:	4e 4f       	mov.b	r15,	r14	
    359a:	4f 43       	clr.b	r15		
    359c:	b0 12 16 35 	call	#0x3516	
    if(Result == I2C_STAT_DONE){
    35a0:	3f 90 03 00 	cmp	#3,	r15	;#0x0003
    35a4:	02 24       	jz	$+6      	;abs 0x35aa
        Result = i2c_write_byte(1, Data);
    }

    return Result;
}
    35a6:	3b 41       	pop	r11		
    35a8:	30 41       	ret			
    I2C_STATUS Result = I2C_STAT_NONE;
    I2C_SET_SLAVE_ADDR(SlaveAddress);
    I2C_START_TRANSMIT();
    Result = i2c_write_byte(0, Register);
    if(Result == I2C_STAT_DONE){
        Result = i2c_write_byte(1, Data);
    35aa:	4e 4b       	mov.b	r11,	r14	
    35ac:	5f 43       	mov.b	#1,	r15	;r3 As==01
    35ae:	b0 12 16 35 	call	#0x3516	
    }

    return Result;
}
    35b2:	3b 41       	pop	r11		
    35b4:	30 41       	ret			

000035b6 <lcd_setcolor>:
    return 0;
}
                         
void lcd_setcolor(unsigned char foreground_color, unsigned char background_color)
{
    LCDBackColor = background_color;
    35b6:	c2 4e 00 11 	mov.b	r14,	&0x1100	
    LCDForeColor = foreground_color;
    35ba:	c2 4f 06 11 	mov.b	r15,	&0x1106	
}
    35be:	30 41       	ret			

000035c0 <n6100_send>:
    cmd = 1 writedata without stop
    cmd = 2 writecommand with stop
    cmd = 3 writecommand without stop
*/
void n6100_send(unsigned char data, unsigned char cmd)
{
    35c0:	0b 12       	push	r11		
    unsigned char mask = 0x80;
    unsigned char i;
    
    if(cmd > 1){ 
    35c2:	6e 93       	cmp.b	#2,	r14	;r3 As==10
    35c4:	2d 28       	jnc	$+92     	;abs 0x3620
        P5OUT &= ~SDA; // comando
    35c6:	f2 f0 fd ff 	and.b	#-3,	&0x0031	;#0xfffd
    35ca:	31 00 
    }
    else{
        P5OUT |= SDA; // dado
    }
    
    P5OUT &= ~CSX;
    35cc:	f2 f0 fe ff 	and.b	#-2,	&0x0031	;#0xfffe
    35d0:	31 00 
    P5OUT |= SCLK;
    35d2:	f2 d2 31 00 	bis.b	#8,	&0x0031	;r2 As==11
    P5OUT &= ~SCLK;
    35d6:	f2 f0 f7 ff 	and.b	#-9,	&0x0031	;#0xfff7
    35da:	31 00 
    35dc:	7d 42       	mov.b	#8,	r13	;r2 As==11
    cmd = 2 writecommand with stop
    cmd = 3 writecommand without stop
*/
void n6100_send(unsigned char data, unsigned char cmd)
{
    unsigned char mask = 0x80;
    35de:	7c 40 80 ff 	mov.b	#-128,	r12	;#0xff80
    35e2:	0b 3c       	jmp	$+24     	;abs 0x35fa
    P5OUT |= SCLK;
    P5OUT &= ~SCLK;
    
    for (i=0; i<8; i++){
        if(data & mask){
            P5OUT |= SDA; 
    35e4:	e2 d3 31 00 	bis.b	#2,	&0x0031	;r3 As==10
        }
        else{
            P5OUT &= ~SDA;
        }
        P5OUT |= SCLK;
    35e8:	f2 d2 31 00 	bis.b	#8,	&0x0031	;r2 As==11
        P5OUT &= ~SCLK;
    35ec:	f2 f0 f7 ff 	and.b	#-9,	&0x0031	;#0xfff7
    35f0:	31 00 
    35f2:	7d 53       	add.b	#-1,	r13	;r3 As==11
    
    P5OUT &= ~CSX;
    P5OUT |= SCLK;
    P5OUT &= ~SCLK;
    
    for (i=0; i<8; i++){
    35f4:	09 24       	jz	$+20     	;abs 0x3608
        else{
            P5OUT &= ~SDA;
        }
        P5OUT |= SCLK;
        P5OUT &= ~SCLK;
        mask >>= 1;
    35f6:	12 c3       	clrc			
    35f8:	4c 10       	rrc.b	r12		
    P5OUT &= ~CSX;
    P5OUT |= SCLK;
    P5OUT &= ~SCLK;
    
    for (i=0; i<8; i++){
        if(data & mask){
    35fa:	4b 4c       	mov.b	r12,	r11	
    35fc:	4b ff       	and.b	r15,	r11	
    35fe:	f2 23       	jnz	$-26     	;abs 0x35e4
            P5OUT |= SDA; 
        }
        else{
            P5OUT &= ~SDA;
    3600:	f2 f0 fd ff 	and.b	#-3,	&0x0031	;#0xfffd
    3604:	31 00 
    3606:	f0 3f       	jmp	$-30     	;abs 0x35e8
        P5OUT |= SCLK;
        P5OUT &= ~SCLK;
        mask >>= 1;
    }
    
    if(cmd == 1 || cmd == 3)
    3608:	5e 93       	cmp.b	#1,	r14	;r3 As==01
    360a:	08 24       	jz	$+18     	;abs 0x361c
    360c:	7e 90 03 00 	cmp.b	#3,	r14	;#0x0003
    3610:	05 24       	jz	$+12     	;abs 0x361c
        return;
        
    P5OUT &= ~SDA;
    3612:	f2 f0 fd ff 	and.b	#-3,	&0x0031	;#0xfffd
    3616:	31 00 
    P5OUT |= CSX;
    3618:	d2 d3 31 00 	bis.b	#1,	&0x0031	;r3 As==01
}
    361c:	3b 41       	pop	r11		
    361e:	30 41       	ret			
    
    if(cmd > 1){ 
        P5OUT &= ~SDA; // comando
    }
    else{
        P5OUT |= SDA; // dado
    3620:	e2 d3 31 00 	bis.b	#2,	&0x0031	;r3 As==10
    3624:	d3 3f       	jmp	$-88     	;abs 0x35cc

00003626 <n6100_sendcom1>:
{
  lcd_fillrect(0, 0, 132, 132, color);
}

void n6100_sendcom1(unsigned char comm, unsigned char dat)
{
    3626:	0b 12       	push	r11		
    3628:	4b 4e       	mov.b	r14,	r11	
    n6100_send(comm, 3);
    362a:	7e 40 03 00 	mov.b	#3,	r14	;#0x0003
    362e:	b0 12 c0 35 	call	#0x35c0	
    n6100_send(dat, 0);
    3632:	4e 43       	clr.b	r14		
    3634:	4f 4b       	mov.b	r11,	r15	
    3636:	b0 12 c0 35 	call	#0x35c0	
}
    363a:	3b 41       	pop	r11		
    363c:	30 41       	ret			

0000363e <n6100_sendcom2>:

void n6100_sendcom2(unsigned char comm, unsigned char dat1, unsigned char dat2)
{
    363e:	0b 12       	push	r11		
    3640:	0a 12       	push	r10		
    3642:	4a 4e       	mov.b	r14,	r10	
    3644:	4b 4d       	mov.b	r13,	r11	
    n6100_send(comm, 3);
    3646:	7e 40 03 00 	mov.b	#3,	r14	;#0x0003
    364a:	b0 12 c0 35 	call	#0x35c0	
    n6100_send(dat1, 1);
    364e:	5e 43       	mov.b	#1,	r14	;r3 As==01
    3650:	4f 4a       	mov.b	r10,	r15	
    3652:	b0 12 c0 35 	call	#0x35c0	
    n6100_send(dat2, 0);
    3656:	4e 43       	clr.b	r14		
    3658:	4f 4b       	mov.b	r11,	r15	
    365a:	b0 12 c0 35 	call	#0x35c0	
}
    365e:	3a 41       	pop	r10		
    3660:	3b 41       	pop	r11		
    3662:	30 41       	ret			

00003664 <lcd_fillrect>:

void lcd_fillrect(unsigned char x, unsigned char y, unsigned char lx, unsigned char ly, unsigned char color)
{
    3664:	0b 12       	push	r11		
    3666:	0a 12       	push	r10		
    3668:	09 12       	push	r9		
    366a:	08 12       	push	r8		
    366c:	48 4e       	mov.b	r14,	r8	
    366e:	4b 4d       	mov.b	r13,	r11	
    3670:	4a 4c       	mov.b	r12,	r10	
    3672:	59 41 0a 00 	mov.b	10(r1),	r9	;0x000a(r1)
    unsigned int addr, max;
    
    n6100_sendcom2(0x2a, x, x+lx-1);
    3676:	4d 4f       	mov.b	r15,	r13	
    3678:	7d 53       	add.b	#-1,	r13	;r3 As==11
    367a:	4d 5b       	add.b	r11,	r13	
    367c:	4e 4f       	mov.b	r15,	r14	
    367e:	7f 40 2a 00 	mov.b	#42,	r15	;#0x002a
    3682:	b0 12 3e 36 	call	#0x363e	
    n6100_sendcom2(0x2b, y, y+ly-1);
    3686:	4d 48       	mov.b	r8,	r13	
    3688:	7d 53       	add.b	#-1,	r13	;r3 As==11
    368a:	4d 5a       	add.b	r10,	r13	
    368c:	4e 48       	mov.b	r8,	r14	
    368e:	7f 40 2b 00 	mov.b	#43,	r15	;#0x002b
    3692:	b0 12 3e 36 	call	#0x363e	
    
    n6100_send(0x2c, 3);
    3696:	7e 40 03 00 	mov.b	#3,	r14	;#0x0003
    369a:	7f 40 2c 00 	mov.b	#44,	r15	;#0x002c
    369e:	b0 12 c0 35 	call	#0x35c0	
    
    max = lx*ly;
    36a2:	02 12       	push	r2		
    36a4:	32 c2       	dint			
    36a6:	03 43       	nop			
    36a8:	c2 4a 30 01 	mov.b	r10,	&0x0130	
    36ac:	c2 4b 38 01 	mov.b	r11,	&0x0138	
    36b0:	1a 42 3a 01 	mov	&0x013a,r10	
    36b4:	32 41       	pop	r2		
    for(addr=0; addr<max; addr++)
    36b6:	0a 93       	tst	r10		
    36b8:	08 24       	jz	$+18     	;abs 0x36ca
    36ba:	0b 43       	clr	r11		
    {
      n6100_send(color, 1);
    36bc:	5e 43       	mov.b	#1,	r14	;r3 As==01
    36be:	4f 49       	mov.b	r9,	r15	
    36c0:	b0 12 c0 35 	call	#0x35c0	
    n6100_sendcom2(0x2b, y, y+ly-1);
    
    n6100_send(0x2c, 3);
    
    max = lx*ly;
    for(addr=0; addr<max; addr++)
    36c4:	1b 53       	inc	r11		
    36c6:	0b 9a       	cmp	r10,	r11	
    36c8:	f9 2b       	jnc	$-12     	;abs 0x36bc
    {
      n6100_send(color, 1);
    }
    
    P5OUT &= ~SDA;
    36ca:	f2 f0 fd ff 	and.b	#-3,	&0x0031	;#0xfffd
    36ce:	31 00 
    P5OUT |= CSX;
    36d0:	d2 d3 31 00 	bis.b	#1,	&0x0031	;r3 As==01
    
    n6100_sendcom2(0x2a, 0, 0x83);
    36d4:	7d 40 83 ff 	mov.b	#-125,	r13	;#0xff83
    36d8:	4e 43       	clr.b	r14		
    36da:	7f 40 2a 00 	mov.b	#42,	r15	;#0x002a
    36de:	b0 12 3e 36 	call	#0x363e	
    n6100_sendcom2(0x2b, 0, 0x83);
    36e2:	7d 40 83 ff 	mov.b	#-125,	r13	;#0xff83
    36e6:	4e 43       	clr.b	r14		
    36e8:	7f 40 2b 00 	mov.b	#43,	r15	;#0x002b
    36ec:	b0 12 3e 36 	call	#0x363e	
}
    36f0:	38 41       	pop	r8		
    36f2:	39 41       	pop	r9		
    36f4:	3a 41       	pop	r10		
    36f6:	3b 41       	pop	r11		
    36f8:	30 41       	ret			

000036fa <lcd_clear>:
  //delayms(4000);
}

void lcd_clear(unsigned char color) 
{
  lcd_fillrect(0, 0, 132, 132, color);
    36fa:	4f 12       	push.b	r15		
    36fc:	7c 40 84 ff 	mov.b	#-124,	r12	;#0xff84
    3700:	4d 4c       	mov.b	r12,	r13	
    3702:	4e 43       	clr.b	r14		
    3704:	4f 4e       	mov.b	r14,	r15	
    3706:	b0 12 64 36 	call	#0x3664	
    370a:	21 53       	incd	r1		
}
    370c:	30 41       	ret			

0000370e <lcd_init>:
    P5OUT &= ~SDA;
    P5OUT |= CSX;
}

void lcd_init(unsigned char color)
{
    370e:	0b 12       	push	r11		
    3710:	0a 12       	push	r10		
    3712:	09 12       	push	r9		
    3714:	08 12       	push	r8		
    3716:	07 12       	push	r7		
    3718:	06 12       	push	r6		
    371a:	05 12       	push	r5		
    371c:	45 4f       	mov.b	r15,	r5	
    P5DIR |= CSX + SDA + SCLK + RESX;
    371e:	f2 d0 0f 00 	bis.b	#15,	&0x0032	;#0x000f
    3722:	32 00 
    
  P5OUT |= CSX;
    3724:	d2 d3 31 00 	bis.b	#1,	&0x0031	;r3 As==01
  P5OUT &= ~SDA;
    3728:	f2 f0 fd ff 	and.b	#-3,	&0x0031	;#0xfffd
    372c:	31 00 
  P5OUT &= ~SCLK;
    372e:	f2 f0 f7 ff 	and.b	#-9,	&0x0031	;#0xfff7
    3732:	31 00 

  P5OUT &= ~RESX;
    3734:	f2 f0 fb ff 	and.b	#-5,	&0x0031	;#0xfffb
    3738:	31 00 
  delayms(20);
    373a:	3b 40 14 00 	mov	#20,	r11	;#0x0014
    373e:	0f 4b       	mov	r11,	r15	
    3740:	b0 12 56 34 	call	#0x3456	
  P5OUT |= RESX;
    3744:	e2 d2 31 00 	bis.b	#4,	&0x0031	;r2 As==10
  delayms(20);
    3748:	0f 4b       	mov	r11,	r15	
    374a:	b0 12 56 34 	call	#0x3456	

  // Sleep out...
  n6100_send(0x11,2);   
    374e:	6e 43       	mov.b	#2,	r14	;r3 As==10
    3750:	7f 40 11 00 	mov.b	#17,	r15	;#0x0011
    3754:	b0 12 c0 35 	call	#0x35c0	
  // Ajusta o contraste...
  n6100_sendcom1(0x25, 0x40);
    3758:	7e 40 40 00 	mov.b	#64,	r14	;#0x0040
    375c:	7f 40 25 00 	mov.b	#37,	r15	;#0x0025
    3760:	b0 12 26 36 	call	#0x3626	
  // Liga o display e o booster...    
  n6100_send(0x29,2);
    3764:	6e 43       	mov.b	#2,	r14	;r3 As==10
    3766:	7f 40 29 00 	mov.b	#41,	r15	;#0x0029
    376a:	b0 12 c0 35 	call	#0x35c0	
  n6100_send(0x03,2);
    376e:	6e 43       	mov.b	#2,	r14	;r3 As==10
    3770:	7f 40 03 00 	mov.b	#3,	r15	;#0x0003
    3774:	b0 12 c0 35 	call	#0x35c0	
  delayms(10);  
    3778:	3f 40 0a 00 	mov	#10,	r15	;#0x000a
    377c:	b0 12 56 34 	call	#0x3456	
    
  // Color Format... (8bits/pixel)
  n6100_sendcom1(0x3a, 0x02);
    3780:	6e 43       	mov.b	#2,	r14	;r3 As==10
    3782:	7f 40 3a 00 	mov.b	#58,	r15	;#0x003a
    3786:	b0 12 26 36 	call	#0x3626	
  // Inicializa a tabela de cores 8bits/pixel
  n6100_send(0x2d,2);
    378a:	6e 43       	mov.b	#2,	r14	;r3 As==10
    378c:	7f 40 2d 00 	mov.b	#45,	r15	;#0x002d
    3790:	b0 12 c0 35 	call	#0x35c0	
  // red
  n6100_send(0x00,0);
    3794:	4e 43       	clr.b	r14		
    3796:	4f 4e       	mov.b	r14,	r15	
    3798:	b0 12 c0 35 	call	#0x35c0	
  n6100_send(0x02,0);
    379c:	4e 43       	clr.b	r14		
    379e:	6f 43       	mov.b	#2,	r15	;r3 As==10
    37a0:	b0 12 c0 35 	call	#0x35c0	
  n6100_send(0x05,0);
    37a4:	79 40 05 00 	mov.b	#5,	r9	;#0x0005
    37a8:	4e 43       	clr.b	r14		
    37aa:	4f 49       	mov.b	r9,	r15	
    37ac:	b0 12 c0 35 	call	#0x35c0	
  n6100_send(0x07,0);
    37b0:	76 40 07 00 	mov.b	#7,	r6	;#0x0007
    37b4:	4e 43       	clr.b	r14		
    37b6:	4f 46       	mov.b	r6,	r15	
    37b8:	b0 12 c0 35 	call	#0x35c0	
  n6100_send(0x09,0);
    37bc:	77 40 09 00 	mov.b	#9,	r7	;#0x0009
    37c0:	4e 43       	clr.b	r14		
    37c2:	4f 47       	mov.b	r7,	r15	
    37c4:	b0 12 c0 35 	call	#0x35c0	
  n6100_send(0x0b,0);
    37c8:	7a 40 0b 00 	mov.b	#11,	r10	;#0x000b
    37cc:	4e 43       	clr.b	r14		
    37ce:	4f 4a       	mov.b	r10,	r15	
    37d0:	b0 12 c0 35 	call	#0x35c0	
  n6100_send(0x0d,0);
    37d4:	78 40 0d 00 	mov.b	#13,	r8	;#0x000d
    37d8:	4e 43       	clr.b	r14		
    37da:	4f 48       	mov.b	r8,	r15	
    37dc:	b0 12 c0 35 	call	#0x35c0	
  n6100_send(0x0f,0);
    37e0:	7b 50 fb ff 	add.b	#-5,	r11	;#0xfffb
    37e4:	4e 43       	clr.b	r14		
    37e6:	4f 4b       	mov.b	r11,	r15	
    37e8:	b0 12 c0 35 	call	#0x35c0	
  // green
  n6100_send(0x00,0);
    37ec:	4e 43       	clr.b	r14		
    37ee:	4f 4e       	mov.b	r14,	r15	
    37f0:	b0 12 c0 35 	call	#0x35c0	
  n6100_send(0x02,0);
    37f4:	4e 43       	clr.b	r14		
    37f6:	6f 43       	mov.b	#2,	r15	;r3 As==10
    37f8:	b0 12 c0 35 	call	#0x35c0	
  n6100_send(0x05,0);
    37fc:	4e 43       	clr.b	r14		
    37fe:	4f 49       	mov.b	r9,	r15	
    3800:	b0 12 c0 35 	call	#0x35c0	
  n6100_send(0x07,0);
    3804:	4e 43       	clr.b	r14		
    3806:	4f 46       	mov.b	r6,	r15	
    3808:	b0 12 c0 35 	call	#0x35c0	
  n6100_send(0x09,0);
    380c:	4e 43       	clr.b	r14		
    380e:	4f 47       	mov.b	r7,	r15	
    3810:	b0 12 c0 35 	call	#0x35c0	
  n6100_send(0x0b,0);
    3814:	4e 43       	clr.b	r14		
    3816:	4f 4a       	mov.b	r10,	r15	
    3818:	b0 12 c0 35 	call	#0x35c0	
  n6100_send(0x0d,0);
    381c:	4e 43       	clr.b	r14		
    381e:	4f 48       	mov.b	r8,	r15	
    3820:	b0 12 c0 35 	call	#0x35c0	
  n6100_send(0x0f,0);
    3824:	4e 43       	clr.b	r14		
    3826:	4f 4b       	mov.b	r11,	r15	
    3828:	b0 12 c0 35 	call	#0x35c0	
  // blue
  n6100_send(0x00,0);
    382c:	4e 43       	clr.b	r14		
    382e:	4f 4e       	mov.b	r14,	r15	
    3830:	b0 12 c0 35 	call	#0x35c0	
  n6100_send(0x05,0);
    3834:	4e 43       	clr.b	r14		
    3836:	4f 49       	mov.b	r9,	r15	
    3838:	b0 12 c0 35 	call	#0x35c0	
  n6100_send(0x0b,0);
    383c:	4e 43       	clr.b	r14		
    383e:	4f 4a       	mov.b	r10,	r15	
    3840:	b0 12 c0 35 	call	#0x35c0	
  n6100_send(0x0f,0);
    3844:	4e 43       	clr.b	r14		
    3846:	4f 4b       	mov.b	r11,	r15	
    3848:	b0 12 c0 35 	call	#0x35c0	

  // Memory Access Control...  
  n6100_sendcom1(0x36, invertido);
    384c:	4e 43       	clr.b	r14		
    384e:	7f 40 36 00 	mov.b	#54,	r15	;#0x0036
    3852:	b0 12 26 36 	call	#0x3626	
  // Agradecimentos...
  lcd_fillrect(0, 0, 132, 132, color);
    3856:	45 12       	push.b	r5		
    3858:	7c 40 84 ff 	mov.b	#-124,	r12	;#0xff84
    385c:	4d 4c       	mov.b	r12,	r13	
    385e:	4e 43       	clr.b	r14		
    3860:	4f 4e       	mov.b	r14,	r15	
    3862:	b0 12 64 36 	call	#0x3664	
    3866:	21 53       	incd	r1		
  //n6100_putlogo(2, 2, 128, 128, (unsigned char *)Matrix);
  //delayms(4000);
}
    3868:	35 41       	pop	r5		
    386a:	36 41       	pop	r6		
    386c:	37 41       	pop	r7		
    386e:	38 41       	pop	r8		
    3870:	39 41       	pop	r9		
    3872:	3a 41       	pop	r10		
    3874:	3b 41       	pop	r11		
    3876:	30 41       	ret			

00003878 <lcd_drawcircle>:
    n6100_sendcom2(0x2a, 0, 0x83);
    n6100_sendcom2(0x2b, 0, 0x83);
}


void lcd_drawcircle(unsigned int x0, unsigned int y0, unsigned int radius, unsigned char color, int width){
    3878:	0b 12       	push	r11		
    387a:	0a 12       	push	r10		
    387c:	09 12       	push	r9		
    387e:	08 12       	push	r8		
    3880:	07 12       	push	r7		
    3882:	06 12       	push	r6		
    3884:	05 12       	push	r5		
    3886:	04 12       	push	r4		
    3888:	31 50 f6 ff 	add	#-10,	r1	;#0xfff6
    388c:	08 4f       	mov	r15,	r8	
    388e:	09 4e       	mov	r14,	r9	
    3890:	45 4c       	mov.b	r12,	r5	
    3892:	1b 41 1c 00 	mov	28(r1),	r11	;0x001c(r1)
    int f = 1 - radius;
    int ddF_x = 0;
    int ddF_y = -2 * radius;
    int x = 0;
    int y = radius;
    3896:	81 4d 04 00 	mov	r13,	4(r1)	;0x0004(r1)
    lcd_fillrect(x0, y0 + radius,width,width, color);
    389a:	46 4b       	mov.b	r11,	r6	
    389c:	c1 4e 00 00 	mov.b	r14,	0(r1)	;0x0000(r1)
    38a0:	5a 41 04 00 	mov.b	4(r1),	r10	;0x0004(r1)
    38a4:	c1 4f 01 00 	mov.b	r15,	1(r1)	;0x0001(r1)
    38a8:	4c 12       	push.b	r12		
    38aa:	4c 4b       	mov.b	r11,	r12	
    38ac:	4d 4b       	mov.b	r11,	r13	
    38ae:	4e 4a       	mov.b	r10,	r14	
    38b0:	5e 51 02 00 	add.b	2(r1),	r14	;0x0002(r1)
    38b4:	b0 12 64 36 	call	#0x3664	
    lcd_fillrect(x0, y0 - radius,width,width, color);
    38b8:	c1 45 00 00 	mov.b	r5,	0(r1)	;0x0000(r1)
    38bc:	4c 4b       	mov.b	r11,	r12	
    38be:	4d 4b       	mov.b	r11,	r13	
    38c0:	5e 41 02 00 	mov.b	2(r1),	r14	;0x0002(r1)
    38c4:	4e 8a       	sub.b	r10,	r14	
    38c6:	4f 48       	mov.b	r8,	r15	
    38c8:	b0 12 64 36 	call	#0x3664	
    lcd_fillrect(x0 + radius, y0,width,width, color);
    38cc:	c1 45 00 00 	mov.b	r5,	0(r1)	;0x0000(r1)
    38d0:	4c 4b       	mov.b	r11,	r12	
    38d2:	4d 4b       	mov.b	r11,	r13	
    38d4:	4e 49       	mov.b	r9,	r14	
    38d6:	4f 4a       	mov.b	r10,	r15	
    38d8:	5f 51 03 00 	add.b	3(r1),	r15	;0x0003(r1)
    38dc:	b0 12 64 36 	call	#0x3664	
    lcd_fillrect(x0 - radius, y0,width,width, color);
    38e0:	c1 45 00 00 	mov.b	r5,	0(r1)	;0x0000(r1)
    38e4:	4c 4b       	mov.b	r11,	r12	
    38e6:	4d 4b       	mov.b	r11,	r13	
    38e8:	4e 49       	mov.b	r9,	r14	
    38ea:	5f 41 03 00 	mov.b	3(r1),	r15	;0x0003(r1)
    38ee:	4f 8a       	sub.b	r10,	r15	
    38f0:	b0 12 64 36 	call	#0x3664	
    38f4:	21 53       	incd	r1		
    while (x < y) {
    38f6:	0f 43       	clr	r15		
    38f8:	1f 91 04 00 	cmp	4(r1),	r15	;0x0004(r1)
    38fc:	82 34       	jge	$+262    	;abs 0x3a02
    n6100_sendcom2(0x2b, 0, 0x83);
}


void lcd_drawcircle(unsigned int x0, unsigned int y0, unsigned int radius, unsigned char color, int width){
    int f = 1 - radius;
    38fe:	14 43       	mov	#1,	r4	;r3 As==01
    3900:	14 81 04 00 	sub	4(r1),	r4	;0x0004(r1)
    int ddF_x = 0;
    int ddF_y = -2 * radius;
    3904:	1e 41 04 00 	mov	4(r1),	r14	;0x0004(r1)
    3908:	0e 11       	rra	r14		
    390a:	0e 43       	clr	r14		
    390c:	0e 10       	rrc	r14		
    390e:	1e 81 04 00 	sub	4(r1),	r14	;0x0004(r1)
    3912:	81 4e 08 00 	mov	r14,	8(r1)	;0x0008(r1)
    3916:	91 51 08 00 	rla	8(r1)		;0x0008(r1)
    391a:	08 00 
    391c:	b1 40 03 00 	mov	#3,	6(r1)	;#0x0003, 0x0006(r1)
    3920:	06 00 
    int x = 0;
    3922:	81 4f 02 00 	mov	r15,	2(r1)	;0x0002(r1)
    3926:	04 3c       	jmp	$+10     	;abs 0x3930
            ddF_y += 2;
            f += ddF_y;
        }
        x++;
        ddF_x += 2;
        f += ddF_x + 1;
    3928:	14 51 06 00 	add	6(r1),	r4	;0x0006(r1)
    392c:	a1 53 06 00 	incd	6(r1)		;0x0006(r1)
    lcd_fillrect(x0, y0 + radius,width,width, color);
    lcd_fillrect(x0, y0 - radius,width,width, color);
    lcd_fillrect(x0 + radius, y0,width,width, color);
    lcd_fillrect(x0 - radius, y0,width,width, color);
    while (x < y) {
        if (f >= 0) {
    3930:	04 93       	tst	r4		
    3932:	06 38       	jl	$+14     	;abs 0x3940
            y--;
    3934:	b1 53 04 00 	add	#-1,	4(r1)	;r3 As==11, 0x0004(r1)
            ddF_y += 2;
    3938:	a1 53 08 00 	incd	8(r1)		;0x0008(r1)
            f += ddF_y;
    393c:	14 51 08 00 	add	8(r1),	r4	;0x0008(r1)
        }
        x++;
    3940:	91 53 02 00 	inc	2(r1)		;0x0002(r1)
        ddF_x += 2;
        f += ddF_x + 1;
        lcd_fillrect(x0 + x, y0 + y,width,width, color);
    3944:	5a 41 04 00 	mov.b	4(r1),	r10	;0x0004(r1)
    3948:	6b 41       	mov.b	@r1,	r11	
    394a:	4b 5a       	add.b	r10,	r11	
    n6100_sendcom2(0x2a, 0, 0x83);
    n6100_sendcom2(0x2b, 0, 0x83);
}


void lcd_drawcircle(unsigned int x0, unsigned int y0, unsigned int radius, unsigned char color, int width){
    394c:	58 41 02 00 	mov.b	2(r1),	r8	;0x0002(r1)
    3950:	57 41 01 00 	mov.b	1(r1),	r7	;0x0001(r1)
    3954:	47 58       	add.b	r8,	r7	
            f += ddF_y;
        }
        x++;
        ddF_x += 2;
        f += ddF_x + 1;
        lcd_fillrect(x0 + x, y0 + y,width,width, color);
    3956:	45 12       	push.b	r5		
    3958:	4c 46       	mov.b	r6,	r12	
    395a:	4d 46       	mov.b	r6,	r13	
    395c:	4e 4b       	mov.b	r11,	r14	
    395e:	4f 47       	mov.b	r7,	r15	
    3960:	b0 12 64 36 	call	#0x3664	
    3964:	59 41 03 00 	mov.b	3(r1),	r9	;0x0003(r1)
    3968:	49 88       	sub.b	r8,	r9	
        lcd_fillrect(x0 - x, y0 + y,width,width, color);
    396a:	c1 45 00 00 	mov.b	r5,	0(r1)	;0x0000(r1)
    396e:	4c 46       	mov.b	r6,	r12	
    3970:	4d 46       	mov.b	r6,	r13	
    3972:	4e 4b       	mov.b	r11,	r14	
    3974:	4f 49       	mov.b	r9,	r15	
    3976:	b0 12 64 36 	call	#0x3664	
        lcd_fillrect(x0 + x, y0 - y,width,width, color);
    397a:	5b 41 02 00 	mov.b	2(r1),	r11	;0x0002(r1)
    397e:	4b 8a       	sub.b	r10,	r11	
    3980:	c1 45 00 00 	mov.b	r5,	0(r1)	;0x0000(r1)
    3984:	4c 46       	mov.b	r6,	r12	
    3986:	4d 46       	mov.b	r6,	r13	
    3988:	4e 4b       	mov.b	r11,	r14	
    398a:	4f 47       	mov.b	r7,	r15	
    398c:	b0 12 64 36 	call	#0x3664	
        lcd_fillrect(x0 - x, y0 - y,width,width, color);
    3990:	c1 45 00 00 	mov.b	r5,	0(r1)	;0x0000(r1)
    3994:	4c 46       	mov.b	r6,	r12	
    3996:	4d 46       	mov.b	r6,	r13	
    3998:	4e 4b       	mov.b	r11,	r14	
    399a:	4f 49       	mov.b	r9,	r15	
    399c:	b0 12 64 36 	call	#0x3664	
    39a0:	5b 41 02 00 	mov.b	2(r1),	r11	;0x0002(r1)
    39a4:	4b 58       	add.b	r8,	r11	
        lcd_fillrect(x0 + y, y0 + x,width,width, color);
    39a6:	59 41 03 00 	mov.b	3(r1),	r9	;0x0003(r1)
    39aa:	49 5a       	add.b	r10,	r9	
    39ac:	c1 45 00 00 	mov.b	r5,	0(r1)	;0x0000(r1)
    39b0:	4c 46       	mov.b	r6,	r12	
    39b2:	4d 46       	mov.b	r6,	r13	
    39b4:	4e 4b       	mov.b	r11,	r14	
    39b6:	4f 49       	mov.b	r9,	r15	
    39b8:	b0 12 64 36 	call	#0x3664	
        lcd_fillrect(x0 - y, y0 + x,width,width, color);
    39bc:	5f 41 03 00 	mov.b	3(r1),	r15	;0x0003(r1)
    39c0:	4f 8a       	sub.b	r10,	r15	
    39c2:	4a 4f       	mov.b	r15,	r10	
    39c4:	c1 45 00 00 	mov.b	r5,	0(r1)	;0x0000(r1)
    39c8:	4c 46       	mov.b	r6,	r12	
    39ca:	4d 46       	mov.b	r6,	r13	
    39cc:	4e 4b       	mov.b	r11,	r14	
    39ce:	b0 12 64 36 	call	#0x3664	
    39d2:	5b 41 02 00 	mov.b	2(r1),	r11	;0x0002(r1)
    39d6:	4b 88       	sub.b	r8,	r11	
        lcd_fillrect(x0 + y, y0 - x,width,width, color);
    39d8:	c1 45 00 00 	mov.b	r5,	0(r1)	;0x0000(r1)
    39dc:	4c 46       	mov.b	r6,	r12	
    39de:	4d 46       	mov.b	r6,	r13	
    39e0:	4e 4b       	mov.b	r11,	r14	
    39e2:	4f 49       	mov.b	r9,	r15	
    39e4:	b0 12 64 36 	call	#0x3664	
        lcd_fillrect(x0 - y,y0 - x,width,width, color);   
    39e8:	c1 45 00 00 	mov.b	r5,	0(r1)	;0x0000(r1)
    39ec:	4c 46       	mov.b	r6,	r12	
    39ee:	4d 46       	mov.b	r6,	r13	
    39f0:	4e 4b       	mov.b	r11,	r14	
    39f2:	4f 4a       	mov.b	r10,	r15	
    39f4:	b0 12 64 36 	call	#0x3664	
    39f8:	21 53       	incd	r1		
    int y = radius;
    lcd_fillrect(x0, y0 + radius,width,width, color);
    lcd_fillrect(x0, y0 - radius,width,width, color);
    lcd_fillrect(x0 + radius, y0,width,width, color);
    lcd_fillrect(x0 - radius, y0,width,width, color);
    while (x < y) {
    39fa:	91 91 04 00 	cmp	4(r1),	2(r1)	;0x0004(r1), 0x0002(r1)
    39fe:	02 00 
    3a00:	93 3b       	jl	$-216    	;abs 0x3928
        lcd_fillrect(x0 + y, y0 + x,width,width, color);
        lcd_fillrect(x0 - y, y0 + x,width,width, color);
        lcd_fillrect(x0 + y, y0 - x,width,width, color);
        lcd_fillrect(x0 - y,y0 - x,width,width, color);   
    }
}
    3a02:	31 50 0a 00 	add	#10,	r1	;#0x000a
    3a06:	34 41       	pop	r4		
    3a08:	35 41       	pop	r5		
    3a0a:	36 41       	pop	r6		
    3a0c:	37 41       	pop	r7		
    3a0e:	38 41       	pop	r8		
    3a10:	39 41       	pop	r9		
    3a12:	3a 41       	pop	r10		
    3a14:	3b 41       	pop	r11		
    3a16:	30 41       	ret			

00003a18 <lcd_drawpoint>:
        }
    }
}

void lcd_drawpoint(unsigned char x, unsigned char y, unsigned char color)
{
    3a18:	0b 12       	push	r11		
    3a1a:	0a 12       	push	r10		
    3a1c:	09 12       	push	r9		
    3a1e:	08 12       	push	r8		
    3a20:	48 4e       	mov.b	r14,	r8	
    3a22:	4a 4d       	mov.b	r13,	r10	
    n6100_sendcom2(0x2a, x, x);
    3a24:	79 40 2a 00 	mov.b	#42,	r9	;#0x002a
    3a28:	4d 4f       	mov.b	r15,	r13	
    3a2a:	4e 4f       	mov.b	r15,	r14	
    3a2c:	4f 49       	mov.b	r9,	r15	
    3a2e:	b0 12 3e 36 	call	#0x363e	
    n6100_sendcom2(0x2b, y, y);
    3a32:	7b 40 2b 00 	mov.b	#43,	r11	;#0x002b
    3a36:	4d 48       	mov.b	r8,	r13	
    3a38:	4e 48       	mov.b	r8,	r14	
    3a3a:	4f 4b       	mov.b	r11,	r15	
    3a3c:	b0 12 3e 36 	call	#0x363e	
    
    n6100_send(0x2c, 3);
    3a40:	7e 40 03 00 	mov.b	#3,	r14	;#0x0003
    3a44:	7f 40 2c 00 	mov.b	#44,	r15	;#0x002c
    3a48:	b0 12 c0 35 	call	#0x35c0	
    n6100_send((unsigned char)color, 1);
    3a4c:	5e 43       	mov.b	#1,	r14	;r3 As==01
    3a4e:	4f 4a       	mov.b	r10,	r15	
    3a50:	b0 12 c0 35 	call	#0x35c0	

    
    P5OUT &= ~SDA;
    3a54:	f2 f0 fd ff 	and.b	#-3,	&0x0031	;#0xfffd
    3a58:	31 00 
    P5OUT |= CSX;
    3a5a:	d2 d3 31 00 	bis.b	#1,	&0x0031	;r3 As==01
    
    n6100_sendcom2(0x2a, 0, 0x83);
    3a5e:	7a 40 83 ff 	mov.b	#-125,	r10	;#0xff83
    3a62:	4d 4a       	mov.b	r10,	r13	
    3a64:	4e 43       	clr.b	r14		
    3a66:	4f 49       	mov.b	r9,	r15	
    3a68:	b0 12 3e 36 	call	#0x363e	
    n6100_sendcom2(0x2b, 0, 0x83);
    3a6c:	4d 4a       	mov.b	r10,	r13	
    3a6e:	4e 43       	clr.b	r14		
    3a70:	4f 4b       	mov.b	r11,	r15	
    3a72:	b0 12 3e 36 	call	#0x363e	
}
    3a76:	38 41       	pop	r8		
    3a78:	39 41       	pop	r9		
    3a7a:	3a 41       	pop	r10		
    3a7c:	3b 41       	pop	r11		
    3a7e:	30 41       	ret			

00003a80 <lcd_drawline>:
        lcd_fillrect(x0 + y, y0 - x,width,width, color);
        lcd_fillrect(x0 - y,y0 - x,width,width, color);   
    }
}

void lcd_drawline(int x0, int y0, int x1, int y1, unsigned char color) {
    3a80:	0b 12       	push	r11		
    3a82:	0a 12       	push	r10		
    3a84:	09 12       	push	r9		
    3a86:	08 12       	push	r8		
    3a88:	07 12       	push	r7		
    3a8a:	06 12       	push	r6		
    3a8c:	05 12       	push	r5		
    3a8e:	04 12       	push	r4		
    3a90:	21 82       	sub	#4,	r1	;r2 As==10
    3a92:	09 4f       	mov	r15,	r9	
    3a94:	0a 4e       	mov	r14,	r10	
    3a96:	81 4d 00 00 	mov	r13,	0(r1)	;0x0000(r1)
    3a9a:	81 4c 02 00 	mov	r12,	2(r1)	;0x0002(r1)
    3a9e:	54 41 16 00 	mov.b	22(r1),	r4	;0x0016(r1)
    int dy = y1 - y0;
    3aa2:	05 4c       	mov	r12,	r5	
    3aa4:	05 8e       	sub	r14,	r5	
    int dx = x1 - x0;
    3aa6:	06 4d       	mov	r13,	r6	
    3aa8:	06 8f       	sub	r15,	r6	
    int stepx, stepy;
    if (dy < 0) { 
    3aaa:	05 93       	tst	r5		
    3aac:	4c 38       	jl	$+154    	;abs 0x3b46
        dy = -dy; 
        stepy = -1; 
    } 
    else { 
        stepy = 1; 
    3aae:	18 43       	mov	#1,	r8	;r3 As==01
    }
    if (dx < 0) {
    3ab0:	06 93       	tst	r6		
    3ab2:	45 38       	jl	$+140    	;abs 0x3b3e
        dx = -dx; 
        stepx = -1; 
    } 
    else { 
        stepx = 1; 
    3ab4:	17 43       	mov	#1,	r7	;r3 As==01
    }
    dy <<= 1; // dy is now 2*dy
    3ab6:	05 55       	rla	r5		
    dx <<= 1; // dx is now 2*dx
    3ab8:	06 56       	rla	r6		
    
    lcd_drawpoint(x0, y0, color);
    3aba:	4d 44       	mov.b	r4,	r13	
    3abc:	4e 4a       	mov.b	r10,	r14	
    3abe:	4f 49       	mov.b	r9,	r15	
    3ac0:	b0 12 18 3a 	call	#0x3a18	

    if (dx > dy) {
    3ac4:	05 96       	cmp	r6,	r5	
    3ac6:	21 34       	jge	$+68     	;abs 0x3b0a
        int fraction = dy - (dx >> 1); // same as 2*dy - dx
        while (x0 != x1) {
    3ac8:	29 91       	cmp	@r1,	r9	
    3aca:	15 24       	jz	$+44     	;abs 0x3af6
    dx <<= 1; // dx is now 2*dx
    
    lcd_drawpoint(x0, y0, color);

    if (dx > dy) {
        int fraction = dy - (dx >> 1); // same as 2*dy - dx
    3acc:	0f 46       	mov	r6,	r15	
    3ace:	0f 11       	rra	r15		
    3ad0:	0b 45       	mov	r5,	r11	
    3ad2:	0b 8f       	sub	r15,	r11	
        lcd_fillrect(x0 + y, y0 - x,width,width, color);
        lcd_fillrect(x0 - y,y0 - x,width,width, color);   
    }
}

void lcd_drawline(int x0, int y0, int x1, int y1, unsigned char color) {
    3ad4:	09 57       	add	r7,	r9	
    3ad6:	01 3c       	jmp	$+4      	;abs 0x3ada
            if (fraction >= 0) {
                y0 += stepy;
                fraction -= dx; // same as fraction -= 2*dx
            }
            x0 += stepx;
            fraction += dy; // same as fraction -= 2*dy
    3ad8:	0b 55       	add	r5,	r11	
    lcd_drawpoint(x0, y0, color);

    if (dx > dy) {
        int fraction = dy - (dx >> 1); // same as 2*dy - dx
        while (x0 != x1) {
            if (fraction >= 0) {
    3ada:	0b 93       	tst	r11		
    3adc:	02 38       	jl	$+6      	;abs 0x3ae2
                y0 += stepy;
    3ade:	0a 58       	add	r8,	r10	
                fraction -= dx; // same as fraction -= 2*dx
    3ae0:	0b 86       	sub	r6,	r11	
            }
            x0 += stepx;
            fraction += dy; // same as fraction -= 2*dy
            lcd_drawpoint(x0, y0, color);
    3ae2:	4d 44       	mov.b	r4,	r13	
    3ae4:	4e 4a       	mov.b	r10,	r14	
    3ae6:	4f 49       	mov.b	r9,	r15	
    3ae8:	b0 12 18 3a 	call	#0x3a18	
    3aec:	09 57       	add	r7,	r9	
        lcd_fillrect(x0 + y, y0 - x,width,width, color);
        lcd_fillrect(x0 - y,y0 - x,width,width, color);   
    }
}

void lcd_drawline(int x0, int y0, int x1, int y1, unsigned char color) {
    3aee:	0f 49       	mov	r9,	r15	
    3af0:	0f 87       	sub	r7,	r15	
    
    lcd_drawpoint(x0, y0, color);

    if (dx > dy) {
        int fraction = dy - (dx >> 1); // same as 2*dy - dx
        while (x0 != x1) {
    3af2:	2f 91       	cmp	@r1,	r15	
    3af4:	f1 23       	jnz	$-28     	;abs 0x3ad8
            y0 += stepy;
            fraction += dx;
            lcd_drawpoint(x0, y0, color);
        }
    }
}
    3af6:	21 52       	add	#4,	r1	;r2 As==10
    3af8:	34 41       	pop	r4		
    3afa:	35 41       	pop	r5		
    3afc:	36 41       	pop	r6		
    3afe:	37 41       	pop	r7		
    3b00:	38 41       	pop	r8		
    3b02:	39 41       	pop	r9		
    3b04:	3a 41       	pop	r10		
    3b06:	3b 41       	pop	r11		
    3b08:	30 41       	ret			
            lcd_drawpoint(x0, y0, color);
        }
    } 
    else {
        int fraction = dx - (dy >> 1);
        while (y0 != y1) {
    3b0a:	81 9a 02 00 	cmp	r10,	2(r1)	;0x0002(r1)
    3b0e:	f3 27       	jz	$-24     	;abs 0x3af6
            fraction += dy; // same as fraction -= 2*dy
            lcd_drawpoint(x0, y0, color);
        }
    } 
    else {
        int fraction = dx - (dy >> 1);
    3b10:	0f 45       	mov	r5,	r15	
    3b12:	0f 11       	rra	r15		
    3b14:	0b 46       	mov	r6,	r11	
    3b16:	0b 8f       	sub	r15,	r11	
        lcd_fillrect(x0 + y, y0 - x,width,width, color);
        lcd_fillrect(x0 - y,y0 - x,width,width, color);   
    }
}

void lcd_drawline(int x0, int y0, int x1, int y1, unsigned char color) {
    3b18:	0a 58       	add	r8,	r10	
    3b1a:	01 3c       	jmp	$+4      	;abs 0x3b1e
            if (fraction >= 0) {
                x0 += stepx;
                fraction -= dy;
            }
            y0 += stepy;
            fraction += dx;
    3b1c:	0b 56       	add	r6,	r11	
        }
    } 
    else {
        int fraction = dx - (dy >> 1);
        while (y0 != y1) {
            if (fraction >= 0) {
    3b1e:	0b 93       	tst	r11		
    3b20:	02 38       	jl	$+6      	;abs 0x3b26
                x0 += stepx;
    3b22:	09 57       	add	r7,	r9	
                fraction -= dy;
    3b24:	0b 85       	sub	r5,	r11	
            }
            y0 += stepy;
            fraction += dx;
            lcd_drawpoint(x0, y0, color);
    3b26:	4d 44       	mov.b	r4,	r13	
    3b28:	4e 4a       	mov.b	r10,	r14	
    3b2a:	4f 49       	mov.b	r9,	r15	
    3b2c:	b0 12 18 3a 	call	#0x3a18	
    3b30:	0a 58       	add	r8,	r10	
        lcd_fillrect(x0 + y, y0 - x,width,width, color);
        lcd_fillrect(x0 - y,y0 - x,width,width, color);   
    }
}

void lcd_drawline(int x0, int y0, int x1, int y1, unsigned char color) {
    3b32:	0f 4a       	mov	r10,	r15	
    3b34:	0f 88       	sub	r8,	r15	
            lcd_drawpoint(x0, y0, color);
        }
    } 
    else {
        int fraction = dx - (dy >> 1);
        while (y0 != y1) {
    3b36:	81 9f 02 00 	cmp	r15,	2(r1)	;0x0002(r1)
    3b3a:	f0 23       	jnz	$-30     	;abs 0x3b1c
    3b3c:	dc 3f       	jmp	$-70     	;abs 0x3af6
    } 
    else { 
        stepy = 1; 
    }
    if (dx < 0) {
        dx = -dx; 
    3b3e:	36 e3       	inv	r6		
    3b40:	16 53       	inc	r6		
        stepx = -1; 
    3b42:	37 43       	mov	#-1,	r7	;r3 As==11
    3b44:	b8 3f       	jmp	$-142    	;abs 0x3ab6
void lcd_drawline(int x0, int y0, int x1, int y1, unsigned char color) {
    int dy = y1 - y0;
    int dx = x1 - x0;
    int stepx, stepy;
    if (dy < 0) { 
        dy = -dy; 
    3b46:	35 e3       	inv	r5		
    3b48:	15 53       	inc	r5		
        stepy = -1; 
    3b4a:	38 43       	mov	#-1,	r8	;r3 As==11
    3b4c:	b1 3f       	jmp	$-156    	;abs 0x3ab0

00003b4e <lcd_putlogo>:
    n6100_sendcom2(0x2a, 0, 0x83);
    n6100_sendcom2(0x2b, 0, 0x83);
}

void lcd_putlogo(unsigned char x, unsigned char y, unsigned char lx, unsigned char ly, unsigned char p[])
{
    3b4e:	0b 12       	push	r11		
    3b50:	0a 12       	push	r10		
    3b52:	09 12       	push	r9		
    3b54:	08 12       	push	r8		
    3b56:	48 4e       	mov.b	r14,	r8	
    3b58:	4b 4d       	mov.b	r13,	r11	
    3b5a:	4a 4c       	mov.b	r12,	r10	
    3b5c:	19 41 0a 00 	mov	10(r1),	r9	;0x000a(r1)
    unsigned int addr, max;

    n6100_sendcom2(0x2a, x, x+lx-1);
    3b60:	4d 4f       	mov.b	r15,	r13	
    3b62:	7d 53       	add.b	#-1,	r13	;r3 As==11
    3b64:	4d 5b       	add.b	r11,	r13	
    3b66:	4e 4f       	mov.b	r15,	r14	
    3b68:	7f 40 2a 00 	mov.b	#42,	r15	;#0x002a
    3b6c:	b0 12 3e 36 	call	#0x363e	
    n6100_sendcom2(0x2b, y, y+ly-1);
    3b70:	4d 48       	mov.b	r8,	r13	
    3b72:	7d 53       	add.b	#-1,	r13	;r3 As==11
    3b74:	4d 5a       	add.b	r10,	r13	
    3b76:	4e 48       	mov.b	r8,	r14	
    3b78:	7f 40 2b 00 	mov.b	#43,	r15	;#0x002b
    3b7c:	b0 12 3e 36 	call	#0x363e	
    
    n6100_send(0x2c, 3);
    3b80:	7e 40 03 00 	mov.b	#3,	r14	;#0x0003
    3b84:	7f 40 2c 00 	mov.b	#44,	r15	;#0x002c
    3b88:	b0 12 c0 35 	call	#0x35c0	
    
    max = lx*ly;
    3b8c:	02 12       	push	r2		
    3b8e:	32 c2       	dint			
    3b90:	03 43       	nop			
    3b92:	c2 4a 30 01 	mov.b	r10,	&0x0130	
    3b96:	c2 4b 38 01 	mov.b	r11,	&0x0138	
    3b9a:	1a 42 3a 01 	mov	&0x013a,r10	
    3b9e:	32 41       	pop	r2		
    for(addr=0; addr<max; addr++)
    3ba0:	0a 93       	tst	r10		
    3ba2:	0a 24       	jz	$+22     	;abs 0x3bb8
    3ba4:	0b 43       	clr	r11		
    
    n6100_sendcom2(0x2a, 0, 0x83);
    n6100_sendcom2(0x2b, 0, 0x83);
}

void lcd_putlogo(unsigned char x, unsigned char y, unsigned char lx, unsigned char ly, unsigned char p[])
    3ba6:	0f 49       	mov	r9,	r15	
    3ba8:	0f 5b       	add	r11,	r15	
    n6100_send(0x2c, 3);
    
    max = lx*ly;
    for(addr=0; addr<max; addr++)
    {
        n6100_send(p[addr], 1);
    3baa:	5e 43       	mov.b	#1,	r14	;r3 As==01
    3bac:	6f 4f       	mov.b	@r15,	r15	
    3bae:	b0 12 c0 35 	call	#0x35c0	
    n6100_sendcom2(0x2b, y, y+ly-1);
    
    n6100_send(0x2c, 3);
    
    max = lx*ly;
    for(addr=0; addr<max; addr++)
    3bb2:	1b 53       	inc	r11		
    3bb4:	0b 9a       	cmp	r10,	r11	
    3bb6:	f7 2b       	jnc	$-16     	;abs 0x3ba6
    {
        n6100_send(p[addr], 1);
    }
    
    P5OUT &= ~SDA;
    3bb8:	f2 f0 fd ff 	and.b	#-3,	&0x0031	;#0xfffd
    3bbc:	31 00 
    P5OUT |= CSX;
    3bbe:	d2 d3 31 00 	bis.b	#1,	&0x0031	;r3 As==01
    
    n6100_sendcom2(0x2a, 0, 0x83);
    3bc2:	7d 40 83 ff 	mov.b	#-125,	r13	;#0xff83
    3bc6:	4e 43       	clr.b	r14		
    3bc8:	7f 40 2a 00 	mov.b	#42,	r15	;#0x002a
    3bcc:	b0 12 3e 36 	call	#0x363e	
    n6100_sendcom2(0x2b, 0, 0x83);
    3bd0:	7d 40 83 ff 	mov.b	#-125,	r13	;#0xff83
    3bd4:	4e 43       	clr.b	r14		
    3bd6:	7f 40 2b 00 	mov.b	#43,	r15	;#0x002b
    3bda:	b0 12 3e 36 	call	#0x363e	
}
    3bde:	38 41       	pop	r8		
    3be0:	39 41       	pop	r9		
    3be2:	3a 41       	pop	r10		
    3be4:	3b 41       	pop	r11		
    3be6:	30 41       	ret			

00003be8 <lcd_newline>:

void lcd_newline(void)
{
    if (++LCDLineCount == LCD_NLINE){
    3be8:	5f 42 02 11 	mov.b	&0x1102,r15	
    3bec:	5f 53       	inc.b	r15		
    3bee:	c2 4f 02 11 	mov.b	r15,	&0x1102	
    3bf2:	7f 90 10 00 	cmp.b	#16,	r15	;#0x0010
    3bf6:	02 20       	jnz	$+6      	;abs 0x3bfc
        LCDLineCount = 0; 
    3bf8:	c2 43 02 11 	mov.b	#0,	&0x1102	;r3 As==00
    }
    LCDCharCount = 0;
    3bfc:	c2 43 04 11 	mov.b	#0,	&0x1104	;r3 As==00
}
    3c00:	30 41       	ret			

00003c02 <lcd_goto>:

void lcd_goto(unsigned char x, unsigned char y)
{
    if (x > LCD_NCHAR-1) x = 0;
    3c02:	7f 90 15 00 	cmp.b	#21,	r15	;#0x0015
    3c06:	01 28       	jnc	$+4      	;abs 0x3c0a
    3c08:	4f 43       	clr.b	r15		
    if (y > LCD_NLINE-1) y = 0;
    3c0a:	7e 90 10 00 	cmp.b	#16,	r14	;#0x0010
    3c0e:	01 28       	jnc	$+4      	;abs 0x3c12
    3c10:	4e 43       	clr.b	r14		
    
    LCDCharCount = x;
    3c12:	c2 4f 04 11 	mov.b	r15,	&0x1104	
    LCDLineCount = y;
    3c16:	c2 4e 02 11 	mov.b	r14,	&0x1102	
}
    3c1a:	30 41       	ret			

00003c1c <lcd_wrchar>:

void lcd_wrchar(unsigned char c)
{
    3c1c:	0b 12       	push	r11		
    3c1e:	0a 12       	push	r10		
    3c20:	09 12       	push	r9		
    3c22:	08 12       	push	r8		
    3c24:	07 12       	push	r7		
    3c26:	4b 4f       	mov.b	r15,	r11	
  unsigned int j;
  unsigned char i, k, v, mask;

  // Posiciona rea para copiar...
  i=6*LCDCharCount;
    3c28:	5e 42 04 11 	mov.b	&0x1104,r14	
    3c2c:	4e 5e       	rla.b	r14		
    3c2e:	5e 52 04 11 	add.b	&0x1104,r14	
    3c32:	4e 5e       	rla.b	r14		
  n6100_sendcom2(0x2a, i, i+5);
    3c34:	4d 4e       	mov.b	r14,	r13	
    3c36:	7d 50 05 00 	add.b	#5,	r13	;#0x0005
    3c3a:	7f 40 2a 00 	mov.b	#42,	r15	;#0x002a
    3c3e:	b0 12 3e 36 	call	#0x363e	
  i=8*(LCDLineCount)+2;
    3c42:	5e 42 02 11 	mov.b	&0x1102,r14	
    3c46:	4e 5e       	rla.b	r14		
    3c48:	4e 5e       	rla.b	r14		
    3c4a:	4e 5e       	rla.b	r14		
  n6100_sendcom2(0x2b, i, i+7);
    3c4c:	4d 4e       	mov.b	r14,	r13	
    3c4e:	7d 50 09 00 	add.b	#9,	r13	;#0x0009
    3c52:	6e 53       	incd.b	r14		
    3c54:	7f 40 2b 00 	mov.b	#43,	r15	;#0x002b
    3c58:	b0 12 3e 36 	call	#0x363e	

  // Rotina de escrita na memria...
  mask = 0x01;
  n6100_send(0x2c,2);
    3c5c:	6e 43       	mov.b	#2,	r14	;r3 As==10
    3c5e:	7f 40 2c 00 	mov.b	#44,	r15	;#0x002c
    3c62:	b0 12 c0 35 	call	#0x35c0	
    3c66:	4f 4b       	mov.b	r11,	r15	
    3c68:	09 4f       	mov	r15,	r9	
    3c6a:	09 59       	rla	r9		
    3c6c:	09 59       	rla	r9		
    3c6e:	09 5f       	add	r15,	r9	
    3c70:	78 42       	mov.b	#8,	r8	;r2 As==11
  n6100_sendcom2(0x2a, i, i+5);
  i=8*(LCDLineCount)+2;
  n6100_sendcom2(0x2b, i, i+7);

  // Rotina de escrita na memria...
  mask = 0x01;
    3c72:	5a 43       	mov.b	#1,	r10	;r3 As==01
    3c74:	07 49       	mov	r9,	r7	
    3c76:	37 50 fc 3d 	add	#15868,	r7	;#0x3dfc
    3c7a:	39 50 01 3e 	add	#15873,	r9	;#0x3e01
    
    LCDCharCount = x;
    LCDLineCount = y;
}

void lcd_wrchar(unsigned char c)
    3c7e:	0b 47       	mov	r7,	r11	
  {
    j = (unsigned int) c * 5;
    for (i=0; i<5; i++)
    {
      v = asciitable[j];
      if(v & mask) n6100_send((unsigned char)LCDForeColor,0); else n6100_send((unsigned char)LCDBackColor,0);
    3c80:	4e 4a       	mov.b	r10,	r14	
    3c82:	6e fb       	and.b	@r11,	r14	
    3c84:	11 24       	jz	$+36     	;abs 0x3ca8
    3c86:	4e 43       	clr.b	r14		
    3c88:	5f 42 06 11 	mov.b	&0x1106,r15	
    3c8c:	b0 12 c0 35 	call	#0x35c0	
    3c90:	1b 53       	inc	r11		
  n6100_send(0x2c,2);

  for (k=0; k<8; k++)
  {
    j = (unsigned int) c * 5;
    for (i=0; i<5; i++)
    3c92:	0b 99       	cmp	r9,	r11	
    3c94:	f5 23       	jnz	$-20     	;abs 0x3c80
    {
      v = asciitable[j];
      if(v & mask) n6100_send((unsigned char)LCDForeColor,0); else n6100_send((unsigned char)LCDBackColor,0);
      j += 1;
    }
    n6100_send((unsigned char)LCDBackColor,0);
    3c96:	4e 43       	clr.b	r14		
    3c98:	5f 42 00 11 	mov.b	&0x1100,r15	
    3c9c:	b0 12 c0 35 	call	#0x35c0	
    3ca0:	78 53       	add.b	#-1,	r8	;r3 As==11

  // Rotina de escrita na memria...
  mask = 0x01;
  n6100_send(0x2c,2);

  for (k=0; k<8; k++)
    3ca2:	07 24       	jz	$+16     	;abs 0x3cb2
      v = asciitable[j];
      if(v & mask) n6100_send((unsigned char)LCDForeColor,0); else n6100_send((unsigned char)LCDBackColor,0);
      j += 1;
    }
    n6100_send((unsigned char)LCDBackColor,0);
    mask <<= 1;
    3ca4:	4a 5a       	rla.b	r10		
    3ca6:	eb 3f       	jmp	$-40     	;abs 0x3c7e
  {
    j = (unsigned int) c * 5;
    for (i=0; i<5; i++)
    {
      v = asciitable[j];
      if(v & mask) n6100_send((unsigned char)LCDForeColor,0); else n6100_send((unsigned char)LCDBackColor,0);
    3ca8:	5f 42 00 11 	mov.b	&0x1100,r15	
    3cac:	b0 12 c0 35 	call	#0x35c0	
    3cb0:	ef 3f       	jmp	$-32     	;abs 0x3c90
      j += 1;
    }
    n6100_send((unsigned char)LCDBackColor,0);
    mask <<= 1;
  }
}
    3cb2:	37 41       	pop	r7		
    3cb4:	38 41       	pop	r8		
    3cb6:	39 41       	pop	r9		
    3cb8:	3a 41       	pop	r10		
    3cba:	3b 41       	pop	r11		
    3cbc:	30 41       	ret			

00003cbe <lcd_putchar>:

void lcd_putchar(unsigned char c)
{
    3cbe:	4e 4f       	mov.b	r15,	r14	
  switch (c)
    3cc0:	7f 90 0a 00 	cmp.b	#10,	r15	;#0x000a
    3cc4:	1c 24       	jz	$+58     	;abs 0x3cfe
    3cc6:	7f 90 0d 00 	cmp.b	#13,	r15	;#0x000d
    3cca:	23 24       	jz	$+72     	;abs 0x3d12
  {
    case 10 : lcd_newline();
              break;
    case 13 : LCDCharCount = 0;
              break;
    default : if (LCDCharCount++ < LCD_NCHAR) lcd_wrchar(c);
    3ccc:	5d 42 04 11 	mov.b	&0x1104,r13	
    3cd0:	4c 4d       	mov.b	r13,	r12	
    3cd2:	5c 53       	inc.b	r12		
    3cd4:	c2 4c 04 11 	mov.b	r12,	&0x1104	
    3cd8:	7d 90 15 00 	cmp.b	#21,	r13	;#0x0015
    3cdc:	20 28       	jnc	$+66     	;abs 0x3d1e
    n6100_sendcom2(0x2b, 0, 0x83);
}

void lcd_newline(void)
{
    if (++LCDLineCount == LCD_NLINE){
    3cde:	5f 42 02 11 	mov.b	&0x1102,r15	
    3ce2:	5f 53       	inc.b	r15		
    3ce4:	c2 4f 02 11 	mov.b	r15,	&0x1102	
    3ce8:	7f 90 10 00 	cmp.b	#16,	r15	;#0x0010
    3cec:	15 24       	jz	$+44     	;abs 0x3d18
        LCDLineCount = 0; 
    }
    LCDCharCount = 0;
    3cee:	c2 43 04 11 	mov.b	#0,	&0x1104	;r3 As==00
              break;
    default : if (LCDCharCount++ < LCD_NCHAR) lcd_wrchar(c);
              else
              {
                lcd_newline();
                lcd_wrchar(c);
    3cf2:	4f 4e       	mov.b	r14,	r15	
    3cf4:	b0 12 1c 3c 	call	#0x3c1c	
                LCDCharCount++;
    3cf8:	d2 53 04 11 	inc.b	&0x1104	
    3cfc:	30 41       	ret			
    n6100_sendcom2(0x2b, 0, 0x83);
}

void lcd_newline(void)
{
    if (++LCDLineCount == LCD_NLINE){
    3cfe:	5f 42 02 11 	mov.b	&0x1102,r15	
    3d02:	5f 53       	inc.b	r15		
    3d04:	c2 4f 02 11 	mov.b	r15,	&0x1102	
    3d08:	7f 90 10 00 	cmp.b	#16,	r15	;#0x0010
    3d0c:	02 20       	jnz	$+6      	;abs 0x3d12
        LCDLineCount = 0; 
    3d0e:	c2 43 02 11 	mov.b	#0,	&0x1102	;r3 As==00
{
  switch (c)
  {
    case 10 : lcd_newline();
              break;
    case 13 : LCDCharCount = 0;
    3d12:	c2 43 04 11 	mov.b	#0,	&0x1104	;r3 As==00
              break;
    3d16:	30 41       	ret			
}

void lcd_newline(void)
{
    if (++LCDLineCount == LCD_NLINE){
        LCDLineCount = 0; 
    3d18:	c2 43 02 11 	mov.b	#0,	&0x1102	;r3 As==00
    3d1c:	e8 3f       	jmp	$-46     	;abs 0x3cee
  {
    case 10 : lcd_newline();
              break;
    case 13 : LCDCharCount = 0;
              break;
    default : if (LCDCharCount++ < LCD_NCHAR) lcd_wrchar(c);
    3d1e:	b0 12 1c 3c 	call	#0x3c1c	
    3d22:	30 41       	ret			

00003d24 <putchar>:
                         };

// printf para LCDNOKIA
int putchar(int c)
{
    lcd_putchar(c);
    3d24:	b0 12 be 3c 	call	#0x3cbe	
    return 0;
}
    3d28:	0f 43       	clr	r15		
    3d2a:	30 41       	ret			

00003d2c <lcd_drawprogressbar>:
                LCDCharCount++;
              }
  }
}

void lcd_drawprogressbar(int x, int y, int lx, int ly, unsigned char color, unsigned char colorprogress, int percent){
    3d2c:	0b 12       	push	r11		
    3d2e:	0a 12       	push	r10		
    3d30:	09 12       	push	r9		
    3d32:	08 12       	push	r8		
    3d34:	07 12       	push	r7		
    3d36:	08 4e       	mov	r14,	r8	
    3d38:	09 4d       	mov	r13,	r9	
    if(ly < 1 || lx < 1){
    3d3a:	0d 43       	clr	r13		
    3d3c:	0d 9c       	cmp	r12,	r13	
    3d3e:	2f 34       	jge	$+96     	;abs 0x3d9e
    3d40:	0d 99       	cmp	r9,	r13	
    3d42:	2d 34       	jge	$+92     	;abs 0x3d9e
    3d44:	1d 41 10 00 	mov	16(r1),	r13	;0x0010(r1)
    3d48:	3e 40 64 00 	mov	#100,	r14	;#0x0064
    3d4c:	0e 9d       	cmp	r13,	r14	
    3d4e:	2f 38       	jl	$+96     	;abs 0x3dae
            if(percent > 100){
                percent = 100;
            }
        }
        int lx_progress = (lx * percent) / 100;
        lcd_fillrect(x, y, lx_progress, ly, color);
    3d50:	47 4c       	mov.b	r12,	r7	
        else{
            if(percent > 100){
                percent = 100;
            }
        }
        int lx_progress = (lx * percent) / 100;
    3d52:	0d 93       	tst	r13		
    3d54:	2a 38       	jl	$+86     	;abs 0x3daa
    3d56:	02 12       	push	r2		
    3d58:	32 c2       	dint			
    3d5a:	03 43       	nop			
    3d5c:	82 4d 32 01 	mov	r13,	&0x0132	
    3d60:	82 49 38 01 	mov	r9,	&0x0138	
    3d64:	1d 42 3a 01 	mov	&0x013a,r13	
    3d68:	32 41       	pop	r2		
    3d6a:	0c 4d       	mov	r13,	r12	
    3d6c:	3a 40 64 00 	mov	#100,	r10	;#0x0064
    3d70:	b0 12 54 45 	call	#0x4554	
    3d74:	0d 4c       	mov	r12,	r13	
        lcd_fillrect(x, y, lx_progress, ly, color);
    3d76:	4b 4c       	mov.b	r12,	r11	
    3d78:	4a 4f       	mov.b	r15,	r10	
    3d7a:	51 12 0e 00 	push.b	14(r1)		;0x000e(r1)
    3d7e:	4c 47       	mov.b	r7,	r12	
    3d80:	4e 48       	mov.b	r8,	r14	
    3d82:	b0 12 64 36 	call	#0x3664	
    3d86:	21 53       	incd	r1		
        lcd_fillrect(x + lx_progress, y, lx - lx_progress, ly, colorprogress);
    3d88:	51 12 10 00 	push.b	16(r1)		;0x0010(r1)
    3d8c:	4c 47       	mov.b	r7,	r12	
    3d8e:	4d 49       	mov.b	r9,	r13	
    3d90:	4d 8b       	sub.b	r11,	r13	
    3d92:	4e 48       	mov.b	r8,	r14	
    3d94:	4f 4b       	mov.b	r11,	r15	
    3d96:	4f 5a       	add.b	r10,	r15	
    3d98:	b0 12 64 36 	call	#0x3664	
    3d9c:	21 53       	incd	r1		
    }
}
    3d9e:	37 41       	pop	r7		
    3da0:	38 41       	pop	r8		
    3da2:	39 41       	pop	r9		
    3da4:	3a 41       	pop	r10		
    3da6:	3b 41       	pop	r11		
    3da8:	30 41       	ret			
        else{
            if(percent > 100){
                percent = 100;
            }
        }
        int lx_progress = (lx * percent) / 100;
    3daa:	0d 43       	clr	r13		
    3dac:	d4 3f       	jmp	$-86     	;abs 0x3d56
              }
  }
}

void lcd_drawprogressbar(int x, int y, int lx, int ly, unsigned char color, unsigned char colorprogress, int percent){
    if(ly < 1 || lx < 1){
    3dae:	0d 4e       	mov	r14,	r13	
            if(percent > 100){
                percent = 100;
            }
        }
        int lx_progress = (lx * percent) / 100;
        lcd_fillrect(x, y, lx_progress, ly, color);
    3db0:	47 4c       	mov.b	r12,	r7	
        else{
            if(percent > 100){
                percent = 100;
            }
        }
        int lx_progress = (lx * percent) / 100;
    3db2:	0d 93       	tst	r13		
    3db4:	d0 37       	jge	$-94     	;abs 0x3d56
    3db6:	f9 3f       	jmp	$-12     	;abs 0x3daa

00003db8 <lcd_putdot>:
        lcd_fillrect(x + lx_progress, y, lx - lx_progress, ly, colorprogress);
    }
}


void lcd_putdot(int from, int to){
    3db8:	0b 12       	push	r11		
    3dba:	0a 12       	push	r10		
    3dbc:	0b 4f       	mov	r15,	r11	
    3dbe:	0a 4e       	mov	r14,	r10	
    if(from > to) return;
    3dc0:	0e 9f       	cmp	r15,	r14	
    3dc2:	17 38       	jl	$+48     	;abs 0x3df2
    lcd_goto(from, LCDLineCount);
    3dc4:	5f 42 02 11 	mov.b	&0x1102,r15	
    3dc8:	4e 4b       	mov.b	r11,	r14	
    LCDCharCount = 0;
}

void lcd_goto(unsigned char x, unsigned char y)
{
    if (x > LCD_NCHAR-1) x = 0;
    3dca:	7b 90 15 00 	cmp.b	#21,	r11	;#0x0015
    3dce:	01 28       	jnc	$+4      	;abs 0x3dd2
    3dd0:	4e 43       	clr.b	r14		
    if (y > LCD_NLINE-1) y = 0;
    3dd2:	7f 90 10 00 	cmp.b	#16,	r15	;#0x0010
    3dd6:	10 2c       	jc	$+34     	;abs 0x3df8
    
    LCDCharCount = x;
    3dd8:	c2 4e 04 11 	mov.b	r14,	&0x1104	
    LCDLineCount = y;
    3ddc:	c2 4f 02 11 	mov.b	r15,	&0x1102	

void lcd_putdot(int from, int to){
    if(from > to) return;
    lcd_goto(from, LCDLineCount);
    
    while(from < to){
    3de0:	0b 9a       	cmp	r10,	r11	
    3de2:	07 34       	jge	$+16     	;abs 0x3df2
        lcd_putchar('.');
    3de4:	7f 40 2e 00 	mov.b	#46,	r15	;#0x002e
    3de8:	b0 12 be 3c 	call	#0x3cbe	
        from++;
    3dec:	1b 53       	inc	r11		

void lcd_putdot(int from, int to){
    if(from > to) return;
    lcd_goto(from, LCDLineCount);
    
    while(from < to){
    3dee:	0b 9a       	cmp	r10,	r11	
    3df0:	f9 3b       	jl	$-12     	;abs 0x3de4
        lcd_putchar('.');
        from++;
    }
}
    3df2:	3a 41       	pop	r10		
    3df4:	3b 41       	pop	r11		
    3df6:	30 41       	ret			
}

void lcd_goto(unsigned char x, unsigned char y)
{
    if (x > LCD_NCHAR-1) x = 0;
    if (y > LCD_NLINE-1) y = 0;
    3df8:	4f 43       	clr.b	r15		
    3dfa:	ee 3f       	jmp	$-34     	;abs 0x3dd8

00003dfc <asciitable>:
    3dfc:	00 00       	bra	@r0		
    3dfe:	00 00       	bra	@r0		
    3e00:	00 3e       	jmp	$-1022   	;abs 0x3a02
    3e02:	0a 34       	jge	$+22     	;abs 0x3e18
    3e04:	00 3e       	jmp	$-1022   	;abs 0x3a06
    3e06:	18 3e       	jmp	$-974    	;abs 0x3a38
    3e08:	00 3e       	jmp	$-1022   	;abs 0x3a0a
    3e0a:	22 00 3e 20 	mova	&0x0203e,r2	
    3e0e:	20 00 22 1c 	bra	&0x01c22	
    3e12:	00 24       	jz	$+2      	;abs 0x3e14
    3e14:	2a 00 08 38 	mova	&0x03808,r10	
    3e18:	38 08 1c 22 	mova	8732(r8),r8	;0x221c(r8)
    3e1c:	22 22       	jnz	$-954    	;abs 0x3a62
    3e1e:	1c 00       	mova	#0x00000,r12	
    3e20:	38 38       	jl	$+114    	;abs 0x3e92
    3e22:	44 82       	sub.b	r2,	r4	
    3e24:	1c 3e       	jmp	$-966    	;abs 0x3a5e
    3e26:	62 62       	addc.b	#4,	r2	;r2 As==10
    3e28:	32 2e       	jc	$-922    	;abs 0x3a8e
    3e2a:	26 23       	jnz	$-434    	;abs 0x3c78
    3e2c:	23 22       	jnz	$-952    	;abs 0x3a74
    3e2e:	00 00       	bra	@r0		
    3e30:	00 00       	bra	@r0		
    3e32:	00 1c       	.word	0x1c00;	????	
    3e34:	3e 36       	jge	$-898    	;abs 0x3ab2
    3e36:	22 36       	jge	$-954    	;abs 0x3a7c
    3e38:	3e 3e       	jmp	$-898    	;abs 0x3ab6
    3e3a:	36 36       	jge	$-914    	;abs 0x3aa8
    3e3c:	36 00 00 00 	mova	0x0000,	r6	;PC rel. 0x03e3e
    3e40:	00 00       	bra	@r0		
    3e42:	18 08       	mova	@r8+,	r8	
    3e44:	1c 22       	jnz	$-966    	;abs 0x3a7e
    3e46:	22 63       	addc	#2,	r2	;r3 As==10
    3e48:	55 4d 55 6b 	mov.b	27477(r13),r5	;0x6b55(r13)
    3e4c:	00 3e       	jmp	$-1022   	;abs 0x3a4e
    3e4e:	0a 04       	mova	@r4,	r10	
    3e50:	78 00 3e 0a 	mova	r0,	2622(r8);0x0a3e(r8)
    3e54:	04 78       	subc	r8,	r4	
    3e56:	00 38       	jl	$+2      	;abs 0x3e58
    3e58:	44 5f       	add.b	r15,	r4	
    3e5a:	4e 00       	rrcm.a	#1,	r14	
    3e5c:	38 44       	mov	@r4+,	r8	
    3e5e:	44 5f       	add.b	r15,	r4	
    3e60:	00 3c       	jmp	$+2      	;abs 0x3e62
    3e62:	3c 3c       	jmp	$+122    	;abs 0x3edc
    3e64:	3c 00 3e 0a 	mova	0x0a3e,	r12	;PC rel. 0x048a4
    3e68:	04 78       	subc	r8,	r4	
    3e6a:	18 24       	jz	$+50     	;abs 0x3e9c
    3e6c:	42 24       	jz	$+134    	;abs 0x3ef2
    3e6e:	18 18 3c 7e 	subcx	@r14+,	r12	
    3e72:	3c 18 c0 f0 	andx.a	r0,	0xcf0fc	;PC rel. 0xd2f74
    3e76:	fc f0 
    3e78:	c0 03       	bra	#0		;r3 As==00
    3e7a:	0f 3f       	jmp	$-480    	;abs 0x3c9a
    3e7c:	0f 03       	mova	#2,	r15	;r3 As==10
    3e7e:	ff 7e 3c 18 	subc.b	@r14+,	6204(r15);0x183c(r15)
    3e82:	00 00       	bra	@r0		
    3e84:	18 3c       	jmp	$+50     	;abs 0x3eb6
    3e86:	7e ff       	and.b	@r15+,	r14	
    3e88:	00 3c       	jmp	$+2      	;abs 0x3e8a
    3e8a:	20 00 00 08 	bra	&0x00800	
    3e8e:	14 00       	mova	#0x00000,r4	
    3e90:	14 08       	mova	@r8+,	r4	
    3e92:	08 0c       	mova	@r12,	r8	
    3e94:	0e 0c       	mova	@r12,	r14	
    3e96:	08 08       	mova	@r8,	r8	
    3e98:	18 38       	jl	$+50     	;abs 0x3eca
    3e9a:	18 08       	mova	@r8+,	r8	
    3e9c:	00 00       	bra	@r0		
    3e9e:	00 00       	bra	@r0		
    3ea0:	00 00       	bra	@r0		
    3ea2:	00 5f       	add	r15,	r0	
    3ea4:	00 00       	bra	@r0		
    3ea6:	00 07       	bra	@r7		
    3ea8:	00 07       	bra	@r7		
    3eaa:	00 14       	pushm.a	#1,	r0	
    3eac:	7f 14       	pushm.a	#8,	r15	
    3eae:	7f 14       	pushm.a	#8,	r15	
    3eb0:	24 2a       	jnc	$-950    	;abs 0x3afa
    3eb2:	7f 2a       	jnc	$-768    	;abs 0x3bb2
    3eb4:	12 23       	jnz	$-474    	;abs 0x3cda
    3eb6:	13 08       	.word	0x0813;	????	Illegal as address instr
    3eb8:	64 62       	addc.b	#4,	r4	;r2 As==10
    3eba:	36 49       	mov	@r9+,	r6	
    3ebc:	55 22       	jnz	$-852    	;abs 0x3b68
    3ebe:	50 00       	rrcm	#1,	r0	
    3ec0:	05 03       	mova	#2,	r5	;r3 As==10
    3ec2:	00 00       	bra	@r0		
    3ec4:	00 1c 22 41 	movx	@r1,	r2	
    3ec8:	00 00       	bra	@r0		
    3eca:	41 22       	jnz	$-892    	;abs 0x3b4e
    3ecc:	1c 00       	mova	#0x00000,r12	
    3ece:	14 08       	mova	@r8+,	r4	
    3ed0:	3e 08 14 08 	mova	2068(r8),r14	;0x0814(r8)
    3ed4:	08 3e       	jmp	$-1006   	;abs 0x3ae6
    3ed6:	08 08       	mova	@r8,	r8	
    3ed8:	00 50       	rla	r0		
    3eda:	30 00 00 08 	bra	0x0800		;PC rel. 0x046dc
    3ede:	08 08       	mova	@r8,	r8	
    3ee0:	08 08       	mova	@r8,	r8	
    3ee2:	00 60       	rlc	r0		
    3ee4:	60 00 00 20 	mova	r0,	&0x02000
    3ee8:	10 08       	bra	@r8+		
    3eea:	04 02       	mova	#4,	r4	;r2 As==10
    3eec:	3e 51       	add	@r1+,	r14	
    3eee:	49 45       	mov.b	r5,	r9	
    3ef0:	3e 00 42 7f 	mova	0x7f42,	r14	;PC rel. 0x0be34
    3ef4:	40 00       	rrcm.a	#1,	r0	
    3ef6:	42 61       	addc.b	r1,	r2	
    3ef8:	51 49 46 21 	mov.b	8518(r9),r1	;0x2146(r9)
    3efc:	41 45       	mov.b	r5,	r1	
    3efe:	4b 31       	jn	$+664    	;abs 0x4196
    3f00:	18 14       	pushm.a	#2,	r8	
    3f02:	12 7f 10 27 	subc	10000(r15),r2	;0x2710(r15)
    3f06:	45 45       	mov.b	r5,	r5	
    3f08:	45 39       	jl	$+652    	;abs 0x4194
    3f0a:	3c 4a       	mov	@r10+,	r12	
    3f0c:	49 49       	mov.b	r9,	r9	
    3f0e:	30 01 71 09 	bra	2417(r1)	;0x0971(r1)
    3f12:	05 03       	mova	#2,	r5	;r3 As==10
    3f14:	36 49       	mov	@r9+,	r6	
    3f16:	49 49       	mov.b	r9,	r9	
    3f18:	36 06 49 49 	mova	18761(r6),r6	;0x4949(r6)
    3f1c:	29 1e       	.word	0x1e29;	????	
    3f1e:	00 36       	jge	$-1022   	;abs 0x3b20
    3f20:	36 00 00 00 	mova	0x0000,	r6	;PC rel. 0x03f22
    3f24:	56 36       	jge	$-850    	;abs 0x3bd2
    3f26:	00 00       	bra	@r0		
    3f28:	08 14       	pushm.a	#1,	r8	
    3f2a:	22 41       	mov	@r1,	r2	
    3f2c:	00 14       	pushm.a	#1,	r0	
    3f2e:	14 14       	pushm.a	#2,	r4	
    3f30:	14 14       	pushm.a	#2,	r4	
    3f32:	00 41       	br	r1		
    3f34:	22 14       	pushm.a	#3,	r2	
    3f36:	08 02       	mova	#4,	r8	;r2 As==10
    3f38:	01 51       	rla	r1		
    3f3a:	09 06       	mova	@r6,	r9	
    3f3c:	32 49       	mov	@r9+,	r2	
    3f3e:	79 41       	pop.b	r9		
    3f40:	3e 7e       	subc	@r14+,	r14	
    3f42:	11 11 11 7e 	rra	32273(r1)	;0x7e11(r1)
    3f46:	7f 49       	mov.b	@r9+,	r15	
    3f48:	49 49       	mov.b	r9,	r9	
    3f4a:	36 3e       	jmp	$-914    	;abs 0x3bb8
    3f4c:	41 41       	mov.b	r1,	r1	
    3f4e:	41 22       	jnz	$-892    	;abs 0x3bd2
    3f50:	7f 41       	pop.b	r15		
    3f52:	41 22       	jnz	$-892    	;abs 0x3bd6
    3f54:	1c 7f 49 49 	subc	18761(r15),r12	;0x4949(r15)
    3f58:	49 41       	mov.b	r1,	r9	
    3f5a:	7f 09 09 09 	mova	r9,	2313(r15);0x0909(r15)
    3f5e:	01 3e       	jmp	$-1020   	;abs 0x3b62
    3f60:	41 49       	mov.b	r9,	r1	
    3f62:	49 7a       	subc.b	r10,	r9	
    3f64:	7f 08 08 08 	mova	r8,	2056(r15);0x0808(r15)
    3f68:	7f 00 41 7f 	mova	r0,	32577(r15);0x7f41(r15)
    3f6c:	41 00       	rrcm.a	#1,	r1	
    3f6e:	20 40       	br	@r0		
    3f70:	41 3f       	jmp	$-380    	;abs 0x3df4
    3f72:	01 7f       	subc	r15,	r1	
    3f74:	08 14       	pushm.a	#1,	r8	
    3f76:	22 41       	mov	@r1,	r2	
    3f78:	7f 40 40 40 	mov.b	#16448,	r15	;#0x4040
    3f7c:	40 7f       	subc.b	r15,	r0	
    3f7e:	02 0c       	mova	@r12,	r2	
    3f80:	02 7f       	subc	r15,	r2	
    3f82:	7f 04 08 10 	mova	r4,	4104(r15);0x1008(r15)
    3f86:	7f 3e       	jmp	$-768    	;abs 0x3c86
    3f88:	41 41       	mov.b	r1,	r1	
    3f8a:	41 3e       	jmp	$-892    	;abs 0x3c0e
    3f8c:	7f 09 09 09 	mova	r9,	2313(r15);0x0909(r15)
    3f90:	06 3e       	jmp	$-1010   	;abs 0x3b9e
    3f92:	41 51       	rla.b	r1		
    3f94:	21 5e       	add	@r14,	r1	
    3f96:	7f 09 19 29 	mova	r9,	10521(r15);0x2919(r15)
    3f9a:	46 46       	mov.b	r6,	r6	
    3f9c:	49 49       	mov.b	r9,	r9	
    3f9e:	49 31       	jn	$+660    	;abs 0x4232
    3fa0:	01 01       	mova	@r1,	r1	
    3fa2:	7f 01 01 3f 	mova	r1,	16129(r15);0x3f01(r15)
    3fa6:	40 40       	br	r0		
    3fa8:	40 3f       	jmp	$-382    	;abs 0x3e2a
    3faa:	1f 20       	jnz	$+64     	;abs 0x3fea
    3fac:	40 20       	jnz	$+130    	;abs 0x402e
    3fae:	1f 3f       	jmp	$-448    	;abs 0x3dee
    3fb0:	40 38       	jl	$+130    	;abs 0x4032
    3fb2:	40 3f       	jmp	$-382    	;abs 0x3e34
    3fb4:	63 14       	pushm.a	#7,	#0	;r3 As==00
    3fb6:	08 14       	pushm.a	#1,	r8	
    3fb8:	63 07 08 70 	mova	r7,	&0x37008
    3fbc:	08 07       	mova	@r7,	r8	
    3fbe:	61 51       	add.b	@r1,	r1	
    3fc0:	49 45       	mov.b	r5,	r9	
    3fc2:	43 00       	rrcm.a	#1,	#0	;r3 As==00
    3fc4:	7f 41       	pop.b	r15		
    3fc6:	41 00       	rrcm.a	#1,	r1	
    3fc8:	02 04       	mova	@r4,	r2	
    3fca:	08 10       	rrc	r8		
    3fcc:	20 00 41 41 	bra	&0x04141	
    3fd0:	7f 00 04 02 	mova	r0,	516(r15);0x0204(r15)
    3fd4:	01 02       	mova	#4,	r1	;r2 As==10
    3fd6:	04 40       	mov	r0,	r4	
    3fd8:	40 40       	br	r0		
    3fda:	40 40       	br	r0		
    3fdc:	00 01       	bra	@r1		
    3fde:	02 04       	mova	@r4,	r2	
    3fe0:	00 20       	jnz	$+2      	;abs 0x3fe2
    3fe2:	54 54 54 78 	add.b	30804(r4),r4	;0x7854(r4)
    3fe6:	7f 48       	mov.b	@r8+,	r15	
    3fe8:	44 44       	mov.b	r4,	r4	
    3fea:	38 38       	jl	$+114    	;abs 0x405c
    3fec:	44 44       	mov.b	r4,	r4	
    3fee:	44 20       	jnz	$+138    	;abs 0x4078
    3ff0:	38 44       	mov	@r4+,	r8	
    3ff2:	44 48       	mov.b	r8,	r4	
    3ff4:	7f 38       	jl	$+256    	;abs 0x40f4
    3ff6:	54 54 54 18 	add.b	6228(r4),r4	;0x1854(r4)
    3ffa:	08 7e       	subc	r14,	r8	
    3ffc:	09 01       	mova	@r1,	r9	
    3ffe:	02 0c       	mova	@r12,	r2	
    4000:	52 52 52 3e 	add.b	&0x3e52,r2	
    4004:	7f 08 04 04 	mova	r8,	1028(r15);0x0404(r15)
    4008:	78 00 44 7d 	mova	r0,	32068(r8);0x7d44(r8)
    400c:	40 00       	rrcm.a	#1,	r0	
    400e:	20 40       	br	@r0		
    4010:	44 3d       	jmp	$+650    	;abs 0x429a
    4012:	00 7f       	subc	r15,	r0	
    4014:	10 28       	jnc	$+34     	;abs 0x4036
    4016:	44 00       	rrcm.a	#1,	r4	
    4018:	00 41       	br	r1		
    401a:	7f 40 00 7c 	mov.b	#31744,	r15	;#0x7c00
    401e:	04 18 04 78 	.rpt	#4
				subcx	r8,	r4	
    4022:	7c 08 04 04 	mova	r8,	1028(r12);0x0404(r12)
    4026:	78 38       	jl	$+242    	;abs 0x4118
    4028:	44 44       	mov.b	r4,	r4	
    402a:	44 38       	jl	$+138    	;abs 0x40b4
    402c:	7c 14       	pushm.a	#8,	r12	
    402e:	14 14       	pushm.a	#2,	r4	
    4030:	08 08       	mova	@r8,	r8	
    4032:	14 14       	pushm.a	#2,	r4	
    4034:	18 7c 7c 08 	subc	2172(r12),r8	;0x087c(r12)
    4038:	04 04       	mova	@r4,	r4	
    403a:	08 48       	mov	r8,	r8	
    403c:	54 54 54 20 	add.b	8276(r4),r4	;0x2054(r4)
    4040:	04 3f       	jmp	$-502    	;abs 0x3e4a
    4042:	44 40       	mov.b	r0,	r4	
    4044:	20 3c       	jmp	$+66     	;abs 0x4086
    4046:	40 40       	br	r0		
    4048:	20 7c       	subc	@r12,	r0	
    404a:	1c 20       	jnz	$+58     	;abs 0x4084
    404c:	40 20       	jnz	$+130    	;abs 0x40ce
    404e:	1c 3c       	jmp	$+58     	;abs 0x4088
    4050:	40 30       	jn	$+130    	;abs 0x40d2
    4052:	40 3c       	jmp	$+130    	;abs 0x40d4
    4054:	44 28       	jnc	$+138    	;abs 0x40de
    4056:	10 28       	jnc	$+34     	;abs 0x4078
    4058:	44 0c       	rrcm.a	#4,	r4	
    405a:	50 50 50 3c 	add.b	0x3c50,	r0	;PC rel. 0x07cae
    405e:	44 64       	rlc.b	r4		
    4060:	54 4c 44 00 	mov.b	68(r12),r4	;0x0044(r12)
    4064:	00 36       	jge	$-1022   	;abs 0x3c66
    4066:	41 00       	rrcm.a	#1,	r1	
    4068:	00 00       	bra	@r0		
    406a:	7f 00 00 00 	mova	r0,	0(r15)	;0x0000(r15)
    406e:	41 36       	jge	$-892    	;abs 0x3cf2
    4070:	08 00       	mova	@r0,	r8	
    4072:	10 08       	bra	@r8+		
    4074:	08 10       	rrc	r8		
    4076:	08 78       	subc	r8,	r8	
    4078:	46 41       	mov.b	r1,	r6	
    407a:	46 78       	subc.b	r8,	r6	

0000407c <clock_init>:
#include "msp430f2618.h"
#include "legacymsp430.h"
#include "i2c.h"

void clock_init(void){
    BCSCTL2 = SELM_0 + DIVM_0 + DIVS_0;
    407c:	c2 43 58 00 	mov.b	#0,	&0x0058	;r3 As==00
    DCOCTL = 0x77;      
    4080:	f2 40 77 00 	mov.b	#119,	&0x0056	;#0x0077
    4084:	56 00 
    BCSCTL1 = 0xCF;     
    4086:	f2 40 cf ff 	mov.b	#-49,	&0x0057	;#0xffcf
    408a:	57 00 
    BCSCTL3 = 0xA0;
    408c:	f2 40 a0 ff 	mov.b	#-96,	&0x0053	;#0xffa0
    4090:	53 00 
}
    4092:	30 41       	ret			

00004094 <hardware_setup>:

void hardware_setup(void){
    WDTCTL = WDTPW + WDTHOLD;   // desabilita watchdog       
    4094:	b2 40 80 5a 	mov	#23168,	&0x0120	;#0x5a80
    4098:	20 01 
#include "msp430f2618.h"
#include "legacymsp430.h"
#include "i2c.h"

void clock_init(void){
    BCSCTL2 = SELM_0 + DIVM_0 + DIVS_0;
    409a:	c2 43 58 00 	mov.b	#0,	&0x0058	;r3 As==00
    DCOCTL = 0x77;      
    409e:	f2 40 77 00 	mov.b	#119,	&0x0056	;#0x0077
    40a2:	56 00 
    BCSCTL1 = 0xCF;     
    40a4:	f2 40 cf ff 	mov.b	#-49,	&0x0057	;#0xffcf
    40a8:	57 00 
    BCSCTL3 = 0xA0;
    40aa:	f2 40 a0 ff 	mov.b	#-96,	&0x0053	;#0xffa0
    40ae:	53 00 
void hardware_setup(void){
    WDTCTL = WDTPW + WDTHOLD;   // desabilita watchdog       
    
    clock_init();
    
    LCD_BACKLIGHT_OUT();
    40b0:	f2 d2 2a 00 	bis.b	#8,	&0x002a	;r2 As==11
    SET_LCD_BACKLIGHT();
    40b4:	f2 d2 29 00 	bis.b	#8,	&0x0029	;r2 As==11

    i2c_init_module();
    40b8:	b0 12 76 34 	call	#0x3476	
    



}
    40bc:	30 41       	ret			

000040be <printf>:
    40be:	0d 41       	mov	r1,	r13	
    40c0:	2d 52       	add	#4,	r13	;r2 As==10
    40c2:	1e 41 02 00 	mov	2(r1),	r14	;0x0002(r1)
    40c6:	3f 40 24 3d 	mov	#15652,	r15	;#0x3d24
    40ca:	b0 12 ea 41 	call	#0x41ea	
    40ce:	30 41       	ret			

000040d0 <vprintf>:
    40d0:	0d 4e       	mov	r14,	r13	
    40d2:	0e 4f       	mov	r15,	r14	
    40d4:	3f 40 24 3d 	mov	#15652,	r15	;#0x3d24
    40d8:	b0 12 ea 41 	call	#0x41ea	
    40dc:	30 41       	ret			

000040de <print_field>:
    40de:	0b 12       	push	r11		
    40e0:	0a 12       	push	r10		
    40e2:	09 12       	push	r9		
    40e4:	08 12       	push	r8		
    40e6:	07 12       	push	r7		
    40e8:	06 12       	push	r6		
    40ea:	05 12       	push	r5		
    40ec:	04 12       	push	r4		
    40ee:	21 83       	decd	r1		
    40f0:	0a 4f       	mov	r15,	r10	
    40f2:	08 4e       	mov	r14,	r8	
    40f4:	07 4d       	mov	r13,	r7	
    40f6:	0f 4c       	mov	r12,	r15	
    40f8:	8f 10       	swpb	r15		
    40fa:	8f 11       	sxt	r15		
    40fc:	4d 4c       	mov.b	r12,	r13	
    40fe:	4e 4c       	mov.b	r12,	r14	
    4100:	7e f0 10 00 	and.b	#16,	r14	;#0x0010
    4104:	10 24       	jz	$+34     	;abs 0x4126
    4106:	f1 40 30 00 	mov.b	#48,	0(r1)	;#0x0030, 0x0000(r1)
    410a:	00 00 
    410c:	7d f0 40 00 	and.b	#64,	r13	;#0x0040
    4110:	03 24       	jz	$+8      	;abs 0x4118
    4112:	7f 40 58 00 	mov.b	#88,	r15	;#0x0058
    4116:	02 3c       	jmp	$+6      	;abs 0x411c
    4118:	7f 40 78 00 	mov.b	#120,	r15	;#0x0078
    411c:	c1 4f 01 00 	mov.b	r15,	1(r1)	;0x0001(r1)
    4120:	06 41       	mov	r1,	r6	
    4122:	26 53       	incd	r6		
    4124:	08 3c       	jmp	$+18     	;abs 0x4136
    4126:	4f 9e       	cmp.b	r14,	r15	
    4128:	05 24       	jz	$+12     	;abs 0x4134
    412a:	c1 4f 00 00 	mov.b	r15,	0(r1)	;0x0000(r1)
    412e:	06 41       	mov	r1,	r6	
    4130:	16 53       	inc	r6		
    4132:	01 3c       	jmp	$+4      	;abs 0x4136
    4134:	06 41       	mov	r1,	r6	
    4136:	06 81       	sub	r1,	r6	
    4138:	6c b2       	bit.b	#4,	r12	;r2 As==10
    413a:	2b 20       	jnz	$+88     	;abs 0x4192
    413c:	0f 48       	mov	r8,	r15	
    413e:	3f 53       	add	#-1,	r15	;r3 As==11
    4140:	1f 53       	inc	r15		
    4142:	cf 93 00 00 	tst.b	0(r15)		;0x0000(r15)
    4146:	fc 23       	jnz	$-6      	;abs 0x4140
    4148:	05 4f       	mov	r15,	r5	
    414a:	05 88       	sub	r8,	r5	
    414c:	07 96       	cmp	r6,	r7	
    414e:	02 28       	jnc	$+6      	;abs 0x4154
    4150:	07 86       	sub	r6,	r7	
    4152:	01 3c       	jmp	$+4      	;abs 0x4156
    4154:	07 43       	clr	r7		
    4156:	7c f0 20 00 	and.b	#32,	r12	;#0x0020
    415a:	0e 24       	jz	$+30     	;abs 0x4178
    415c:	09 43       	clr	r9		
    415e:	06 3c       	jmp	$+14     	;abs 0x416c
    4160:	0f 41       	mov	r1,	r15	
    4162:	0f 59       	add	r9,	r15	
    4164:	6f 4f       	mov.b	@r15,	r15	
    4166:	8f 11       	sxt	r15		
    4168:	19 53       	inc	r9		
    416a:	8a 12       	call	r10		
    416c:	09 96       	cmp	r6,	r9	
    416e:	f8 3b       	jl	$-14     	;abs 0x4160
    4170:	0b 46       	mov	r6,	r11	
    4172:	74 40 30 00 	mov.b	#48,	r4	;#0x0030
    4176:	0a 3c       	jmp	$+22     	;abs 0x418c
    4178:	74 40 20 00 	mov.b	#32,	r4	;#0x0020
    417c:	09 43       	clr	r9		
    417e:	0b 49       	mov	r9,	r11	
    4180:	05 3c       	jmp	$+12     	;abs 0x418c
    4182:	4f 44       	mov.b	r4,	r15	
    4184:	8f 11       	sxt	r15		
    4186:	8a 12       	call	r10		
    4188:	1b 53       	inc	r11		
    418a:	15 53       	inc	r5		
    418c:	05 97       	cmp	r7,	r5	
    418e:	f9 2b       	jnc	$-12     	;abs 0x4182
    4190:	02 3c       	jmp	$+6      	;abs 0x4196
    4192:	09 43       	clr	r9		
    4194:	0b 49       	mov	r9,	r11	
    4196:	09 51       	add	r1,	r9	
    4198:	05 3c       	jmp	$+12     	;abs 0x41a4
    419a:	1b 53       	inc	r11		
    419c:	6f 49       	mov.b	@r9,	r15	
    419e:	8f 11       	sxt	r15		
    41a0:	8a 12       	call	r10		
    41a2:	19 53       	inc	r9		
    41a4:	0f 49       	mov	r9,	r15	
    41a6:	0f 81       	sub	r1,	r15	
    41a8:	0f 96       	cmp	r6,	r15	
    41aa:	f7 3b       	jl	$-16     	;abs 0x419a
    41ac:	05 3c       	jmp	$+12     	;abs 0x41b8
    41ae:	6f 48       	mov.b	@r8,	r15	
    41b0:	8f 11       	sxt	r15		
    41b2:	8a 12       	call	r10		
    41b4:	18 53       	inc	r8		
    41b6:	1b 53       	inc	r11		
    41b8:	c8 93 00 00 	tst.b	0(r8)		;0x0000(r8)
    41bc:	f8 23       	jnz	$-14     	;abs 0x41ae
    41be:	04 3c       	jmp	$+10     	;abs 0x41c8
    41c0:	3f 40 20 00 	mov	#32,	r15	;#0x0020
    41c4:	8a 12       	call	r10		
    41c6:	1b 53       	inc	r11		
    41c8:	0b 97       	cmp	r7,	r11	
    41ca:	fa 2b       	jnc	$-10     	;abs 0x41c0
    41cc:	0f 4b       	mov	r11,	r15	
    41ce:	21 53       	incd	r1		
    41d0:	34 41       	pop	r4		
    41d2:	35 41       	pop	r5		
    41d4:	36 41       	pop	r6		
    41d6:	37 41       	pop	r7		
    41d8:	38 41       	pop	r8		
    41da:	39 41       	pop	r9		
    41dc:	3a 41       	pop	r10		
    41de:	3b 41       	pop	r11		
    41e0:	30 41       	ret			
    41e2:	28 6e       	addc	@r14,	r8	
    41e4:	75 6c       	addc.b	@r12+,	r5	
    41e6:	6c 29       	jnc	$+730    	;abs 0x44c0
	...

000041ea <vuprintf>:
    41ea:	0b 12       	push	r11		
    41ec:	0a 12       	push	r10		
    41ee:	09 12       	push	r9		
    41f0:	08 12       	push	r8		
    41f2:	07 12       	push	r7		
    41f4:	06 12       	push	r6		
    41f6:	05 12       	push	r5		
    41f8:	04 12       	push	r4		
    41fa:	31 50 de ff 	add	#-34,	r1	;#0xffde
    41fe:	81 4f 18 00 	mov	r15,	24(r1)	;0x0018(r1)
    4202:	81 4e 1a 00 	mov	r14,	26(r1)	;0x001a(r1)
    4206:	81 4d 0e 00 	mov	r13,	14(r1)	;0x000e(r1)
    420a:	81 43 10 00 	mov	#0,	16(r1)	;r3 As==00, 0x0010(r1)
    420e:	1a 41 10 00 	mov	16(r1),	r10	;0x0010(r1)
    4212:	81 4a 12 00 	mov	r10,	18(r1)	;0x0012(r1)
    4216:	30 40 2c 45 	br	#0x452c	
    421a:	0a 93       	tst	r10		
    421c:	0b 20       	jnz	$+24     	;abs 0x4234
    421e:	7e 90 25 00 	cmp.b	#37,	r14	;#0x0025
    4222:	02 24       	jz	$+6      	;abs 0x4228
    4224:	30 40 16 45 	br	#0x4516	
    4228:	81 4a 00 00 	mov	r10,	0(r1)	;0x0000(r1)
    422c:	81 4a 10 00 	mov	r10,	16(r1)	;0x0010(r1)
    4230:	30 40 26 45 	br	#0x4526	
    4234:	7e 90 63 00 	cmp.b	#99,	r14	;#0x0063
    4238:	a3 24       	jz	$+328    	;abs 0x4380
    423a:	7f 40 63 00 	mov.b	#99,	r15	;#0x0063
    423e:	4f 9e       	cmp.b	r14,	r15	
    4240:	2a 38       	jl	$+86     	;abs 0x4296
    4242:	7e 90 30 00 	cmp.b	#48,	r14	;#0x0030
    4246:	78 24       	jz	$+242    	;abs 0x4338
    4248:	7f 50 cd ff 	add.b	#-51,	r15	;#0xffcd
    424c:	4f 9e       	cmp.b	r14,	r15	
    424e:	19 38       	jl	$+52     	;abs 0x4282
    4250:	7e 90 2a 00 	cmp.b	#42,	r14	;#0x002a
    4254:	5b 24       	jz	$+184    	;abs 0x430c
    4256:	7f 50 fa ff 	add.b	#-6,	r15	;#0xfffa
    425a:	4f 9e       	cmp.b	r14,	r15	
    425c:	09 38       	jl	$+20     	;abs 0x4270
    425e:	7e 90 20 00 	cmp.b	#32,	r14	;#0x0020
    4262:	49 24       	jz	$+148    	;abs 0x42f6
    4264:	7e 90 23 00 	cmp.b	#35,	r14	;#0x0023
    4268:	02 24       	jz	$+6      	;abs 0x426e
    426a:	30 40 16 45 	br	#0x4516	
    426e:	32 3c       	jmp	$+102    	;abs 0x42d4
    4270:	7e 90 2b 00 	cmp.b	#43,	r14	;#0x002b
    4274:	3b 24       	jz	$+120    	;abs 0x42ec
    4276:	7e 90 2d 00 	cmp.b	#45,	r14	;#0x002d
    427a:	02 24       	jz	$+6      	;abs 0x4280
    427c:	30 40 16 45 	br	#0x4516	
    4280:	31 3c       	jmp	$+100    	;abs 0x42e4
    4282:	7f 40 39 00 	mov.b	#57,	r15	;#0x0039
    4286:	4f 9e       	cmp.b	r14,	r15	
    4288:	6c 34       	jge	$+218    	;abs 0x4362
    428a:	7e 90 58 00 	cmp.b	#88,	r14	;#0x0058
    428e:	02 24       	jz	$+6      	;abs 0x4294
    4290:	30 40 16 45 	br	#0x4516	
    4294:	a9 3c       	jmp	$+340    	;abs 0x43e8
    4296:	7e 90 70 00 	cmp.b	#112,	r14	;#0x0070
    429a:	8f 24       	jz	$+288    	;abs 0x43ba
    429c:	7f 40 70 00 	mov.b	#112,	r15	;#0x0070
    42a0:	4f 9e       	cmp.b	r14,	r15	
    42a2:	0c 38       	jl	$+26     	;abs 0x42bc
    42a4:	7e 90 69 00 	cmp.b	#105,	r14	;#0x0069
    42a8:	a3 24       	jz	$+328    	;abs 0x43f0
    42aa:	7e 90 6c 00 	cmp.b	#108,	r14	;#0x006c
    42ae:	16 24       	jz	$+46     	;abs 0x42dc
    42b0:	7e 90 64 00 	cmp.b	#100,	r14	;#0x0064
    42b4:	02 24       	jz	$+6      	;abs 0x42ba
    42b6:	30 40 16 45 	br	#0x4516	
    42ba:	9a 3c       	jmp	$+310    	;abs 0x43f0
    42bc:	7e 90 75 00 	cmp.b	#117,	r14	;#0x0075
    42c0:	99 24       	jz	$+308    	;abs 0x43f4
    42c2:	7e 90 78 00 	cmp.b	#120,	r14	;#0x0078
    42c6:	99 24       	jz	$+308    	;abs 0x43fa
    42c8:	7e 90 73 00 	cmp.b	#115,	r14	;#0x0073
    42cc:	02 24       	jz	$+6      	;abs 0x42d2
    42ce:	30 40 16 45 	br	#0x4516	
    42d2:	5d 3c       	jmp	$+188    	;abs 0x438e
    42d4:	f1 d2 00 00 	bis.b	#8,	0(r1)	;r2 As==11, 0x0000(r1)
    42d8:	30 40 26 45 	br	#0x4526	
    42dc:	d1 d3 00 00 	bis.b	#1,	0(r1)	;r3 As==01, 0x0000(r1)
    42e0:	30 40 26 45 	br	#0x4526	
    42e4:	e1 d2 00 00 	bis.b	#4,	0(r1)	;r2 As==10, 0x0000(r1)
    42e8:	30 40 26 45 	br	#0x4526	
    42ec:	f1 40 2b 00 	mov.b	#43,	1(r1)	;#0x002b, 0x0001(r1)
    42f0:	01 00 
    42f2:	30 40 26 45 	br	#0x4526	
    42f6:	f1 90 2b 00 	cmp.b	#43,	1(r1)	;#0x002b, 0x0001(r1)
    42fa:	01 00 
    42fc:	02 20       	jnz	$+6      	;abs 0x4302
    42fe:	30 40 26 45 	br	#0x4526	
    4302:	f1 40 20 00 	mov.b	#32,	1(r1)	;#0x0020, 0x0001(r1)
    4306:	01 00 
    4308:	30 40 26 45 	br	#0x4526	
    430c:	1c 41 0e 00 	mov	14(r1),	r12	;0x000e(r1)
    4310:	2c 53       	incd	r12		
    4312:	1f 41 0e 00 	mov	14(r1),	r15	;0x000e(r1)
    4316:	2e 4f       	mov	@r15,	r14	
    4318:	0e 93       	tst	r14		
    431a:	03 38       	jl	$+8      	;abs 0x4322
    431c:	81 4e 10 00 	mov	r14,	16(r1)	;0x0010(r1)
    4320:	07 3c       	jmp	$+16     	;abs 0x4330
    4322:	e1 d2 00 00 	bis.b	#4,	0(r1)	;r2 As==10, 0x0000(r1)
    4326:	3e e3       	inv	r14		
    4328:	81 4e 10 00 	mov	r14,	16(r1)	;0x0010(r1)
    432c:	91 53 10 00 	inc	16(r1)		;0x0010(r1)
    4330:	81 4c 0e 00 	mov	r12,	14(r1)	;0x000e(r1)
    4334:	30 40 26 45 	br	#0x4526	
    4338:	81 93 10 00 	tst	16(r1)		;0x0010(r1)
    433c:	12 20       	jnz	$+38     	;abs 0x4362
    433e:	6b 41       	mov.b	@r1,	r11	
    4340:	6b f2       	and.b	#4,	r11	;r2 As==10
    4342:	5a 43       	mov.b	#1,	r10	;r3 As==01
    4344:	02 24       	jz	$+6      	;abs 0x434a
    4346:	5a 41 10 00 	mov.b	16(r1),	r10	;0x0010(r1)
    434a:	5a f3       	and.b	#1,	r10	;r3 As==01
    434c:	4a 5a       	rla.b	r10		
    434e:	4a 5a       	rla.b	r10		
    4350:	4a 5a       	rla.b	r10		
    4352:	4a 5a       	rla.b	r10		
    4354:	4a 5a       	rla.b	r10		
    4356:	6b 41       	mov.b	@r1,	r11	
    4358:	7b f0 df ff 	and.b	#-33,	r11	;#0xffdf
    435c:	4b da       	bis.b	r10,	r11	
    435e:	c1 4b 00 00 	mov.b	r11,	0(r1)	;0x0000(r1)
    4362:	1b 41 10 00 	mov	16(r1),	r11	;0x0010(r1)
    4366:	0b 5b       	rla	r11		
    4368:	0b 5b       	rla	r11		
    436a:	1b 51 10 00 	add	16(r1),	r11	;0x0010(r1)
    436e:	0b 5b       	rla	r11		
    4370:	8e 11       	sxt	r14		
    4372:	3e 50 d0 ff 	add	#-48,	r14	;#0xffd0
    4376:	81 4e 10 00 	mov	r14,	16(r1)	;0x0010(r1)
    437a:	81 5b 10 00 	add	r11,	16(r1)	;0x0010(r1)
    437e:	d3 3c       	jmp	$+424    	;abs 0x4526
    4380:	1f 41 0e 00 	mov	14(r1),	r15	;0x000e(r1)
    4384:	6e 4f       	mov.b	@r15,	r14	
    4386:	2f 53       	incd	r15		
    4388:	81 4f 0e 00 	mov	r15,	14(r1)	;0x000e(r1)
    438c:	c4 3c       	jmp	$+394    	;abs 0x4516
    438e:	1b 41 0e 00 	mov	14(r1),	r11	;0x000e(r1)
    4392:	2b 53       	incd	r11		
    4394:	1f 41 0e 00 	mov	14(r1),	r15	;0x000e(r1)
    4398:	2e 4f       	mov	@r15,	r14	
    439a:	0e 93       	tst	r14		
    439c:	02 20       	jnz	$+6      	;abs 0x43a2
    439e:	3e 40 e2 41 	mov	#16866,	r14	;#0x41e2
    43a2:	2c 41       	mov	@r1,	r12	
    43a4:	1d 41 10 00 	mov	16(r1),	r13	;0x0010(r1)
    43a8:	1f 41 18 00 	mov	24(r1),	r15	;0x0018(r1)
    43ac:	b0 12 de 40 	call	#0x40de	
    43b0:	81 5f 12 00 	add	r15,	18(r1)	;0x0012(r1)
    43b4:	81 4b 0e 00 	mov	r11,	14(r1)	;0x000e(r1)
    43b8:	b4 3c       	jmp	$+362    	;abs 0x4522
    43ba:	1f 41 0e 00 	mov	14(r1),	r15	;0x000e(r1)
    43be:	a1 4f 14 00 	mov	@r15,	20(r1)	;0x0014(r1)
    43c2:	1f 41 14 00 	mov	20(r1),	r15	;0x0014(r1)
    43c6:	8f 10       	swpb	r15		
    43c8:	8f 11       	sxt	r15		
    43ca:	8f 10       	swpb	r15		
    43cc:	8f 11       	sxt	r15		
    43ce:	81 4f 16 00 	mov	r15,	22(r1)	;0x0016(r1)
    43d2:	15 41 14 00 	mov	20(r1),	r5	;0x0014(r1)
    43d6:	16 41 16 00 	mov	22(r1),	r6	;0x0016(r1)
    43da:	35 f3       	and	#-1,	r5	;r3 As==11
    43dc:	06 f3       	and	#0,	r6	;r3 As==00
    43de:	f1 d2 00 00 	bis.b	#8,	0(r1)	;r2 As==11, 0x0000(r1)
    43e2:	a1 53 0e 00 	incd	14(r1)		;0x000e(r1)
    43e6:	30 3c       	jmp	$+98     	;abs 0x4448
    43e8:	f1 d0 40 00 	bis.b	#64,	0(r1)	;#0x0040, 0x0000(r1)
    43ec:	00 00 
    43ee:	05 3c       	jmp	$+12     	;abs 0x43fa
    43f0:	e1 d3 00 00 	bis.b	#2,	0(r1)	;r3 As==10, 0x0000(r1)
    43f4:	34 40 0a 00 	mov	#10,	r4	;#0x000a
    43f8:	02 3c       	jmp	$+6      	;abs 0x43fe
    43fa:	34 40 10 00 	mov	#16,	r4	;#0x0010
    43fe:	6b 41       	mov.b	@r1,	r11	
    4400:	4c 4b       	mov.b	r11,	r12	
    4402:	5c f3       	and.b	#1,	r12	;r3 As==01
    4404:	09 24       	jz	$+20     	;abs 0x4418
    4406:	1f 41 0e 00 	mov	14(r1),	r15	;0x000e(r1)
    440a:	25 4f       	mov	@r15,	r5	
    440c:	16 4f 02 00 	mov	2(r15),	r6	;0x0002(r15)
    4410:	2f 52       	add	#4,	r15	;r2 As==10
    4412:	81 4f 0e 00 	mov	r15,	14(r1)	;0x000e(r1)
    4416:	15 3c       	jmp	$+44     	;abs 0x4442
    4418:	6b f3       	and.b	#2,	r11	;r3 As==10
    441a:	1a 41 0e 00 	mov	14(r1),	r10	;0x000e(r1)
    441e:	2a 53       	incd	r10		
    4420:	4b 9c       	cmp.b	r12,	r11	
    4422:	09 24       	jz	$+20     	;abs 0x4436
    4424:	1f 41 0e 00 	mov	14(r1),	r15	;0x000e(r1)
    4428:	25 4f       	mov	@r15,	r5	
    442a:	06 45       	mov	r5,	r6	
    442c:	86 10       	swpb	r6		
    442e:	86 11       	sxt	r6		
    4430:	86 10       	swpb	r6		
    4432:	86 11       	sxt	r6		
    4434:	04 3c       	jmp	$+10     	;abs 0x443e
    4436:	1f 41 0e 00 	mov	14(r1),	r15	;0x000e(r1)
    443a:	25 4f       	mov	@r15,	r5	
    443c:	06 43       	clr	r6		
    443e:	81 4a 0e 00 	mov	r10,	14(r1)	;0x000e(r1)
    4442:	34 90 10 00 	cmp	#16,	r4	;#0x0010
    4446:	0c 20       	jnz	$+26     	;abs 0x4460
    4448:	05 93       	tst	r5		
    444a:	02 20       	jnz	$+6      	;abs 0x4450
    444c:	06 93       	tst	r6		
    444e:	06 24       	jz	$+14     	;abs 0x445c
    4450:	f1 b2 00 00 	bit.b	#8,	0(r1)	;r2 As==11, 0x0000(r1)
    4454:	03 24       	jz	$+8      	;abs 0x445c
    4456:	f1 d0 10 00 	bis.b	#16,	0(r1)	;#0x0010, 0x0000(r1)
    445a:	00 00 
    445c:	34 40 10 00 	mov	#16,	r4	;#0x0010
    4460:	e1 b3 00 00 	bit.b	#2,	0(r1)	;r3 As==10, 0x0000(r1)
    4464:	09 24       	jz	$+20     	;abs 0x4478
    4466:	06 93       	tst	r6		
    4468:	07 34       	jge	$+16     	;abs 0x4478
    446a:	f1 40 2d 00 	mov.b	#45,	1(r1)	;#0x002d, 0x0001(r1)
    446e:	01 00 
    4470:	35 e3       	inv	r5		
    4472:	36 e3       	inv	r6		
    4474:	15 53       	inc	r5		
    4476:	06 63       	adc	r6		
    4478:	c1 43 0d 00 	mov.b	#0,	13(r1)	;r3 As==00, 0x000d(r1)
    447c:	6f 41       	mov.b	@r1,	r15	
    447e:	7f f0 40 00 	and.b	#64,	r15	;#0x0040
    4482:	c1 4f 1e 00 	mov.b	r15,	30(r1)	;0x001e(r1)
    4486:	07 41       	mov	r1,	r7	
    4488:	37 50 0b 00 	add	#11,	r7	;#0x000b
    448c:	0f 44       	mov	r4,	r15	
    448e:	8f 10       	swpb	r15		
    4490:	8f 11       	sxt	r15		
    4492:	8f 10       	swpb	r15		
    4494:	8f 11       	sxt	r15		
    4496:	81 4f 1c 00 	mov	r15,	28(r1)	;0x001c(r1)
    449a:	0f 47       	mov	r7,	r15	
    449c:	1f 53       	inc	r15		
    449e:	81 4f 20 00 	mov	r15,	32(r1)	;0x0020(r1)
    44a2:	0c 45       	mov	r5,	r12	
    44a4:	0d 46       	mov	r6,	r13	
    44a6:	0a 44       	mov	r4,	r10	
    44a8:	1b 41 1c 00 	mov	28(r1),	r11	;0x001c(r1)
    44ac:	b0 12 a6 45 	call	#0x45a6	
    44b0:	3f 40 09 00 	mov	#9,	r15	;#0x0009
    44b4:	0f 9e       	cmp	r14,	r15	
    44b6:	05 38       	jl	$+12     	;abs 0x44c2
    44b8:	7e 50 30 00 	add.b	#48,	r14	;#0x0030
    44bc:	c7 4e 01 00 	mov.b	r14,	1(r7)	;0x0001(r7)
    44c0:	0b 3c       	jmp	$+24     	;abs 0x44d8
    44c2:	c1 93 1e 00 	tst.b	30(r1)		;0x001e(r1)
    44c6:	03 24       	jz	$+8      	;abs 0x44ce
    44c8:	7f 40 37 00 	mov.b	#55,	r15	;#0x0037
    44cc:	02 3c       	jmp	$+6      	;abs 0x44d2
    44ce:	7f 40 57 00 	mov.b	#87,	r15	;#0x0057
    44d2:	4f 5e       	add.b	r14,	r15	
    44d4:	c7 4f 01 00 	mov.b	r15,	1(r7)	;0x0001(r7)
    44d8:	0c 45       	mov	r5,	r12	
    44da:	0d 46       	mov	r6,	r13	
    44dc:	0a 44       	mov	r4,	r10	
    44de:	1b 41 1c 00 	mov	28(r1),	r11	;0x001c(r1)
    44e2:	b0 12 a6 45 	call	#0x45a6	
    44e6:	05 4c       	mov	r12,	r5	
    44e8:	06 4d       	mov	r13,	r6	
    44ea:	37 53       	add	#-1,	r7	;r3 As==11
    44ec:	0c 93       	tst	r12		
    44ee:	d5 23       	jnz	$-84     	;abs 0x449a
    44f0:	06 93       	tst	r6		
    44f2:	d3 23       	jnz	$-88     	;abs 0x449a
    44f4:	34 90 0a 00 	cmp	#10,	r4	;#0x000a
    44f8:	02 24       	jz	$+6      	;abs 0x44fe
    44fa:	c1 43 01 00 	mov.b	#0,	1(r1)	;r3 As==00, 0x0001(r1)
    44fe:	2c 41       	mov	@r1,	r12	
    4500:	1d 41 10 00 	mov	16(r1),	r13	;0x0010(r1)
    4504:	1e 41 20 00 	mov	32(r1),	r14	;0x0020(r1)
    4508:	1f 41 18 00 	mov	24(r1),	r15	;0x0018(r1)
    450c:	b0 12 de 40 	call	#0x40de	
    4510:	81 5f 12 00 	add	r15,	18(r1)	;0x0012(r1)
    4514:	06 3c       	jmp	$+14     	;abs 0x4522
    4516:	8e 11       	sxt	r14		
    4518:	0f 4e       	mov	r14,	r15	
    451a:	91 12 1a 00 	call	26(r1)		;0x001a(r1)
    451e:	91 53 12 00 	inc	18(r1)		;0x0012(r1)
    4522:	0a 43       	clr	r10		
    4524:	01 3c       	jmp	$+4      	;abs 0x4528
    4526:	1a 43       	mov	#1,	r10	;r3 As==01
    4528:	91 53 1a 00 	inc	26(r1)		;0x001a(r1)
    452c:	1f 41 1a 00 	mov	26(r1),	r15	;0x001a(r1)
    4530:	6e 4f       	mov.b	@r15,	r14	
    4532:	4e 93       	tst.b	r14		
    4534:	02 24       	jz	$+6      	;abs 0x453a
    4536:	30 40 1a 42 	br	#0x421a	
    453a:	1f 41 12 00 	mov	18(r1),	r15	;0x0012(r1)
    453e:	31 50 22 00 	add	#34,	r1	;#0x0022
    4542:	34 41       	pop	r4		
    4544:	35 41       	pop	r5		
    4546:	36 41       	pop	r6		
    4548:	37 41       	pop	r7		
    454a:	38 41       	pop	r8		
    454c:	39 41       	pop	r9		
    454e:	3a 41       	pop	r10		
    4550:	3b 41       	pop	r11		
    4552:	30 41       	ret			

00004554 <__divmodhi4>:
    4554:	0d 43       	clr	r13		
    4556:	3c b0 00 80 	bit	#-32768,r12	;#0x8000
    455a:	03 28       	jnc	$+8      	;abs 0x4562
    455c:	3c e3       	inv	r12		
    455e:	1c 53       	inc	r12		
    4560:	2d d2       	bis	#4,	r13	;r2 As==10
    4562:	3a b0 00 80 	bit	#-32768,r10	;#0x8000
    4566:	03 28       	jnc	$+8      	;abs 0x456e
    4568:	3a e3       	inv	r10		
    456a:	1a 53       	inc	r10		
    456c:	3d d2       	bis	#8,	r13	;r2 As==11
    456e:	b0 12 8a 45 	call	#0x458a	
    4572:	0d 10       	rrc	r13		
    4574:	2d b2       	bit	#4,	r13	;r2 As==10
    4576:	04 28       	jnc	$+10     	;abs 0x4580
    4578:	3e e3       	inv	r14		
    457a:	1e 53       	inc	r14		
    457c:	3c e3       	inv	r12		
    457e:	1c 53       	inc	r12		
    4580:	3d b2       	bit	#8,	r13	;r2 As==11
    4582:	02 28       	jnc	$+6      	;abs 0x4588
    4584:	3c e3       	inv	r12		
    4586:	1c 53       	inc	r12		
    4588:	30 41       	ret			

0000458a <__udivmodhi4>:
    458a:	0e ee       	xor	r14,	r14	
    458c:	3b 40 11 00 	mov	#17,	r11	;#0x0011
    4590:	05 3c       	jmp	$+12     	;abs 0x459c
    4592:	0d 10       	rrc	r13		
    4594:	0e 6e       	rlc	r14		
    4596:	0e 9a       	cmp	r10,	r14	
    4598:	01 28       	jnc	$+4      	;abs 0x459c
    459a:	0e 8a       	sub	r10,	r14	
    459c:	0c 6c       	rlc	r12		
    459e:	0d 6d       	rlc	r13		
    45a0:	1b 83       	dec	r11		
    45a2:	f7 23       	jnz	$-16     	;abs 0x4592
    45a4:	30 41       	ret			

000045a6 <__udivmodsi4>:
    45a6:	0f ef       	xor	r15,	r15	
    45a8:	0e ee       	xor	r14,	r14	
    45aa:	39 40 21 00 	mov	#33,	r9	;#0x0021
    45ae:	0a 3c       	jmp	$+22     	;abs 0x45c4
    45b0:	08 10       	rrc	r8		
    45b2:	0e 6e       	rlc	r14		
    45b4:	0f 6f       	rlc	r15		
    45b6:	0f 9b       	cmp	r11,	r15	
    45b8:	05 28       	jnc	$+12     	;abs 0x45c4
    45ba:	02 20       	jnz	$+6      	;abs 0x45c0
    45bc:	0e 9a       	cmp	r10,	r14	
    45be:	02 28       	jnc	$+6      	;abs 0x45c4
    45c0:	0e 8a       	sub	r10,	r14	
    45c2:	0f 7b       	subc	r11,	r15	
    45c4:	0c 6c       	rlc	r12		
    45c6:	0d 6d       	rlc	r13		
    45c8:	08 68       	rlc	r8		
    45ca:	19 83       	dec	r9		
    45cc:	f1 23       	jnz	$-28     	;abs 0x45b0
    45ce:	30 41       	ret			

000045d0 <_unexpected_>:
    45d0:	00 13       	reti			

Disassembly of section .data:

00001100 <LCDBackColor>:
    1100:	ff 00       	suba	r0,	r15	

Disassembly of section .bss:

00001102 <LCDLineCount>:
	...

00001104 <LCDCharCount>:
	...

00001106 <LCDForeColor>:
	...

Disassembly of section .vectors:

0000ffc0 <__ivtbl_32>:
    ffc0:	ae 33       	jn	$-162    	;abs 0xff1e
    ffc2:	ae 33       	jn	$-162    	;abs 0xff20
    ffc4:	ae 33       	jn	$-162    	;abs 0xff22
    ffc6:	ae 33       	jn	$-162    	;abs 0xff24
    ffc8:	ae 33       	jn	$-162    	;abs 0xff26
    ffca:	ae 33       	jn	$-162    	;abs 0xff28
    ffcc:	ae 33       	jn	$-162    	;abs 0xff2a
    ffce:	ae 33       	jn	$-162    	;abs 0xff2c
    ffd0:	ae 33       	jn	$-162    	;abs 0xff2e
    ffd2:	ae 33       	jn	$-162    	;abs 0xff30
    ffd4:	ae 33       	jn	$-162    	;abs 0xff32
    ffd6:	ae 33       	jn	$-162    	;abs 0xff34
    ffd8:	ae 33       	jn	$-162    	;abs 0xff36
    ffda:	ae 33       	jn	$-162    	;abs 0xff38
    ffdc:	ae 33       	jn	$-162    	;abs 0xff3a
    ffde:	ae 33       	jn	$-162    	;abs 0xff3c
    ffe0:	ae 33       	jn	$-162    	;abs 0xff3e
    ffe2:	ae 33       	jn	$-162    	;abs 0xff40
    ffe4:	ae 33       	jn	$-162    	;abs 0xff42
    ffe6:	ae 33       	jn	$-162    	;abs 0xff44
    ffe8:	ae 33       	jn	$-162    	;abs 0xff46
    ffea:	ae 33       	jn	$-162    	;abs 0xff48
    ffec:	ae 33       	jn	$-162    	;abs 0xff4a
    ffee:	ae 33       	jn	$-162    	;abs 0xff4c
    fff0:	ae 33       	jn	$-162    	;abs 0xff4e
    fff2:	ae 33       	jn	$-162    	;abs 0xff50
    fff4:	ae 33       	jn	$-162    	;abs 0xff52
    fff6:	ae 33       	jn	$-162    	;abs 0xff54
    fff8:	ae 33       	jn	$-162    	;abs 0xff56
    fffa:	ae 33       	jn	$-162    	;abs 0xff58
    fffc:	ae 33       	jn	$-162    	;abs 0xff5a
    fffe:	00 31       	jn	$+514    	;abs 0x200

Disassembly of section .debug_aranges:

00000000 <.debug_aranges>:
   0:	10 00       	bra	#0x00000	
   2:	00 00       	bra	@r0		
   4:	02 00       	mova	@r0,	r2	
   6:	00 00       	bra	@r0		
   8:	00 00       	bra	@r0		
   a:	02 00       	mova	@r0,	r2	
   c:	38 31       	jn	$+626    	;abs 0x27e
   e:	70 02 00 00 	mova	r2,	0x0000	;PC rel. 0x00010
  12:	00 00       	bra	@r0		
  14:	10 00       	bra	#0x00000	
  16:	00 00       	bra	@r0		
  18:	02 00       	mova	@r0,	r2	
  1a:	f0 00       	suba	r0,	r0	
  1c:	00 00       	bra	@r0		
  1e:	02 00       	mova	@r0,	r2	
  20:	42 34       	jge	$+134    	;abs 0xa6
  22:	34 00 00 00 	mova	0x0000,	r4	;PC rel. 0x00024
  26:	00 00       	bra	@r0		
  28:	10 00       	bra	#0x00000	
  2a:	00 00       	bra	@r0		
  2c:	02 00       	mova	@r0,	r2	
  2e:	bf 01 00 00 	suba	#0x10000,r15	
  32:	02 00       	mova	@r0,	r2	
  34:	76 34       	jge	$+238    	;abs 0x122
  36:	40 01       	rram.a	#1,	r0	
  38:	00 00       	bra	@r0		
  3a:	00 00       	bra	@r0		
  3c:	10 00       	bra	#0x00000	
  3e:	00 00       	bra	@r0		
  40:	02 00       	mova	@r0,	r2	
  42:	2f 05 00 00 	mova	&0x50000,r15	
  46:	02 00       	mova	@r0,	r2	
  48:	b6 35       	jge	$+878    	;abs 0x3b6
  4a:	c6 0a       	mova	r10,	r6	
  4c:	00 00       	bra	@r0		
  4e:	00 00       	bra	@r0		
  50:	10 00       	bra	#0x00000	
  52:	00 00       	bra	@r0		
  54:	02 00       	mova	@r0,	r2	
  56:	ad 0c 00 00 	adda	#0xc0000,r13	
  5a:	02 00       	mova	@r0,	r2	
  5c:	7c 40 42 00 	mov.b	#66,	r12	;#0x0042
  60:	00 00       	bra	@r0		
  62:	00 00       	bra	@r0		
  64:	10 00       	bra	#0x00000	
  66:	00 00       	bra	@r0		
  68:	02 00       	mova	@r0,	r2	
  6a:	19 0e       	mova	@r14+,	r9	
  6c:	00 00       	bra	@r0		
  6e:	02 00       	mova	@r0,	r2	
  70:	be 40 20 00 	mov	#32,	0(r14)	;#0x0020, 0x0000(r14)
  74:	00 00 
  76:	00 00       	bra	@r0		
  78:	10 00       	bra	#0x00000	
  7a:	00 00       	bra	@r0		
  7c:	02 00       	mova	@r0,	r2	
  7e:	1c 0f       	mova	@r15+,	r12	
  80:	00 00       	bra	@r0		
  82:	02 00       	mova	@r0,	r2	
  84:	de 40 76 04 	mov.b	0x0476,	0(r14)	;PC rel. 0x004fe, 0x0000(r14)
  88:	00 00 
	...

Disassembly of section .debug_pubnames:

00000000 <.debug_pubnames>:
   0:	17 00       	mova	#0x00000,r7	
   2:	00 00       	bra	@r0		
   4:	02 00       	mova	@r0,	r2	
   6:	00 00       	bra	@r0		
   8:	00 00       	bra	@r0		
   a:	f0 00       	suba	r0,	r0	
   c:	00 00       	bra	@r0		
   e:	6b 00 00 00 	mova	r0,	&0xb0000
  12:	6d 61       	addc.b	@r1,	r13	
  14:	69 6e       	addc.b	@r14,	r9	
  16:	00 00       	bra	@r0		
  18:	00 00       	bra	@r0		
  1a:	00 40       	br	r0		
  1c:	00 00       	bra	@r0		
  1e:	00 02       	bra	#4		;r2 As==10
  20:	00 f0       	and	r0,	r0	
  22:	00 00       	bra	@r0		
  24:	00 cf       	bic	r15,	r0	
  26:	00 00       	bra	@r0		
  28:	00 21       	jnz	$+514    	;abs 0x22a
  2a:	00 00       	bra	@r0		
  2c:	00 64       	addc	r4,	r0	
  2e:	65 6c       	addc.b	@r12,	r5	
  30:	61 79       	subc.b	@r9,	r1	
  32:	32 75       	subc	@r5+,	r2	
  34:	73 00       	.word	0x0073;	????	Illegal as address instr
  36:	49 00       	rrcm.a	#1,	r9	
  38:	00 00       	bra	@r0		
  3a:	64 65       	addc.b	@r5,	r4	
  3c:	6c 61       	addc.b	@r1,	r12	
  3e:	79 35       	jge	$+756    	;abs 0x332
  40:	75 73       	subc.b	#-1,	r5	;r3 As==11
  42:	00 6a       	addc	r10,	r0	
  44:	00 00       	bra	@r0		
  46:	00 64       	addc	r4,	r0	
  48:	65 6c       	addc.b	@r12,	r5	
  4a:	61 79       	subc.b	@r9,	r1	
  4c:	75 73       	subc.b	#-1,	r5	;r3 As==11
  4e:	00 a0       	dadd	r0,	r0	
  50:	00 00       	bra	@r0		
  52:	00 64       	addc	r4,	r0	
  54:	65 6c       	addc.b	@r12,	r5	
  56:	61 79       	subc.b	@r9,	r1	
  58:	6d 73       	subc.b	#2,	r13	;r3 As==10
  5a:	00 00       	bra	@r0		
  5c:	00 00       	bra	@r0		
  5e:	00 89       	sub	r9,	r0	
  60:	00 00       	bra	@r0		
  62:	00 02       	bra	#4		;r2 As==10
  64:	00 bf       	bit	r15,	r0	
  66:	01 00       	mova	@r0,	r1	
  68:	00 70       	subc	r0,	r0	
  6a:	03 00       	.word	0x0003;	????	Illegal as address instr
  6c:	00 83       	sub	#0,	r0	;r3 As==00
  6e:	00 00       	bra	@r0		
  70:	00 69       	addc	r9,	r0	
  72:	32 63       	addc	#-1,	r2	;r3 As==11
  74:	5f 69 6e 69 	addc.b	26990(r9),r15	;0x696e(r9)
  78:	74 5f       	add.b	@r15+,	r4	
  7a:	6d 6f       	addc.b	@r15,	r13	
  7c:	64 75       	subc.b	@r5,	r4	
  7e:	6c 65       	addc.b	@r5,	r12	
  80:	00 97       	cmp	r7,	r0	
  82:	00 00       	bra	@r0		
  84:	00 69       	addc	r9,	r0	
  86:	32 63       	addc	#-1,	r2	;r3 As==11
  88:	5f 66 69 6e 	addc.b	28265(r6),r15	;0x6e69(r6)
  8c:	64 5f       	add.b	@r15,	r4	
  8e:	61 64       	addc.b	@r4,	r1	
  90:	64 72       	subc.b	#4,	r4	;r2 As==10
  92:	65 73       	subc.b	#2,	r5	;r3 As==10
  94:	73 00       	.word	0x0073;	????	Illegal as address instr
  96:	c6 00       	mova	r0,	r6	
  98:	00 00       	bra	@r0		
  9a:	69 32       	jn	$-812    	;abs 0xfd6e
  9c:	63 5f       	.word	0x5f63;	????	Illegal as 2-op instr
  9e:	72 65       	addc.b	@r5+,	r2	
  a0:	61 64       	addc.b	@r4,	r1	
  a2:	5f 62 79 74 	addc.b	&0x7479,r15	
  a6:	65 00 10 01 	mova	r0,	&0x50110
  aa:	00 00       	bra	@r0		
  ac:	69 32       	jn	$-812    	;abs 0xfd80
  ae:	63 5f       	.word	0x5f63;	????	Illegal as 2-op instr
  b0:	77 72       	subc.b	#8,	r7	;r2 As==11
  b2:	69 74       	subc.b	@r4,	r9	
  b4:	65 5f       	add.b	@r15,	r5	
  b6:	62 79       	subc.b	@r9,	r2	
  b8:	74 65       	addc.b	@r5+,	r4	
  ba:	00 47       	br	r7		
  bc:	01 00       	mova	@r0,	r1	
  be:	00 69       	addc	r9,	r0	
  c0:	32 63       	addc	#-1,	r2	;r3 As==11
  c2:	5f 72 65 61 	subc.b	&0x6165,r15	
  c6:	64 5f       	add.b	@r15,	r4	
  c8:	72 65       	addc.b	@r5+,	r2	
  ca:	67 69       	addc.b	@r9,	r7	
  cc:	73 74       	.word	0x7473;	????	Illegal as 2-op instr
  ce:	65 72       	subc.b	#4,	r5	;r2 As==10
  d0:	00 9d       	cmp	r13,	r0	
  d2:	01 00       	mova	@r0,	r1	
  d4:	00 69       	addc	r9,	r0	
  d6:	32 63       	addc	#-1,	r2	;r3 As==11
  d8:	5f 77 72 69 	subc.b	26994(r7),r15	;0x6972(r7)
  dc:	74 65       	addc.b	@r5+,	r4	
  de:	5f 72 65 67 	subc.b	&0x6765,r15	
  e2:	69 73       	subc.b	#2,	r9	;r3 As==10
  e4:	74 65       	addc.b	@r5+,	r4	
  e6:	72 00 00 00 	mova	r0,	&0x0000	
  ea:	00 00       	bra	@r0		
  ec:	88 01 00 00 	mova	#0x10000,r8	
  f0:	02 00       	mova	@r0,	r2	
  f2:	2f 05 00 00 	mova	&0x50000,r15	
  f6:	7e 07 00 00 	mova	r7,	0(r14)	;0x0000(r14)
  fa:	96 00 00 00 	cmpa	#0x00000,r6	
  fe:	6c 63       	addc.b	#2,	r12	;r3 As==10
 100:	64 5f       	add.b	@r15,	r4	
 102:	73 65       	.word	0x6573;	????	Illegal as 2-op instr
 104:	74 63       	addc.b	#-1,	r4	;r3 As==11
 106:	6f 6c       	addc.b	@r12,	r15	
 108:	6f 72       	subc.b	#4,	r15	;r2 As==10
 10a:	00 c5       	bic	r5,	r0	
 10c:	00 00       	bra	@r0		
 10e:	00 6e       	addc	r14,	r0	
 110:	36 31       	jn	$+622    	;abs 0x37e
 112:	30 30       	jn	$+98     	;abs 0x174
 114:	5f 73       	subc.b	#1,	r15	;r3 As==01
 116:	65 6e       	addc.b	@r14,	r5	
 118:	64 00 11 01 	mova	r0,	&0x40111
 11c:	00 00       	bra	@r0		
 11e:	6e 36       	jge	$-802    	;abs 0xfdfc
 120:	31 30       	jn	$+100    	;abs 0x184
 122:	30 5f       	add	@r15+,	r0	
 124:	73 65       	.word	0x6573;	????	Illegal as 2-op instr
 126:	6e 64       	addc.b	@r4,	r14	
 128:	63 6f       	.word	0x6f63;	????	Illegal as 2-op instr
 12a:	6d 31       	jn	$+732    	;abs 0x406
 12c:	00 48       	br	r8		
 12e:	01 00       	mova	@r0,	r1	
 130:	00 6e       	addc	r14,	r0	
 132:	36 31       	jn	$+622    	;abs 0x3a0
 134:	30 30       	jn	$+98     	;abs 0x196
 136:	5f 73       	subc.b	#1,	r15	;r3 As==01
 138:	65 6e       	addc.b	@r14,	r5	
 13a:	64 63       	addc.b	#2,	r4	;r3 As==10
 13c:	6f 6d       	addc.b	@r13,	r15	
 13e:	32 00 8f 01 	mova	0x018f,	r2	;PC rel. 0x002cf
 142:	00 00       	bra	@r0		
 144:	6c 63       	addc.b	#2,	r12	;r3 As==10
 146:	64 5f       	add.b	@r15,	r4	
 148:	66 69       	addc.b	@r9,	r6	
 14a:	6c 6c       	addc.b	@r12,	r12	
 14c:	72 65       	addc.b	@r5+,	r2	
 14e:	63 74       	.word	0x7463;	????	Illegal as 2-op instr
 150:	00 0f       	bra	@r15		
 152:	02 00       	mova	@r0,	r2	
 154:	00 6c       	addc	r12,	r0	
 156:	63 64       	.word	0x6463;	????	Illegal as 2-op instr
 158:	5f 63       	addc.b	#1,	r15	;r3 As==01
 15a:	6c 65       	addc.b	@r5,	r12	
 15c:	61 72       	subc.b	#4,	r1	;r2 As==10
 15e:	00 36       	jge	$-1022   	;abs 0xfd60
 160:	02 00       	mova	@r0,	r2	
 162:	00 6c       	addc	r12,	r0	
 164:	63 64       	.word	0x6463;	????	Illegal as 2-op instr
 166:	5f 69 6e 69 	addc.b	26990(r9),r15	;0x696e(r9)
 16a:	74 00 5b 02 	mova	r0,	603(r4)	;0x025b(r4)
 16e:	00 00       	bra	@r0		
 170:	6c 63       	addc.b	#2,	r12	;r3 As==10
 172:	64 5f       	add.b	@r15,	r4	
 174:	64 72       	subc.b	#4,	r4	;r2 As==10
 176:	61 77       	subc.b	@r7,	r1	
 178:	63 69       	.word	0x6963;	????	Illegal as 2-op instr
 17a:	72 63       	addc.b	#-1,	r2	;r3 As==11
 17c:	6c 65       	addc.b	@r5,	r12	
 17e:	00 09       	bra	@r9		
 180:	03 00       	.word	0x0003;	????	Illegal as address instr
 182:	00 6c       	addc	r12,	r0	
 184:	63 64       	.word	0x6463;	????	Illegal as 2-op instr
 186:	5f 64 72 61 	addc.b	24946(r4),r15	;0x6172(r4)
 18a:	77 70 6f 69 	subc.b	#26991,	r7	;#0x696f
 18e:	6e 74       	subc.b	@r4,	r14	
 190:	00 4c       	br	r12		
 192:	03 00       	.word	0x0003;	????	Illegal as address instr
 194:	00 6c       	addc	r12,	r0	
 196:	63 64       	.word	0x6463;	????	Illegal as 2-op instr
 198:	5f 64 72 61 	addc.b	24946(r4),r15	;0x6172(r4)
 19c:	77 6c       	addc.b	@r12+,	r7	
 19e:	69 6e       	addc.b	@r14,	r9	
 1a0:	65 00 1c 04 	mova	r0,	&0x5041c
 1a4:	00 00       	bra	@r0		
 1a6:	6c 63       	addc.b	#2,	r12	;r3 As==10
 1a8:	64 5f       	add.b	@r15,	r4	
 1aa:	70 75       	subc.b	@r5+,	r0	
 1ac:	74 6c       	addc.b	@r12+,	r4	
 1ae:	6f 67       	addc.b	@r7,	r15	
 1b0:	6f 00 a0 04 	mova	r0,	&0xf04a0
 1b4:	00 00       	bra	@r0		
 1b6:	6c 63       	addc.b	#2,	r12	;r3 As==10
 1b8:	64 5f       	add.b	@r15,	r4	
 1ba:	6e 65       	addc.b	@r5,	r14	
 1bc:	77 6c       	addc.b	@r12+,	r7	
 1be:	69 6e       	addc.b	@r14,	r9	
 1c0:	65 00 ac 04 	mova	r0,	&0x504ac
 1c4:	00 00       	bra	@r0		
 1c6:	6c 63       	addc.b	#2,	r12	;r3 As==10
 1c8:	64 5f       	add.b	@r15,	r4	
 1ca:	67 6f       	addc.b	@r15,	r7	
 1cc:	74 6f       	addc.b	@r15+,	r4	
 1ce:	00 cf       	bic	r15,	r0	
 1d0:	04 00       	mova	@r0,	r4	
 1d2:	00 6c       	addc	r12,	r0	
 1d4:	63 64       	.word	0x6463;	????	Illegal as 2-op instr
 1d6:	5f 77 72 63 	subc.b	25458(r7),r15	;0x6372(r7)
 1da:	68 61       	addc.b	@r1,	r8	
 1dc:	72 00 38 05 	mova	r0,	&0x0538	
 1e0:	00 00       	bra	@r0		
 1e2:	6c 63       	addc.b	#2,	r12	;r3 As==10
 1e4:	64 5f       	add.b	@r15,	r4	
 1e6:	70 75       	subc.b	@r5+,	r0	
 1e8:	74 63       	addc.b	#-1,	r4	;r3 As==11
 1ea:	68 61       	addc.b	@r1,	r8	
 1ec:	72 00 76 05 	mova	r0,	&0x0576	
 1f0:	00 00       	bra	@r0		
 1f2:	70 75       	subc.b	@r5+,	r0	
 1f4:	74 63       	addc.b	#-1,	r4	;r3 As==11
 1f6:	68 61       	addc.b	@r1,	r8	
 1f8:	72 00 9c 05 	mova	r0,	&0x059c	
 1fc:	00 00       	bra	@r0		
 1fe:	6c 63       	addc.b	#2,	r12	;r3 As==10
 200:	64 5f       	add.b	@r15,	r4	
 202:	64 72       	subc.b	#4,	r4	;r2 As==10
 204:	61 77       	subc.b	@r7,	r1	
 206:	70 72       	subc.b	#8,	r0	;r2 As==11
 208:	6f 67       	addc.b	@r7,	r15	
 20a:	72 65       	addc.b	@r5+,	r2	
 20c:	73 73       	.word	0x7373;	????	Illegal as 2-op instr
 20e:	62 61       	addc.b	@r1,	r2	
 210:	72 00 2d 06 	mova	r0,	&0x062d	
 214:	00 00       	bra	@r0		
 216:	6c 63       	addc.b	#2,	r12	;r3 As==10
 218:	64 5f       	add.b	@r15,	r4	
 21a:	70 75       	subc.b	@r5+,	r0	
 21c:	74 64       	addc.b	@r4+,	r4	
 21e:	6f 74       	subc.b	@r4,	r15	
 220:	00 28       	jnc	$+2      	;abs 0x222
 222:	07 00       	mova	@r0,	r7	
 224:	00 4c       	br	r12		
 226:	43 44       	.word	0x4443;	????	Illegal as 2-op instr
 228:	4c 69       	addc.b	r9,	r12	
 22a:	6e 65       	addc.b	@r5,	r14	
 22c:	43 6f       	.word	0x6f43;	????	Illegal as 2-op instr
 22e:	75 6e       	addc.b	@r14+,	r5	
 230:	74 00 38 07 	mova	r0,	1848(r4);0x0738(r4)
 234:	00 00       	bra	@r0		
 236:	4c 43       	clr.b	r12		
 238:	44 43       	clr.b	r4		
 23a:	68 61       	addc.b	@r1,	r8	
 23c:	72 43       	mov.b	#-1,	r2	;r3 As==11
 23e:	6f 75       	subc.b	@r5,	r15	
 240:	6e 74       	subc.b	@r4,	r14	
 242:	00 48       	br	r8		
 244:	07 00       	mova	@r0,	r7	
 246:	00 4c       	br	r12		
 248:	43 44       	.word	0x4443;	????	Illegal as 2-op instr
 24a:	42 61       	addc.b	r1,	r2	
 24c:	63 6b       	.word	0x6b63;	????	Illegal as 2-op instr
 24e:	43 6f       	.word	0x6f43;	????	Illegal as 2-op instr
 250:	6c 6f       	addc.b	@r15,	r12	
 252:	72 00 58 07 	mova	r0,	&0x0758	
 256:	00 00       	bra	@r0		
 258:	4c 43       	clr.b	r12		
 25a:	44 46       	mov.b	r6,	r4	
 25c:	6f 72       	subc.b	#4,	r15	;r2 As==10
 25e:	65 43       	mov.b	#2,	r5	;r3 As==10
 260:	6f 6c       	addc.b	@r12,	r15	
 262:	6f 72       	subc.b	#4,	r15	;r2 As==10
 264:	00 68       	addc	r8,	r0	
 266:	07 00       	mova	@r0,	r7	
 268:	00 61       	addc	r1,	r0	
 26a:	73 63       	.word	0x6373;	????	Illegal as 2-op instr
 26c:	69 69       	addc.b	@r9,	r9	
 26e:	74 61       	addc.b	@r1+,	r4	
 270:	62 6c       	addc.b	@r12,	r2	
 272:	65 00 00 00 	mova	r0,	&0x50000
 276:	00 00       	bra	@r0		
 278:	30 00 00 00 	bra	0x0000		;PC rel. 0x0027a
 27c:	02 00       	mova	@r0,	r2	
 27e:	ad 0c 00 00 	adda	#0xc0000,r13	
 282:	6c 01 00 00 	mova	r1,	&0xc0000
 286:	2b 00 00 00 	mova	&0x00000,r11	
 28a:	63 6c       	.word	0x6c63;	????	Illegal as 2-op instr
 28c:	6f 63       	addc.b	#2,	r15	;r3 As==10
 28e:	6b 5f       	add.b	@r15,	r11	
 290:	69 6e       	addc.b	@r14,	r9	
 292:	69 74       	subc.b	@r4,	r9	
 294:	00 37       	jge	$-510    	;abs 0x96
 296:	00 00       	bra	@r0		
 298:	00 68       	addc	r8,	r0	
 29a:	61 72       	subc.b	#4,	r1	;r2 As==10
 29c:	64 77       	subc.b	@r7,	r4	
 29e:	61 72       	subc.b	#4,	r1	;r2 As==10
 2a0:	65 5f       	add.b	@r15,	r5	
 2a2:	73 65       	.word	0x6573;	????	Illegal as 2-op instr
 2a4:	74 75       	subc.b	@r5+,	r4	
 2a6:	70 00 00 00 	mova	r0,	0x0000	;PC rel. 0x002a8
 2aa:	00 00       	bra	@r0		
 2ac:	25 00 00 00 	mova	&0x00000,r5	
 2b0:	02 00       	mova	@r0,	r2	
 2b2:	19 0e       	mova	@r14+,	r9	
 2b4:	00 00       	bra	@r0		
 2b6:	03 01       	.word	0x0103;	????	Illegal as address instr
 2b8:	00 00       	bra	@r0		
 2ba:	8e 00 00 00 	mova	#0x00000,r14	
 2be:	70 72       	subc.b	#8,	r0	;r2 As==11
 2c0:	69 6e       	addc.b	@r14,	r9	
 2c2:	74 66       	addc.b	@r6+,	r4	
 2c4:	00 cf       	bic	r15,	r0	
 2c6:	00 00       	bra	@r0		
 2c8:	00 76       	subc	r6,	r0	
 2ca:	70 72       	subc.b	#8,	r0	;r2 As==11
 2cc:	69 6e       	addc.b	@r14,	r9	
 2ce:	74 66       	addc.b	@r6+,	r4	
 2d0:	00 00       	bra	@r0		
 2d2:	00 00       	bra	@r0		
 2d4:	00 1b       	.word	0x1b00;	????	
 2d6:	00 00       	bra	@r0		
 2d8:	00 02       	bra	#4		;r2 As==10
 2da:	00 1c       	.word	0x1c00;	????	
 2dc:	0f 00       	mova	@r0,	r15	
 2de:	00 b5       	bit	r5,	r0	
 2e0:	03 00       	.word	0x0003;	????	Illegal as address instr
 2e2:	00 79       	subc	r9,	r0	
 2e4:	02 00       	mova	@r0,	r2	
 2e6:	00 76       	subc	r6,	r0	
 2e8:	75 70 72 69 	subc.b	#26994,	r5	;#0x6972
 2ec:	6e 74       	subc.b	@r4,	r14	
 2ee:	66 00 00 00 	mova	r0,	&0x60000
	...

Disassembly of section .debug_info:

00000000 <.debug_info>:
       0:	ec 00       	adda	r0,	r12	
       2:	00 00       	bra	@r0		
       4:	02 00       	mova	@r0,	r2	
       6:	00 00       	bra	@r0		
       8:	00 00       	bra	@r0		
       a:	02 01       	mova	@r1,	r2	
       c:	8e 00 00 00 	mova	#0x00000,r14	
      10:	01 0e       	mova	@r14,	r1	
      12:	00 00       	bra	@r0		
      14:	00 1a       	.word	0x1a00;	????	
	...
      22:	00 00       	bra	@r0		
      24:	00 02       	bra	#4		;r2 As==10
      26:	04 05       	mova	@r5,	r4	
      28:	05 00       	mova	@r0,	r5	
      2a:	00 00       	bra	@r0		
      2c:	02 02       	mova	#4,	r2	;r2 As==10
      2e:	07 6e       	addc	r14,	r7	
      30:	00 00       	bra	@r0		
      32:	00 03       	bra	#2		;r3 As==10
      34:	02 05       	mova	@r5,	r2	
      36:	69 6e       	addc.b	@r14,	r9	
      38:	74 00 02 01 	mova	r0,	258(r4)	;0x0102(r4)
      3c:	06 9c       	cmp	r12,	r6	
      3e:	00 00       	bra	@r0		
      40:	00 02       	bra	#4		;r2 As==10
      42:	08 05       	mova	@r5,	r8	
      44:	00 00       	bra	@r0		
      46:	00 00       	bra	@r0		
      48:	02 01       	mova	@r1,	r2	
      4a:	08 9a       	cmp	r10,	r8	
      4c:	00 00       	bra	@r0		
      4e:	00 02       	bra	#4		;r2 As==10
      50:	04 07       	mova	@r7,	r4	
      52:	69 00 00 00 	mova	r0,	&0x90000
      56:	02 08       	mova	@r8,	r2	
      58:	07 64       	addc	r4,	r7	
      5a:	00 00       	bra	@r0		
      5c:	00 02       	bra	#4		;r2 As==10
      5e:	02 07       	mova	@r7,	r2	
      60:	cb 00       	mova	r0,	r11	
      62:	00 00       	bra	@r0		
      64:	02 01       	mova	@r1,	r2	
      66:	06 a3       	dadc	r6		
      68:	00 00       	bra	@r0		
      6a:	00 04       	bra	@r4		
      6c:	01 a8       	dadd	r8,	r1	
      6e:	00 00       	bra	@r0		
      70:	00 01       	bra	@r1		
      72:	14 01       	mova	@r1+,	r4	
      74:	33 00       	.word	0x0033;	????	Illegal as address instr
      76:	00 00       	bra	@r0		
      78:	38 31       	jn	$+626    	;abs 0x2ea
      7a:	a8 33       	jn	$-174    	;abs 0xffcc
      7c:	00 00       	bra	@r0		
      7e:	00 00       	bra	@r0		
      80:	ac 00 00 00 	adda	#0x00000,r12	
      84:	05 7b       	subc	r11,	r5	
      86:	00 00       	bra	@r0		
      88:	00 01       	bra	@r1		
      8a:	15 48 00 00 	mov	0(r8),	r5	;0x0000(r8)
      8e:	00 68       	addc	r8,	r0	
      90:	05 ad       	dadd	r13,	r5	
      92:	00 00       	bra	@r0		
      94:	00 01       	bra	@r1		
      96:	16 48 00 00 	mov	0(r8),	r6	;0x0000(r8)
      9a:	00 50       	rla	r0		
      9c:	06 15       	pushm	#1,	r6	
      9e:	00 00       	bra	@r0		
      a0:	00 01       	bra	@r1		
      a2:	18 48 00 00 	mov	0(r8),	r8	;0x0000(r8)
      a6:	00 7c       	subc	r12,	r0	
      a8:	01 00       	mova	@r0,	r1	
      aa:	00 00       	bra	@r0		
      ac:	07 57       	rla	r7		
      ae:	00 00       	bra	@r0		
      b0:	00 02       	bra	#4		;r2 As==10
      b2:	3a 48       	mov	@r8+,	r10	
      b4:	00 00       	bra	@r0		
      b6:	00 01       	bra	@r1		
      b8:	01 08       	mova	@r8,	r1	
      ba:	c2 00       	mova	r0,	r2	
      bc:	00 00       	bra	@r0		
      be:	03 f3       	.word	0xf303;	????	Illegal as 2-op instr
      c0:	04 bf       	bit	r15,	r4	
      c2:	00 00       	bra	@r0		
      c4:	00 cb       	bic	r11,	r0	
      c6:	00 00       	bra	@r0		
      c8:	00 01       	bra	@r1		
      ca:	01 09       	mova	@r9,	r1	
      cc:	48 00       	rrcm.a	#1,	r8	
      ce:	00 00       	bra	@r0		
      d0:	07 57       	rla	r7		
      d2:	00 00       	bra	@r0		
      d4:	00 02       	bra	#4		;r2 As==10
      d6:	3a 48       	mov	@r8+,	r10	
      d8:	00 00       	bra	@r0		
      da:	00 01       	bra	@r1		
      dc:	01 08       	mova	@r8,	r1	
      de:	c2 00       	mova	r0,	r2	
      e0:	00 00       	bra	@r0		
      e2:	03 f3       	.word	0xf303;	????	Illegal as 2-op instr
      e4:	04 bf       	bit	r15,	r4	
      e6:	00 00       	bra	@r0		
      e8:	00 cb       	bic	r11,	r0	
      ea:	00 00       	bra	@r0		
      ec:	00 01       	bra	@r1		
      ee:	01 00       	mova	@r0,	r1	
      f0:	cb 00       	mova	r0,	r11	
      f2:	00 00       	bra	@r0		
      f4:	02 00       	mova	@r0,	r2	
      f6:	8f 00 00 00 	mova	#0x00000,r15	
      fa:	02 01       	mova	@r1,	r2	
      fc:	8e 00 00 00 	mova	#0x00000,r14	
     100:	01 fd       	and	r13,	r1	
     102:	00 00       	bra	@r0		
     104:	00 1a       	.word	0x1a00;	????	
     106:	00 00       	bra	@r0		
     108:	00 42       	br	r2		
     10a:	34 76       	subc	@r6+,	r4	
     10c:	34 ef       	xor	@r15+,	r4	
     10e:	01 00       	mova	@r0,	r1	
     110:	00 02       	bra	#4		;r2 As==10
     112:	01 05       	mova	@r5,	r1	
     114:	01 00       	mova	@r0,	r1	
     116:	00 01       	bra	@r1		
     118:	04 01       	mova	@r1,	r4	
     11a:	42 34       	jge	$+134    	;abs 0x1a0
     11c:	44 34       	jge	$+138    	;abs 0x1a6
     11e:	02 71       	subc	r1,	r2	
     120:	02 42       	mov	r2,	r2	
     122:	00 00       	bra	@r0		
     124:	00 03       	bra	#2		;r3 As==10
     126:	de 00       	cmpa	r0,	r14	
     128:	00 00       	bra	@r0		
     12a:	01 06       	mova	@r6,	r1	
     12c:	42 00       	rrcm.a	#1,	r2	
     12e:	00 00       	bra	@r0		
     130:	05 00       	mova	@r0,	r5	
     132:	04 02       	mova	#4,	r4	;r2 As==10
     134:	07 6e       	addc	r14,	r7	
     136:	00 00       	bra	@r0		
     138:	00 02       	bra	#4		;r2 As==10
     13a:	01 ec       	xor	r12,	r1	
     13c:	00 00       	bra	@r0		
     13e:	00 01       	bra	@r1		
     140:	0c 01       	mova	@r1,	r12	
     142:	44 34       	jge	$+138    	;abs 0x1cc
     144:	46 34       	jge	$+142    	;abs 0x1d2
     146:	02 71       	subc	r1,	r2	
     148:	02 6a       	addc	r10,	r2	
     14a:	00 00       	bra	@r0		
     14c:	00 03       	bra	#2		;r3 As==10
     14e:	de 00       	cmpa	r0,	r14	
     150:	00 00       	bra	@r0		
     152:	01 0e       	mova	@r14,	r1	
     154:	42 00       	rrcm.a	#1,	r2	
     156:	00 00       	bra	@r0		
     158:	10 00       	bra	#0x00000	
     15a:	02 01       	mova	@r1,	r2	
     15c:	f5 00       	suba	r0,	r5	
     15e:	00 00       	bra	@r0		
     160:	01 16       	popm.a	#1,	r1	
     162:	01 46       	mov	r6,	r1	
     164:	34 56       	add	@r6+,	r4	
     166:	34 02 71 02 	mova	&0x0271,r4	
     16a:	99 00 00 00 	cmpa	#0x00000,r9	
     16e:	05 de       	bis	r14,	r5	
     170:	00 00       	bra	@r0		
     172:	00 01       	bra	@r1		
     174:	16 42 00 00 	mov	&0x0000,r6	
     178:	00 01       	bra	@r1		
     17a:	5f 06       	rlam	#2,	r15	
     17c:	69 00 01 18 	mova	r0,	&0x91801
     180:	99 00 00 00 	cmpa	#0x00000,r9	
     184:	52 02       	rlam	#1,	r2	
     186:	00 00       	bra	@r0		
     188:	00 07       	bra	@r7		
     18a:	02 05       	mova	@r5,	r2	
     18c:	69 6e       	addc.b	@r14,	r9	
     18e:	74 00 08 01 	mova	r0,	264(r4)	;0x0108(r4)
     192:	e4 00       	adda	r0,	r4	
     194:	00 00       	bra	@r0		
     196:	01 1f 01 56 	.rpt	#1
				addx	r6,	r1	
     19a:	34 76       	subc	@r6+,	r4	
     19c:	34 65       	addc	@r5+,	r4	
     19e:	02 00       	mova	@r0,	r2	
     1a0:	00 09       	bra	@r9		
     1a2:	de 00       	cmpa	r0,	r14	
     1a4:	00 00       	bra	@r0		
     1a6:	01 1f       	.word	0x1f01;	????	
     1a8:	42 00       	rrcm.a	#1,	r2	
     1aa:	00 00       	bra	@r0		
     1ac:	81 02 00 00 	mova	#0x20000,r1	
     1b0:	06 69       	addc	r9,	r6	
     1b2:	00 01       	bra	@r1		
     1b4:	21 99       	cmp	@r9,	r1	
     1b6:	00 00       	bra	@r0		
     1b8:	00 93       	tst	r0		
     1ba:	02 00       	mova	@r0,	r2	
     1bc:	00 00       	bra	@r0		
     1be:	00 6c       	addc	r12,	r0	
     1c0:	03 00       	.word	0x0003;	????	Illegal as address instr
     1c2:	00 02       	bra	#4		;r2 As==10
     1c4:	00 21       	jnz	$+514    	;abs 0x3c6
     1c6:	01 00       	mova	@r0,	r1	
     1c8:	00 02       	bra	#4		;r2 As==10
     1ca:	01 8e       	sub	r14,	r1	
     1cc:	00 00       	bra	@r0		
     1ce:	00 01       	bra	@r1		
     1d0:	ee 01       	adda	r1,	r14	
     1d2:	00 00       	bra	@r0		
     1d4:	1a 00       	mova	#0x00000,r10	
     1d6:	00 00       	bra	@r0		
     1d8:	76 34       	jge	$+238    	;abs 0x2c6
     1da:	b6 35       	jge	$+878    	;abs 0x548
     1dc:	5e 02       	rlam	#1,	r14	
     1de:	00 00       	bra	@r0		
     1e0:	02 02       	mova	#4,	r2	;r2 As==10
     1e2:	03 26       	jz	$-1016   	;abs 0xfdea
     1e4:	78 00 00 00 	mova	r0,	0(r8)	;0x0000(r8)
     1e8:	03 95       	.word	0x9503;	????	Illegal as 2-op instr
     1ea:	02 00       	mova	@r0,	r2	
     1ec:	00 00       	bra	@r0		
     1ee:	03 43       	nop			
     1f0:	01 00       	mova	@r0,	r1	
     1f2:	00 01       	bra	@r1		
     1f4:	03 1d       	.word	0x1d03;	????	
     1f6:	02 00       	mova	@r0,	r2	
     1f8:	00 02       	bra	#4		;r2 As==10
     1fa:	03 56       	.word	0x5603;	????	Illegal as 2-op instr
     1fc:	02 00       	mova	@r0,	r2	
     1fe:	00 03       	bra	#2		;r3 As==10
     200:	03 b6       	.word	0xb603;	????	Illegal as 2-op instr
     202:	02 00       	mova	@r0,	r2	
     204:	00 04       	bra	@r4		
     206:	03 1b       	.word	0x1b03;	????	
     208:	01 00       	mova	@r0,	r1	
     20a:	00 05       	bra	@r5		
     20c:	03 0e       	.word	0x0e03;	????	Illegal as address instr
     20e:	02 00       	mova	@r0,	r2	
     210:	00 06       	bra	@r6		
     212:	03 d5       	.word	0xd503;	????	Illegal as 2-op instr
     214:	02 00       	mova	@r0,	r2	
     216:	00 07       	bra	@r7		
     218:	03 48       	.word	0x4803;	????	Illegal as 2-op instr
     21a:	02 00       	mova	@r0,	r2	
     21c:	00 08       	bra	@r8		
     21e:	03 87       	.word	0x8703;	????	Illegal as 2-op instr
     220:	01 00       	mova	@r0,	r1	
     222:	00 09       	bra	@r9		
     224:	03 9e       	.word	0x9e03;	????	Illegal as 2-op instr
     226:	01 00       	mova	@r0,	r1	
     228:	00 0a       	bra	@r10		
     22a:	03 a3       	dadc	#0		;r3 As==00
     22c:	02 00       	mova	@r0,	r2	
     22e:	00 0b       	bra	@r11		
     230:	03 db       	.word	0xdb03;	????	Illegal as 2-op instr
     232:	01 00       	mova	@r0,	r1	
     234:	00 0c       	bra	@r12		
     236:	00 04       	bra	@r4		
     238:	64 02 00 00 	mova	r2,	&0x40000
     23c:	03 34       	jge	$+8      	;abs 0x244
     23e:	21 00 00 00 	mova	&0x00000,r1	
     242:	05 01       	mova	@r1,	r5	
     244:	38 02 00 00 	mova	&0x0000,r8	
     248:	01 07       	mova	@r7,	r1	
     24a:	01 78       	subc	r8,	r1	
     24c:	00 00       	bra	@r0		
     24e:	00 76       	subc	r6,	r0	
     250:	34 c0 34 02 	bic	#564,	r4	;#0x0234
     254:	71 02 06 01 	mova	r2,	262(r1)	;0x0106(r1)
     258:	29 01 00 00 	mova	&0x10000,r9	
     25c:	01 36       	jge	$-1020   	;abs 0xfe60
     25e:	01 78       	subc	r8,	r1	
     260:	00 00       	bra	@r0		
     262:	00 c0       	bic	r0,	r0	
     264:	34 e6       	xor	@r6+,	r4	
     266:	34 02 71 02 	mova	&0x0271,r4	
     26a:	bf 00 00 00 	suba	#0x00000,r15	
     26e:	07 ce       	bic	r14,	r7	
     270:	01 00       	mova	@r0,	r1	
     272:	00 01       	bra	@r1		
     274:	36 bf       	bit	@r15+,	r6	
     276:	00 00       	bra	@r0		
     278:	00 a6       	dadd	r6,	r0	
     27a:	02 00       	mova	@r0,	r2	
     27c:	00 00       	bra	@r0		
     27e:	08 01       	mova	@r1,	r8	
     280:	08 9a       	cmp	r10,	r8	
     282:	00 00       	bra	@r0		
     284:	00 06       	bra	@r6		
     286:	01 b4       	bit	r4,	r1	
     288:	01 00       	mova	@r0,	r1	
     28a:	00 01       	bra	@r1		
     28c:	67 01 78 00 	mova	r1,	&0x70078
     290:	00 00       	bra	@r0		
     292:	e6 34       	jge	$+462    	;abs 0x460
     294:	16 35       	jge	$+558    	;abs 0x4c2
     296:	02 71       	subc	r1,	r2	
     298:	02 0a       	mova	@r10,	r2	
     29a:	01 00       	mova	@r0,	r1	
     29c:	00 07       	bra	@r7		
     29e:	50 01       	rram	#1,	r0	
     2a0:	00 00       	bra	@r0		
     2a2:	01 67       	addc	r7,	r1	
     2a4:	bf 00 00 00 	suba	#0x00000,r15	
     2a8:	b1 02 00 00 	suba	#0x20000,r1	
     2ac:	09 6c       	addc	r12,	r9	
     2ae:	01 00       	mova	@r0,	r1	
     2b0:	00 01       	bra	@r1		
     2b2:	67 bf       	bit.b	@r15,	r7	
     2b4:	00 00       	bra	@r0		
     2b6:	00 01       	bra	@r1		
     2b8:	5e 07       	rrum	#2,	r14	
     2ba:	15 00       	mova	#0x00000,r5	
     2bc:	00 00       	bra	@r0		
     2be:	01 67       	addc	r7,	r1	
     2c0:	0a 01       	mova	@r1,	r10	
     2c2:	00 00       	bra	@r0		
     2c4:	c3 02       	.word	0x02c3;	????	Illegal as address instr
     2c6:	00 00       	bra	@r0		
     2c8:	00 0a       	bra	@r10		
     2ca:	02 bf       	bit	r15,	r2	
     2cc:	00 00       	bra	@r0		
     2ce:	00 06       	bra	@r6		
     2d0:	01 f4       	and	r4,	r1	
     2d2:	01 00       	mova	@r0,	r1	
     2d4:	00 01       	bra	@r1		
     2d6:	74 01 78 00 	mova	r1,	120(r4)	;0x0078(r4)
     2da:	00 00       	bra	@r0		
     2dc:	16 35       	jge	$+558    	;abs 0x50a
     2de:	4e 35       	jge	$+670    	;abs 0x57c
     2e0:	02 71       	subc	r1,	r2	
     2e2:	02 47       	mov	r7,	r2	
     2e4:	01 00       	mova	@r0,	r1	
     2e6:	00 07       	bra	@r7		
     2e8:	6c 01 00 00 	mova	r1,	&0xc0000
     2ec:	01 74       	subc	r4,	r1	
     2ee:	bf 00 00 00 	suba	#0x00000,r15	
     2f2:	ce 02       	mova	r2,	r14	
     2f4:	00 00       	bra	@r0		
     2f6:	07 15       	pushm	#1,	r7	
     2f8:	00 00       	bra	@r0		
     2fa:	00 01       	bra	@r1		
     2fc:	74 bf       	bit.b	@r15+,	r4	
     2fe:	00 00       	bra	@r0		
     300:	00 e7       	xor	r7,	r0	
     302:	02 00       	mova	@r0,	r2	
     304:	00 00       	bra	@r0		
     306:	0b 01       	mova	@r1,	r11	
     308:	75 01 00 00 	mova	r1,	0(r5)	;0x0000(r5)
     30c:	01 4f       	mov	r15,	r1	
     30e:	01 78       	subc	r8,	r1	
     310:	00 00       	bra	@r0		
     312:	00 4e       	br	r14		
     314:	35 88       	sub	@r8+,	r5	
     316:	35 f2       	and	#8,	r5	;r2 As==11
     318:	02 00       	mova	@r0,	r2	
     31a:	00 9d       	cmp	r13,	r0	
     31c:	01 00       	mova	@r0,	r1	
     31e:	00 07       	bra	@r7		
     320:	cc 02       	mova	r2,	r12	
     322:	00 00       	bra	@r0		
     324:	01 4f       	mov	r15,	r1	
     326:	bf 00 00 00 	suba	#0x00000,r15	
     32a:	06 03       	mova	#2,	r6	;r3 As==10
     32c:	00 00       	bra	@r0		
     32e:	07 15       	pushm	#1,	r7	
     330:	00 00       	bra	@r0		
     332:	00 01       	bra	@r1		
     334:	4f 0a       	rlam.a	#3,	r15	
     336:	01 00       	mova	@r0,	r1	
     338:	00 18       	.word	0x1800;	????	
     33a:	03 00       	.word	0x0003;	????	Illegal as address instr
     33c:	00 07       	bra	@r7		
     33e:	ce 01       	mova	r1,	r14	
     340:	00 00       	bra	@r0		
     342:	01 4f       	mov	r15,	r1	
     344:	bf 00 00 00 	suba	#0x00000,r15	
     348:	31 03 00 00 	mova	#1,	r1	;r3 As==01
     34c:	0c 31       	jn	$+538    	;abs 0x566
     34e:	02 00       	mova	@r0,	r2	
     350:	00 01       	bra	@r1		
     352:	50 78 00 00 	subc.b	0(r8),	r0	;0x0000(r8)
     356:	00 3c       	jmp	$+2      	;abs 0x358
     358:	03 00       	.word	0x0003;	????	Illegal as address instr
     35a:	00 00       	bra	@r0		
     35c:	0b 01       	mova	@r1,	r11	
     35e:	59 01       	rram	#1,	r9	
     360:	00 00       	bra	@r0		
     362:	01 43       	clr	r1		
     364:	01 78       	subc	r8,	r1	
     366:	00 00       	bra	@r0		
     368:	00 88       	sub	r8,	r0	
     36a:	35 b6       	bit	@r6+,	r5	
     36c:	35 56       	add	@r6+,	r5	
     36e:	03 00       	.word	0x0003;	????	Illegal as address instr
     370:	00 f3       	and	#0,	r0	;r3 As==00
     372:	01 00       	mova	@r0,	r1	
     374:	00 07       	bra	@r7		
     376:	cc 02       	mova	r2,	r12	
     378:	00 00       	bra	@r0		
     37a:	01 43       	clr	r1		
     37c:	bf 00 00 00 	suba	#0x00000,r15	
     380:	6a 03 00 00 	mova	#0,	&0xa0000;r3 As==00
     384:	07 15       	pushm	#1,	r7	
     386:	00 00       	bra	@r0		
     388:	00 01       	bra	@r1		
     38a:	43 bf       	.word	0xbf43;	????	Illegal as 2-op instr
     38c:	00 00       	bra	@r0		
     38e:	00 7c       	subc	r12,	r0	
     390:	03 00       	.word	0x0003;	????	Illegal as address instr
     392:	00 07       	bra	@r7		
     394:	ce 01       	mova	r1,	r14	
     396:	00 00       	bra	@r0		
     398:	01 43       	clr	r1		
     39a:	bf 00 00 00 	suba	#0x00000,r15	
     39e:	95 03 00 00 	cmpa	#0x30000,r5	
     3a2:	0c 31       	jn	$+538    	;abs 0x5bc
     3a4:	02 00       	mova	@r0,	r2	
     3a6:	00 01       	bra	@r1		
     3a8:	44 78       	subc.b	r8,	r4	
     3aa:	00 00       	bra	@r0		
     3ac:	00 a0       	dadd	r0,	r0	
     3ae:	03 00       	.word	0x0003;	????	Illegal as address instr
     3b0:	00 00       	bra	@r0		
     3b2:	0d c7       	bic	r7,	r13	
     3b4:	02 00       	mova	@r0,	r2	
     3b6:	00 02       	bra	#4		;r2 As==10
     3b8:	a6 c4 02 00 	bic	@r4,	2(r6)	;0x0002(r6)
     3bc:	00 04       	bra	@r4		
     3be:	02 00       	mova	@r0,	r2	
     3c0:	00 01       	bra	@r1		
     3c2:	01 0e       	mova	@r14,	r1	
     3c4:	bf 00 00 00 	suba	#0x00000,r15	
     3c8:	0f 3d       	jmp	$+544    	;abs 0x5e8
     3ca:	01 00       	mova	@r0,	r1	
     3cc:	00 02       	bra	#4		;r2 As==10
     3ce:	99 03 3a 01 	cmpa	#0x3013a,r9	
     3d2:	00 00       	bra	@r0		
     3d4:	04 02       	mova	#4,	r4	;r2 As==10
     3d6:	00 00       	bra	@r0		
     3d8:	01 01       	mova	@r1,	r1	
     3da:	0f c5       	bic	r5,	r15	
     3dc:	01 00       	mova	@r0,	r1	
     3de:	00 02       	bra	#4		;r2 As==10
     3e0:	e9 04       	adda	r4,	r9	
     3e2:	c2 01       	mova	r1,	r2	
     3e4:	00 00       	bra	@r0		
     3e6:	04 02       	mova	#4,	r4	;r2 As==10
     3e8:	00 00       	bra	@r0		
     3ea:	01 01       	mova	@r1,	r1	
     3ec:	0f 72       	subc	r2,	r15	
     3ee:	02 00       	mova	@r0,	r2	
     3f0:	00 02       	bra	#4		;r2 As==10
     3f2:	eb 04       	adda	r4,	r11	
     3f4:	6f 02 00 00 	mova	r2,	&0xf0000
     3f8:	04 02       	mova	#4,	r4	;r2 As==10
     3fa:	00 00       	bra	@r0		
     3fc:	01 01       	mova	@r1,	r1	
     3fe:	0f eb       	xor	r11,	r15	
     400:	02 00       	mova	@r0,	r2	
     402:	00 02       	bra	#4		;r2 As==10
     404:	ed 04       	adda	r4,	r13	
     406:	e8 02       	adda	r2,	r8	
     408:	00 00       	bra	@r0		
     40a:	04 02       	mova	#4,	r4	;r2 As==10
     40c:	00 00       	bra	@r0		
     40e:	01 01       	mova	@r1,	r1	
     410:	0f 06       	mova	@r6,	r15	
     412:	02 00       	mova	@r0,	r2	
     414:	00 02       	bra	#4		;r2 As==10
     416:	ef 04       	adda	r4,	r15	
     418:	03 02       	.word	0x0203;	????	Illegal as address instr
     41a:	00 00       	bra	@r0		
     41c:	04 02       	mova	#4,	r4	;r2 As==10
     41e:	00 00       	bra	@r0		
     420:	01 01       	mova	@r1,	r1	
     422:	0f c2       	bic	r2,	r15	
     424:	00 00       	bra	@r0		
     426:	00 02       	bra	#4		;r2 As==10
     428:	f3 04       	.word	0x04f3;	????	Illegal as address instr
     42a:	bf 00 00 00 	suba	#0x00000,r15	
     42e:	04 02       	mova	#4,	r4	;r2 As==10
     430:	00 00       	bra	@r0		
     432:	01 01       	mova	@r1,	r1	
     434:	0f 8b       	sub	r11,	r15	
     436:	02 00       	mova	@r0,	r2	
     438:	00 02       	bra	#4		;r2 As==10
     43a:	f5 04       	suba	r4,	r5	
     43c:	88 02 00 00 	mova	#0x20000,r8	
     440:	87 02 00 00 	mova	#0x20000,r7	
     444:	01 01       	mova	@r1,	r1	
     446:	10 04       	bra	@r4+		
     448:	02 00       	mova	@r0,	r2	
     44a:	00 0f       	bra	@r15		
     44c:	11 01       	mova	@r1+,	r1	
     44e:	00 00       	bra	@r0		
     450:	02 f7       	and	r7,	r2	
     452:	04 0e       	mova	@r14,	r4	
     454:	01 00       	mova	@r0,	r1	
     456:	00 04       	bra	@r4		
     458:	02 00       	mova	@r0,	r2	
     45a:	00 01       	bra	@r1		
     45c:	01 0f       	mova	@r15,	r1	
     45e:	7e 02 00 00 	mova	r2,	0(r14)	;0x0000(r14)
     462:	02 fb       	and	r11,	r2	
     464:	04 7b       	subc	r11,	r4	
     466:	02 00       	mova	@r0,	r2	
     468:	00 b0       	bit	r0,	r0	
     46a:	02 00       	mova	@r0,	r2	
     46c:	00 01       	bra	@r1		
     46e:	01 0e       	mova	@r14,	r1	
     470:	b5 02 00 00 	suba	#0x20000,r5	
     474:	08 02       	mova	#4,	r8	;r2 As==10
     476:	07 6e       	addc	r14,	r7	
     478:	00 00       	bra	@r0		
     47a:	00 0d       	bra	@r13		
     47c:	c7 02       	mova	r2,	r7	
     47e:	00 00       	bra	@r0		
     480:	02 a6       	dadd	r6,	r2	
     482:	c4 02       	mova	r2,	r4	
     484:	00 00       	bra	@r0		
     486:	04 02       	mova	#4,	r4	;r2 As==10
     488:	00 00       	bra	@r0		
     48a:	01 01       	mova	@r1,	r1	
     48c:	0f 3d       	jmp	$+544    	;abs 0x6ac
     48e:	01 00       	mova	@r0,	r1	
     490:	00 02       	bra	#4		;r2 As==10
     492:	99 03 3a 01 	cmpa	#0x3013a,r9	
     496:	00 00       	bra	@r0		
     498:	04 02       	mova	#4,	r4	;r2 As==10
     49a:	00 00       	bra	@r0		
     49c:	01 01       	mova	@r1,	r1	
     49e:	0f c5       	bic	r5,	r15	
     4a0:	01 00       	mova	@r0,	r1	
     4a2:	00 02       	bra	#4		;r2 As==10
     4a4:	e9 04       	adda	r4,	r9	
     4a6:	c2 01       	mova	r1,	r2	
     4a8:	00 00       	bra	@r0		
     4aa:	04 02       	mova	#4,	r4	;r2 As==10
     4ac:	00 00       	bra	@r0		
     4ae:	01 01       	mova	@r1,	r1	
     4b0:	0f 72       	subc	r2,	r15	
     4b2:	02 00       	mova	@r0,	r2	
     4b4:	00 02       	bra	#4		;r2 As==10
     4b6:	eb 04       	adda	r4,	r11	
     4b8:	6f 02 00 00 	mova	r2,	&0xf0000
     4bc:	04 02       	mova	#4,	r4	;r2 As==10
     4be:	00 00       	bra	@r0		
     4c0:	01 01       	mova	@r1,	r1	
     4c2:	0f eb       	xor	r11,	r15	
     4c4:	02 00       	mova	@r0,	r2	
     4c6:	00 02       	bra	#4		;r2 As==10
     4c8:	ed 04       	adda	r4,	r13	
     4ca:	e8 02       	adda	r2,	r8	
     4cc:	00 00       	bra	@r0		
     4ce:	04 02       	mova	#4,	r4	;r2 As==10
     4d0:	00 00       	bra	@r0		
     4d2:	01 01       	mova	@r1,	r1	
     4d4:	0f 06       	mova	@r6,	r15	
     4d6:	02 00       	mova	@r0,	r2	
     4d8:	00 02       	bra	#4		;r2 As==10
     4da:	ef 04       	adda	r4,	r15	
     4dc:	03 02       	.word	0x0203;	????	Illegal as address instr
     4de:	00 00       	bra	@r0		
     4e0:	04 02       	mova	#4,	r4	;r2 As==10
     4e2:	00 00       	bra	@r0		
     4e4:	01 01       	mova	@r1,	r1	
     4e6:	0f c2       	bic	r2,	r15	
     4e8:	00 00       	bra	@r0		
     4ea:	00 02       	bra	#4		;r2 As==10
     4ec:	f3 04       	.word	0x04f3;	????	Illegal as address instr
     4ee:	bf 00 00 00 	suba	#0x00000,r15	
     4f2:	04 02       	mova	#4,	r4	;r2 As==10
     4f4:	00 00       	bra	@r0		
     4f6:	01 01       	mova	@r1,	r1	
     4f8:	0f 8b       	sub	r11,	r15	
     4fa:	02 00       	mova	@r0,	r2	
     4fc:	00 02       	bra	#4		;r2 As==10
     4fe:	f5 04       	suba	r4,	r5	
     500:	88 02 00 00 	mova	#0x20000,r8	
     504:	87 02 00 00 	mova	#0x20000,r7	
     508:	01 01       	mova	@r1,	r1	
     50a:	0f 11       	rra	r15		
     50c:	01 00       	mova	@r0,	r1	
     50e:	00 02       	bra	#4		;r2 As==10
     510:	f7 04       	suba	r4,	r7	
     512:	0e 01       	mova	@r1,	r14	
     514:	00 00       	bra	@r0		
     516:	04 02       	mova	#4,	r4	;r2 As==10
     518:	00 00       	bra	@r0		
     51a:	01 01       	mova	@r1,	r1	
     51c:	0f 7e       	subc	r14,	r15	
     51e:	02 00       	mova	@r0,	r2	
     520:	00 02       	bra	#4		;r2 As==10
     522:	fb 04       	suba	r4,	r11	
     524:	7b 02 00 00 	mova	r2,	0(r11)	;0x0000(r11)
     528:	b0 02 00 00 	suba	#0x20000,r0	
     52c:	01 01       	mova	@r1,	r1	
     52e:	00 7a       	subc	r10,	r0	
     530:	07 00       	mova	@r0,	r7	
     532:	00 02       	bra	#4		;r2 As==10
     534:	00 18       	.word	0x1800;	????	
     536:	02 00       	mova	@r0,	r2	
     538:	00 02       	bra	#4		;r2 As==10
     53a:	01 8e       	sub	r14,	r1	
     53c:	00 00       	bra	@r0		
     53e:	00 01       	bra	@r1		
     540:	41 03       	rrum.a	#1,	r1	
     542:	00 00       	bra	@r0		
     544:	1a 00       	mova	#0x00000,r10	
     546:	00 00       	bra	@r0		
     548:	b6 35       	jge	$+878    	;abs 0x8b6
     54a:	7c 40 44 04 	mov.b	#1092,	r12	;#0x0444
     54e:	00 00       	bra	@r0		
     550:	02 04       	mova	@r4,	r2	
     552:	05 05       	mova	@r5,	r5	
     554:	00 00       	bra	@r0		
     556:	00 02       	bra	#4		;r2 As==10
     558:	02 07       	mova	@r7,	r2	
     55a:	6e 00 00 00 	mova	r0,	&0xe0000
     55e:	03 02       	.word	0x0203;	????	Illegal as address instr
     560:	05 69       	addc	r9,	r5	
     562:	6e 74       	subc.b	@r4,	r14	
     564:	00 02       	bra	#4		;r2 As==10
     566:	01 06       	mova	@r6,	r1	
     568:	9c 00 00 00 	cmpa	#0x00000,r12	
     56c:	02 08       	mova	@r8,	r2	
     56e:	05 00       	mova	@r0,	r5	
     570:	00 00       	bra	@r0		
     572:	00 02       	bra	#4		;r2 As==10
     574:	01 08       	mova	@r8,	r1	
     576:	9a 00 00 00 	cmpa	#0x00000,r10	
     57a:	02 04       	mova	@r4,	r2	
     57c:	07 69       	addc	r9,	r7	
     57e:	00 00       	bra	@r0		
     580:	00 02       	bra	#4		;r2 As==10
     582:	08 07       	mova	@r7,	r8	
     584:	64 00 00 00 	mova	r0,	&0x40000
     588:	02 02       	mova	#4,	r2	;r2 As==10
     58a:	07 cb       	bic	r11,	r7	
     58c:	00 00       	bra	@r0		
     58e:	00 02       	bra	#4		;r2 As==10
     590:	01 06       	mova	@r6,	r1	
     592:	a3 00       	.word	0x00a3;	????	Illegal as address instr
     594:	00 00       	bra	@r0		
     596:	04 01       	mova	@r1,	r4	
     598:	f8 02       	suba	r2,	r8	
     59a:	00 00       	bra	@r0		
     59c:	01 b8       	bit	r8,	r1	
     59e:	01 01       	mova	@r1,	r1	
     5a0:	01 05       	mova	@r5,	r1	
     5a2:	01 96       	cmp	r6,	r1	
     5a4:	03 00       	.word	0x0003;	????	Illegal as address instr
     5a6:	00 01       	bra	@r1		
     5a8:	c0 01       	bra	r1		
     5aa:	01 01       	mova	@r1,	r1	
     5ac:	96 00 00 00 	cmpa	#0x00000,r6	
     5b0:	06 78       	subc	r8,	r6	
     5b2:	00 01       	bra	@r1		
     5b4:	c0 01       	bra	r1		
     5b6:	44 00       	rrcm.a	#1,	r4	
     5b8:	00 00       	bra	@r0		
     5ba:	06 79       	subc	r9,	r6	
     5bc:	00 01       	bra	@r1		
     5be:	c0 01       	bra	r1		
     5c0:	44 00       	rrcm.a	#1,	r4	
     5c2:	00 00       	bra	@r0		
     5c4:	00 07       	bra	@r7		
     5c6:	01 d4       	bis	r4,	r1	
     5c8:	03 00       	.word	0x0003;	????	Illegal as address instr
     5ca:	00 01       	bra	@r1		
     5cc:	b1 01 b6 35 	suba	#0x135b6,r1	
     5d0:	c0 35       	jge	$+898    	;abs 0x952
     5d2:	02 71       	subc	r1,	r2	
     5d4:	02 c5       	bic	r5,	r2	
     5d6:	00 00       	bra	@r0		
     5d8:	00 08       	bra	@r8		
     5da:	05 04       	mova	@r4,	r5	
     5dc:	00 00       	bra	@r0		
     5de:	01 b1       	bit	r1,	r1	
     5e0:	44 00       	rrcm.a	#1,	r4	
     5e2:	00 00       	bra	@r0		
     5e4:	01 5f       	add	r15,	r1	
     5e6:	08 04       	mova	@r4,	r8	
     5e8:	03 00       	.word	0x0003;	????	Illegal as address instr
     5ea:	00 01       	bra	@r1		
     5ec:	b1 44 00 00 	mov	@r4+,	0(r1)	;0x0000(r1)
     5f0:	00 01       	bra	@r1		
     5f2:	5e 00       	rrcm	#1,	r14	
     5f4:	09 01       	mova	@r1,	r9	
     5f6:	28 03 00 00 	mova	&0x30000,r8	
     5fa:	01 bd       	bit	r13,	r1	
     5fc:	01 c0       	bic	r0,	r1	
     5fe:	35 26       	jz	$-916    	;abs 0x26a
     600:	36 ba       	bit	@r10+,	r6	
     602:	03 00       	.word	0x0003;	????	Illegal as address instr
     604:	00 11       	rra	r0		
     606:	01 00       	mova	@r0,	r1	
     608:	00 08       	bra	@r8		
     60a:	00 04       	bra	@r4		
     60c:	00 00       	bra	@r0		
     60e:	01 bd       	bit	r13,	r1	
     610:	44 00       	rrcm.a	#1,	r4	
     612:	00 00       	bra	@r0		
     614:	01 5f       	add	r15,	r1	
     616:	0a 63       	adc	r10		
     618:	6d 64       	addc.b	@r4,	r13	
     61a:	00 01       	bra	@r1		
     61c:	bd 44 00 00 	mov	@r4+,	0(r13)	;0x0000(r13)
     620:	00 01       	bra	@r1		
     622:	5e 0b       	rrum	#3,	r14	
     624:	48 04       	rrcm.a	#2,	r8	
     626:	00 00       	bra	@r0		
     628:	01 bf       	bit	r15,	r1	
     62a:	44 00       	rrcm.a	#1,	r4	
     62c:	00 00       	bra	@r0		
     62e:	ce 03       	mova	#0,	r14	;r3 As==00
     630:	00 00       	bra	@r0		
     632:	0c 69       	addc	r9,	r12	
     634:	00 01       	bra	@r1		
     636:	c0 44 00 00 	mov.b	r4,	0x0000	;PC rel. 0x0063a
     63a:	00 fa       	and	r10,	r0	
     63c:	03 00       	.word	0x0003;	????	Illegal as address instr
     63e:	00 00       	bra	@r0		
     640:	0d 01       	mova	@r1,	r13	
     642:	aa 03 00 00 	adda	#0x30000,r10	
     646:	01 1f       	.word	0x1f01;	????	
     648:	01 01       	mova	@r1,	r1	
     64a:	26 36       	jge	$-946    	;abs 0x298
     64c:	3e 36       	jge	$-898    	;abs 0x2ca
     64e:	06 04       	mova	@r4,	r6	
     650:	00 00       	bra	@r0		
     652:	48 01       	rram.a	#1,	r8	
     654:	00 00       	bra	@r0		
     656:	0e f3       	and	#0,	r14	;r3 As==00
     658:	02 00       	mova	@r0,	r2	
     65a:	00 01       	bra	@r1		
     65c:	1f 01       	mova	@r1+,	r15	
     65e:	44 00       	rrcm.a	#1,	r4	
     660:	00 00       	bra	@r0		
     662:	1a 04       	mova	@r4+,	r10	
     664:	00 00       	bra	@r0		
     666:	0f 64       	addc	r4,	r15	
     668:	61 74       	subc.b	@r4,	r1	
     66a:	00 01       	bra	@r1		
     66c:	1f 01       	mova	@r1+,	r15	
     66e:	44 00       	rrcm.a	#1,	r4	
     670:	00 00       	bra	@r0		
     672:	25 04 00 00 	mova	&0x40000,r5	
     676:	00 0d       	bra	@r13		
     678:	01 b9       	bit	r9,	r1	
     67a:	03 00       	.word	0x0003;	????	Illegal as address instr
     67c:	00 01       	bra	@r1		
     67e:	25 01 01 3e 	mova	&0x13e01,r5	
     682:	36 64       	addc	@r4+,	r6	
     684:	36 37       	jge	$-402    	;abs 0x4f2
     686:	04 00       	mova	@r0,	r4	
     688:	00 8f       	sub	r15,	r0	
     68a:	01 00       	mova	@r0,	r1	
     68c:	00 0e       	bra	@r14		
     68e:	f3 02       	.word	0x02f3;	????	Illegal as address instr
     690:	00 00       	bra	@r0		
     692:	01 25       	jz	$+516    	;abs 0x896
     694:	01 44       	mov	r4,	r1	
     696:	00 00       	bra	@r0		
     698:	00 53       	add	#0,	r0	;r3 As==00
     69a:	04 00       	mova	@r0,	r4	
     69c:	00 0e       	bra	@r14		
     69e:	cf 03       	mova	#0,	r15	;r3 As==00
     6a0:	00 00       	bra	@r0		
     6a2:	01 25       	jz	$+516    	;abs 0x8a6
     6a4:	01 44       	mov	r4,	r1	
     6a6:	00 00       	bra	@r0		
     6a8:	00 5e       	add	r14,	r0	
     6aa:	04 00       	mova	@r0,	r4	
     6ac:	00 0e       	bra	@r14		
     6ae:	36 04 00 00 	mova	0(r4),	r6	;0x0000(r4)
     6b2:	01 25       	jz	$+516    	;abs 0x8b6
     6b4:	01 44       	mov	r4,	r1	
     6b6:	00 00       	bra	@r0		
     6b8:	00 70       	subc	r0,	r0	
     6ba:	04 00       	mova	@r0,	r4	
     6bc:	00 00       	bra	@r0		
     6be:	0d 01       	mova	@r1,	r13	
     6c0:	77 04 00 00 	mova	r4,	0(r7)	;0x0000(r7)
     6c4:	01 2c       	jc	$+4      	;abs 0x6c8
     6c6:	01 01       	mova	@r1,	r1	
     6c8:	64 36       	jge	$-822    	;abs 0x392
     6ca:	fa 36       	jge	$-522    	;abs 0x4c0
     6cc:	82 04 00 00 	mova	#0x40000,r2	
     6d0:	0f 02       	mova	#4,	r15	;r2 As==10
     6d2:	00 00       	bra	@r0		
     6d4:	0f 78       	subc	r8,	r15	
     6d6:	00 01       	bra	@r1		
     6d8:	2c 01 44 00 	mova	&0x10044,r12	
     6dc:	00 00       	bra	@r0		
     6de:	be 04 00 00 	suba	#0x40000,r14	
     6e2:	0f 79       	subc	r9,	r15	
     6e4:	00 01       	bra	@r1		
     6e6:	2c 01 44 00 	mova	&0x10044,r12	
     6ea:	00 00       	bra	@r0		
     6ec:	d0 04       	cmpa	r4,	r0	
     6ee:	00 00       	bra	@r0		
     6f0:	0f 6c       	addc	r12,	r15	
     6f2:	78 00 01 2c 	mova	r0,	11265(r8);0x2c01(r8)
     6f6:	01 44       	mov	r4,	r1	
     6f8:	00 00       	bra	@r0		
     6fa:	00 e2       	xor	r2,	r0	
     6fc:	04 00       	mova	@r0,	r4	
     6fe:	00 0f       	bra	@r15		
     700:	6c 79       	subc.b	@r9,	r12	
     702:	00 01       	bra	@r1		
     704:	2c 01 44 00 	mova	&0x10044,r12	
     708:	00 00       	bra	@r0		
     70a:	f4 04       	suba	r4,	r4	
     70c:	00 00       	bra	@r0		
     70e:	10 10 04 00 	rrc	0x0004		;PC rel. 0x00716
     712:	00 01       	bra	@r1		
     714:	2c 01 44 00 	mova	&0x10044,r12	
     718:	00 00       	bra	@r0		
     71a:	02 91       	cmp	r1,	r2	
     71c:	0a 11       	rra	r10		
     71e:	91 03 00 00 	cmpa	#0x30000,r1	
     722:	01 2e       	jc	$-1020   	;abs 0x326
     724:	01 28       	jnc	$+4      	;abs 0x728
     726:	00 00       	bra	@r0		
     728:	00 0f       	bra	@r15		
     72a:	05 00       	mova	@r0,	r5	
     72c:	00 12       	push	r0		
     72e:	6d 61       	addc.b	@r1,	r13	
     730:	78 00 01 2e 	mova	r0,	11777(r8);0x2e01(r8)
     734:	01 28       	jnc	$+4      	;abs 0x738
     736:	00 00       	bra	@r0		
     738:	00 22       	jnz	$-1022   	;abs 0x33a
     73a:	05 00       	mova	@r0,	r5	
     73c:	00 00       	bra	@r0		
     73e:	0d 01       	mova	@r1,	r13	
     740:	f6 03       	decda	r6		
     742:	00 00       	bra	@r0		
     744:	01 1a       	.word	0x1a01;	????	
     746:	01 01       	mova	@r1,	r1	
     748:	fa 36       	jge	$-522    	;abs 0x53e
     74a:	0e 37       	jge	$-482    	;abs 0x568
     74c:	2d 05 00 00 	mova	&0x50000,r13	
     750:	36 02 00 00 	mova	&0x0000,r6	
     754:	0e 10       	rrc	r14		
     756:	04 00       	mova	@r0,	r4	
     758:	00 01       	bra	@r1		
     75a:	1a 01       	mova	@r1+,	r10	
     75c:	44 00       	rrcm.a	#1,	r4	
     75e:	00 00       	bra	@r0		
     760:	49 05       	rram.a	#2,	r9	
     762:	00 00       	bra	@r0		
     764:	00 09       	bra	@r9		
     766:	01 5f       	add	r15,	r1	
     768:	03 00       	.word	0x0003;	????	Illegal as address instr
     76a:	00 01       	bra	@r1		
     76c:	e0 01       	adda	r1,	r0	
     76e:	0e 37       	jge	$-482    	;abs 0x58c
     770:	78 38       	jl	$+242    	;abs 0x862
     772:	5c 05       	rram	#2,	r12	
     774:	00 00       	bra	@r0		
     776:	5b 02       	rlam	#1,	r11	
     778:	00 00       	bra	@r0		
     77a:	13 10       	rrc	#1		;r3 As==01
     77c:	04 00       	mova	@r0,	r4	
     77e:	00 01       	bra	@r1		
     780:	e0 44 00 00 	mov.b	@r4,	0x0000	;PC rel. 0x00784
     784:	00 b0       	bit	r0,	r0	
     786:	05 00       	mova	@r0,	r5	
     788:	00 00       	bra	@r0		
     78a:	0d 01       	mova	@r1,	r13	
     78c:	e7 03       	incda	r7		
     78e:	00 00       	bra	@r0		
     790:	01 43       	clr	r1		
     792:	01 01       	mova	@r1,	r1	
     794:	78 38       	jl	$+242    	;abs 0x886
     796:	18 3a       	jl	$-974    	;abs 0x3c8
     798:	c2 05       	mova	r5,	r2	
     79a:	00 00       	bra	@r0		
     79c:	09 03       	mova	#2,	r9	;r3 As==10
     79e:	00 00       	bra	@r0		
     7a0:	0f 78       	subc	r8,	r15	
     7a2:	30 00 01 43 	bra	0x4301		;PC rel. 0x04aa5
     7a6:	01 28       	jnc	$+4      	;abs 0x7aa
     7a8:	00 00       	bra	@r0		
     7aa:	00 36       	jge	$-1022   	;abs 0x3ac
     7ac:	06 00       	mova	@r0,	r6	
     7ae:	00 0f       	bra	@r15		
     7b0:	79 30       	jn	$+244    	;abs 0x8a4
     7b2:	00 01       	bra	@r1		
     7b4:	43 01       	rram.a	#1,	#0	;r3 As==00
     7b6:	28 00 00 00 	mova	&0x00000,r8	
     7ba:	48 06       	rlam.a	#2,	r8	
     7bc:	00 00       	bra	@r0		
     7be:	0e c8       	bic	r8,	r14	
     7c0:	03 00       	.word	0x0003;	????	Illegal as address instr
     7c2:	00 01       	bra	@r1		
     7c4:	43 01       	rram.a	#1,	#0	;r3 As==00
     7c6:	28 00 00 00 	mova	&0x00000,r8	
     7ca:	5a 06       	rlam	#2,	r10	
     7cc:	00 00       	bra	@r0		
     7ce:	0e 10       	rrc	r14		
     7d0:	04 00       	mova	@r0,	r4	
     7d2:	00 01       	bra	@r1		
     7d4:	43 01       	rram.a	#1,	#0	;r3 As==00
     7d6:	44 00       	rrcm.a	#1,	r4	
     7d8:	00 00       	bra	@r0		
     7da:	6d 06 00 00 	mova	r6,	&0xd0000
     7de:	10 71 03 00 	subc	3(r1),	r0	;0x0003(r1)
     7e2:	00 01       	bra	@r1		
     7e4:	43 01       	rram.a	#1,	#0	;r3 As==00
     7e6:	2f 00 00 00 	mova	&0x00000,r15	
     7ea:	02 91       	cmp	r1,	r2	
     7ec:	1c 12 66 00 	push	102(r12)	;0x0066(r12)
     7f0:	01 44       	mov	r4,	r1	
     7f2:	01 2f       	jc	$-508    	;abs 0x5f6
     7f4:	00 00       	bra	@r0		
     7f6:	00 7f       	subc	r15,	r0	
     7f8:	06 00       	mova	@r0,	r6	
     7fa:	00 11       	rra	r0		
     7fc:	2a 04 00 00 	mova	&0x40000,r10	
     800:	01 45       	mov	r5,	r1	
     802:	01 2f       	jc	$-508    	;abs 0x606
     804:	00 00       	bra	@r0		
     806:	00 a1       	dadd	r1,	r0	
     808:	06 00       	mova	@r0,	r6	
     80a:	00 11       	rra	r0		
     80c:	30 04 00 00 	bra	0(r4)		;0x0000(r4)
     810:	01 46       	mov	r6,	r1	
     812:	01 2f       	jc	$-508    	;abs 0x616
     814:	00 00       	bra	@r0		
     816:	00 ad       	dadd	r13,	r0	
     818:	06 00       	mova	@r0,	r6	
     81a:	00 12       	push	r0		
     81c:	78 00 01 47 	mova	r0,	18177(r8);0x4701(r8)
     820:	01 2f       	jc	$-508    	;abs 0x624
     822:	00 00       	bra	@r0		
     824:	00 e2       	xor	r2,	r0	
     826:	06 00       	mova	@r0,	r6	
     828:	00 12       	push	r0		
     82a:	79 00 01 48 	mova	r0,	18433(r9);0x4801(r9)
     82e:	01 2f       	jc	$-508    	;abs 0x632
     830:	00 00       	bra	@r0		
     832:	00 fe       	and	r14,	r0	
     834:	06 00       	mova	@r0,	r6	
     836:	00 00       	bra	@r0		
     838:	0d 01       	mova	@r1,	r13	
     83a:	33 03       	.word	0x0333;	????	Illegal as address instr
     83c:	00 00       	bra	@r0		
     83e:	01 92       	cmp	r2,	r1	
     840:	01 01       	mova	@r1,	r1	
     842:	18 3a       	jl	$-974    	;abs 0x474
     844:	80 3a       	jl	$-766    	;abs 0x546
     846:	11 07       	mova	@r7+,	r1	
     848:	00 00       	bra	@r0		
     84a:	4c 03       	rrum.a	#1,	r12	
     84c:	00 00       	bra	@r0		
     84e:	0f 78       	subc	r8,	r15	
     850:	00 01       	bra	@r1		
     852:	92 01 44 00 	cmpa	#0x10044,r2	
     856:	00 00       	bra	@r0		
     858:	3d 07 00 00 	mova	0(r7),	r13	;0x0000(r7)
     85c:	0f 79       	subc	r9,	r15	
     85e:	00 01       	bra	@r1		
     860:	92 01 44 00 	cmpa	#0x10044,r2	
     864:	00 00       	bra	@r0		
     866:	4f 07       	rrum.a	#2,	r15	
     868:	00 00       	bra	@r0		
     86a:	0e 10       	rrc	r14		
     86c:	04 00       	mova	@r0,	r4	
     86e:	00 01       	bra	@r1		
     870:	92 01 44 00 	cmpa	#0x10044,r2	
     874:	00 00       	bra	@r0		
     876:	61 07 00 00 	mova	r7,	&0x10000
     87a:	00 0d       	bra	@r13		
     87c:	01 6a       	addc	r10,	r1	
     87e:	04 00       	mova	@r0,	r4	
     880:	00 01       	bra	@r1		
     882:	61 01 01 80 	mova	r1,	&0x18001
     886:	3a 4e       	mov	@r14+,	r10	
     888:	3b 73       	subc	#-1,	r11	;r3 As==11
     88a:	07 00       	mova	@r0,	r7	
     88c:	00 1c       	.word	0x1c00;	????	
     88e:	04 00       	mova	@r0,	r4	
     890:	00 0f       	bra	@r15		
     892:	78 30       	jn	$+242    	;abs 0x984
     894:	00 01       	bra	@r1		
     896:	61 01 2f 00 	mova	r1,	&0x1002f
     89a:	00 00       	bra	@r0		
     89c:	c7 07       	mova	r7,	r7	
     89e:	00 00       	bra	@r0		
     8a0:	0f 79       	subc	r9,	r15	
     8a2:	30 00 01 61 	bra	0x6101		;PC rel. 0x069a5
     8a6:	01 2f       	jc	$-508    	;abs 0x6aa
     8a8:	00 00       	bra	@r0		
     8aa:	00 e7       	xor	r7,	r0	
     8ac:	07 00       	mova	@r0,	r7	
     8ae:	00 0f       	bra	@r15		
     8b0:	78 31       	jn	$+754    	;abs 0xba2
     8b2:	00 01       	bra	@r1		
     8b4:	61 01 2f 00 	mova	r1,	&0x1002f
     8b8:	00 00       	bra	@r0		
     8ba:	0e 08       	mova	@r8,	r14	
     8bc:	00 00       	bra	@r0		
     8be:	0f 79       	subc	r9,	r15	
     8c0:	31 00 01 61 	mova	0x6101,	r1	;PC rel. 0x069c3
     8c4:	01 2f       	jc	$-508    	;abs 0x6c8
     8c6:	00 00       	bra	@r0		
     8c8:	00 31       	jn	$+514    	;abs 0xaca
     8ca:	08 00       	mova	@r0,	r8	
     8cc:	00 10       	rrc	r0		
     8ce:	10 04       	bra	@r4+		
     8d0:	00 00       	bra	@r0		
     8d2:	01 61       	rlc	r1		
     8d4:	01 44       	mov	r4,	r1	
     8d6:	00 00       	bra	@r0		
     8d8:	00 02       	bra	#4		;r2 As==10
     8da:	91 16       	popm.a	#10,	r10	
     8dc:	12 64 79 00 	addc	121(r4),r2	;0x0079(r4)
     8e0:	01 62       	addc	r2,	r1	
     8e2:	01 2f       	jc	$-508    	;abs 0x6e6
     8e4:	00 00       	bra	@r0		
     8e6:	00 44       	br	r4		
     8e8:	08 00       	mova	@r0,	r8	
     8ea:	00 12       	push	r0		
     8ec:	64 78       	subc.b	@r8,	r4	
     8ee:	00 01       	bra	@r1		
     8f0:	63 01 2f 00 	mova	r1,	&0x3002f
     8f4:	00 00       	bra	@r0		
     8f6:	6e 08 00 00 	mova	r8,	&0xe0000
     8fa:	11 22       	jnz	$-988    	;abs 0x51e
     8fc:	03 00       	.word	0x0003;	????	Illegal as address instr
     8fe:	00 01       	bra	@r1		
     900:	64 01 2f 00 	mova	r1,	&0x4002f
     904:	00 00       	bra	@r0		
     906:	98 08 00 00 	cmpa	#0x80000,r8	
     90a:	11 e1 03 00 	xor	3(r1),	r1	;0x0003(r1)
     90e:	00 01       	bra	@r1		
     910:	64 01 2f 00 	mova	r1,	&0x4002f
     914:	00 00       	bra	@r0		
     916:	b3 08       	.word	0x08b3;	????	Illegal as address instr
     918:	00 00       	bra	@r0		
     91a:	14 c8 3a f6 	bic	-2502(r8),r4	;0xf63a(r8)
     91e:	3a 05 04 00 	mova	4(r5),	r10	;0x0004(r5)
     922:	00 11       	rra	r0		
     924:	68 03 00 00 	mova	#0,	&0x80000;r3 As==00
     928:	01 79       	subc	r9,	r1	
     92a:	01 2f       	jc	$-508    	;abs 0x72e
     92c:	00 00       	bra	@r0		
     92e:	00 ce       	bic	r14,	r0	
     930:	08 00       	mova	@r0,	r8	
     932:	00 00       	bra	@r0		
     934:	15 0a       	mova	@r10+,	r5	
     936:	3b 3e       	jmp	$-904    	;abs 0x5ae
     938:	3b 11       	rra	@r11+		
     93a:	68 03 00 00 	mova	#0,	&0x80000;r3 As==00
     93e:	01 85       	sub	r5,	r1	
     940:	01 2f       	jc	$-508    	;abs 0x744
     942:	00 00       	bra	@r0		
     944:	00 f8       	and	r8,	r0	
     946:	08 00       	mova	@r0,	r8	
     948:	00 00       	bra	@r0		
     94a:	00 0d       	bra	@r13		
     94c:	01 91       	cmp	r1,	r1	
     94e:	04 00       	mova	@r0,	r4	
     950:	00 01       	bra	@r1		
     952:	a2 01 01 4e 	adda	#0x14e01,r2	
     956:	3b e8       	xor	@r8+,	r11	
     958:	3b 22       	jnz	$-904    	;abs 0x5d0
     95a:	09 00       	mova	@r0,	r9	
     95c:	00 9a       	cmp	r10,	r0	
     95e:	04 00       	mova	@r0,	r4	
     960:	00 0f       	bra	@r15		
     962:	78 00 01 a2 	mova	r0,	-24063(r8);0xa201(r8)
     966:	01 44       	mov	r4,	r1	
     968:	00 00       	bra	@r0		
     96a:	00 5e       	add	r14,	r0	
     96c:	09 00       	mova	@r0,	r9	
     96e:	00 0f       	bra	@r15		
     970:	79 00 01 a2 	mova	r0,	-24063(r9);0xa201(r9)
     974:	01 44       	mov	r4,	r1	
     976:	00 00       	bra	@r0		
     978:	00 70       	subc	r0,	r0	
     97a:	09 00       	mova	@r0,	r9	
     97c:	00 0f       	bra	@r15		
     97e:	6c 78       	subc.b	@r8,	r12	
     980:	00 01       	bra	@r1		
     982:	a2 01 44 00 	adda	#0x10044,r2	
     986:	00 00       	bra	@r0		
     988:	82 09 00 00 	mova	#0x90000,r2	
     98c:	0f 6c       	addc	r12,	r15	
     98e:	79 00 01 a2 	mova	r0,	-24063(r9);0xa201(r9)
     992:	01 44       	mov	r4,	r1	
     994:	00 00       	bra	@r0		
     996:	00 94       	cmp	r4,	r0	
     998:	09 00       	mova	@r0,	r9	
     99a:	00 16       	popm.a	#1,	r0	
     99c:	70 00 01 a2 	mova	r0,	0xa201	;PC rel. 0xfab9f
     9a0:	01 9a       	cmp	r10,	r1	
     9a2:	04 00       	mova	@r0,	r4	
     9a4:	00 02       	bra	#4		;r2 As==10
     9a6:	91 0a 11 91 	cmpa	#0xa9111,r1	
     9aa:	03 00       	.word	0x0003;	????	Illegal as address instr
     9ac:	00 01       	bra	@r1		
     9ae:	a4 01 28 00 	adda	#0x10028,r4	
     9b2:	00 00       	bra	@r0		
     9b4:	af 09 00 00 	adda	#0x90000,r15	
     9b8:	12 6d 61 78 	addc	30817(r13),r2	;0x7861(r13)
     9bc:	00 01       	bra	@r1		
     9be:	a4 01 28 00 	adda	#0x10028,r4	
     9c2:	00 00       	bra	@r0		
     9c4:	c2 09       	mova	r9,	r2	
     9c6:	00 00       	bra	@r0		
     9c8:	00 17       	popm	#1,	r0	
     9ca:	02 44       	mov	r4,	r2	
     9cc:	00 00       	bra	@r0		
     9ce:	00 18       	.word	0x1800;	????	
     9d0:	67 00 00 00 	mova	r0,	&0x70000
     9d4:	e8 3b       	jl	$-46     	;abs 0x9a6
     9d6:	02 3c       	jmp	$+6      	;abs 0x9dc
     9d8:	02 71       	subc	r1,	r2	
     9da:	02 19       	.word	0x1902;	????	
     9dc:	72 00 00 00 	mova	r0,	&0x0000	
     9e0:	02 3c       	jmp	$+6      	;abs 0x9e6
     9e2:	1c 3c       	jmp	$+58     	;abs 0xa1c
     9e4:	02 71       	subc	r1,	r2	
     9e6:	02 cf       	bic	r15,	r2	
     9e8:	04 00       	mova	@r0,	r4	
     9ea:	00 1a       	.word	0x1a00;	????	
     9ec:	81 00 00 00 	mova	#0x00000,r1	
     9f0:	cd 09       	mova	r9,	r13	
     9f2:	00 00       	bra	@r0		
     9f4:	1a 8b 00 00 	sub	0(r11),	r10	;0x0000(r11)
     9f8:	00 df       	bis	r15,	r0	
     9fa:	09 00       	mova	@r0,	r9	
     9fc:	00 00       	bra	@r0		
     9fe:	0d 01       	mova	@r1,	r13	
     a00:	54 03       	rrum	#1,	r4	
     a02:	00 00       	bra	@r0		
     a04:	01 c9       	bic	r9,	r1	
     a06:	01 01       	mova	@r1,	r1	
     a08:	1c 3c       	jmp	$+58     	;abs 0xa42
     a0a:	be 3c       	jmp	$+382    	;abs 0xb88
     a0c:	f1 09       	suba	r9,	r1	
     a0e:	00 00       	bra	@r0		
     a10:	38 05 00 00 	mova	0(r5),	r8	;0x0000(r5)
     a14:	0f 63       	adc	r15		
     a16:	00 01       	bra	@r1		
     a18:	c9 01       	mova	r1,	r9	
     a1a:	44 00       	rrcm.a	#1,	r4	
     a1c:	00 00       	bra	@r0		
     a1e:	25 0a 00 00 	mova	&0xa0000,r5	
     a22:	1b 6a 00 01 	addc	256(r10),r11	;0x0100(r10)
     a26:	cb 01       	mova	r1,	r11	
     a28:	28 00 00 00 	mova	&0x00000,r8	
     a2c:	12 69 00 01 	addc	256(r9),r2	;0x0100(r9)
     a30:	cc 01       	mova	r1,	r12	
     a32:	44 00       	rrcm.a	#1,	r4	
     a34:	00 00       	bra	@r0		
     a36:	37 0a 00 00 	mova	0(r10),	r7	;0x0000(r10)
     a3a:	12 6b 00 01 	addc	256(r11),r2	;0x0100(r11)
     a3e:	cc 01       	mova	r1,	r12	
     a40:	44 00       	rrcm.a	#1,	r4	
     a42:	00 00       	bra	@r0		
     a44:	5c 0a       	rlam	#3,	r12	
     a46:	00 00       	bra	@r0		
     a48:	12 76 00 01 	subc	256(r6),r2	;0x0100(r6)
     a4c:	cc 01       	mova	r1,	r12	
     a4e:	44 00       	rrcm.a	#1,	r4	
     a50:	00 00       	bra	@r0		
     a52:	68 0a 00 00 	mova	r10,	&0x80000
     a56:	11 48 04 00 	mov	4(r8),	r1	;0x0004(r8)
     a5a:	00 01       	bra	@r1		
     a5c:	cc 01       	mova	r1,	r12	
     a5e:	44 00       	rrcm.a	#1,	r4	
     a60:	00 00       	bra	@r0		
     a62:	7c 0a 00 00 	mova	r10,	0(r12)	;0x0000(r12)
     a66:	00 1c 01 4d 	movx	r13,	r1	
     a6a:	04 00       	mova	@r0,	r4	
     a6c:	00 01       	bra	@r1		
     a6e:	e6 01       	adda	r1,	r6	
     a70:	01 be       	bit	r14,	r1	
     a72:	3c 24       	jz	$+122    	;abs 0xaec
     a74:	3d 02 71 02 	mova	&0x0271,r13	
     a78:	76 05 00 00 	mova	r5,	0(r6)	;0x0000(r6)
     a7c:	0f 63       	adc	r15		
     a7e:	00 01       	bra	@r1		
     a80:	e6 01       	adda	r1,	r6	
     a82:	44 00       	rrcm.a	#1,	r4	
     a84:	00 00       	bra	@r0		
     a86:	a5 0a 00 00 	adda	#0xa0000,r5	
     a8a:	1d 67 00 00 	addc	0(r7),	r13	;0x0000(r7)
     a8e:	00 de       	bis	r14,	r0	
     a90:	3c 08 00 00 	mova	0(r8),	r12	;0x0000(r8)
     a94:	00 01       	bra	@r1		
     a96:	f1 01       	suba	r1,	r1	
     a98:	1e 67 00 00 	addc	0(r7),	r14	;0x0000(r7)
     a9c:	00 fe       	and	r14,	r0	
     a9e:	3c 12       	push	@r12+		
     aa0:	3d 01 ea 01 	mova	490(r1),r13	;0x01ea(r1)
     aa4:	00 1f 01 51 	addx	r1,	r1	
     aa8:	04 00       	mova	@r0,	r4	
     aaa:	00 04       	bra	@r4		
     aac:	3b 01 2f 00 	mova	47(r1),	r11	;0x002f(r1)
     ab0:	00 00       	bra	@r0		
     ab2:	24 3d       	jmp	$+586    	;abs 0xcfc
     ab4:	2c 3d       	jmp	$+602    	;abs 0xd0e
     ab6:	02 71       	subc	r1,	r2	
     ab8:	02 9c       	cmp	r12,	r2	
     aba:	05 00       	mova	@r0,	r5	
     abc:	00 20       	jnz	$+2      	;abs 0xabe
     abe:	63 00 01 ab 	mova	r0,	&0x3ab01
     ac2:	2f 00 00 00 	mova	&0x00000,r15	
     ac6:	be 0a 00 00 	suba	#0xa0000,r14	
     aca:	00 0d       	bra	@r13		
     acc:	01 16       	popm.a	#1,	r1	
     ace:	04 00       	mova	@r0,	r4	
     ad0:	00 01       	bra	@r1		
     ad2:	f8 01       	suba	r1,	r8	
     ad4:	01 2c       	jc	$+4      	;abs 0xad8
     ad6:	3d b8       	bit	@r8+,	r13	
     ad8:	3d c9       	bic	@r9+,	r13	
     ada:	0a 00       	mova	@r0,	r10	
     adc:	00 2d       	jc	$+514    	;abs 0xcde
     ade:	06 00       	mova	@r0,	r6	
     ae0:	00 0f       	bra	@r15		
     ae2:	78 00 01 f8 	mova	r0,	-2047(r8);0xf801(r8)
     ae6:	01 2f       	jc	$-508    	;abs 0x8ea
     ae8:	00 00       	bra	@r0		
     aea:	00 2d       	jc	$+514    	;abs 0xcec
     aec:	0b 00       	mova	@r0,	r11	
     aee:	00 0f       	bra	@r15		
     af0:	79 00 01 f8 	mova	r0,	-2047(r9);0xf801(r9)
     af4:	01 2f       	jc	$-508    	;abs 0x8f8
     af6:	00 00       	bra	@r0		
     af8:	00 3f       	jmp	$-510    	;abs 0x8fa
     afa:	0b 00       	mova	@r0,	r11	
     afc:	00 0f       	bra	@r15		
     afe:	6c 78       	subc.b	@r8,	r12	
     b00:	00 01       	bra	@r1		
     b02:	f8 01       	suba	r1,	r8	
     b04:	2f 00 00 00 	mova	&0x00000,r15	
     b08:	58 0b       	rrum	#3,	r8	
     b0a:	00 00       	bra	@r0		
     b0c:	0f 6c       	addc	r12,	r15	
     b0e:	79 00 01 f8 	mova	r0,	-2047(r9);0xf801(r9)
     b12:	01 2f       	jc	$-508    	;abs 0x916
     b14:	00 00       	bra	@r0		
     b16:	00 71       	subc	r1,	r0	
     b18:	0b 00       	mova	@r0,	r11	
     b1a:	00 10       	rrc	r0		
     b1c:	10 04       	bra	@r4+		
     b1e:	00 00       	bra	@r0		
     b20:	01 f8       	and	r8,	r1	
     b22:	01 44       	mov	r4,	r1	
     b24:	00 00       	bra	@r0		
     b26:	00 02       	bra	#4		;r2 As==10
     b28:	91 0c 10 77 	cmpa	#0xc7710,r1	
     b2c:	03 00       	.word	0x0003;	????	Illegal as address instr
     b2e:	00 01       	bra	@r1		
     b30:	f8 01       	suba	r1,	r8	
     b32:	44 00       	rrcm.a	#1,	r4	
     b34:	00 00       	bra	@r0		
     b36:	02 91       	cmp	r1,	r2	
     b38:	0e 0e       	mova	@r14,	r14	
     b3a:	59 04       	rrcm	#2,	r9	
     b3c:	00 00       	bra	@r0		
     b3e:	01 f8       	and	r8,	r1	
     b40:	01 2f       	jc	$-508    	;abs 0x944
     b42:	00 00       	bra	@r0		
     b44:	00 83       	sub	#0,	r0	;r3 As==00
     b46:	0b 00       	mova	@r0,	r11	
     b48:	00 21       	jnz	$+514    	;abs 0xd4a
     b4a:	14 00       	mova	#0x00000,r4	
     b4c:	00 00       	bra	@r0		
     b4e:	22 85       	sub	@r5,	r2	
     b50:	03 00       	.word	0x0003;	????	Illegal as address instr
     b52:	00 01       	bra	@r1		
     b54:	05 02       	mova	#4,	r5	;r2 As==10
     b56:	2f 00 00 00 	mova	&0x00000,r15	
     b5a:	00 00       	bra	@r0		
     b5c:	0d 01       	mova	@r1,	r13	
     b5e:	9f 03 00 00 	cmpa	#0x30000,r15	
     b62:	01 0c       	mova	@r12,	r1	
     b64:	02 01       	mova	@r1,	r2	
     b66:	b8 3d       	jmp	$+882    	;abs 0xed8
     b68:	fc 3d       	jmp	$+1018   	;abs 0xf62
     b6a:	97 0b 00 00 	cmpa	#0xb0000,r7	
     b6e:	84 06 00 00 	mova	#0x60000,r4	
     b72:	0e a8       	dadd	r8,	r14	
     b74:	04 00       	mova	@r0,	r4	
     b76:	00 01       	bra	@r1		
     b78:	0c 02       	mova	#4,	r12	;r2 As==10
     b7a:	2f 00 00 00 	mova	&0x00000,r15	
     b7e:	b3 0b       	.word	0x0bb3;	????	Illegal as address instr
     b80:	00 00       	bra	@r0		
     b82:	0f 74       	subc	r4,	r15	
     b84:	6f 00 01 0c 	mova	r0,	&0xf0c01
     b88:	02 2f       	jc	$-506    	;abs 0x98e
     b8a:	00 00       	bra	@r0		
     b8c:	00 d3       	bis	#0,	r0	;r3 As==00
     b8e:	0b 00       	mova	@r0,	r11	
     b90:	00 23       	jnz	$-510    	;abs 0x992
     b92:	72 00 00 00 	mova	r0,	&0x0000	
     b96:	ca 3d       	jmp	$+918    	;abs 0xf2c
     b98:	24 00 00 00 	mova	&0x00000,r4	
     b9c:	01 0e       	mova	@r14,	r1	
     b9e:	02 1a       	.word	0x1a02;	????	
     ba0:	8b 00 00 00 	mova	#0x00000,r11	
     ba4:	ec 0b       	adda	r11,	r12	
     ba6:	00 00       	bra	@r0		
     ba8:	1a 81 00 00 	sub	0(r1),	r10	;0x0000(r1)
     bac:	00 10       	rrc	r0		
     bae:	0c 00       	mova	@r0,	r12	
     bb0:	00 00       	bra	@r0		
     bb2:	00 24       	jz	$+2      	;abs 0xbb4
     bb4:	4e 03       	rrum.a	#1,	r14	
     bb6:	00 00       	bra	@r0		
     bb8:	02 b1       	bit	r1,	r2	
     bba:	03 4b       	.word	0x4b03;	????	Illegal as 2-op instr
     bbc:	03 00       	.word	0x0003;	????	Illegal as address instr
     bbe:	00 96       	cmp	r6,	r0	
     bc0:	06 00       	mova	@r0,	r6	
     bc2:	00 01       	bra	@r1		
     bc4:	01 25       	jz	$+516    	;abs 0xdc8
     bc6:	44 00       	rrcm.a	#1,	r4	
     bc8:	00 00       	bra	@r0		
     bca:	24 64       	addc	@r4,	r4	
     bcc:	04 00       	mova	@r0,	r4	
     bce:	00 02       	bra	#4		;r2 As==10
     bd0:	b3 03       	.word	0x03b3;	????	Illegal as address instr
     bd2:	61 04 00 00 	mova	r4,	&0x10000
     bd6:	96 06 00 00 	cmpa	#0x60000,r6	
     bda:	01 01       	mova	@r1,	r1	
     bdc:	26 15       	pushm	#3,	r6	
     bde:	03 00       	.word	0x0003;	????	Illegal as address instr
     be0:	00 03       	bra	#2		;r3 As==10
     be2:	37 44       	mov	@r4+,	r7	
     be4:	00 00       	bra	@r0		
     be6:	00 01       	bra	@r1		
     be8:	01 26       	jz	$-1020   	;abs 0x7ec
     bea:	3b 04 00 00 	mova	0(r4),	r11	;0x0000(r4)
     bee:	03 38       	jl	$+8      	;abs 0xbf6
     bf0:	44 00       	rrcm.a	#1,	r4	
     bf2:	00 00       	bra	@r0		
     bf4:	01 01       	mova	@r1,	r1	
     bf6:	26 57       	add	@r7,	r6	
     bf8:	00 00       	bra	@r0		
     bfa:	00 03       	bra	#2		;r3 As==10
     bfc:	3a 44       	mov	@r4+,	r10	
     bfe:	00 00       	bra	@r0		
     c00:	00 01       	bra	@r1		
     c02:	01 26       	jz	$-1020   	;abs 0x806
     c04:	84 04 00 00 	mova	#0x40000,r4	
     c08:	03 3b       	jl	$-504    	;abs 0xa10
     c0a:	44 00       	rrcm.a	#1,	r4	
     c0c:	00 00       	bra	@r0		
     c0e:	01 01       	mova	@r1,	r1	
     c10:	27 60       	addc	@r0,	r7	
     c12:	00 00       	bra	@r0		
     c14:	00 f2       	and	r2,	r0	
     c16:	06 00       	mova	@r0,	r6	
     c18:	00 28       	jnc	$+2      	;abs 0xc1a
     c1a:	28 00 00 00 	mova	&0x00000,r8	
     c1e:	7f 02 00 26 	mova	r2,	9728(r15);0x2600(r15)
     c22:	9d 04 00 00 	cmpa	#0x40000,r13	
     c26:	03 4d       	.word	0x4d03;	????	Illegal as 2-op instr
     c28:	ff 06       	suba	r6,	r15	
     c2a:	00 00       	bra	@r0		
     c2c:	01 01       	mova	@r1,	r1	
     c2e:	29 e1       	xor	@r1,	r9	
     c30:	06 00       	mova	@r0,	r6	
     c32:	00 24       	jz	$+2      	;abs 0xc34
     c34:	4e 03       	rrum.a	#1,	r14	
     c36:	00 00       	bra	@r0		
     c38:	02 b1       	bit	r1,	r2	
     c3a:	03 4b       	.word	0x4b03;	????	Illegal as 2-op instr
     c3c:	03 00       	.word	0x0003;	????	Illegal as address instr
     c3e:	00 96       	cmp	r6,	r0	
     c40:	06 00       	mova	@r0,	r6	
     c42:	00 01       	bra	@r1		
     c44:	01 24       	jz	$+4      	;abs 0xc48
     c46:	64 04 00 00 	mova	r4,	&0x40000
     c4a:	02 b3       	bit	#0,	r2	;r3 As==00
     c4c:	03 61       	.word	0x6103;	????	Illegal as 2-op instr
     c4e:	04 00       	mova	@r0,	r4	
     c50:	00 96       	cmp	r6,	r0	
     c52:	06 00       	mova	@r0,	r6	
     c54:	00 01       	bra	@r1		
     c56:	01 2a       	jnc	$-1020   	;abs 0x85a
     c58:	15 03       	mova	#-1,	r5	;r3 As==11
     c5a:	00 00       	bra	@r0		
     c5c:	01 22       	jnz	$-1020   	;abs 0x860
     c5e:	44 00       	rrcm.a	#1,	r4	
     c60:	00 00       	bra	@r0		
     c62:	01 03       	mova	#2,	r1	;r3 As==10
     c64:	03 02       	.word	0x0203;	????	Illegal as address instr
     c66:	11 2a       	jnc	$-988    	;abs 0x88a
     c68:	3b 04 00 00 	mova	0(r4),	r11	;0x0000(r4)
     c6c:	01 23       	jnz	$-508    	;abs 0xa70
     c6e:	44 00       	rrcm.a	#1,	r4	
     c70:	00 00       	bra	@r0		
     c72:	01 03       	mova	#2,	r1	;r3 As==10
     c74:	03 04       	.word	0x0403;	????	Illegal as address instr
     c76:	11 2a       	jnc	$-988    	;abs 0x89a
     c78:	57 00       	rrcm	#1,	r7	
     c7a:	00 00       	bra	@r0		
     c7c:	01 24       	jz	$+4      	;abs 0xc80
     c7e:	44 00       	rrcm.a	#1,	r4	
     c80:	00 00       	bra	@r0		
     c82:	01 03       	mova	#2,	r1	;r3 As==10
     c84:	03 00       	.word	0x0003;	????	Illegal as address instr
     c86:	11 2a       	jnc	$-988    	;abs 0x8aa
     c88:	84 04 00 00 	mova	#0x40000,r4	
     c8c:	01 25       	jz	$+516    	;abs 0xe90
     c8e:	44 00       	rrcm.a	#1,	r4	
     c90:	00 00       	bra	@r0		
     c92:	01 03       	mova	#2,	r1	;r3 As==10
     c94:	03 06       	.word	0x0603;	????	Illegal as address instr
     c96:	11 2a       	jnc	$-988    	;abs 0x8ba
     c98:	9d 04 00 00 	cmpa	#0x40000,r13	
     c9c:	01 27       	jz	$-508    	;abs 0xaa0
     c9e:	78 07 00 00 	mova	r7,	0(r8)	;0x0000(r8)
     ca2:	01 03       	mova	#2,	r1	;r3 As==10
     ca4:	03 fc       	.word	0xfc03;	????	Illegal as 2-op instr
     ca6:	3d 29       	jnc	$+636    	;abs 0xf22
     ca8:	e1 06       	adda	r6,	r1	
     caa:	00 00       	bra	@r0		
     cac:	00 68       	addc	r8,	r0	
     cae:	01 00       	mova	@r0,	r1	
     cb0:	00 02       	bra	#4		;r2 As==10
     cb2:	00 85       	sub	r5,	r0	
     cb4:	04 00       	mova	@r0,	r4	
     cb6:	00 02       	bra	#4		;r2 As==10
     cb8:	01 8e       	sub	r14,	r1	
     cba:	00 00       	bra	@r0		
     cbc:	00 01       	bra	@r1		
     cbe:	03 05       	.word	0x0503;	????	Illegal as address instr
     cc0:	00 00       	bra	@r0		
     cc2:	1a 00       	mova	#0x00000,r10	
     cc4:	00 00       	bra	@r0		
     cc6:	7c 40 be 40 	mov.b	#16574,	r12	;#0x40be
     cca:	41 0b       	rrum.a	#3,	r1	
     ccc:	00 00       	bra	@r0		
     cce:	02 01       	mova	@r1,	r2	
     cd0:	15 05       	mova	@r5+,	r5	
     cd2:	00 00       	bra	@r0		
     cd4:	01 06       	mova	@r6,	r1	
     cd6:	01 01       	mova	@r1,	r1	
     cd8:	03 21       	jnz	$+520    	;abs 0xee0
     cda:	00 00       	bra	@r0		
     cdc:	00 7c       	subc	r12,	r0	
     cde:	40 94       	cmp.b	r4,	r0	
     ce0:	40 02       	rlam.a	#1,	r0	
     ce2:	71 02 04 01 	mova	r2,	260(r1)	;0x0104(r1)
     ce6:	f4 04       	suba	r4,	r4	
     ce8:	00 00       	bra	@r0		
     cea:	01 0d       	mova	@r13,	r1	
     cec:	01 94       	cmp	r4,	r1	
     cee:	40 be       	bit.b	r14,	r0	
     cf0:	40 02       	rlam.a	#1,	r0	
     cf2:	71 02 57 00 	mova	r2,	87(r1)	;0x0057(r1)
     cf6:	00 00       	bra	@r0		
     cf8:	05 21       	jnz	$+524    	;abs 0xf04
     cfa:	00 00       	bra	@r0		
     cfc:	00 9a       	cmp	r10,	r0	
     cfe:	40 b0       	bit.b	r0,	r0	
     d00:	40 01       	rram.a	#1,	r0	
     d02:	10 00       	bra	#0x00000	
     d04:	06 b9       	bit	r9,	r6	
     d06:	04 00       	mova	@r0,	r4	
     d08:	00 02       	bra	#4		;r2 As==10
     d0a:	c4 01       	mova	r1,	r4	
     d0c:	b6 04 00 00 	suba	#0x40000,r6	
     d10:	69 00 00 00 	mova	r0,	&0x90000
     d14:	01 01       	mova	@r1,	r1	
     d16:	07 6e       	addc	r14,	r7	
     d18:	00 00       	bra	@r0		
     d1a:	00 08       	bra	@r8		
     d1c:	01 08       	mova	@r8,	r1	
     d1e:	9a 00 00 00 	cmpa	#0x00000,r10	
     d22:	06 c3       	bic	#0,	r6	;r3 As==00
     d24:	04 00       	mova	@r0,	r4	
     d26:	00 02       	bra	#4		;r2 As==10
     d28:	c6 01       	mova	r1,	r6	
     d2a:	c0 04       	bra	r4		
     d2c:	00 00       	bra	@r0		
     d2e:	69 00 00 00 	mova	r0,	&0x90000
     d32:	01 01       	mova	@r1,	r1	
     d34:	06 ce       	bic	r14,	r6	
     d36:	04 00       	mova	@r0,	r4	
     d38:	00 02       	bra	#4		;r2 As==10
     d3a:	c8 01       	mova	r1,	r8	
     d3c:	cb 04       	mova	r4,	r11	
     d3e:	00 00       	bra	@r0		
     d40:	69 00 00 00 	mova	r0,	&0x90000
     d44:	01 01       	mova	@r1,	r1	
     d46:	06 d9       	bis	r9,	r6	
     d48:	04 00       	mova	@r0,	r4	
     d4a:	00 02       	bra	#4		;r2 As==10
     d4c:	ca 01       	mova	r1,	r10	
     d4e:	d6 04       	cmpa	r4,	r6	
     d50:	00 00       	bra	@r0		
     d52:	69 00 00 00 	mova	r0,	&0x90000
     d56:	01 01       	mova	@r1,	r1	
     d58:	06 b0       	bit	r0,	r6	
     d5a:	04 00       	mova	@r0,	r4	
     d5c:	00 02       	bra	#4		;r2 As==10
     d5e:	7e 03 ad 04 	mova	#0,	1197(r14);r3 As==00, 0x04ad(r14)
     d62:	00 00       	bra	@r0		
     d64:	69 00 00 00 	mova	r0,	&0x90000
     d68:	01 01       	mova	@r1,	r1	
     d6a:	06 ee       	xor	r14,	r6	
     d6c:	04 00       	mova	@r0,	r4	
     d6e:	00 02       	bra	#4		;r2 As==10
     d70:	80 03 eb 04 	bra	#0x304eb	
     d74:	00 00       	bra	@r0		
     d76:	69 00 00 00 	mova	r0,	&0x90000
     d7a:	01 01       	mova	@r1,	r1	
     d7c:	06 e4       	xor	r4,	r6	
     d7e:	04 00       	mova	@r0,	r4	
     d80:	00 02       	bra	#4		;r2 As==10
     d82:	d9 05       	cmpa	r5,	r9	
     d84:	e1 04       	adda	r4,	r1	
     d86:	00 00       	bra	@r0		
     d88:	e1 00       	adda	r0,	r1	
     d8a:	00 00       	bra	@r0		
     d8c:	01 01       	mova	@r1,	r1	
     d8e:	07 e6       	xor	r6,	r7	
     d90:	00 00       	bra	@r0		
     d92:	00 08       	bra	@r8		
     d94:	02 07       	mova	@r7,	r2	
     d96:	6e 00 00 00 	mova	r0,	&0xe0000
     d9a:	06 b9       	bit	r9,	r6	
     d9c:	04 00       	mova	@r0,	r4	
     d9e:	00 02       	bra	#4		;r2 As==10
     da0:	c4 01       	mova	r1,	r4	
     da2:	b6 04 00 00 	suba	#0x40000,r6	
     da6:	69 00 00 00 	mova	r0,	&0x90000
     daa:	01 01       	mova	@r1,	r1	
     dac:	06 c3       	bic	#0,	r6	;r3 As==00
     dae:	04 00       	mova	@r0,	r4	
     db0:	00 02       	bra	#4		;r2 As==10
     db2:	c6 01       	mova	r1,	r6	
     db4:	c0 04       	bra	r4		
     db6:	00 00       	bra	@r0		
     db8:	69 00 00 00 	mova	r0,	&0x90000
     dbc:	01 01       	mova	@r1,	r1	
     dbe:	06 ce       	bic	r14,	r6	
     dc0:	04 00       	mova	@r0,	r4	
     dc2:	00 02       	bra	#4		;r2 As==10
     dc4:	c8 01       	mova	r1,	r8	
     dc6:	cb 04       	mova	r4,	r11	
     dc8:	00 00       	bra	@r0		
     dca:	69 00 00 00 	mova	r0,	&0x90000
     dce:	01 01       	mova	@r1,	r1	
     dd0:	06 d9       	bis	r9,	r6	
     dd2:	04 00       	mova	@r0,	r4	
     dd4:	00 02       	bra	#4		;r2 As==10
     dd6:	ca 01       	mova	r1,	r10	
     dd8:	d6 04       	cmpa	r4,	r6	
     dda:	00 00       	bra	@r0		
     ddc:	69 00 00 00 	mova	r0,	&0x90000
     de0:	01 01       	mova	@r1,	r1	
     de2:	06 b0       	bit	r0,	r6	
     de4:	04 00       	mova	@r0,	r4	
     de6:	00 02       	bra	#4		;r2 As==10
     de8:	7e 03 ad 04 	mova	#0,	1197(r14);r3 As==00, 0x04ad(r14)
     dec:	00 00       	bra	@r0		
     dee:	69 00 00 00 	mova	r0,	&0x90000
     df2:	01 01       	mova	@r1,	r1	
     df4:	06 ee       	xor	r14,	r6	
     df6:	04 00       	mova	@r0,	r4	
     df8:	00 02       	bra	#4		;r2 As==10
     dfa:	80 03 eb 04 	bra	#0x304eb	
     dfe:	00 00       	bra	@r0		
     e00:	69 00 00 00 	mova	r0,	&0x90000
     e04:	01 01       	mova	@r1,	r1	
     e06:	06 e4       	xor	r4,	r6	
     e08:	04 00       	mova	@r0,	r4	
     e0a:	00 02       	bra	#4		;r2 As==10
     e0c:	d9 05       	cmpa	r5,	r9	
     e0e:	e1 04       	adda	r4,	r1	
     e10:	00 00       	bra	@r0		
     e12:	e1 00       	adda	r0,	r1	
     e14:	00 00       	bra	@r0		
     e16:	01 01       	mova	@r1,	r1	
     e18:	00 ff       	and	r15,	r0	
     e1a:	00 00       	bra	@r0		
     e1c:	00 02       	bra	#4		;r2 As==10
     e1e:	00 03       	bra	#2		;r3 As==10
     e20:	05 00       	mova	@r0,	r5	
     e22:	00 02       	bra	#4		;r2 As==10
     e24:	01 8e       	sub	r14,	r1	
     e26:	00 00       	bra	@r0		
     e28:	00 01       	bra	@r1		
     e2a:	60 05 00 00 	mova	r5,	&0x00000
     e2e:	32 05 00 00 	mova	0(r5),	r2	;0x0000(r5)
     e32:	be 40 de 40 	mov	#16606,	3114(r14);#0x40de, 0x0c2a(r14)
     e36:	2a 0c 
     e38:	00 00       	bra	@r0		
     e3a:	02 04       	mova	@r4,	r2	
     e3c:	05 05       	mova	@r5,	r5	
     e3e:	00 00       	bra	@r0		
     e40:	00 02       	bra	#4		;r2 As==10
     e42:	02 07       	mova	@r7,	r2	
     e44:	6e 00 00 00 	mova	r0,	&0xe0000
     e48:	03 02       	.word	0x0203;	????	Illegal as address instr
     e4a:	05 69       	addc	r9,	r5	
     e4c:	6e 74       	subc.b	@r4,	r14	
     e4e:	00 02       	bra	#4		;r2 As==10
     e50:	01 06       	mova	@r6,	r1	
     e52:	9c 00 00 00 	cmpa	#0x00000,r12	
     e56:	02 08       	mova	@r8,	r2	
     e58:	05 00       	mova	@r0,	r5	
     e5a:	00 00       	bra	@r0		
     e5c:	00 02       	bra	#4		;r2 As==10
     e5e:	01 08       	mova	@r8,	r1	
     e60:	9a 00 00 00 	cmpa	#0x00000,r10	
     e64:	02 04       	mova	@r4,	r2	
     e66:	07 69       	addc	r9,	r7	
     e68:	00 00       	bra	@r0		
     e6a:	00 02       	bra	#4		;r2 As==10
     e6c:	08 07       	mova	@r7,	r8	
     e6e:	64 00 00 00 	mova	r0,	&0x40000
     e72:	02 02       	mova	#4,	r2	;r2 As==10
     e74:	07 cb       	bic	r11,	r7	
     e76:	00 00       	bra	@r0		
     e78:	00 02       	bra	#4		;r2 As==10
     e7a:	01 06       	mova	@r6,	r1	
     e7c:	a3 00       	.word	0x00a3;	????	Illegal as address instr
     e7e:	00 00       	bra	@r0		
     e80:	04 02       	mova	#4,	r4	;r2 As==10
     e82:	6d 00 00 00 	mova	r0,	&0xd0000
     e86:	05 60       	addc	r0,	r5	
     e88:	00 00       	bra	@r0		
     e8a:	00 06       	bra	@r6		
     e8c:	72 05 00 00 	mova	r5,	&0x0000	
     e90:	02 28       	jnc	$+6      	;abs 0xe96
     e92:	7d 00 00 00 	mova	r0,	0(r13)	;0x0000(r13)
     e96:	07 02       	mova	#4,	r7	;r2 As==10
     e98:	20 05 00 00 	bra	&0x50000	
     e9c:	06 79       	subc	r9,	r6	
     e9e:	05 00       	mova	@r0,	r5	
     ea0:	00 02       	bra	#4		;r2 As==10
     ea2:	66 72       	subc.b	#4,	r6	;r2 As==10
     ea4:	00 00       	bra	@r0		
     ea6:	00 08       	bra	@r8		
     ea8:	01 6e       	addc	r14,	r1	
     eaa:	06 00       	mova	@r0,	r6	
     eac:	00 01       	bra	@r1		
     eae:	24 01 2f 00 	mova	&0x1002f,r4	
     eb2:	00 00       	bra	@r0		
     eb4:	be 40 d0 40 	mov	#16592,	28930(r14);#0x40d0, 0x7102(r14)
     eb8:	02 71 
     eba:	02 cf       	bic	r15,	r2	
     ebc:	00 00       	bra	@r0		
     ebe:	00 09       	bra	@r9		
     ec0:	66 6d       	addc.b	@r13,	r6	
     ec2:	74 00 01 24 	mova	r0,	9217(r4);0x2401(r4)
     ec6:	67 00 00 00 	mova	r0,	&0x70000
     eca:	02 91       	cmp	r1,	r2	
     ecc:	02 0a       	mova	@r10,	r2	
     ece:	0b 81       	sub	r1,	r11	
     ed0:	05 00       	mova	@r0,	r5	
     ed2:	00 01       	bra	@r1		
     ed4:	26 83       	decd	r6		
     ed6:	00 00       	bra	@r0		
     ed8:	00 03       	bra	#2		;r3 As==10
     eda:	91 02 9f 0c 	cmpa	#0x20c9f,r1	
     ede:	72 63       	addc.b	#-1,	r2	;r3 As==11
     ee0:	00 01       	bra	@r1		
     ee2:	27 2f       	jc	$-432    	;abs 0xd32
     ee4:	00 00       	bra	@r0		
     ee6:	00 00       	bra	@r0		
     ee8:	0d 01       	mova	@r1,	r13	
     eea:	58 05       	rram	#2,	r8	
     eec:	00 00       	bra	@r0		
     eee:	01 30       	jn	$+4      	;abs 0xef2
     ef0:	01 2f       	jc	$-508    	;abs 0xcf4
     ef2:	00 00       	bra	@r0		
     ef4:	00 d0       	bis	r0,	r0	
     ef6:	40 de       	bis.b	r14,	r0	
     ef8:	40 02       	rlam.a	#1,	r0	
     efa:	71 02 0e 66 	mova	r2,	26126(r1);0x660e(r1)
     efe:	6d 74       	subc.b	@r4,	r13	
     f00:	00 01       	bra	@r1		
     f02:	30 67       	addc	@r7+,	r0	
     f04:	00 00       	bra	@r0		
     f06:	00 29       	jnc	$+514    	;abs 0x1108
     f08:	0c 00       	mova	@r0,	r12	
     f0a:	00 0f       	bra	@r15		
     f0c:	81 05 00 00 	mova	#0x50000,r1	
     f10:	01 30       	jn	$+4      	;abs 0xf14
     f12:	83 00       	.word	0x0083;	????	Illegal as address instr
     f14:	00 00       	bra	@r0		
     f16:	3b 0c 00 00 	mova	0(r12),	r11	;0x0000(r12)
     f1a:	00 00       	bra	@r0		
     f1c:	b1 03 00 00 	suba	#0x30000,r1	
     f20:	02 00       	mova	@r0,	r2	
     f22:	d1 05       	cmpa	r5,	r1	
     f24:	00 00       	bra	@r0		
     f26:	02 01       	mova	@r1,	r2	
     f28:	8e 00 00 00 	mova	#0x00000,r14	
     f2c:	01 91       	cmp	r1,	r1	
     f2e:	06 00       	mova	@r0,	r6	
     f30:	00 32       	jn	$-1022   	;abs 0xb32
     f32:	05 00       	mova	@r0,	r5	
     f34:	00 de       	bis	r14,	r0	
     f36:	40 54       	add.b	r4,	r0	
     f38:	45 c0       	bic.b	r0,	r5	
     f3a:	0c 00       	mova	@r0,	r12	
     f3c:	00 02       	bra	#4		;r2 As==10
     f3e:	04 05       	mova	@r5,	r4	
     f40:	05 00       	mova	@r0,	r5	
     f42:	00 00       	bra	@r0		
     f44:	02 02       	mova	#4,	r2	;r2 As==10
     f46:	07 6e       	addc	r14,	r7	
     f48:	00 00       	bra	@r0		
     f4a:	00 03       	bra	#2		;r3 As==10
     f4c:	02 05       	mova	@r5,	r2	
     f4e:	69 6e       	addc.b	@r14,	r9	
     f50:	74 00 02 01 	mova	r0,	258(r4)	;0x0102(r4)
     f54:	06 9c       	cmp	r12,	r6	
     f56:	00 00       	bra	@r0		
     f58:	00 04       	bra	@r4		
     f5a:	4a 06       	rlam.a	#2,	r10	
     f5c:	00 00       	bra	@r0		
     f5e:	02 27       	jz	$-506    	;abs 0xd64
     f60:	2f 00 00 00 	mova	&0x00000,r15	
     f64:	02 08       	mova	@r8,	r2	
     f66:	05 00       	mova	@r0,	r5	
     f68:	00 00       	bra	@r0		
     f6a:	00 02       	bra	#4		;r2 As==10
     f6c:	01 08       	mova	@r8,	r1	
     f6e:	9a 00 00 00 	cmpa	#0x00000,r10	
     f72:	02 04       	mova	@r4,	r2	
     f74:	07 69       	addc	r9,	r7	
     f76:	00 00       	bra	@r0		
     f78:	00 02       	bra	#4		;r2 As==10
     f7a:	08 07       	mova	@r7,	r8	
     f7c:	64 00 00 00 	mova	r0,	&0x40000
     f80:	04 86       	sub	r6,	r4	
     f82:	05 00       	mova	@r0,	r5	
     f84:	00 02       	bra	#4		;r2 As==10
     f86:	56 3d       	jmp	$+686    	;abs 0x1234
     f88:	00 00       	bra	@r0		
     f8a:	00 02       	bra	#4		;r2 As==10
     f8c:	02 07       	mova	@r7,	r2	
     f8e:	cb 00       	mova	r0,	r11	
     f90:	00 00       	bra	@r0		
     f92:	05 02       	mova	#4,	r5	;r2 As==10
     f94:	7c 00 00 00 	mova	r0,	0(r12)	;0x0000(r12)
     f98:	02 01       	mova	@r1,	r2	
     f9a:	06 a3       	dadc	r6		
     f9c:	00 00       	bra	@r0		
     f9e:	00 05       	bra	@r5		
     fa0:	02 89       	sub	r9,	r2	
     fa2:	00 00       	bra	@r0		
     fa4:	00 06       	bra	@r6		
     fa6:	7c 00 00 00 	mova	r0,	0(r12)	;0x0000(r12)
     faa:	04 72       	subc	r2,	r4	
     fac:	05 00       	mova	@r0,	r5	
     fae:	00 03       	bra	#2		;r3 As==10
     fb0:	28 99       	cmp	@r9,	r8	
     fb2:	00 00       	bra	@r0		
     fb4:	00 07       	bra	@r7		
     fb6:	02 20       	jnz	$+6      	;abs 0xfbc
     fb8:	05 00       	mova	@r0,	r5	
     fba:	00 04       	bra	@r4		
     fbc:	79 05 00 00 	mova	r5,	0(r9)	;0x0000(r9)
     fc0:	03 66       	.word	0x6603;	????	Illegal as 2-op instr
     fc2:	8e 00 00 00 	mova	#0x00000,r14	
     fc6:	08 02       	mova	#4,	r8	;r2 As==10
     fc8:	01 34       	jge	$+4      	;abs 0xfcc
     fca:	38 01 00 00 	mova	0(r1),	r8	;0x0000(r1)
     fce:	09 f5       	and	r5,	r9	
     fd0:	05 00       	mova	@r0,	r5	
     fd2:	00 01       	bra	@r1		
     fd4:	36 28       	jnc	$+110    	;abs 0x1042
     fd6:	00 00       	bra	@r0		
     fd8:	00 02       	bra	#4		;r2 As==10
     fda:	01 0f       	mova	@r15,	r1	
     fdc:	02 23       	jnz	$-506    	;abs 0xde2
     fde:	00 09       	bra	@r9		
     fe0:	75 06 00 00 	mova	r6,	0(r5)	;0x0000(r5)
     fe4:	01 37       	jge	$-508    	;abs 0xde8
     fe6:	28 00 00 00 	mova	&0x00000,r8	
     fea:	02 01       	mova	@r1,	r2	
     fec:	0e 02       	mova	#4,	r14	;r2 As==10
     fee:	23 00       	.word	0x0023;	????	Illegal as address instr
     ff0:	09 e0       	xor	r0,	r9	
     ff2:	05 00       	mova	@r0,	r5	
     ff4:	00 01       	bra	@r1		
     ff6:	38 28       	jnc	$+114    	;abs 0x1068
     ff8:	00 00       	bra	@r0		
     ffa:	00 02       	bra	#4		;r2 As==10
     ffc:	01 0d       	mova	@r13,	r1	
     ffe:	02 23       	jnz	$-506    	;abs 0xe04
    1000:	00 09       	bra	@r9		
    1002:	ce 05       	mova	r5,	r14	
    1004:	00 00       	bra	@r0		
    1006:	01 39       	jl	$+516    	;abs 0x120a
    1008:	28 00 00 00 	mova	&0x00000,r8	
    100c:	02 01       	mova	@r1,	r2	
    100e:	0c 02       	mova	#4,	r12	;r2 As==10
    1010:	23 00       	.word	0x0023;	????	Illegal as address instr
    1012:	09 ac       	dadd	r12,	r9	
    1014:	05 00       	mova	@r0,	r5	
    1016:	00 01       	bra	@r1		
    1018:	3a 28       	jnc	$+118    	;abs 0x108e
    101a:	00 00       	bra	@r0		
    101c:	00 02       	bra	#4		;r2 As==10
    101e:	01 0b       	mova	@r11,	r1	
    1020:	02 23       	jnz	$-506    	;abs 0xe26
    1022:	00 09       	bra	@r9		
    1024:	87 06 00 00 	mova	#0x60000,r7	
    1028:	01 3b       	jl	$-508    	;abs 0xe2c
    102a:	28 00 00 00 	mova	&0x00000,r8	
    102e:	02 01       	mova	@r1,	r2	
    1030:	0a 02       	mova	#4,	r10	;r2 As==10
    1032:	23 00       	.word	0x0023;	????	Illegal as address instr
    1034:	09 eb       	xor	r11,	r9	
    1036:	05 00       	mova	@r0,	r5	
    1038:	00 01       	bra	@r1		
    103a:	3c 28       	jnc	$+122    	;abs 0x10b4
    103c:	00 00       	bra	@r0		
    103e:	00 02       	bra	#4		;r2 As==10
    1040:	01 09       	mova	@r9,	r1	
    1042:	02 23       	jnz	$-506    	;abs 0xe48
    1044:	00 0a       	bra	@r10		
    1046:	62 06 00 00 	mova	r6,	&0x20000
    104a:	01 3d       	jmp	$+516    	;abs 0x124e
    104c:	7c 00 00 00 	mova	r0,	0(r12)	;0x0000(r12)
    1050:	02 23       	jnz	$-506    	;abs 0xe56
    1052:	01 00       	mova	@r0,	r1	
    1054:	04 7f       	subc	r15,	r4	
    1056:	06 00       	mova	@r0,	r6	
    1058:	00 01       	bra	@r1		
    105a:	3e aa       	dadd	@r10+,	r14	
    105c:	00 00       	bra	@r0		
    105e:	00 0b       	bra	@r11		
    1060:	d5 06       	cmpa	r6,	r5	
    1062:	00 00       	bra	@r0		
    1064:	01 4b       	mov	r11,	r1	
    1066:	01 2f       	jc	$-508    	;abs 0xe6a
    1068:	00 00       	bra	@r0		
    106a:	00 01       	bra	@r1		
    106c:	74 01 00 00 	mova	r1,	0(r4)	;0x0000(r4)
    1070:	0c 36       	jge	$-998    	;abs 0xc8a
    1072:	06 00       	mova	@r0,	r6	
    1074:	00 01       	bra	@r1		
    1076:	4b 76       	subc.b	r6,	r11	
    1078:	00 00       	bra	@r0		
    107a:	00 0c       	bra	@r12		
    107c:	2b 06 00 00 	mova	&0x60000,r11	
    1080:	01 4b       	mov	r11,	r1	
    1082:	38 01 00 00 	mova	0(r1),	r8	;0x0000(r1)
    1086:	0d 70       	subc	r0,	r13	
    1088:	00 01       	bra	@r1		
    108a:	4d 76       	subc.b	r6,	r13	
    108c:	00 00       	bra	@r0		
    108e:	00 00       	bra	@r0		
    1090:	0e 07       	mova	@r7,	r14	
    1092:	06 00       	mova	@r0,	r6	
    1094:	00 01       	bra	@r1		
    1096:	63 01 2f 00 	mova	r1,	&0x3002f
    109a:	00 00       	bra	@r0		
    109c:	de 40 e2 41 	mov.b	0x41e2,	3149(r14);PC rel. 0x05282, 0x0c4d(r14)
    10a0:	4d 0c 
    10a2:	00 00       	bra	@r0		
    10a4:	53 02       	rlam	#1,	#0	;r3 As==00
    10a6:	00 00       	bra	@r0		
    10a8:	0f a1       	dadd	r1,	r15	
    10aa:	05 00       	mova	@r0,	r5	
    10ac:	00 01       	bra	@r1		
    10ae:	63 63       	.word	0x6363;	????	Illegal as 2-op instr
    10b0:	02 00       	mova	@r0,	r2	
    10b2:	00 a1       	dadd	r1,	r0	
    10b4:	0c 00       	mova	@r0,	r12	
    10b6:	00 0f       	bra	@r15		
    10b8:	c7 05       	mova	r5,	r7	
    10ba:	00 00       	bra	@r0		
    10bc:	01 63       	adc	r1		
    10be:	83 00       	.word	0x0083;	????	Illegal as address instr
    10c0:	00 00       	bra	@r0		
    10c2:	b3 0c       	.word	0x0cb3;	????	Illegal as address instr
    10c4:	00 00       	bra	@r0		
    10c6:	0f 71       	subc	r1,	r15	
    10c8:	03 00       	.word	0x0003;	????	Illegal as address instr
    10ca:	00 01       	bra	@r1		
    10cc:	63 28       	jnc	$+200    	;abs 0x1194
    10ce:	00 00       	bra	@r0		
    10d0:	00 cc       	bic	r12,	r0	
    10d2:	0c 00       	mova	@r0,	r12	
    10d4:	00 0f       	bra	@r15		
    10d6:	2b 06 00 00 	mova	&0x60000,r11	
    10da:	01 64       	addc	r4,	r1	
    10dc:	38 01 00 00 	mova	0(r1),	r8	;0x0000(r1)
    10e0:	ec 0c       	adda	r12,	r12	
    10e2:	00 00       	bra	@r0		
    10e4:	10 ab 06 00 	dadd	6(r11),	r0	;0x0006(r11)
    10e8:	00 01       	bra	@r1		
    10ea:	66 2f       	jc	$-306    	;abs 0xfb8
    10ec:	00 00       	bra	@r0		
    10ee:	00 f7       	and	r7,	r0	
    10f0:	0c 00       	mova	@r0,	r12	
    10f2:	00 11       	rra	r0		
    10f4:	36 06 00 00 	mova	0(r6),	r6	;0x0000(r6)
    10f8:	01 67       	addc	r7,	r1	
    10fa:	69 02 00 00 	mova	r2,	&0x90000
    10fe:	02 91       	cmp	r1,	r2	
    1100:	00 10       	rrc	r0		
    1102:	20 06 00 00 	bra	&0x60000	
    1106:	01 68       	addc	r8,	r1	
    1108:	2f 00 00 00 	mova	&0x00000,r15	
    110c:	4a 0d       	rram.a	#4,	r10	
    110e:	00 00       	bra	@r0		
    1110:	11 bc 05 00 	bit	5(r12),	r1	;0x0005(r12)
    1114:	00 01       	bra	@r1		
    1116:	69 2f       	jc	$-300    	;abs 0xfea
    1118:	00 00       	bra	@r0		
    111a:	00 01       	bra	@r1		
    111c:	56 12 43 01 	push.b	323(r6)	;0x0143(r6)
    1120:	00 00       	bra	@r0		
    1122:	fc 40 38 41 	mov.b	#16696,	26881(r12);#0x4138, 0x6901(r12)
    1126:	01 69 
    1128:	2e 02 00 00 	mova	&0x20000,r14	
    112c:	13 5f       	.word	0x5f13;	????	Illegal as 2-op instr
    112e:	01 00       	mova	@r0,	r1	
    1130:	00 14       	pushm.a	#1,	r0	
    1132:	54 01       	rram	#1,	r4	
    1134:	00 00       	bra	@r0		
    1136:	89 0d 00 00 	mova	#0xd0000,r9	
    113a:	15 fc 40 38 	and	14400(r12),r5	;0x3840(r12)
    113e:	41 16       	popm.a	#5,	r5	
    1140:	6a 01 00 00 	mova	r1,	&0xa0000
    1144:	9d 0d 00 00 	cmpa	#0xd0000,r13	
    1148:	00 00       	bra	@r0		
    114a:	17 30       	jn	$+48     	;abs 0x117a
    114c:	00 00       	bra	@r0		
    114e:	00 10       	rrc	r0		
    1150:	94 05 00 00 	cmpa	#0x50000,r4	
    1154:	01 6e       	addc	r14,	r1	
    1156:	7c 00 00 00 	mova	r0,	0(r12)	;0x0000(r12)
    115a:	d8 0d       	cmpa	r13,	r8	
    115c:	00 00       	bra	@r0		
    115e:	18 6c 65 6e 	addc	28261(r12),r8	;0x6e65(r12)
    1162:	00 01       	bra	@r1		
    1164:	6f 28       	jnc	$+224    	;abs 0x1244
    1166:	00 00       	bra	@r0		
    1168:	00 f3       	and	#0,	r0	;r3 As==00
    116a:	0d 00       	mova	@r0,	r13	
    116c:	00 00       	bra	@r0		
    116e:	00 19       	.word	0x1900;	????	
    1170:	01 2f       	jc	$-508    	;abs 0xf74
    1172:	00 00       	bra	@r0		
    1174:	00 63       	adc	r0		
    1176:	02 00       	mova	@r0,	r2	
    1178:	00 1a       	.word	0x1a00;	????	
    117a:	2f 00 00 00 	mova	&0x00000,r15	
    117e:	00 05       	bra	@r5		
    1180:	02 53       	add	#0,	r2	;r3 As==00
    1182:	02 00       	mova	@r0,	r2	
    1184:	00 1b       	.word	0x1b00;	????	
    1186:	7c 00 00 00 	mova	r0,	0(r12)	;0x0000(r12)
    118a:	79 02 00 00 	mova	r2,	0(r9)	;0x0000(r9)
    118e:	1c 28       	jnc	$+58     	;abs 0x11c8
    1190:	00 00       	bra	@r0		
    1192:	00 01       	bra	@r1		
    1194:	00 1d 01 6c 	addcx	r12,	r1	
    1198:	06 00       	mova	@r0,	r6	
    119a:	00 01       	bra	@r1		
    119c:	c5 01       	mova	r1,	r5	
    119e:	2f 00 00 00 	mova	&0x00000,r15	
    11a2:	ea 41 54 45 	mov.b	@r1,	17748(r10);0x4554(r10)
    11a6:	05 0e       	mova	@r14,	r5	
    11a8:	00 00       	bra	@r0		
    11aa:	a8 03 00 00 	adda	#0x30000,r8	
    11ae:	0f a1       	dadd	r1,	r15	
    11b0:	05 00       	mova	@r0,	r5	
    11b2:	00 01       	bra	@r1		
    11b4:	c5 63 02 00 	adc.b	2(r5)		;0x0002(r5)
    11b8:	00 59       	add	r9,	r0	
    11ba:	0e 00       	mova	@r0,	r14	
    11bc:	00 0f       	bra	@r15		
    11be:	ce 06       	mova	r6,	r14	
    11c0:	00 00       	bra	@r0		
    11c2:	01 c5       	bic	r5,	r1	
    11c4:	83 00       	.word	0x0083;	????	Illegal as address instr
    11c6:	00 00       	bra	@r0		
    11c8:	6c 0e 00 00 	mova	r14,	&0xc0000
    11cc:	0f 31       	jn	$+544    	;abs 0x13ec
    11ce:	06 00       	mova	@r0,	r6	
    11d0:	00 01       	bra	@r1		
    11d2:	c5 9f 00 00 	cmp.b	r15,	0(r5)	;0x0000(r5)
    11d6:	00 86       	sub	r6,	r0	
    11d8:	0e 00       	mova	@r0,	r14	
    11da:	00 10       	rrc	r0		
    11dc:	ab 06 00 00 	adda	#0x60000,r11	
    11e0:	01 c7       	bic	r7,	r1	
    11e2:	2f 00 00 00 	mova	&0x00000,r15	
    11e6:	01 0f       	mova	@r15,	r1	
    11e8:	00 00       	bra	@r0		
    11ea:	1e 02       	mova	#8,	r14	;r2 As==11
    11ec:	01 c9       	bic	r9,	r1	
    11ee:	e3 02       	.word	0x02e3;	????	Illegal as address instr
    11f0:	00 00       	bra	@r0		
    11f2:	1f bb 06 00 	bit	6(r11),	r15	;0x0006(r11)
    11f6:	00 00       	bra	@r0		
    11f8:	1f fd 05 00 	and	5(r13),	r15	;0x0005(r13)
    11fc:	00 01       	bra	@r1		
    11fe:	00 10       	rrc	r0		
    1200:	8f 05 00 00 	mova	#0x50000,r15	
    1204:	01 c9       	bic	r9,	r1	
    1206:	ce 02       	mova	r2,	r14	
    1208:	00 00       	bra	@r0		
    120a:	1d 0f       	mova	@r15+,	r13	
    120c:	00 00       	bra	@r0		
    120e:	10 71 03 00 	subc	3(r1),	r0	;0x0003(r1)
    1212:	00 01       	bra	@r1		
    1214:	ca 28       	jnc	$+406    	;abs 0x13aa
    1216:	00 00       	bra	@r0		
    1218:	00 7a       	subc	r10,	r0	
    121a:	0f 00       	mova	@r0,	r15	
    121c:	00 11       	rra	r0		
    121e:	2b 06 00 00 	mova	&0x60000,r11	
    1222:	01 cb       	bic	r11,	r1	
    1224:	38 01 00 00 	mova	0(r1),	r8	;0x0000(r1)
    1228:	02 91       	cmp	r1,	r2	
    122a:	00 10       	rrc	r0		
    122c:	c7 05       	mova	r5,	r7	
    122e:	00 00       	bra	@r0		
    1230:	01 cc       	bic	r12,	r1	
    1232:	76 00 00 00 	mova	r0,	0(r6)	;0x0000(r6)
    1236:	ce 0f       	mova	r15,	r14	
    1238:	00 00       	bra	@r0		
    123a:	10 58 06 00 	add	6(r8),	r0	;0x0006(r8)
    123e:	00 01       	bra	@r1		
    1240:	cd 7c 00 00 	subc.b	r12,	0(r13)	;0x0000(r13)
    1244:	00 0b       	bra	@r11		
    1246:	10 00       	bra	#0x00000	
    1248:	00 10       	rrc	r0		
    124a:	44 06       	rlam.a	#2,	r4	
    124c:	00 00       	bra	@r0		
    124e:	01 ce       	bic	r14,	r1	
    1250:	2f 00 00 00 	mova	&0x00000,r15	
    1254:	5a 10 00 00 	rrc.b	0(r10)		;0x0000(r10)
    1258:	10 19       	.word	0x1910;	????	
    125a:	06 00       	mova	@r0,	r6	
    125c:	00 01       	bra	@r1		
    125e:	cf 21       	jnz	$+928    	;abs 0x15fe
    1260:	00 00       	bra	@r0		
    1262:	00 6d       	addc	r13,	r0	
    1264:	10 00       	bra	#0x00000	
    1266:	00 11       	rra	r0		
    1268:	3d 06 00 00 	mova	0(r6),	r13	;0x0000(r6)
    126c:	01 d0       	bis	r0,	r1	
    126e:	a8 03 00 00 	adda	#0x30000,r8	
    1272:	02 91       	cmp	r1,	r2	
    1274:	02 20       	jnz	$+6      	;abs 0x127a
    1276:	52 06       	rlam	#2,	r2	
    1278:	00 00       	bra	@r0		
    127a:	01 a0       	dadd	r0,	r1	
    127c:	01 16       	popm.a	#1,	r1	
    127e:	45 20       	jnz	$+140    	;abs 0x130a
    1280:	c2 06       	mova	r6,	r2	
    1282:	00 00       	bra	@r0		
    1284:	01 71       	subc	r1,	r1	
    1286:	01 42       	mov	r2,	r1	
    1288:	44 20       	jnz	$+138    	;abs 0x1312
    128a:	13 06       	.word	0x0613;	????	Illegal as address instr
    128c:	00 00       	bra	@r0		
    128e:	01 5f       	add	r15,	r1	
    1290:	01 fe       	and	r14,	r1	
    1292:	43 21       	jnz	$+648    	;abs 0x151a
    1294:	0c 43       	clr	r12		
    1296:	38 43       	mov	#-1,	r8	;r3 As==11
    1298:	91 03 00 00 	cmpa	#0x30000,r1	
    129c:	22 76       	subc	@r6,	r2	
    129e:	61 6c       	addc.b	@r12,	r1	
    12a0:	00 01       	bra	@r1		
    12a2:	0d 01       	mova	@r1,	r13	
    12a4:	2f 00 00 00 	mova	&0x00000,r15	
    12a8:	ca 10       	.word	0x10ca;	????	
    12aa:	00 00       	bra	@r0		
    12ac:	00 15       	pushm	#1,	r0	
    12ae:	7c 44       	mov.b	@r4+,	r12	
    12b0:	ec 44 23 a5 	mov.b	@r4,	-23261(r12);0xa523(r12)
    12b4:	06 00       	mova	@r0,	r6	
    12b6:	00 01       	bra	@r1		
    12b8:	83 01       	.word	0x0183;	????	Illegal as address instr
    12ba:	2f 00 00 00 	mova	&0x00000,r15	
    12be:	d7 10       	.word	0x10d7;	????	
    12c0:	00 00       	bra	@r0		
    12c2:	00 00       	bra	@r0		
    12c4:	24 7c       	subc	@r12,	r4	
    12c6:	00 00       	bra	@r0		
    12c8:	00 1c       	.word	0x1c00;	????	
    12ca:	28 00 00 00 	mova	&0x00000,r8	
    12ce:	0b 00       	mova	@r0,	r11	
	...

Disassembly of section .debug_abbrev:

00000000 <.debug_abbrev>:
   0:	01 11       	rra	r1		
   2:	01 25       	jz	$+516    	;abs 0x206
   4:	0e 13       	reti			;return from interupt
   6:	0b 03       	mova	#2,	r11	;r3 As==10
   8:	0e 1b 0e 11 	.rpt	#14
				rrax	r14		
   c:	01 52       	add	r2,	r1	
   e:	01 55       	add	r5,	r1	
  10:	06 10       	rrc	r6		
  12:	06 00       	mova	@r0,	r6	
  14:	00 02       	bra	#4		;r2 As==10
  16:	24 00 0b 0b 	mova	&0x00b0b,r4	
  1a:	3e 0b 03 0e 	mova	3587(r11),r14	;0x0e03(r11)
  1e:	00 00       	bra	@r0		
  20:	03 24       	jz	$+8      	;abs 0x28
  22:	00 0b       	bra	@r11		
  24:	0b 3e       	jmp	$-1000   	;abs 0xfc3c
  26:	0b 03       	mova	#2,	r11	;r3 As==10
  28:	08 00       	mova	@r0,	r8	
  2a:	00 04       	bra	@r4		
  2c:	2e 01 3f 0c 	mova	&0x10c3f,r14	
  30:	03 0e       	.word	0x0e03;	????	Illegal as address instr
  32:	3a 0b 3b 0b 	mova	2875(r11),r10	;0x0b3b(r11)
  36:	27 0c 49 13 	mova	&0xc1349,r7	
  3a:	11 01       	mova	@r1+,	r1	
  3c:	12 01       	mova	@r1+,	r2	
  3e:	40 06       	rlam.a	#2,	r0	
  40:	01 13       	reti			;return from interupt
  42:	00 00       	bra	@r0		
  44:	05 34       	jge	$+12     	;abs 0x50
  46:	00 03       	bra	#2		;r3 As==10
  48:	0e 3a       	jl	$-994    	;abs 0xfc66
  4a:	0b 3b       	jl	$-488    	;abs 0xfe62
  4c:	0b 49       	mov	r9,	r11	
  4e:	13 1c       	.word	0x1c13;	????	
  50:	0b 00       	mova	@r0,	r11	
  52:	00 06       	bra	@r6		
  54:	34 00 03 0e 	mova	0x0e03,	r4	;PC rel. 0x00e59
  58:	3a 0b 3b 0b 	mova	2875(r11),r10	;0x0b3b(r11)
  5c:	49 13       	calla	r9		
  5e:	02 06       	mova	@r6,	r2	
  60:	00 00       	bra	@r0		
  62:	07 34       	jge	$+16     	;abs 0x72
  64:	00 03       	bra	#2		;r3 As==10
  66:	0e 3a       	jl	$-994    	;abs 0xfc84
  68:	0b 3b       	jl	$-488    	;abs 0xfe80
  6a:	0b 49       	mov	r9,	r11	
  6c:	13 3f       	jmp	$-472    	;abs 0xfe94
  6e:	0c 3c       	jmp	$+26     	;abs 0x88
  70:	0c 00       	mova	@r0,	r12	
  72:	00 08       	bra	@r8		
  74:	34 00 03 0e 	mova	0x0e03,	r4	;PC rel. 0x00e79
  78:	3a 0b 3b 05 	mova	1339(r11),r10	;0x053b(r11)
  7c:	87 40 0e 49 	mov	r0,	18702(r7);0x490e(r7)
  80:	13 3f       	jmp	$-472    	;abs 0xfea8
  82:	0c 3c       	jmp	$+26     	;abs 0x9c
  84:	0c 00       	mova	@r0,	r12	
  86:	00 09       	bra	@r9		
  88:	35 00 49 13 	mova	0x1349,	r5	;PC rel. 0x013d3
  8c:	00 00       	bra	@r0		
  8e:	00 01       	bra	@r1		
  90:	11 01       	mova	@r1+,	r1	
  92:	25 0e 13 0b 	mova	&0xe0b13,r5	
  96:	03 0e       	.word	0x0e03;	????	Illegal as address instr
  98:	1b 0e       	mova	@r14+,	r11	
  9a:	11 01       	mova	@r1+,	r1	
  9c:	12 01       	mova	@r1+,	r2	
  9e:	10 06       	bra	@r6+		
  a0:	00 00       	bra	@r0		
  a2:	02 2e       	jc	$-1018   	;abs 0xfca8
  a4:	01 3f       	jmp	$-508    	;abs 0xfea8
  a6:	0c 03       	mova	#2,	r12	;r3 As==10
  a8:	0e 3a       	jl	$-994    	;abs 0xfcc6
  aa:	0b 3b       	jl	$-488    	;abs 0xfec2
  ac:	0b 27       	jz	$-488    	;abs 0xfec4
  ae:	0c 11       	rra	r12		
  b0:	01 12       	push	r1		
  b2:	01 40       	mov	r0,	r1	
  b4:	0a 01       	mova	@r1,	r10	
  b6:	13 00       	.word	0x0013;	????	Illegal as address instr
  b8:	00 03       	bra	#2		;r3 As==10
  ba:	34 00 03 0e 	mova	0x0e03,	r4	;PC rel. 0x00ebf
  be:	3a 0b 3b 0b 	mova	2875(r11),r10	;0x0b3b(r11)
  c2:	49 13       	calla	r9		
  c4:	1c 0b       	mova	@r11+,	r12	
  c6:	00 00       	bra	@r0		
  c8:	04 24       	jz	$+10     	;abs 0xd2
  ca:	00 0b       	bra	@r11		
  cc:	0b 3e       	jmp	$-1000   	;abs 0xfce4
  ce:	0b 03       	mova	#2,	r11	;r3 As==10
  d0:	0e 00       	mova	@r0,	r14	
  d2:	00 05       	bra	@r5		
  d4:	05 00       	mova	@r0,	r5	
  d6:	03 0e       	.word	0x0e03;	????	Illegal as address instr
  d8:	3a 0b 3b 0b 	mova	2875(r11),r10	;0x0b3b(r11)
  dc:	49 13       	calla	r9		
  de:	02 0a       	mova	@r10,	r2	
  e0:	00 00       	bra	@r0		
  e2:	06 34       	jge	$+14     	;abs 0xf0
  e4:	00 03       	bra	#2		;r3 As==10
  e6:	08 3a       	jl	$-1006   	;abs 0xfcf8
  e8:	0b 3b       	jl	$-488    	;abs 0xff00
  ea:	0b 49       	mov	r9,	r11	
  ec:	13 02       	.word	0x0213;	????	Illegal as address instr
  ee:	06 00       	mova	@r0,	r6	
  f0:	00 07       	bra	@r7		
  f2:	24 00 0b 0b 	mova	&0x00b0b,r4	
  f6:	3e 0b 03 08 	mova	2051(r11),r14	;0x0803(r11)
  fa:	00 00       	bra	@r0		
  fc:	08 2e       	jc	$-1006   	;abs 0xfd0e
  fe:	01 3f       	jmp	$-508    	;abs 0xff02
 100:	0c 03       	mova	#2,	r12	;r3 As==10
 102:	0e 3a       	jl	$-994    	;abs 0xfd20
 104:	0b 3b       	jl	$-488    	;abs 0xff1c
 106:	0b 27       	jz	$-488    	;abs 0xff1e
 108:	0c 11       	rra	r12		
 10a:	01 12       	push	r1		
 10c:	01 40       	mov	r0,	r1	
 10e:	06 00       	mova	@r0,	r6	
 110:	00 09       	bra	@r9		
 112:	05 00       	mova	@r0,	r5	
 114:	03 0e       	.word	0x0e03;	????	Illegal as address instr
 116:	3a 0b 3b 0b 	mova	2875(r11),r10	;0x0b3b(r11)
 11a:	49 13       	calla	r9		
 11c:	02 06       	mova	@r6,	r2	
 11e:	00 00       	bra	@r0		
 120:	00 01       	bra	@r1		
 122:	11 01       	mova	@r1+,	r1	
 124:	25 0e 13 0b 	mova	&0xe0b13,r5	
 128:	03 0e       	.word	0x0e03;	????	Illegal as address instr
 12a:	1b 0e       	mova	@r14+,	r11	
 12c:	11 01       	mova	@r1+,	r1	
 12e:	12 01       	mova	@r1+,	r2	
 130:	10 06       	bra	@r6+		
 132:	00 00       	bra	@r0		
 134:	02 04       	mova	@r4,	r2	
 136:	01 0b       	mova	@r11,	r1	
 138:	0b 3a       	jl	$-1000   	;abs 0xfd50
 13a:	0b 3b       	jl	$-488    	;abs 0xff52
 13c:	0b 01       	mova	@r1,	r11	
 13e:	13 00       	.word	0x0013;	????	Illegal as address instr
 140:	00 03       	bra	#2		;r3 As==10
 142:	28 00 03 0e 	mova	&0x00e03,r8	
 146:	1c 0d       	mova	@r13+,	r12	
 148:	00 00       	bra	@r0		
 14a:	04 16       	popm.a	#1,	r4	
 14c:	00 03       	bra	#2		;r3 As==10
 14e:	0e 3a       	jl	$-994    	;abs 0xfd6c
 150:	0b 3b       	jl	$-488    	;abs 0xff68
 152:	0b 49       	mov	r9,	r11	
 154:	13 00       	.word	0x0013;	????	Illegal as address instr
 156:	00 05       	bra	@r5		
 158:	2e 00 3f 0c 	mova	&0x00c3f,r14	
 15c:	03 0e       	.word	0x0e03;	????	Illegal as address instr
 15e:	3a 0b 3b 0b 	mova	2875(r11),r10	;0x0b3b(r11)
 162:	27 0c 49 13 	mova	&0xc1349,r7	
 166:	11 01       	mova	@r1+,	r1	
 168:	12 01       	mova	@r1+,	r2	
 16a:	40 0a       	rlam.a	#3,	r0	
 16c:	00 00       	bra	@r0		
 16e:	06 2e       	jc	$-1010   	;abs 0xfd7c
 170:	01 3f       	jmp	$-508    	;abs 0xff74
 172:	0c 03       	mova	#2,	r12	;r3 As==10
 174:	0e 3a       	jl	$-994    	;abs 0xfd92
 176:	0b 3b       	jl	$-488    	;abs 0xff8e
 178:	0b 27       	jz	$-488    	;abs 0xff90
 17a:	0c 49       	mov	r9,	r12	
 17c:	13 11       	rra	#1		;r3 As==01
 17e:	01 12       	push	r1		
 180:	01 40       	mov	r0,	r1	
 182:	0a 01       	mova	@r1,	r10	
 184:	13 00       	.word	0x0013;	????	Illegal as address instr
 186:	00 07       	bra	@r7		
 188:	05 00       	mova	@r0,	r5	
 18a:	03 0e       	.word	0x0e03;	????	Illegal as address instr
 18c:	3a 0b 3b 0b 	mova	2875(r11),r10	;0x0b3b(r11)
 190:	49 13       	calla	r9		
 192:	02 06       	mova	@r6,	r2	
 194:	00 00       	bra	@r0		
 196:	08 24       	jz	$+18     	;abs 0x1a8
 198:	00 0b       	bra	@r11		
 19a:	0b 3e       	jmp	$-1000   	;abs 0xfdb2
 19c:	0b 03       	mova	#2,	r11	;r3 As==10
 19e:	0e 00       	mova	@r0,	r14	
 1a0:	00 09       	bra	@r9		
 1a2:	05 00       	mova	@r0,	r5	
 1a4:	03 0e       	.word	0x0e03;	????	Illegal as address instr
 1a6:	3a 0b 3b 0b 	mova	2875(r11),r10	;0x0b3b(r11)
 1aa:	49 13       	calla	r9		
 1ac:	02 0a       	mova	@r10,	r2	
 1ae:	00 00       	bra	@r0		
 1b0:	0a 0f       	mova	@r15,	r10	
 1b2:	00 0b       	bra	@r11		
 1b4:	0b 49       	mov	r9,	r11	
 1b6:	13 00       	.word	0x0013;	????	Illegal as address instr
 1b8:	00 0b       	bra	@r11		
 1ba:	2e 01 3f 0c 	mova	&0x10c3f,r14	
 1be:	03 0e       	.word	0x0e03;	????	Illegal as address instr
 1c0:	3a 0b 3b 0b 	mova	2875(r11),r10	;0x0b3b(r11)
 1c4:	27 0c 49 13 	mova	&0xc1349,r7	
 1c8:	11 01       	mova	@r1+,	r1	
 1ca:	12 01       	mova	@r1+,	r2	
 1cc:	40 06       	rlam.a	#2,	r0	
 1ce:	01 13       	reti			;return from interupt
 1d0:	00 00       	bra	@r0		
 1d2:	0c 34       	jge	$+26     	;abs 0x1ec
 1d4:	00 03       	bra	#2		;r3 As==10
 1d6:	0e 3a       	jl	$-994    	;abs 0xfdf4
 1d8:	0b 3b       	jl	$-488    	;abs 0xfff0
 1da:	0b 49       	mov	r9,	r11	
 1dc:	13 02       	.word	0x0213;	????	Illegal as address instr
 1de:	06 00       	mova	@r0,	r6	
 1e0:	00 0d       	bra	@r13		
 1e2:	34 00 03 0e 	mova	0x0e03,	r4	;PC rel. 0x00fe7
 1e6:	3a 0b 3b 0b 	mova	2875(r11),r10	;0x0b3b(r11)
 1ea:	87 40 0e 49 	mov	r0,	18702(r7);0x490e(r7)
 1ee:	13 3f       	jmp	$-472    	;abs 0x16
 1f0:	0c 3c       	jmp	$+26     	;abs 0x20a
 1f2:	0c 00       	mova	@r0,	r12	
 1f4:	00 0e       	bra	@r14		
 1f6:	35 00 49 13 	mova	0x1349,	r5	;PC rel. 0x01541
 1fa:	00 00       	bra	@r0		
 1fc:	0f 34       	jge	$+32     	;abs 0x21c
 1fe:	00 03       	bra	#2		;r3 As==10
 200:	0e 3a       	jl	$-994    	;abs 0xfe1e
 202:	0b 3b       	jl	$-488    	;abs 0x1a
 204:	05 87       	sub	r7,	r5	
 206:	40 0e       	rlam.a	#4,	r0	
 208:	49 13       	calla	r9		
 20a:	3f 0c 3c 0c 	mova	3132(r12),r15	;0x0c3c(r12)
 20e:	00 00       	bra	@r0		
 210:	10 26       	jz	$-990    	;abs 0xfe32
 212:	00 49       	br	r9		
 214:	13 00       	.word	0x0013;	????	Illegal as address instr
 216:	00 00       	bra	@r0		
 218:	01 11       	rra	r1		
 21a:	01 25       	jz	$+516    	;abs 0x41e
 21c:	0e 13       	reti			;return from interupt
 21e:	0b 03       	mova	#2,	r11	;r3 As==10
 220:	0e 1b 0e 11 	.rpt	#14
				rrax	r14		
 224:	01 12       	push	r1		
 226:	01 10       	rrc	r1		
 228:	06 00       	mova	@r0,	r6	
 22a:	00 02       	bra	#4		;r2 As==10
 22c:	24 00 0b 0b 	mova	&0x00b0b,r4	
 230:	3e 0b 03 0e 	mova	3587(r11),r14	;0x0e03(r11)
 234:	00 00       	bra	@r0		
 236:	03 24       	jz	$+8      	;abs 0x23e
 238:	00 0b       	bra	@r11		
 23a:	0b 3e       	jmp	$-1000   	;abs 0xfe52
 23c:	0b 03       	mova	#2,	r11	;r3 As==10
 23e:	08 00       	mova	@r0,	r8	
 240:	00 04       	bra	@r4		
 242:	2e 00 3f 0c 	mova	&0x00c3f,r14	
 246:	03 0e       	.word	0x0e03;	????	Illegal as address instr
 248:	3a 0b 3b 05 	mova	1339(r11),r10	;0x053b(r11)
 24c:	27 0c 20 0b 	mova	&0xc0b20,r7	
 250:	00 00       	bra	@r0		
 252:	05 2e       	jc	$-1012   	;abs 0xfe5e
 254:	01 3f       	jmp	$-508    	;abs 0x58
 256:	0c 03       	mova	#2,	r12	;r3 As==10
 258:	0e 3a       	jl	$-994    	;abs 0xfe76
 25a:	0b 3b       	jl	$-488    	;abs 0x72
 25c:	05 27       	jz	$-500    	;abs 0x68
 25e:	0c 20       	jnz	$+26     	;abs 0x278
 260:	0b 01       	mova	@r1,	r11	
 262:	13 00       	.word	0x0013;	????	Illegal as address instr
 264:	00 06       	bra	@r6		
 266:	05 00       	mova	@r0,	r5	
 268:	03 08       	.word	0x0803;	????	Illegal as address instr
 26a:	3a 0b 3b 05 	mova	1339(r11),r10	;0x053b(r11)
 26e:	49 13       	calla	r9		
 270:	00 00       	bra	@r0		
 272:	07 2e       	jc	$-1008   	;abs 0xfe82
 274:	01 3f       	jmp	$-508    	;abs 0x78
 276:	0c 03       	mova	#2,	r12	;r3 As==10
 278:	0e 3a       	jl	$-994    	;abs 0xfe96
 27a:	0b 3b       	jl	$-488    	;abs 0x92
 27c:	0b 27       	jz	$-488    	;abs 0x94
 27e:	0c 11       	rra	r12		
 280:	01 12       	push	r1		
 282:	01 40       	mov	r0,	r1	
 284:	0a 01       	mova	@r1,	r10	
 286:	13 00       	.word	0x0013;	????	Illegal as address instr
 288:	00 08       	bra	@r8		
 28a:	05 00       	mova	@r0,	r5	
 28c:	03 0e       	.word	0x0e03;	????	Illegal as address instr
 28e:	3a 0b 3b 0b 	mova	2875(r11),r10	;0x0b3b(r11)
 292:	49 13       	calla	r9		
 294:	02 0a       	mova	@r10,	r2	
 296:	00 00       	bra	@r0		
 298:	09 2e       	jc	$-1004   	;abs 0xfeac
 29a:	01 3f       	jmp	$-508    	;abs 0x9e
 29c:	0c 03       	mova	#2,	r12	;r3 As==10
 29e:	0e 3a       	jl	$-994    	;abs 0xfebc
 2a0:	0b 3b       	jl	$-488    	;abs 0xb8
 2a2:	0b 27       	jz	$-488    	;abs 0xba
 2a4:	0c 11       	rra	r12		
 2a6:	01 12       	push	r1		
 2a8:	01 40       	mov	r0,	r1	
 2aa:	06 01       	mova	@r1,	r6	
 2ac:	13 00       	.word	0x0013;	????	Illegal as address instr
 2ae:	00 0a       	bra	@r10		
 2b0:	05 00       	mova	@r0,	r5	
 2b2:	03 08       	.word	0x0803;	????	Illegal as address instr
 2b4:	3a 0b 3b 0b 	mova	2875(r11),r10	;0x0b3b(r11)
 2b8:	49 13       	calla	r9		
 2ba:	02 0a       	mova	@r10,	r2	
 2bc:	00 00       	bra	@r0		
 2be:	0b 34       	jge	$+24     	;abs 0x2d6
 2c0:	00 03       	bra	#2		;r3 As==10
 2c2:	0e 3a       	jl	$-994    	;abs 0xfee0
 2c4:	0b 3b       	jl	$-488    	;abs 0xdc
 2c6:	0b 49       	mov	r9,	r11	
 2c8:	13 02       	.word	0x0213;	????	Illegal as address instr
 2ca:	06 00       	mova	@r0,	r6	
 2cc:	00 0c       	bra	@r12		
 2ce:	34 00 03 08 	mova	0x0803,	r4	;PC rel. 0x00ad3
 2d2:	3a 0b 3b 0b 	mova	2875(r11),r10	;0x0b3b(r11)
 2d6:	49 13       	calla	r9		
 2d8:	02 06       	mova	@r6,	r2	
 2da:	00 00       	bra	@r0		
 2dc:	0d 2e       	jc	$-996    	;abs 0xfef8
 2de:	01 3f       	jmp	$-508    	;abs 0xe2
 2e0:	0c 03       	mova	#2,	r12	;r3 As==10
 2e2:	0e 3a       	jl	$-994    	;abs 0xff00
 2e4:	0b 3b       	jl	$-488    	;abs 0xfc
 2e6:	05 27       	jz	$-500    	;abs 0xf2
 2e8:	0c 11       	rra	r12		
 2ea:	01 12       	push	r1		
 2ec:	01 40       	mov	r0,	r1	
 2ee:	06 01       	mova	@r1,	r6	
 2f0:	13 00       	.word	0x0013;	????	Illegal as address instr
 2f2:	00 0e       	bra	@r14		
 2f4:	05 00       	mova	@r0,	r5	
 2f6:	03 0e       	.word	0x0e03;	????	Illegal as address instr
 2f8:	3a 0b 3b 05 	mova	1339(r11),r10	;0x053b(r11)
 2fc:	49 13       	calla	r9		
 2fe:	02 06       	mova	@r6,	r2	
 300:	00 00       	bra	@r0		
 302:	0f 05       	mova	@r5,	r15	
 304:	00 03       	bra	#2		;r3 As==10
 306:	08 3a       	jl	$-1006   	;abs 0xff18
 308:	0b 3b       	jl	$-488    	;abs 0x120
 30a:	05 49       	mov	r9,	r5	
 30c:	13 02       	.word	0x0213;	????	Illegal as address instr
 30e:	06 00       	mova	@r0,	r6	
 310:	00 10       	rrc	r0		
 312:	05 00       	mova	@r0,	r5	
 314:	03 0e       	.word	0x0e03;	????	Illegal as address instr
 316:	3a 0b 3b 05 	mova	1339(r11),r10	;0x053b(r11)
 31a:	49 13       	calla	r9		
 31c:	02 0a       	mova	@r10,	r2	
 31e:	00 00       	bra	@r0		
 320:	11 34       	jge	$+36     	;abs 0x344
 322:	00 03       	bra	#2		;r3 As==10
 324:	0e 3a       	jl	$-994    	;abs 0xff42
 326:	0b 3b       	jl	$-488    	;abs 0x13e
 328:	05 49       	mov	r9,	r5	
 32a:	13 02       	.word	0x0213;	????	Illegal as address instr
 32c:	06 00       	mova	@r0,	r6	
 32e:	00 12       	push	r0		
 330:	34 00 03 08 	mova	0x0803,	r4	;PC rel. 0x00b35
 334:	3a 0b 3b 05 	mova	1339(r11),r10	;0x053b(r11)
 338:	49 13       	calla	r9		
 33a:	02 06       	mova	@r6,	r2	
 33c:	00 00       	bra	@r0		
 33e:	13 05       	.word	0x0513;	????	Illegal as address instr
 340:	00 03       	bra	#2		;r3 As==10
 342:	0e 3a       	jl	$-994    	;abs 0xff60
 344:	0b 3b       	jl	$-488    	;abs 0x15c
 346:	0b 49       	mov	r9,	r11	
 348:	13 02       	.word	0x0213;	????	Illegal as address instr
 34a:	06 00       	mova	@r0,	r6	
 34c:	00 14       	pushm.a	#1,	r0	
 34e:	0b 01       	mova	@r1,	r11	
 350:	11 01       	mova	@r1+,	r1	
 352:	12 01       	mova	@r1+,	r2	
 354:	01 13       	reti			;return from interupt
 356:	00 00       	bra	@r0		
 358:	15 0b       	mova	@r11+,	r5	
 35a:	01 11       	rra	r1		
 35c:	01 12       	push	r1		
 35e:	01 00       	mova	@r0,	r1	
 360:	00 16       	popm.a	#1,	r0	
 362:	05 00       	mova	@r0,	r5	
 364:	03 08       	.word	0x0803;	????	Illegal as address instr
 366:	3a 0b 3b 05 	mova	1339(r11),r10	;0x053b(r11)
 36a:	49 13       	calla	r9		
 36c:	02 0a       	mova	@r10,	r2	
 36e:	00 00       	bra	@r0		
 370:	17 0f       	mova	@r15+,	r7	
 372:	00 0b       	bra	@r11		
 374:	0b 49       	mov	r9,	r11	
 376:	13 00       	.word	0x0013;	????	Illegal as address instr
 378:	00 18       	.word	0x1800;	????	
 37a:	2e 00 31 13 	mova	&0x01331,r14	
 37e:	11 01       	mova	@r1+,	r1	
 380:	12 01       	mova	@r1+,	r2	
 382:	40 0a       	rlam.a	#3,	r0	
 384:	00 00       	bra	@r0		
 386:	19 2e       	jc	$-972    	;abs 0xffba
 388:	01 31       	jn	$+516    	;abs 0x58c
 38a:	13 11       	rra	#1		;r3 As==01
 38c:	01 12       	push	r1		
 38e:	01 40       	mov	r0,	r1	
 390:	0a 01       	mova	@r1,	r10	
 392:	13 00       	.word	0x0013;	????	Illegal as address instr
 394:	00 1a       	.word	0x1a00;	????	
 396:	05 00       	mova	@r0,	r5	
 398:	31 13       	reti			;return from interupt
 39a:	02 06       	mova	@r6,	r2	
 39c:	00 00       	bra	@r0		
 39e:	1b 34       	jge	$+56     	;abs 0x3d6
 3a0:	00 03       	bra	#2		;r3 As==10
 3a2:	08 3a       	jl	$-1006   	;abs 0xffb4
 3a4:	0b 3b       	jl	$-488    	;abs 0x1bc
 3a6:	05 49       	mov	r9,	r5	
 3a8:	13 00       	.word	0x0013;	????	Illegal as address instr
 3aa:	00 1c       	.word	0x1c00;	????	
 3ac:	2e 01 3f 0c 	mova	&0x10c3f,r14	
 3b0:	03 0e       	.word	0x0e03;	????	Illegal as address instr
 3b2:	3a 0b 3b 05 	mova	1339(r11),r10	;0x053b(r11)
 3b6:	27 0c 11 01 	mova	&0xc0111,r7	
 3ba:	12 01       	mova	@r1+,	r2	
 3bc:	40 0a       	rlam.a	#3,	r0	
 3be:	01 13       	reti			;return from interupt
 3c0:	00 00       	bra	@r0		
 3c2:	1d 1d       	.word	0x1d1d;	????	
 3c4:	00 31       	jn	$+514    	;abs 0x5c6
 3c6:	13 52       	.word	0x5213;	????	Illegal as 2-op instr
 3c8:	01 55       	add	r5,	r1	
 3ca:	06 58       	add	r8,	r6	
 3cc:	0b 59       	add	r9,	r11	
 3ce:	05 00       	mova	@r0,	r5	
 3d0:	00 1e       	.word	0x1e00;	????	
 3d2:	1d 00       	mova	#0x00000,r13	
 3d4:	31 13       	reti			;return from interupt
 3d6:	11 01       	mova	@r1+,	r1	
 3d8:	12 01       	mova	@r1+,	r2	
 3da:	58 0b       	rrum	#3,	r8	
 3dc:	59 05       	rram	#2,	r9	
 3de:	00 00       	bra	@r0		
 3e0:	1f 2e       	jc	$-960    	;abs 0x20
 3e2:	01 3f       	jmp	$-508    	;abs 0x1e6
 3e4:	0c 03       	mova	#2,	r12	;r3 As==10
 3e6:	0e 3a       	jl	$-994    	;abs 0x4
 3e8:	0b 3b       	jl	$-488    	;abs 0x200
 3ea:	0b 27       	jz	$-488    	;abs 0x202
 3ec:	0c 49       	mov	r9,	r12	
 3ee:	13 11       	rra	#1		;r3 As==01
 3f0:	01 12       	push	r1		
 3f2:	01 40       	mov	r0,	r1	
 3f4:	0a 01       	mova	@r1,	r10	
 3f6:	13 00       	.word	0x0013;	????	Illegal as address instr
 3f8:	00 20       	jnz	$+2      	;abs 0x3fa
 3fa:	05 00       	mova	@r0,	r5	
 3fc:	03 08       	.word	0x0803;	????	Illegal as address instr
 3fe:	3a 0b 3b 0b 	mova	2875(r11),r10	;0x0b3b(r11)
 402:	49 13       	calla	r9		
 404:	02 06       	mova	@r6,	r2	
 406:	00 00       	bra	@r0		
 408:	21 0b 01 55 	mova	&0xb5501,r1	
 40c:	06 00       	mova	@r0,	r6	
 40e:	00 22       	jnz	$-1022   	;abs 0x10
 410:	34 00 03 0e 	mova	0x0e03,	r4	;PC rel. 0x01215
 414:	3a 0b 3b 05 	mova	1339(r11),r10	;0x053b(r11)
 418:	49 13       	calla	r9		
 41a:	00 00       	bra	@r0		
 41c:	23 1d       	.word	0x1d23;	????	
 41e:	01 31       	jn	$+516    	;abs 0x622
 420:	13 52       	.word	0x5213;	????	Illegal as 2-op instr
 422:	01 55       	add	r5,	r1	
 424:	06 58       	add	r8,	r6	
 426:	0b 59       	add	r9,	r11	
 428:	05 00       	mova	@r0,	r5	
 42a:	00 24       	jz	$+2      	;abs 0x42c
 42c:	34 00 03 0e 	mova	0x0e03,	r4	;PC rel. 0x01231
 430:	3a 0b 3b 05 	mova	1339(r11),r10	;0x053b(r11)
 434:	87 40 0e 49 	mov	r0,	18702(r7);0x490e(r7)
 438:	13 3f       	jmp	$-472    	;abs 0x260
 43a:	0c 3c       	jmp	$+26     	;abs 0x454
 43c:	0c 00       	mova	@r0,	r12	
 43e:	00 25       	jz	$+514    	;abs 0x640
 440:	35 00 49 13 	mova	0x1349,	r5	;PC rel. 0x0178b
 444:	00 00       	bra	@r0		
 446:	26 34       	jge	$+78     	;abs 0x494
 448:	00 03       	bra	#2		;r3 As==10
 44a:	0e 3a       	jl	$-994    	;abs 0x68
 44c:	0b 3b       	jl	$-488    	;abs 0x264
 44e:	0b 49       	mov	r9,	r11	
 450:	13 3f       	jmp	$-472    	;abs 0x278
 452:	0c 3c       	jmp	$+26     	;abs 0x46c
 454:	0c 00       	mova	@r0,	r12	
 456:	00 27       	jz	$-510    	;abs 0x258
 458:	01 01       	mova	@r1,	r1	
 45a:	49 13       	calla	r9		
 45c:	01 13       	reti			;return from interupt
 45e:	00 00       	bra	@r0		
 460:	28 21       	jnz	$+594    	;abs 0x6b2
 462:	00 49       	br	r9		
 464:	13 2f       	jc	$-472    	;abs 0x28c
 466:	05 00       	mova	@r0,	r5	
 468:	00 29       	jnc	$+514    	;abs 0x66a
 46a:	26 00 49 13 	mova	&0x01349,r6	
 46e:	00 00       	bra	@r0		
 470:	2a 34       	jge	$+86     	;abs 0x4c6
 472:	00 03       	bra	#2		;r3 As==10
 474:	0e 3a       	jl	$-994    	;abs 0x92
 476:	0b 3b       	jl	$-488    	;abs 0x28e
 478:	0b 49       	mov	r9,	r11	
 47a:	13 3f       	jmp	$-472    	;abs 0x2a2
 47c:	0c 02       	mova	#4,	r12	;r2 As==10
 47e:	0a 00       	mova	@r0,	r10	
 480:	00 00       	bra	@r0		
 482:	00 00       	bra	@r0		
 484:	00 01       	bra	@r1		
 486:	11 01       	mova	@r1+,	r1	
 488:	25 0e 13 0b 	mova	&0xe0b13,r5	
 48c:	03 0e       	.word	0x0e03;	????	Illegal as address instr
 48e:	1b 0e       	mova	@r14+,	r11	
 490:	11 01       	mova	@r1+,	r1	
 492:	12 01       	mova	@r1+,	r2	
 494:	10 06       	bra	@r6+		
 496:	00 00       	bra	@r0		
 498:	02 2e       	jc	$-1018   	;abs 0x9e
 49a:	00 3f       	jmp	$-510    	;abs 0x29c
 49c:	0c 03       	mova	#2,	r12	;r3 As==10
 49e:	0e 3a       	jl	$-994    	;abs 0xbc
 4a0:	0b 3b       	jl	$-488    	;abs 0x2b8
 4a2:	0b 27       	jz	$-488    	;abs 0x2ba
 4a4:	0c 20       	jnz	$+26     	;abs 0x4be
 4a6:	0b 00       	mova	@r0,	r11	
 4a8:	00 03       	bra	#2		;r3 As==10
 4aa:	2e 00 31 13 	mova	&0x01331,r14	
 4ae:	11 01       	mova	@r1+,	r1	
 4b0:	12 01       	mova	@r1+,	r2	
 4b2:	40 0a       	rlam.a	#3,	r0	
 4b4:	00 00       	bra	@r0		
 4b6:	04 2e       	jc	$-1014   	;abs 0xc0
 4b8:	01 3f       	jmp	$-508    	;abs 0x2bc
 4ba:	0c 03       	mova	#2,	r12	;r3 As==10
 4bc:	0e 3a       	jl	$-994    	;abs 0xda
 4be:	0b 3b       	jl	$-488    	;abs 0x2d6
 4c0:	0b 27       	jz	$-488    	;abs 0x2d8
 4c2:	0c 11       	rra	r12		
 4c4:	01 12       	push	r1		
 4c6:	01 40       	mov	r0,	r1	
 4c8:	0a 01       	mova	@r1,	r10	
 4ca:	13 00       	.word	0x0013;	????	Illegal as address instr
 4cc:	00 05       	bra	@r5		
 4ce:	1d 00       	mova	#0x00000,r13	
 4d0:	31 13       	reti			;return from interupt
 4d2:	11 01       	mova	@r1+,	r1	
 4d4:	12 01       	mova	@r1+,	r2	
 4d6:	58 0b       	rrum	#3,	r8	
 4d8:	59 0b       	rrum	#3,	r9	
 4da:	00 00       	bra	@r0		
 4dc:	06 34       	jge	$+14     	;abs 0x4ea
 4de:	00 03       	bra	#2		;r3 As==10
 4e0:	0e 3a       	jl	$-994    	;abs 0xfe
 4e2:	0b 3b       	jl	$-488    	;abs 0x2fa
 4e4:	05 87       	sub	r7,	r5	
 4e6:	40 0e       	rlam.a	#4,	r0	
 4e8:	49 13       	calla	r9		
 4ea:	3f 0c 3c 0c 	mova	3132(r12),r15	;0x0c3c(r12)
 4ee:	00 00       	bra	@r0		
 4f0:	07 35       	jge	$+528    	;abs 0x700
 4f2:	00 49       	br	r9		
 4f4:	13 00       	.word	0x0013;	????	Illegal as address instr
 4f6:	00 08       	bra	@r8		
 4f8:	24 00 0b 0b 	mova	&0x00b0b,r4	
 4fc:	3e 0b 03 0e 	mova	3587(r11),r14	;0x0e03(r11)
 500:	00 00       	bra	@r0		
 502:	00 01       	bra	@r1		
 504:	11 01       	mova	@r1+,	r1	
 506:	25 0e 13 0b 	mova	&0xe0b13,r5	
 50a:	03 0e       	.word	0x0e03;	????	Illegal as address instr
 50c:	1b 0e       	mova	@r14+,	r11	
 50e:	11 01       	mova	@r1+,	r1	
 510:	12 01       	mova	@r1+,	r2	
 512:	10 06       	bra	@r6+		
 514:	00 00       	bra	@r0		
 516:	02 24       	jz	$+6      	;abs 0x51c
 518:	00 0b       	bra	@r11		
 51a:	0b 3e       	jmp	$-1000   	;abs 0x132
 51c:	0b 03       	mova	#2,	r11	;r3 As==10
 51e:	0e 00       	mova	@r0,	r14	
 520:	00 03       	bra	#2		;r3 As==10
 522:	24 00 0b 0b 	mova	&0x00b0b,r4	
 526:	3e 0b 03 08 	mova	2051(r11),r14	;0x0803(r11)
 52a:	00 00       	bra	@r0		
 52c:	04 0f       	mova	@r15,	r4	
 52e:	00 0b       	bra	@r11		
 530:	0b 49       	mov	r9,	r11	
 532:	13 00       	.word	0x0013;	????	Illegal as address instr
 534:	00 05       	bra	@r5		
 536:	26 00 49 13 	mova	&0x01349,r6	
 53a:	00 00       	bra	@r0		
 53c:	06 16       	popm.a	#1,	r6	
 53e:	00 03       	bra	#2		;r3 As==10
 540:	0e 3a       	jl	$-994    	;abs 0x15e
 542:	0b 3b       	jl	$-488    	;abs 0x35a
 544:	0b 49       	mov	r9,	r11	
 546:	13 00       	.word	0x0013;	????	Illegal as address instr
 548:	00 07       	bra	@r7		
 54a:	0f 00       	mova	@r0,	r15	
 54c:	0b 0b       	mova	@r11,	r11	
 54e:	03 0e       	.word	0x0e03;	????	Illegal as address instr
 550:	00 00       	bra	@r0		
 552:	08 2e       	jc	$-1006   	;abs 0x164
 554:	01 3f       	jmp	$-508    	;abs 0x358
 556:	0c 03       	mova	#2,	r12	;r3 As==10
 558:	0e 3a       	jl	$-994    	;abs 0x176
 55a:	0b 3b       	jl	$-488    	;abs 0x372
 55c:	0b 27       	jz	$-488    	;abs 0x374
 55e:	0c 49       	mov	r9,	r12	
 560:	13 11       	rra	#1		;r3 As==01
 562:	01 12       	push	r1		
 564:	01 40       	mov	r0,	r1	
 566:	0a 01       	mova	@r1,	r10	
 568:	13 00       	.word	0x0013;	????	Illegal as address instr
 56a:	00 09       	bra	@r9		
 56c:	05 00       	mova	@r0,	r5	
 56e:	03 08       	.word	0x0803;	????	Illegal as address instr
 570:	3a 0b 3b 0b 	mova	2875(r11),r10	;0x0b3b(r11)
 574:	49 13       	calla	r9		
 576:	02 0a       	mova	@r10,	r2	
 578:	00 00       	bra	@r0		
 57a:	0a 18       	.word	0x180a;	????	
 57c:	00 00       	bra	@r0		
 57e:	00 0b       	bra	@r11		
 580:	34 00 03 0e 	mova	0x0e03,	r4	;PC rel. 0x01385
 584:	3a 0b 3b 0b 	mova	2875(r11),r10	;0x0b3b(r11)
 588:	49 13       	calla	r9		
 58a:	02 0a       	mova	@r10,	r2	
 58c:	00 00       	bra	@r0		
 58e:	0c 34       	jge	$+26     	;abs 0x5a8
 590:	00 03       	bra	#2		;r3 As==10
 592:	08 3a       	jl	$-1006   	;abs 0x1a4
 594:	0b 3b       	jl	$-488    	;abs 0x3ac
 596:	0b 49       	mov	r9,	r11	
 598:	13 00       	.word	0x0013;	????	Illegal as address instr
 59a:	00 0d       	bra	@r13		
 59c:	2e 01 3f 0c 	mova	&0x10c3f,r14	
 5a0:	03 0e       	.word	0x0e03;	????	Illegal as address instr
 5a2:	3a 0b 3b 0b 	mova	2875(r11),r10	;0x0b3b(r11)
 5a6:	27 0c 49 13 	mova	&0xc1349,r7	
 5aa:	11 01       	mova	@r1+,	r1	
 5ac:	12 01       	mova	@r1+,	r2	
 5ae:	40 0a       	rlam.a	#3,	r0	
 5b0:	00 00       	bra	@r0		
 5b2:	0e 05       	mova	@r5,	r14	
 5b4:	00 03       	bra	#2		;r3 As==10
 5b6:	08 3a       	jl	$-1006   	;abs 0x1c8
 5b8:	0b 3b       	jl	$-488    	;abs 0x3d0
 5ba:	0b 49       	mov	r9,	r11	
 5bc:	13 02       	.word	0x0213;	????	Illegal as address instr
 5be:	06 00       	mova	@r0,	r6	
 5c0:	00 0f       	bra	@r15		
 5c2:	05 00       	mova	@r0,	r5	
 5c4:	03 0e       	.word	0x0e03;	????	Illegal as address instr
 5c6:	3a 0b 3b 0b 	mova	2875(r11),r10	;0x0b3b(r11)
 5ca:	49 13       	calla	r9		
 5cc:	02 06       	mova	@r6,	r2	
 5ce:	00 00       	bra	@r0		
 5d0:	00 01       	bra	@r1		
 5d2:	11 01       	mova	@r1+,	r1	
 5d4:	25 0e 13 0b 	mova	&0xe0b13,r5	
 5d8:	03 0e       	.word	0x0e03;	????	Illegal as address instr
 5da:	1b 0e       	mova	@r14+,	r11	
 5dc:	11 01       	mova	@r1+,	r1	
 5de:	12 01       	mova	@r1+,	r2	
 5e0:	10 06       	bra	@r6+		
 5e2:	00 00       	bra	@r0		
 5e4:	02 24       	jz	$+6      	;abs 0x5ea
 5e6:	00 0b       	bra	@r11		
 5e8:	0b 3e       	jmp	$-1000   	;abs 0x200
 5ea:	0b 03       	mova	#2,	r11	;r3 As==10
 5ec:	0e 00       	mova	@r0,	r14	
 5ee:	00 03       	bra	#2		;r3 As==10
 5f0:	24 00 0b 0b 	mova	&0x00b0b,r4	
 5f4:	3e 0b 03 08 	mova	2051(r11),r14	;0x0803(r11)
 5f8:	00 00       	bra	@r0		
 5fa:	04 16       	popm.a	#1,	r4	
 5fc:	00 03       	bra	#2		;r3 As==10
 5fe:	0e 3a       	jl	$-994    	;abs 0x21c
 600:	0b 3b       	jl	$-488    	;abs 0x418
 602:	0b 49       	mov	r9,	r11	
 604:	13 00       	.word	0x0013;	????	Illegal as address instr
 606:	00 05       	bra	@r5		
 608:	0f 00       	mova	@r0,	r15	
 60a:	0b 0b       	mova	@r11,	r11	
 60c:	49 13       	calla	r9		
 60e:	00 00       	bra	@r0		
 610:	06 26       	jz	$-1010   	;abs 0x21e
 612:	00 49       	br	r9		
 614:	13 00       	.word	0x0013;	????	Illegal as address instr
 616:	00 07       	bra	@r7		
 618:	0f 00       	mova	@r0,	r15	
 61a:	0b 0b       	mova	@r11,	r11	
 61c:	03 0e       	.word	0x0e03;	????	Illegal as address instr
 61e:	00 00       	bra	@r0		
 620:	08 13       	reti			;return from interupt
 622:	01 0b       	mova	@r11,	r1	
 624:	0b 3a       	jl	$-1000   	;abs 0x23c
 626:	0b 3b       	jl	$-488    	;abs 0x43e
 628:	0b 01       	mova	@r1,	r11	
 62a:	13 00       	.word	0x0013;	????	Illegal as address instr
 62c:	00 09       	bra	@r9		
 62e:	0d 00       	mova	@r0,	r13	
 630:	03 0e       	.word	0x0e03;	????	Illegal as address instr
 632:	3a 0b 3b 0b 	mova	2875(r11),r10	;0x0b3b(r11)
 636:	49 13       	calla	r9		
 638:	0b 0b       	mova	@r11,	r11	
 63a:	0d 0b       	mova	@r11,	r13	
 63c:	0c 0b       	mova	@r11,	r12	
 63e:	38 0a 00 00 	mova	0(r10),	r8	;0x0000(r10)
 642:	0a 0d       	mova	@r13,	r10	
 644:	00 03       	bra	#2		;r3 As==10
 646:	0e 3a       	jl	$-994    	;abs 0x264
 648:	0b 3b       	jl	$-488    	;abs 0x460
 64a:	0b 49       	mov	r9,	r11	
 64c:	13 38       	jl	$+40     	;abs 0x674
 64e:	0a 00       	mova	@r0,	r10	
 650:	00 0b       	bra	@r11		
 652:	2e 01 03 0e 	mova	&0x10e03,r14	
 656:	3a 0b 3b 0b 	mova	2875(r11),r10	;0x0b3b(r11)
 65a:	27 0c 49 13 	mova	&0xc1349,r7	
 65e:	20 0b 01 13 	bra	&0xb1301	
 662:	00 00       	bra	@r0		
 664:	0c 05       	mova	@r5,	r12	
 666:	00 03       	bra	#2		;r3 As==10
 668:	0e 3a       	jl	$-994    	;abs 0x286
 66a:	0b 3b       	jl	$-488    	;abs 0x482
 66c:	0b 49       	mov	r9,	r11	
 66e:	13 00       	.word	0x0013;	????	Illegal as address instr
 670:	00 0d       	bra	@r13		
 672:	34 00 03 08 	mova	0x0803,	r4	;PC rel. 0x00e77
 676:	3a 0b 3b 0b 	mova	2875(r11),r10	;0x0b3b(r11)
 67a:	49 13       	calla	r9		
 67c:	00 00       	bra	@r0		
 67e:	0e 2e       	jc	$-994    	;abs 0x29c
 680:	01 03       	mova	#2,	r1	;r3 As==10
 682:	0e 3a       	jl	$-994    	;abs 0x2a0
 684:	0b 3b       	jl	$-488    	;abs 0x49c
 686:	0b 27       	jz	$-488    	;abs 0x49e
 688:	0c 49       	mov	r9,	r12	
 68a:	13 11       	rra	#1		;r3 As==01
 68c:	01 12       	push	r1		
 68e:	01 40       	mov	r0,	r1	
 690:	06 01       	mova	@r1,	r6	
 692:	13 00       	.word	0x0013;	????	Illegal as address instr
 694:	00 0f       	bra	@r15		
 696:	05 00       	mova	@r0,	r5	
 698:	03 0e       	.word	0x0e03;	????	Illegal as address instr
 69a:	3a 0b 3b 0b 	mova	2875(r11),r10	;0x0b3b(r11)
 69e:	49 13       	calla	r9		
 6a0:	02 06       	mova	@r6,	r2	
 6a2:	00 00       	bra	@r0		
 6a4:	10 34       	jge	$+34     	;abs 0x6c6
 6a6:	00 03       	bra	#2		;r3 As==10
 6a8:	0e 3a       	jl	$-994    	;abs 0x2c6
 6aa:	0b 3b       	jl	$-488    	;abs 0x4c2
 6ac:	0b 49       	mov	r9,	r11	
 6ae:	13 02       	.word	0x0213;	????	Illegal as address instr
 6b0:	06 00       	mova	@r0,	r6	
 6b2:	00 11       	rra	r0		
 6b4:	34 00 03 0e 	mova	0x0e03,	r4	;PC rel. 0x014b9
 6b8:	3a 0b 3b 0b 	mova	2875(r11),r10	;0x0b3b(r11)
 6bc:	49 13       	calla	r9		
 6be:	02 0a       	mova	@r10,	r2	
 6c0:	00 00       	bra	@r0		
 6c2:	12 1d       	.word	0x1d12;	????	
 6c4:	01 31       	jn	$+516    	;abs 0x8c8
 6c6:	13 11       	rra	#1		;r3 As==01
 6c8:	01 12       	push	r1		
 6ca:	01 58       	add	r8,	r1	
 6cc:	0b 59       	add	r9,	r11	
 6ce:	0b 01       	mova	@r1,	r11	
 6d0:	13 00       	.word	0x0013;	????	Illegal as address instr
 6d2:	00 13       	reti			
 6d4:	05 00       	mova	@r0,	r5	
 6d6:	31 13       	reti			;return from interupt
 6d8:	00 00       	bra	@r0		
 6da:	14 05       	mova	@r5+,	r4	
 6dc:	00 31       	jn	$+514    	;abs 0x8de
 6de:	13 02       	.word	0x0213;	????	Illegal as address instr
 6e0:	06 00       	mova	@r0,	r6	
 6e2:	00 15       	pushm	#1,	r0	
 6e4:	0b 01       	mova	@r1,	r11	
 6e6:	11 01       	mova	@r1+,	r1	
 6e8:	12 01       	mova	@r1+,	r2	
 6ea:	00 00       	bra	@r0		
 6ec:	16 34       	jge	$+46     	;abs 0x71a
 6ee:	00 31       	jn	$+514    	;abs 0x8f0
 6f0:	13 02       	.word	0x0213;	????	Illegal as address instr
 6f2:	06 00       	mova	@r0,	r6	
 6f4:	00 17       	popm	#1,	r0	
 6f6:	0b 01       	mova	@r1,	r11	
 6f8:	55 06       	rlam	#2,	r5	
 6fa:	00 00       	bra	@r0		
 6fc:	18 34       	jge	$+50     	;abs 0x72e
 6fe:	00 03       	bra	#2		;r3 As==10
 700:	08 3a       	jl	$-1006   	;abs 0x312
 702:	0b 3b       	jl	$-488    	;abs 0x51a
 704:	0b 49       	mov	r9,	r11	
 706:	13 02       	.word	0x0213;	????	Illegal as address instr
 708:	06 00       	mova	@r0,	r6	
 70a:	00 19       	.word	0x1900;	????	
 70c:	15 01       	mova	@r1+,	r5	
 70e:	27 0c 49 13 	mova	&0xc1349,r7	
 712:	01 13       	reti			;return from interupt
 714:	00 00       	bra	@r0		
 716:	1a 05       	mova	@r5+,	r10	
 718:	00 49       	br	r9		
 71a:	13 00       	.word	0x0013;	????	Illegal as address instr
 71c:	00 1b       	.word	0x1b00;	????	
 71e:	01 01       	mova	@r1,	r1	
 720:	49 13       	calla	r9		
 722:	01 13       	reti			;return from interupt
 724:	00 00       	bra	@r0		
 726:	1c 21       	jnz	$+570    	;abs 0x960
 728:	00 49       	br	r9		
 72a:	13 2f       	jc	$-472    	;abs 0x552
 72c:	0b 00       	mova	@r0,	r11	
 72e:	00 1d       	.word	0x1d00;	????	
 730:	2e 01 3f 0c 	mova	&0x10c3f,r14	
 734:	03 0e       	.word	0x0e03;	????	Illegal as address instr
 736:	3a 0b 3b 0b 	mova	2875(r11),r10	;0x0b3b(r11)
 73a:	27 0c 49 13 	mova	&0xc1349,r7	
 73e:	11 01       	mova	@r1+,	r1	
 740:	12 01       	mova	@r1+,	r2	
 742:	40 06       	rlam.a	#2,	r0	
 744:	01 13       	reti			;return from interupt
 746:	00 00       	bra	@r0		
 748:	1e 04       	mova	@r4+,	r14	
 74a:	01 0b       	mova	@r11,	r1	
 74c:	0b 3a       	jl	$-1000   	;abs 0x364
 74e:	0b 3b       	jl	$-488    	;abs 0x566
 750:	0b 01       	mova	@r1,	r11	
 752:	13 00       	.word	0x0013;	????	Illegal as address instr
 754:	00 1f       	.word	0x1f00;	????	
 756:	28 00 03 0e 	mova	&0x00e03,r8	
 75a:	1c 0d       	mova	@r13+,	r12	
 75c:	00 00       	bra	@r0		
 75e:	20 0a 00 03 	bra	&0xa0300	
 762:	0e 3a       	jl	$-994    	;abs 0x380
 764:	0b 3b       	jl	$-488    	;abs 0x57c
 766:	05 11       	rra	r5		
 768:	01 00       	mova	@r0,	r1	
 76a:	00 21       	jnz	$+514    	;abs 0x96c
 76c:	0b 01       	mova	@r1,	r11	
 76e:	11 01       	mova	@r1+,	r1	
 770:	12 01       	mova	@r1+,	r2	
 772:	01 13       	reti			;return from interupt
 774:	00 00       	bra	@r0		
 776:	22 34       	jge	$+70     	;abs 0x7bc
 778:	00 03       	bra	#2		;r3 As==10
 77a:	08 3a       	jl	$-1006   	;abs 0x38c
 77c:	0b 3b       	jl	$-488    	;abs 0x594
 77e:	05 49       	mov	r9,	r5	
 780:	13 02       	.word	0x0213;	????	Illegal as address instr
 782:	06 00       	mova	@r0,	r6	
 784:	00 23       	jnz	$-510    	;abs 0x586
 786:	34 00 03 0e 	mova	0x0e03,	r4	;PC rel. 0x0158b
 78a:	3a 0b 3b 05 	mova	1339(r11),r10	;0x053b(r11)
 78e:	49 13       	calla	r9		
 790:	02 06       	mova	@r6,	r2	
 792:	00 00       	bra	@r0		
 794:	24 01 01 49 	mova	&0x14901,r4	
 798:	13 00       	.word	0x0013;	????	Illegal as address instr
	...

Disassembly of section .debug_line:

00000000 <.debug_line>:
       0:	eb 01       	adda	r1,	r11	
       2:	00 00       	bra	@r0		
       4:	02 00       	mova	@r0,	r2	
       6:	79 00 00 00 	mova	r0,	0(r9)	;0x0000(r9)
       a:	01 01       	mova	@r1,	r1	
       c:	f6 f5 0a 00 	and.b	@r5+,	10(r6)	;0x000a(r6)
      10:	01 01       	mova	@r1,	r1	
      12:	01 01       	mova	@r1,	r1	
      14:	00 00       	bra	@r0		
      16:	00 01       	bra	@r1		
      18:	63 3a       	jl	$-824    	;abs 0xfce0
      1a:	5c 6d 73 70 	addc.b	28787(r13),r12	;0x7073(r13)
      1e:	67 63       	addc.b	#2,	r7	;r3 As==10
      20:	63 5c       	.word	0x5c63;	????	Illegal as 2-op instr
      22:	62 69       	addc.b	@r9,	r2	
      24:	6e 5c       	add.b	@r12,	r14	
      26:	2e 2e       	jc	$-930    	;abs 0xfc84
      28:	2f 6c       	addc	@r12,	r15	
      2a:	69 62       	addc.b	#4,	r9	;r2 As==10
      2c:	2f 67       	addc	@r7,	r15	
      2e:	63 63       	.word	0x6363;	????	Illegal as 2-op instr
      30:	2f 6d       	addc	@r13,	r15	
      32:	73 70       	.word	0x7073;	????	Illegal as 2-op instr
      34:	34 33       	jn	$-406    	;abs 0xfe9e
      36:	30 2f       	jc	$-414    	;abs 0xfe98
      38:	34 2e       	jc	$-918    	;abs 0xfca2
      3a:	35 2e       	jc	$-916    	;abs 0xfca6
      3c:	33 2f       	jc	$-408    	;abs 0xfea4
      3e:	2e 2e       	jc	$-930    	;abs 0xfc9c
      40:	2f 2e       	jc	$-928    	;abs 0xfca0
      42:	2e 2f       	jc	$-418    	;abs 0xfea0
      44:	2e 2e       	jc	$-930    	;abs 0xfca2
      46:	2f 2e       	jc	$-928    	;abs 0xfca6
      48:	2e 2f       	jc	$-418    	;abs 0xfea6
      4a:	6d 73       	subc.b	#2,	r13	;r3 As==10
      4c:	70 34       	jge	$+226    	;abs 0x12e
      4e:	33 30       	jn	$+104    	;abs 0xb6
      50:	2f 69       	addc	@r9,	r15	
      52:	6e 63       	addc.b	#2,	r14	;r3 As==10
      54:	6c 75       	subc.b	@r5,	r12	
      56:	64 65       	addc.b	@r5,	r4	
      58:	00 00       	bra	@r0		
      5a:	6d 61       	addc.b	@r1,	r13	
      5c:	69 6e       	addc.b	@r14,	r9	
      5e:	2e 63       	addc	#2,	r14	;r3 As==10
      60:	00 00       	bra	@r0		
      62:	00 00       	bra	@r0		
      64:	6c 63       	addc.b	#2,	r12	;r3 As==10
      66:	64 36       	jge	$-822    	;abs 0xfd30
      68:	31 30       	jn	$+100    	;abs 0xcc
      6a:	30 2e       	jc	$-926    	;abs 0xfccc
      6c:	68 00 00 00 	mova	r0,	&0x80000
      70:	00 6d       	addc	r13,	r0	
      72:	73 70       	.word	0x7073;	????	Illegal as 2-op instr
      74:	34 33       	jn	$-406    	;abs 0xfede
      76:	30 66       	addc	@r6+,	r0	
      78:	32 36       	jge	$-922    	;abs 0xfcde
      7a:	31 38       	jl	$+100    	;abs 0xde
      7c:	2e 68       	addc	@r8,	r14	
      7e:	00 01       	bra	@r1		
      80:	00 00       	bra	@r0		
      82:	00 00       	bra	@r0		
      84:	03 02       	.word	0x0203;	????	Illegal as address instr
      86:	42 34       	jge	$+134    	;abs 0x10c
      88:	00 01       	bra	@r1		
      8a:	01 00       	mova	@r0,	r1	
      8c:	03 02       	.word	0x0203;	????	Illegal as address instr
      8e:	38 31       	jn	$+626    	;abs 0x300
      90:	27 00 03 02 	mova	&0x00203,r7	
      94:	3a 31       	jn	$+630    	;abs 0x30a
      96:	18 00       	mova	#0x00000,r8	
      98:	03 02       	.word	0x0203;	????	Illegal as address instr
      9a:	3e 31       	jn	$+638    	;abs 0x318
      9c:	16 00       	mova	#0x00000,r6	
      9e:	03 02       	.word	0x0203;	????	Illegal as address instr
      a0:	42 31       	jn	$+646    	;abs 0x326
      a2:	16 00       	mova	#0x00000,r6	
      a4:	03 02       	.word	0x0203;	????	Illegal as address instr
      a6:	4a 31       	jn	$+662    	;abs 0x33c
      a8:	18 00       	mova	#0x00000,r8	
      aa:	03 02       	.word	0x0203;	????	Illegal as address instr
      ac:	52 31       	jn	$+678    	;abs 0x352
      ae:	15 00       	mova	#0x00000,r5	
      b0:	03 02       	.word	0x0203;	????	Illegal as address instr
      b2:	62 31       	jn	$+710    	;abs 0x378
      b4:	15 00       	mova	#0x00000,r5	
      b6:	03 02       	.word	0x0203;	????	Illegal as address instr
      b8:	6a 31       	jn	$+726    	;abs 0x38e
      ba:	15 00       	mova	#0x00000,r5	
      bc:	03 02       	.word	0x0203;	????	Illegal as address instr
      be:	78 31       	jn	$+754    	;abs 0x3b0
      c0:	15 00       	mova	#0x00000,r5	
      c2:	03 02       	.word	0x0203;	????	Illegal as address instr
      c4:	80 31       	jn	$+770    	;abs 0x3c6
      c6:	15 00       	mova	#0x00000,r5	
      c8:	03 02       	.word	0x0203;	????	Illegal as address instr
      ca:	90 31       	jn	$+802    	;abs 0x3ec
      cc:	15 00       	mova	#0x00000,r5	
      ce:	03 02       	.word	0x0203;	????	Illegal as address instr
      d0:	98 31       	jn	$+818    	;abs 0x402
      d2:	15 00       	mova	#0x00000,r5	
      d4:	03 02       	.word	0x0203;	????	Illegal as address instr
      d6:	a6 31       	jn	$+846    	;abs 0x424
      d8:	15 00       	mova	#0x00000,r5	
      da:	03 02       	.word	0x0203;	????	Illegal as address instr
      dc:	ae 31       	jn	$+862    	;abs 0x43a
      de:	18 00       	mova	#0x00000,r8	
      e0:	03 02       	.word	0x0203;	????	Illegal as address instr
      e2:	b6 31       	jn	$+878    	;abs 0x450
      e4:	15 00       	mova	#0x00000,r5	
      e6:	03 02       	.word	0x0203;	????	Illegal as address instr
      e8:	c6 31       	jn	$+910    	;abs 0x476
      ea:	15 00       	mova	#0x00000,r5	
      ec:	03 02       	.word	0x0203;	????	Illegal as address instr
      ee:	cc 31       	jn	$+922    	;abs 0x488
      f0:	16 00       	mova	#0x00000,r6	
      f2:	03 02       	.word	0x0203;	????	Illegal as address instr
      f4:	d8 31       	jn	$+946    	;abs 0x4a6
      f6:	15 00       	mova	#0x00000,r5	
      f8:	03 02       	.word	0x0203;	????	Illegal as address instr
      fa:	e6 31       	jn	$+974    	;abs 0x4c8
      fc:	15 00       	mova	#0x00000,r5	
      fe:	03 02       	.word	0x0203;	????	Illegal as address instr
     100:	ec 31       	jn	$+986    	;abs 0x4da
     102:	16 00       	mova	#0x00000,r6	
     104:	03 02       	.word	0x0203;	????	Illegal as address instr
     106:	fa 31       	jn	$+1014   	;abs 0x4fc
     108:	15 00       	mova	#0x00000,r5	
     10a:	03 02       	.word	0x0203;	????	Illegal as address instr
     10c:	08 32       	jn	$-1006   	;abs 0xfd1e
     10e:	15 00       	mova	#0x00000,r5	
     110:	03 02       	.word	0x0203;	????	Illegal as address instr
     112:	0e 32       	jn	$-994    	;abs 0xfd30
     114:	16 00       	mova	#0x00000,r6	
     116:	03 02       	.word	0x0203;	????	Illegal as address instr
     118:	1c 32       	jn	$-966    	;abs 0xfd52
     11a:	15 00       	mova	#0x00000,r5	
     11c:	03 02       	.word	0x0203;	????	Illegal as address instr
     11e:	2a 32       	jn	$-938    	;abs 0xfd74
     120:	15 00       	mova	#0x00000,r5	
     122:	03 02       	.word	0x0203;	????	Illegal as address instr
     124:	30 32       	jn	$-926    	;abs 0xfd86
     126:	16 00       	mova	#0x00000,r6	
     128:	03 02       	.word	0x0203;	????	Illegal as address instr
     12a:	3e 32       	jn	$-898    	;abs 0xfda8
     12c:	15 00       	mova	#0x00000,r5	
     12e:	03 02       	.word	0x0203;	????	Illegal as address instr
     130:	4c 32       	jn	$-870    	;abs 0xfdca
     132:	15 00       	mova	#0x00000,r5	
     134:	03 02       	.word	0x0203;	????	Illegal as address instr
     136:	52 32       	jn	$-858    	;abs 0xfddc
     138:	16 00       	mova	#0x00000,r6	
     13a:	03 02       	.word	0x0203;	????	Illegal as address instr
     13c:	60 32       	jn	$-830    	;abs 0xfdfe
     13e:	15 00       	mova	#0x00000,r5	
     140:	03 02       	.word	0x0203;	????	Illegal as address instr
     142:	6e 32       	jn	$-802    	;abs 0xfe20
     144:	15 00       	mova	#0x00000,r5	
     146:	03 02       	.word	0x0203;	????	Illegal as address instr
     148:	74 32       	jn	$-790    	;abs 0xfe32
     14a:	16 00       	mova	#0x00000,r6	
     14c:	03 02       	.word	0x0203;	????	Illegal as address instr
     14e:	82 32       	jn	$-762    	;abs 0xfe54
     150:	15 00       	mova	#0x00000,r5	
     152:	03 02       	.word	0x0203;	????	Illegal as address instr
     154:	90 32       	jn	$-734    	;abs 0xfe76
     156:	15 00       	mova	#0x00000,r5	
     158:	03 02       	.word	0x0203;	????	Illegal as address instr
     15a:	96 32       	jn	$-722    	;abs 0xfe88
     15c:	16 00       	mova	#0x00000,r6	
     15e:	03 02       	.word	0x0203;	????	Illegal as address instr
     160:	a4 32       	jn	$-694    	;abs 0xfeaa
     162:	15 00       	mova	#0x00000,r5	
     164:	03 02       	.word	0x0203;	????	Illegal as address instr
     166:	b2 32       	jn	$-666    	;abs 0xfecc
     168:	15 00       	mova	#0x00000,r5	
     16a:	03 02       	.word	0x0203;	????	Illegal as address instr
     16c:	b8 32       	jn	$-654    	;abs 0xfede
     16e:	16 00       	mova	#0x00000,r6	
     170:	03 02       	.word	0x0203;	????	Illegal as address instr
     172:	c6 32       	jn	$-626    	;abs 0xff00
     174:	15 00       	mova	#0x00000,r5	
     176:	03 02       	.word	0x0203;	????	Illegal as address instr
     178:	d4 32       	jn	$-598    	;abs 0xff22
     17a:	15 00       	mova	#0x00000,r5	
     17c:	03 02       	.word	0x0203;	????	Illegal as address instr
     17e:	da 32       	jn	$-586    	;abs 0xff34
     180:	16 00       	mova	#0x00000,r6	
     182:	03 02       	.word	0x0203;	????	Illegal as address instr
     184:	e8 32       	jn	$-558    	;abs 0xff56
     186:	15 00       	mova	#0x00000,r5	
     188:	03 02       	.word	0x0203;	????	Illegal as address instr
     18a:	f6 32       	jn	$-530    	;abs 0xff78
     18c:	15 00       	mova	#0x00000,r5	
     18e:	03 02       	.word	0x0203;	????	Illegal as address instr
     190:	fc 32       	jn	$-518    	;abs 0xff8a
     192:	16 00       	mova	#0x00000,r6	
     194:	03 02       	.word	0x0203;	????	Illegal as address instr
     196:	0a 33       	jn	$-490    	;abs 0xffac
     198:	15 00       	mova	#0x00000,r5	
     19a:	03 02       	.word	0x0203;	????	Illegal as address instr
     19c:	18 33       	jn	$-462    	;abs 0xffce
     19e:	15 00       	mova	#0x00000,r5	
     1a0:	03 02       	.word	0x0203;	????	Illegal as address instr
     1a2:	1e 33       	jn	$-450    	;abs 0xffe0
     1a4:	16 00       	mova	#0x00000,r6	
     1a6:	03 02       	.word	0x0203;	????	Illegal as address instr
     1a8:	2c 33       	jn	$-422    	;abs 0x2
     1aa:	15 00       	mova	#0x00000,r5	
     1ac:	03 02       	.word	0x0203;	????	Illegal as address instr
     1ae:	3a 33       	jn	$-394    	;abs 0x24
     1b0:	15 00       	mova	#0x00000,r5	
     1b2:	03 02       	.word	0x0203;	????	Illegal as address instr
     1b4:	40 33       	jn	$-382    	;abs 0x36
     1b6:	16 00       	mova	#0x00000,r6	
     1b8:	03 02       	.word	0x0203;	????	Illegal as address instr
     1ba:	4e 33       	jn	$-354    	;abs 0x58
     1bc:	15 00       	mova	#0x00000,r5	
     1be:	03 02       	.word	0x0203;	????	Illegal as address instr
     1c0:	5c 33       	jn	$-326    	;abs 0x7a
     1c2:	15 00       	mova	#0x00000,r5	
     1c4:	03 02       	.word	0x0203;	????	Illegal as address instr
     1c6:	62 33       	jn	$-314    	;abs 0x8c
     1c8:	16 00       	mova	#0x00000,r6	
     1ca:	03 02       	.word	0x0203;	????	Illegal as address instr
     1cc:	70 33       	jn	$-286    	;abs 0xae
     1ce:	15 00       	mova	#0x00000,r5	
     1d0:	03 02       	.word	0x0203;	????	Illegal as address instr
     1d2:	7e 33       	jn	$-258    	;abs 0xd0
     1d4:	15 00       	mova	#0x00000,r5	
     1d6:	03 02       	.word	0x0203;	????	Illegal as address instr
     1d8:	84 33       	jn	$-246    	;abs 0xe2
     1da:	16 00       	mova	#0x00000,r6	
     1dc:	03 02       	.word	0x0203;	????	Illegal as address instr
     1de:	92 33       	jn	$-218    	;abs 0x104
     1e0:	15 00       	mova	#0x00000,r5	
     1e2:	03 02       	.word	0x0203;	????	Illegal as address instr
     1e4:	a0 33       	jn	$-190    	;abs 0x126
     1e6:	15 00       	mova	#0x00000,r5	
     1e8:	03 02       	.word	0x0203;	????	Illegal as address instr
     1ea:	a8 33       	jn	$-174    	;abs 0x13c
     1ec:	00 01       	bra	@r1		
     1ee:	01 6b       	addc	r11,	r1	
     1f0:	00 00       	bra	@r0		
     1f2:	00 02       	bra	#4		;r2 As==10
     1f4:	00 1b       	.word	0x1b00;	????	
     1f6:	00 00       	bra	@r0		
     1f8:	00 01       	bra	@r1		
     1fa:	01 f6       	and	r6,	r1	
     1fc:	f5 0a       	suba	r10,	r5	
     1fe:	00 01       	bra	@r1		
     200:	01 01       	mova	@r1,	r1	
     202:	01 00       	mova	@r0,	r1	
     204:	00 00       	bra	@r0		
     206:	01 00       	mova	@r0,	r1	
     208:	64 65       	addc.b	@r5,	r4	
     20a:	6c 61       	addc.b	@r1,	r12	
     20c:	79 2e       	jc	$-780    	;abs 0xff00
     20e:	63 00 00 00 	mova	r0,	&0x30000
     212:	00 00       	bra	@r0		
     214:	00 03       	bra	#2		;r3 As==10
     216:	02 42       	mov	r2,	r2	
     218:	34 18       	.word	0x1834;	????	
     21a:	00 03       	bra	#2		;r3 As==10
     21c:	02 42       	mov	r2,	r2	
     21e:	34 19       	.word	0x1934;	????	
     220:	00 03       	bra	#2		;r3 As==10
     222:	02 44       	mov	r4,	r2	
     224:	34 17       	popm	#4,	r7	
     226:	00 03       	bra	#2		;r3 As==10
     228:	02 44       	mov	r4,	r2	
     22a:	34 19       	.word	0x1934;	????	
     22c:	00 03       	bra	#2		;r3 As==10
     22e:	02 46       	mov	r6,	r2	
     230:	34 19       	.word	0x1934;	????	
     232:	00 03       	bra	#2		;r3 As==10
     234:	02 46       	mov	r6,	r2	
     236:	34 17       	popm	#4,	r7	
     238:	00 03       	bra	#2		;r3 As==10
     23a:	02 4a       	mov	r10,	r2	
     23c:	34 01 00 03 	mova	768(r1),r4	;0x0300(r1)
     240:	02 56       	add	r6,	r2	
     242:	34 1a       	.word	0x1a34;	????	
     244:	00 03       	bra	#2		;r3 As==10
     246:	02 5c       	add	r12,	r2	
     248:	34 17       	popm	#4,	r7	
     24a:	00 03       	bra	#2		;r3 As==10
     24c:	02 60       	addc	r0,	r2	
     24e:	34 01 00 03 	mova	768(r1),r4	;0x0300(r1)
     252:	02 70       	subc	r0,	r2	
     254:	34 15       	pushm	#4,	r4	
     256:	00 03       	bra	#2		;r3 As==10
     258:	02 76       	subc	r6,	r2	
     25a:	34 00 01 01 	mova	0x0101,	r4	;PC rel. 0x0035d
     25e:	e2 01       	adda	r1,	r2	
     260:	00 00       	bra	@r0		
     262:	02 00       	mova	@r0,	r2	
     264:	74 00 00 00 	mova	r0,	0(r4)	;0x0000(r4)
     268:	01 01       	mova	@r1,	r1	
     26a:	f6 f5 0a 00 	and.b	@r5+,	10(r6)	;0x000a(r6)
     26e:	01 01       	mova	@r1,	r1	
     270:	01 01       	mova	@r1,	r1	
     272:	00 00       	bra	@r0		
     274:	00 01       	bra	@r1		
     276:	63 3a       	jl	$-824    	;abs 0xff3e
     278:	5c 6d 73 70 	addc.b	28787(r13),r12	;0x7073(r13)
     27c:	67 63       	addc.b	#2,	r7	;r3 As==10
     27e:	63 5c       	.word	0x5c63;	????	Illegal as 2-op instr
     280:	62 69       	addc.b	@r9,	r2	
     282:	6e 5c       	add.b	@r12,	r14	
     284:	2e 2e       	jc	$-930    	;abs 0xfee2
     286:	2f 6c       	addc	@r12,	r15	
     288:	69 62       	addc.b	#4,	r9	;r2 As==10
     28a:	2f 67       	addc	@r7,	r15	
     28c:	63 63       	.word	0x6363;	????	Illegal as 2-op instr
     28e:	2f 6d       	addc	@r13,	r15	
     290:	73 70       	.word	0x7073;	????	Illegal as 2-op instr
     292:	34 33       	jn	$-406    	;abs 0xfc
     294:	30 2f       	jc	$-414    	;abs 0xf6
     296:	34 2e       	jc	$-918    	;abs 0xff00
     298:	35 2e       	jc	$-916    	;abs 0xff04
     29a:	33 2f       	jc	$-408    	;abs 0x102
     29c:	2e 2e       	jc	$-930    	;abs 0xfefa
     29e:	2f 2e       	jc	$-928    	;abs 0xfefe
     2a0:	2e 2f       	jc	$-418    	;abs 0xfe
     2a2:	2e 2e       	jc	$-930    	;abs 0xff00
     2a4:	2f 2e       	jc	$-928    	;abs 0xff04
     2a6:	2e 2f       	jc	$-418    	;abs 0x104
     2a8:	6d 73       	subc.b	#2,	r13	;r3 As==10
     2aa:	70 34       	jge	$+226    	;abs 0x38c
     2ac:	33 30       	jn	$+104    	;abs 0x314
     2ae:	2f 69       	addc	@r9,	r15	
     2b0:	6e 63       	addc.b	#2,	r14	;r3 As==10
     2b2:	6c 75       	subc.b	@r5,	r12	
     2b4:	64 65       	addc.b	@r5,	r4	
     2b6:	00 00       	bra	@r0		
     2b8:	69 32       	jn	$-812    	;abs 0xff8c
     2ba:	63 2e       	jc	$-824    	;abs 0xff82
     2bc:	63 00 00 00 	mova	r0,	&0x30000
     2c0:	00 6d       	addc	r13,	r0	
     2c2:	73 70       	.word	0x7073;	????	Illegal as 2-op instr
     2c4:	34 33       	jn	$-406    	;abs 0x12e
     2c6:	30 66       	addc	@r6+,	r0	
     2c8:	32 36       	jge	$-922    	;abs 0xff2e
     2ca:	31 38       	jl	$+100    	;abs 0x32e
     2cc:	2e 68       	addc	@r8,	r14	
     2ce:	00 01       	bra	@r1		
     2d0:	00 00       	bra	@r0		
     2d2:	69 32       	jn	$-812    	;abs 0xffa6
     2d4:	63 2e       	jc	$-824    	;abs 0xff9c
     2d6:	68 00 00 00 	mova	r0,	&0x80000
     2da:	00 00       	bra	@r0		
     2dc:	00 03       	bra	#2		;r3 As==10
     2de:	02 76       	subc	r6,	r2	
     2e0:	34 1a       	.word	0x1a34;	????	
     2e2:	00 03       	bra	#2		;r3 As==10
     2e4:	02 76       	subc	r6,	r2	
     2e6:	34 16       	popm.a	#4,	r7	
     2e8:	00 03       	bra	#2		;r3 As==10
     2ea:	02 7a       	subc	r10,	r2	
     2ec:	34 1f       	.word	0x1f34;	????	
     2ee:	00 03       	bra	#2		;r3 As==10
     2f0:	02 80       	sub	r0,	r2	
     2f2:	34 15       	pushm	#4,	r4	
     2f4:	00 03       	bra	#2		;r3 As==10
     2f6:	02 84       	sub	r4,	r2	
     2f8:	34 1b       	.word	0x1b34;	????	
     2fa:	00 03       	bra	#2		;r3 As==10
     2fc:	02 8a       	sub	r10,	r2	
     2fe:	34 16       	popm.a	#4,	r7	
     300:	00 03       	bra	#2		;r3 As==10
     302:	02 90       	cmp	r0,	r2	
     304:	34 16       	popm.a	#4,	r7	
     306:	00 03       	bra	#2		;r3 As==10
     308:	02 96       	cmp	r6,	r2	
     30a:	34 16       	popm.a	#4,	r7	
     30c:	00 03       	bra	#2		;r3 As==10
     30e:	02 9c       	cmp	r12,	r2	
     310:	34 16       	popm.a	#4,	r7	
     312:	00 03       	bra	#2		;r3 As==10
     314:	02 a6       	dadd	r6,	r2	
     316:	34 15       	pushm	#4,	r4	
     318:	00 03       	bra	#2		;r3 As==10
     31a:	02 aa       	dadd	r10,	r2	
     31c:	34 15       	pushm	#4,	r4	
     31e:	00 03       	bra	#2		;r3 As==10
     320:	02 b0       	bit	r0,	r2	
     322:	34 15       	pushm	#4,	r4	
     324:	00 03       	bra	#2		;r3 As==10
     326:	02 b4       	bit	r4,	r2	
     328:	34 15       	pushm	#4,	r4	
     32a:	00 03       	bra	#2		;r3 As==10
     32c:	02 ba       	bit	r10,	r2	
     32e:	34 20       	jnz	$+106    	;abs 0x398
     330:	00 03       	bra	#2		;r3 As==10
     332:	02 c0       	bic	r0,	r2	
     334:	34 16       	popm.a	#4,	r7	
     336:	00 03       	bra	#2		;r3 As==10
     338:	02 c0       	bic	r0,	r2	
     33a:	34 16       	popm.a	#4,	r7	
     33c:	00 03       	bra	#2		;r3 As==10
     33e:	02 c6       	bic	r6,	r2	
     340:	34 16       	popm.a	#4,	r7	
     342:	00 03       	bra	#2		;r3 As==10
     344:	02 cc       	bic	r12,	r2	
     346:	34 15       	pushm	#4,	r4	
     348:	00 03       	bra	#2		;r3 As==10
     34a:	02 d2       	bis	r2,	r2	
     34c:	34 16       	popm.a	#4,	r7	
     34e:	00 03       	bra	#2		;r3 As==10
     350:	02 da       	bis	r10,	r2	
     352:	34 17       	popm	#4,	r7	
     354:	00 03       	bra	#2		;r3 As==10
     356:	02 de       	bis	r14,	r2	
     358:	34 15       	pushm	#4,	r4	
     35a:	00 03       	bra	#2		;r3 As==10
     35c:	02 e0       	xor	r0,	r2	
     35e:	34 11       	rra	@r4+		
     360:	00 03       	bra	#2		;r3 As==10
     362:	02 e6       	xor	r6,	r2	
     364:	34 3d       	jmp	$+618    	;abs 0x5ce
     366:	00 03       	bra	#2		;r3 As==10
     368:	02 e6       	xor	r6,	r2	
     36a:	34 15       	pushm	#4,	r4	
     36c:	00 03       	bra	#2		;r3 As==10
     36e:	02 ee       	xor	r14,	r2	
     370:	34 15       	pushm	#4,	r4	
     372:	00 03       	bra	#2		;r3 As==10
     374:	02 f6       	and	r6,	r2	
     376:	34 15       	pushm	#4,	r4	
     378:	00 03       	bra	#2		;r3 As==10
     37a:	02 fc       	and	r12,	r2	
     37c:	34 15       	pushm	#4,	r4	
     37e:	00 03       	bra	#2		;r3 As==10
     380:	02 00       	mova	@r0,	r2	
     382:	35 17       	popm	#4,	r8	
     384:	00 03       	bra	#2		;r3 As==10
     386:	02 04       	mova	@r4,	r2	
     388:	35 15       	pushm	#4,	r5	
     38a:	00 03       	bra	#2		;r3 As==10
     38c:	02 0a       	mova	@r10,	r2	
     38e:	35 17       	popm	#4,	r8	
     390:	00 03       	bra	#2		;r3 As==10
     392:	02 10       	rrc	r2		
     394:	35 0e 00 03 	mova	768(r14),r5	;0x0300(r14)
     398:	02 16       	popm.a	#1,	r2	
     39a:	35 1c       	.word	0x1c35;	????	
     39c:	00 03       	bra	#2		;r3 As==10
     39e:	02 16       	popm.a	#1,	r2	
     3a0:	35 15       	pushm	#4,	r5	
     3a2:	00 03       	bra	#2		;r3 As==10
     3a4:	02 1e       	.word	0x1e02;	????	
     3a6:	35 15       	pushm	#4,	r5	
     3a8:	00 03       	bra	#2		;r3 As==10
     3aa:	02 22       	jnz	$-1018   	;abs 0xffb0
     3ac:	35 15       	pushm	#4,	r5	
     3ae:	00 03       	bra	#2		;r3 As==10
     3b0:	02 2a       	jnc	$-1018   	;abs 0xffb6
     3b2:	35 15       	pushm	#4,	r5	
     3b4:	00 03       	bra	#2		;r3 As==10
     3b6:	02 32       	jn	$-1018   	;abs 0xffbc
     3b8:	35 18       	.word	0x1835;	????	
     3ba:	00 03       	bra	#2		;r3 As==10
     3bc:	02 36       	jge	$-1018   	;abs 0xffc2
     3be:	35 15       	pushm	#4,	r5	
     3c0:	00 03       	bra	#2		;r3 As==10
     3c2:	02 3c       	jmp	$+6      	;abs 0x3c8
     3c4:	35 16       	popm.a	#4,	r8	
     3c6:	00 03       	bra	#2		;r3 As==10
     3c8:	02 46       	mov	r6,	r2	
     3ca:	35 15       	pushm	#4,	r5	
     3cc:	00 03       	bra	#2		;r3 As==10
     3ce:	02 48       	mov	r8,	r2	
     3d0:	35 0d 00 03 	mova	768(r13),r5	;0x0300(r13)
     3d4:	02 4e       	mov	r14,	r2	
     3d6:	35 03 56 01 	mova	#1,	r5	;r3 As==01
     3da:	00 03       	bra	#2		;r3 As==10
     3dc:	02 52       	rla	r2		
     3de:	35 18       	.word	0x1835;	????	
     3e0:	00 03       	bra	#2		;r3 As==10
     3e2:	02 58       	add	r8,	r2	
     3e4:	35 17       	popm	#4,	r8	
     3e6:	00 03       	bra	#2		;r3 As==10
     3e8:	02 5e       	add	r14,	r2	
     3ea:	35 17       	popm	#4,	r8	
     3ec:	00 03       	bra	#2		;r3 As==10
     3ee:	02 66       	addc	r6,	r2	
     3f0:	35 17       	popm	#4,	r8	
     3f2:	00 03       	bra	#2		;r3 As==10
     3f4:	02 6c       	addc	r12,	r2	
     3f6:	35 1d       	.word	0x1d35;	????	
     3f8:	00 03       	bra	#2		;r3 As==10
     3fa:	02 70       	subc	r0,	r2	
     3fc:	35 0d 00 03 	mova	768(r13),r5	;0x0300(r13)
     400:	02 7a       	subc	r10,	r2	
     402:	35 17       	popm	#4,	r8	
     404:	00 03       	bra	#2		;r3 As==10
     406:	02 84       	sub	r4,	r2	
     408:	35 18       	.word	0x1835;	????	
     40a:	00 03       	bra	#2		;r3 As==10
     40c:	02 88       	sub	r8,	r2	
     40e:	35 03 5e 01 	mova	#1,	r5	;r3 As==01
     412:	00 03       	bra	#2		;r3 As==10
     414:	02 8c       	sub	r12,	r2	
     416:	35 16       	popm.a	#4,	r8	
     418:	00 03       	bra	#2		;r3 As==10
     41a:	02 92       	cmp	r2,	r2	
     41c:	35 15       	pushm	#4,	r5	
     41e:	00 03       	bra	#2		;r3 As==10
     420:	02 98       	cmp	r8,	r2	
     422:	35 15       	pushm	#4,	r5	
     424:	00 03       	bra	#2		;r3 As==10
     426:	02 a0       	dadd	r0,	r2	
     428:	35 15       	pushm	#4,	r5	
     42a:	00 03       	bra	#2		;r3 As==10
     42c:	02 a6       	dadd	r6,	r2	
     42e:	35 19       	.word	0x1935;	????	
     430:	00 03       	bra	#2		;r3 As==10
     432:	02 aa       	dadd	r10,	r2	
     434:	35 10       	rrc	@r5+		
     436:	00 03       	bra	#2		;r3 As==10
     438:	02 b2       	bit	r2,	r2	
     43a:	35 18       	.word	0x1835;	????	
     43c:	00 03       	bra	#2		;r3 As==10
     43e:	02 b6       	bit	r6,	r2	
     440:	35 00 01 01 	mova	0x0101,	r5	;PC rel. 0x00543
     444:	93 06       	.word	0x0693;	????	Illegal as address instr
     446:	00 00       	bra	@r0		
     448:	02 00       	mova	@r0,	r2	
     44a:	87 00 00 00 	mova	#0x00000,r7	
     44e:	01 01       	mova	@r1,	r1	
     450:	f6 f5 0a 00 	and.b	@r5+,	10(r6)	;0x000a(r6)
     454:	01 01       	mova	@r1,	r1	
     456:	01 01       	mova	@r1,	r1	
     458:	00 00       	bra	@r0		
     45a:	00 01       	bra	@r1		
     45c:	63 3a       	jl	$-824    	;abs 0x124
     45e:	5c 6d 73 70 	addc.b	28787(r13),r12	;0x7073(r13)
     462:	67 63       	addc.b	#2,	r7	;r3 As==10
     464:	63 5c       	.word	0x5c63;	????	Illegal as 2-op instr
     466:	62 69       	addc.b	@r9,	r2	
     468:	6e 5c       	add.b	@r12,	r14	
     46a:	2e 2e       	jc	$-930    	;abs 0xc8
     46c:	2f 6c       	addc	@r12,	r15	
     46e:	69 62       	addc.b	#4,	r9	;r2 As==10
     470:	2f 67       	addc	@r7,	r15	
     472:	63 63       	.word	0x6363;	????	Illegal as 2-op instr
     474:	2f 6d       	addc	@r13,	r15	
     476:	73 70       	.word	0x7073;	????	Illegal as 2-op instr
     478:	34 33       	jn	$-406    	;abs 0x2e2
     47a:	30 2f       	jc	$-414    	;abs 0x2dc
     47c:	34 2e       	jc	$-918    	;abs 0xe6
     47e:	35 2e       	jc	$-916    	;abs 0xea
     480:	33 2f       	jc	$-408    	;abs 0x2e8
     482:	2e 2e       	jc	$-930    	;abs 0xe0
     484:	2f 2e       	jc	$-928    	;abs 0xe4
     486:	2e 2f       	jc	$-418    	;abs 0x2e4
     488:	2e 2e       	jc	$-930    	;abs 0xe6
     48a:	2f 2e       	jc	$-928    	;abs 0xea
     48c:	2e 2f       	jc	$-418    	;abs 0x2ea
     48e:	6d 73       	subc.b	#2,	r13	;r3 As==10
     490:	70 34       	jge	$+226    	;abs 0x572
     492:	33 30       	jn	$+104    	;abs 0x4fa
     494:	2f 69       	addc	@r9,	r15	
     496:	6e 63       	addc.b	#2,	r14	;r3 As==10
     498:	6c 75       	subc.b	@r5,	r12	
     49a:	64 65       	addc.b	@r5,	r4	
     49c:	00 00       	bra	@r0		
     49e:	6c 63       	addc.b	#2,	r12	;r3 As==10
     4a0:	64 36       	jge	$-822    	;abs 0x16a
     4a2:	31 30       	jn	$+100    	;abs 0x506
     4a4:	30 2e       	jc	$-926    	;abs 0x106
     4a6:	63 00 00 00 	mova	r0,	&0x30000
     4aa:	00 6d       	addc	r13,	r0	
     4ac:	73 70       	.word	0x7073;	????	Illegal as 2-op instr
     4ae:	34 33       	jn	$-406    	;abs 0x318
     4b0:	30 66       	addc	@r6+,	r0	
     4b2:	32 36       	jge	$-922    	;abs 0x118
     4b4:	31 38       	jl	$+100    	;abs 0x518
     4b6:	2e 68       	addc	@r8,	r14	
     4b8:	00 01       	bra	@r1		
     4ba:	00 00       	bra	@r0		
     4bc:	6c 63       	addc.b	#2,	r12	;r3 As==10
     4be:	64 36       	jge	$-822    	;abs 0x188
     4c0:	31 30       	jn	$+100    	;abs 0x524
     4c2:	30 2e       	jc	$-926    	;abs 0x124
     4c4:	68 00 00 00 	mova	r0,	&0x80000
     4c8:	00 73       	sbc	r0		
     4ca:	74 64       	addc.b	@r4+,	r4	
     4cc:	69 6f       	addc.b	@r15,	r9	
     4ce:	2e 68       	addc	@r8,	r14	
     4d0:	00 01       	bra	@r1		
     4d2:	00 00       	bra	@r0		
     4d4:	00 00       	bra	@r0		
     4d6:	03 02       	.word	0x0203;	????	Illegal as address instr
     4d8:	b6 35       	jge	$+878    	;abs 0x846
     4da:	c5 00       	mova	r0,	r5	
     4dc:	03 02       	.word	0x0203;	????	Illegal as address instr
     4de:	b6 35       	jge	$+878    	;abs 0x84c
     4e0:	15 00       	mova	#0x00000,r5	
     4e2:	03 02       	.word	0x0203;	????	Illegal as address instr
     4e4:	ba 35       	jge	$+886    	;abs 0x85a
     4e6:	15 00       	mova	#0x00000,r5	
     4e8:	03 02       	.word	0x0203;	????	Illegal as address instr
     4ea:	be 35       	jge	$+894    	;abs 0x868
     4ec:	15 00       	mova	#0x00000,r5	
     4ee:	03 02       	.word	0x0203;	????	Illegal as address instr
     4f0:	c0 35       	jge	$+898    	;abs 0x872
     4f2:	1d 00       	mova	#0x00000,r13	
     4f4:	03 02       	.word	0x0203;	????	Illegal as address instr
     4f6:	c2 35       	jge	$+902    	;abs 0x87c
     4f8:	18 00       	mova	#0x00000,r8	
     4fa:	03 02       	.word	0x0203;	????	Illegal as address instr
     4fc:	c6 35       	jge	$+910    	;abs 0x88a
     4fe:	15 00       	mova	#0x00000,r5	
     500:	03 02       	.word	0x0203;	????	Illegal as address instr
     502:	cc 35       	jge	$+922    	;abs 0x89c
     504:	1a 00       	mova	#0x00000,r10	
     506:	03 02       	.word	0x0203;	????	Illegal as address instr
     508:	d2 35       	jge	$+934    	;abs 0x8ae
     50a:	15 00       	mova	#0x00000,r5	
     50c:	03 02       	.word	0x0203;	????	Illegal as address instr
     50e:	d6 35       	jge	$+942    	;abs 0x8bc
     510:	15 00       	mova	#0x00000,r5	
     512:	03 02       	.word	0x0203;	????	Illegal as address instr
     514:	de 35       	jge	$+958    	;abs 0x8d2
     516:	03 74       	.word	0x7403;	????	Illegal as 2-op instr
     518:	01 00       	mova	@r0,	r1	
     51a:	03 02       	.word	0x0203;	????	Illegal as address instr
     51c:	e4 35       	jge	$+970    	;abs 0x8e6
     51e:	24 00 03 02 	mova	&0x00203,r4	
     522:	e8 35       	jge	$+978    	;abs 0x8f4
     524:	19 00       	mova	#0x00000,r9	
     526:	03 02       	.word	0x0203;	????	Illegal as address instr
     528:	ec 35       	jge	$+986    	;abs 0x902
     52a:	15 00       	mova	#0x00000,r5	
     52c:	03 02       	.word	0x0203;	????	Illegal as address instr
     52e:	f4 35       	jge	$+1002   	;abs 0x918
     530:	0c 00       	mova	@r0,	r12	
     532:	03 02       	.word	0x0203;	????	Illegal as address instr
     534:	f6 35       	jge	$+1006   	;abs 0x922
     536:	1d 00       	mova	#0x00000,r13	
     538:	03 02       	.word	0x0203;	????	Illegal as address instr
     53a:	fa 35       	jge	$+1014   	;abs 0x930
     53c:	0c 00       	mova	@r0,	r12	
     53e:	03 02       	.word	0x0203;	????	Illegal as address instr
     540:	00 36       	jge	$-1022   	;abs 0x142
     542:	18 00       	mova	#0x00000,r8	
     544:	03 02       	.word	0x0203;	????	Illegal as address instr
     546:	08 36       	jge	$-1006   	;abs 0x158
     548:	1b 00       	mova	#0x00000,r11	
     54a:	03 02       	.word	0x0203;	????	Illegal as address instr
     54c:	0c 36       	jge	$-998    	;abs 0x166
     54e:	01 00       	mova	@r0,	r1	
     550:	03 02       	.word	0x0203;	????	Illegal as address instr
     552:	12 36       	jge	$-986    	;abs 0x178
     554:	17 00       	mova	#0x00000,r7	
     556:	03 02       	.word	0x0203;	????	Illegal as address instr
     558:	18 36       	jge	$-974    	;abs 0x18a
     55a:	15 00       	mova	#0x00000,r5	
     55c:	03 02       	.word	0x0203;	????	Illegal as address instr
     55e:	1c 36       	jge	$-966    	;abs 0x198
     560:	15 00       	mova	#0x00000,r5	
     562:	03 02       	.word	0x0203;	????	Illegal as address instr
     564:	20 36       	jge	$-958    	;abs 0x1a6
     566:	03 68       	.word	0x6803;	????	Illegal as 2-op instr
     568:	01 00       	mova	@r0,	r1	
     56a:	03 02       	.word	0x0203;	????	Illegal as address instr
     56c:	26 36       	jge	$-946    	;abs 0x1ba
     56e:	6e 00 03 02 	mova	r0,	&0xe0203
     572:	2a 36       	jge	$-938    	;abs 0x1c8
     574:	15 00       	mova	#0x00000,r5	
     576:	03 02       	.word	0x0203;	????	Illegal as address instr
     578:	32 36       	jge	$-922    	;abs 0x1de
     57a:	15 00       	mova	#0x00000,r5	
     57c:	03 02       	.word	0x0203;	????	Illegal as address instr
     57e:	3a 36       	jge	$-906    	;abs 0x1f4
     580:	15 00       	mova	#0x00000,r5	
     582:	03 02       	.word	0x0203;	????	Illegal as address instr
     584:	3e 36       	jge	$-898    	;abs 0x202
     586:	17 00       	mova	#0x00000,r7	
     588:	03 02       	.word	0x0203;	????	Illegal as address instr
     58a:	46 36       	jge	$-882    	;abs 0x218
     58c:	15 00       	mova	#0x00000,r5	
     58e:	03 02       	.word	0x0203;	????	Illegal as address instr
     590:	4e 36       	jge	$-866    	;abs 0x22e
     592:	15 00       	mova	#0x00000,r5	
     594:	03 02       	.word	0x0203;	????	Illegal as address instr
     596:	56 36       	jge	$-850    	;abs 0x244
     598:	15 00       	mova	#0x00000,r5	
     59a:	03 02       	.word	0x0203;	????	Illegal as address instr
     59c:	5e 36       	jge	$-834    	;abs 0x25a
     59e:	15 00       	mova	#0x00000,r5	
     5a0:	03 02       	.word	0x0203;	????	Illegal as address instr
     5a2:	64 36       	jge	$-822    	;abs 0x26c
     5a4:	17 00       	mova	#0x00000,r7	
     5a6:	03 02       	.word	0x0203;	????	Illegal as address instr
     5a8:	76 36       	jge	$-786    	;abs 0x296
     5aa:	17 00       	mova	#0x00000,r7	
     5ac:	03 02       	.word	0x0203;	????	Illegal as address instr
     5ae:	86 36       	jge	$-754    	;abs 0x2bc
     5b0:	15 00       	mova	#0x00000,r5	
     5b2:	03 02       	.word	0x0203;	????	Illegal as address instr
     5b4:	96 36       	jge	$-722    	;abs 0x2e2
     5b6:	16 00       	mova	#0x00000,r6	
     5b8:	03 02       	.word	0x0203;	????	Illegal as address instr
     5ba:	a2 36       	jge	$-698    	;abs 0x300
     5bc:	16 00       	mova	#0x00000,r6	
     5be:	03 02       	.word	0x0203;	????	Illegal as address instr
     5c0:	b6 36       	jge	$-658    	;abs 0x32e
     5c2:	15 00       	mova	#0x00000,r5	
     5c4:	03 02       	.word	0x0203;	????	Illegal as address instr
     5c6:	ba 36       	jge	$-650    	;abs 0x33c
     5c8:	01 00       	mova	@r0,	r1	
     5ca:	03 02       	.word	0x0203;	????	Illegal as address instr
     5cc:	bc 36       	jge	$-646    	;abs 0x346
     5ce:	16 00       	mova	#0x00000,r6	
     5d0:	03 02       	.word	0x0203;	????	Illegal as address instr
     5d2:	c4 36       	jge	$-630    	;abs 0x35c
     5d4:	12 00       	mova	#0x00000,r2	
     5d6:	03 02       	.word	0x0203;	????	Illegal as address instr
     5d8:	ca 36       	jge	$-618    	;abs 0x36e
     5da:	19 00       	mova	#0x00000,r9	
     5dc:	03 02       	.word	0x0203;	????	Illegal as address instr
     5de:	d0 36       	jge	$-606    	;abs 0x380
     5e0:	15 00       	mova	#0x00000,r5	
     5e2:	03 02       	.word	0x0203;	????	Illegal as address instr
     5e4:	d4 36       	jge	$-598    	;abs 0x38e
     5e6:	16 00       	mova	#0x00000,r6	
     5e8:	03 02       	.word	0x0203;	????	Illegal as address instr
     5ea:	e2 36       	jge	$-570    	;abs 0x3b0
     5ec:	15 00       	mova	#0x00000,r5	
     5ee:	03 02       	.word	0x0203;	????	Illegal as address instr
     5f0:	f0 36       	jge	$-542    	;abs 0x3d2
     5f2:	15 00       	mova	#0x00000,r5	
     5f4:	03 02       	.word	0x0203;	????	Illegal as address instr
     5f6:	fa 36       	jge	$-522    	;abs 0x3ec
     5f8:	03 5b       	.word	0x5b03;	????	Illegal as 2-op instr
     5fa:	01 00       	mova	@r0,	r1	
     5fc:	03 02       	.word	0x0203;	????	Illegal as address instr
     5fe:	fa 36       	jge	$-522    	;abs 0x3f4
     600:	15 00       	mova	#0x00000,r5	
     602:	03 02       	.word	0x0203;	????	Illegal as address instr
     604:	0c 37       	jge	$-486    	;abs 0x41e
     606:	15 00       	mova	#0x00000,r5	
     608:	03 02       	.word	0x0203;	????	Illegal as address instr
     60a:	0e 37       	jge	$-482    	;abs 0x428
     60c:	03 44       	.word	0x4403;	????	Illegal as 2-op instr
     60e:	01 00       	mova	@r0,	r1	
     610:	03 02       	.word	0x0203;	????	Illegal as address instr
     612:	1e 37       	jge	$-450    	;abs 0x450
     614:	15 00       	mova	#0x00000,r5	
     616:	03 02       	.word	0x0203;	????	Illegal as address instr
     618:	24 37       	jge	$-438    	;abs 0x462
     61a:	16 00       	mova	#0x00000,r6	
     61c:	03 02       	.word	0x0203;	????	Illegal as address instr
     61e:	28 37       	jge	$-430    	;abs 0x470
     620:	15 00       	mova	#0x00000,r5	
     622:	03 02       	.word	0x0203;	????	Illegal as address instr
     624:	2e 37       	jge	$-418    	;abs 0x482
     626:	15 00       	mova	#0x00000,r5	
     628:	03 02       	.word	0x0203;	????	Illegal as address instr
     62a:	34 37       	jge	$-406    	;abs 0x494
     62c:	16 00       	mova	#0x00000,r6	
     62e:	03 02       	.word	0x0203;	????	Illegal as address instr
     630:	3a 37       	jge	$-394    	;abs 0x4a6
     632:	15 00       	mova	#0x00000,r5	
     634:	03 02       	.word	0x0203;	????	Illegal as address instr
     636:	44 37       	jge	$-374    	;abs 0x4c0
     638:	15 00       	mova	#0x00000,r5	
     63a:	03 02       	.word	0x0203;	????	Illegal as address instr
     63c:	48 37       	jge	$-366    	;abs 0x4ce
     63e:	15 00       	mova	#0x00000,r5	
     640:	03 02       	.word	0x0203;	????	Illegal as address instr
     642:	4e 37       	jge	$-354    	;abs 0x4e0
     644:	17 00       	mova	#0x00000,r7	
     646:	03 02       	.word	0x0203;	????	Illegal as address instr
     648:	58 37       	jge	$-334    	;abs 0x4fa
     64a:	16 00       	mova	#0x00000,r6	
     64c:	03 02       	.word	0x0203;	????	Illegal as address instr
     64e:	64 37       	jge	$-310    	;abs 0x518
     650:	16 00       	mova	#0x00000,r6	
     652:	03 02       	.word	0x0203;	????	Illegal as address instr
     654:	6e 37       	jge	$-290    	;abs 0x532
     656:	15 00       	mova	#0x00000,r5	
     658:	03 02       	.word	0x0203;	????	Illegal as address instr
     65a:	78 37       	jge	$-270    	;abs 0x54c
     65c:	15 00       	mova	#0x00000,r5	
     65e:	03 02       	.word	0x0203;	????	Illegal as address instr
     660:	80 37       	jge	$-254    	;abs 0x562
     662:	17 00       	mova	#0x00000,r7	
     664:	03 02       	.word	0x0203;	????	Illegal as address instr
     666:	8a 37       	jge	$-234    	;abs 0x57c
     668:	16 00       	mova	#0x00000,r6	
     66a:	03 02       	.word	0x0203;	????	Illegal as address instr
     66c:	94 37       	jge	$-214    	;abs 0x596
     66e:	16 00       	mova	#0x00000,r6	
     670:	03 02       	.word	0x0203;	????	Illegal as address instr
     672:	9c 37       	jge	$-198    	;abs 0x5ac
     674:	15 00       	mova	#0x00000,r5	
     676:	03 02       	.word	0x0203;	????	Illegal as address instr
     678:	a4 37       	jge	$-182    	;abs 0x5c2
     67a:	15 00       	mova	#0x00000,r5	
     67c:	03 02       	.word	0x0203;	????	Illegal as address instr
     67e:	b0 37       	jge	$-158    	;abs 0x5e0
     680:	15 00       	mova	#0x00000,r5	
     682:	03 02       	.word	0x0203;	????	Illegal as address instr
     684:	bc 37       	jge	$-134    	;abs 0x5fe
     686:	15 00       	mova	#0x00000,r5	
     688:	03 02       	.word	0x0203;	????	Illegal as address instr
     68a:	c8 37       	jge	$-110    	;abs 0x61c
     68c:	15 00       	mova	#0x00000,r5	
     68e:	03 02       	.word	0x0203;	????	Illegal as address instr
     690:	d4 37       	jge	$-86     	;abs 0x63a
     692:	15 00       	mova	#0x00000,r5	
     694:	03 02       	.word	0x0203;	????	Illegal as address instr
     696:	e0 37       	jge	$-62     	;abs 0x658
     698:	15 00       	mova	#0x00000,r5	
     69a:	03 02       	.word	0x0203;	????	Illegal as address instr
     69c:	ec 37       	jge	$-38     	;abs 0x676
     69e:	16 00       	mova	#0x00000,r6	
     6a0:	03 02       	.word	0x0203;	????	Illegal as address instr
     6a2:	f4 37       	jge	$-22     	;abs 0x68c
     6a4:	15 00       	mova	#0x00000,r5	
     6a6:	03 02       	.word	0x0203;	????	Illegal as address instr
     6a8:	fc 37       	jge	$-6      	;abs 0x6a2
     6aa:	15 00       	mova	#0x00000,r5	
     6ac:	03 02       	.word	0x0203;	????	Illegal as address instr
     6ae:	04 38       	jl	$+10     	;abs 0x6b8
     6b0:	15 00       	mova	#0x00000,r5	
     6b2:	03 02       	.word	0x0203;	????	Illegal as address instr
     6b4:	0c 38       	jl	$+26     	;abs 0x6ce
     6b6:	15 00       	mova	#0x00000,r5	
     6b8:	03 02       	.word	0x0203;	????	Illegal as address instr
     6ba:	14 38       	jl	$+42     	;abs 0x6e4
     6bc:	15 00       	mova	#0x00000,r5	
     6be:	03 02       	.word	0x0203;	????	Illegal as address instr
     6c0:	1c 38       	jl	$+58     	;abs 0x6fa
     6c2:	15 00       	mova	#0x00000,r5	
     6c4:	03 02       	.word	0x0203;	????	Illegal as address instr
     6c6:	24 38       	jl	$+74     	;abs 0x710
     6c8:	15 00       	mova	#0x00000,r5	
     6ca:	03 02       	.word	0x0203;	????	Illegal as address instr
     6cc:	2c 38       	jl	$+90     	;abs 0x726
     6ce:	16 00       	mova	#0x00000,r6	
     6d0:	03 02       	.word	0x0203;	????	Illegal as address instr
     6d2:	34 38       	jl	$+106    	;abs 0x73c
     6d4:	15 00       	mova	#0x00000,r5	
     6d6:	03 02       	.word	0x0203;	????	Illegal as address instr
     6d8:	3c 38       	jl	$+122    	;abs 0x752
     6da:	15 00       	mova	#0x00000,r5	
     6dc:	03 02       	.word	0x0203;	????	Illegal as address instr
     6de:	44 38       	jl	$+138    	;abs 0x768
     6e0:	15 00       	mova	#0x00000,r5	
     6e2:	03 02       	.word	0x0203;	????	Illegal as address instr
     6e4:	4c 38       	jl	$+154    	;abs 0x77e
     6e6:	17 00       	mova	#0x00000,r7	
     6e8:	03 02       	.word	0x0203;	????	Illegal as address instr
     6ea:	56 38       	jl	$+174    	;abs 0x798
     6ec:	16 00       	mova	#0x00000,r6	
     6ee:	03 02       	.word	0x0203;	????	Illegal as address instr
     6f0:	68 38       	jl	$+210    	;abs 0x7c2
     6f2:	17 00       	mova	#0x00000,r7	
     6f4:	03 02       	.word	0x0203;	????	Illegal as address instr
     6f6:	78 38       	jl	$+242    	;abs 0x7e8
     6f8:	3f 00 03 02 	mova	0x0203,	r15	;PC rel. 0x008fd
     6fc:	96 38       	jl	$+302    	;abs 0x82a
     6fe:	19 00       	mova	#0x00000,r9	
     700:	03 02       	.word	0x0203;	????	Illegal as address instr
     702:	9a 38       	jl	$+310    	;abs 0x838
     704:	15 00       	mova	#0x00000,r5	
     706:	03 02       	.word	0x0203;	????	Illegal as address instr
     708:	b8 38       	jl	$+370    	;abs 0x87a
     70a:	15 00       	mova	#0x00000,r5	
     70c:	03 02       	.word	0x0203;	????	Illegal as address instr
     70e:	cc 38       	jl	$+410    	;abs 0x8a8
     710:	15 00       	mova	#0x00000,r5	
     712:	03 02       	.word	0x0203;	????	Illegal as address instr
     714:	e0 38       	jl	$+450    	;abs 0x8d6
     716:	15 00       	mova	#0x00000,r5	
     718:	03 02       	.word	0x0203;	????	Illegal as address instr
     71a:	f6 38       	jl	$+494    	;abs 0x908
     71c:	15 00       	mova	#0x00000,r5	
     71e:	03 02       	.word	0x0203;	????	Illegal as address instr
     720:	fe 38       	jl	$+510    	;abs 0x91e
     722:	0b 00       	mova	@r0,	r11	
     724:	03 02       	.word	0x0203;	????	Illegal as address instr
     726:	04 39       	jl	$+522    	;abs 0x930
     728:	16 00       	mova	#0x00000,r6	
     72a:	03 02       	.word	0x0203;	????	Illegal as address instr
     72c:	22 39       	jl	$+582    	;abs 0x972
     72e:	15 00       	mova	#0x00000,r5	
     730:	03 02       	.word	0x0203;	????	Illegal as address instr
     732:	28 39       	jl	$+594    	;abs 0x984
     734:	22 00 03 02 	mova	&0x00203,r2	
     738:	30 39       	jl	$+610    	;abs 0x99a
     73a:	0d 00       	mova	@r0,	r13	
     73c:	03 02       	.word	0x0203;	????	Illegal as address instr
     73e:	34 39       	jl	$+618    	;abs 0x9a8
     740:	15 00       	mova	#0x00000,r5	
     742:	03 02       	.word	0x0203;	????	Illegal as address instr
     744:	38 39       	jl	$+626    	;abs 0x9b6
     746:	15 00       	mova	#0x00000,r5	
     748:	03 02       	.word	0x0203;	????	Illegal as address instr
     74a:	3c 39       	jl	$+634    	;abs 0x9c4
     74c:	15 00       	mova	#0x00000,r5	
     74e:	03 02       	.word	0x0203;	????	Illegal as address instr
     750:	40 39       	jl	$+642    	;abs 0x9d2
     752:	16 00       	mova	#0x00000,r6	
     754:	03 02       	.word	0x0203;	????	Illegal as address instr
     756:	44 39       	jl	$+650    	;abs 0x9e0
     758:	17 00       	mova	#0x00000,r7	
     75a:	03 02       	.word	0x0203;	????	Illegal as address instr
     75c:	4c 39       	jl	$+666    	;abs 0x9f6
     75e:	03 6d       	.word	0x6d03;	????	Illegal as 2-op instr
     760:	01 00       	mova	@r0,	r1	
     762:	03 02       	.word	0x0203;	????	Illegal as address instr
     764:	56 39       	jl	$+686    	;abs 0xa12
     766:	27 00 03 02 	mova	&0x00203,r7	
     76a:	6a 39       	jl	$+726    	;abs 0xa40
     76c:	15 00       	mova	#0x00000,r5	
     76e:	03 02       	.word	0x0203;	????	Illegal as address instr
     770:	7a 39       	jl	$+758    	;abs 0xa66
     772:	15 00       	mova	#0x00000,r5	
     774:	03 02       	.word	0x0203;	????	Illegal as address instr
     776:	90 39       	jl	$+802    	;abs 0xa98
     778:	15 00       	mova	#0x00000,r5	
     77a:	03 02       	.word	0x0203;	????	Illegal as address instr
     77c:	a6 39       	jl	$+846    	;abs 0xaca
     77e:	15 00       	mova	#0x00000,r5	
     780:	03 02       	.word	0x0203;	????	Illegal as address instr
     782:	bc 39       	jl	$+890    	;abs 0xafc
     784:	15 00       	mova	#0x00000,r5	
     786:	03 02       	.word	0x0203;	????	Illegal as address instr
     788:	d8 39       	jl	$+946    	;abs 0xb3a
     78a:	15 00       	mova	#0x00000,r5	
     78c:	03 02       	.word	0x0203;	????	Illegal as address instr
     78e:	e8 39       	jl	$+978    	;abs 0xb60
     790:	15 00       	mova	#0x00000,r5	
     792:	03 02       	.word	0x0203;	????	Illegal as address instr
     794:	fa 39       	jl	$+1014   	;abs 0xb8a
     796:	03 70       	.word	0x7003;	????	Illegal as 2-op instr
     798:	01 00       	mova	@r0,	r1	
     79a:	03 02       	.word	0x0203;	????	Illegal as address instr
     79c:	02 3a       	jl	$-1018   	;abs 0x3a2
     79e:	26 00 03 02 	mova	&0x00203,r6	
     7a2:	18 3a       	jl	$-974    	;abs 0x3d4
     7a4:	48 00       	rrcm.a	#1,	r8	
     7a6:	03 02       	.word	0x0203;	????	Illegal as address instr
     7a8:	24 3a       	jl	$-950    	;abs 0x3f2
     7aa:	15 00       	mova	#0x00000,r5	
     7ac:	03 02       	.word	0x0203;	????	Illegal as address instr
     7ae:	32 3a       	jl	$-922    	;abs 0x414
     7b0:	15 00       	mova	#0x00000,r5	
     7b2:	03 02       	.word	0x0203;	????	Illegal as address instr
     7b4:	40 3a       	jl	$-894    	;abs 0x436
     7b6:	16 00       	mova	#0x00000,r6	
     7b8:	03 02       	.word	0x0203;	????	Illegal as address instr
     7ba:	4c 3a       	jl	$-870    	;abs 0x454
     7bc:	15 00       	mova	#0x00000,r5	
     7be:	03 02       	.word	0x0203;	????	Illegal as address instr
     7c0:	54 3a       	jl	$-854    	;abs 0x46a
     7c2:	17 00       	mova	#0x00000,r7	
     7c4:	03 02       	.word	0x0203;	????	Illegal as address instr
     7c6:	5a 3a       	jl	$-842    	;abs 0x47c
     7c8:	15 00       	mova	#0x00000,r5	
     7ca:	03 02       	.word	0x0203;	????	Illegal as address instr
     7cc:	5e 3a       	jl	$-834    	;abs 0x48a
     7ce:	16 00       	mova	#0x00000,r6	
     7d0:	03 02       	.word	0x0203;	????	Illegal as address instr
     7d2:	6c 3a       	jl	$-806    	;abs 0x4ac
     7d4:	15 00       	mova	#0x00000,r5	
     7d6:	03 02       	.word	0x0203;	????	Illegal as address instr
     7d8:	76 3a       	jl	$-786    	;abs 0x4c6
     7da:	15 00       	mova	#0x00000,r5	
     7dc:	03 02       	.word	0x0203;	????	Illegal as address instr
     7de:	80 3a       	jl	$-766    	;abs 0x4e0
     7e0:	03 41       	.word	0x4103;	????	Illegal as 2-op instr
     7e2:	01 00       	mova	@r0,	r1	
     7e4:	03 02       	.word	0x0203;	????	Illegal as address instr
     7e6:	a2 3a       	jl	$-698    	;abs 0x52c
     7e8:	15 00       	mova	#0x00000,r5	
     7ea:	03 02       	.word	0x0203;	????	Illegal as address instr
     7ec:	a6 3a       	jl	$-690    	;abs 0x53a
     7ee:	15 00       	mova	#0x00000,r5	
     7f0:	03 02       	.word	0x0203;	????	Illegal as address instr
     7f2:	aa 3a       	jl	$-682    	;abs 0x548
     7f4:	16 00       	mova	#0x00000,r6	
     7f6:	03 02       	.word	0x0203;	????	Illegal as address instr
     7f8:	ae 3a       	jl	$-674    	;abs 0x556
     7fa:	19 00       	mova	#0x00000,r9	
     7fc:	03 02       	.word	0x0203;	????	Illegal as address instr
     7fe:	b0 3a       	jl	$-670    	;abs 0x560
     800:	16 00       	mova	#0x00000,r6	
     802:	03 02       	.word	0x0203;	????	Illegal as address instr
     804:	b4 3a       	jl	$-662    	;abs 0x56e
     806:	19 00       	mova	#0x00000,r9	
     808:	03 02       	.word	0x0203;	????	Illegal as address instr
     80a:	b6 3a       	jl	$-658    	;abs 0x578
     80c:	16 00       	mova	#0x00000,r6	
     80e:	03 02       	.word	0x0203;	????	Illegal as address instr
     810:	b8 3a       	jl	$-654    	;abs 0x582
     812:	15 00       	mova	#0x00000,r5	
     814:	03 02       	.word	0x0203;	????	Illegal as address instr
     816:	ba 3a       	jl	$-650    	;abs 0x58c
     818:	16 00       	mova	#0x00000,r6	
     81a:	03 02       	.word	0x0203;	????	Illegal as address instr
     81c:	c4 3a       	jl	$-630    	;abs 0x5a6
     81e:	16 00       	mova	#0x00000,r6	
     820:	03 02       	.word	0x0203;	????	Illegal as address instr
     822:	c8 3a       	jl	$-622    	;abs 0x5b4
     824:	16 00       	mova	#0x00000,r6	
     826:	03 02       	.word	0x0203;	????	Illegal as address instr
     828:	cc 3a       	jl	$-614    	;abs 0x5c2
     82a:	13 00       	.word	0x0013;	????	Illegal as address instr
     82c:	03 02       	.word	0x0203;	????	Illegal as address instr
     82e:	d4 3a       	jl	$-598    	;abs 0x5d8
     830:	03 68       	.word	0x6803;	????	Illegal as 2-op instr
     832:	01 00       	mova	@r0,	r1	
     834:	03 02       	.word	0x0203;	????	Illegal as address instr
     836:	d8 3a       	jl	$-590    	;abs 0x5e8
     838:	33 00       	.word	0x0033;	????	Illegal as address instr
     83a:	03 02       	.word	0x0203;	????	Illegal as address instr
     83c:	da 3a       	jl	$-586    	;abs 0x5f2
     83e:	0f 00       	mova	@r0,	r15	
     840:	03 02       	.word	0x0203;	????	Illegal as address instr
     842:	de 3a       	jl	$-578    	;abs 0x600
     844:	15 00       	mova	#0x00000,r5	
     846:	03 02       	.word	0x0203;	????	Illegal as address instr
     848:	e0 3a       	jl	$-574    	;abs 0x60a
     84a:	15 00       	mova	#0x00000,r5	
     84c:	03 02       	.word	0x0203;	????	Illegal as address instr
     84e:	e2 3a       	jl	$-570    	;abs 0x614
     850:	18 00       	mova	#0x00000,r8	
     852:	03 02       	.word	0x0203;	????	Illegal as address instr
     854:	ee 3a       	jl	$-546    	;abs 0x632
     856:	03 60       	.word	0x6003;	????	Illegal as 2-op instr
     858:	01 00       	mova	@r0,	r1	
     85a:	03 02       	.word	0x0203;	????	Illegal as address instr
     85c:	f2 3a       	jl	$-538    	;abs 0x642
     85e:	2d 00 03 02 	mova	&0x00203,r13	
     862:	f6 3a       	jl	$-530    	;abs 0x650
     864:	2a 00 03 02 	mova	&0x00203,r10	
     868:	0a 3b       	jl	$-490    	;abs 0x67e
     86a:	0a 00       	mova	@r0,	r10	
     86c:	03 02       	.word	0x0203;	????	Illegal as address instr
     86e:	10 3b       	jl	$-478    	;abs 0x690
     870:	13 00       	.word	0x0013;	????	Illegal as address instr
     872:	03 02       	.word	0x0203;	????	Illegal as address instr
     874:	18 3b       	jl	$-462    	;abs 0x6a6
     876:	03 5c       	.word	0x5c03;	????	Illegal as 2-op instr
     878:	01 00       	mova	@r0,	r1	
     87a:	03 02       	.word	0x0203;	????	Illegal as address instr
     87c:	1c 3b       	jl	$-454    	;abs 0x6b6
     87e:	3f 00 03 02 	mova	0x0203,	r15	;PC rel. 0x00a83
     882:	1e 3b       	jl	$-450    	;abs 0x6c0
     884:	0f 00       	mova	@r0,	r15	
     886:	03 02       	.word	0x0203;	????	Illegal as address instr
     888:	22 3b       	jl	$-442    	;abs 0x6ce
     88a:	15 00       	mova	#0x00000,r5	
     88c:	03 02       	.word	0x0203;	????	Illegal as address instr
     88e:	24 3b       	jl	$-438    	;abs 0x6d8
     890:	15 00       	mova	#0x00000,r5	
     892:	03 02       	.word	0x0203;	????	Illegal as address instr
     894:	26 3b       	jl	$-434    	;abs 0x6e2
     896:	18 00       	mova	#0x00000,r8	
     898:	03 02       	.word	0x0203;	????	Illegal as address instr
     89a:	32 3b       	jl	$-410    	;abs 0x700
     89c:	03 54       	.word	0x5403;	????	Illegal as 2-op instr
     89e:	01 00       	mova	@r0,	r1	
     8a0:	03 02       	.word	0x0203;	????	Illegal as address instr
     8a2:	36 3b       	jl	$-402    	;abs 0x710
     8a4:	39 00 03 02 	mova	0x0203,	r9	;PC rel. 0x00aa9
     8a8:	3e 3b       	jl	$-386    	;abs 0x726
     8aa:	03 67       	.word	0x6703;	????	Illegal as 2-op instr
     8ac:	01 00       	mova	@r0,	r1	
     8ae:	03 02       	.word	0x0203;	????	Illegal as address instr
     8b0:	42 3b       	jl	$-378    	;abs 0x736
     8b2:	15 00       	mova	#0x00000,r5	
     8b4:	03 02       	.word	0x0203;	????	Illegal as address instr
     8b6:	46 3b       	jl	$-370    	;abs 0x744
     8b8:	0c 00       	mova	@r0,	r12	
     8ba:	03 02       	.word	0x0203;	????	Illegal as address instr
     8bc:	4a 3b       	jl	$-362    	;abs 0x752
     8be:	15 00       	mova	#0x00000,r5	
     8c0:	03 02       	.word	0x0203;	????	Illegal as address instr
     8c2:	4e 3b       	jl	$-354    	;abs 0x760
     8c4:	50 00       	rrcm	#1,	r0	
     8c6:	03 02       	.word	0x0203;	????	Illegal as address instr
     8c8:	60 3b       	jl	$-318    	;abs 0x78a
     8ca:	17 00       	mova	#0x00000,r7	
     8cc:	03 02       	.word	0x0203;	????	Illegal as address instr
     8ce:	70 3b       	jl	$-286    	;abs 0x7b0
     8d0:	15 00       	mova	#0x00000,r5	
     8d2:	03 02       	.word	0x0203;	????	Illegal as address instr
     8d4:	80 3b       	jl	$-254    	;abs 0x7d6
     8d6:	16 00       	mova	#0x00000,r6	
     8d8:	03 02       	.word	0x0203;	????	Illegal as address instr
     8da:	8c 3b       	jl	$-230    	;abs 0x7f4
     8dc:	16 00       	mova	#0x00000,r6	
     8de:	03 02       	.word	0x0203;	????	Illegal as address instr
     8e0:	a0 3b       	jl	$-190    	;abs 0x822
     8e2:	15 00       	mova	#0x00000,r5	
     8e4:	03 02       	.word	0x0203;	????	Illegal as address instr
     8e6:	a4 3b       	jl	$-182    	;abs 0x830
     8e8:	01 00       	mova	@r0,	r1	
     8ea:	03 02       	.word	0x0203;	????	Illegal as address instr
     8ec:	a6 3b       	jl	$-178    	;abs 0x83a
     8ee:	0a 00       	mova	@r0,	r10	
     8f0:	03 02       	.word	0x0203;	????	Illegal as address instr
     8f2:	aa 3b       	jl	$-170    	;abs 0x848
     8f4:	20 00 03 02 	bra	&0x00203	
     8f8:	b2 3b       	jl	$-154    	;abs 0x85e
     8fa:	12 00       	mova	#0x00000,r2	
     8fc:	03 02       	.word	0x0203;	????	Illegal as address instr
     8fe:	b8 3b       	jl	$-142    	;abs 0x870
     900:	19 00       	mova	#0x00000,r9	
     902:	03 02       	.word	0x0203;	????	Illegal as address instr
     904:	be 3b       	jl	$-130    	;abs 0x882
     906:	15 00       	mova	#0x00000,r5	
     908:	03 02       	.word	0x0203;	????	Illegal as address instr
     90a:	c2 3b       	jl	$-122    	;abs 0x890
     90c:	16 00       	mova	#0x00000,r6	
     90e:	03 02       	.word	0x0203;	????	Illegal as address instr
     910:	d0 3b       	jl	$-94     	;abs 0x8b2
     912:	15 00       	mova	#0x00000,r5	
     914:	03 02       	.word	0x0203;	????	Illegal as address instr
     916:	de 3b       	jl	$-66     	;abs 0x8d4
     918:	15 00       	mova	#0x00000,r5	
     91a:	03 02       	.word	0x0203;	????	Illegal as address instr
     91c:	e8 3b       	jl	$-46     	;abs 0x8ee
     91e:	17 00       	mova	#0x00000,r7	
     920:	03 02       	.word	0x0203;	????	Illegal as address instr
     922:	e8 3b       	jl	$-46     	;abs 0x8f4
     924:	15 00       	mova	#0x00000,r5	
     926:	03 02       	.word	0x0203;	????	Illegal as address instr
     928:	f8 3b       	jl	$-14     	;abs 0x91a
     92a:	15 00       	mova	#0x00000,r5	
     92c:	03 02       	.word	0x0203;	????	Illegal as address instr
     92e:	fc 3b       	jl	$-6      	;abs 0x928
     930:	16 00       	mova	#0x00000,r6	
     932:	03 02       	.word	0x0203;	????	Illegal as address instr
     934:	00 3c       	jmp	$+2      	;abs 0x936
     936:	15 00       	mova	#0x00000,r5	
     938:	03 02       	.word	0x0203;	????	Illegal as address instr
     93a:	02 3c       	jmp	$+6      	;abs 0x940
     93c:	17 00       	mova	#0x00000,r7	
     93e:	03 02       	.word	0x0203;	????	Illegal as address instr
     940:	02 3c       	jmp	$+6      	;abs 0x946
     942:	15 00       	mova	#0x00000,r5	
     944:	03 02       	.word	0x0203;	????	Illegal as address instr
     946:	0a 3c       	jmp	$+22     	;abs 0x95c
     948:	15 00       	mova	#0x00000,r5	
     94a:	03 02       	.word	0x0203;	????	Illegal as address instr
     94c:	12 3c       	jmp	$+38     	;abs 0x972
     94e:	16 00       	mova	#0x00000,r6	
     950:	03 02       	.word	0x0203;	????	Illegal as address instr
     952:	16 3c       	jmp	$+46     	;abs 0x980
     954:	15 00       	mova	#0x00000,r5	
     956:	03 02       	.word	0x0203;	????	Illegal as address instr
     958:	1a 3c       	jmp	$+54     	;abs 0x98e
     95a:	15 00       	mova	#0x00000,r5	
     95c:	03 02       	.word	0x0203;	????	Illegal as address instr
     95e:	1c 3c       	jmp	$+58     	;abs 0x998
     960:	17 00       	mova	#0x00000,r7	
     962:	03 02       	.word	0x0203;	????	Illegal as address instr
     964:	28 3c       	jmp	$+82     	;abs 0x9b6
     966:	19 00       	mova	#0x00000,r9	
     968:	03 02       	.word	0x0203;	????	Illegal as address instr
     96a:	34 3c       	jmp	$+106    	;abs 0x9d4
     96c:	15 00       	mova	#0x00000,r5	
     96e:	03 02       	.word	0x0203;	????	Illegal as address instr
     970:	42 3c       	jmp	$+134    	;abs 0x9f6
     972:	15 00       	mova	#0x00000,r5	
     974:	03 02       	.word	0x0203;	????	Illegal as address instr
     976:	4c 3c       	jmp	$+154    	;abs 0xa10
     978:	15 00       	mova	#0x00000,r5	
     97a:	03 02       	.word	0x0203;	????	Illegal as address instr
     97c:	5c 3c       	jmp	$+186    	;abs 0xa36
     97e:	18 00       	mova	#0x00000,r8	
     980:	03 02       	.word	0x0203;	????	Illegal as address instr
     982:	72 3c       	jmp	$+230    	;abs 0xa68
     984:	13 00       	.word	0x0013;	????	Illegal as address instr
     986:	03 02       	.word	0x0203;	????	Illegal as address instr
     988:	7e 3c       	jmp	$+254    	;abs 0xa86
     98a:	03 74       	.word	0x7403;	????	Illegal as 2-op instr
     98c:	01 00       	mova	@r0,	r1	
     98e:	03 02       	.word	0x0203;	????	Illegal as address instr
     990:	80 3c       	jmp	$+258    	;abs 0xa92
     992:	29 00 03 02 	mova	&0x00203,r9	
     996:	86 3c       	jmp	$+270    	;abs 0xaa4
     998:	01 00       	mova	@r0,	r1	
     99a:	03 02       	.word	0x0203;	????	Illegal as address instr
     99c:	90 3c       	jmp	$+290    	;abs 0xabe
     99e:	01 00       	mova	@r0,	r1	
     9a0:	03 02       	.word	0x0203;	????	Illegal as address instr
     9a2:	92 3c       	jmp	$+294    	;abs 0xac8
     9a4:	11 00       	mova	#0x00000,r1	
     9a6:	03 02       	.word	0x0203;	????	Illegal as address instr
     9a8:	96 3c       	jmp	$+302    	;abs 0xad6
     9aa:	1a 00       	mova	#0x00000,r10	
     9ac:	03 02       	.word	0x0203;	????	Illegal as address instr
     9ae:	a2 3c       	jmp	$+326    	;abs 0xaf4
     9b0:	0b 00       	mova	@r0,	r11	
     9b2:	03 02       	.word	0x0203;	????	Illegal as address instr
     9b4:	a4 3c       	jmp	$+330    	;abs 0xafe
     9b6:	1e 00       	mova	#0x00000,r14	
     9b8:	03 02       	.word	0x0203;	????	Illegal as address instr
     9ba:	a8 3c       	jmp	$+338    	;abs 0xb0c
     9bc:	10 00       	bra	#0x00000	
     9be:	03 02       	.word	0x0203;	????	Illegal as address instr
     9c0:	b2 3c       	jmp	$+358    	;abs 0xb26
     9c2:	1a 00       	mova	#0x00000,r10	
     9c4:	03 02       	.word	0x0203;	????	Illegal as address instr
     9c6:	be 3c       	jmp	$+382    	;abs 0xb44
     9c8:	17 00       	mova	#0x00000,r7	
     9ca:	03 02       	.word	0x0203;	????	Illegal as address instr
     9cc:	c0 3c       	jmp	$+386    	;abs 0xb4e
     9ce:	15 00       	mova	#0x00000,r5	
     9d0:	03 02       	.word	0x0203;	????	Illegal as address instr
     9d2:	cc 3c       	jmp	$+410    	;abs 0xb6c
     9d4:	1a 00       	mova	#0x00000,r10	
     9d6:	03 02       	.word	0x0203;	????	Illegal as address instr
     9d8:	de 3c       	jmp	$+446    	;abs 0xb96
     9da:	03 4c       	.word	0x4c03;	????	Illegal as 2-op instr
     9dc:	01 00       	mova	@r0,	r1	
     9de:	03 02       	.word	0x0203;	????	Illegal as address instr
     9e0:	ee 3c       	jmp	$+478    	;abs 0xbbe
     9e2:	17 00       	mova	#0x00000,r7	
     9e4:	03 02       	.word	0x0203;	????	Illegal as address instr
     9e6:	f2 3c       	jmp	$+486    	;abs 0xbcc
     9e8:	49 00       	rrcm.a	#1,	r9	
     9ea:	03 02       	.word	0x0203;	????	Illegal as address instr
     9ec:	f8 3c       	jmp	$+498    	;abs 0xbde
     9ee:	15 00       	mova	#0x00000,r5	
     9f0:	03 02       	.word	0x0203;	????	Illegal as address instr
     9f2:	fe 3c       	jmp	$+510    	;abs 0xbf0
     9f4:	03 47       	.word	0x4703;	????	Illegal as 2-op instr
     9f6:	01 00       	mova	@r0,	r1	
     9f8:	03 02       	.word	0x0203;	????	Illegal as address instr
     9fa:	0e 3d       	jmp	$+542    	;abs 0xc18
     9fc:	15 00       	mova	#0x00000,r5	
     9fe:	03 02       	.word	0x0203;	????	Illegal as address instr
     a00:	12 3d       	jmp	$+550    	;abs 0xc26
     a02:	45 00       	rrcm.a	#1,	r5	
     a04:	03 02       	.word	0x0203;	????	Illegal as address instr
     a06:	16 3d       	jmp	$+558    	;abs 0xc34
     a08:	15 00       	mova	#0x00000,r5	
     a0a:	03 02       	.word	0x0203;	????	Illegal as address instr
     a0c:	18 3d       	jmp	$+562    	;abs 0xc3e
     a0e:	03 4e       	.word	0x4e03;	????	Illegal as 2-op instr
     a10:	01 00       	mova	@r0,	r1	
     a12:	03 02       	.word	0x0203;	????	Illegal as address instr
     a14:	1e 3d       	jmp	$+574    	;abs 0xc52
     a16:	47 00       	rrcm.a	#1,	r7	
     a18:	03 02       	.word	0x0203;	????	Illegal as address instr
     a1a:	24 3d       	jmp	$+586    	;abs 0xc64
     a1c:	03 be       	.word	0xbe03;	????	Illegal as 2-op instr
     a1e:	7d 01 00 03 	mova	r1,	768(r13);0x0300(r13)
     a22:	02 24       	jz	$+6      	;abs 0xa28
     a24:	3d 15       	pushm	#4,	r13	
     a26:	00 03       	bra	#2		;r3 As==10
     a28:	02 28       	jnc	$+6      	;abs 0xa2e
     a2a:	3d 16       	popm.a	#4,	r0	
     a2c:	00 03       	bra	#2		;r3 As==10
     a2e:	02 2c       	jc	$+6      	;abs 0xa34
     a30:	3d 03 c9 02 	mova	#1,	r13	;r3 As==01
     a34:	01 00       	mova	@r0,	r1	
     a36:	03 02       	.word	0x0203;	????	Illegal as address instr
     a38:	3a 3d       	jmp	$+630    	;abs 0xcae
     a3a:	15 00       	mova	#0x00000,r5	
     a3c:	03 02       	.word	0x0203;	????	Illegal as address instr
     a3e:	40 3d       	jmp	$+642    	;abs 0xcc0
     a40:	01 00       	mova	@r0,	r1	
     a42:	03 02       	.word	0x0203;	????	Illegal as address instr
     a44:	44 3d       	jmp	$+650    	;abs 0xcce
     a46:	01 00       	mova	@r0,	r1	
     a48:	03 02       	.word	0x0203;	????	Illegal as address instr
     a4a:	50 3d       	jmp	$+674    	;abs 0xcec
     a4c:	21 00 03 02 	mova	&0x00203,r1	
     a50:	52 3d       	jmp	$+678    	;abs 0xcf6
     a52:	13 00       	.word	0x0013;	????	Illegal as address instr
     a54:	03 02       	.word	0x0203;	????	Illegal as address instr
     a56:	76 3d       	jmp	$+750    	;abs 0xd44
     a58:	15 00       	mova	#0x00000,r5	
     a5a:	03 02       	.word	0x0203;	????	Illegal as address instr
     a5c:	88 3d       	jmp	$+786    	;abs 0xd6e
     a5e:	15 00       	mova	#0x00000,r5	
     a60:	03 02       	.word	0x0203;	????	Illegal as address instr
     a62:	9e 3d       	jmp	$+830    	;abs 0xda0
     a64:	16 00       	mova	#0x00000,r6	
     a66:	03 02       	.word	0x0203;	????	Illegal as address instr
     a68:	aa 3d       	jmp	$+854    	;abs 0xdbe
     a6a:	10 00       	bra	#0x00000	
     a6c:	03 02       	.word	0x0203;	????	Illegal as address instr
     a6e:	ae 3d       	jmp	$+862    	;abs 0xdcc
     a70:	03 74       	.word	0x7403;	????	Illegal as 2-op instr
     a72:	01 00       	mova	@r0,	r1	
     a74:	03 02       	.word	0x0203;	????	Illegal as address instr
     a76:	b0 3d       	jmp	$+866    	;abs 0xdd8
     a78:	21 00 03 02 	mova	&0x00203,r1	
     a7c:	b2 3d       	jmp	$+870    	;abs 0xde2
     a7e:	13 00       	.word	0x0013;	????	Illegal as address instr
     a80:	03 02       	.word	0x0203;	????	Illegal as address instr
     a82:	b8 3d       	jmp	$+882    	;abs 0xdf4
     a84:	1b 00       	mova	#0x00000,r11	
     a86:	03 02       	.word	0x0203;	????	Illegal as address instr
     a88:	c0 3d       	jmp	$+898    	;abs 0xe0a
     a8a:	15 00       	mova	#0x00000,r5	
     a8c:	03 02       	.word	0x0203;	????	Illegal as address instr
     a8e:	c4 3d       	jmp	$+906    	;abs 0xe18
     a90:	15 00       	mova	#0x00000,r5	
     a92:	03 02       	.word	0x0203;	????	Illegal as address instr
     a94:	ca 3d       	jmp	$+918    	;abs 0xe2a
     a96:	03 b4       	.word	0xb403;	????	Illegal as 2-op instr
     a98:	7f 01 00 03 	mova	r1,	768(r15);0x0300(r15)
     a9c:	02 d2       	bis	r2,	r2	
     a9e:	3d 15       	pushm	#4,	r13	
     aa0:	00 03       	bra	#2		;r3 As==10
     aa2:	02 d8       	bis	r8,	r2	
     aa4:	3d 16       	popm.a	#4,	r0	
     aa6:	00 03       	bra	#2		;r3 As==10
     aa8:	02 dc       	bis	r12,	r2	
     aaa:	3d 15       	pushm	#4,	r13	
     aac:	00 03       	bra	#2		;r3 As==10
     aae:	02 e0       	xor	r0,	r2	
     ab0:	3d 5e       	add	@r14+,	r13	
     ab2:	00 03       	bra	#2		;r3 As==10
     ab4:	02 e4       	xor	r4,	r2	
     ab6:	3d 15       	pushm	#4,	r13	
     ab8:	00 03       	bra	#2		;r3 As==10
     aba:	02 ec       	xor	r12,	r2	
     abc:	3d 15       	pushm	#4,	r13	
     abe:	00 03       	bra	#2		;r3 As==10
     ac0:	02 ee       	xor	r14,	r2	
     ac2:	3d 12       	push	@r13+		
     ac4:	00 03       	bra	#2		;r3 As==10
     ac6:	02 f2       	and	r2,	r2	
     ac8:	3d 18       	.word	0x183d;	????	
     aca:	00 03       	bra	#2		;r3 As==10
     acc:	02 f8       	and	r8,	r2	
     ace:	3d 03 af 7f 	mova	#1,	r13	;r3 As==01
     ad2:	01 00       	mova	@r0,	r1	
     ad4:	03 02       	.word	0x0203;	????	Illegal as address instr
     ad6:	7c 40 00 01 	mov.b	#256,	r12	;#0x0100
     ada:	01 1e       	.word	0x1e01;	????	
     adc:	00 00       	bra	@r0		
     ade:	00 02       	bra	#4		;r2 As==10
     ae0:	00 10       	rrc	r0		
     ae2:	00 00       	bra	@r0		
     ae4:	00 01       	bra	@r1		
     ae6:	01 f6       	and	r6,	r1	
     ae8:	f5 0a       	suba	r10,	r5	
     aea:	00 01       	bra	@r1		
     aec:	01 01       	mova	@r1,	r1	
     aee:	01 00       	mova	@r0,	r1	
     af0:	00 00       	bra	@r0		
     af2:	01 00       	mova	@r0,	r1	
     af4:	00 00       	bra	@r0		
     af6:	03 02       	.word	0x0203;	????	Illegal as address instr
     af8:	7c 40 00 01 	mov.b	#256,	r12	;#0x0100
     afc:	01 1e       	.word	0x1e01;	????	
     afe:	00 00       	bra	@r0		
     b00:	00 02       	bra	#4		;r2 As==10
     b02:	00 10       	rrc	r0		
     b04:	00 00       	bra	@r0		
     b06:	00 01       	bra	@r1		
     b08:	01 f6       	and	r6,	r1	
     b0a:	f5 0a       	suba	r10,	r5	
     b0c:	00 01       	bra	@r1		
     b0e:	01 01       	mova	@r1,	r1	
     b10:	01 00       	mova	@r0,	r1	
     b12:	00 00       	bra	@r0		
     b14:	01 00       	mova	@r0,	r1	
     b16:	00 00       	bra	@r0		
     b18:	03 02       	.word	0x0203;	????	Illegal as address instr
     b1a:	7c 40 00 01 	mov.b	#256,	r12	;#0x0100
     b1e:	01 1e       	.word	0x1e01;	????	
     b20:	00 00       	bra	@r0		
     b22:	00 02       	bra	#4		;r2 As==10
     b24:	00 10       	rrc	r0		
     b26:	00 00       	bra	@r0		
     b28:	00 01       	bra	@r1		
     b2a:	01 f6       	and	r6,	r1	
     b2c:	f5 0a       	suba	r10,	r5	
     b2e:	00 01       	bra	@r1		
     b30:	01 01       	mova	@r1,	r1	
     b32:	01 00       	mova	@r0,	r1	
     b34:	00 00       	bra	@r0		
     b36:	01 00       	mova	@r0,	r1	
     b38:	00 00       	bra	@r0		
     b3a:	03 02       	.word	0x0203;	????	Illegal as address instr
     b3c:	7c 40 00 01 	mov.b	#256,	r12	;#0x0100
     b40:	01 e5       	xor	r5,	r1	
     b42:	00 00       	bra	@r0		
     b44:	00 02       	bra	#4		;r2 As==10
     b46:	00 77       	subc	r7,	r0	
     b48:	00 00       	bra	@r0		
     b4a:	00 01       	bra	@r1		
     b4c:	01 f6       	and	r6,	r1	
     b4e:	f5 0a       	suba	r10,	r5	
     b50:	00 01       	bra	@r1		
     b52:	01 01       	mova	@r1,	r1	
     b54:	01 00       	mova	@r0,	r1	
     b56:	00 00       	bra	@r0		
     b58:	01 63       	adc	r1		
     b5a:	3a 5c       	add	@r12+,	r10	
     b5c:	6d 73       	subc.b	#2,	r13	;r3 As==10
     b5e:	70 67       	addc.b	@r7+,	r0	
     b60:	63 63       	.word	0x6363;	????	Illegal as 2-op instr
     b62:	5c 62 69 6e 	addc.b	&0x6e69,r12	
     b66:	5c 2e       	jc	$-838    	;abs 0x820
     b68:	2e 2f       	jc	$-418    	;abs 0x9c6
     b6a:	6c 69       	addc.b	@r9,	r12	
     b6c:	62 2f       	jc	$-314    	;abs 0xa32
     b6e:	67 63       	addc.b	#2,	r7	;r3 As==10
     b70:	63 2f       	jc	$-312    	;abs 0xa38
     b72:	6d 73       	subc.b	#2,	r13	;r3 As==10
     b74:	70 34       	jge	$+226    	;abs 0xc56
     b76:	33 30       	jn	$+104    	;abs 0xbde
     b78:	2f 34       	jge	$+96     	;abs 0xbd8
     b7a:	2e 35       	jge	$+606    	;abs 0xdd8
     b7c:	2e 33       	jn	$-418    	;abs 0x9da
     b7e:	2f 2e       	jc	$-928    	;abs 0x7de
     b80:	2e 2f       	jc	$-418    	;abs 0x9de
     b82:	2e 2e       	jc	$-930    	;abs 0x7e0
     b84:	2f 2e       	jc	$-928    	;abs 0x7e4
     b86:	2e 2f       	jc	$-418    	;abs 0x9e4
     b88:	2e 2e       	jc	$-930    	;abs 0x7e6
     b8a:	2f 6d       	addc	@r13,	r15	
     b8c:	73 70       	.word	0x7073;	????	Illegal as 2-op instr
     b8e:	34 33       	jn	$-406    	;abs 0x9f8
     b90:	30 2f       	jc	$-414    	;abs 0x9f2
     b92:	69 6e       	addc.b	@r14,	r9	
     b94:	63 6c       	.word	0x6c63;	????	Illegal as 2-op instr
     b96:	75 64       	addc.b	@r4+,	r5	
     b98:	65 00 00 68 	mova	r0,	&0x56800
     b9c:	61 72       	subc.b	#4,	r1	;r2 As==10
     b9e:	64 77       	subc.b	@r7,	r4	
     ba0:	61 72       	subc.b	#4,	r1	;r2 As==10
     ba2:	65 5f       	add.b	@r15,	r5	
     ba4:	63 6f       	.word	0x6f63;	????	Illegal as 2-op instr
     ba6:	6e 66       	addc.b	@r6,	r14	
     ba8:	69 67       	addc.b	@r7,	r9	
     baa:	2e 63       	addc	#2,	r14	;r3 As==10
     bac:	00 00       	bra	@r0		
     bae:	00 00       	bra	@r0		
     bb0:	6d 73       	subc.b	#2,	r13	;r3 As==10
     bb2:	70 34       	jge	$+226    	;abs 0xc94
     bb4:	33 30       	jn	$+104    	;abs 0xc1c
     bb6:	66 32       	jn	$-818    	;abs 0x884
     bb8:	36 31       	jn	$+622    	;abs 0xe26
     bba:	38 2e       	jc	$-910    	;abs 0x82c
     bbc:	68 00 01 00 	mova	r0,	&0x80001
     bc0:	00 00       	bra	@r0		
     bc2:	00 03       	bra	#2		;r3 As==10
     bc4:	02 7c       	subc	r12,	r2	
     bc6:	40 19       	.word	0x1940;	????	
     bc8:	00 03       	bra	#2		;r3 As==10
     bca:	02 7c       	subc	r12,	r2	
     bcc:	40 15       	pushm	#5,	r0	
     bce:	00 03       	bra	#2		;r3 As==10
     bd0:	02 80       	sub	r0,	r2	
     bd2:	40 15       	pushm	#5,	r0	
     bd4:	00 03       	bra	#2		;r3 As==10
     bd6:	02 86       	sub	r6,	r2	
     bd8:	40 15       	pushm	#5,	r0	
     bda:	00 03       	bra	#2		;r3 As==10
     bdc:	02 8c       	sub	r12,	r2	
     bde:	40 15       	pushm	#5,	r0	
     be0:	00 03       	bra	#2		;r3 As==10
     be2:	02 92       	cmp	r2,	r2	
     be4:	40 15       	pushm	#5,	r0	
     be6:	00 03       	bra	#2		;r3 As==10
     be8:	02 94       	cmp	r4,	r2	
     bea:	40 16       	popm.a	#5,	r4	
     bec:	00 03       	bra	#2		;r3 As==10
     bee:	02 94       	cmp	r4,	r2	
     bf0:	40 15       	pushm	#5,	r0	
     bf2:	00 03       	bra	#2		;r3 As==10
     bf4:	02 9a       	cmp	r10,	r2	
     bf6:	40 0d       	rram.a	#4,	r0	
     bf8:	00 03       	bra	#2		;r3 As==10
     bfa:	02 9e       	cmp	r14,	r2	
     bfc:	40 15       	pushm	#5,	r0	
     bfe:	00 03       	bra	#2		;r3 As==10
     c00:	02 a4       	dadd	r4,	r2	
     c02:	40 15       	pushm	#5,	r0	
     c04:	00 03       	bra	#2		;r3 As==10
     c06:	02 aa       	dadd	r10,	r2	
     c08:	40 15       	pushm	#5,	r0	
     c0a:	00 03       	bra	#2		;r3 As==10
     c0c:	02 b0       	bit	r0,	r2	
     c0e:	40 1c       	.word	0x1c40;	????	
     c10:	00 03       	bra	#2		;r3 As==10
     c12:	02 b4       	bit	r4,	r2	
     c14:	40 15       	pushm	#5,	r0	
     c16:	00 03       	bra	#2		;r3 As==10
     c18:	02 b8       	bit	r8,	r2	
     c1a:	40 16       	popm.a	#5,	r4	
     c1c:	00 03       	bra	#2		;r3 As==10
     c1e:	02 bc       	bit	r12,	r2	
     c20:	40 19       	.word	0x1940;	????	
     c22:	00 03       	bra	#2		;r3 As==10
     c24:	02 be       	bit	r14,	r2	
     c26:	40 00       	rrcm.a	#1,	r0	
     c28:	01 01       	mova	@r1,	r1	
     c2a:	92 00 00 00 	cmpa	#0x00000,r2	
     c2e:	02 00       	mova	@r0,	r2	
     c30:	60 00 00 00 	mova	r0,	&0x00000
     c34:	01 01       	mova	@r1,	r1	
     c36:	f6 f5 0a 00 	and.b	@r5+,	10(r6)	;0x000a(r6)
     c3a:	01 01       	mova	@r1,	r1	
     c3c:	01 01       	mova	@r1,	r1	
     c3e:	00 00       	bra	@r0		
     c40:	00 01       	bra	@r1		
     c42:	2f 6f       	addc	@r15,	r15	
     c44:	70 74       	subc.b	@r4+,	r0	
     c46:	2f 6d       	addc	@r13,	r15	
     c48:	73 70       	.word	0x7073;	????	Illegal as 2-op instr
     c4a:	67 63       	addc.b	#2,	r7	;r3 As==10
     c4c:	63 34       	jge	$+200    	;abs 0xd14
     c4e:	2f 62       	addc	#4,	r15	;r2 As==10
     c50:	69 6e       	addc.b	@r14,	r9	
     c52:	2f 2e       	jc	$-928    	;abs 0x8b2
     c54:	2e 2f       	jc	$-418    	;abs 0xab2
     c56:	6c 69       	addc.b	@r9,	r12	
     c58:	62 2f       	jc	$-314    	;abs 0xb1e
     c5a:	67 63       	addc.b	#2,	r7	;r3 As==10
     c5c:	63 2f       	jc	$-312    	;abs 0xb24
     c5e:	6d 73       	subc.b	#2,	r13	;r3 As==10
     c60:	70 34       	jge	$+226    	;abs 0xd42
     c62:	33 30       	jn	$+104    	;abs 0xcca
     c64:	2f 34       	jge	$+96     	;abs 0xcc4
     c66:	2e 35       	jge	$+606    	;abs 0xec4
     c68:	2e 33       	jn	$-418    	;abs 0xac6
     c6a:	2f 69       	addc	@r9,	r15	
     c6c:	6e 63       	addc.b	#2,	r14	;r3 As==10
     c6e:	6c 75       	subc.b	@r5,	r12	
     c70:	64 65       	addc.b	@r5,	r4	
     c72:	00 73       	sbc	r0		
     c74:	74 64       	addc.b	@r4+,	r4	
     c76:	6c 69       	addc.b	@r9,	r12	
     c78:	62 00 00 70 	mova	r0,	&0x27000
     c7c:	72 69       	addc.b	@r9+,	r2	
     c7e:	6e 74       	subc.b	@r4,	r14	
     c80:	66 2e       	jc	$-818    	;abs 0x94e
     c82:	63 00 02 00 	mova	r0,	&0x30002
     c86:	00 73       	sbc	r0		
     c88:	74 64       	addc.b	@r4+,	r4	
     c8a:	61 72       	subc.b	#4,	r1	;r2 As==10
     c8c:	67 2e       	jc	$-816    	;abs 0x95c
     c8e:	68 00 01 00 	mova	r0,	&0x80001
     c92:	00 00       	bra	@r0		
     c94:	00 03       	bra	#2		;r3 As==10
     c96:	02 be       	bit	r14,	r2	
     c98:	40 38       	jl	$+130    	;abs 0xd1a
     c9a:	00 03       	bra	#2		;r3 As==10
     c9c:	02 be       	bit	r14,	r2	
     c9e:	40 19       	.word	0x1940;	????	
     ca0:	00 03       	bra	#2		;r3 As==10
     ca2:	02 ce       	bic	r14,	r2	
     ca4:	40 17       	popm	#5,	r4	
     ca6:	00 03       	bra	#2		;r3 As==10
     ca8:	02 d0       	bis	r0,	r2	
     caa:	40 18       	.word	0x1840;	????	
     cac:	00 03       	bra	#2		;r3 As==10
     cae:	02 d0       	bis	r0,	r2	
     cb0:	40 15       	pushm	#5,	r0	
     cb2:	00 03       	bra	#2		;r3 As==10
     cb4:	02 dc       	bis	r12,	r2	
     cb6:	40 15       	pushm	#5,	r0	
     cb8:	00 03       	bra	#2		;r3 As==10
     cba:	02 de       	bis	r14,	r2	
     cbc:	40 00       	rrcm.a	#1,	r0	
     cbe:	01 01       	mova	@r1,	r1	
     cc0:	58 03       	rrum	#1,	r8	
     cc2:	00 00       	bra	@r0		
     cc4:	02 00       	mova	@r0,	r2	
     cc6:	79 00 00 00 	mova	r0,	0(r9)	;0x0000(r9)
     cca:	01 01       	mova	@r1,	r1	
     ccc:	f6 f5 0a 00 	and.b	@r5+,	10(r6)	;0x000a(r6)
     cd0:	01 01       	mova	@r1,	r1	
     cd2:	01 01       	mova	@r1,	r1	
     cd4:	00 00       	bra	@r0		
     cd6:	00 01       	bra	@r1		
     cd8:	2e 2e       	jc	$-930    	;abs 0x936
     cda:	2f 69       	addc	@r9,	r15	
     cdc:	6e 63       	addc.b	#2,	r14	;r3 As==10
     cde:	6c 75       	subc.b	@r5,	r12	
     ce0:	64 65       	addc.b	@r5,	r4	
     ce2:	00 2f       	jc	$-510    	;abs 0xae4
     ce4:	6f 70       	subc.b	@r0,	r15	
     ce6:	74 2f       	jc	$-278    	;abs 0xbd0
     ce8:	6d 73       	subc.b	#2,	r13	;r3 As==10
     cea:	70 67       	addc.b	@r7+,	r0	
     cec:	63 63       	.word	0x6363;	????	Illegal as 2-op instr
     cee:	34 2f       	jc	$-406    	;abs 0xb58
     cf0:	62 69       	addc.b	@r9,	r2	
     cf2:	6e 2f       	jc	$-290    	;abs 0xbd0
     cf4:	2e 2e       	jc	$-930    	;abs 0x952
     cf6:	2f 6c       	addc	@r12,	r15	
     cf8:	69 62       	addc.b	#4,	r9	;r2 As==10
     cfa:	2f 67       	addc	@r7,	r15	
     cfc:	63 63       	.word	0x6363;	????	Illegal as 2-op instr
     cfe:	2f 6d       	addc	@r13,	r15	
     d00:	73 70       	.word	0x7073;	????	Illegal as 2-op instr
     d02:	34 33       	jn	$-406    	;abs 0xb6c
     d04:	30 2f       	jc	$-414    	;abs 0xb66
     d06:	34 2e       	jc	$-918    	;abs 0x970
     d08:	35 2e       	jc	$-916    	;abs 0x974
     d0a:	33 2f       	jc	$-408    	;abs 0xb72
     d0c:	69 6e       	addc.b	@r14,	r9	
     d0e:	63 6c       	.word	0x6c63;	????	Illegal as 2-op instr
     d10:	75 64       	addc.b	@r4+,	r5	
     d12:	65 00 73 74 	mova	r0,	&0x57473
     d16:	64 6c       	addc.b	@r12,	r4	
     d18:	69 62       	addc.b	#4,	r9	;r2 As==10
     d1a:	00 00       	bra	@r0		
     d1c:	76 75       	subc.b	@r5+,	r6	
     d1e:	70 72       	subc.b	#8,	r0	;r2 As==11
     d20:	69 6e       	addc.b	@r14,	r9	
     d22:	74 66       	addc.b	@r6+,	r4	
     d24:	2e 63       	addc	#2,	r14	;r3 As==10
     d26:	00 03       	bra	#2		;r3 As==10
     d28:	00 00       	bra	@r0		
     d2a:	73 74       	.word	0x7473;	????	Illegal as 2-op instr
     d2c:	64 69       	addc.b	@r9,	r4	
     d2e:	6e 74       	subc.b	@r4,	r14	
     d30:	2e 68       	addc	@r8,	r14	
     d32:	00 01       	bra	@r1		
     d34:	00 00       	bra	@r0		
     d36:	73 74       	.word	0x7473;	????	Illegal as 2-op instr
     d38:	64 61       	addc.b	@r1,	r4	
     d3a:	72 67       	addc.b	@r7+,	r2	
     d3c:	2e 68       	addc	@r8,	r14	
     d3e:	00 02       	bra	#4		;r2 As==10
     d40:	00 00       	bra	@r0		
     d42:	00 00       	bra	@r0		
     d44:	03 02       	.word	0x0203;	????	Illegal as address instr
     d46:	de 40 78 00 	mov.b	0x0078,	515(r14);PC rel. 0x00dc2, 0x0203(r14)
     d4a:	03 02 
     d4c:	f6 40 15 00 	mov.b	#21,	515(r6)	;#0x0015, 0x0203(r6)
     d50:	03 02 
     d52:	fc 40 03 68 	mov.b	#26627,	1(r12)	;#0x6803, 0x0001(r12)
     d56:	01 00 
     d58:	03 02       	.word	0x0203;	????	Illegal as address instr
     d5a:	06 41       	mov	r1,	r6	
     d5c:	16 00       	mova	#0x00000,r6	
     d5e:	03 02       	.word	0x0203;	????	Illegal as address instr
     d60:	0c 41       	mov	r1,	r12	
     d62:	15 00       	mova	#0x00000,r5	
     d64:	03 02       	.word	0x0203;	????	Illegal as address instr
     d66:	26 41       	mov	@r1,	r6	
     d68:	16 00       	mova	#0x00000,r6	
     d6a:	03 02       	.word	0x0203;	????	Illegal as address instr
     d6c:	2a 41       	mov	@r1,	r10	
     d6e:	15 00       	mova	#0x00000,r5	
     d70:	03 02       	.word	0x0203;	????	Illegal as address instr
     d72:	34 41       	pop	r4		
     d74:	0d 00       	mova	@r0,	r13	
     d76:	03 02       	.word	0x0203;	????	Illegal as address instr
     d78:	36 41       	pop	r6		
     d7a:	1c 00       	mova	#0x00000,r12	
     d7c:	03 02       	.word	0x0203;	????	Illegal as address instr
     d7e:	38 41       	pop	r8		
     d80:	2b 00 03 02 	mova	&0x00203,r11	
     d84:	3c 41       	pop	r12		
     d86:	17 00       	mova	#0x00000,r7	
     d88:	03 02       	.word	0x0203;	????	Illegal as address instr
     d8a:	4c 41       	mov.b	r1,	r12	
     d8c:	16 00       	mova	#0x00000,r6	
     d8e:	03 02       	.word	0x0203;	????	Illegal as address instr
     d90:	50 41 15 00 	br	21(r1)		;0x0015(r1)
     d94:	03 02       	.word	0x0203;	????	Illegal as address instr
     d96:	54 41 16 00 	mov.b	22(r1),	r4	;0x0016(r1)
     d9a:	03 02       	.word	0x0203;	????	Illegal as address instr
     d9c:	56 41 17 00 	mov.b	23(r1),	r6	;0x0017(r1)
     da0:	03 02       	.word	0x0203;	????	Illegal as address instr
     da2:	5c 41 01 00 	mov.b	1(r1),	r12	;0x0001(r1)
     da6:	03 02       	.word	0x0203;	????	Illegal as address instr
     da8:	60 41       	br	@r1		
     daa:	03 6c       	.word	0x6c03;	????	Illegal as 2-op instr
     dac:	01 00       	mova	@r0,	r1	
     dae:	03 02       	.word	0x0203;	????	Illegal as address instr
     db0:	64 41       	mov.b	@r1,	r4	
     db2:	2d 00 03 02 	mova	&0x00203,r13	
     db6:	6c 41       	mov.b	@r1,	r12	
     db8:	13 00       	.word	0x0013;	????	Illegal as address instr
     dba:	03 02       	.word	0x0203;	????	Illegal as address instr
     dbc:	70 41       	pop.b	r0		
     dbe:	01 00       	mova	@r0,	r1	
     dc0:	03 02       	.word	0x0203;	????	Illegal as address instr
     dc2:	72 41       	pop.b	r2		
     dc4:	12 00       	mova	#0x00000,r2	
     dc6:	03 02       	.word	0x0203;	????	Illegal as address instr
     dc8:	78 41       	pop.b	r8		
     dca:	03 75       	.word	0x7503;	????	Illegal as 2-op instr
     dcc:	01 00       	mova	@r0,	r1	
     dce:	03 02       	.word	0x0203;	????	Illegal as address instr
     dd0:	7c 41       	pop.b	r12		
     dd2:	0e 00       	mova	@r0,	r14	
     dd4:	03 02       	.word	0x0203;	????	Illegal as address instr
     dd6:	7e 41       	pop.b	r14		
     dd8:	12 00       	mova	#0x00000,r2	
     dda:	03 02       	.word	0x0203;	????	Illegal as address instr
     ddc:	82 41 2f 00 	mov	r1,	&0x002f	
     de0:	03 02       	.word	0x0203;	????	Illegal as address instr
     de2:	88 41 15 00 	mov	r1,	21(r8)	;0x0015(r8)
     de6:	03 02       	.word	0x0203;	????	Illegal as address instr
     de8:	8a 41 15 00 	mov	r1,	21(r10)	;0x0015(r10)
     dec:	03 02       	.word	0x0203;	????	Illegal as address instr
     dee:	8c 41 10 00 	mov	r1,	16(r12)	;0x0010(r12)
     df2:	03 02       	.word	0x0203;	????	Illegal as address instr
     df4:	92 41 03 69 	mov	26883(r1),&0x0001	;0x6903(r1)
     df8:	01 00 
     dfa:	03 02       	.word	0x0203;	????	Illegal as address instr
     dfc:	94 41 12 00 	mov	18(r1),	515(r4)	;0x0012(r1), 0x0203(r4)
     e00:	03 02 
     e02:	96 41 11 00 	mov	17(r1),	515(r6)	;0x0011(r1), 0x0203(r6)
     e06:	03 02 
     e08:	9a 41 3b 00 	mov	59(r1),	515(r10);0x003b(r1), 0x0203(r10)
     e0c:	03 02 
     e0e:	9c 41 15 00 	mov	21(r1),	515(r12);0x0015(r1), 0x0203(r12)
     e12:	03 02 
     e14:	a4 41 03 58 	mov	@r1,	22531(r4);0x5803(r4)
     e18:	01 00       	mova	@r0,	r1	
     e1a:	03 02       	.word	0x0203;	????	Illegal as address instr
     e1c:	a8 41 39 00 	mov	@r1,	57(r8)	;0x0039(r8)
     e20:	03 02       	.word	0x0203;	????	Illegal as address instr
     e22:	ae 41 1d 00 	mov	@r1,	29(r14)	;0x001d(r14)
     e26:	03 02       	.word	0x0203;	????	Illegal as address instr
     e28:	b4 41 15 00 	pop	21(r4)		;0x0015(r4)
     e2c:	03 02       	.word	0x0203;	????	Illegal as address instr
     e2e:	b6 41 15 00 	pop	21(r6)		;0x0015(r6)
     e32:	03 02       	.word	0x0203;	????	Illegal as address instr
     e34:	b8 41 10 00 	pop	16(r8)		;0x0010(r8)
     e38:	03 02       	.word	0x0203;	????	Illegal as address instr
     e3a:	c0 41 1d 00 	mov.b	r1,	0x001d	;PC rel. 0x00e5b
     e3e:	03 02       	.word	0x0203;	????	Illegal as address instr
     e40:	c6 41 15 00 	mov.b	r1,	21(r6)	;0x0015(r6)
     e44:	03 02       	.word	0x0203;	????	Illegal as address instr
     e46:	c8 41 11 00 	mov.b	r1,	17(r8)	;0x0011(r8)
     e4a:	03 02       	.word	0x0203;	????	Illegal as address instr
     e4c:	cc 41 1b 00 	mov.b	r1,	27(r12)	;0x001b(r12)
     e50:	03 02       	.word	0x0203;	????	Illegal as address instr
     e52:	ea 41 3d 00 	mov.b	@r1,	61(r10)	;0x003d(r10)
     e56:	03 02       	.word	0x0203;	????	Illegal as address instr
     e58:	0a 42       	mov	r2,	r10	
     e5a:	18 00       	mova	#0x00000,r8	
     e5c:	03 02       	.word	0x0203;	????	Illegal as address instr
     e5e:	0e 42       	mov	r2,	r14	
     e60:	13 00       	.word	0x0013;	????	Illegal as address instr
     e62:	03 02       	.word	0x0203;	????	Illegal as address instr
     e64:	12 42 12 00 	mov	&0x0012,r2	
     e68:	03 02       	.word	0x0203;	????	Illegal as address instr
     e6a:	16 42 1f 00 	mov	&0x001f,r6	
     e6e:	03 02       	.word	0x0203;	????	Illegal as address instr
     e70:	1a 42 16 00 	mov	&0x0016,r10	
     e74:	03 02       	.word	0x0203;	????	Illegal as address instr
     e76:	1e 42 18 00 	mov	&0x0018,r14	
     e7a:	03 02       	.word	0x0203;	????	Illegal as address instr
     e7c:	28 42       	mov	#4,	r8	;r2 As==10
     e7e:	17 00       	mova	#0x00000,r7	
     e80:	03 02       	.word	0x0203;	????	Illegal as address instr
     e82:	2c 42       	mov	#4,	r12	;r2 As==10
     e84:	13 00       	.word	0x0013;	????	Illegal as address instr
     e86:	03 02       	.word	0x0203;	????	Illegal as address instr
     e88:	34 42       	mov	#8,	r4	;r2 As==11
     e8a:	20 00 03 02 	bra	&0x00203	
     e8e:	d4 42 1c 00 	mov.b	&0x001c,515(r4)	;0x0203(r4)
     e92:	03 02 
     e94:	dc 42 19 00 	mov.b	&0x0019,515(r12);0x0203(r12)
     e98:	03 02 
     e9a:	e4 42 19 00 	mov.b	#4,	25(r4)	;r2 As==10, 0x0019(r4)
     e9e:	03 02       	.word	0x0203;	????	Illegal as address instr
     ea0:	ec 42 19 00 	mov.b	#4,	25(r12)	;r2 As==10, 0x0019(r12)
     ea4:	03 02       	.word	0x0203;	????	Illegal as address instr
     ea6:	f6 42 1a 00 	mov.b	#8,	26(r6)	;r2 As==11, 0x001a(r6)
     eaa:	03 02       	.word	0x0203;	????	Illegal as address instr
     eac:	02 43       	clr	r2		
     eae:	16 00       	mova	#0x00000,r6	
     eb0:	03 02       	.word	0x0203;	????	Illegal as address instr
     eb2:	0c 43       	clr	r12		
     eb4:	1c 00       	mova	#0x00000,r12	
     eb6:	03 02       	.word	0x0203;	????	Illegal as address instr
     eb8:	18 43       	mov	#1,	r8	;r3 As==01
     eba:	16 00       	mova	#0x00000,r6	
     ebc:	03 02       	.word	0x0203;	????	Illegal as address instr
     ebe:	1c 43       	mov	#1,	r12	;r3 As==01
     ec0:	15 00       	mova	#0x00000,r5	
     ec2:	03 02       	.word	0x0203;	????	Illegal as address instr
     ec4:	22 43       	mov	#2,	r2	;r3 As==10
     ec6:	17 00       	mova	#0x00000,r7	
     ec8:	03 02       	.word	0x0203;	????	Illegal as address instr
     eca:	26 43       	mov	#2,	r6	;r3 As==10
     ecc:	15 00       	mova	#0x00000,r5	
     ece:	03 02       	.word	0x0203;	????	Illegal as address instr
     ed0:	30 43       	br	#-1		;r3 As==11
     ed2:	0d 00       	mova	@r0,	r13	
     ed4:	03 02       	.word	0x0203;	????	Illegal as address instr
     ed6:	38 43       	mov	#-1,	r8	;r3 As==11
     ed8:	27 00 03 02 	mova	&0x00203,r7	
     edc:	3e 43       	mov	#-1,	r14	;r3 As==11
     ede:	16 00       	mova	#0x00000,r6	
     ee0:	03 02       	.word	0x0203;	????	Illegal as address instr
     ee2:	62 43       	mov.b	#2,	r2	;r3 As==10
     ee4:	20 00 03 02 	bra	&0x00203	
     ee8:	70 43       	br	#-1		;r3 As==11
     eea:	15 00       	mova	#0x00000,r5	
     eec:	03 02       	.word	0x0203;	????	Illegal as address instr
     eee:	80 43 19 00 	mov	#0,	0x0019	;r3 As==00, PC rel. 0x00f0b
     ef2:	03 02       	.word	0x0203;	????	Illegal as address instr
     ef4:	8c 43 15 00 	mov	#0,	21(r12)	;r3 As==00, 0x0015(r12)
     ef8:	03 02       	.word	0x0203;	????	Illegal as address instr
     efa:	8e 43 19 00 	mov	#0,	25(r14)	;r3 As==00, 0x0019(r14)
     efe:	03 02       	.word	0x0203;	????	Illegal as address instr
     f00:	9a 43 17 00 	mov	#1,	23(r10)	;r3 As==01, 0x0017(r10)
     f04:	03 02       	.word	0x0203;	????	Illegal as address instr
     f06:	a2 43 01 00 	mov	#2,	&0x0001	;r3 As==10
     f0a:	03 02       	.word	0x0203;	????	Illegal as address instr
     f0c:	b4 43 11 00 	mov	#-1,	17(r4)	;r3 As==11, 0x0011(r4)
     f10:	03 02       	.word	0x0203;	????	Illegal as address instr
     f12:	ba 43 22 00 	mov	#-1,	34(r10)	;r3 As==11, 0x0022(r10)
     f16:	03 02       	.word	0x0203;	????	Illegal as address instr
     f18:	d2 43 15 00 	mov.b	#1,	&0x0015	;r3 As==01
     f1c:	03 02       	.word	0x0203;	????	Illegal as address instr
     f1e:	de 43 16 00 	mov.b	#1,	22(r14)	;r3 As==01, 0x0016(r14)
     f22:	03 02       	.word	0x0203;	????	Illegal as address instr
     f24:	e2 43 11 00 	mov.b	#2,	&0x0011	;r3 As==10
     f28:	03 02       	.word	0x0203;	????	Illegal as address instr
     f2a:	e8 43 1c 00 	mov.b	#2,	28(r8)	;r3 As==10, 0x001c(r8)
     f2e:	03 02       	.word	0x0203;	????	Illegal as address instr
     f30:	f0 43 1d 00 	mov.b	#-1,	0x001d	;r3 As==11, PC rel. 0x00f51
     f34:	03 02       	.word	0x0203;	????	Illegal as address instr
     f36:	f4 43 18 00 	mov.b	#-1,	24(r4)	;r3 As==11, 0x0018(r4)
     f3a:	03 02       	.word	0x0203;	????	Illegal as address instr
     f3c:	fa 43 0a 00 	mov.b	#-1,	10(r10)	;r3 As==11, 0x000a(r10)
     f40:	03 02       	.word	0x0203;	????	Illegal as address instr
     f42:	fe 43 21 00 	mov.b	#-1,	33(r14)	;r3 As==11, 0x0021(r14)
     f46:	03 02       	.word	0x0203;	????	Illegal as address instr
     f48:	06 44       	mov	r4,	r6	
     f4a:	16 00       	mova	#0x00000,r6	
     f4c:	03 02       	.word	0x0203;	????	Illegal as address instr
     f4e:	18 44 18 00 	mov	24(r4),	r8	;0x0018(r4)
     f52:	03 02       	.word	0x0203;	????	Illegal as address instr
     f54:	24 44       	mov	@r4,	r4	
     f56:	16 00       	mova	#0x00000,r6	
     f58:	03 02       	.word	0x0203;	????	Illegal as address instr
     f5a:	36 44       	mov	@r4+,	r6	
     f5c:	18 00       	mova	#0x00000,r8	
     f5e:	03 02       	.word	0x0203;	????	Illegal as address instr
     f60:	42 44       	mov.b	r4,	r2	
     f62:	1b 00       	mova	#0x00000,r11	
     f64:	03 02       	.word	0x0203;	????	Illegal as address instr
     f66:	48 44       	mov.b	r4,	r8	
     f68:	01 00       	mova	@r0,	r1	
     f6a:	03 02       	.word	0x0203;	????	Illegal as address instr
     f6c:	56 44 15 00 	mov.b	21(r4),	r6	;0x0015(r4)
     f70:	03 02       	.word	0x0203;	????	Illegal as address instr
     f72:	5c 44 13 00 	mov.b	19(r4),	r12	;0x0013(r4)
     f76:	03 02       	.word	0x0203;	????	Illegal as address instr
     f78:	60 44       	br	@r4		
     f7a:	16 00       	mova	#0x00000,r6	
     f7c:	03 02       	.word	0x0203;	????	Illegal as address instr
     f7e:	66 44       	mov.b	@r4,	r6	
     f80:	01 00       	mova	@r0,	r1	
     f82:	03 02       	.word	0x0203;	????	Illegal as address instr
     f84:	6a 44       	mov.b	@r4,	r10	
     f86:	17 00       	mova	#0x00000,r7	
     f88:	03 02       	.word	0x0203;	????	Illegal as address instr
     f8a:	70 44       	br	@r4+		
     f8c:	15 00       	mova	#0x00000,r5	
     f8e:	03 02       	.word	0x0203;	????	Illegal as address instr
     f90:	78 44       	mov.b	@r4+,	r8	
     f92:	19 00       	mova	#0x00000,r9	
     f94:	03 02       	.word	0x0203;	????	Illegal as address instr
     f96:	7c 44       	mov.b	@r4+,	r12	
     f98:	21 00 03 02 	mova	&0x00203,r1	
     f9c:	8c 44 0c 00 	mov	r4,	12(r12)	;0x000c(r12)
     fa0:	03 02       	.word	0x0203;	????	Illegal as address instr
     fa2:	9a 44 03 c2 	mov	-15869(r4),382(r10);0xc203(r4), 0x017e(r10)
     fa6:	7e 01 
     fa8:	00 03       	bra	#2		;r3 As==10
     faa:	02 a2       	dadd	r2,	r2	
     fac:	44 d2       	bis.b	r2,	r4	
     fae:	00 03       	bra	#2		;r3 As==10
     fb0:	02 b0       	bit	r0,	r2	
     fb2:	44 15       	pushm	#5,	r4	
     fb4:	00 03       	bra	#2		;r3 As==10
     fb6:	02 b8       	bit	r8,	r2	
     fb8:	44 16       	popm.a	#5,	r8	
     fba:	00 03       	bra	#2		;r3 As==10
     fbc:	02 c2       	bic	r2,	r2	
     fbe:	44 18       	.word	0x1844;	????	
     fc0:	00 03       	bra	#2		;r3 As==10
     fc2:	02 d2       	bis	r2,	r2	
     fc4:	44 01       	rram.a	#1,	r4	
     fc6:	00 03       	bra	#2		;r3 As==10
     fc8:	02 d8       	bis	r8,	r2	
     fca:	44 17       	popm	#5,	r8	
     fcc:	00 03       	bra	#2		;r3 As==10
     fce:	02 ec       	xor	r12,	r2	
     fd0:	44 16       	popm.a	#5,	r8	
     fd2:	00 03       	bra	#2		;r3 As==10
     fd4:	02 f4       	and	r4,	r2	
     fd6:	44 17       	popm	#5,	r8	
     fd8:	00 03       	bra	#2		;r3 As==10
     fda:	02 fa       	and	r10,	r2	
     fdc:	44 16       	popm.a	#5,	r8	
     fde:	00 03       	bra	#2		;r3 As==10
     fe0:	02 fe       	and	r14,	r2	
     fe2:	44 18       	.word	0x1844;	????	
     fe4:	00 03       	bra	#2		;r3 As==10
     fe6:	02 16       	popm.a	#1,	r2	
     fe8:	45 1d       	.word	0x1d45;	????	
     fea:	00 03       	bra	#2		;r3 As==10
     fec:	02 1e       	.word	0x1e02;	????	
     fee:	45 15       	pushm	#5,	r5	
     ff0:	00 03       	bra	#2		;r3 As==10
     ff2:	02 22       	jnz	$-1018   	;abs 0xbf8
     ff4:	45 15       	pushm	#5,	r5	
     ff6:	00 03       	bra	#2		;r3 As==10
     ff8:	02 26       	jz	$-1018   	;abs 0xbfe
     ffa:	45 03       	rrum.a	#1,	r5	
     ffc:	e0 7e 01 00 	subc.b	@r14,	0x0001	;PC rel. 0x01001
    1000:	03 02       	.word	0x0203;	????	Illegal as address instr
    1002:	28 45       	mov	@r5,	r8	
    1004:	b7 00 03 02 	suba	#0x00203,r7	
    1008:	2c 45       	mov	@r5,	r12	
    100a:	03 ac       	.word	0xac03;	????	Illegal as 2-op instr
    100c:	7e 01 00 03 	mova	r1,	768(r14);0x0300(r14)
    1010:	02 3a       	jl	$-1018   	;abs 0xc16
    1012:	45 eb       	xor.b	r11,	r5	
    1014:	00 03       	bra	#2		;r3 As==10
    1016:	02 54       	add	r4,	r2	
    1018:	45 00       	rrcm.a	#1,	r5	
    101a:	01 01       	mova	@r1,	r1	

Disassembly of section .debug_frame:

00000000 <.debug_frame>:
   0:	0e 00       	mova	@r0,	r14	
   2:	00 00       	bra	@r0		
   4:	ff ff ff ff 	and.b	@r15+,	-1(r15)	;0xffff(r15)
   8:	01 00       	mova	@r0,	r1	
   a:	01 7e       	subc	r14,	r1	
   c:	00 0c       	bra	@r12		
   e:	01 02       	mova	#4,	r1	;r2 As==10
  10:	80 01 ee 00 	bra	#0x100ee	
  14:	00 00       	bra	@r0		
  16:	00 00       	bra	@r0		
  18:	00 00       	bra	@r0		
  1a:	38 31       	jn	$+626    	;abs 0x28c
  1c:	70 02 42 0e 	mova	r2,	0x0e42	;PC rel. 0x00e60
  20:	04 02       	mova	#4,	r4	;r2 As==10
  22:	82 0e 06 44 	mova	#0xe4406,r2	
  26:	0e 08       	mova	@r8,	r14	
  28:	40 2e       	jc	$-894    	;abs 0xfcaa
  2a:	04 46       	mov	r6,	r4	
  2c:	0e 04       	mova	@r4,	r14	
  2e:	42 2e       	jc	$-890    	;abs 0xfcb4
  30:	00 54       	add	r4,	r0	
  32:	0e 06       	mova	@r6,	r14	
  34:	44 0e       	rlam.a	#4,	r4	
  36:	08 40       	mov	r0,	r8	
  38:	2e 04 46 0e 	mova	&0x40e46,r14	
  3c:	04 42       	mov	r2,	r4	
  3e:	2e 00 56 0e 	mova	&0x00e56,r14	
  42:	06 44       	mov	r4,	r6	
  44:	0e 08       	mova	@r8,	r14	
  46:	40 2e       	jc	$-894    	;abs 0xfcc8
  48:	04 46       	mov	r6,	r4	
  4a:	0e 04       	mova	@r4,	r14	
  4c:	42 2e       	jc	$-890    	;abs 0xfcd2
  4e:	00 56       	add	r6,	r0	
  50:	0e 06       	mova	@r6,	r14	
  52:	44 0e       	rlam.a	#4,	r4	
  54:	08 40       	mov	r0,	r8	
  56:	2e 04 46 0e 	mova	&0x40e46,r14	
  5a:	04 42       	mov	r2,	r4	
  5c:	2e 00 56 0e 	mova	&0x00e56,r14	
  60:	06 44       	mov	r4,	r6	
  62:	0e 08       	mova	@r8,	r14	
  64:	40 2e       	jc	$-894    	;abs 0xfce6
  66:	04 46       	mov	r6,	r4	
  68:	0e 04       	mova	@r4,	r14	
  6a:	42 2e       	jc	$-890    	;abs 0xfcf0
  6c:	00 56       	add	r6,	r0	
  6e:	0e 06       	mova	@r6,	r14	
  70:	44 0e       	rlam.a	#4,	r4	
  72:	08 40       	mov	r0,	r8	
  74:	2e 04 46 0e 	mova	&0x40e46,r14	
  78:	04 42       	mov	r2,	r4	
  7a:	2e 00 56 0e 	mova	&0x00e56,r14	
  7e:	06 44       	mov	r4,	r6	
  80:	0e 08       	mova	@r8,	r14	
  82:	40 2e       	jc	$-894    	;abs 0xfd04
  84:	04 46       	mov	r6,	r4	
  86:	0e 04       	mova	@r4,	r14	
  88:	42 2e       	jc	$-890    	;abs 0xfd0e
  8a:	00 56       	add	r6,	r0	
  8c:	0e 06       	mova	@r6,	r14	
  8e:	44 0e       	rlam.a	#4,	r4	
  90:	08 40       	mov	r0,	r8	
  92:	2e 04 46 0e 	mova	&0x40e46,r14	
  96:	04 42       	mov	r2,	r4	
  98:	2e 00 56 0e 	mova	&0x00e56,r14	
  9c:	06 44       	mov	r4,	r6	
  9e:	0e 08       	mova	@r8,	r14	
  a0:	40 2e       	jc	$-894    	;abs 0xfd22
  a2:	04 46       	mov	r6,	r4	
  a4:	0e 04       	mova	@r4,	r14	
  a6:	42 2e       	jc	$-890    	;abs 0xfd2c
  a8:	00 56       	add	r6,	r0	
  aa:	0e 06       	mova	@r6,	r14	
  ac:	44 0e       	rlam.a	#4,	r4	
  ae:	08 40       	mov	r0,	r8	
  b0:	2e 04 46 0e 	mova	&0x40e46,r14	
  b4:	04 42       	mov	r2,	r4	
  b6:	2e 00 56 0e 	mova	&0x00e56,r14	
  ba:	06 44       	mov	r4,	r6	
  bc:	0e 08       	mova	@r8,	r14	
  be:	40 2e       	jc	$-894    	;abs 0xfd40
  c0:	04 46       	mov	r6,	r4	
  c2:	0e 04       	mova	@r4,	r14	
  c4:	42 2e       	jc	$-890    	;abs 0xfd4a
  c6:	00 56       	add	r6,	r0	
  c8:	0e 06       	mova	@r6,	r14	
  ca:	44 0e       	rlam.a	#4,	r4	
  cc:	08 40       	mov	r0,	r8	
  ce:	2e 04 46 0e 	mova	&0x40e46,r14	
  d2:	04 42       	mov	r2,	r4	
  d4:	2e 00 56 0e 	mova	&0x00e56,r14	
  d8:	06 44       	mov	r4,	r6	
  da:	0e 08       	mova	@r8,	r14	
  dc:	40 2e       	jc	$-894    	;abs 0xfd5e
  de:	04 46       	mov	r6,	r4	
  e0:	0e 04       	mova	@r4,	r14	
  e2:	42 2e       	jc	$-890    	;abs 0xfd68
  e4:	00 56       	add	r6,	r0	
  e6:	0e 06       	mova	@r6,	r14	
  e8:	44 0e       	rlam.a	#4,	r4	
  ea:	08 40       	mov	r0,	r8	
  ec:	2e 04 46 0e 	mova	&0x40e46,r14	
  f0:	04 42       	mov	r2,	r4	
  f2:	2e 00 56 0e 	mova	&0x00e56,r14	
  f6:	06 44       	mov	r4,	r6	
  f8:	0e 08       	mova	@r8,	r14	
  fa:	40 2e       	jc	$-894    	;abs 0xfd7c
  fc:	04 46       	mov	r6,	r4	
  fe:	0e 04       	mova	@r4,	r14	
 100:	42 2e       	jc	$-890    	;abs 0xfd86
 102:	00 00       	bra	@r0		
 104:	0e 00       	mova	@r0,	r14	
 106:	00 00       	bra	@r0		
 108:	ff ff ff ff 	and.b	@r15+,	-1(r15)	;0xffff(r15)
 10c:	01 00       	mova	@r0,	r1	
 10e:	01 7e       	subc	r14,	r1	
 110:	00 0c       	bra	@r12		
 112:	01 02       	mova	#4,	r1	;r2 As==10
 114:	80 01 08 00 	bra	#0x10008	
 118:	00 00       	bra	@r0		
 11a:	04 01       	mova	@r1,	r4	
 11c:	00 00       	bra	@r0		
 11e:	42 34       	jge	$+134    	;abs 0x1a4
 120:	02 00       	mova	@r0,	r2	
 122:	08 00       	mova	@r0,	r8	
 124:	00 00       	bra	@r0		
 126:	04 01       	mova	@r1,	r4	
 128:	00 00       	bra	@r0		
 12a:	44 34       	jge	$+138    	;abs 0x1b4
 12c:	02 00       	mova	@r0,	r2	
 12e:	08 00       	mova	@r0,	r8	
 130:	00 00       	bra	@r0		
 132:	04 01       	mova	@r1,	r4	
 134:	00 00       	bra	@r0		
 136:	46 34       	jge	$+142    	;abs 0x1c4
 138:	10 00       	bra	#0x00000	
 13a:	12 00       	mova	#0x00000,r2	
 13c:	00 00       	bra	@r0		
 13e:	04 01       	mova	@r1,	r4	
 140:	00 00       	bra	@r0		
 142:	56 34       	jge	$+174    	;abs 0x1f0
 144:	20 00 42 0e 	bra	&0x00e42	
 148:	04 42       	mov	r2,	r4	
 14a:	0e 06       	mova	@r6,	r14	
 14c:	8a 03 8b 02 	mova	#0x3028b,r10	
 150:	0e 00       	mova	@r0,	r14	
 152:	00 00       	bra	@r0		
 154:	ff ff ff ff 	and.b	@r15+,	-1(r15)	;0xffff(r15)
 158:	01 00       	mova	@r0,	r1	
 15a:	01 7e       	subc	r14,	r1	
 15c:	00 0c       	bra	@r12		
 15e:	01 02       	mova	#4,	r1	;r2 As==10
 160:	80 01 08 00 	bra	#0x10008	
 164:	00 00       	bra	@r0		
 166:	50 01       	rram	#1,	r0	
 168:	00 00       	bra	@r0		
 16a:	76 34       	jge	$+238    	;abs 0x258
 16c:	4a 00       	rrcm.a	#1,	r10	
 16e:	08 00       	mova	@r0,	r8	
 170:	00 00       	bra	@r0		
 172:	50 01       	rram	#1,	r0	
 174:	00 00       	bra	@r0		
 176:	c0 34       	jge	$+386    	;abs 0x2f8
 178:	26 00 08 00 	mova	&0x00008,r6	
 17c:	00 00       	bra	@r0		
 17e:	50 01       	rram	#1,	r0	
 180:	00 00       	bra	@r0		
 182:	e6 34       	jge	$+462    	;abs 0x350
 184:	30 00 08 00 	bra	0x0008		;PC rel. 0x0018e
 188:	00 00       	bra	@r0		
 18a:	50 01       	rram	#1,	r0	
 18c:	00 00       	bra	@r0		
 18e:	16 35       	jge	$+558    	;abs 0x3bc
 190:	38 00 0e 00 	mova	0x000e,	r8	;PC rel. 0x001a0
 194:	00 00       	bra	@r0		
 196:	50 01       	rram	#1,	r0	
 198:	00 00       	bra	@r0		
 19a:	4e 35       	jge	$+670    	;abs 0x438
 19c:	3a 00 42 0e 	mova	0x0e42,	r10	;PC rel. 0x00fe0
 1a0:	04 8b       	sub	r11,	r4	
 1a2:	02 00       	mova	@r0,	r2	
 1a4:	0e 00       	mova	@r0,	r14	
 1a6:	00 00       	bra	@r0		
 1a8:	50 01       	rram	#1,	r0	
 1aa:	00 00       	bra	@r0		
 1ac:	88 35       	jge	$+786    	;abs 0x4be
 1ae:	2e 00 42 0e 	mova	&0x00e42,r14	
 1b2:	04 8b       	sub	r11,	r4	
 1b4:	02 00       	mova	@r0,	r2	
 1b6:	0e 00       	mova	@r0,	r14	
 1b8:	00 00       	bra	@r0		
 1ba:	ff ff ff ff 	and.b	@r15+,	-1(r15)	;0xffff(r15)
 1be:	01 00       	mova	@r0,	r1	
 1c0:	01 7e       	subc	r14,	r1	
 1c2:	00 0c       	bra	@r12		
 1c4:	01 02       	mova	#4,	r1	;r2 As==10
 1c6:	80 01 08 00 	bra	#0x10008	
 1ca:	00 00       	bra	@r0		
 1cc:	b6 01 00 00 	suba	#0x10000,r6	
 1d0:	b6 35       	jge	$+878    	;abs 0x53e
 1d2:	0a 00       	mova	@r0,	r10	
 1d4:	0e 00       	mova	@r0,	r14	
 1d6:	00 00       	bra	@r0		
 1d8:	b6 01 00 00 	suba	#0x10000,r6	
 1dc:	c0 35       	jge	$+898    	;abs 0x55e
 1de:	66 00 42 0e 	mova	r0,	&0x60e42
 1e2:	04 8b       	sub	r11,	r4	
 1e4:	02 00       	mova	@r0,	r2	
 1e6:	0e 00       	mova	@r0,	r14	
 1e8:	00 00       	bra	@r0		
 1ea:	b6 01 00 00 	suba	#0x10000,r6	
 1ee:	26 36       	jge	$-946    	;abs 0xfe3c
 1f0:	18 00       	mova	#0x00000,r8	
 1f2:	42 0e       	rlam.a	#4,	r2	
 1f4:	04 8b       	sub	r11,	r4	
 1f6:	02 00       	mova	@r0,	r2	
 1f8:	12 00       	mova	#0x00000,r2	
 1fa:	00 00       	bra	@r0		
 1fc:	b6 01 00 00 	suba	#0x10000,r6	
 200:	3e 36       	jge	$-898    	;abs 0xfe7e
 202:	26 00 42 0e 	mova	&0x00e42,r6	
 206:	04 42       	mov	r2,	r4	
 208:	0e 06       	mova	@r6,	r14	
 20a:	8a 03 8b 02 	mova	#0x3028b,r10	
 20e:	22 00 00 00 	mova	&0x00000,r2	
 212:	b6 01 00 00 	suba	#0x10000,r6	
 216:	64 36       	jge	$-822    	;abs 0xfee0
 218:	96 00 42 0e 	cmpa	#0x00e42,r6	
 21c:	04 42       	mov	r2,	r4	
 21e:	0e 06       	mova	@r6,	r14	
 220:	42 0e       	rlam.a	#4,	r2	
 222:	08 42       	mov	r2,	r8	
 224:	0e 0a       	mova	@r10,	r14	
 226:	88 05 89 04 	mova	#0x50489,r8	
 22a:	8a 03 8b 02 	mova	#0x3028b,r10	
 22e:	7c 0e 0c 4e 	mova	r14,	19980(r12);0x4e0c(r12)
 232:	0e 0a       	mova	@r10,	r14	
 234:	12 00       	mova	#0x00000,r2	
 236:	00 00       	bra	@r0		
 238:	b6 01 00 00 	suba	#0x10000,r6	
 23c:	fa 36       	jge	$-522    	;abs 0x32
 23e:	14 00       	mova	#0x00000,r4	
 240:	42 0e       	rlam.a	#4,	r2	
 242:	04 4a       	mov	r10,	r4	
 244:	2e 02 46 0e 	mova	&0x20e46,r14	
 248:	02 00       	mova	@r0,	r2	
 24a:	36 00 00 00 	mova	0x0000,	r6	;PC rel. 0x0024c
 24e:	b6 01 00 00 	suba	#0x10000,r6	
 252:	0e 37       	jge	$-482    	;abs 0x70
 254:	6a 01 42 0e 	mova	r1,	&0xa0e42
 258:	04 42       	mov	r2,	r4	
 25a:	0e 06       	mova	@r6,	r14	
 25c:	42 0e       	rlam.a	#4,	r2	
 25e:	08 42       	mov	r2,	r8	
 260:	0e 0a       	mova	@r10,	r14	
 262:	42 0e       	rlam.a	#4,	r2	
 264:	0c 42       	mov	r2,	r12	
 266:	0e 0e       	mova	@r14,	r14	
 268:	42 0e       	rlam.a	#4,	r2	
 26a:	10 85 08 86 	sub	-31224(r5),r0	;0x8608(r5)
 26e:	07 87       	sub	r7,	r7	
 270:	06 88       	sub	r8,	r6	
 272:	05 89       	sub	r9,	r5	
 274:	04 8a       	sub	r10,	r4	
 276:	03 8b       	.word	0x8b03;	????	Illegal as 2-op instr
 278:	02 03       	mova	#2,	r2	;r3 As==10
 27a:	3c 01 0e 12 	mova	4622(r1),r12	;0x120e(r1)
 27e:	4a 2e       	jc	$-874    	;abs 0xff14
 280:	02 46       	mov	r6,	r2	
 282:	0e 10       	rrc	r14		
 284:	46 00       	rrcm.a	#1,	r6	
 286:	00 00       	bra	@r0		
 288:	b6 01 00 00 	suba	#0x10000,r6	
 28c:	78 38       	jl	$+242    	;abs 0x37e
 28e:	a0 01 42 0e 	adda	#0x10e42,r0	
 292:	04 42       	mov	r2,	r4	
 294:	0e 06       	mova	@r6,	r14	
 296:	42 0e       	rlam.a	#4,	r2	
 298:	08 42       	mov	r2,	r8	
 29a:	0e 0a       	mova	@r10,	r14	
 29c:	42 0e       	rlam.a	#4,	r2	
 29e:	0c 42       	mov	r2,	r12	
 2a0:	0e 0e       	mova	@r14,	r14	
 2a2:	42 0e       	rlam.a	#4,	r2	
 2a4:	10 42 0e 12 	br	&0x120e	
 2a8:	44 0e       	rlam.a	#4,	r4	
 2aa:	1c 84 09 85 	sub	-31479(r4),r12	;0x8509(r4)
 2ae:	08 86       	sub	r6,	r8	
 2b0:	07 87       	sub	r7,	r7	
 2b2:	06 88       	sub	r8,	r6	
 2b4:	05 89       	sub	r9,	r5	
 2b6:	04 8a       	sub	r10,	r4	
 2b8:	03 8b       	.word	0x8b03;	????	Illegal as 2-op instr
 2ba:	02 5e       	add	r14,	r2	
 2bc:	0e 1e       	.word	0x1e0e;	????	
 2be:	4a 2e       	jc	$-874    	;abs 0xff54
 2c0:	02 02       	mova	#4,	r2	;r2 As==10
 2c2:	42 0e       	rlam.a	#4,	r2	
 2c4:	1c 02       	mova	#8,	r12	;r2 As==11
 2c6:	62 0e 1e 02 	mova	r14,	&0x2021e
 2ca:	a2 0e 1c 00 	adda	#0xe001c,r2	
 2ce:	1c 00       	mova	#0x00000,r12	
 2d0:	00 00       	bra	@r0		
 2d2:	b6 01 00 00 	suba	#0x10000,r6	
 2d6:	18 3a       	jl	$-974    	;abs 0xff08
 2d8:	68 00 42 0e 	mova	r0,	&0x80e42
 2dc:	04 42       	mov	r2,	r4	
 2de:	0e 06       	mova	@r6,	r14	
 2e0:	42 0e       	rlam.a	#4,	r2	
 2e2:	08 42       	mov	r2,	r8	
 2e4:	0e 0a       	mova	@r10,	r14	
 2e6:	88 05 89 04 	mova	#0x50489,r8	
 2ea:	8a 03 8b 02 	mova	#0x3028b,r10	
 2ee:	34 00 00 00 	mova	0x0000,	r4	;PC rel. 0x002f0
 2f2:	b6 01 00 00 	suba	#0x10000,r6	
 2f6:	80 3a       	jl	$-766    	;abs 0xfff8
 2f8:	ce 00       	mova	r0,	r14	
 2fa:	42 0e       	rlam.a	#4,	r2	
 2fc:	04 42       	mov	r2,	r4	
 2fe:	0e 06       	mova	@r6,	r14	
 300:	42 0e       	rlam.a	#4,	r2	
 302:	08 42       	mov	r2,	r8	
 304:	0e 0a       	mova	@r10,	r14	
 306:	42 0e       	rlam.a	#4,	r2	
 308:	0c 42       	mov	r2,	r12	
 30a:	0e 0e       	mova	@r14,	r14	
 30c:	42 0e       	rlam.a	#4,	r2	
 30e:	10 42 0e 12 	br	&0x120e	
 312:	42 0e       	rlam.a	#4,	r2	
 314:	16 84 09 85 	sub	-31479(r4),r6	;0x8509(r4)
 318:	08 86       	sub	r6,	r8	
 31a:	07 87       	sub	r7,	r7	
 31c:	06 88       	sub	r8,	r6	
 31e:	05 89       	sub	r9,	r5	
 320:	04 8a       	sub	r10,	r4	
 322:	03 8b       	.word	0x8b03;	????	Illegal as 2-op instr
 324:	02 00       	mova	@r0,	r2	
 326:	22 00 00 00 	mova	&0x00000,r2	
 32a:	b6 01 00 00 	suba	#0x10000,r6	
 32e:	4e 3b       	jl	$-354    	;abs 0x1cc
 330:	9a 00 42 0e 	cmpa	#0x00e42,r10	
 334:	04 42       	mov	r2,	r4	
 336:	0e 06       	mova	@r6,	r14	
 338:	42 0e       	rlam.a	#4,	r2	
 33a:	08 42       	mov	r2,	r8	
 33c:	0e 0a       	mova	@r10,	r14	
 33e:	88 05 89 04 	mova	#0x50489,r8	
 342:	8a 03 8b 02 	mova	#0x3028b,r10	
 346:	7c 0e 0c 4e 	mova	r14,	19980(r12);0x4e0c(r12)
 34a:	0e 0a       	mova	@r10,	r14	
 34c:	08 00       	mova	@r0,	r8	
 34e:	00 00       	bra	@r0		
 350:	b6 01 00 00 	suba	#0x10000,r6	
 354:	e8 3b       	jl	$-46     	;abs 0x326
 356:	1a 00       	mova	#0x00000,r10	
 358:	08 00       	mova	@r0,	r8	
 35a:	00 00       	bra	@r0		
 35c:	b6 01 00 00 	suba	#0x10000,r6	
 360:	02 3c       	jmp	$+6      	;abs 0x366
 362:	1a 00       	mova	#0x00000,r10	
 364:	22 00 00 00 	mova	&0x00000,r2	
 368:	b6 01 00 00 	suba	#0x10000,r6	
 36c:	1c 3c       	jmp	$+58     	;abs 0x3a6
 36e:	a2 00 42 0e 	adda	#0x00e42,r2	
 372:	04 42       	mov	r2,	r4	
 374:	0e 06       	mova	@r6,	r14	
 376:	42 0e       	rlam.a	#4,	r2	
 378:	08 42       	mov	r2,	r8	
 37a:	0e 0a       	mova	@r10,	r14	
 37c:	42 0e       	rlam.a	#4,	r2	
 37e:	0c 87       	sub	r7,	r12	
 380:	06 88       	sub	r8,	r6	
 382:	05 89       	sub	r9,	r5	
 384:	04 8a       	sub	r10,	r4	
 386:	03 8b       	.word	0x8b03;	????	Illegal as 2-op instr
 388:	02 00       	mova	@r0,	r2	
 38a:	08 00       	mova	@r0,	r8	
 38c:	00 00       	bra	@r0		
 38e:	b6 01 00 00 	suba	#0x10000,r6	
 392:	be 3c       	jmp	$+382    	;abs 0x510
 394:	66 00 08 00 	mova	r0,	&0x60008
 398:	00 00       	bra	@r0		
 39a:	b6 01 00 00 	suba	#0x10000,r6	
 39e:	24 3d       	jmp	$+586    	;abs 0x5e8
 3a0:	08 00       	mova	@r0,	r8	
 3a2:	36 00 00 00 	mova	0x0000,	r6	;PC rel. 0x003a4
 3a6:	b6 01 00 00 	suba	#0x10000,r6	
 3aa:	2c 3d       	jmp	$+602    	;abs 0x604
 3ac:	8c 00 42 0e 	mova	#0x00e42,r12	
 3b0:	04 42       	mov	r2,	r4	
 3b2:	0e 06       	mova	@r6,	r14	
 3b4:	42 0e       	rlam.a	#4,	r2	
 3b6:	08 42       	mov	r2,	r8	
 3b8:	0e 0a       	mova	@r10,	r14	
 3ba:	42 0e       	rlam.a	#4,	r2	
 3bc:	0c 87       	sub	r7,	r12	
 3be:	06 88       	sub	r8,	r6	
 3c0:	05 89       	sub	r9,	r5	
 3c2:	04 8a       	sub	r10,	r4	
 3c4:	03 8b       	.word	0x8b03;	????	Illegal as 2-op instr
 3c6:	02 66       	addc	r6,	r2	
 3c8:	0e 0e       	mova	@r14,	r14	
 3ca:	4e 0e       	rlam.a	#4,	r14	
 3cc:	0c 54       	add	r4,	r12	
 3ce:	0e 0e       	mova	@r14,	r14	
 3d0:	44 2e       	jc	$-886    	;abs 0x5a
 3d2:	02 46       	mov	r6,	r2	
 3d4:	0e 0c       	mova	@r12,	r14	
 3d6:	44 0e       	rlam.a	#4,	r4	
 3d8:	0e 52       	add	r2,	r14	
 3da:	0e 0c       	mova	@r12,	r14	
 3dc:	12 00       	mova	#0x00000,r2	
 3de:	00 00       	bra	@r0		
 3e0:	b6 01 00 00 	suba	#0x10000,r6	
 3e4:	b8 3d       	jmp	$+882    	;abs 0x756
 3e6:	44 00       	rrcm.a	#1,	r4	
 3e8:	42 0e       	rlam.a	#4,	r2	
 3ea:	04 42       	mov	r2,	r4	
 3ec:	0e 06       	mova	@r6,	r14	
 3ee:	8a 03 8b 02 	mova	#0x3028b,r10	
 3f2:	0e 00       	mova	@r0,	r14	
 3f4:	00 00       	bra	@r0		
 3f6:	ff ff ff ff 	and.b	@r15+,	-1(r15)	;0xffff(r15)
 3fa:	01 00       	mova	@r0,	r1	
 3fc:	01 7e       	subc	r14,	r1	
 3fe:	00 0c       	bra	@r12		
 400:	01 02       	mova	#4,	r1	;r2 As==10
 402:	80 01 08 00 	bra	#0x10008	
 406:	00 00       	bra	@r0		
 408:	f2 03       	decda	r2		
 40a:	00 00       	bra	@r0		
 40c:	7c 40 18 00 	mov.b	#24,	r12	;#0x0018
 410:	08 00       	mova	@r0,	r8	
 412:	00 00       	bra	@r0		
 414:	f2 03       	decda	r2		
 416:	00 00       	bra	@r0		
 418:	94 40 2a 00 	mov	0x002a,	14(r4)	;PC rel. 0x00446, 0x000e(r4)
 41c:	0e 00 
 41e:	00 00       	bra	@r0		
 420:	ff ff ff ff 	and.b	@r15+,	-1(r15)	;0xffff(r15)
 424:	01 00       	mova	@r0,	r1	
 426:	01 7e       	subc	r14,	r1	
 428:	00 0c       	bra	@r12		
 42a:	01 02       	mova	#4,	r1	;r2 As==10
 42c:	80 01 08 00 	bra	#0x10008	
 430:	00 00       	bra	@r0		
 432:	1c 04       	mova	@r4+,	r12	
 434:	00 00       	bra	@r0		
 436:	be 40 12 00 	mov	#18,	8(r14)	;#0x0012, 0x0008(r14)
 43a:	08 00 
 43c:	00 00       	bra	@r0		
 43e:	1c 04       	mova	@r4+,	r12	
 440:	00 00       	bra	@r0		
 442:	d0 40 0e 00 	mov.b	0x000e,	0x000e	;PC rel. 0x00454, PC rel. 0x00456
 446:	0e 00 
 448:	00 00       	bra	@r0		
 44a:	ff ff ff ff 	and.b	@r15+,	-1(r15)	;0xffff(r15)
 44e:	01 00       	mova	@r0,	r1	
 450:	01 7e       	subc	r14,	r1	
 452:	00 0c       	bra	@r12		
 454:	01 02       	mova	#4,	r1	;r2 As==10
 456:	80 01 34 00 	bra	#0x10034	
 45a:	00 00       	bra	@r0		
 45c:	46 04       	rrcm.a	#2,	r6	
 45e:	00 00       	bra	@r0		
 460:	de 40 04 01 	mov.b	0x0104,	3650(r14);PC rel. 0x00568, 0x0e42(r14)
 464:	42 0e 
 466:	04 42       	mov	r2,	r4	
 468:	0e 06       	mova	@r6,	r14	
 46a:	42 0e       	rlam.a	#4,	r2	
 46c:	08 42       	mov	r2,	r8	
 46e:	0e 0a       	mova	@r10,	r14	
 470:	42 0e       	rlam.a	#4,	r2	
 472:	0c 42       	mov	r2,	r12	
 474:	0e 0e       	mova	@r14,	r14	
 476:	42 0e       	rlam.a	#4,	r2	
 478:	10 42 0e 12 	br	&0x120e	
 47c:	42 0e       	rlam.a	#4,	r2	
 47e:	14 84 09 85 	sub	-31479(r4),r4	;0x8509(r4)
 482:	08 86       	sub	r6,	r8	
 484:	07 87       	sub	r7,	r7	
 486:	06 88       	sub	r8,	r6	
 488:	05 89       	sub	r9,	r5	
 48a:	04 8a       	sub	r10,	r4	
 48c:	03 8b       	.word	0x8b03;	????	Illegal as 2-op instr
 48e:	02 00       	mova	@r0,	r2	
 490:	34 00 00 00 	mova	0x0000,	r4	;PC rel. 0x00492
 494:	46 04       	rrcm.a	#2,	r6	
 496:	00 00       	bra	@r0		
 498:	ea 41 6a 03 	mov.b	@r1,	874(r10);0x036a(r10)
 49c:	42 0e       	rlam.a	#4,	r2	
 49e:	04 42       	mov	r2,	r4	
 4a0:	0e 06       	mova	@r6,	r14	
 4a2:	42 0e       	rlam.a	#4,	r2	
 4a4:	08 42       	mov	r2,	r8	
 4a6:	0e 0a       	mova	@r10,	r14	
 4a8:	42 0e       	rlam.a	#4,	r2	
 4aa:	0c 42       	mov	r2,	r12	
 4ac:	0e 0e       	mova	@r14,	r14	
 4ae:	42 0e       	rlam.a	#4,	r2	
 4b0:	10 42 0e 12 	br	&0x120e	
 4b4:	44 0e       	rlam.a	#4,	r4	
 4b6:	34 84       	sub	@r4+,	r4	
 4b8:	09 85       	sub	r5,	r9	
 4ba:	08 86       	sub	r6,	r8	
 4bc:	07 87       	sub	r7,	r7	
 4be:	06 88       	sub	r8,	r6	
 4c0:	05 89       	sub	r9,	r5	
 4c2:	04 8a       	sub	r10,	r4	
 4c4:	03 8b       	.word	0x8b03;	????	Illegal as 2-op instr
 4c6:	02 00       	mova	@r0,	r2	

Disassembly of section .debug_str:

00000000 <.debug_str>:
   0:	6c 6f       	addc.b	@r15,	r12	
   2:	6e 67       	addc.b	@r7,	r14	
   4:	20 6c       	addc	@r12,	r0	
   6:	6f 6e       	addc.b	@r14,	r15	
   8:	67 20       	jnz	$+208    	;abs 0xd8
   a:	69 6e       	addc.b	@r14,	r9	
   c:	74 00 6d 61 	mova	r0,	24941(r4);0x616d(r4)
  10:	69 6e       	addc.b	@r14,	r9	
  12:	2e 63       	addc	#2,	r14	;r3 As==10
  14:	00 44       	br	r4		
  16:	61 74       	subc.b	@r4,	r1	
  18:	61 00 43 3a 	mova	r0,	&0x13a43
  1c:	5c 55 73 65 	add.b	25971(r5),r12	;0x6573(r5)
  20:	72 73       	subc.b	#-1,	r2	;r3 As==11
  22:	5c 66 6c 61 	addc.b	24940(r6),r12	;0x616c(r6)
  26:	76 69       	addc.b	@r9+,	r6	
  28:	6f 68       	addc.b	@r8,	r15	
  2a:	70 6f       	addc.b	@r15+,	r0	
  2c:	5c 44 65 73 	mov.b	29541(r4),r12	;0x7365(r4)
  30:	6b 74       	subc.b	@r4,	r11	
  32:	6f 70       	subc.b	@r0,	r15	
  34:	5c 6d 69 6e 	addc.b	28265(r13),r12	;0x6e69(r13)
  38:	69 71       	subc.b	@r1,	r9	
  3a:	75 61       	addc.b	@r1+,	r5	
  3c:	64 5c       	add.b	@r12,	r4	
  3e:	6d 69       	addc.b	@r9,	r13	
  40:	6e 69       	addc.b	@r9,	r14	
  42:	71 75       	subc.b	@r5+,	r1	
  44:	61 64       	addc.b	@r4,	r1	
  46:	5c 6d 69 6e 	addc.b	28265(r13),r12	;0x6e69(r13)
  4a:	69 71       	subc.b	@r1,	r9	
  4c:	75 61       	addc.b	@r1+,	r5	
  4e:	64 49       	mov.b	@r9,	r4	
  50:	54 47 33 32 	mov.b	12851(r7),r4	;0x3233(r7)
  54:	30 30       	jn	$+98     	;abs 0xb6
  56:	00 4c       	br	r12		
  58:	43 44       	.word	0x4443;	????	Illegal as 2-op instr
  5a:	42 61       	addc.b	r1,	r2	
  5c:	63 6b       	.word	0x6b63;	????	Illegal as 2-op instr
  5e:	43 6f       	.word	0x6f43;	????	Illegal as 2-op instr
  60:	6c 6f       	addc.b	@r15,	r12	
  62:	72 00 6c 6f 	mova	r0,	&0x6f6c	
  66:	6e 67       	addc.b	@r7,	r14	
  68:	20 6c       	addc	@r12,	r0	
  6a:	6f 6e       	addc.b	@r14,	r15	
  6c:	67 20       	jnz	$+208    	;abs 0x13c
  6e:	75 6e       	addc.b	@r14+,	r5	
  70:	73 69       	.word	0x6973;	????	Illegal as 2-op instr
  72:	67 6e       	addc.b	@r14,	r7	
  74:	65 64       	addc.b	@r4,	r5	
  76:	20 69       	addc	@r9,	r0	
  78:	6e 74       	subc.b	@r4,	r14	
  7a:	00 49       	br	r9		
  7c:	54 47 33 32 	mov.b	12851(r7),r4	;0x3233(r7)
  80:	30 30       	jn	$+98     	;abs 0xe2
  82:	5f 49 32 43 	mov.b	17202(r9),r15	;0x4332(r9)
  86:	41 64       	addc.b	r4,	r1	
  88:	64 72       	subc.b	#4,	r4	;r2 As==10
  8a:	65 73       	subc.b	#2,	r5	;r3 As==10
  8c:	73 00       	.word	0x0073;	????	Illegal as address instr
  8e:	47 4e       	mov.b	r14,	r7	
  90:	55 20       	jnz	$+172    	;abs 0x13c
  92:	43 20       	jnz	$+136    	;abs 0x11a
  94:	34 2e       	jc	$-918    	;abs 0xfcfe
  96:	35 2e       	jc	$-916    	;abs 0xfd02
  98:	33 00       	.word	0x0033;	????	Illegal as address instr
  9a:	75 6e       	addc.b	@r14+,	r5	
  9c:	73 69       	.word	0x6973;	????	Illegal as 2-op instr
  9e:	67 6e       	addc.b	@r14,	r7	
  a0:	65 64       	addc.b	@r4,	r5	
  a2:	20 63       	addc	#2,	r0	;r3 As==10
  a4:	68 61       	addc.b	@r1,	r8	
  a6:	72 00 6d 61 	mova	r0,	&0x616d	
  aa:	69 6e       	addc.b	@r14,	r9	
  ac:	00 45       	br	r5		
  ae:	45 50       	add.b	r0,	r5	
  b0:	52 4f 4d 5f 	mov.b	24397(r15),r2	;0x5f4d(r15)
  b4:	49 32       	jn	$-876    	;abs 0xfd48
  b6:	43 41       	.word	0x4143;	????	Illegal as 2-op instr
  b8:	64 64       	addc.b	@r4,	r4	
  ba:	72 65       	addc.b	@r5+,	r2	
  bc:	73 73       	.word	0x7373;	????	Illegal as 2-op instr
  be:	00 2a       	jnc	$-1022   	;abs 0xfcc0
  c0:	5f 5f 55 43 	add.b	17237(r15),r15	;0x4355(r15)
  c4:	42 30       	jn	$+134    	;abs 0x14a
  c6:	53 54       	.word	0x5453;	????	Illegal as 2-op instr
  c8:	41 54       	add.b	r4,	r1	
  ca:	00 73       	sbc	r0		
  cc:	68 6f       	addc.b	@r15,	r8	
  ce:	72 74       	subc.b	@r4+,	r2	
  d0:	20 75       	subc	@r5,	r0	
  d2:	6e 73       	subc.b	#2,	r14	;r3 As==10
  d4:	69 67       	addc.b	@r7,	r9	
  d6:	6e 65       	addc.b	@r5,	r14	
  d8:	64 20       	jnz	$+202    	;abs 0x1a2
  da:	69 6e       	addc.b	@r14,	r9	
  dc:	74 00 74 65 	mova	r0,	25972(r4);0x6574(r4)
  e0:	6d 70       	subc.b	@r0,	r13	
  e2:	6f 00 64 65 	mova	r0,	&0xf6564
  e6:	6c 61       	addc.b	@r1,	r12	
  e8:	79 6d       	addc.b	@r13+,	r9	
  ea:	73 00       	.word	0x0073;	????	Illegal as address instr
  ec:	64 65       	addc.b	@r5,	r4	
  ee:	6c 61       	addc.b	@r1,	r12	
  f0:	79 35       	jge	$+756    	;abs 0x3e4
  f2:	75 73       	subc.b	#-1,	r5	;r3 As==11
  f4:	00 64       	addc	r4,	r0	
  f6:	65 6c       	addc.b	@r12,	r5	
  f8:	61 79       	subc.b	@r9,	r1	
  fa:	75 73       	subc.b	#-1,	r5	;r3 As==11
  fc:	00 64       	addc	r4,	r0	
  fe:	65 6c       	addc.b	@r12,	r5	
 100:	61 79       	subc.b	@r9,	r1	
 102:	2e 63       	addc	#2,	r14	;r3 As==10
 104:	00 64       	addc	r4,	r0	
 106:	65 6c       	addc.b	@r12,	r5	
 108:	61 79       	subc.b	@r9,	r1	
 10a:	32 75       	subc	@r5+,	r2	
 10c:	73 00       	.word	0x0073;	????	Illegal as address instr
 10e:	2a 5f       	add	@r15,	r10	
 110:	5f 55 43 42 	add.b	16963(r5),r15	;0x4243(r5)
 114:	30 54       	add	@r4+,	r0	
 116:	58 42 55 46 	mov.b	&0x4655,r8	
 11a:	00 49       	br	r9		
 11c:	32 43       	mov	#-1,	r2	;r3 As==11
 11e:	5f 53       	inc.b	r15		
 120:	54 41 54 5f 	mov.b	24404(r1),r4	;0x5f54(r1)
 124:	42 55       	add.b	r5,	r2	
 126:	53 59       	.word	0x5953;	????	Illegal as 2-op instr
 128:	00 69       	addc	r9,	r0	
 12a:	32 63       	addc	#-1,	r2	;r3 As==11
 12c:	5f 66 69 6e 	addc.b	28265(r6),r15	;0x6e69(r6)
 130:	64 5f       	add.b	@r15,	r4	
 132:	61 64       	addc.b	@r4,	r1	
 134:	64 72       	subc.b	#4,	r4	;r2 As==10
 136:	65 73       	subc.b	#2,	r5	;r3 As==10
 138:	73 00       	.word	0x0073;	????	Illegal as address instr
 13a:	2a 5f       	add	@r15,	r10	
 13c:	5f 50 33 53 	add.b	0x5333,	r15	;PC rel. 0x05473
 140:	45 4c       	mov.b	r12,	r5	
 142:	00 49       	br	r9		
 144:	32 43       	mov	#-1,	r2	;r3 As==11
 146:	5f 53       	inc.b	r15		
 148:	54 41 54 5f 	mov.b	24404(r1),r4	;0x5f54(r1)
 14c:	41 43       	clr.b	r1		
 14e:	4b 00       	rrcm.a	#1,	r11	
 150:	53 65       	.word	0x6553;	????	Illegal as 2-op instr
 152:	6e 64       	addc.b	@r4,	r14	
 154:	4e 61       	addc.b	r1,	r14	
 156:	63 6b       	.word	0x6b63;	????	Illegal as 2-op instr
 158:	00 69       	addc	r9,	r0	
 15a:	32 63       	addc	#-1,	r2	;r3 As==11
 15c:	5f 77 72 69 	subc.b	26994(r7),r15	;0x6972(r7)
 160:	74 65       	addc.b	@r5+,	r4	
 162:	5f 72 65 67 	subc.b	&0x6765,r15	
 166:	69 73       	subc.b	#2,	r9	;r3 As==10
 168:	74 65       	addc.b	@r5+,	r4	
 16a:	72 00 53 65 	mova	r0,	&0x6553	
 16e:	6e 64       	addc.b	@r4,	r14	
 170:	53 74       	.word	0x7453;	????	Illegal as 2-op instr
 172:	6f 70       	subc.b	@r0,	r15	
 174:	00 69       	addc	r9,	r0	
 176:	32 63       	addc	#-1,	r2	;r3 As==11
 178:	5f 72 65 61 	subc.b	&0x6165,r15	
 17c:	64 5f       	add.b	@r15,	r4	
 17e:	72 65       	addc.b	@r5+,	r2	
 180:	67 69       	addc.b	@r9,	r7	
 182:	73 74       	.word	0x7473;	????	Illegal as 2-op instr
 184:	65 72       	subc.b	#4,	r5	;r2 As==10
 186:	00 49       	br	r9		
 188:	32 43       	mov	#-1,	r2	;r3 As==11
 18a:	5f 53       	inc.b	r15		
 18c:	54 41 54 5f 	mov.b	24404(r1),r4	;0x5f54(r1)
 190:	57 52 49 54 	add.b	&0x5449,r7	
 194:	45 5f       	add.b	r15,	r5	
 196:	54 49 4d 45 	mov.b	17741(r9),r4	;0x454d(r9)
 19a:	4f 55       	add.b	r5,	r15	
 19c:	54 00       	rrcm	#1,	r4	
 19e:	49 32       	jn	$-876    	;abs 0xfe32
 1a0:	43 5f       	.word	0x5f43;	????	Illegal as 2-op instr
 1a2:	53 54       	.word	0x5453;	????	Illegal as 2-op instr
 1a4:	41 54       	add.b	r4,	r1	
 1a6:	5f 52 45 41 	add.b	&0x4145,r15	
 1aa:	44 5f       	add.b	r15,	r4	
 1ac:	54 49 4d 45 	mov.b	17741(r9),r4	;0x454d(r9)
 1b0:	4f 55       	add.b	r5,	r15	
 1b2:	54 00       	rrcm	#1,	r4	
 1b4:	69 32       	jn	$-812    	;abs 0xfe88
 1b6:	63 5f       	.word	0x5f63;	????	Illegal as 2-op instr
 1b8:	72 65       	addc.b	@r5+,	r2	
 1ba:	61 64       	addc.b	@r4,	r1	
 1bc:	5f 62 79 74 	addc.b	&0x7479,r15	
 1c0:	65 00 2a 5f 	mova	r0,	&0x55f2a
 1c4:	5f 55 43 42 	add.b	16963(r5),r15	;0x4243(r5)
 1c8:	30 43       	br	#-1		;r3 As==11
 1ca:	54 4c 30 00 	mov.b	48(r12),r4	;0x0030(r12)
 1ce:	53 6c       	.word	0x6c53;	????	Illegal as 2-op instr
 1d0:	61 76       	subc.b	@r6,	r1	
 1d2:	65 41       	mov.b	@r1,	r5	
 1d4:	64 64       	addc.b	@r4,	r4	
 1d6:	72 65       	addc.b	@r5+,	r2	
 1d8:	73 73       	.word	0x7373;	????	Illegal as 2-op instr
 1da:	00 49       	br	r9		
 1dc:	32 43       	mov	#-1,	r2	;r3 As==11
 1de:	5f 53       	inc.b	r15		
 1e0:	54 41 54 5f 	mov.b	24404(r1),r4	;0x5f54(r1)
 1e4:	44 41       	mov.b	r1,	r4	
 1e6:	54 41 5f 4e 	mov.b	20063(r1),r4	;0x4e5f(r1)
 1ea:	41 43       	clr.b	r1		
 1ec:	4b 00       	rrcm.a	#1,	r11	
 1ee:	69 32       	jn	$-812    	;abs 0xfec2
 1f0:	63 2e       	jc	$-824    	;abs 0xfeb8
 1f2:	63 00 69 32 	mova	r0,	&0x33269
 1f6:	63 5f       	.word	0x5f63;	????	Illegal as 2-op instr
 1f8:	77 72       	subc.b	#8,	r7	;r2 As==11
 1fa:	69 74       	subc.b	@r4,	r9	
 1fc:	65 5f       	add.b	@r15,	r5	
 1fe:	62 79       	subc.b	@r9,	r2	
 200:	74 65       	addc.b	@r5+,	r4	
 202:	00 2a       	jnc	$-1022   	;abs 0xfe04
 204:	5f 5f 55 43 	add.b	17237(r15),r15	;0x4355(r15)
 208:	42 30       	jn	$+134    	;abs 0x28e
 20a:	42 52       	rla.b	r2		
 20c:	31 00 49 32 	mova	0x3249,	r1	;PC rel. 0x03457
 210:	43 5f       	.word	0x5f43;	????	Illegal as 2-op instr
 212:	53 54       	.word	0x5453;	????	Illegal as 2-op instr
 214:	41 54       	add.b	r4,	r1	
 216:	5f 46 4f 55 	mov.b	21839(r6),r15	;0x554f(r6)
 21a:	4e 44       	mov.b	r4,	r14	
 21c:	00 49       	br	r9		
 21e:	32 43       	mov	#-1,	r2	;r3 As==11
 220:	5f 53       	inc.b	r15		
 222:	54 41 54 5f 	mov.b	24404(r1),r4	;0x5f54(r1)
 226:	44 41       	mov.b	r1,	r4	
 228:	54 41 5f 52 	mov.b	21087(r1),r4	;0x525f(r1)
 22c:	45 41       	mov.b	r1,	r5	
 22e:	44 59       	add.b	r9,	r4	
 230:	00 52       	add	r2,	r0	
 232:	65 73       	subc.b	#2,	r5	;r3 As==10
 234:	75 6c       	addc.b	@r12+,	r5	
 236:	74 00 69 32 	mova	r0,	12905(r4);0x3269(r4)
 23a:	63 5f       	.word	0x5f63;	????	Illegal as 2-op instr
 23c:	69 6e       	addc.b	@r14,	r9	
 23e:	69 74       	subc.b	@r4,	r9	
 240:	5f 6d 6f 64 	addc.b	25711(r13),r15	;0x646f(r13)
 244:	75 6c       	addc.b	@r12+,	r5	
 246:	65 00 49 32 	mova	r0,	&0x53249
 24a:	43 5f       	.word	0x5f43;	????	Illegal as 2-op instr
 24c:	53 54       	.word	0x5453;	????	Illegal as 2-op instr
 24e:	41 54       	add.b	r4,	r1	
 250:	5f 46 41 49 	mov.b	18753(r6),r15	;0x4941(r6)
 254:	4c 00       	rrcm.a	#1,	r12	
 256:	49 32       	jn	$-876    	;abs 0xfeea
 258:	43 5f       	.word	0x5f43;	????	Illegal as 2-op instr
 25a:	53 54       	.word	0x5453;	????	Illegal as 2-op instr
 25c:	41 54       	add.b	r4,	r1	
 25e:	5f 44 4f 4e 	mov.b	20047(r4),r15	;0x4e4f(r4)
 262:	45 00       	rrcm.a	#1,	r5	
 264:	49 32       	jn	$-876    	;abs 0xfef8
 266:	43 5f       	.word	0x5f43;	????	Illegal as 2-op instr
 268:	53 54       	.word	0x5453;	????	Illegal as 2-op instr
 26a:	41 54       	add.b	r4,	r1	
 26c:	55 53       	inc.b	r5		
 26e:	00 2a       	jnc	$-1022   	;abs 0xfe70
 270:	5f 5f 55 43 	add.b	17237(r15),r15	;0x4355(r15)
 274:	42 30       	jn	$+134    	;abs 0x2fa
 276:	43 54       	.word	0x5443;	????	Illegal as 2-op instr
 278:	4c 31       	jn	$+666    	;abs 0x512
 27a:	00 2a       	jnc	$-1022   	;abs 0xfe7c
 27c:	5f 5f 55 43 	add.b	17237(r15),r15	;0x4355(r15)
 280:	42 30       	jn	$+134    	;abs 0x306
 282:	49 32       	jn	$-876    	;abs 0xff16
 284:	43 53       	.word	0x5343;	????	Illegal as emulation instr
 286:	41 00       	rrcm.a	#1,	r1	
 288:	2a 5f       	add	@r15,	r10	
 28a:	5f 55 43 42 	add.b	16963(r5),r15	;0x4243(r5)
 28e:	30 52       	add	#8,	r0	;r2 As==11
 290:	58 42 55 46 	mov.b	&0x4655,r8	
 294:	00 49       	br	r9		
 296:	32 43       	mov	#-1,	r2	;r3 As==11
 298:	5f 53       	inc.b	r15		
 29a:	54 41 54 5f 	mov.b	24404(r1),r4	;0x5f54(r1)
 29e:	4e 4f       	mov.b	r15,	r14	
 2a0:	4e 45       	mov.b	r5,	r14	
 2a2:	00 49       	br	r9		
 2a4:	32 43       	mov	#-1,	r2	;r3 As==11
 2a6:	5f 53       	inc.b	r15		
 2a8:	54 41 54 5f 	mov.b	24404(r1),r4	;0x5f54(r1)
 2ac:	41 44       	mov.b	r4,	r1	
 2ae:	44 52       	add.b	r2,	r4	
 2b0:	5f 4e 41 43 	mov.b	17217(r14),r15	;0x4341(r14)
 2b4:	4b 00       	rrcm.a	#1,	r11	
 2b6:	49 32       	jn	$-876    	;abs 0xff4a
 2b8:	43 5f       	.word	0x5f43;	????	Illegal as 2-op instr
 2ba:	53 54       	.word	0x5453;	????	Illegal as 2-op instr
 2bc:	41 54       	add.b	r4,	r1	
 2be:	5f 49 44 4c 	mov.b	19524(r9),r15	;0x4c44(r9)
 2c2:	45 00       	rrcm.a	#1,	r5	
 2c4:	2a 5f       	add	@r15,	r10	
 2c6:	5f 49 46 47 	mov.b	18246(r9),r15	;0x4746(r9)
 2ca:	32 00 52 65 	mova	0x6552,	r2	;PC rel. 0x0681e
 2ce:	67 69       	addc.b	@r9,	r7	
 2d0:	73 74       	.word	0x7473;	????	Illegal as 2-op instr
 2d2:	65 72       	subc.b	#4,	r5	;r2 As==10
 2d4:	00 49       	br	r9		
 2d6:	32 43       	mov	#-1,	r2	;r3 As==11
 2d8:	5f 53       	inc.b	r15		
 2da:	54 41 54 5f 	mov.b	24404(r1),r4	;0x5f54(r1)
 2de:	4e 4f       	mov.b	r15,	r14	
 2e0:	54 5f 46 4f 	add.b	20294(r15),r4	;0x4f46(r15)
 2e4:	55 4e 44 00 	mov.b	68(r14),r5	;0x0044(r14)
 2e8:	2a 5f       	add	@r15,	r10	
 2ea:	5f 55 43 42 	add.b	16963(r5),r15	;0x4243(r5)
 2ee:	30 42       	br	#8		;r2 As==11
 2f0:	52 30       	jn	$+166    	;abs 0x396
 2f2:	00 63       	adc	r0		
 2f4:	6f 6d       	addc.b	@r13,	r15	
 2f6:	6d 00 6c 63 	mova	r0,	&0xd636c
 2fa:	64 5f       	add.b	@r15,	r4	
 2fc:	6e 65       	addc.b	@r5,	r14	
 2fe:	77 6c       	addc.b	@r12+,	r7	
 300:	69 6e       	addc.b	@r14,	r9	
 302:	65 00 62 61 	mova	r0,	&0x56162
 306:	63 6b       	.word	0x6b63;	????	Illegal as 2-op instr
 308:	67 72       	subc.b	#4,	r7	;r2 As==10
 30a:	6f 75       	subc.b	@r5,	r15	
 30c:	6e 64       	addc.b	@r4,	r14	
 30e:	5f 63       	addc.b	#1,	r15	;r3 As==01
 310:	6f 6c       	addc.b	@r12,	r15	
 312:	6f 72       	subc.b	#4,	r15	;r2 As==10
 314:	00 4c       	br	r12		
 316:	43 44       	.word	0x4443;	????	Illegal as 2-op instr
 318:	4c 69       	addc.b	r9,	r12	
 31a:	6e 65       	addc.b	@r5,	r14	
 31c:	43 6f       	.word	0x6f43;	????	Illegal as 2-op instr
 31e:	75 6e       	addc.b	@r14+,	r5	
 320:	74 00 73 74 	mova	r0,	29811(r4);0x7473(r4)
 324:	65 70       	subc.b	@r0,	r5	
 326:	78 00 6e 36 	mova	r0,	13934(r8);0x366e(r8)
 32a:	31 30       	jn	$+100    	;abs 0x38e
 32c:	30 5f       	add	@r15+,	r0	
 32e:	73 65       	.word	0x6573;	????	Illegal as 2-op instr
 330:	6e 64       	addc.b	@r4,	r14	
 332:	00 6c       	addc	r12,	r0	
 334:	63 64       	.word	0x6463;	????	Illegal as 2-op instr
 336:	5f 64 72 61 	addc.b	24946(r4),r15	;0x6172(r4)
 33a:	77 70 6f 69 	subc.b	#26991,	r7	;#0x696f
 33e:	6e 74       	subc.b	@r4,	r14	
 340:	00 6c       	addc	r12,	r0	
 342:	63 64       	.word	0x6463;	????	Illegal as 2-op instr
 344:	36 31       	jn	$+622    	;abs 0x5b2
 346:	30 30       	jn	$+98     	;abs 0x3a8
 348:	2e 63       	addc	#2,	r14	;r3 As==10
 34a:	00 2a       	jnc	$-1022   	;abs 0xff4c
 34c:	5f 5f 50 35 	add.b	13648(r15),r15	;0x3550(r15)
 350:	4f 55       	add.b	r5,	r15	
 352:	54 00       	rrcm	#1,	r4	
 354:	6c 63       	addc.b	#2,	r12	;r3 As==10
 356:	64 5f       	add.b	@r15,	r4	
 358:	77 72       	subc.b	#8,	r7	;r2 As==11
 35a:	63 68       	.word	0x6863;	????	Illegal as 2-op instr
 35c:	61 72       	subc.b	#4,	r1	;r2 As==10
 35e:	00 6c       	addc	r12,	r0	
 360:	63 64       	.word	0x6463;	????	Illegal as 2-op instr
 362:	5f 69 6e 69 	addc.b	26990(r9),r15	;0x696e(r9)
 366:	74 00 66 72 	mova	r0,	29286(r4);0x7266(r4)
 36a:	61 63       	addc.b	#2,	r1	;r3 As==10
 36c:	74 69       	addc.b	@r9+,	r4	
 36e:	6f 6e       	addc.b	@r14,	r15	
 370:	00 77       	subc	r7,	r0	
 372:	69 64       	addc.b	@r4,	r9	
 374:	74 68       	addc.b	@r8+,	r4	
 376:	00 63       	adc	r0		
 378:	6f 6c       	addc.b	@r12,	r15	
 37a:	6f 72       	subc.b	#4,	r15	;r2 As==10
 37c:	70 72       	subc.b	#8,	r0	;r2 As==11
 37e:	6f 67       	addc.b	@r7,	r15	
 380:	72 65       	addc.b	@r5+,	r2	
 382:	73 73       	.word	0x7373;	????	Illegal as 2-op instr
 384:	00 6c       	addc	r12,	r0	
 386:	78 5f       	add.b	@r15+,	r8	
 388:	70 72       	subc.b	#8,	r0	;r2 As==11
 38a:	6f 67       	addc.b	@r7,	r15	
 38c:	72 65       	addc.b	@r5+,	r2	
 38e:	73 73       	.word	0x7373;	????	Illegal as 2-op instr
 390:	00 61       	addc	r1,	r0	
 392:	64 64       	addc.b	@r4,	r4	
 394:	72 00 6c 63 	mova	r0,	&0x636c	
 398:	64 5f       	add.b	@r15,	r4	
 39a:	67 6f       	addc.b	@r15,	r7	
 39c:	74 6f       	addc.b	@r15+,	r4	
 39e:	00 6c       	addc	r12,	r0	
 3a0:	63 64       	.word	0x6463;	????	Illegal as 2-op instr
 3a2:	5f 70 75 74 	subc.b	0x7475,	r15	;PC rel. 0x0781b
 3a6:	64 6f       	addc.b	@r15,	r4	
 3a8:	74 00 6e 36 	mova	r0,	13934(r4);0x366e(r4)
 3ac:	31 30       	jn	$+100    	;abs 0x410
 3ae:	30 5f       	add	@r15+,	r0	
 3b0:	73 65       	.word	0x6573;	????	Illegal as 2-op instr
 3b2:	6e 64       	addc.b	@r4,	r14	
 3b4:	63 6f       	.word	0x6f63;	????	Illegal as 2-op instr
 3b6:	6d 31       	jn	$+732    	;abs 0x692
 3b8:	00 6e       	addc	r14,	r0	
 3ba:	36 31       	jn	$+622    	;abs 0x628
 3bc:	30 30       	jn	$+98     	;abs 0x41e
 3be:	5f 73       	subc.b	#1,	r15	;r3 As==01
 3c0:	65 6e       	addc.b	@r14,	r5	
 3c2:	64 63       	addc.b	#2,	r4	;r3 As==10
 3c4:	6f 6d       	addc.b	@r13,	r15	
 3c6:	32 00 72 61 	mova	0x6172,	r2	;PC rel. 0x0653a
 3ca:	64 69       	addc.b	@r9,	r4	
 3cc:	75 73       	subc.b	#-1,	r5	;r3 As==11
 3ce:	00 64       	addc	r4,	r0	
 3d0:	61 74       	subc.b	@r4,	r1	
 3d2:	31 00 6c 63 	mova	0x636c,	r1	;PC rel. 0x06740
 3d6:	64 5f       	add.b	@r15,	r4	
 3d8:	73 65       	.word	0x6573;	????	Illegal as 2-op instr
 3da:	74 63       	addc.b	#-1,	r4	;r3 As==11
 3dc:	6f 6c       	addc.b	@r12,	r15	
 3de:	6f 72       	subc.b	#4,	r15	;r2 As==10
 3e0:	00 73       	sbc	r0		
 3e2:	74 65       	addc.b	@r5+,	r4	
 3e4:	70 79       	subc.b	@r9+,	r0	
 3e6:	00 6c       	addc	r12,	r0	
 3e8:	63 64       	.word	0x6463;	????	Illegal as 2-op instr
 3ea:	5f 64 72 61 	addc.b	24946(r4),r15	;0x6172(r4)
 3ee:	77 63       	addc.b	#-1,	r7	;r3 As==11
 3f0:	69 72       	subc.b	#4,	r9	;r2 As==10
 3f2:	63 6c       	.word	0x6c63;	????	Illegal as 2-op instr
 3f4:	65 00 6c 63 	mova	r0,	&0x5636c
 3f8:	64 5f       	add.b	@r15,	r4	
 3fa:	63 6c       	.word	0x6c63;	????	Illegal as 2-op instr
 3fc:	65 61       	addc.b	@r1,	r5	
 3fe:	72 00 64 61 	mova	r0,	&0x6164	
 402:	74 61       	addc.b	@r1+,	r4	
 404:	00 66       	addc	r6,	r0	
 406:	6f 72       	subc.b	#4,	r15	;r2 As==10
 408:	65 67       	addc.b	@r7,	r5	
 40a:	72 6f       	addc.b	@r15+,	r2	
 40c:	75 6e       	addc.b	@r14+,	r5	
 40e:	64 5f       	add.b	@r15,	r4	
 410:	63 6f       	.word	0x6f63;	????	Illegal as 2-op instr
 412:	6c 6f       	addc.b	@r15,	r12	
 414:	72 00 6c 63 	mova	r0,	&0x636c	
 418:	64 5f       	add.b	@r15,	r4	
 41a:	64 72       	subc.b	#4,	r4	;r2 As==10
 41c:	61 77       	subc.b	@r7,	r1	
 41e:	70 72       	subc.b	#8,	r0	;r2 As==11
 420:	6f 67       	addc.b	@r7,	r15	
 422:	72 65       	addc.b	@r5+,	r2	
 424:	73 73       	.word	0x7373;	????	Illegal as 2-op instr
 426:	62 61       	addc.b	@r1,	r2	
 428:	72 00 64 64 	mova	r0,	&0x6464	
 42c:	46 5f       	add.b	r15,	r6	
 42e:	78 00 64 64 	mova	r0,	25700(r8);0x6464(r8)
 432:	46 5f       	add.b	r15,	r6	
 434:	79 00 64 61 	mova	r0,	24932(r9);0x6164(r9)
 438:	74 32       	jn	$-790    	;abs 0x122
 43a:	00 4c       	br	r12		
 43c:	43 44       	.word	0x4443;	????	Illegal as 2-op instr
 43e:	43 68       	.word	0x6843;	????	Illegal as 2-op instr
 440:	61 72       	subc.b	#4,	r1	;r2 As==10
 442:	43 6f       	.word	0x6f43;	????	Illegal as 2-op instr
 444:	75 6e       	addc.b	@r14+,	r5	
 446:	74 00 6d 61 	mova	r0,	24941(r4);0x616d(r4)
 44a:	73 6b       	.word	0x6b73;	????	Illegal as 2-op instr
 44c:	00 6c       	addc	r12,	r0	
 44e:	63 64       	.word	0x6463;	????	Illegal as 2-op instr
 450:	5f 70 75 74 	subc.b	0x7475,	r15	;PC rel. 0x078c9
 454:	63 68       	.word	0x6863;	????	Illegal as 2-op instr
 456:	61 72       	subc.b	#4,	r1	;r2 As==10
 458:	00 70       	subc	r0,	r0	
 45a:	65 72       	subc.b	#4,	r5	;r2 As==10
 45c:	63 65       	.word	0x6563;	????	Illegal as 2-op instr
 45e:	6e 74       	subc.b	@r4,	r14	
 460:	00 2a       	jnc	$-1022   	;abs 0x62
 462:	5f 5f 50 35 	add.b	13648(r15),r15	;0x3550(r15)
 466:	44 49       	mov.b	r9,	r4	
 468:	52 00       	rrcm	#1,	r2	
 46a:	6c 63       	addc.b	#2,	r12	;r3 As==10
 46c:	64 5f       	add.b	@r15,	r4	
 46e:	64 72       	subc.b	#4,	r4	;r2 As==10
 470:	61 77       	subc.b	@r7,	r1	
 472:	6c 69       	addc.b	@r9,	r12	
 474:	6e 65       	addc.b	@r5,	r14	
 476:	00 6c       	addc	r12,	r0	
 478:	63 64       	.word	0x6463;	????	Illegal as 2-op instr
 47a:	5f 66 69 6c 	addc.b	27753(r6),r15	;0x6c69(r6)
 47e:	6c 72       	subc.b	#4,	r12	;r2 As==10
 480:	65 63       	addc.b	#2,	r5	;r3 As==10
 482:	74 00 4c 43 	mova	r0,	17228(r4);0x434c(r4)
 486:	44 46       	mov.b	r6,	r4	
 488:	6f 72       	subc.b	#4,	r15	;r2 As==10
 48a:	65 43       	mov.b	#2,	r5	;r3 As==10
 48c:	6f 6c       	addc.b	@r12,	r15	
 48e:	6f 72       	subc.b	#4,	r15	;r2 As==10
 490:	00 6c       	addc	r12,	r0	
 492:	63 64       	.word	0x6463;	????	Illegal as 2-op instr
 494:	5f 70 75 74 	subc.b	0x7475,	r15	;PC rel. 0x0790d
 498:	6c 6f       	addc.b	@r15,	r12	
 49a:	67 6f       	addc.b	@r15,	r7	
 49c:	00 61       	addc	r1,	r0	
 49e:	73 63       	.word	0x6373;	????	Illegal as 2-op instr
 4a0:	69 69       	addc.b	@r9,	r9	
 4a2:	74 61       	addc.b	@r1+,	r4	
 4a4:	62 6c       	addc.b	@r12,	r2	
 4a6:	65 00 66 72 	mova	r0,	&0x57266
 4aa:	6f 6d       	addc.b	@r13,	r15	
 4ac:	00 2a       	jnc	$-1022   	;abs 0xae
 4ae:	5f 5f 50 32 	add.b	12880(r15),r15	;0x3250(r15)
 4b2:	4f 55       	add.b	r5,	r15	
 4b4:	54 00       	rrcm	#1,	r4	
 4b6:	2a 5f       	add	@r15,	r10	
 4b8:	5f 44 43 4f 	mov.b	20291(r4),r15	;0x4f43(r4)
 4bc:	43 54       	.word	0x5443;	????	Illegal as 2-op instr
 4be:	4c 00       	rrcm.a	#1,	r12	
 4c0:	2a 5f       	add	@r15,	r10	
 4c2:	5f 42 43 53 	mov.b	&0x5343,r15	
 4c6:	43 54       	.word	0x5443;	????	Illegal as 2-op instr
 4c8:	4c 31       	jn	$+666    	;abs 0x762
 4ca:	00 2a       	jnc	$-1022   	;abs 0xcc
 4cc:	5f 5f 42 43 	add.b	17218(r15),r15	;0x4342(r15)
 4d0:	53 43       	.word	0x4353;	????	Illegal as 2-op instr
 4d2:	54 4c 32 00 	mov.b	50(r12),r4	;0x0032(r12)
 4d6:	2a 5f       	add	@r15,	r10	
 4d8:	5f 42 43 53 	mov.b	&0x5343,r15	
 4dc:	43 54       	.word	0x5443;	????	Illegal as 2-op instr
 4de:	4c 33       	jn	$-358    	;abs 0x378
 4e0:	00 2a       	jnc	$-1022   	;abs 0xe2
 4e2:	5f 5f 57 44 	add.b	17495(r15),r15	;0x4457(r15)
 4e6:	54 43       	mov.b	#1,	r4	;r3 As==01
 4e8:	54 4c 00 2a 	mov.b	10752(r12),r4	;0x2a00(r12)
 4ec:	5f 5f 50 32 	add.b	12880(r15),r15	;0x3250(r15)
 4f0:	44 49       	mov.b	r9,	r4	
 4f2:	52 00       	rrcm	#1,	r2	
 4f4:	68 61       	addc.b	@r1,	r8	
 4f6:	72 64       	addc.b	@r4+,	r2	
 4f8:	77 61       	addc.b	@r1+,	r7	
 4fa:	72 65       	addc.b	@r5+,	r2	
 4fc:	5f 73       	subc.b	#1,	r15	;r3 As==01
 4fe:	65 74       	subc.b	@r4,	r5	
 500:	75 70 00 68 	subc.b	#26624,	r5	;#0x6800
 504:	61 72       	subc.b	#4,	r1	;r2 As==10
 506:	64 77       	subc.b	@r7,	r4	
 508:	61 72       	subc.b	#4,	r1	;r2 As==10
 50a:	65 5f       	add.b	@r15,	r5	
 50c:	63 6f       	.word	0x6f63;	????	Illegal as 2-op instr
 50e:	6e 66       	addc.b	@r6,	r14	
 510:	69 67       	addc.b	@r7,	r9	
 512:	2e 63       	addc	#2,	r14	;r3 As==10
 514:	00 63       	adc	r0		
 516:	6c 6f       	addc.b	@r15,	r12	
 518:	63 6b       	.word	0x6b63;	????	Illegal as 2-op instr
 51a:	5f 69 6e 69 	addc.b	26990(r9),r15	;0x696e(r9)
 51e:	74 00 5f 5f 	mova	r0,	24415(r4);0x5f5f(r4)
 522:	62 75       	subc.b	@r5,	r2	
 524:	69 6c       	addc.b	@r12,	r9	
 526:	74 69       	addc.b	@r9+,	r4	
 528:	6e 5f       	add.b	@r15,	r14	
 52a:	76 61       	addc.b	@r1+,	r6	
 52c:	5f 6c 69 73 	addc.b	29545(r12),r15	;0x7369(r12)
 530:	74 00 2f 72 	mova	r0,	29231(r4);0x722f(r4)
 534:	6f 6f       	addc.b	@r15,	r15	
 536:	74 2f       	jc	$-278    	;abs 0x420
 538:	6d 73       	subc.b	#2,	r13	;r3 As==10
 53a:	70 67       	addc.b	@r7+,	r0	
 53c:	63 63       	.word	0x6363;	????	Illegal as 2-op instr
 53e:	2d 32       	jn	$-932    	;abs 0x19a
 540:	30 31       	jn	$+610    	;abs 0x7a2
 542:	31 30       	jn	$+100    	;abs 0x5a6
 544:	37 31       	jn	$+624    	;abs 0x7b4
 546:	36 2f       	jc	$-402    	;abs 0x3b4
 548:	6d 73       	subc.b	#2,	r13	;r3 As==10
 54a:	70 34       	jge	$+226    	;abs 0x62c
 54c:	33 30       	jn	$+104    	;abs 0x5b4
 54e:	2d 6c       	addc	@r12,	r13	
 550:	69 62       	addc.b	#4,	r9	;r2 As==10
 552:	63 2f       	jc	$-312    	;abs 0x41a
 554:	73 72       	.word	0x7273;	????	Illegal as 2-op instr
 556:	63 00 76 70 	mova	r0,	&0x37076
 55a:	72 69       	addc.b	@r9+,	r2	
 55c:	6e 74       	subc.b	@r4,	r14	
 55e:	66 00 2e 2f 	mova	r0,	&0x62f2e
 562:	73 74       	.word	0x7473;	????	Illegal as 2-op instr
 564:	64 6c       	addc.b	@r12,	r4	
 566:	69 62       	addc.b	#4,	r9	;r2 As==10
 568:	2f 70       	subc	@r0,	r15	
 56a:	72 69       	addc.b	@r9+,	r2	
 56c:	6e 74       	subc.b	@r4,	r14	
 56e:	66 2e       	jc	$-818    	;abs 0x23c
 570:	63 00 5f 5f 	mova	r0,	&0x35f5f
 574:	67 6e       	addc.b	@r14,	r7	
 576:	75 63       	addc.b	#-1,	r5	;r3 As==11
 578:	5f 76 61 5f 	subc.b	24417(r6),r15	;0x5f61(r6)
 57c:	6c 69       	addc.b	@r9,	r12	
 57e:	73 74       	.word	0x7473;	????	Illegal as 2-op instr
 580:	00 61       	addc	r1,	r0	
 582:	72 67       	addc.b	@r7+,	r2	
 584:	70 00 69 6e 	mova	r0,	0x6e69	;PC rel. 0x073ef
 588:	74 70 74 72 	subc.b	#29300,	r4	;#0x7274
 58c:	5f 74 00 6d 	subc.b	27904(r4),r15	;0x6d00(r4)
 590:	6f 64       	addc.b	@r4,	r15	
 592:	65 00 6c 65 	mova	r0,	&0x5656c
 596:	61 64       	addc.b	@r4,	r1	
 598:	69 6e       	addc.b	@r14,	r9	
 59a:	67 5f       	add.b	@r15,	r7	
 59c:	66 69       	addc.b	@r9,	r6	
 59e:	6c 6c       	addc.b	@r12,	r12	
 5a0:	00 77       	subc	r7,	r0	
 5a2:	72 69       	addc.b	@r9+,	r2	
 5a4:	74 65       	addc.b	@r5+,	r4	
 5a6:	5f 63       	addc.b	#1,	r15	;r3 As==01
 5a8:	68 61       	addc.b	@r1,	r8	
 5aa:	72 00 65 6d 	mova	r0,	&0x6d65	
 5ae:	69 74       	subc.b	@r4,	r9	
 5b0:	5f 68 65 78 	addc.b	30821(r8),r15	;0x7865(r8)
 5b4:	5f 70 72 65 	subc.b	0x6572,	r15	;PC rel. 0x06b2a
 5b8:	66 69       	addc.b	@r9,	r6	
 5ba:	78 00 70 72 	mova	r0,	29296(r8);0x7270(r8)
 5be:	65 66       	addc.b	@r6,	r5	
 5c0:	69 78       	subc.b	@r8,	r9	
 5c2:	5f 6c 65 6e 	addc.b	28261(r12),r15	;0x6e65(r12)
 5c6:	00 63       	adc	r0		
 5c8:	68 61       	addc.b	@r1,	r8	
 5ca:	72 5f       	add.b	@r15+,	r2	
 5cc:	70 00 69 73 	mova	r0,	0x7369	;PC rel. 0x07937
 5d0:	5f 61 6c 74 	addc.b	29804(r1),r15	;0x746c(r1)
 5d4:	65 72       	subc.b	#4,	r5	;r2 As==10
 5d6:	6e 61       	addc.b	@r1,	r14	
 5d8:	74 65       	addc.b	@r5+,	r4	
 5da:	5f 66 6f 72 	addc.b	29295(r6),r15	;0x726f(r6)
 5de:	6d 00 6c 65 	mova	r0,	&0xd656c
 5e2:	66 74       	subc.b	@r4,	r6	
 5e4:	5f 61 6c 69 	addc.b	26988(r1),r15	;0x696c(r1)
 5e8:	67 6e       	addc.b	@r14,	r7	
 5ea:	00 75       	subc	r5,	r0	
 5ec:	70 70 65 72 	subc.b	#29285,	r0	;#0x7265
 5f0:	63 61       	.word	0x6163;	????	Illegal as 2-op instr
 5f2:	73 65       	.word	0x6573;	????	Illegal as 2-op instr
 5f4:	00 69       	addc	r9,	r0	
 5f6:	73 5f       	.word	0x5f73;	????	Illegal as 2-op instr
 5f8:	6c 6f       	addc.b	@r15,	r12	
 5fa:	6e 67       	addc.b	@r7,	r14	
 5fc:	00 46       	br	r6		
 5fe:	4f 52       	add.b	r2,	r15	
 600:	4d 41       	mov.b	r1,	r13	
 602:	54 49 4e 47 	mov.b	18254(r9),r4	;0x474e(r9)
 606:	00 70       	subc	r0,	r0	
 608:	72 69       	addc.b	@r9+,	r2	
 60a:	6e 74       	subc.b	@r4,	r14	
 60c:	5f 66 69 65 	addc.b	25961(r6),r15	;0x6569(r6)
 610:	6c 64       	addc.b	@r4,	r12	
 612:	00 66       	addc	r6,	r0	
 614:	65 74       	subc.b	@r4,	r5	
 616:	63 68       	.word	0x6863;	????	Illegal as 2-op instr
 618:	5f 6e 75 6d 	addc.b	28021(r14),r15	;0x6d75(r14)
 61c:	62 65       	addc.b	@r5,	r2	
 61e:	72 00 70 72 	mova	r0,	&0x7270	
 622:	65 66       	addc.b	@r6,	r5	
 624:	69 78       	subc.b	@r8,	r9	
 626:	5f 69 64 78 	addc.b	30820(r9),r15	;0x7864(r9)
 62a:	00 66       	addc	r6,	r0	
 62c:	6c 61       	addc.b	@r1,	r12	
 62e:	67 73       	subc.b	#2,	r7	;r3 As==10
 630:	00 61       	addc	r1,	r0	
 632:	72 67       	addc.b	@r7+,	r2	
 634:	73 00       	.word	0x0073;	????	Illegal as address instr
 636:	70 72       	subc.b	#8,	r0	;r2 As==11
 638:	65 66       	addc.b	@r6,	r5	
 63a:	69 78       	subc.b	@r8,	r9	
 63c:	5f 62 75 66 	addc.b	&0x6675,r15	
 640:	66 65       	addc.b	@r5,	r6	
 642:	72 00 72 61 	mova	r0,	&0x6172	
 646:	64 69       	addc.b	@r9,	r4	
 648:	78 00 69 6e 	mova	r0,	28265(r8);0x6e69(r8)
 64c:	74 31       	jn	$+746    	;abs 0x936
 64e:	36 5f       	add	@r15+,	r6	
 650:	74 00 77 72 	mova	r0,	29303(r4);0x7277(r4)
 654:	69 74       	subc.b	@r4,	r9	
 656:	65 5f       	add.b	@r15,	r5	
 658:	63 68       	.word	0x6863;	????	Illegal as 2-op instr
 65a:	61 72       	subc.b	#4,	r1	;r2 As==10
 65c:	61 63       	addc.b	#2,	r1	;r3 As==10
 65e:	74 65       	addc.b	@r5+,	r4	
 660:	72 00 73 69 	mova	r0,	&0x6973	
 664:	67 6e       	addc.b	@r14,	r7	
 666:	5f 63       	addc.b	#1,	r15	;r3 As==01
 668:	68 61       	addc.b	@r1,	r8	
 66a:	72 00 76 75 	mova	r0,	&0x7576	
 66e:	70 72       	subc.b	#8,	r0	;r2 As==11
 670:	69 6e       	addc.b	@r14,	r9	
 672:	74 66       	addc.b	@r6+,	r4	
 674:	00 69       	addc	r9,	r0	
 676:	73 5f       	.word	0x5f73;	????	Illegal as 2-op instr
 678:	73 69       	.word	0x6973;	????	Illegal as 2-op instr
 67a:	67 6e       	addc.b	@r14,	r7	
 67c:	65 64       	addc.b	@r4,	r5	
 67e:	00 66       	addc	r6,	r0	
 680:	6c 61       	addc.b	@r1,	r12	
 682:	67 73       	subc.b	#2,	r7	;r3 As==10
 684:	5f 74 00 66 	subc.b	26112(r4),r15	;0x6600(r4)
 688:	69 6c       	addc.b	@r12,	r9	
 68a:	6c 5f       	add.b	@r15,	r12	
 68c:	7a 65       	addc.b	@r5+,	r10	
 68e:	72 6f       	addc.b	@r15+,	r2	
 690:	00 2e       	jc	$-1022   	;abs 0x292
 692:	2f 73       	subc	#2,	r15	;r3 As==10
 694:	74 64       	addc.b	@r4+,	r4	
 696:	6c 69       	addc.b	@r9,	r12	
 698:	62 2f       	jc	$-314    	;abs 0x55e
 69a:	76 75       	subc.b	@r5+,	r6	
 69c:	70 72       	subc.b	#8,	r0	;r2 As==11
 69e:	69 6e       	addc.b	@r14,	r9	
 6a0:	74 66       	addc.b	@r6+,	r4	
 6a2:	2e 63       	addc	#2,	r14	;r3 As==10
 6a4:	00 64       	addc	r4,	r0	
 6a6:	69 67       	addc.b	@r7,	r9	
 6a8:	69 74       	subc.b	@r4,	r9	
 6aa:	00 63       	adc	r0		
 6ac:	68 61       	addc.b	@r1,	r8	
 6ae:	72 61       	addc.b	@r1+,	r2	
 6b0:	63 74       	.word	0x7463;	????	Illegal as 2-op instr
 6b2:	65 72       	subc.b	#4,	r5	;r2 As==10
 6b4:	5f 63       	addc.b	#1,	r15	;r3 As==01
 6b6:	6f 75       	subc.b	@r5,	r15	
 6b8:	6e 74       	subc.b	@r4,	r14	
 6ba:	00 44       	br	r4		
 6bc:	49 52       	add.b	r2,	r9	
 6be:	45 43       	clr.b	r5		
 6c0:	54 00       	rrcm	#1,	r4	
 6c2:	65 6d       	addc.b	@r13,	r5	
 6c4:	69 74       	subc.b	@r4,	r9	
 6c6:	5f 6e 75 6d 	addc.b	28021(r14),r15	;0x6d75(r14)
 6ca:	62 65       	addc.b	@r5,	r2	
 6cc:	72 00 66 6f 	mova	r0,	&0x6f66	
 6d0:	72 6d       	addc.b	@r13+,	r2	
 6d2:	61 74       	subc.b	@r4,	r1	
 6d4:	00 62       	addc	r2,	r0	
 6d6:	75 69       	addc.b	@r9+,	r5	
 6d8:	6c 64       	addc.b	@r4,	r12	
 6da:	5f 6e 75 6d 	addc.b	28021(r14),r15	;0x6d75(r14)
 6de:	65 72       	subc.b	#4,	r5	;r2 As==10
 6e0:	69 63       	addc.b	#2,	r9	;r3 As==10
 6e2:	5f 70 72 65 	subc.b	0x6572,	r15	;PC rel. 0x06c58
 6e6:	66 69       	addc.b	@r9,	r6	
 6e8:	78 00 00 00 	Address 0x000006ea is out of bounds.
mova	r0,	-1(r8)	;0xffff(r8)

Disassembly of section .debug_loc:

00000000 <.debug_loc>:
       0:	38 31       	jn	$+626    	;abs 0x272
       2:	3a 31       	jn	$+630    	;abs 0x278
       4:	02 00       	mova	@r0,	r2	
       6:	71 02 3a 31 	mova	r2,	12602(r1);0x313a(r1)
       a:	bc 31       	jn	$+890    	;abs 0x384
       c:	02 00       	mova	@r0,	r2	
       e:	71 04 bc 31 	mova	r4,	12732(r1);0x31bc(r1)
      12:	c0 31       	jn	$+898    	;abs 0x394
      14:	02 00       	mova	@r0,	r2	
      16:	71 06 c0 31 	mova	r6,	12736(r1);0x31c0(r1)
      1a:	c6 31       	jn	$+910    	;abs 0x3a8
      1c:	02 00       	mova	@r0,	r2	
      1e:	71 08 c6 31 	mova	r8,	12742(r1);0x31c6(r1)
      22:	dc 31       	jn	$+954    	;abs 0x3dc
      24:	02 00       	mova	@r0,	r2	
      26:	71 04 dc 31 	mova	r4,	12764(r1);0x31dc(r1)
      2a:	e0 31       	jn	$+962    	;abs 0x3ec
      2c:	02 00       	mova	@r0,	r2	
      2e:	71 06 e0 31 	mova	r6,	12768(r1);0x31e0(r1)
      32:	e6 31       	jn	$+974    	;abs 0x400
      34:	02 00       	mova	@r0,	r2	
      36:	71 08 e6 31 	mova	r8,	12774(r1);0x31e6(r1)
      3a:	fe 31       	jn	$+1022   	;abs 0x438
      3c:	02 00       	mova	@r0,	r2	
      3e:	71 04 fe 31 	mova	r4,	12798(r1);0x31fe(r1)
      42:	02 32       	jn	$-1018   	;abs 0xfc48
      44:	02 00       	mova	@r0,	r2	
      46:	71 06 02 32 	mova	r6,	12802(r1);0x3202(r1)
      4a:	08 32       	jn	$-1006   	;abs 0xfc5c
      4c:	02 00       	mova	@r0,	r2	
      4e:	71 08 08 32 	mova	r8,	12808(r1);0x3208(r1)
      52:	20 32       	jn	$-958    	;abs 0xfc94
      54:	02 00       	mova	@r0,	r2	
      56:	71 04 20 32 	mova	r4,	12832(r1);0x3220(r1)
      5a:	24 32       	jn	$-950    	;abs 0xfca4
      5c:	02 00       	mova	@r0,	r2	
      5e:	71 06 24 32 	mova	r6,	12836(r1);0x3224(r1)
      62:	2a 32       	jn	$-938    	;abs 0xfcb8
      64:	02 00       	mova	@r0,	r2	
      66:	71 08 2a 32 	mova	r8,	12842(r1);0x322a(r1)
      6a:	42 32       	jn	$-890    	;abs 0xfcf0
      6c:	02 00       	mova	@r0,	r2	
      6e:	71 04 42 32 	mova	r4,	12866(r1);0x3242(r1)
      72:	46 32       	jn	$-882    	;abs 0xfd00
      74:	02 00       	mova	@r0,	r2	
      76:	71 06 46 32 	mova	r6,	12870(r1);0x3246(r1)
      7a:	4c 32       	jn	$-870    	;abs 0xfd14
      7c:	02 00       	mova	@r0,	r2	
      7e:	71 08 4c 32 	mova	r8,	12876(r1);0x324c(r1)
      82:	64 32       	jn	$-822    	;abs 0xfd4c
      84:	02 00       	mova	@r0,	r2	
      86:	71 04 64 32 	mova	r4,	12900(r1);0x3264(r1)
      8a:	68 32       	jn	$-814    	;abs 0xfd5c
      8c:	02 00       	mova	@r0,	r2	
      8e:	71 06 68 32 	mova	r6,	12904(r1);0x3268(r1)
      92:	6e 32       	jn	$-802    	;abs 0xfd70
      94:	02 00       	mova	@r0,	r2	
      96:	71 08 6e 32 	mova	r8,	12910(r1);0x326e(r1)
      9a:	86 32       	jn	$-754    	;abs 0xfda8
      9c:	02 00       	mova	@r0,	r2	
      9e:	71 04 86 32 	mova	r4,	12934(r1);0x3286(r1)
      a2:	8a 32       	jn	$-746    	;abs 0xfdb8
      a4:	02 00       	mova	@r0,	r2	
      a6:	71 06 8a 32 	mova	r6,	12938(r1);0x328a(r1)
      aa:	90 32       	jn	$-734    	;abs 0xfdcc
      ac:	02 00       	mova	@r0,	r2	
      ae:	71 08 90 32 	mova	r8,	12944(r1);0x3290(r1)
      b2:	a8 32       	jn	$-686    	;abs 0xfe04
      b4:	02 00       	mova	@r0,	r2	
      b6:	71 04 a8 32 	mova	r4,	12968(r1);0x32a8(r1)
      ba:	ac 32       	jn	$-678    	;abs 0xfe14
      bc:	02 00       	mova	@r0,	r2	
      be:	71 06 ac 32 	mova	r6,	12972(r1);0x32ac(r1)
      c2:	b2 32       	jn	$-666    	;abs 0xfe28
      c4:	02 00       	mova	@r0,	r2	
      c6:	71 08 b2 32 	mova	r8,	12978(r1);0x32b2(r1)
      ca:	ca 32       	jn	$-618    	;abs 0xfe60
      cc:	02 00       	mova	@r0,	r2	
      ce:	71 04 ca 32 	mova	r4,	13002(r1);0x32ca(r1)
      d2:	ce 32       	jn	$-610    	;abs 0xfe70
      d4:	02 00       	mova	@r0,	r2	
      d6:	71 06 ce 32 	mova	r6,	13006(r1);0x32ce(r1)
      da:	d4 32       	jn	$-598    	;abs 0xfe84
      dc:	02 00       	mova	@r0,	r2	
      de:	71 08 d4 32 	mova	r8,	13012(r1);0x32d4(r1)
      e2:	ec 32       	jn	$-550    	;abs 0xfebc
      e4:	02 00       	mova	@r0,	r2	
      e6:	71 04 ec 32 	mova	r4,	13036(r1);0x32ec(r1)
      ea:	f0 32       	jn	$-542    	;abs 0xfecc
      ec:	02 00       	mova	@r0,	r2	
      ee:	71 06 f0 32 	mova	r6,	13040(r1);0x32f0(r1)
      f2:	f6 32       	jn	$-530    	;abs 0xfee0
      f4:	02 00       	mova	@r0,	r2	
      f6:	71 08 f6 32 	mova	r8,	13046(r1);0x32f6(r1)
      fa:	0e 33       	jn	$-482    	;abs 0xff18
      fc:	02 00       	mova	@r0,	r2	
      fe:	71 04 0e 33 	mova	r4,	13070(r1);0x330e(r1)
     102:	12 33       	jn	$-474    	;abs 0xff28
     104:	02 00       	mova	@r0,	r2	
     106:	71 06 12 33 	mova	r6,	13074(r1);0x3312(r1)
     10a:	18 33       	jn	$-462    	;abs 0xff3c
     10c:	02 00       	mova	@r0,	r2	
     10e:	71 08 18 33 	mova	r8,	13080(r1);0x3318(r1)
     112:	30 33       	jn	$-414    	;abs 0xff74
     114:	02 00       	mova	@r0,	r2	
     116:	71 04 30 33 	mova	r4,	13104(r1);0x3330(r1)
     11a:	34 33       	jn	$-406    	;abs 0xff84
     11c:	02 00       	mova	@r0,	r2	
     11e:	71 06 34 33 	mova	r6,	13108(r1);0x3334(r1)
     122:	3a 33       	jn	$-394    	;abs 0xff98
     124:	02 00       	mova	@r0,	r2	
     126:	71 08 3a 33 	mova	r8,	13114(r1);0x333a(r1)
     12a:	52 33       	jn	$-346    	;abs 0xffd0
     12c:	02 00       	mova	@r0,	r2	
     12e:	71 04 52 33 	mova	r4,	13138(r1);0x3352(r1)
     132:	56 33       	jn	$-338    	;abs 0xffe0
     134:	02 00       	mova	@r0,	r2	
     136:	71 06 56 33 	mova	r6,	13142(r1);0x3356(r1)
     13a:	5c 33       	jn	$-326    	;abs 0xfff4
     13c:	02 00       	mova	@r0,	r2	
     13e:	71 08 5c 33 	mova	r8,	13148(r1);0x335c(r1)
     142:	74 33       	jn	$-278    	;abs 0x2c
     144:	02 00       	mova	@r0,	r2	
     146:	71 04 74 33 	mova	r4,	13172(r1);0x3374(r1)
     14a:	78 33       	jn	$-270    	;abs 0x3c
     14c:	02 00       	mova	@r0,	r2	
     14e:	71 06 78 33 	mova	r6,	13176(r1);0x3378(r1)
     152:	7e 33       	jn	$-258    	;abs 0x50
     154:	02 00       	mova	@r0,	r2	
     156:	71 08 7e 33 	mova	r8,	13182(r1);0x337e(r1)
     15a:	96 33       	jn	$-210    	;abs 0x88
     15c:	02 00       	mova	@r0,	r2	
     15e:	71 04 96 33 	mova	r4,	13206(r1);0x3396(r1)
     162:	9a 33       	jn	$-202    	;abs 0x98
     164:	02 00       	mova	@r0,	r2	
     166:	71 06 9a 33 	mova	r6,	13210(r1);0x339a(r1)
     16a:	a0 33       	jn	$-190    	;abs 0xac
     16c:	02 00       	mova	@r0,	r2	
     16e:	71 08 a0 33 	mova	r8,	13216(r1);0x33a0(r1)
     172:	a8 33       	jn	$-174    	;abs 0xc4
     174:	02 00       	mova	@r0,	r2	
     176:	71 04 00 00 	mova	r4,	0(r1)	;0x0000(r1)
     17a:	00 00       	bra	@r0		
     17c:	3e 31       	jn	$+638    	;abs 0x3fa
     17e:	da 31       	jn	$+950    	;abs 0x534
     180:	02 00       	mova	@r0,	r2	
     182:	91 7c dc 31 	subc	12764(r12),12771(r1);0x31dc(r12), 0x31e3(r1)
     186:	e3 31 
     188:	01 00       	mova	@r0,	r1	
     18a:	5f fa 31 fc 	and.b	-975(r10),r15	;0xfc31(r10)
     18e:	31 02 00 91 	mova	&0x9100,r1	
     192:	7c fe       	and.b	@r14+,	r12	
     194:	31 05 32 01 	mova	306(r5),r1	;0x0132(r5)
     198:	00 5f       	add	r15,	r0	
     19a:	1c 32       	jn	$-966    	;abs 0xfdd4
     19c:	1e 32       	jn	$-962    	;abs 0xfdda
     19e:	02 00       	mova	@r0,	r2	
     1a0:	91 7c 20 32 	subc	12832(r12),12839(r1);0x3220(r12), 0x3227(r1)
     1a4:	27 32 
     1a6:	01 00       	mova	@r0,	r1	
     1a8:	5f 3e       	jmp	$-832    	;abs 0xfe68
     1aa:	32 40 32 02 	mov	#562,	r2	;#0x0232
     1ae:	00 91       	cmp	r1,	r0	
     1b0:	7c 42       	mov.b	#8,	r12	;r2 As==11
     1b2:	32 49       	mov	@r9+,	r2	
     1b4:	32 01 00 5f 	mova	24320(r1),r2	;0x5f00(r1)
     1b8:	60 32       	jn	$-830    	;abs 0xfe7a
     1ba:	62 32       	jn	$-826    	;abs 0xfe80
     1bc:	02 00       	mova	@r0,	r2	
     1be:	91 7c 64 32 	subc	12900(r12),12907(r1);0x3264(r12), 0x326b(r1)
     1c2:	6b 32 
     1c4:	01 00       	mova	@r0,	r1	
     1c6:	5f 82 32 84 	sub.b	&0x8432,r15	
     1ca:	32 02 00 91 	mova	&0x9100,r2	
     1ce:	7c 86       	sub.b	@r6+,	r12	
     1d0:	32 8d       	sub	@r13+,	r2	
     1d2:	32 01 00 5f 	mova	24320(r1),r2	;0x5f00(r1)
     1d6:	a4 32       	jn	$-694    	;abs 0xff20
     1d8:	a6 32       	jn	$-690    	;abs 0xff26
     1da:	02 00       	mova	@r0,	r2	
     1dc:	91 7c a8 32 	subc	12968(r12),12975(r1);0x32a8(r12), 0x32af(r1)
     1e0:	af 32 
     1e2:	01 00       	mova	@r0,	r1	
     1e4:	5f c6 32 c8 	bic.b	-14286(r6),r15	;0xc832(r6)
     1e8:	32 02 00 91 	mova	&0x9100,r2	
     1ec:	7c ca       	bic.b	@r10+,	r12	
     1ee:	32 d1       	bis	@r1+,	r2	
     1f0:	32 01 00 5f 	mova	24320(r1),r2	;0x5f00(r1)
     1f4:	e8 32       	jn	$-558    	;abs 0xffc6
     1f6:	ea 32       	jn	$-554    	;abs 0xffcc
     1f8:	02 00       	mova	@r0,	r2	
     1fa:	91 7c ec 32 	subc	13036(r12),13043(r1);0x32ec(r12), 0x32f3(r1)
     1fe:	f3 32 
     200:	01 00       	mova	@r0,	r1	
     202:	5f 0a       	rlam	#3,	r15	
     204:	33 0c       	.word	0x0c33;	????	Illegal as address instr
     206:	33 02       	.word	0x0233;	????	Illegal as address instr
     208:	00 91       	cmp	r1,	r0	
     20a:	7c 0e 33 15 	mova	r14,	5427(r12);0x1533(r12)
     20e:	33 01       	.word	0x0133;	????	Illegal as address instr
     210:	00 5f       	add	r15,	r0	
     212:	2c 33       	jn	$-422    	;abs 0x6c
     214:	2e 33       	jn	$-418    	;abs 0x72
     216:	02 00       	mova	@r0,	r2	
     218:	91 7c 30 33 	subc	13104(r12),13111(r1);0x3330(r12), 0x3337(r1)
     21c:	37 33 
     21e:	01 00       	mova	@r0,	r1	
     220:	5f 4e 33 50 	mov.b	20531(r14),r15	;0x5033(r14)
     224:	33 02       	.word	0x0233;	????	Illegal as address instr
     226:	00 91       	cmp	r1,	r0	
     228:	7c 52       	add.b	#8,	r12	;r2 As==11
     22a:	33 59       	.word	0x5933;	????	Illegal as 2-op instr
     22c:	33 01       	.word	0x0133;	????	Illegal as address instr
     22e:	00 5f       	add	r15,	r0	
     230:	70 33       	jn	$-286    	;abs 0x112
     232:	72 33       	jn	$-282    	;abs 0x118
     234:	02 00       	mova	@r0,	r2	
     236:	91 7c 74 33 	subc	13172(r12),13179(r1);0x3374(r12), 0x337b(r1)
     23a:	7b 33 
     23c:	01 00       	mova	@r0,	r1	
     23e:	5f 92 33 94 	cmp.b	&0x9433,r15	
     242:	33 02       	.word	0x0233;	????	Illegal as address instr
     244:	00 91       	cmp	r1,	r0	
     246:	7c 96       	cmp.b	@r6+,	r12	
     248:	33 9d       	.word	0x9d33;	????	Illegal as 2-op instr
     24a:	33 01       	.word	0x0133;	????	Illegal as address instr
     24c:	00 5f       	add	r15,	r0	
     24e:	00 00       	bra	@r0		
     250:	00 00       	bra	@r0		
     252:	04 00       	mova	@r0,	r4	
     254:	0a 00       	mova	@r0,	r10	
     256:	02 00       	mova	@r0,	r2	
     258:	30 9f       	cmp	@r15+,	r0	
     25a:	0e 00       	mova	@r0,	r14	
     25c:	12 00       	mova	#0x00000,r2	
     25e:	01 00       	mova	@r0,	r1	
     260:	5e 00       	rrcm	#1,	r14	
     262:	00 00       	bra	@r0		
     264:	00 14       	pushm.a	#1,	r0	
     266:	00 16       	popm.a	#1,	r0	
     268:	00 02       	bra	#4		;r2 As==10
     26a:	00 71       	subc	r1,	r0	
     26c:	02 16       	popm.a	#1,	r2	
     26e:	00 18       	.word	0x1800;	????	
     270:	00 02       	bra	#4		;r2 As==10
     272:	00 71       	subc	r1,	r0	
     274:	04 18       	.word	0x1804;	????	
     276:	00 34       	jge	$+2      	;abs 0x278
     278:	00 02       	bra	#4		;r2 As==10
     27a:	00 71       	subc	r1,	r0	
     27c:	06 00       	mova	@r0,	r6	
     27e:	00 00       	bra	@r0		
     280:	00 14       	pushm.a	#1,	r0	
     282:	00 1e       	.word	0x1e00;	????	
     284:	00 01       	bra	@r1		
     286:	00 5f       	add	r15,	r0	
     288:	1e 00       	mova	#0x00000,r14	
     28a:	30 00 01 00 	bra	0x0001		;PC rel. 0x0028d
     28e:	5a 00       	rrcm	#1,	r10	
     290:	00 00       	bra	@r0		
     292:	00 1a       	.word	0x1a00;	????	
     294:	00 20       	jnz	$+2      	;abs 0x296
     296:	00 02       	bra	#4		;r2 As==10
     298:	00 30       	jn	$+2      	;abs 0x29a
     29a:	9f 2a       	jnc	$-704    	;abs 0xffda
     29c:	00 2e       	jc	$-1022   	;abs 0xfe9e
     29e:	00 01       	bra	@r1		
     2a0:	00 5b       	add	r11,	r0	
     2a2:	00 00       	bra	@r0		
     2a4:	00 00       	bra	@r0		
     2a6:	4a 00       	rrcm.a	#1,	r10	
     2a8:	60 00 01 00 	mova	r0,	&0x00001
     2ac:	5f 00       	rrcm	#1,	r15	
     2ae:	00 00       	bra	@r0		
     2b0:	00 70       	subc	r0,	r0	
     2b2:	00 98       	cmp	r8,	r0	
     2b4:	00 01       	bra	@r1		
     2b6:	00 5f       	add	r15,	r0	
     2b8:	9a 00 a0 00 	cmpa	#0x000a0,r10	
     2bc:	01 00       	mova	@r0,	r1	
     2be:	5f 00       	rrcm	#1,	r15	
     2c0:	00 00       	bra	@r0		
     2c2:	00 70       	subc	r0,	r0	
     2c4:	00 9a       	cmp	r10,	r0	
     2c6:	00 01       	bra	@r1		
     2c8:	00 5d       	add	r13,	r0	
     2ca:	00 00       	bra	@r0		
     2cc:	00 00       	bra	@r0		
     2ce:	a0 00 ca 00 	adda	#0x000ca,r0	
     2d2:	01 00       	mova	@r0,	r1	
     2d4:	5f cc 00 d0 	bic.b	-12288(r12),r15	;0xd000(r12)
     2d8:	00 01       	bra	@r1		
     2da:	00 5f       	add	r15,	r0	
     2dc:	d2 00       	cmpa	r0,	r2	
     2de:	d6 00       	cmpa	r0,	r6	
     2e0:	01 00       	mova	@r0,	r1	
     2e2:	5f 00       	rrcm	#1,	r15	
     2e4:	00 00       	bra	@r0		
     2e6:	00 a0       	dadd	r0,	r0	
     2e8:	00 ac       	dadd	r12,	r0	
     2ea:	00 01       	bra	@r1		
     2ec:	00 5e       	add	r14,	r0	
     2ee:	00 00       	bra	@r0		
     2f0:	00 00       	bra	@r0		
     2f2:	d8 00       	cmpa	r0,	r8	
     2f4:	da 00       	cmpa	r0,	r10	
     2f6:	02 00       	mova	@r0,	r2	
     2f8:	71 02 da 00 	mova	r2,	218(r1)	;0x00da(r1)
     2fc:	12 01       	mova	@r1+,	r2	
     2fe:	02 00       	mova	@r0,	r2	
     300:	71 04 00 00 	mova	r4,	0(r1)	;0x0000(r1)
     304:	00 00       	bra	@r0		
     306:	d8 00       	cmpa	r0,	r8	
     308:	ec 00       	adda	r0,	r12	
     30a:	01 00       	mova	@r0,	r1	
     30c:	5f ec 00 ef 	xor.b	-4352(r12),r15	;0xef00(r12)
     310:	00 01       	bra	@r1		
     312:	00 5e       	add	r14,	r0	
     314:	00 00       	bra	@r0		
     316:	00 00       	bra	@r0		
     318:	d8 00       	cmpa	r0,	r8	
     31a:	ea 00       	adda	r0,	r10	
     31c:	01 00       	mova	@r0,	r1	
     31e:	5e ea 00 f8 	xor.b	-2048(r10),r14	;0xf800(r10)
     322:	00 01       	bra	@r1		
     324:	00 5b       	add	r11,	r0	
     326:	fa 00       	suba	r0,	r10	
     328:	10 01       	reta			
     32a:	01 00       	mova	@r0,	r1	
     32c:	5b 00       	rrcm	#1,	r11	
     32e:	00 00       	bra	@r0		
     330:	00 d8       	bis	r8,	r0	
     332:	00 ef       	xor	r15,	r0	
     334:	00 01       	bra	@r1		
     336:	00 5d       	add	r13,	r0	
     338:	00 00       	bra	@r0		
     33a:	00 00       	bra	@r0		
     33c:	dc 00       	cmpa	r0,	r12	
     33e:	f0 00       	suba	r0,	r0	
     340:	02 00       	mova	@r0,	r2	
     342:	30 9f       	cmp	@r15+,	r0	
     344:	f0 00       	suba	r0,	r0	
     346:	0a 01       	mova	@r1,	r10	
     348:	01 00       	mova	@r0,	r1	
     34a:	5f 0e       	rlam	#4,	r15	
     34c:	01 12       	push	r1		
     34e:	01 01       	mova	@r1,	r1	
     350:	00 5f       	add	r15,	r0	
     352:	00 00       	bra	@r0		
     354:	00 00       	bra	@r0		
     356:	12 01       	mova	@r1+,	r2	
     358:	14 01       	mova	@r1+,	r4	
     35a:	02 00       	mova	@r0,	r2	
     35c:	71 02 14 01 	mova	r2,	276(r1)	;0x0114(r1)
     360:	40 01       	rram.a	#1,	r0	
     362:	02 00       	mova	@r0,	r2	
     364:	71 04 00 00 	mova	r4,	0(r1)	;0x0000(r1)
     368:	00 00       	bra	@r0		
     36a:	12 01       	mova	@r1+,	r2	
     36c:	26 01 01 00 	mova	&0x10001,r6	
     370:	5f 26       	jz	$-832    	;abs 0x30
     372:	01 29       	jnc	$+516    	;abs 0x576
     374:	01 01       	mova	@r1,	r1	
     376:	00 5e       	add	r14,	r0	
     378:	00 00       	bra	@r0		
     37a:	00 00       	bra	@r0		
     37c:	12 01       	mova	@r1+,	r2	
     37e:	24 01 01 00 	mova	&0x10001,r4	
     382:	5e 24       	jz	$+190    	;abs 0x440
     384:	01 32       	jn	$-1020   	;abs 0xff88
     386:	01 01       	mova	@r1,	r1	
     388:	00 5b       	add	r11,	r0	
     38a:	34 01 3e 01 	mova	318(r1),r4	;0x013e(r1)
     38e:	01 00       	mova	@r0,	r1	
     390:	5b 00       	rrcm	#1,	r11	
     392:	00 00       	bra	@r0		
     394:	00 12       	push	r0		
     396:	01 29       	jnc	$+516    	;abs 0x59a
     398:	01 01       	mova	@r1,	r1	
     39a:	00 5d       	add	r13,	r0	
     39c:	00 00       	bra	@r0		
     39e:	00 00       	bra	@r0		
     3a0:	16 01       	mova	@r1+,	r6	
     3a2:	2a 01 02 00 	mova	&0x10002,r10	
     3a6:	30 9f       	cmp	@r15+,	r0	
     3a8:	2a 01 38 01 	mova	&0x10138,r10	
     3ac:	01 00       	mova	@r0,	r1	
     3ae:	5f 3c       	jmp	$+192    	;abs 0x46e
     3b0:	01 40       	mov	r0,	r1	
     3b2:	01 01       	mova	@r1,	r1	
     3b4:	00 5f       	add	r15,	r0	
     3b6:	00 00       	bra	@r0		
     3b8:	00 00       	bra	@r0		
     3ba:	0a 00       	mova	@r0,	r10	
     3bc:	0c 00       	mova	@r0,	r12	
     3be:	02 00       	mova	@r0,	r2	
     3c0:	71 02 0c 00 	mova	r2,	12(r1)	;0x000c(r1)
     3c4:	70 00 02 00 	mova	r0,	0x0002	;PC rel. 0x003c8
     3c8:	71 04 00 00 	mova	r4,	0(r1)	;0x0000(r1)
     3cc:	00 00       	bra	@r0		
     3ce:	0c 00       	mova	@r0,	r12	
     3d0:	2e 00 03 00 	mova	&0x00003,r14	
     3d4:	09 80       	sub	r0,	r9	
     3d6:	9f 3c       	jmp	$+320    	;abs 0x516
     3d8:	00 44       	br	r4		
     3da:	00 05       	bra	@r5		
     3dc:	00 7c       	subc	r12,	r0	
     3de:	00 31       	jn	$+514    	;abs 0x5e0
     3e0:	25 9f       	cmp	@r15,	r5	
     3e2:	52 00       	rrcm	#1,	r2	
     3e4:	6a 00 05 00 	mova	r0,	&0xa0005
     3e8:	7c 00 31 25 	mova	r0,	9521(r12);0x2531(r12)
     3ec:	9f 6a 00 70 	addc	28672(r10),768(r15);0x7000(r10), 0x0300(r15)
     3f0:	00 03 
     3f2:	00 09       	bra	@r9		
     3f4:	80 9f 00 00 	cmp	r15,	0x0000	;PC rel. 0x003f8
     3f8:	00 00       	bra	@r0		
     3fa:	26 00 2e 00 	mova	&0x0002e,r6	
     3fe:	02 00       	mova	@r0,	r2	
     400:	30 9f       	cmp	@r15+,	r0	
     402:	00 00       	bra	@r0		
     404:	00 00       	bra	@r0		
     406:	70 00 72 00 	mova	r0,	0x0072	;PC rel. 0x0047a
     40a:	02 00       	mova	@r0,	r2	
     40c:	71 02 72 00 	mova	r2,	114(r1)	;0x0072(r1)
     410:	88 00 02 00 	mova	#0x00002,r8	
     414:	71 04 00 00 	mova	r4,	0(r1)	;0x0000(r1)
     418:	00 00       	bra	@r0		
     41a:	70 00 7b 00 	mova	r0,	0x007b	;PC rel. 0x00497
     41e:	01 00       	mova	@r0,	r1	
     420:	5f 00       	rrcm	#1,	r15	
     422:	00 00       	bra	@r0		
     424:	00 70       	subc	r0,	r0	
     426:	00 78       	subc	r8,	r0	
     428:	00 01       	bra	@r1		
     42a:	00 5e       	add	r14,	r0	
     42c:	78 00 86 00 	mova	r0,	134(r8)	;0x0086(r8)
     430:	01 00       	mova	@r0,	r1	
     432:	5b 00       	rrcm	#1,	r11	
     434:	00 00       	bra	@r0		
     436:	00 88       	sub	r8,	r0	
     438:	00 8a       	sub	r10,	r0	
     43a:	00 02       	bra	#4		;r2 As==10
     43c:	00 71       	subc	r1,	r0	
     43e:	02 8a       	sub	r10,	r2	
     440:	00 8c       	sub	r12,	r0	
     442:	00 02       	bra	#4		;r2 As==10
     444:	00 71       	subc	r1,	r0	
     446:	04 8c       	sub	r12,	r4	
     448:	00 ae       	dadd	r14,	r0	
     44a:	00 02       	bra	#4		;r2 As==10
     44c:	00 71       	subc	r1,	r0	
     44e:	06 00       	mova	@r0,	r6	
     450:	00 00       	bra	@r0		
     452:	00 88       	sub	r8,	r0	
     454:	00 97       	cmp	r7,	r0	
     456:	00 01       	bra	@r1		
     458:	00 5f       	add	r15,	r0	
     45a:	00 00       	bra	@r0		
     45c:	00 00       	bra	@r0		
     45e:	88 00 94 00 	mova	#0x00094,r8	
     462:	01 00       	mova	@r0,	r1	
     464:	5e 94 00 aa 	cmp.b	-22016(r4),r14	;0xaa00(r4)
     468:	00 01       	bra	@r1		
     46a:	00 5a       	add	r10,	r0	
     46c:	00 00       	bra	@r0		
     46e:	00 00       	bra	@r0		
     470:	88 00 97 00 	mova	#0x00097,r8	
     474:	01 00       	mova	@r0,	r1	
     476:	5d 97 00 ac 	cmp.b	-21504(r7),r13	;0xac00(r7)
     47a:	00 01       	bra	@r1		
     47c:	00 5b       	add	r11,	r0	
     47e:	00 00       	bra	@r0		
     480:	00 00       	bra	@r0		
     482:	ae 00 b0 00 	adda	#0x000b0,r14	
     486:	02 00       	mova	@r0,	r2	
     488:	71 02 b0 00 	mova	r2,	176(r1)	;0x00b0(r1)
     48c:	b2 00 02 00 	suba	#0x00002,r2	
     490:	71 04 b2 00 	mova	r4,	178(r1)	;0x00b2(r1)
     494:	b4 00 02 00 	suba	#0x00002,r4	
     498:	71 06 b4 00 	mova	r6,	180(r1)	;0x00b4(r1)
     49c:	b6 00 02 00 	suba	#0x00002,r6	
     4a0:	71 08 b6 00 	mova	r8,	182(r1)	;0x00b6(r1)
     4a4:	f2 00       	suba	r0,	r2	
     4a6:	02 00       	mova	@r0,	r2	
     4a8:	71 0a f2 00 	mova	r10,	242(r1)	;0x00f2(r1)
     4ac:	00 01       	bra	@r1		
     4ae:	02 00       	mova	@r0,	r2	
     4b0:	71 0c 00 01 	mova	r12,	256(r1)	;0x0100(r1)
     4b4:	44 01       	rram.a	#1,	r4	
     4b6:	02 00       	mova	@r0,	r2	
     4b8:	71 0a 00 00 	mova	r10,	0(r1)	;0x0000(r1)
     4bc:	00 00       	bra	@r0		
     4be:	ae 00 cc 00 	adda	#0x000cc,r14	
     4c2:	01 00       	mova	@r0,	r1	
     4c4:	5f cc 00 cf 	bic.b	-12544(r12),r15	;0xcf00(r12)
     4c8:	00 01       	bra	@r1		
     4ca:	00 5e       	add	r14,	r0	
     4cc:	00 00       	bra	@r0		
     4ce:	00 00       	bra	@r0		
     4d0:	ae 00 c8 00 	adda	#0x000c8,r14	
     4d4:	01 00       	mova	@r0,	r1	
     4d6:	5e c8 00 3c 	bic.b	15360(r8),r14	;0x3c00(r8)
     4da:	01 01       	mova	@r1,	r1	
     4dc:	00 58       	add	r8,	r0	
     4de:	00 00       	bra	@r0		
     4e0:	00 00       	bra	@r0		
     4e2:	ae 00 c2 00 	adda	#0x000c2,r14	
     4e6:	01 00       	mova	@r0,	r1	
     4e8:	5d c2 00 06 	bic.b	&0x0600,r13	
     4ec:	01 01       	mova	@r1,	r1	
     4ee:	00 5b       	add	r11,	r0	
     4f0:	00 00       	bra	@r0		
     4f2:	00 00       	bra	@r0		
     4f4:	ae 00 cf 00 	adda	#0x000cf,r14	
     4f8:	01 00       	mova	@r0,	r1	
     4fa:	5c cf 00 fe 	bic.b	-512(r15),r12	;0xfe00(r15)
     4fe:	00 01       	bra	@r1		
     500:	00 5a       	add	r10,	r0	
     502:	fe 00       	suba	r0,	r14	
     504:	06 01       	mova	@r1,	r6	
     506:	03 00       	.word	0x0003;	????	Illegal as address instr
     508:	03 30       	jn	$+8      	;abs 0x510
     50a:	01 00       	mova	@r0,	r1	
     50c:	00 00       	bra	@r0		
     50e:	00 00       	bra	@r0		
     510:	01 06       	mova	@r6,	r1	
     512:	01 02       	mova	#4,	r1	;r2 As==10
     514:	00 30       	jn	$+2      	;abs 0x516
     516:	9f 10 01 14 	swpb	5121(r15)	;0x1401(r15)
     51a:	01 01       	mova	@r1,	r1	
     51c:	00 5b       	add	r11,	r0	
     51e:	00 00       	bra	@r0		
     520:	00 00       	bra	@r0		
     522:	00 01       	bra	@r1		
     524:	40 01       	rram.a	#1,	r0	
     526:	01 00       	mova	@r0,	r1	
     528:	5a 00       	rrcm	#1,	r10	
     52a:	00 00       	bra	@r0		
     52c:	00 44       	br	r4		
     52e:	01 46       	mov	r6,	r1	
     530:	01 02       	mova	#4,	r1	;r2 As==10
     532:	00 71       	subc	r1,	r0	
     534:	02 46       	mov	r6,	r2	
     536:	01 56       	add	r6,	r1	
     538:	01 02       	mova	#4,	r1	;r2 As==10
     53a:	00 71       	subc	r1,	r0	
     53c:	04 56       	add	r6,	r4	
     53e:	01 58       	add	r8,	r1	
     540:	01 02       	mova	#4,	r1	;r2 As==10
     542:	00 71       	subc	r1,	r0	
     544:	02 00       	mova	@r0,	r2	
     546:	00 00       	bra	@r0		
     548:	00 44       	br	r4		
     54a:	01 50       	add	r0,	r1	
     54c:	01 01       	mova	@r1,	r1	
     54e:	00 5f       	add	r15,	r0	
     550:	50 01       	rram	#1,	r0	
     552:	53 01       	rram	#1,	#0	;r3 As==00
     554:	02 00       	mova	@r0,	r2	
     556:	91 7a 00 00 	subc	0(r10),	0(r1)	;0x0000(r10), 0x0000(r1)
     55a:	00 00 
     55c:	58 01       	rram	#1,	r8	
     55e:	5a 01       	rram	#1,	r10	
     560:	02 00       	mova	@r0,	r2	
     562:	71 02 5a 01 	mova	r2,	346(r1)	;0x015a(r1)
     566:	5c 01       	rram	#1,	r12	
     568:	02 00       	mova	@r0,	r2	
     56a:	71 04 5c 01 	mova	r4,	348(r1)	;0x015c(r1)
     56e:	5e 01       	rram	#1,	r14	
     570:	02 00       	mova	@r0,	r2	
     572:	71 06 5e 01 	mova	r6,	350(r1)	;0x015e(r1)
     576:	60 01 02 00 	mova	r1,	&0x00002
     57a:	71 08 60 01 	mova	r8,	352(r1)	;0x0160(r1)
     57e:	62 01 02 00 	mova	r1,	&0x20002
     582:	71 0a 62 01 	mova	r10,	354(r1)	;0x0162(r1)
     586:	64 01 02 00 	mova	r1,	&0x40002
     58a:	71 0c 64 01 	mova	r12,	356(r1)	;0x0164(r1)
     58e:	66 01 02 00 	mova	r1,	&0x60002
     592:	71 0e 66 01 	mova	r14,	358(r1)	;0x0166(r1)
     596:	a2 02 02 00 	adda	#0x20002,r2	
     59a:	71 10       	rrc.b	@r1+		
     59c:	a2 02 b2 02 	adda	#0x202b2,r2	
     5a0:	02 00       	mova	@r0,	r2	
     5a2:	71 12       	push.b	@r1+		
     5a4:	b2 02 c2 02 	suba	#0x202c2,r2	
     5a8:	02 00       	mova	@r0,	r2	
     5aa:	71 10       	rrc.b	@r1+		
     5ac:	00 00       	bra	@r0		
     5ae:	00 00       	bra	@r0		
     5b0:	58 01       	rram	#1,	r8	
     5b2:	8a 01 01 00 	mova	#0x10001,r10	
     5b6:	5f 8a 01 b4 	sub.b	-19455(r10),r15	;0xb401(r10)
     5ba:	02 01       	mova	@r1,	r2	
     5bc:	00 55       	add	r5,	r0	
     5be:	00 00       	bra	@r0		
     5c0:	00 00       	bra	@r0		
     5c2:	c2 02       	mova	r2,	r2	
     5c4:	c4 02       	mova	r2,	r4	
     5c6:	02 00       	mova	@r0,	r2	
     5c8:	71 02 c4 02 	mova	r2,	708(r1)	;0x02c4(r1)
     5cc:	c6 02       	mova	r2,	r6	
     5ce:	02 00       	mova	@r0,	r2	
     5d0:	71 04 c6 02 	mova	r4,	710(r1)	;0x02c6(r1)
     5d4:	c8 02       	mova	r2,	r8	
     5d6:	02 00       	mova	@r0,	r2	
     5d8:	71 06 c8 02 	mova	r6,	712(r1)	;0x02c8(r1)
     5dc:	ca 02       	mova	r2,	r10	
     5de:	02 00       	mova	@r0,	r2	
     5e0:	71 08 ca 02 	mova	r8,	714(r1)	;0x02ca(r1)
     5e4:	cc 02       	mova	r2,	r12	
     5e6:	02 00       	mova	@r0,	r2	
     5e8:	71 0a cc 02 	mova	r10,	716(r1)	;0x02cc(r1)
     5ec:	ce 02       	mova	r2,	r14	
     5ee:	02 00       	mova	@r0,	r2	
     5f0:	71 0c ce 02 	mova	r12,	718(r1)	;0x02ce(r1)
     5f4:	d0 02       	cmpa	r2,	r0	
     5f6:	02 00       	mova	@r0,	r2	
     5f8:	71 0e d0 02 	mova	r14,	720(r1)	;0x02d0(r1)
     5fc:	d2 02       	cmpa	r2,	r2	
     5fe:	02 00       	mova	@r0,	r2	
     600:	71 10       	rrc.b	@r1+		
     602:	d2 02       	cmpa	r2,	r2	
     604:	d6 02       	cmpa	r2,	r6	
     606:	02 00       	mova	@r0,	r2	
     608:	71 12       	push.b	@r1+		
     60a:	d6 02       	cmpa	r2,	r6	
     60c:	f4 02       	suba	r2,	r4	
     60e:	02 00       	mova	@r0,	r2	
     610:	71 1c       	.word	0x1c71;	????	
     612:	f4 02       	suba	r2,	r4	
     614:	40 03       	rrum.a	#1,	r0	
     616:	02 00       	mova	@r0,	r2	
     618:	71 1e       	.word	0x1e71;	????	
     61a:	40 03       	rrum.a	#1,	r0	
     61c:	a2 03 02 00 	adda	#0x30002,r2	
     620:	71 1c       	.word	0x1c71;	????	
     622:	a2 03 44 04 	adda	#0x30444,r2	
     626:	02 00       	mova	@r0,	r2	
     628:	71 1e       	.word	0x1e71;	????	
     62a:	44 04       	rrcm.a	#2,	r4	
     62c:	62 04 02 00 	mova	r4,	&0x20002
     630:	71 1c       	.word	0x1c71;	????	
     632:	00 00       	bra	@r0		
     634:	00 00       	bra	@r0		
     636:	c2 02       	mova	r2,	r2	
     638:	01 03       	mova	#2,	r1	;r3 As==10
     63a:	01 00       	mova	@r0,	r1	
     63c:	5f 01       	rram	#1,	r15	
     63e:	03 72       	.word	0x7203;	????	Illegal as 2-op instr
     640:	03 01       	.word	0x0103;	????	Illegal as address instr
     642:	00 58       	add	r8,	r0	
     644:	00 00       	bra	@r0		
     646:	00 00       	bra	@r0		
     648:	c2 02       	mova	r2,	r2	
     64a:	fa 02       	suba	r2,	r10	
     64c:	01 00       	mova	@r0,	r1	
     64e:	5e fa 02 72 	and.b	29186(r10),r14	;0x7202(r10)
     652:	03 01       	.word	0x0103;	????	Illegal as address instr
     654:	00 59       	add	r9,	r0	
     656:	00 00       	bra	@r0		
     658:	00 00       	bra	@r0		
     65a:	c2 02       	mova	r2,	r2	
     65c:	f8 02       	suba	r2,	r8	
     65e:	01 00       	mova	@r0,	r1	
     660:	5d f8 02 62 	and.b	25090(r8),r13	;0x6202(r8)
     664:	04 02       	mova	#4,	r4	;r2 As==10
     666:	00 91       	cmp	r1,	r0	
     668:	68 00 00 00 	mova	r0,	&0x80000
     66c:	00 c2       	bic	r2,	r0	
     66e:	02 f6       	and	r6,	r2	
     670:	02 01       	mova	@r1,	r2	
     672:	00 5c       	add	r12,	r0	
     674:	f6 02       	suba	r2,	r6	
     676:	54 04       	rrcm	#2,	r4	
     678:	01 00       	mova	@r0,	r1	
     67a:	55 00       	rrcm	#1,	r5	
     67c:	00 00       	bra	@r0		
     67e:	00 e0       	xor	r0,	r0	
     680:	02 f8       	and	r8,	r2	
     682:	02 05       	mova	@r5,	r2	
     684:	00 31       	jn	$+514    	;abs 0x886
     686:	7d 00 1c 9f 	mova	r0,	-24804(r13);0x9f1c(r13)
     68a:	f8 02       	suba	r2,	r8	
     68c:	72 03 06 00 	mova	#0,	&0x0006	;r3 As==00
     690:	31 91       	cmp	@r1+,	r1	
     692:	68 06 1c 9f 	mova	r6,	&0x89f1c
     696:	8a 03 8e 03 	mova	#0x3038e,r10	
     69a:	01 00       	mova	@r0,	r1	
     69c:	54 00       	rrcm	#1,	r4	
     69e:	00 00       	bra	@r0		
     6a0:	00 e0       	xor	r0,	r0	
     6a2:	02 72       	subc	r2,	r2	
     6a4:	03 02       	.word	0x0203;	????	Illegal as address instr
     6a6:	00 30       	jn	$+2      	;abs 0x6a8
     6a8:	9f 00 00 00 	cmpa	#0x00000,r15	
     6ac:	00 e0       	xor	r0,	r0	
     6ae:	02 f8       	and	r8,	r2	
     6b0:	02 06       	mova	@r6,	r2	
     6b2:	00 7d       	subc	r13,	r0	
     6b4:	00 09       	bra	@r9		
     6b6:	fe 1e 9f f8 	andx	-167422(r8),-129277(r15);0xd7202(r8), 0xe0703(r15)
     6ba:	02 72 03 07 
     6be:	00 91       	cmp	r1,	r0	
     6c0:	68 06 09 fe 	mova	r6,	&0x8fe09
     6c4:	1e 9f 72 03 	cmp	882(r15),r14	;0x0372(r15)
     6c8:	7a 03 02 00 	mova	#0,	2(r10)	;r3 As==00, 0x0002(r10)
     6cc:	91 6c 86 03 	addc	902(r12),906(r1)	;0x0386(r12), 0x038a(r1)
     6d0:	8a 03 
     6d2:	02 00       	mova	@r0,	r2	
     6d4:	91 6c 8a 03 	addc	906(r12),1100(r1);0x038a(r12), 0x044c(r1)
     6d8:	4c 04 
     6da:	02 00       	mova	@r0,	r2	
     6dc:	91 6c 00 00 	addc	0(r12),	0(r1)	;0x0000(r12), 0x0000(r1)
     6e0:	00 00 
     6e2:	e0 02       	adda	r2,	r0	
     6e4:	72 03 02 00 	mova	#0,	&0x0002	;r3 As==00
     6e8:	30 9f       	cmp	@r15+,	r0	
     6ea:	72 03 7a 03 	mova	#0,	&0x037a	;r3 As==00
     6ee:	02 00       	mova	@r0,	r2	
     6f0:	91 66 8e 03 	addc	910(r6),1100(r1);0x038e(r6), 0x044c(r1)
     6f4:	4c 04 
     6f6:	02 00       	mova	@r0,	r2	
     6f8:	91 66 00 00 	addc	0(r6),	0(r1)	;0x0000(r6), 0x0000(r1)
     6fc:	00 00 
     6fe:	e4 02       	adda	r2,	r4	
     700:	f8 02       	suba	r2,	r8	
     702:	01 00       	mova	@r0,	r1	
     704:	5d f8 02 62 	and.b	25090(r8),r13	;0x6202(r8)
     708:	04 02       	mova	#4,	r4	;r2 As==10
     70a:	00 91       	cmp	r1,	r0	
     70c:	68 00 00 00 	mova	r0,	&0x80000
     710:	00 62       	addc	r2,	r0	
     712:	04 64       	rlc	r4		
     714:	04 02       	mova	#4,	r4	;r2 As==10
     716:	00 71       	subc	r1,	r0	
     718:	02 64       	addc	r4,	r2	
     71a:	04 66       	addc	r6,	r4	
     71c:	04 02       	mova	#4,	r4	;r2 As==10
     71e:	00 71       	subc	r1,	r0	
     720:	04 66       	addc	r6,	r4	
     722:	04 68       	addc	r8,	r4	
     724:	04 02       	mova	#4,	r4	;r2 As==10
     726:	00 71       	subc	r1,	r0	
     728:	06 68       	addc	r8,	r6	
     72a:	04 6a       	addc	r10,	r4	
     72c:	04 02       	mova	#4,	r4	;r2 As==10
     72e:	00 71       	subc	r1,	r0	
     730:	08 6a       	addc	r10,	r8	
     732:	04 ca       	bic	r10,	r4	
     734:	04 02       	mova	#4,	r4	;r2 As==10
     736:	00 71       	subc	r1,	r0	
     738:	0a 00       	mova	@r0,	r10	
     73a:	00 00       	bra	@r0		
     73c:	00 62       	addc	r2,	r0	
     73e:	04 78       	subc	r8,	r4	
     740:	04 01       	mova	@r1,	r4	
     742:	00 5f       	add	r15,	r0	
     744:	78 04 7b 04 	mova	r4,	1147(r8);0x047b(r8)
     748:	01 00       	mova	@r0,	r1	
     74a:	5d 00       	rrcm	#1,	r13	
     74c:	00 00       	bra	@r0		
     74e:	00 62       	addc	r2,	r0	
     750:	04 76       	subc	r6,	r4	
     752:	04 01       	mova	@r1,	r4	
     754:	00 5e       	add	r14,	r0	
     756:	76 04 c2 04 	mova	r4,	1218(r6);0x04c2(r6)
     75a:	01 00       	mova	@r0,	r1	
     75c:	58 00       	rrcm	#1,	r8	
     75e:	00 00       	bra	@r0		
     760:	00 62       	addc	r2,	r0	
     762:	04 74       	subc	r4,	r4	
     764:	04 01       	mova	@r1,	r4	
     766:	00 5d       	add	r13,	r0	
     768:	74 04 ac 04 	mova	r4,	1196(r4);0x04ac(r4)
     76c:	01 00       	mova	@r0,	r1	
     76e:	5a 00       	rrcm	#1,	r10	
     770:	00 00       	bra	@r0		
     772:	00 ca       	bic	r10,	r0	
     774:	04 cc       	bic	r12,	r4	
     776:	04 02       	mova	#4,	r4	;r2 As==10
     778:	00 71       	subc	r1,	r0	
     77a:	02 cc       	bic	r12,	r2	
     77c:	04 ce       	bic	r14,	r4	
     77e:	04 02       	mova	#4,	r4	;r2 As==10
     780:	00 71       	subc	r1,	r0	
     782:	04 ce       	bic	r14,	r4	
     784:	04 d0       	bis	r0,	r4	
     786:	04 02       	mova	#4,	r4	;r2 As==10
     788:	00 71       	subc	r1,	r0	
     78a:	06 d0       	bis	r0,	r6	
     78c:	04 d2       	bis	r2,	r4	
     78e:	04 02       	mova	#4,	r4	;r2 As==10
     790:	00 71       	subc	r1,	r0	
     792:	08 d2       	bis	r2,	r8	
     794:	04 d4       	bis	r4,	r4	
     796:	04 02       	mova	#4,	r4	;r2 As==10
     798:	00 71       	subc	r1,	r0	
     79a:	0a d4       	bis	r4,	r10	
     79c:	04 d6       	bis	r6,	r4	
     79e:	04 02       	mova	#4,	r4	;r2 As==10
     7a0:	00 71       	subc	r1,	r0	
     7a2:	0c d6       	bis	r6,	r12	
     7a4:	04 d8       	bis	r8,	r4	
     7a6:	04 02       	mova	#4,	r4	;r2 As==10
     7a8:	00 71       	subc	r1,	r0	
     7aa:	0e d8       	bis	r8,	r14	
     7ac:	04 da       	bis	r10,	r4	
     7ae:	04 02       	mova	#4,	r4	;r2 As==10
     7b0:	00 71       	subc	r1,	r0	
     7b2:	10 da 04 dc 	bis	-9212(r10),r0	;0xdc04(r10)
     7b6:	04 02       	mova	#4,	r4	;r2 As==10
     7b8:	00 71       	subc	r1,	r0	
     7ba:	12 dc 04 98 	bis	-26620(r12),r2	;0x9804(r12)
     7be:	05 02       	mova	#4,	r5	;r2 As==10
     7c0:	00 71       	subc	r1,	r0	
     7c2:	16 00       	mova	#0x00000,r6	
     7c4:	00 00       	bra	@r0		
     7c6:	00 ca       	bic	r10,	r0	
     7c8:	04 f8       	and	r8,	r4	
     7ca:	04 01       	mova	@r1,	r4	
     7cc:	00 5f       	add	r15,	r0	
     7ce:	f8 04       	suba	r4,	r8	
     7d0:	20 05 01 00 	bra	&0x50001	
     7d4:	59 54 05 6e 	add.b	28165(r4),r9	;0x6e05(r4)
     7d8:	05 01       	mova	@r1,	r5	
     7da:	00 59       	add	r9,	r0	
     7dc:	6e 05 98 05 	mova	r5,	&0xe0598
     7e0:	01 00       	mova	@r0,	r1	
     7e2:	59 00       	rrcm	#1,	r9	
     7e4:	00 00       	bra	@r0		
     7e6:	00 ca       	bic	r10,	r0	
     7e8:	04 f8       	and	r8,	r4	
     7ea:	04 01       	mova	@r1,	r4	
     7ec:	00 5e       	add	r14,	r0	
     7ee:	f8 04       	suba	r4,	r8	
     7f0:	2a 05 01 00 	mova	&0x50001,r10	
     7f4:	5a 2a       	jnc	$-842    	;abs 0x4aa
     7f6:	05 40       	mov	r0,	r5	
     7f8:	05 01       	mova	@r1,	r5	
     7fa:	00 5a       	add	r10,	r0	
     7fc:	54 05       	rram	#2,	r4	
     7fe:	64 05 01 00 	mova	r5,	&0x40001
     802:	5a 88 05 98 	sub.b	-26619(r8),r10	;0x9805(r8)
     806:	05 01       	mova	@r1,	r5	
     808:	00 5a       	add	r10,	r0	
     80a:	00 00       	bra	@r0		
     80c:	00 00       	bra	@r0		
     80e:	ca 04       	mova	r4,	r10	
     810:	06 05       	mova	@r5,	r6	
     812:	01 00       	mova	@r0,	r1	
     814:	5d 06       	rlam	#2,	r13	
     816:	05 42       	mov	r2,	r5	
     818:	05 02       	mova	#4,	r5	;r2 As==10
     81a:	00 71       	subc	r1,	r0	
     81c:	00 42       	br	r2		
     81e:	05 54       	add	r4,	r5	
     820:	05 02       	mova	#4,	r5	;r2 As==10
     822:	00 91       	cmp	r1,	r0	
     824:	6a 54       	add.b	@r4,	r10	
     826:	05 98       	cmp	r8,	r5	
     828:	05 02       	mova	#4,	r5	;r2 As==10
     82a:	00 71       	subc	r1,	r0	
     82c:	00 00       	bra	@r0		
     82e:	00 00       	bra	@r0		
     830:	00 ca       	bic	r10,	r0	
     832:	04 0d       	mova	@r13,	r4	
     834:	05 01       	mova	@r1,	r5	
     836:	00 5c       	add	r12,	r0	
     838:	0d 05       	mova	@r5,	r13	
     83a:	98 05 02 00 	cmpa	#0x50002,r8	
     83e:	91 6c 00 00 	addc	0(r12),	0(r1)	;0x0000(r12), 0x0000(r1)
     842:	00 00 
     844:	f0 04       	suba	r4,	r0	
     846:	02 05       	mova	@r5,	r2	
     848:	01 00       	mova	@r0,	r1	
     84a:	55 02       	rlam	#1,	r5	
     84c:	05 46       	mov	r6,	r5	
     84e:	05 01       	mova	@r1,	r5	
     850:	00 55       	add	r5,	r0	
     852:	54 05       	rram	#2,	r4	
     854:	92 05 01 00 	cmpa	#0x50001,r2	
     858:	55 92 05 94 	cmp.b	&0x9405,r5	
     85c:	05 04       	mova	@r4,	r5	
     85e:	00 75       	subc	r5,	r0	
     860:	00 20       	jnz	$+2      	;abs 0x862
     862:	9f 94 05 98 	cmp	-26619(r4),261(r15);0x9805(r4), 0x0105(r15)
     866:	05 01 
     868:	00 55       	add	r5,	r0	
     86a:	00 00       	bra	@r0		
     86c:	00 00       	bra	@r0		
     86e:	f4 04       	suba	r4,	r4	
     870:	04 05       	mova	@r5,	r4	
     872:	01 00       	mova	@r0,	r1	
     874:	56 04       	rrcm	#2,	r6	
     876:	05 48       	mov	r8,	r5	
     878:	05 01       	mova	@r1,	r5	
     87a:	00 56       	add	r6,	r0	
     87c:	54 05       	rram	#2,	r4	
     87e:	8a 05 01 00 	mova	#0x50001,r10	
     882:	56 8a 05 8c 	sub.b	-29691(r10),r6	;0x8c05(r10)
     886:	05 04       	mova	@r4,	r5	
     888:	00 76       	subc	r6,	r0	
     88a:	00 20       	jnz	$+2      	;abs 0x88c
     88c:	9f 8c 05 98 	sub	-26619(r12),261(r15);0x9805(r12), 0x0105(r15)
     890:	05 01 
     892:	00 56       	add	r6,	r0	
     894:	00 00       	bra	@r0		
     896:	00 00       	bra	@r0		
     898:	00 05       	bra	@r5		
     89a:	4a 05       	rram.a	#2,	r10	
     89c:	01 00       	mova	@r0,	r1	
     89e:	57 54 05 88 	add.b	-30715(r4),r7	;0x8805(r4)
     8a2:	05 01       	mova	@r1,	r5	
     8a4:	00 57       	add	r7,	r0	
     8a6:	8c 05 90 05 	mova	#0x50590,r12	
     8aa:	03 00       	.word	0x0003;	????	Illegal as address instr
     8ac:	09 ff       	and	r15,	r9	
     8ae:	9f 00 00 00 	cmpa	#0x00000,r15	
     8b2:	00 fa       	and	r10,	r0	
     8b4:	04 4c       	mov	r12,	r4	
     8b6:	05 01       	mova	@r1,	r5	
     8b8:	00 58       	add	r8,	r0	
     8ba:	54 05       	rram	#2,	r4	
     8bc:	90 05 01 00 	cmpa	#0x50001,r0	
     8c0:	58 94 05 98 	cmp.b	-26619(r4),r8	;0x9805(r4)
     8c4:	05 03       	mova	#2,	r5	;r3 As==10
     8c6:	00 09       	bra	@r9		
     8c8:	ff 9f 00 00 	cmp.b	@r15+,	0(r15)	;0x0000(r15)
     8cc:	00 00       	bra	@r0		
     8ce:	12 05       	mova	@r5+,	r2	
     8d0:	22 05 08 00 	mova	&0x50008,r2	
     8d4:	75 00 76 00 	mova	r0,	118(r5)	;0x0076(r5)
     8d8:	31 26       	jz	$-924    	;abs 0x53c
     8da:	1c 9f 22 05 	cmp	1314(r15),r12	;0x0522(r15)
     8de:	24 05 06 00 	mova	&0x50006,r4	
     8e2:	7b 00 75 00 	mova	r0,	117(r11);0x0075(r11)
     8e6:	22 9f       	cmp	@r15,	r2	
     8e8:	2c 05 40 05 	mova	&0x50540,r12	
     8ec:	06 00       	mova	@r0,	r6	
     8ee:	7b 00 75 00 	mova	r0,	117(r11);0x0075(r11)
     8f2:	22 9f       	cmp	@r15,	r2	
     8f4:	00 00       	bra	@r0		
     8f6:	00 00       	bra	@r0		
     8f8:	54 05       	rram	#2,	r4	
     8fa:	66 05 08 00 	mova	r5,	&0x60008
     8fe:	76 00 75 00 	mova	r0,	117(r6)	;0x0075(r6)
     902:	31 26       	jz	$-924    	;abs 0x566
     904:	1c 9f 66 05 	cmp	1382(r15),r12	;0x0566(r15)
     908:	68 05 06 00 	mova	r5,	&0x80006
     90c:	7b 00 76 00 	mova	r0,	118(r11);0x0076(r11)
     910:	22 9f       	cmp	@r15,	r2	
     912:	70 05 88 05 	mova	r5,	0x0588	;PC rel. 0x00e9c
     916:	06 00       	mova	@r0,	r6	
     918:	7b 00 76 00 	mova	r0,	118(r11);0x0076(r11)
     91c:	22 9f       	cmp	@r15,	r2	
     91e:	00 00       	bra	@r0		
     920:	00 00       	bra	@r0		
     922:	98 05 9a 05 	cmpa	#0x5059a,r8	
     926:	02 00       	mova	@r0,	r2	
     928:	71 02 9a 05 	mova	r2,	1434(r1);0x059a(r1)
     92c:	9c 05 02 00 	cmpa	#0x50002,r12	
     930:	71 04 9c 05 	mova	r4,	1436(r1);0x059c(r1)
     934:	9e 05 02 00 	cmpa	#0x50002,r14	
     938:	71 06 9e 05 	mova	r6,	1438(r1);0x059e(r1)
     93c:	a0 05 02 00 	adda	#0x50002,r0	
     940:	71 08 a0 05 	mova	r8,	1440(r1);0x05a0(r1)
     944:	dc 05       	cmpa	r5,	r12	
     946:	02 00       	mova	@r0,	r2	
     948:	71 0a dc 05 	mova	r10,	1500(r1);0x05dc(r1)
     94c:	ea 05       	adda	r5,	r10	
     94e:	02 00       	mova	@r0,	r2	
     950:	71 0c ea 05 	mova	r12,	1514(r1);0x05ea(r1)
     954:	32 06 02 00 	mova	2(r6),	r2	;0x0002(r6)
     958:	71 0a 00 00 	mova	r10,	0(r1)	;0x0000(r1)
     95c:	00 00       	bra	@r0		
     95e:	98 05 b6 05 	cmpa	#0x505b6,r8	
     962:	01 00       	mova	@r0,	r1	
     964:	5f b6 05 b9 	bit.b	-18171(r6),r15	;0xb905(r6)
     968:	05 01       	mova	@r1,	r5	
     96a:	00 5e       	add	r14,	r0	
     96c:	00 00       	bra	@r0		
     96e:	00 00       	bra	@r0		
     970:	98 05 b2 05 	cmpa	#0x505b2,r8	
     974:	01 00       	mova	@r0,	r1	
     976:	5e b2 05 2a 	bit.b	&0x2a05,r14	
     97a:	06 01       	mova	@r1,	r6	
     97c:	00 58       	add	r8,	r0	
     97e:	00 00       	bra	@r0		
     980:	00 00       	bra	@r0		
     982:	98 05 ac 05 	cmpa	#0x505ac,r8	
     986:	01 00       	mova	@r0,	r1	
     988:	5d ac 05 f0 	dadd.b	-4091(r12),r13	;0xf005(r12)
     98c:	05 01       	mova	@r1,	r5	
     98e:	00 5b       	add	r11,	r0	
     990:	00 00       	bra	@r0		
     992:	00 00       	bra	@r0		
     994:	98 05 b9 05 	cmpa	#0x505b9,r8	
     998:	01 00       	mova	@r0,	r1	
     99a:	5c b9 05 e8 	bit.b	-6139(r9),r12	;0xe805(r9)
     99e:	05 01       	mova	@r1,	r5	
     9a0:	00 5a       	add	r10,	r0	
     9a2:	e8 05       	adda	r5,	r8	
     9a4:	f0 05       	suba	r5,	r0	
     9a6:	03 00       	.word	0x0003;	????	Illegal as address instr
     9a8:	03 30       	jn	$+8      	;abs 0x9b0
     9aa:	01 00       	mova	@r0,	r1	
     9ac:	00 00       	bra	@r0		
     9ae:	00 ea       	xor	r10,	r0	
     9b0:	05 f0       	and	r0,	r5	
     9b2:	05 02       	mova	#4,	r5	;r2 As==10
     9b4:	00 30       	jn	$+2      	;abs 0x9b6
     9b6:	9f fe 05 02 	and	517(r14),262(r15);0x0205(r14), 0x0106(r15)
     9ba:	06 01 
     9bc:	00 5b       	add	r11,	r0	
     9be:	00 00       	bra	@r0		
     9c0:	00 00       	bra	@r0		
     9c2:	ea 05       	adda	r5,	r10	
     9c4:	2e 06 01 00 	mova	&0x60001,r14	
     9c8:	5a 00       	rrcm	#1,	r10	
     9ca:	00 00       	bra	@r0		
     9cc:	00 4c       	br	r12		
     9ce:	06 54       	add	r4,	r6	
     9d0:	06 01       	mova	@r1,	r6	
     9d2:	00 5f       	add	r15,	r0	
     9d4:	54 06       	rlam	#2,	r4	
     9d6:	66 06 01 00 	mova	r6,	&0x60001
     9da:	5f 00       	rrcm	#1,	r15	
     9dc:	00 00       	bra	@r0		
     9de:	00 4c       	br	r12		
     9e0:	06 5c       	add	r12,	r6	
     9e2:	06 01       	mova	@r1,	r6	
     9e4:	00 5e       	add	r14,	r0	
     9e6:	5c 06       	rlam	#2,	r12	
     9e8:	66 06 01 00 	mova	r6,	&0x60001
     9ec:	5e 00       	rrcm	#1,	r14	
     9ee:	00 00       	bra	@r0		
     9f0:	00 66       	addc	r6,	r0	
     9f2:	06 68       	addc	r8,	r6	
     9f4:	06 02       	mova	#4,	r6	;r2 As==10
     9f6:	00 71       	subc	r1,	r0	
     9f8:	02 68       	addc	r8,	r2	
     9fa:	06 6a       	addc	r10,	r6	
     9fc:	06 02       	mova	#4,	r6	;r2 As==10
     9fe:	00 71       	subc	r1,	r0	
     a00:	04 6a       	addc	r10,	r4	
     a02:	06 6c       	addc	r12,	r6	
     a04:	06 02       	mova	#4,	r6	;r2 As==10
     a06:	00 71       	subc	r1,	r0	
     a08:	06 6c       	addc	r12,	r6	
     a0a:	06 6e       	addc	r14,	r6	
     a0c:	06 02       	mova	#4,	r6	;r2 As==10
     a0e:	00 71       	subc	r1,	r0	
     a10:	08 6e       	addc	r14,	r8	
     a12:	06 70       	subc	r0,	r6	
     a14:	06 02       	mova	#4,	r6	;r2 As==10
     a16:	00 71       	subc	r1,	r0	
     a18:	0a 70       	subc	r0,	r10	
     a1a:	06 08       	mova	@r8,	r6	
     a1c:	07 02       	mova	#4,	r7	;r2 As==10
     a1e:	00 71       	subc	r1,	r0	
     a20:	0c 00       	mova	@r0,	r12	
     a22:	00 00       	bra	@r0		
     a24:	00 66       	addc	r6,	r0	
     a26:	06 88       	sub	r8,	r6	
     a28:	06 01       	mova	@r1,	r6	
     a2a:	00 5f       	add	r15,	r0	
     a2c:	88 06 c8 06 	mova	#0x606c8,r8	
     a30:	01 00       	mova	@r0,	r1	
     a32:	5b 00       	rrcm	#1,	r11	
     a34:	00 00       	bra	@r0		
     a36:	00 7e       	subc	r14,	r0	
     a38:	06 8b       	sub	r11,	r6	
     a3a:	06 01       	mova	@r1,	r6	
     a3c:	00 5e       	add	r14,	r0	
     a3e:	96 06 9e 06 	cmpa	#0x6069e,r6	
     a42:	03 00       	.word	0x0003;	????	Illegal as address instr
     a44:	7e 02 9f 9e 	mova	r2,	-24929(r14);0x9e9f(r14)
     a48:	06 a5       	dadd	r5,	r6	
     a4a:	06 03       	mova	#2,	r6	;r3 As==10
     a4c:	00 7d       	subc	r13,	r0	
     a4e:	79 9f       	cmp.b	@r15+,	r9	
     a50:	c8 06       	mova	r6,	r8	
     a52:	ca 06       	mova	r6,	r10	
     a54:	02 00       	mova	@r0,	r2	
     a56:	30 9f       	cmp	@r15+,	r0	
     a58:	00 00       	bra	@r0		
     a5a:	00 00       	bra	@r0		
     a5c:	b0 06 c8 06 	suba	#0x606c8,r0	
     a60:	02 00       	mova	@r0,	r2	
     a62:	30 9f       	cmp	@r15+,	r0	
     a64:	00 00       	bra	@r0		
     a66:	00 00       	bra	@r0		
     a68:	ca 06       	mova	r6,	r10	
     a6a:	d9 06       	cmpa	r6,	r9	
     a6c:	02 00       	mova	@r0,	r2	
     a6e:	7b 00 f2 06 	mova	r0,	1778(r11);0x06f2(r11)
     a72:	f9 06       	suba	r6,	r9	
     a74:	02 00       	mova	@r0,	r2	
     a76:	7b 00 00 00 	mova	r0,	0(r11)	;0x0000(r11)
     a7a:	00 00       	bra	@r0		
     a7c:	a6 06 c8 06 	adda	#0x606c8,r6	
     a80:	02 00       	mova	@r0,	r2	
     a82:	31 9f       	cmp	@r15+,	r1	
     a84:	ea 06       	adda	r6,	r10	
     a86:	f0 06       	suba	r6,	r0	
     a88:	05 00       	mova	@r0,	r5	
     a8a:	7a 00 31 24 	mova	r0,	9265(r10);0x2431(r10)
     a8e:	9f f0 06 f2 	and	0xf206,	262(r15);PC rel. 0xffc98, 0x0106(r15)
     a92:	06 01 
     a94:	00 5a       	add	r10,	r0	
     a96:	fc 06       	suba	r6,	r12	
     a98:	04 07       	mova	@r7,	r4	
     a9a:	05 00       	mova	@r0,	r5	
     a9c:	7a 00 31 24 	mova	r0,	9265(r10);0x2431(r10)
     aa0:	9f 00 00 00 	cmpa	#0x00000,r15	
     aa4:	00 08       	bra	@r8		
     aa6:	07 10       	rrc	r7		
     aa8:	07 01       	mova	@r1,	r7	
     aaa:	00 5f       	add	r15,	r0	
     aac:	10 07       	bra	@r7+		
     aae:	41 07       	rrum.a	#2,	r1	
     ab0:	01 00       	mova	@r0,	r1	
     ab2:	5e 48 07 6b 	mov.b	27399(r8),r14	;0x6b07(r8)
     ab6:	07 01       	mova	@r1,	r7	
     ab8:	00 5e       	add	r14,	r0	
     aba:	00 00       	bra	@r0		
     abc:	00 00       	bra	@r0		
     abe:	6e 07 71 07 	mova	r7,	&0xe0771
     ac2:	01 00       	mova	@r0,	r1	
     ac4:	5f 00       	rrcm	#1,	r15	
     ac6:	00 00       	bra	@r0		
     ac8:	00 76       	subc	r6,	r0	
     aca:	07 78       	subc	r8,	r7	
     acc:	07 02       	mova	#4,	r7	;r2 As==10
     ace:	00 71       	subc	r1,	r0	
     ad0:	02 78       	subc	r8,	r2	
     ad2:	07 7a       	subc	r10,	r7	
     ad4:	07 02       	mova	#4,	r7	;r2 As==10
     ad6:	00 71       	subc	r1,	r0	
     ad8:	04 7a       	subc	r10,	r4	
     ada:	07 7c       	subc	r12,	r7	
     adc:	07 02       	mova	#4,	r7	;r2 As==10
     ade:	00 71       	subc	r1,	r0	
     ae0:	06 7c       	subc	r12,	r6	
     ae2:	07 7e       	subc	r14,	r7	
     ae4:	07 02       	mova	#4,	r7	;r2 As==10
     ae6:	00 71       	subc	r1,	r0	
     ae8:	08 7e       	subc	r14,	r8	
     aea:	07 80       	sub	r0,	r7	
     aec:	07 02       	mova	#4,	r7	;r2 As==10
     aee:	00 71       	subc	r1,	r0	
     af0:	0a 80       	sub	r0,	r10	
     af2:	07 a6       	dadd	r6,	r7	
     af4:	07 02       	mova	#4,	r7	;r2 As==10
     af6:	00 71       	subc	r1,	r0	
     af8:	0c a6       	dadd	r6,	r12	
     afa:	07 b4       	bit	r4,	r7	
     afc:	07 02       	mova	#4,	r7	;r2 As==10
     afe:	00 71       	subc	r1,	r0	
     b00:	0e b4       	bit	r4,	r14	
     b02:	07 c8       	bic	r8,	r7	
     b04:	07 02       	mova	#4,	r7	;r2 As==10
     b06:	00 71       	subc	r1,	r0	
     b08:	0c c8       	bic	r8,	r12	
     b0a:	07 d2       	bis	r2,	r7	
     b0c:	07 02       	mova	#4,	r7	;r2 As==10
     b0e:	00 71       	subc	r1,	r0	
     b10:	0e d2       	bis	r2,	r14	
     b12:	07 d6       	bis	r6,	r7	
     b14:	07 02       	mova	#4,	r7	;r2 As==10
     b16:	00 71       	subc	r1,	r0	
     b18:	0c d6       	bis	r6,	r12	
     b1a:	07 e8       	xor	r8,	r7	
     b1c:	07 02       	mova	#4,	r7	;r2 As==10
     b1e:	00 71       	subc	r1,	r0	
     b20:	0e e8       	xor	r8,	r14	
     b22:	07 02       	mova	#4,	r7	;r2 As==10
     b24:	08 02       	mova	#4,	r8	;r2 As==10
     b26:	00 71       	subc	r1,	r0	
     b28:	0c 00       	mova	@r0,	r12	
     b2a:	00 00       	bra	@r0		
     b2c:	00 76       	subc	r6,	r0	
     b2e:	07 cf       	bic	r15,	r7	
     b30:	07 01       	mova	@r1,	r7	
     b32:	00 5f       	add	r15,	r0	
     b34:	f4 07       	suba	r7,	r4	
     b36:	02 08       	mova	@r8,	r2	
     b38:	01 00       	mova	@r0,	r1	
     b3a:	5f 00       	rrcm	#1,	r15	
     b3c:	00 00       	bra	@r0		
     b3e:	00 76       	subc	r6,	r0	
     b40:	07 8a       	sub	r10,	r7	
     b42:	07 01       	mova	@r1,	r7	
     b44:	00 5e       	add	r14,	r0	
     b46:	8a 07 ec 07 	mova	#0x707ec,r10	
     b4a:	01 00       	mova	@r0,	r1	
     b4c:	58 f4 07 02 	and.b	519(r4),r8	;0x0207(r4)
     b50:	08 01       	mova	@r1,	r8	
     b52:	00 58       	add	r8,	r0	
     b54:	00 00       	bra	@r0		
     b56:	00 00       	bra	@r0		
     b58:	76 07 86 07 	mova	r7,	1926(r6);0x0786(r6)
     b5c:	01 00       	mova	@r0,	r1	
     b5e:	5d 86 07 ee 	sub.b	-4601(r6),r13	;0xee07(r6)
     b62:	07 01       	mova	@r1,	r7	
     b64:	00 59       	add	r9,	r0	
     b66:	f4 07       	suba	r7,	r4	
     b68:	02 08       	mova	@r8,	r2	
     b6a:	01 00       	mova	@r0,	r1	
     b6c:	59 00       	rrcm	#1,	r9	
     b6e:	00 00       	bra	@r0		
     b70:	00 76       	subc	r6,	r0	
     b72:	07 b6       	bit	r6,	r7	
     b74:	07 01       	mova	@r1,	r7	
     b76:	00 5c       	add	r12,	r0	
     b78:	f4 07       	suba	r7,	r4	
     b7a:	02 08       	mova	@r8,	r2	
     b7c:	01 00       	mova	@r0,	r1	
     b7e:	5c 00       	rrcm	#1,	r12	
     b80:	00 00       	bra	@r0		
     b82:	00 76       	subc	r6,	r0	
     b84:	07 9a       	cmp	r10,	r7	
     b86:	07 02       	mova	#4,	r7	;r2 As==10
     b88:	00 91       	cmp	r1,	r0	
     b8a:	10 f8 07 fa 	and	-1529(r8),r0	;0xfa07(r8)
     b8e:	07 02       	mova	#4,	r7	;r2 As==10
     b90:	00 91       	cmp	r1,	r0	
     b92:	10 00       	bra	#0x00000	
     b94:	00 00       	bra	@r0		
     b96:	00 02       	bra	#4		;r2 As==10
     b98:	08 04       	mova	@r4,	r8	
     b9a:	08 02       	mova	#4,	r8	;r2 As==10
     b9c:	00 71       	subc	r1,	r0	
     b9e:	02 04       	mova	@r4,	r2	
     ba0:	08 06       	mova	@r6,	r8	
     ba2:	08 02       	mova	#4,	r8	;r2 As==10
     ba4:	00 71       	subc	r1,	r0	
     ba6:	04 06       	mova	@r6,	r4	
     ba8:	08 46       	mov	r6,	r8	
     baa:	08 02       	mova	#4,	r8	;r2 As==10
     bac:	00 71       	subc	r1,	r0	
     bae:	06 00       	mova	@r0,	r6	
     bb0:	00 00       	bra	@r0		
     bb2:	00 02       	bra	#4		;r2 As==10
     bb4:	08 0e       	mova	@r14,	r8	
     bb6:	08 01       	mova	@r1,	r8	
     bb8:	00 5f       	add	r15,	r0	
     bba:	0e 08       	mova	@r8,	r14	
     bbc:	38 08 01 00 	mova	1(r8),	r8	;0x0001(r8)
     bc0:	5b 38       	jl	$+184    	;abs 0xc78
     bc2:	08 40       	mov	r0,	r8	
     bc4:	08 01       	mova	@r1,	r8	
     bc6:	00 5b       	add	r11,	r0	
     bc8:	42 08       	rrcm.a	#3,	r2	
     bca:	46 08       	rrcm.a	#3,	r6	
     bcc:	01 00       	mova	@r0,	r1	
     bce:	5b 00       	rrcm	#1,	r11	
     bd0:	00 00       	bra	@r0		
     bd2:	00 02       	bra	#4		;r2 As==10
     bd4:	08 0e       	mova	@r14,	r8	
     bd6:	08 01       	mova	@r1,	r8	
     bd8:	00 5e       	add	r14,	r0	
     bda:	0e 08       	mova	@r8,	r14	
     bdc:	3e 08 01 00 	mova	1(r8),	r14	;0x0001(r8)
     be0:	5a 42 08 46 	mov.b	&0x4608,r10	
     be4:	08 01       	mova	@r1,	r8	
     be6:	00 5a       	add	r10,	r0	
     be8:	00 00       	bra	@r0		
     bea:	00 00       	bra	@r0		
     bec:	14 08       	mova	@r8+,	r4	
     bee:	22 08 03 00 	mova	&0x80003,r2	
     bf2:	03 02       	.word	0x0203;	????	Illegal as address instr
     bf4:	11 22       	jnz	$-988    	;abs 0x818
     bf6:	08 2e       	jc	$-1006   	;abs 0x808
     bf8:	08 01       	mova	@r1,	r8	
     bfa:	00 5f       	add	r15,	r0	
     bfc:	42 08       	rrcm.a	#3,	r2	
     bfe:	44 08       	rrcm.a	#3,	r4	
     c00:	01 00       	mova	@r0,	r1	
     c02:	5f 44 08 46 	mov.b	17928(r4),r15	;0x4608(r4)
     c06:	08 03       	mova	#2,	r8	;r3 As==10
     c08:	00 03       	bra	#2		;r3 As==10
     c0a:	02 11       	rra	r2		
     c0c:	00 00       	bra	@r0		
     c0e:	00 00       	bra	@r0		
     c10:	14 08       	mova	@r8+,	r4	
     c12:	1c 08       	mova	@r8+,	r12	
     c14:	01 00       	mova	@r0,	r1	
     c16:	5b 1c       	.word	0x1c5b;	????	
     c18:	08 2e       	jc	$-1006   	;abs 0x82a
     c1a:	08 01       	mova	@r1,	r8	
     c1c:	00 5e       	add	r14,	r0	
     c1e:	42 08       	rrcm.a	#3,	r2	
     c20:	46 08       	rrcm.a	#3,	r6	
     c22:	01 00       	mova	@r0,	r1	
     c24:	5e 00       	rrcm	#1,	r14	
     c26:	00 00       	bra	@r0		
     c28:	00 12       	push	r0		
     c2a:	00 1a       	.word	0x1a00;	????	
     c2c:	00 01       	bra	@r1		
     c2e:	00 5f       	add	r15,	r0	
     c30:	1a 00       	mova	#0x00000,r10	
     c32:	1d 00       	mova	#0x00000,r13	
     c34:	01 00       	mova	@r0,	r1	
     c36:	5e 00       	rrcm	#1,	r14	
     c38:	00 00       	bra	@r0		
     c3a:	00 12       	push	r0		
     c3c:	00 16       	popm.a	#1,	r0	
     c3e:	00 01       	bra	@r1		
     c40:	00 5e       	add	r14,	r0	
     c42:	16 00       	mova	#0x00000,r6	
     c44:	1d 00       	mova	#0x00000,r13	
     c46:	01 00       	mova	@r0,	r1	
     c48:	5d 00       	rrcm	#1,	r13	
     c4a:	00 00       	bra	@r0		
     c4c:	00 00       	bra	@r0		
     c4e:	00 02       	bra	#4		;r2 As==10
     c50:	00 02       	bra	#4		;r2 As==10
     c52:	00 71       	subc	r1,	r0	
     c54:	02 02       	mova	#4,	r2	;r2 As==10
     c56:	00 04       	bra	@r4		
     c58:	00 02       	bra	#4		;r2 As==10
     c5a:	00 71       	subc	r1,	r0	
     c5c:	04 04       	mova	@r4,	r4	
     c5e:	00 06       	bra	@r6		
     c60:	00 02       	bra	#4		;r2 As==10
     c62:	00 71       	subc	r1,	r0	
     c64:	06 06       	mova	@r6,	r6	
     c66:	00 08       	bra	@r8		
     c68:	00 02       	bra	#4		;r2 As==10
     c6a:	00 71       	subc	r1,	r0	
     c6c:	08 08       	mova	@r8,	r8	
     c6e:	00 0a       	bra	@r10		
     c70:	00 02       	bra	#4		;r2 As==10
     c72:	00 71       	subc	r1,	r0	
     c74:	0a 0a       	mova	@r10,	r10	
     c76:	00 0c       	bra	@r12		
     c78:	00 02       	bra	#4		;r2 As==10
     c7a:	00 71       	subc	r1,	r0	
     c7c:	0c 0c       	mova	@r12,	r12	
     c7e:	00 0e       	bra	@r14		
     c80:	00 02       	bra	#4		;r2 As==10
     c82:	00 71       	subc	r1,	r0	
     c84:	0e 0e       	mova	@r14,	r14	
     c86:	00 10       	rrc	r0		
     c88:	00 02       	bra	#4		;r2 As==10
     c8a:	00 71       	subc	r1,	r0	
     c8c:	10 10 00 12 	rrc	0x1200		;PC rel. 0x01e90
     c90:	00 02       	bra	#4		;r2 As==10
     c92:	00 71       	subc	r1,	r0	
     c94:	12 12 00 04 	push	&0x0400	
     c98:	01 02       	mova	#4,	r1	;r2 As==10
     c9a:	00 71       	subc	r1,	r0	
     c9c:	14 00       	mova	#0x00000,r4	
     c9e:	00 00       	bra	@r0		
     ca0:	00 00       	bra	@r0		
     ca2:	00 1a       	.word	0x1a00;	????	
     ca4:	00 01       	bra	@r1		
     ca6:	00 5f       	add	r15,	r0	
     ca8:	1a 00       	mova	#0x00000,r10	
     caa:	00 01       	bra	@r1		
     cac:	01 00       	mova	@r0,	r1	
     cae:	5a 00       	rrcm	#1,	r10	
     cb0:	00 00       	bra	@r0		
     cb2:	00 00       	bra	@r0		
     cb4:	00 22       	jnz	$-1022   	;abs 0x8b6
     cb6:	00 01       	bra	@r1		
     cb8:	00 5e       	add	r14,	r0	
     cba:	22 00 d8 00 	mova	&0x000d8,r2	
     cbe:	01 00       	mova	@r0,	r1	
     cc0:	58 d8 00 fc 	bis.b	-1024(r8),r8	;0xfc00(r8)
     cc4:	00 01       	bra	@r1		
     cc6:	00 58       	add	r8,	r0	
     cc8:	00 00       	bra	@r0		
     cca:	00 00       	bra	@r0		
     ccc:	00 00       	bra	@r0		
     cce:	20 00 01 00 	bra	&0x00001	
     cd2:	5d 20       	jnz	$+188    	;abs 0xd8e
     cd4:	00 74       	subc	r4,	r0	
     cd6:	00 01       	bra	@r1		
     cd8:	00 57       	add	r7,	r0	
     cda:	74 00 78 00 	mova	r0,	120(r4)	;0x0078(r4)
     cde:	01 00       	mova	@r0,	r1	
     ce0:	57 78 00 fa 	subc.b	-1536(r8),r7	;0xfa00(r8)
     ce4:	00 01       	bra	@r1		
     ce6:	00 57       	add	r7,	r0	
     ce8:	00 00       	bra	@r0		
     cea:	00 00       	bra	@r0		
     cec:	00 00       	bra	@r0		
     cee:	1c 00       	mova	#0x00000,r12	
     cf0:	01 00       	mova	@r0,	r1	
     cf2:	5c 00       	rrcm	#1,	r12	
     cf4:	00 00       	bra	@r0		
     cf6:	00 1e 00 a4 	daddx	r4,	r0	
     cfa:	00 02       	bra	#4		;r2 As==10
     cfc:	00 30       	jn	$+2      	;abs 0xcfe
     cfe:	9f a4 00 ac 	dadd	-21504(r4),256(r15);0xac00(r4), 0x0100(r15)
     d02:	00 01 
     d04:	00 5b       	add	r11,	r0	
     d06:	ac 00 ae 00 	adda	#0x000ae,r12	
     d0a:	01 00       	mova	@r0,	r1	
     d0c:	5b ae 00 b4 	dadd.b	-19456(r14),r11	;0xb400(r14)
     d10:	00 01       	bra	@r1		
     d12:	00 5b       	add	r11,	r0	
     d14:	b4 00 b8 00 	suba	#0x000b8,r4	
     d18:	02 00       	mova	@r0,	r2	
     d1a:	30 9f       	cmp	@r15+,	r0	
     d1c:	bc 00 be 00 	suba	#0x000be,r12	
     d20:	01 00       	mova	@r0,	r1	
     d22:	5b be 00 c6 	bit.b	-14848(r14),r11	;0xc600(r14)
     d26:	00 01       	bra	@r1		
     d28:	00 5b       	add	r11,	r0	
     d2a:	c6 00       	mova	r0,	r6	
     d2c:	da 00       	cmpa	r0,	r10	
     d2e:	01 00       	mova	@r0,	r1	
     d30:	5b da 00 ea 	bis.b	-5632(r10),r11	;0xea00(r10)
     d34:	00 01       	bra	@r1		
     d36:	00 5b       	add	r11,	r0	
     d38:	ea 00       	adda	r0,	r10	
     d3a:	02 01       	mova	@r1,	r2	
     d3c:	01 00       	mova	@r0,	r1	
     d3e:	5b 02       	rlam	#1,	r11	
     d40:	01 04       	mova	@r4,	r1	
     d42:	01 01       	mova	@r1,	r1	
     d44:	00 5f       	add	r15,	r0	
     d46:	00 00       	bra	@r0		
     d48:	00 00       	bra	@r0		
     d4a:	1e 00       	mova	#0x00000,r14	
     d4c:	82 00 02 00 	mova	#0x00002,r2	
     d50:	30 9f       	cmp	@r15+,	r0	
     d52:	82 00 8c 00 	mova	#0x0008c,r2	
     d56:	01 00       	mova	@r0,	r1	
     d58:	59 8c 00 8e 	sub.b	-29184(r12),r9	;0x8e00(r12)
     d5c:	00 01       	bra	@r1		
     d5e:	00 59       	add	r9,	r0	
     d60:	8e 00 9a 00 	mova	#0x0009a,r14	
     d64:	01 00       	mova	@r0,	r1	
     d66:	59 9a 00 a4 	cmp.b	-23552(r10),r9	;0xa400(r10)
     d6a:	00 02       	bra	#4		;r2 As==10
     d6c:	00 30       	jn	$+2      	;abs 0xd6e
     d6e:	9f a4 00 ae 	dadd	-20992(r4),256(r15);0xae00(r4), 0x0100(r15)
     d72:	00 01 
     d74:	00 59       	add	r9,	r0	
     d76:	ae 00 b4 00 	adda	#0x000b4,r14	
     d7a:	01 00       	mova	@r0,	r1	
     d7c:	59 b4 00 b8 	bit.b	-18432(r4),r9	;0xb800(r4)
     d80:	00 02       	bra	#4		;r2 As==10
     d82:	00 30       	jn	$+2      	;abs 0xd84
     d84:	9f 00 00 00 	cmpa	#0x00000,r15	
     d88:	00 1e 00 f2 	andx	r2,	r0	
     d8c:	00 01       	bra	@r1		
     d8e:	00 51       	add	r1,	r0	
     d90:	f2 00       	suba	r0,	r2	
     d92:	04 01       	mova	@r1,	r4	
     d94:	03 00       	.word	0x0003;	????	Illegal as address instr
     d96:	91 6c 9f 00 	addc	159(r12),0(r1)	;0x009f(r12), 0x0000(r1)
     d9a:	00 00 
     d9c:	00 1e       	.word	0x1e00;	????	
     d9e:	00 2e       	jc	$-1022   	;abs 0x9a0
     da0:	00 01       	bra	@r1		
     da2:	00 51       	add	r1,	r0	
     da4:	2e 00 42 00 	mova	&0x00042,r14	
     da8:	03 00       	.word	0x0003;	????	Illegal as address instr
     daa:	91 6d 9f 42 	addc	17055(r13),18432(r1);0x429f(r13), 0x4800(r1)
     dae:	00 48 
     db0:	00 03       	bra	#2		;r3 As==10
     db2:	00 91       	cmp	r1,	r0	
     db4:	6e 9f       	cmp.b	@r15,	r14	
     db6:	48 00       	rrcm.a	#1,	r8	
     db8:	50 00       	rrcm	#1,	r0	
     dba:	01 00       	mova	@r0,	r1	
     dbc:	51 50 00 56 	add.b	0x5600,	r1	;PC rel. 0x063c0
     dc0:	00 03       	bra	#2		;r3 As==10
     dc2:	00 91       	cmp	r1,	r0	
     dc4:	6d 9f       	cmp.b	@r15,	r13	
     dc6:	56 00       	rrcm	#1,	r6	
     dc8:	58 00       	rrcm	#1,	r8	
     dca:	01 00       	mova	@r0,	r1	
     dcc:	51 58 00 5a 	add.b	23040(r8),r1	;0x5a00(r8)
     dd0:	00 01       	bra	@r1		
     dd2:	00 56       	add	r6,	r0	
     dd4:	00 00       	bra	@r0		
     dd6:	00 00       	bra	@r0		
     dd8:	5e 00       	rrcm	#1,	r14	
     dda:	a4 00 03 00 	adda	#0x00003,r4	
     dde:	08 20       	jnz	$+18     	;abs 0xdf0
     de0:	9f a4 00 ae 	dadd	-20992(r4),256(r15);0xae00(r4), 0x0100(r15)
     de4:	00 01 
     de6:	00 54       	add	r4,	r0	
     de8:	ae 00 b4 00 	adda	#0x000b4,r14	
     dec:	01 00       	mova	@r0,	r1	
     dee:	54 00       	rrcm	#1,	r4	
     df0:	00 00       	bra	@r0		
     df2:	00 6e       	addc	r14,	r0	
     df4:	00 ae       	dadd	r14,	r0	
     df6:	00 01       	bra	@r1		
     df8:	00 55       	add	r5,	r0	
     dfa:	ae 00 b4 00 	adda	#0x000b4,r14	
     dfe:	01 00       	mova	@r0,	r1	
     e00:	55 00       	rrcm	#1,	r5	
     e02:	00 00       	bra	@r0		
     e04:	00 0c       	bra	@r12		
     e06:	01 0e       	mova	@r14,	r1	
     e08:	01 02       	mova	#4,	r1	;r2 As==10
     e0a:	00 71       	subc	r1,	r0	
     e0c:	02 0e       	mova	@r14,	r2	
     e0e:	01 10       	rrc	r1		
     e10:	01 02       	mova	#4,	r1	;r2 As==10
     e12:	00 71       	subc	r1,	r0	
     e14:	04 10       	rrc	r4		
     e16:	01 12       	push	r1		
     e18:	01 02       	mova	#4,	r1	;r2 As==10
     e1a:	00 71       	subc	r1,	r0	
     e1c:	06 12       	push	r6		
     e1e:	01 14       	pushm.a	#1,	r1	
     e20:	01 02       	mova	#4,	r1	;r2 As==10
     e22:	00 71       	subc	r1,	r0	
     e24:	08 14       	pushm.a	#1,	r8	
     e26:	01 16       	popm.a	#1,	r1	
     e28:	01 02       	mova	#4,	r1	;r2 As==10
     e2a:	00 71       	subc	r1,	r0	
     e2c:	0a 16       	popm.a	#1,	r10	
     e2e:	01 18       	.word	0x1801;	????	
     e30:	01 02       	mova	#4,	r1	;r2 As==10
     e32:	00 71       	subc	r1,	r0	
     e34:	0c 18       	.word	0x180c;	????	
     e36:	01 1a       	.word	0x1a01;	????	
     e38:	01 02       	mova	#4,	r1	;r2 As==10
     e3a:	00 71       	subc	r1,	r0	
     e3c:	0e 1a       	.word	0x1a0e;	????	
     e3e:	01 1c       	.word	0x1c01;	????	
     e40:	01 02       	mova	#4,	r1	;r2 As==10
     e42:	00 71       	subc	r1,	r0	
     e44:	10 1c       	.word	0x1c10;	????	
     e46:	01 20       	jnz	$+4      	;abs 0xe4a
     e48:	01 02       	mova	#4,	r1	;r2 As==10
     e4a:	00 71       	subc	r1,	r0	
     e4c:	12 20       	jnz	$+38     	;abs 0xe72
     e4e:	01 76       	subc	r6,	r1	
     e50:	04 02       	mova	#4,	r4	;r2 As==10
     e52:	00 71       	subc	r1,	r0	
     e54:	34 00 00 00 	mova	0x0000,	r4	;PC rel. 0x00e56
     e58:	00 0c       	bra	@r12		
     e5a:	01 3c       	jmp	$+4      	;abs 0xe5e
     e5c:	01 01       	mova	@r1,	r1	
     e5e:	00 5f       	add	r15,	r0	
     e60:	3c 01 76 04 	mova	1142(r1),r12	;0x0476(r1)
     e64:	02 00       	mova	@r0,	r2	
     e66:	91 64 00 00 	addc	0(r4),	0(r1)	;0x0000(r4), 0x0000(r1)
     e6a:	00 00 
     e6c:	0c 01       	mova	@r1,	r12	
     e6e:	3c 01 01 00 	mova	1(r1),	r12	;0x0001(r1)
     e72:	5e 3c       	jmp	$+190    	;abs 0xf30
     e74:	01 60       	addc	r0,	r1	
     e76:	01 01       	mova	@r1,	r1	
     e78:	00 5f       	add	r15,	r0	
     e7a:	60 01 76 04 	mova	r1,	&0x00476
     e7e:	02 00       	mova	@r0,	r2	
     e80:	91 66 00 00 	addc	0(r6),	0(r1)	;0x0000(r6), 0x0000(r1)
     e84:	00 00 
     e86:	0c 01       	mova	@r1,	r12	
     e88:	3c 01 01 00 	mova	1(r1),	r12	;0x0001(r1)
     e8c:	5d 3c       	jmp	$+188    	;abs 0xf48
     e8e:	01 34       	jge	$+4      	;abs 0xe92
     e90:	02 02       	mova	#4,	r2	;r2 As==10
     e92:	00 91       	cmp	r1,	r0	
     e94:	5a 34       	jge	$+182    	;abs 0xf4a
     e96:	02 5a       	add	r10,	r2	
     e98:	02 01       	mova	@r1,	r2	
     e9a:	00 5c       	add	r12,	r0	
     e9c:	5a 02       	rlam	#1,	r10	
     e9e:	a2 02 02 00 	adda	#0x20002,r2	
     ea2:	91 5a a2 02 	add	674(r10),688(r1)	;0x02a2(r10), 0x02b0(r1)
     ea6:	b0 02 
     ea8:	06 00       	mova	@r0,	r6	
     eaa:	91 5a 06 23 	add	8966(r10),-24830(r1);0x2306(r10), 0x9f02(r1)
     eae:	02 9f 
     eb0:	b0 02 b6 02 	suba	#0x202b6,r0	
     eb4:	02 00       	mova	@r0,	r2	
     eb6:	91 5a b6 02 	add	694(r10),732(r1)	;0x02b6(r10), 0x02dc(r1)
     eba:	dc 02 
     ebc:	01 00       	mova	@r0,	r1	
     ebe:	5b dc 02 0a 	bis.b	2562(r12),r11	;0x0a02(r12)
     ec2:	03 06       	.word	0x0603;	????	Illegal as address instr
     ec4:	00 91       	cmp	r1,	r0	
     ec6:	5a 06       	rlam	#2,	r10	
     ec8:	23 02       	.word	0x0223;	????	Illegal as address instr
     eca:	9f 0a 03 28 	cmpa	#0xa2803,r15	
     ece:	03 02       	.word	0x0203;	????	Illegal as address instr
     ed0:	00 91       	cmp	r1,	r0	
     ed2:	5a 28       	jnc	$+182    	;abs 0xf88
     ed4:	03 3a       	jl	$-1016   	;abs 0xadc
     ed6:	03 06       	.word	0x0603;	????	Illegal as address instr
     ed8:	00 91       	cmp	r1,	r0	
     eda:	5a 06       	rlam	#2,	r10	
     edc:	23 04       	.word	0x0423;	????	Illegal as address instr
     ede:	9f 3a       	jl	$-704    	;abs 0xc1e
     ee0:	03 46       	.word	0x4603;	????	Illegal as 2-op instr
     ee2:	03 02       	.word	0x0203;	????	Illegal as address instr
     ee4:	00 91       	cmp	r1,	r0	
     ee6:	5a 46 03 58 	mov.b	22531(r6),r10	;0x5803(r6)
     eea:	03 01       	.word	0x0103;	????	Illegal as address instr
     eec:	00 5a       	add	r10,	r0	
     eee:	58 03       	rrum	#1,	r8	
     ef0:	64 03 01 00 	mova	#0,	&0x40001;r3 As==00
     ef4:	5a 64 03 76 	addc.b	30211(r4),r10	;0x7603(r4)
     ef8:	04 02       	mova	#4,	r4	;r2 As==10
     efa:	00 91       	cmp	r1,	r0	
     efc:	5a 00       	rrcm	#1,	r10	
     efe:	00 00       	bra	@r0		
     f00:	00 2c       	jc	$+2      	;abs 0xf02
     f02:	01 3c       	jmp	$+4      	;abs 0xf06
     f04:	01 02       	mova	#4,	r1	;r2 As==10
     f06:	00 30       	jn	$+2      	;abs 0xf08
     f08:	9f 3c       	jmp	$+320    	;abs 0x1048
     f0a:	01 4e       	mov	r14,	r1	
     f0c:	04 02       	mova	#4,	r4	;r2 As==10
     f0e:	00 91       	cmp	r1,	r0	
     f10:	5e 4e 04 76 	mov.b	30212(r14),r14	;0x7604(r14)
     f14:	04 02       	mova	#4,	r4	;r2 As==10
     f16:	00 91       	cmp	r1,	r0	
     f18:	5e 00       	rrcm	#1,	r14	
     f1a:	00 00       	bra	@r0		
     f1c:	00 2c       	jc	$+2      	;abs 0xf1e
     f1e:	01 3c       	jmp	$+4      	;abs 0xf22
     f20:	01 02       	mova	#4,	r1	;r2 As==10
     f22:	00 30       	jn	$+2      	;abs 0xf24
     f24:	9f 3c       	jmp	$+320    	;abs 0x1064
     f26:	01 4e       	mov	r14,	r1	
     f28:	01 01       	mova	@r1,	r1	
     f2a:	00 5a       	add	r10,	r0	
     f2c:	4e 01       	rram.a	#1,	r14	
     f2e:	56 01       	rram	#1,	r6	
     f30:	02 00       	mova	@r0,	r2	
     f32:	31 9f       	cmp	@r15+,	r1	
     f34:	56 01       	rram	#1,	r6	
     f36:	66 02 01 00 	mova	r2,	&0x60001
     f3a:	5a a2 02 d6 	dadd.b	&0xd602,r10	
     f3e:	02 01       	mova	@r1,	r2	
     f40:	00 5a       	add	r10,	r0	
     f42:	d6 02       	cmpa	r2,	r6	
     f44:	dc 02       	cmpa	r2,	r12	
     f46:	02 00       	mova	@r0,	r2	
     f48:	30 9f       	cmp	@r15+,	r0	
     f4a:	dc 02       	cmpa	r2,	r12	
     f4c:	40 03       	rrum.a	#1,	r0	
     f4e:	01 00       	mova	@r0,	r1	
     f50:	5a 36       	jge	$-842    	;abs 0xc06
     f52:	04 38       	jl	$+10     	;abs 0xf5c
     f54:	04 02       	mova	#4,	r4	;r2 As==10
     f56:	00 30       	jn	$+2      	;abs 0xf58
     f58:	9f 38       	jl	$+320    	;abs 0x1098
     f5a:	04 44       	mov	r4,	r4	
     f5c:	04 01       	mova	@r1,	r4	
     f5e:	00 5a       	add	r10,	r0	
     f60:	44 04       	rrcm.a	#2,	r4	
     f62:	48 04       	rrcm.a	#2,	r8	
     f64:	02 00       	mova	@r0,	r2	
     f66:	30 9f       	cmp	@r15+,	r0	
     f68:	4a 04       	rrcm.a	#2,	r10	
     f6a:	4e 04       	rrcm.a	#2,	r14	
     f6c:	01 00       	mova	@r0,	r1	
     f6e:	5a 4e 04 72 	mov.b	29188(r14),r10	;0x7204(r14)
     f72:	04 01       	mova	@r1,	r4	
     f74:	00 5a       	add	r10,	r0	
     f76:	00 00       	bra	@r0		
     f78:	00 00       	bra	@r0		
     f7a:	2c 01 3c 01 	mova	&0x1013c,r12	
     f7e:	02 00       	mova	@r0,	r2	
     f80:	30 9f       	cmp	@r15+,	r0	
     f82:	3c 01 4a 01 	mova	330(r1),r12	;0x014a(r1)
     f86:	02 00       	mova	@r0,	r2	
     f88:	91 5c 4a 01 	add	330(r12),342(r1)	;0x014a(r12), 0x0156(r1)
     f8c:	56 01 
     f8e:	02 00       	mova	@r0,	r2	
     f90:	30 9f       	cmp	@r15+,	r0	
     f92:	56 01       	rram	#1,	r6	
     f94:	42 02       	rlam.a	#1,	r2	
     f96:	02 00       	mova	@r0,	r2	
     f98:	91 5c 42 02 	add	578(r12),580(r1)	;0x0242(r12), 0x0244(r1)
     f9c:	44 02 
     f9e:	03 00       	.word	0x0003;	????	Illegal as address instr
     fa0:	91 5a 06 44 	add	17414(r10),-28158(r1);0x4406(r10), 0x9202(r1)
     fa4:	02 92 
     fa6:	02 02       	mova	#4,	r2	;r2 As==10
     fa8:	00 91       	cmp	r1,	r0	
     faa:	5c 92 02 a0 	cmp.b	&0xa002,r12	
     fae:	02 01       	mova	@r1,	r2	
     fb0:	00 5b       	add	r11,	r0	
     fb2:	a0 02 48 04 	adda	#0x20448,r0	
     fb6:	02 00       	mova	@r0,	r2	
     fb8:	91 5c 4a 04 	add	1098(r12),1102(r1);0x044a(r12), 0x044e(r1)
     fbc:	4e 04 
     fbe:	02 00       	mova	@r0,	r2	
     fc0:	91 5c 4e 04 	add	1102(r12),1142(r1);0x044e(r12), 0x0476(r1)
     fc4:	76 04 
     fc6:	02 00       	mova	@r0,	r2	
     fc8:	91 5c 00 00 	add	0(r12),	0(r1)	;0x0000(r12), 0x0000(r1)
     fcc:	00 00 
     fce:	bc 02 d1 02 	suba	#0x202d1,r12	
     fd2:	03 00       	.word	0x0003;	????	Illegal as address instr
     fd4:	91 5a 06 9a 	add	-26106(r10),-25085(r1);0x9a06(r10), 0x9e03(r1)
     fd8:	03 9e 
     fda:	03 03       	.word	0x0303;	????	Illegal as address instr
     fdc:	00 91       	cmp	r1,	r0	
     fde:	59 9f 9e 03 	cmp.b	926(r15),r9	;0x039e(r15)
     fe2:	bc 03 03 00 	suba	#0x30003,r12	
     fe6:	91 58 9f c4 	add	-15201(r8),-10749(r1);0xc49f(r8), 0xd603(r1)
     fea:	03 d6 
     fec:	03 01       	.word	0x0103;	????	Illegal as address instr
     fee:	00 5f       	add	r15,	r0	
     ff0:	d6 03       	tsta	r6		
     ff2:	e2 03       	incda	r2		
     ff4:	02 00       	mova	@r0,	r2	
     ff6:	91 6c e2 03 	addc	994(r12),996(r1)	;0x03e2(r12), 0x03e4(r1)
     ffa:	e4 03 
     ffc:	01 00       	mova	@r0,	r1	
     ffe:	57 e4 03 fa 	xor.b	-1533(r4),r7	;0xfa03(r4)
    1002:	03 02       	.word	0x0203;	????	Illegal as address instr
    1004:	00 91       	cmp	r1,	r0	
    1006:	6c 00 00 00 	mova	r0,	&0xc0000
    100a:	00 3c       	jmp	$+2      	;abs 0x100c
    100c:	01 3a       	jl	$-1020   	;abs 0xc10
    100e:	02 01       	mova	@r1,	r2	
    1010:	00 5e       	add	r14,	r0	
    1012:	3a 02 a8 02 	mova	&0x02a8,r10	
    1016:	03 00       	.word	0x0003;	????	Illegal as address instr
    1018:	91 66 06 a8 	addc	-22522(r6),-20478(r1);0xa806(r6), 0xb002(r1)
    101c:	02 b0 
    101e:	02 03       	mova	#2,	r2	;r3 As==10
    1020:	00 91       	cmp	r1,	r0	
    1022:	5a 06       	rlam	#2,	r10	
    1024:	b0 02 d1 02 	suba	#0x202d1,r0	
    1028:	03 00       	.word	0x0003;	????	Illegal as address instr
    102a:	91 66 06 dc 	addc	-9210(r6),-17406(r1);0xdc06(r6), 0xbc02(r1)
    102e:	02 bc 
    1030:	03 01       	.word	0x0103;	????	Illegal as address instr
    1032:	00 5e       	add	r14,	r0	
    1034:	bc 03 31 04 	suba	#0x30431,r12	
    1038:	03 00       	.word	0x0003;	????	Illegal as address instr
    103a:	91 66 06 38 	addc	14342(r6),14852(r1);0x3806(r6), 0x3a04(r1)
    103e:	04 3a 
    1040:	04 01       	mova	@r1,	r4	
    1042:	00 5e       	add	r14,	r0	
    1044:	48 04       	rrcm.a	#2,	r8	
    1046:	4a 04       	rrcm.a	#2,	r10	
    1048:	03 00       	.word	0x0003;	????	Illegal as address instr
    104a:	91 66 06 54 	addc	21510(r6),30212(r1);0x5406(r6), 0x7604(r1)
    104e:	04 76 
    1050:	04 03       	mova	#2,	r4	;r3 As==10
    1052:	00 91       	cmp	r1,	r0	
    1054:	66 06 00 00 	mova	r6,	&0x60000
    1058:	00 00       	bra	@r0		
    105a:	00 03       	bra	#2		;r3 As==10
    105c:	0a 03       	mova	#2,	r10	;r3 As==10
    105e:	02 00       	mova	@r0,	r2	
    1060:	40 9f       	cmp.b	r15,	r0	
    1062:	20 03 6a 03 	bra	&0x3036a	
    1066:	01 00       	mova	@r0,	r1	
    1068:	54 00       	rrcm	#1,	r4	
    106a:	00 00       	bra	@r0		
    106c:	00 f4       	and	r4,	r0	
    106e:	02 00       	mova	@r0,	r2	
    1070:	03 02       	.word	0x0203;	????	Illegal as address instr
    1072:	00 91       	cmp	r1,	r0	
    1074:	60 00 03 0a 	mova	r0,	&0x00a03
    1078:	03 06       	.word	0x0603;	????	Illegal as address instr
    107a:	00 55       	add	r5,	r0	
    107c:	93 02       	.word	0x0293;	????	Illegal as address instr
    107e:	56 93       	cmp.b	#1,	r6	;r3 As==01
    1080:	02 32       	jn	$-1018   	;abs 0xc86
    1082:	03 3a       	jl	$-1016   	;abs 0xc8a
    1084:	03 03       	.word	0x0303;	????	Illegal as address instr
    1086:	00 91       	cmp	r1,	r0	
    1088:	5a 06       	rlam	#2,	r10	
    108a:	56 03       	rrum	#1,	r6	
    108c:	58 03       	rrum	#1,	r8	
    108e:	06 00       	mova	@r0,	r6	
    1090:	55 93       	cmp.b	#1,	r5	;r3 As==01
    1092:	02 56       	add	r6,	r2	
    1094:	93 02       	.word	0x0293;	????	Illegal as address instr
    1096:	60 03 96 03 	mova	#0,	&0x00396;r3 As==00
    109a:	06 00       	mova	@r0,	r6	
    109c:	55 93       	cmp.b	#1,	r5	;r3 As==01
    109e:	02 56       	add	r6,	r2	
    10a0:	93 02       	.word	0x0293;	????	Illegal as address instr
    10a2:	9a 03 0c 04 	cmpa	#0x3040c,r10	
    10a6:	06 00       	mova	@r0,	r6	
    10a8:	55 93       	cmp.b	#1,	r5	;r3 As==01
    10aa:	02 56       	add	r6,	r2	
    10ac:	93 02       	.word	0x0293;	????	Illegal as address instr
    10ae:	0c 04       	mova	@r4,	r12	
    10b0:	22 04 06 00 	mova	&0x40006,r2	
    10b4:	5c 93       	cmp.b	#1,	r12	;r3 As==01
    10b6:	02 5d       	add	r13,	r2	
    10b8:	93 02       	.word	0x0293;	????	Illegal as address instr
    10ba:	22 04 38 04 	mova	&0x40438,r2	
    10be:	06 00       	mova	@r0,	r6	
    10c0:	55 93       	cmp.b	#1,	r5	;r3 As==01
    10c2:	02 56       	add	r6,	r2	
    10c4:	93 02       	.word	0x0293;	????	Illegal as address instr
    10c6:	00 00       	bra	@r0		
    10c8:	00 00       	bra	@r0		
    10ca:	3a 02 5a 02 	mova	&0x025a,r10	
    10ce:	03 00       	.word	0x0003;	????	Illegal as address instr
    10d0:	91 5a 06 00 	add	6(r10),	0(r1)	;0x0006(r10), 0x0000(r1)
    10d4:	00 00 
    10d6:	00 d2       	bis	r2,	r0	
    10d8:	03 de       	.word	0xde03;	????	Illegal as 2-op instr
    10da:	03 01       	.word	0x0103;	????	Illegal as address instr
    10dc:	00 5e       	add	r14,	r0	
    10de:	e4 03       	incda	r4		
    10e0:	fa 03       	decda	r10		
    10e2:	01 00       	mova	@r0,	r1	
    10e4:	5e 00       	rrcm	#1,	r14	
    10e6:	00 00       	bra	@r0		
	...

Disassembly of section .debug_pubtypes:

00000000 <.debug_pubtypes>:
   0:	0e 00       	mova	@r0,	r14	
   2:	00 00       	bra	@r0		
   4:	02 00       	mova	@r0,	r2	
   6:	00 00       	bra	@r0		
   8:	00 00       	bra	@r0		
   a:	f0 00       	suba	r0,	r0	
   c:	00 00       	bra	@r0		
   e:	00 00       	bra	@r0		
  10:	00 00       	bra	@r0		
  12:	1d 00       	mova	#0x00000,r13	
  14:	00 00       	bra	@r0		
  16:	02 00       	mova	@r0,	r2	
  18:	bf 01 00 00 	suba	#0x10000,r15	
  1c:	70 03 00 00 	mova	#0,	0x0000	;r3 As==00, PC rel. 0x0001e
  20:	78 00 00 00 	mova	r0,	0(r8)	;0x0000(r8)
  24:	49 32       	jn	$-876    	;abs 0xfcb8
  26:	43 5f       	.word	0x5f43;	????	Illegal as 2-op instr
  28:	53 54       	.word	0x5453;	????	Illegal as 2-op instr
  2a:	41 54       	add.b	r4,	r1	
  2c:	55 53       	inc.b	r5		
  2e:	00 00       	bra	@r0		
  30:	00 00       	bra	@r0		
  32:	00 0e       	bra	@r14		
  34:	00 00       	bra	@r0		
  36:	00 02       	bra	#4		;r2 As==10
  38:	00 2f       	jc	$-510    	;abs 0xfe3a
  3a:	05 00       	mova	@r0,	r5	
  3c:	00 7e       	subc	r14,	r0	
  3e:	07 00       	mova	@r0,	r7	
  40:	00 00       	bra	@r0		
  42:	00 00       	bra	@r0		
  44:	00 0e       	bra	@r14		
  46:	00 00       	bra	@r0		
  48:	00 02       	bra	#4		;r2 As==10
  4a:	00 ad       	dadd	r13,	r0	
  4c:	0c 00       	mova	@r0,	r12	
  4e:	00 6c       	addc	r12,	r0	
  50:	01 00       	mova	@r0,	r1	
  52:	00 00       	bra	@r0		
  54:	00 00       	bra	@r0		
  56:	00 2d       	jc	$+514    	;abs 0x258
  58:	00 00       	bra	@r0		
  5a:	00 02       	bra	#4		;r2 As==10
  5c:	00 19       	.word	0x1900;	????	
  5e:	0e 00       	mova	@r0,	r14	
  60:	00 03       	bra	#2		;r3 As==10
  62:	01 00       	mova	@r0,	r1	
  64:	00 72       	subc	r2,	r0	
  66:	00 00       	bra	@r0		
  68:	00 5f       	add	r15,	r0	
  6a:	5f 67 6e 75 	addc.b	30062(r7),r15	;0x756e(r7)
  6e:	63 5f       	.word	0x5f63;	????	Illegal as 2-op instr
  70:	76 61       	addc.b	@r1+,	r6	
  72:	5f 6c 69 73 	addc.b	29545(r12),r15	;0x7369(r12)
  76:	74 00 83 00 	mova	r0,	131(r4)	;0x0083(r4)
  7a:	00 00       	bra	@r0		
  7c:	76 61       	addc.b	@r1+,	r6	
  7e:	5f 6c 69 73 	addc.b	29545(r12),r15	;0x7369(r12)
  82:	74 00 00 00 	mova	r0,	0(r4)	;0x0000(r4)
  86:	00 00       	bra	@r0		
  88:	52 00       	rrcm	#1,	r2	
  8a:	00 00       	bra	@r0		
  8c:	02 00       	mova	@r0,	r2	
  8e:	1c 0f       	mova	@r15+,	r12	
  90:	00 00       	bra	@r0		
  92:	b5 03 00 00 	suba	#0x30000,r5	
  96:	3d 00 00 00 	mova	0x0000,	r13	;PC rel. 0x00098
  9a:	69 6e       	addc.b	@r14,	r9	
  9c:	74 31       	jn	$+746    	;abs 0x386
  9e:	36 5f       	add	@r15+,	r6	
  a0:	74 00 64 00 	mova	r0,	100(r4)	;0x0064(r4)
  a4:	00 00       	bra	@r0		
  a6:	69 6e       	addc.b	@r14,	r9	
  a8:	74 70 74 72 	subc.b	#29300,	r4	;#0x7274
  ac:	5f 74 00 8e 	subc.b	-29184(r4),r15	;0x8e00(r4)
  b0:	00 00       	bra	@r0		
  b2:	00 5f       	add	r15,	r0	
  b4:	5f 67 6e 75 	addc.b	30062(r7),r15	;0x756e(r7)
  b8:	63 5f       	.word	0x5f63;	????	Illegal as 2-op instr
  ba:	76 61       	addc.b	@r1+,	r6	
  bc:	5f 6c 69 73 	addc.b	29545(r12),r15	;0x7369(r12)
  c0:	74 00 9f 00 	mova	r0,	159(r4)	;0x009f(r4)
  c4:	00 00       	bra	@r0		
  c6:	76 61       	addc.b	@r1+,	r6	
  c8:	5f 6c 69 73 	addc.b	29545(r12),r15	;0x7369(r12)
  cc:	74 00 38 01 	mova	r0,	312(r4)	;0x0138(r4)
  d0:	00 00       	bra	@r0		
  d2:	66 6c       	addc.b	@r12,	r6	
  d4:	61 67       	addc.b	@r7,	r1	
  d6:	73 5f       	.word	0x5f73;	????	Illegal as 2-op instr
  d8:	74 00 00 00 	mova	r0,	0(r4)	;0x0000(r4)
	...

Disassembly of section .debug_ranges:

00000000 <.debug_ranges>:
   0:	38 31       	jn	$+626    	;abs 0x272
   2:	a8 33       	jn	$-174    	;abs 0xff54
   4:	00 00       	bra	@r0		
   6:	00 00       	bra	@r0		
   8:	28 07 3c 07 	mova	&0x7073c,r8	
   c:	62 07 68 07 	mova	r7,	&0x20768
  10:	00 00       	bra	@r0		
  12:	00 00       	bra	@r0		
  14:	9a 07 e8 07 	cmpa	#0x707e8,r10	
  18:	fa 07       	suba	r7,	r10	
  1a:	02 08       	mova	@r8,	r2	
  1c:	f4 07       	suba	r7,	r4	
  1e:	f8 07       	suba	r7,	r8	
  20:	00 00       	bra	@r0		
  22:	00 00       	bra	@r0		
  24:	14 08       	mova	@r8+,	r4	
  26:	2a 08 42 08 	mova	&0x80842,r10	
  2a:	46 08       	rrcm.a	#3,	r6	
  2c:	00 00       	bra	@r0		
  2e:	00 00       	bra	@r0		
  30:	5e 00       	rrcm	#1,	r14	
  32:	b4 00 b8 00 	suba	#0x000b8,r4	
  36:	bc 00 00 00 	suba	#0x00000,r12	
	...
