
main.o:     file format elf32-msp430


Disassembly of section .text:

00003100 <__init_stack>:
    3100:	31 40 00 31 	mov	#12544,	r1	;#0x3100

00003104 <__low_level_init>:
    3104:	15 42 20 01 	mov	&0x0120,r5	
    3108:	75 f3       	and.b	#-1,	r5	;r3 As==11
    310a:	35 d0 08 5a 	bis	#23048,	r5	;#0x5a08

0000310e <__do_copy_data>:
    310e:	3f 40 02 00 	mov	#2,	r15	;#0x0002
    3112:	0f 93       	tst	r15		
    3114:	07 24       	jz	$+16     	;abs 0x3124
    3116:	82 45 20 01 	mov	r5,	&0x0120	
    311a:	2f 83       	decd	r15		
    311c:	9f 4f ca 43 	mov	17354(r15),4352(r15);0x43ca(r15), 0x1100(r15)
    3120:	00 11 
    3122:	f9 23       	jnz	$-12     	;abs 0x3116

00003124 <__do_clear_bss>:
    3124:	3f 40 06 00 	mov	#6,	r15	;#0x0006
    3128:	0f 93       	tst	r15		
    312a:	06 24       	jz	$+14     	;abs 0x3138
    312c:	82 45 20 01 	mov	r5,	&0x0120	
    3130:	1f 83       	dec	r15		
    3132:	cf 43 02 11 	mov.b	#0,	4354(r15);r3 As==00, 0x1102(r15)
    3136:	fa 23       	jnz	$-10     	;abs 0x312c

00003138 <main>:
ITG3200 config:
8kHz
256Hz lowpass
*/

int main(void){
    3138:	21 83       	decd	r1		
    // enderecos 7 bits
    unsigned char ITG3200_I2CAddress = 0x68;
    unsigned char EEPROM_I2CAddress = 0x50;
    unsigned char HMC5843_I2CAddress = 0x1E;
    
    unsigned char Data = 0;
    313a:	c1 43 00 00 	mov.b	#0,	0(r1)	;r3 As==00, 0x0000(r1)

    hardware_setup();
    313e:	b0 12 8c 3e 	call	#0x3e8c	
    
    lcd_init(LCDBackColor);
    3142:	5f 42 00 11 	mov.b	&0x1100,r15	
    3146:	b0 12 06 35 	call	#0x3506	
         
    //i2c_write_register(0x00, 0x18, HMC5843_I2CAddress);
    delayms(100);
    314a:	3f 40 64 00 	mov	#100,	r15	;#0x0064
    314e:	b0 12 4e 32 	call	#0x324e	
    
    //i2c_write_register(0x02, 0x00, HMC5843_I2CAddress);
    delayms(100);
    3152:	3f 40 64 00 	mov	#100,	r15	;#0x0064
    3156:	b0 12 4e 32 	call	#0x324e	
    
    // i2c test
    while(1){
        
        lcd_goto(0,0);
    315a:	4e 43       	clr.b	r14		
    315c:	4f 4e       	mov.b	r14,	r15	
    315e:	b0 12 fa 39 	call	#0x39fa	
        printf("%X\n", UCB0STAT);        
    3162:	5f 42 6d 00 	mov.b	&0x006d,r15	
    3166:	0f 12       	push	r15		
    3168:	30 12 0e 32 	push	#12814		;#0x320e
    316c:	b0 12 b6 3e 	call	#0x3eb6	
    3170:	21 52       	add	#4,	r1	;r2 As==10
        delayms(1);
    3172:	1f 43       	mov	#1,	r15	;r3 As==01
    3174:	b0 12 4e 32 	call	#0x324e	
        
        i2c_read_register(0, &Data, HMC5843_I2CAddress);
    3178:	7d 40 1e 00 	mov.b	#30,	r13	;#0x001e
    317c:	0e 41       	mov	r1,	r14	
    317e:	4f 43       	clr.b	r15		
    3180:	b0 12 46 33 	call	#0x3346	
        printf("00: %02X\n", Data);
    3184:	6f 41       	mov.b	@r1,	r15	
    3186:	0f 12       	push	r15		
    3188:	30 12 12 32 	push	#12818		;#0x3212
    318c:	b0 12 b6 3e 	call	#0x3eb6	
    3190:	21 52       	add	#4,	r1	;r2 As==10
        delayms(I2C_INTERVAL);
    3192:	3f 40 64 00 	mov	#100,	r15	;#0x0064
    3196:	b0 12 4e 32 	call	#0x324e	
        
        i2c_read_register(1, &Data, HMC5843_I2CAddress);
    319a:	7d 40 1e 00 	mov.b	#30,	r13	;#0x001e
    319e:	0e 41       	mov	r1,	r14	
    31a0:	5f 43       	mov.b	#1,	r15	;r3 As==01
    31a2:	b0 12 46 33 	call	#0x3346	
        printf("01: %02X\n", Data);
    31a6:	6f 41       	mov.b	@r1,	r15	
    31a8:	0f 12       	push	r15		
    31aa:	30 12 1c 32 	push	#12828		;#0x321c
    31ae:	b0 12 b6 3e 	call	#0x3eb6	
    31b2:	21 52       	add	#4,	r1	;r2 As==10
        delayms(I2C_INTERVAL);
    31b4:	3f 40 64 00 	mov	#100,	r15	;#0x0064
    31b8:	b0 12 4e 32 	call	#0x324e	
        
        i2c_read_register(2, &Data, HMC5843_I2CAddress);
    31bc:	7d 40 1e 00 	mov.b	#30,	r13	;#0x001e
    31c0:	0e 41       	mov	r1,	r14	
    31c2:	6f 43       	mov.b	#2,	r15	;r3 As==10
    31c4:	b0 12 46 33 	call	#0x3346	
        printf("02: %02X\n", Data);
    31c8:	6f 41       	mov.b	@r1,	r15	
    31ca:	0f 12       	push	r15		
    31cc:	30 12 26 32 	push	#12838		;#0x3226
    31d0:	b0 12 b6 3e 	call	#0x3eb6	
    31d4:	21 52       	add	#4,	r1	;r2 As==10
        delayms(I2C_INTERVAL);
    31d6:	3f 40 64 00 	mov	#100,	r15	;#0x0064
    31da:	b0 12 4e 32 	call	#0x324e	
        
        i2c_read_register(3, &Data, HMC5843_I2CAddress);
    31de:	7d 40 1e 00 	mov.b	#30,	r13	;#0x001e
    31e2:	0e 41       	mov	r1,	r14	
    31e4:	7f 40 03 00 	mov.b	#3,	r15	;#0x0003
    31e8:	b0 12 46 33 	call	#0x3346	
        printf("03: %02X\n", Data);
    31ec:	6f 41       	mov.b	@r1,	r15	
    31ee:	0f 12       	push	r15		
    31f0:	30 12 30 32 	push	#12848		;#0x3230
    31f4:	b0 12 b6 3e 	call	#0x3eb6	
    31f8:	21 52       	add	#4,	r1	;r2 As==10
        delayms(I2C_INTERVAL);
    31fa:	3f 40 64 00 	mov	#100,	r15	;#0x0064
    31fe:	b0 12 4e 32 	call	#0x324e	
    3202:	ab 3f       	jmp	$-168    	;abs 0x315a

00003204 <__stop_progExec__>:
    3204:	32 d0 f0 00 	bis	#240,	r2	;#0x00f0
    3208:	fd 3f       	jmp	$-4      	;abs 0x3204

0000320a <__ctors_end>:
    320a:	30 40 c8 43 	br	#0x43c8	
    320e:	25 58       	add	@r8,	r5	
    3210:	0a 00       	mova	@r0,	r10	
    3212:	30 30       	jn	$+98     	;abs 0x3274
    3214:	3a 20       	jnz	$+118    	;abs 0x328a
    3216:	25 30       	jn	$+76     	;abs 0x3262
    3218:	32 58       	add	@r8+,	r2	
    321a:	0a 00       	mova	@r0,	r10	
    321c:	30 31       	jn	$+610    	;abs 0x347e
    321e:	3a 20       	jnz	$+118    	;abs 0x3294
    3220:	25 30       	jn	$+76     	;abs 0x326c
    3222:	32 58       	add	@r8+,	r2	
    3224:	0a 00       	mova	@r0,	r10	
    3226:	30 32       	jn	$-926    	;abs 0x2e88
    3228:	3a 20       	jnz	$+118    	;abs 0x329e
    322a:	25 30       	jn	$+76     	;abs 0x3276
    322c:	32 58       	add	@r8+,	r2	
    322e:	0a 00       	mova	@r0,	r10	
    3230:	30 33       	jn	$-414    	;abs 0x3092
    3232:	3a 20       	jnz	$+118    	;abs 0x32a8
    3234:	25 30       	jn	$+76     	;abs 0x3280
    3236:	32 58       	add	@r8+,	r2	
    3238:	0a 00       	mova	@r0,	r10	

0000323a <delay2us>:
    323a:	30 41       	ret			

0000323c <delay5us>:
    323c:	30 41       	ret			

0000323e <delayus>:
    323e:	0f 93       	tst	r15		
    3240:	05 24       	jz	$+12     	;abs 0x324c
    3242:	0e 43       	clr	r14		
    3244:	03 43       	nop			
    3246:	1e 53       	inc	r14		
    3248:	0e 9f       	cmp	r15,	r14	
    324a:	fc 2b       	jnc	$-6      	;abs 0x3244
    324c:	30 41       	ret			

0000324e <delayms>:
    324e:	0b 12       	push	r11		
    3250:	0a 12       	push	r10		
    3252:	0a 4f       	mov	r15,	r10	
    3254:	0f 93       	tst	r15		
    3256:	08 24       	jz	$+18     	;abs 0x3268
    3258:	0b 43       	clr	r11		
    325a:	3f 40 5c 0d 	mov	#3420,	r15	;#0x0d5c
    325e:	b0 12 3e 32 	call	#0x323e	
    3262:	1b 53       	inc	r11		
    3264:	0b 9a       	cmp	r10,	r11	
    3266:	f9 2b       	jnc	$-12     	;abs 0x325a
    3268:	3a 41       	pop	r10		
    326a:	3b 41       	pop	r11		
    326c:	30 41       	ret			

0000326e <i2c_init_module>:
    326e:	d2 43 69 00 	mov.b	#1,	&0x0069	;r3 As==01
    3272:	f2 40 a0 ff 	mov.b	#-96,	&0x006a	;#0xffa0
    3276:	6a 00 
    3278:	c2 43 6b 00 	mov.b	#0,	&0x006b	;r3 As==00
    327c:	f2 d0 80 ff 	bis.b	#-128,	&0x0069	;#0xff80
    3280:	69 00 
    3282:	f2 40 0f 00 	mov.b	#15,	&0x0068	;#0x000f
    3286:	68 00 
    3288:	f2 d0 06 00 	bis.b	#6,	&0x001b	;#0x0006
    328c:	1b 00 
    328e:	f2 f0 fe ff 	and.b	#-2,	&0x0069	;#0xfffe
    3292:	69 00 
    3294:	5f 42 6d 00 	mov.b	&0x006d,r15	
    3298:	3f f0 10 00 	and	#16,	r15	;#0x0010
    329c:	0a 24       	jz	$+22     	;abs 0x32b2
    329e:	82 43 1a 01 	mov	#0,	&0x011a	;r3 As==00
    32a2:	f2 d0 12 00 	bis.b	#18,	&0x0069	;#0x0012
    32a6:	69 00 
    32a8:	f2 d2 69 00 	bis.b	#8,	&0x0069	;r2 As==11
    32ac:	f2 d0 14 00 	bis.b	#20,	&0x0069	;#0x0014
    32b0:	69 00 
    32b2:	3f 40 03 00 	mov	#3,	r15	;#0x0003
    32b6:	30 41       	ret			

000032b8 <i2c_find_address>:
    32b8:	4f 4f       	mov.b	r15,	r15	
    32ba:	82 4f 1a 01 	mov	r15,	&0x011a	
    32be:	f2 d0 12 00 	bis.b	#18,	&0x0069	;#0x0012
    32c2:	69 00 
    32c4:	f2 d0 14 00 	bis.b	#20,	&0x0069	;#0x0014
    32c8:	69 00 
    32ca:	5f 42 6d 00 	mov.b	&0x006d,r15	
    32ce:	3f f2       	and	#8,	r15	;r2 As==11
    32d0:	03 20       	jnz	$+8      	;abs 0x32d8
    32d2:	3f 40 06 00 	mov	#6,	r15	;#0x0006
    32d6:	30 41       	ret			
    32d8:	3f 40 07 00 	mov	#7,	r15	;#0x0007
    32dc:	30 41       	ret			

000032de <i2c_read_byte>:
    32de:	5c 42 03 00 	mov.b	&0x0003,r12	
    32e2:	3c f2       	and	#8,	r12	;r2 As==11
    32e4:	fc 27       	jz	$-6      	;abs 0x32de
    32e6:	5c 42 03 00 	mov.b	&0x0003,r12	
    32ea:	2c f2       	and	#4,	r12	;r2 As==10
    32ec:	fc 27       	jz	$-6      	;abs 0x32e6
    32ee:	dd 42 6e 00 	mov.b	&0x006e,0(r13)	;0x0000(r13)
    32f2:	00 00 
    32f4:	4f 93       	tst.b	r15		
    32f6:	08 20       	jnz	$+18     	;abs 0x3308
    32f8:	4e 93       	tst.b	r14		
    32fa:	03 24       	jz	$+8      	;abs 0x3302
    32fc:	f2 d0 14 00 	bis.b	#20,	&0x0069	;#0x0014
    3300:	69 00 
    3302:	3f 40 03 00 	mov	#3,	r15	;#0x0003
    3306:	30 41       	ret			
    3308:	f2 d2 69 00 	bis.b	#8,	&0x0069	;r2 As==11
    330c:	f5 3f       	jmp	$-20     	;abs 0x32f8

0000330e <i2c_write_byte>:
    330e:	5d 42 03 00 	mov.b	&0x0003,r13	
    3312:	3d f2       	and	#8,	r13	;r2 As==11
    3314:	fc 27       	jz	$-6      	;abs 0x330e
    3316:	c2 4e 6f 00 	mov.b	r14,	&0x006f	
    331a:	5e 42 03 00 	mov.b	&0x0003,r14	
    331e:	3e f2       	and	#8,	r14	;r2 As==11
    3320:	fc 27       	jz	$-6      	;abs 0x331a
    3322:	5e 42 6d 00 	mov.b	&0x006d,r14	
    3326:	3e f2       	and	#8,	r14	;r2 As==11
    3328:	0b 20       	jnz	$+24     	;abs 0x3340
    332a:	4f 93       	tst.b	r15		
    332c:	06 24       	jz	$+14     	;abs 0x333a
    332e:	f2 d0 14 00 	bis.b	#20,	&0x0069	;#0x0014
    3332:	69 00 
    3334:	3f 40 03 00 	mov	#3,	r15	;#0x0003
    3338:	30 41       	ret			
    333a:	3f 40 03 00 	mov	#3,	r15	;#0x0003
    333e:	30 41       	ret			
    3340:	3f 40 0c 00 	mov	#12,	r15	;#0x000c
    3344:	30 41       	ret			

00003346 <i2c_read_register>:
    3346:	0b 12       	push	r11		
    3348:	0b 4e       	mov	r14,	r11	
    334a:	4c 4d       	mov.b	r13,	r12	
    334c:	82 4c 1a 01 	mov	r12,	&0x011a	
    3350:	f2 d0 12 00 	bis.b	#18,	&0x0069	;#0x0012
    3354:	69 00 
    3356:	4e 4f       	mov.b	r15,	r14	
    3358:	4f 43       	clr.b	r15		
    335a:	b0 12 0e 33 	call	#0x330e	
    335e:	3f 90 03 00 	cmp	#3,	r15	;#0x0003
    3362:	02 24       	jz	$+6      	;abs 0x3368
    3364:	3b 41       	pop	r11		
    3366:	30 41       	ret			
    3368:	f2 f0 ef ff 	and.b	#-17,	&0x0069	;#0xffef
    336c:	69 00 
    336e:	e2 d3 69 00 	bis.b	#2,	&0x0069	;r3 As==10
    3372:	0d 4b       	mov	r11,	r13	
    3374:	5e 43       	mov.b	#1,	r14	;r3 As==01
    3376:	4f 4e       	mov.b	r14,	r15	
    3378:	b0 12 de 32 	call	#0x32de	
    337c:	3b 41       	pop	r11		
    337e:	30 41       	ret			

00003380 <i2c_write_register>:
    3380:	0b 12       	push	r11		
    3382:	4b 4e       	mov.b	r14,	r11	
    3384:	4d 4d       	mov.b	r13,	r13	
    3386:	82 4d 1a 01 	mov	r13,	&0x011a	
    338a:	f2 d0 12 00 	bis.b	#18,	&0x0069	;#0x0012
    338e:	69 00 
    3390:	4e 4f       	mov.b	r15,	r14	
    3392:	4f 43       	clr.b	r15		
    3394:	b0 12 0e 33 	call	#0x330e	
    3398:	3f 90 03 00 	cmp	#3,	r15	;#0x0003
    339c:	02 24       	jz	$+6      	;abs 0x33a2
    339e:	3b 41       	pop	r11		
    33a0:	30 41       	ret			
    33a2:	4e 4b       	mov.b	r11,	r14	
    33a4:	5f 43       	mov.b	#1,	r15	;r3 As==01
    33a6:	b0 12 0e 33 	call	#0x330e	
    33aa:	3b 41       	pop	r11		
    33ac:	30 41       	ret			

000033ae <lcd_setcolor>:
    33ae:	c2 4e 00 11 	mov.b	r14,	&0x1100	
    33b2:	c2 4f 06 11 	mov.b	r15,	&0x1106	
    33b6:	30 41       	ret			

000033b8 <n6100_send>:
    33b8:	0b 12       	push	r11		
    33ba:	6e 93       	cmp.b	#2,	r14	;r3 As==10
    33bc:	2d 28       	jnc	$+92     	;abs 0x3418
    33be:	f2 f0 fd ff 	and.b	#-3,	&0x0031	;#0xfffd
    33c2:	31 00 
    33c4:	f2 f0 fe ff 	and.b	#-2,	&0x0031	;#0xfffe
    33c8:	31 00 
    33ca:	f2 d2 31 00 	bis.b	#8,	&0x0031	;r2 As==11
    33ce:	f2 f0 f7 ff 	and.b	#-9,	&0x0031	;#0xfff7
    33d2:	31 00 
    33d4:	7d 42       	mov.b	#8,	r13	;r2 As==11
    33d6:	7c 40 80 ff 	mov.b	#-128,	r12	;#0xff80
    33da:	0b 3c       	jmp	$+24     	;abs 0x33f2
    33dc:	e2 d3 31 00 	bis.b	#2,	&0x0031	;r3 As==10
    33e0:	f2 d2 31 00 	bis.b	#8,	&0x0031	;r2 As==11
    33e4:	f2 f0 f7 ff 	and.b	#-9,	&0x0031	;#0xfff7
    33e8:	31 00 
    33ea:	7d 53       	add.b	#-1,	r13	;r3 As==11
    33ec:	09 24       	jz	$+20     	;abs 0x3400
    33ee:	12 c3       	clrc			
    33f0:	4c 10       	rrc.b	r12		
    33f2:	4b 4c       	mov.b	r12,	r11	
    33f4:	4b ff       	and.b	r15,	r11	
    33f6:	f2 23       	jnz	$-26     	;abs 0x33dc
    33f8:	f2 f0 fd ff 	and.b	#-3,	&0x0031	;#0xfffd
    33fc:	31 00 
    33fe:	f0 3f       	jmp	$-30     	;abs 0x33e0
    3400:	5e 93       	cmp.b	#1,	r14	;r3 As==01
    3402:	08 24       	jz	$+18     	;abs 0x3414
    3404:	7e 90 03 00 	cmp.b	#3,	r14	;#0x0003
    3408:	05 24       	jz	$+12     	;abs 0x3414
    340a:	f2 f0 fd ff 	and.b	#-3,	&0x0031	;#0xfffd
    340e:	31 00 
    3410:	d2 d3 31 00 	bis.b	#1,	&0x0031	;r3 As==01
    3414:	3b 41       	pop	r11		
    3416:	30 41       	ret			
    3418:	e2 d3 31 00 	bis.b	#2,	&0x0031	;r3 As==10
    341c:	d3 3f       	jmp	$-88     	;abs 0x33c4

0000341e <n6100_sendcom1>:
    341e:	0b 12       	push	r11		
    3420:	4b 4e       	mov.b	r14,	r11	
    3422:	7e 40 03 00 	mov.b	#3,	r14	;#0x0003
    3426:	b0 12 b8 33 	call	#0x33b8	
    342a:	4e 43       	clr.b	r14		
    342c:	4f 4b       	mov.b	r11,	r15	
    342e:	b0 12 b8 33 	call	#0x33b8	
    3432:	3b 41       	pop	r11		
    3434:	30 41       	ret			

00003436 <n6100_sendcom2>:
    3436:	0b 12       	push	r11		
    3438:	0a 12       	push	r10		
    343a:	4a 4e       	mov.b	r14,	r10	
    343c:	4b 4d       	mov.b	r13,	r11	
    343e:	7e 40 03 00 	mov.b	#3,	r14	;#0x0003
    3442:	b0 12 b8 33 	call	#0x33b8	
    3446:	5e 43       	mov.b	#1,	r14	;r3 As==01
    3448:	4f 4a       	mov.b	r10,	r15	
    344a:	b0 12 b8 33 	call	#0x33b8	
    344e:	4e 43       	clr.b	r14		
    3450:	4f 4b       	mov.b	r11,	r15	
    3452:	b0 12 b8 33 	call	#0x33b8	
    3456:	3a 41       	pop	r10		
    3458:	3b 41       	pop	r11		
    345a:	30 41       	ret			

0000345c <lcd_fillrect>:
    345c:	0b 12       	push	r11		
    345e:	0a 12       	push	r10		
    3460:	09 12       	push	r9		
    3462:	08 12       	push	r8		
    3464:	48 4e       	mov.b	r14,	r8	
    3466:	4b 4d       	mov.b	r13,	r11	
    3468:	4a 4c       	mov.b	r12,	r10	
    346a:	59 41 0a 00 	mov.b	10(r1),	r9	;0x000a(r1)
    346e:	4d 4f       	mov.b	r15,	r13	
    3470:	7d 53       	add.b	#-1,	r13	;r3 As==11
    3472:	4d 5b       	add.b	r11,	r13	
    3474:	4e 4f       	mov.b	r15,	r14	
    3476:	7f 40 2a 00 	mov.b	#42,	r15	;#0x002a
    347a:	b0 12 36 34 	call	#0x3436	
    347e:	4d 48       	mov.b	r8,	r13	
    3480:	7d 53       	add.b	#-1,	r13	;r3 As==11
    3482:	4d 5a       	add.b	r10,	r13	
    3484:	4e 48       	mov.b	r8,	r14	
    3486:	7f 40 2b 00 	mov.b	#43,	r15	;#0x002b
    348a:	b0 12 36 34 	call	#0x3436	
    348e:	7e 40 03 00 	mov.b	#3,	r14	;#0x0003
    3492:	7f 40 2c 00 	mov.b	#44,	r15	;#0x002c
    3496:	b0 12 b8 33 	call	#0x33b8	
    349a:	02 12       	push	r2		
    349c:	32 c2       	dint			
    349e:	03 43       	nop			
    34a0:	c2 4a 30 01 	mov.b	r10,	&0x0130	
    34a4:	c2 4b 38 01 	mov.b	r11,	&0x0138	
    34a8:	1a 42 3a 01 	mov	&0x013a,r10	
    34ac:	32 41       	pop	r2		
    34ae:	0a 93       	tst	r10		
    34b0:	08 24       	jz	$+18     	;abs 0x34c2
    34b2:	0b 43       	clr	r11		
    34b4:	5e 43       	mov.b	#1,	r14	;r3 As==01
    34b6:	4f 49       	mov.b	r9,	r15	
    34b8:	b0 12 b8 33 	call	#0x33b8	
    34bc:	1b 53       	inc	r11		
    34be:	0b 9a       	cmp	r10,	r11	
    34c0:	f9 2b       	jnc	$-12     	;abs 0x34b4
    34c2:	f2 f0 fd ff 	and.b	#-3,	&0x0031	;#0xfffd
    34c6:	31 00 
    34c8:	d2 d3 31 00 	bis.b	#1,	&0x0031	;r3 As==01
    34cc:	7d 40 83 ff 	mov.b	#-125,	r13	;#0xff83
    34d0:	4e 43       	clr.b	r14		
    34d2:	7f 40 2a 00 	mov.b	#42,	r15	;#0x002a
    34d6:	b0 12 36 34 	call	#0x3436	
    34da:	7d 40 83 ff 	mov.b	#-125,	r13	;#0xff83
    34de:	4e 43       	clr.b	r14		
    34e0:	7f 40 2b 00 	mov.b	#43,	r15	;#0x002b
    34e4:	b0 12 36 34 	call	#0x3436	
    34e8:	38 41       	pop	r8		
    34ea:	39 41       	pop	r9		
    34ec:	3a 41       	pop	r10		
    34ee:	3b 41       	pop	r11		
    34f0:	30 41       	ret			

000034f2 <lcd_clear>:
    34f2:	4f 12       	push.b	r15		
    34f4:	7c 40 84 ff 	mov.b	#-124,	r12	;#0xff84
    34f8:	4d 4c       	mov.b	r12,	r13	
    34fa:	4e 43       	clr.b	r14		
    34fc:	4f 4e       	mov.b	r14,	r15	
    34fe:	b0 12 5c 34 	call	#0x345c	
    3502:	21 53       	incd	r1		
    3504:	30 41       	ret			

00003506 <lcd_init>:
    3506:	0b 12       	push	r11		
    3508:	0a 12       	push	r10		
    350a:	09 12       	push	r9		
    350c:	08 12       	push	r8		
    350e:	07 12       	push	r7		
    3510:	06 12       	push	r6		
    3512:	05 12       	push	r5		
    3514:	45 4f       	mov.b	r15,	r5	
    3516:	f2 d0 0f 00 	bis.b	#15,	&0x0032	;#0x000f
    351a:	32 00 
    351c:	d2 d3 31 00 	bis.b	#1,	&0x0031	;r3 As==01
    3520:	f2 f0 fd ff 	and.b	#-3,	&0x0031	;#0xfffd
    3524:	31 00 
    3526:	f2 f0 f7 ff 	and.b	#-9,	&0x0031	;#0xfff7
    352a:	31 00 
    352c:	f2 f0 fb ff 	and.b	#-5,	&0x0031	;#0xfffb
    3530:	31 00 
    3532:	3b 40 14 00 	mov	#20,	r11	;#0x0014
    3536:	0f 4b       	mov	r11,	r15	
    3538:	b0 12 4e 32 	call	#0x324e	
    353c:	e2 d2 31 00 	bis.b	#4,	&0x0031	;r2 As==10
    3540:	0f 4b       	mov	r11,	r15	
    3542:	b0 12 4e 32 	call	#0x324e	
    3546:	6e 43       	mov.b	#2,	r14	;r3 As==10
    3548:	7f 40 11 00 	mov.b	#17,	r15	;#0x0011
    354c:	b0 12 b8 33 	call	#0x33b8	
    3550:	7e 40 40 00 	mov.b	#64,	r14	;#0x0040
    3554:	7f 40 25 00 	mov.b	#37,	r15	;#0x0025
    3558:	b0 12 1e 34 	call	#0x341e	
    355c:	6e 43       	mov.b	#2,	r14	;r3 As==10
    355e:	7f 40 29 00 	mov.b	#41,	r15	;#0x0029
    3562:	b0 12 b8 33 	call	#0x33b8	
    3566:	6e 43       	mov.b	#2,	r14	;r3 As==10
    3568:	7f 40 03 00 	mov.b	#3,	r15	;#0x0003
    356c:	b0 12 b8 33 	call	#0x33b8	
    3570:	3f 40 0a 00 	mov	#10,	r15	;#0x000a
    3574:	b0 12 4e 32 	call	#0x324e	
    3578:	6e 43       	mov.b	#2,	r14	;r3 As==10
    357a:	7f 40 3a 00 	mov.b	#58,	r15	;#0x003a
    357e:	b0 12 1e 34 	call	#0x341e	
    3582:	6e 43       	mov.b	#2,	r14	;r3 As==10
    3584:	7f 40 2d 00 	mov.b	#45,	r15	;#0x002d
    3588:	b0 12 b8 33 	call	#0x33b8	
    358c:	4e 43       	clr.b	r14		
    358e:	4f 4e       	mov.b	r14,	r15	
    3590:	b0 12 b8 33 	call	#0x33b8	
    3594:	4e 43       	clr.b	r14		
    3596:	6f 43       	mov.b	#2,	r15	;r3 As==10
    3598:	b0 12 b8 33 	call	#0x33b8	
    359c:	79 40 05 00 	mov.b	#5,	r9	;#0x0005
    35a0:	4e 43       	clr.b	r14		
    35a2:	4f 49       	mov.b	r9,	r15	
    35a4:	b0 12 b8 33 	call	#0x33b8	
    35a8:	76 40 07 00 	mov.b	#7,	r6	;#0x0007
    35ac:	4e 43       	clr.b	r14		
    35ae:	4f 46       	mov.b	r6,	r15	
    35b0:	b0 12 b8 33 	call	#0x33b8	
    35b4:	77 40 09 00 	mov.b	#9,	r7	;#0x0009
    35b8:	4e 43       	clr.b	r14		
    35ba:	4f 47       	mov.b	r7,	r15	
    35bc:	b0 12 b8 33 	call	#0x33b8	
    35c0:	7a 40 0b 00 	mov.b	#11,	r10	;#0x000b
    35c4:	4e 43       	clr.b	r14		
    35c6:	4f 4a       	mov.b	r10,	r15	
    35c8:	b0 12 b8 33 	call	#0x33b8	
    35cc:	78 40 0d 00 	mov.b	#13,	r8	;#0x000d
    35d0:	4e 43       	clr.b	r14		
    35d2:	4f 48       	mov.b	r8,	r15	
    35d4:	b0 12 b8 33 	call	#0x33b8	
    35d8:	7b 50 fb ff 	add.b	#-5,	r11	;#0xfffb
    35dc:	4e 43       	clr.b	r14		
    35de:	4f 4b       	mov.b	r11,	r15	
    35e0:	b0 12 b8 33 	call	#0x33b8	
    35e4:	4e 43       	clr.b	r14		
    35e6:	4f 4e       	mov.b	r14,	r15	
    35e8:	b0 12 b8 33 	call	#0x33b8	
    35ec:	4e 43       	clr.b	r14		
    35ee:	6f 43       	mov.b	#2,	r15	;r3 As==10
    35f0:	b0 12 b8 33 	call	#0x33b8	
    35f4:	4e 43       	clr.b	r14		
    35f6:	4f 49       	mov.b	r9,	r15	
    35f8:	b0 12 b8 33 	call	#0x33b8	
    35fc:	4e 43       	clr.b	r14		
    35fe:	4f 46       	mov.b	r6,	r15	
    3600:	b0 12 b8 33 	call	#0x33b8	
    3604:	4e 43       	clr.b	r14		
    3606:	4f 47       	mov.b	r7,	r15	
    3608:	b0 12 b8 33 	call	#0x33b8	
    360c:	4e 43       	clr.b	r14		
    360e:	4f 4a       	mov.b	r10,	r15	
    3610:	b0 12 b8 33 	call	#0x33b8	
    3614:	4e 43       	clr.b	r14		
    3616:	4f 48       	mov.b	r8,	r15	
    3618:	b0 12 b8 33 	call	#0x33b8	
    361c:	4e 43       	clr.b	r14		
    361e:	4f 4b       	mov.b	r11,	r15	
    3620:	b0 12 b8 33 	call	#0x33b8	
    3624:	4e 43       	clr.b	r14		
    3626:	4f 4e       	mov.b	r14,	r15	
    3628:	b0 12 b8 33 	call	#0x33b8	
    362c:	4e 43       	clr.b	r14		
    362e:	4f 49       	mov.b	r9,	r15	
    3630:	b0 12 b8 33 	call	#0x33b8	
    3634:	4e 43       	clr.b	r14		
    3636:	4f 4a       	mov.b	r10,	r15	
    3638:	b0 12 b8 33 	call	#0x33b8	
    363c:	4e 43       	clr.b	r14		
    363e:	4f 4b       	mov.b	r11,	r15	
    3640:	b0 12 b8 33 	call	#0x33b8	
    3644:	4e 43       	clr.b	r14		
    3646:	7f 40 36 00 	mov.b	#54,	r15	;#0x0036
    364a:	b0 12 1e 34 	call	#0x341e	
    364e:	45 12       	push.b	r5		
    3650:	7c 40 84 ff 	mov.b	#-124,	r12	;#0xff84
    3654:	4d 4c       	mov.b	r12,	r13	
    3656:	4e 43       	clr.b	r14		
    3658:	4f 4e       	mov.b	r14,	r15	
    365a:	b0 12 5c 34 	call	#0x345c	
    365e:	21 53       	incd	r1		
    3660:	35 41       	pop	r5		
    3662:	36 41       	pop	r6		
    3664:	37 41       	pop	r7		
    3666:	38 41       	pop	r8		
    3668:	39 41       	pop	r9		
    366a:	3a 41       	pop	r10		
    366c:	3b 41       	pop	r11		
    366e:	30 41       	ret			

00003670 <lcd_drawcircle>:
    3670:	0b 12       	push	r11		
    3672:	0a 12       	push	r10		
    3674:	09 12       	push	r9		
    3676:	08 12       	push	r8		
    3678:	07 12       	push	r7		
    367a:	06 12       	push	r6		
    367c:	05 12       	push	r5		
    367e:	04 12       	push	r4		
    3680:	31 50 f6 ff 	add	#-10,	r1	;#0xfff6
    3684:	08 4f       	mov	r15,	r8	
    3686:	09 4e       	mov	r14,	r9	
    3688:	45 4c       	mov.b	r12,	r5	
    368a:	1b 41 1c 00 	mov	28(r1),	r11	;0x001c(r1)
    368e:	81 4d 04 00 	mov	r13,	4(r1)	;0x0004(r1)
    3692:	46 4b       	mov.b	r11,	r6	
    3694:	c1 4e 00 00 	mov.b	r14,	0(r1)	;0x0000(r1)
    3698:	5a 41 04 00 	mov.b	4(r1),	r10	;0x0004(r1)
    369c:	c1 4f 01 00 	mov.b	r15,	1(r1)	;0x0001(r1)
    36a0:	4c 12       	push.b	r12		
    36a2:	4c 4b       	mov.b	r11,	r12	
    36a4:	4d 4b       	mov.b	r11,	r13	
    36a6:	4e 4a       	mov.b	r10,	r14	
    36a8:	5e 51 02 00 	add.b	2(r1),	r14	;0x0002(r1)
    36ac:	b0 12 5c 34 	call	#0x345c	
    36b0:	c1 45 00 00 	mov.b	r5,	0(r1)	;0x0000(r1)
    36b4:	4c 4b       	mov.b	r11,	r12	
    36b6:	4d 4b       	mov.b	r11,	r13	
    36b8:	5e 41 02 00 	mov.b	2(r1),	r14	;0x0002(r1)
    36bc:	4e 8a       	sub.b	r10,	r14	
    36be:	4f 48       	mov.b	r8,	r15	
    36c0:	b0 12 5c 34 	call	#0x345c	
    36c4:	c1 45 00 00 	mov.b	r5,	0(r1)	;0x0000(r1)
    36c8:	4c 4b       	mov.b	r11,	r12	
    36ca:	4d 4b       	mov.b	r11,	r13	
    36cc:	4e 49       	mov.b	r9,	r14	
    36ce:	4f 4a       	mov.b	r10,	r15	
    36d0:	5f 51 03 00 	add.b	3(r1),	r15	;0x0003(r1)
    36d4:	b0 12 5c 34 	call	#0x345c	
    36d8:	c1 45 00 00 	mov.b	r5,	0(r1)	;0x0000(r1)
    36dc:	4c 4b       	mov.b	r11,	r12	
    36de:	4d 4b       	mov.b	r11,	r13	
    36e0:	4e 49       	mov.b	r9,	r14	
    36e2:	5f 41 03 00 	mov.b	3(r1),	r15	;0x0003(r1)
    36e6:	4f 8a       	sub.b	r10,	r15	
    36e8:	b0 12 5c 34 	call	#0x345c	
    36ec:	21 53       	incd	r1		
    36ee:	0f 43       	clr	r15		
    36f0:	1f 91 04 00 	cmp	4(r1),	r15	;0x0004(r1)
    36f4:	82 34       	jge	$+262    	;abs 0x37fa
    36f6:	14 43       	mov	#1,	r4	;r3 As==01
    36f8:	14 81 04 00 	sub	4(r1),	r4	;0x0004(r1)
    36fc:	1e 41 04 00 	mov	4(r1),	r14	;0x0004(r1)
    3700:	0e 11       	rra	r14		
    3702:	0e 43       	clr	r14		
    3704:	0e 10       	rrc	r14		
    3706:	1e 81 04 00 	sub	4(r1),	r14	;0x0004(r1)
    370a:	81 4e 08 00 	mov	r14,	8(r1)	;0x0008(r1)
    370e:	91 51 08 00 	rla	8(r1)		;0x0008(r1)
    3712:	08 00 
    3714:	b1 40 03 00 	mov	#3,	6(r1)	;#0x0003, 0x0006(r1)
    3718:	06 00 
    371a:	81 4f 02 00 	mov	r15,	2(r1)	;0x0002(r1)
    371e:	04 3c       	jmp	$+10     	;abs 0x3728
    3720:	14 51 06 00 	add	6(r1),	r4	;0x0006(r1)
    3724:	a1 53 06 00 	incd	6(r1)		;0x0006(r1)
    3728:	04 93       	tst	r4		
    372a:	06 38       	jl	$+14     	;abs 0x3738
    372c:	b1 53 04 00 	add	#-1,	4(r1)	;r3 As==11, 0x0004(r1)
    3730:	a1 53 08 00 	incd	8(r1)		;0x0008(r1)
    3734:	14 51 08 00 	add	8(r1),	r4	;0x0008(r1)
    3738:	91 53 02 00 	inc	2(r1)		;0x0002(r1)
    373c:	5a 41 04 00 	mov.b	4(r1),	r10	;0x0004(r1)
    3740:	6b 41       	mov.b	@r1,	r11	
    3742:	4b 5a       	add.b	r10,	r11	
    3744:	58 41 02 00 	mov.b	2(r1),	r8	;0x0002(r1)
    3748:	57 41 01 00 	mov.b	1(r1),	r7	;0x0001(r1)
    374c:	47 58       	add.b	r8,	r7	
    374e:	45 12       	push.b	r5		
    3750:	4c 46       	mov.b	r6,	r12	
    3752:	4d 46       	mov.b	r6,	r13	
    3754:	4e 4b       	mov.b	r11,	r14	
    3756:	4f 47       	mov.b	r7,	r15	
    3758:	b0 12 5c 34 	call	#0x345c	
    375c:	59 41 03 00 	mov.b	3(r1),	r9	;0x0003(r1)
    3760:	49 88       	sub.b	r8,	r9	
    3762:	c1 45 00 00 	mov.b	r5,	0(r1)	;0x0000(r1)
    3766:	4c 46       	mov.b	r6,	r12	
    3768:	4d 46       	mov.b	r6,	r13	
    376a:	4e 4b       	mov.b	r11,	r14	
    376c:	4f 49       	mov.b	r9,	r15	
    376e:	b0 12 5c 34 	call	#0x345c	
    3772:	5b 41 02 00 	mov.b	2(r1),	r11	;0x0002(r1)
    3776:	4b 8a       	sub.b	r10,	r11	
    3778:	c1 45 00 00 	mov.b	r5,	0(r1)	;0x0000(r1)
    377c:	4c 46       	mov.b	r6,	r12	
    377e:	4d 46       	mov.b	r6,	r13	
    3780:	4e 4b       	mov.b	r11,	r14	
    3782:	4f 47       	mov.b	r7,	r15	
    3784:	b0 12 5c 34 	call	#0x345c	
    3788:	c1 45 00 00 	mov.b	r5,	0(r1)	;0x0000(r1)
    378c:	4c 46       	mov.b	r6,	r12	
    378e:	4d 46       	mov.b	r6,	r13	
    3790:	4e 4b       	mov.b	r11,	r14	
    3792:	4f 49       	mov.b	r9,	r15	
    3794:	b0 12 5c 34 	call	#0x345c	
    3798:	5b 41 02 00 	mov.b	2(r1),	r11	;0x0002(r1)
    379c:	4b 58       	add.b	r8,	r11	
    379e:	59 41 03 00 	mov.b	3(r1),	r9	;0x0003(r1)
    37a2:	49 5a       	add.b	r10,	r9	
    37a4:	c1 45 00 00 	mov.b	r5,	0(r1)	;0x0000(r1)
    37a8:	4c 46       	mov.b	r6,	r12	
    37aa:	4d 46       	mov.b	r6,	r13	
    37ac:	4e 4b       	mov.b	r11,	r14	
    37ae:	4f 49       	mov.b	r9,	r15	
    37b0:	b0 12 5c 34 	call	#0x345c	
    37b4:	5f 41 03 00 	mov.b	3(r1),	r15	;0x0003(r1)
    37b8:	4f 8a       	sub.b	r10,	r15	
    37ba:	4a 4f       	mov.b	r15,	r10	
    37bc:	c1 45 00 00 	mov.b	r5,	0(r1)	;0x0000(r1)
    37c0:	4c 46       	mov.b	r6,	r12	
    37c2:	4d 46       	mov.b	r6,	r13	
    37c4:	4e 4b       	mov.b	r11,	r14	
    37c6:	b0 12 5c 34 	call	#0x345c	
    37ca:	5b 41 02 00 	mov.b	2(r1),	r11	;0x0002(r1)
    37ce:	4b 88       	sub.b	r8,	r11	
    37d0:	c1 45 00 00 	mov.b	r5,	0(r1)	;0x0000(r1)
    37d4:	4c 46       	mov.b	r6,	r12	
    37d6:	4d 46       	mov.b	r6,	r13	
    37d8:	4e 4b       	mov.b	r11,	r14	
    37da:	4f 49       	mov.b	r9,	r15	
    37dc:	b0 12 5c 34 	call	#0x345c	
    37e0:	c1 45 00 00 	mov.b	r5,	0(r1)	;0x0000(r1)
    37e4:	4c 46       	mov.b	r6,	r12	
    37e6:	4d 46       	mov.b	r6,	r13	
    37e8:	4e 4b       	mov.b	r11,	r14	
    37ea:	4f 4a       	mov.b	r10,	r15	
    37ec:	b0 12 5c 34 	call	#0x345c	
    37f0:	21 53       	incd	r1		
    37f2:	91 91 04 00 	cmp	4(r1),	2(r1)	;0x0004(r1), 0x0002(r1)
    37f6:	02 00 
    37f8:	93 3b       	jl	$-216    	;abs 0x3720
    37fa:	31 50 0a 00 	add	#10,	r1	;#0x000a
    37fe:	34 41       	pop	r4		
    3800:	35 41       	pop	r5		
    3802:	36 41       	pop	r6		
    3804:	37 41       	pop	r7		
    3806:	38 41       	pop	r8		
    3808:	39 41       	pop	r9		
    380a:	3a 41       	pop	r10		
    380c:	3b 41       	pop	r11		
    380e:	30 41       	ret			

00003810 <lcd_drawpoint>:
    3810:	0b 12       	push	r11		
    3812:	0a 12       	push	r10		
    3814:	09 12       	push	r9		
    3816:	08 12       	push	r8		
    3818:	48 4e       	mov.b	r14,	r8	
    381a:	4a 4d       	mov.b	r13,	r10	
    381c:	79 40 2a 00 	mov.b	#42,	r9	;#0x002a
    3820:	4d 4f       	mov.b	r15,	r13	
    3822:	4e 4f       	mov.b	r15,	r14	
    3824:	4f 49       	mov.b	r9,	r15	
    3826:	b0 12 36 34 	call	#0x3436	
    382a:	7b 40 2b 00 	mov.b	#43,	r11	;#0x002b
    382e:	4d 48       	mov.b	r8,	r13	
    3830:	4e 48       	mov.b	r8,	r14	
    3832:	4f 4b       	mov.b	r11,	r15	
    3834:	b0 12 36 34 	call	#0x3436	
    3838:	7e 40 03 00 	mov.b	#3,	r14	;#0x0003
    383c:	7f 40 2c 00 	mov.b	#44,	r15	;#0x002c
    3840:	b0 12 b8 33 	call	#0x33b8	
    3844:	5e 43       	mov.b	#1,	r14	;r3 As==01
    3846:	4f 4a       	mov.b	r10,	r15	
    3848:	b0 12 b8 33 	call	#0x33b8	
    384c:	f2 f0 fd ff 	and.b	#-3,	&0x0031	;#0xfffd
    3850:	31 00 
    3852:	d2 d3 31 00 	bis.b	#1,	&0x0031	;r3 As==01
    3856:	7a 40 83 ff 	mov.b	#-125,	r10	;#0xff83
    385a:	4d 4a       	mov.b	r10,	r13	
    385c:	4e 43       	clr.b	r14		
    385e:	4f 49       	mov.b	r9,	r15	
    3860:	b0 12 36 34 	call	#0x3436	
    3864:	4d 4a       	mov.b	r10,	r13	
    3866:	4e 43       	clr.b	r14		
    3868:	4f 4b       	mov.b	r11,	r15	
    386a:	b0 12 36 34 	call	#0x3436	
    386e:	38 41       	pop	r8		
    3870:	39 41       	pop	r9		
    3872:	3a 41       	pop	r10		
    3874:	3b 41       	pop	r11		
    3876:	30 41       	ret			

00003878 <lcd_drawline>:
    3878:	0b 12       	push	r11		
    387a:	0a 12       	push	r10		
    387c:	09 12       	push	r9		
    387e:	08 12       	push	r8		
    3880:	07 12       	push	r7		
    3882:	06 12       	push	r6		
    3884:	05 12       	push	r5		
    3886:	04 12       	push	r4		
    3888:	21 82       	sub	#4,	r1	;r2 As==10
    388a:	09 4f       	mov	r15,	r9	
    388c:	0a 4e       	mov	r14,	r10	
    388e:	81 4d 00 00 	mov	r13,	0(r1)	;0x0000(r1)
    3892:	81 4c 02 00 	mov	r12,	2(r1)	;0x0002(r1)
    3896:	54 41 16 00 	mov.b	22(r1),	r4	;0x0016(r1)
    389a:	05 4c       	mov	r12,	r5	
    389c:	05 8e       	sub	r14,	r5	
    389e:	06 4d       	mov	r13,	r6	
    38a0:	06 8f       	sub	r15,	r6	
    38a2:	05 93       	tst	r5		
    38a4:	4c 38       	jl	$+154    	;abs 0x393e
    38a6:	18 43       	mov	#1,	r8	;r3 As==01
    38a8:	06 93       	tst	r6		
    38aa:	45 38       	jl	$+140    	;abs 0x3936
    38ac:	17 43       	mov	#1,	r7	;r3 As==01
    38ae:	05 55       	rla	r5		
    38b0:	06 56       	rla	r6		
    38b2:	4d 44       	mov.b	r4,	r13	
    38b4:	4e 4a       	mov.b	r10,	r14	
    38b6:	4f 49       	mov.b	r9,	r15	
    38b8:	b0 12 10 38 	call	#0x3810	
    38bc:	05 96       	cmp	r6,	r5	
    38be:	21 34       	jge	$+68     	;abs 0x3902
    38c0:	29 91       	cmp	@r1,	r9	
    38c2:	15 24       	jz	$+44     	;abs 0x38ee
    38c4:	0f 46       	mov	r6,	r15	
    38c6:	0f 11       	rra	r15		
    38c8:	0b 45       	mov	r5,	r11	
    38ca:	0b 8f       	sub	r15,	r11	
    38cc:	09 57       	add	r7,	r9	
    38ce:	01 3c       	jmp	$+4      	;abs 0x38d2
    38d0:	0b 55       	add	r5,	r11	
    38d2:	0b 93       	tst	r11		
    38d4:	02 38       	jl	$+6      	;abs 0x38da
    38d6:	0a 58       	add	r8,	r10	
    38d8:	0b 86       	sub	r6,	r11	
    38da:	4d 44       	mov.b	r4,	r13	
    38dc:	4e 4a       	mov.b	r10,	r14	
    38de:	4f 49       	mov.b	r9,	r15	
    38e0:	b0 12 10 38 	call	#0x3810	
    38e4:	09 57       	add	r7,	r9	
    38e6:	0f 49       	mov	r9,	r15	
    38e8:	0f 87       	sub	r7,	r15	
    38ea:	2f 91       	cmp	@r1,	r15	
    38ec:	f1 23       	jnz	$-28     	;abs 0x38d0
    38ee:	21 52       	add	#4,	r1	;r2 As==10
    38f0:	34 41       	pop	r4		
    38f2:	35 41       	pop	r5		
    38f4:	36 41       	pop	r6		
    38f6:	37 41       	pop	r7		
    38f8:	38 41       	pop	r8		
    38fa:	39 41       	pop	r9		
    38fc:	3a 41       	pop	r10		
    38fe:	3b 41       	pop	r11		
    3900:	30 41       	ret			
    3902:	81 9a 02 00 	cmp	r10,	2(r1)	;0x0002(r1)
    3906:	f3 27       	jz	$-24     	;abs 0x38ee
    3908:	0f 45       	mov	r5,	r15	
    390a:	0f 11       	rra	r15		
    390c:	0b 46       	mov	r6,	r11	
    390e:	0b 8f       	sub	r15,	r11	
    3910:	0a 58       	add	r8,	r10	
    3912:	01 3c       	jmp	$+4      	;abs 0x3916
    3914:	0b 56       	add	r6,	r11	
    3916:	0b 93       	tst	r11		
    3918:	02 38       	jl	$+6      	;abs 0x391e
    391a:	09 57       	add	r7,	r9	
    391c:	0b 85       	sub	r5,	r11	
    391e:	4d 44       	mov.b	r4,	r13	
    3920:	4e 4a       	mov.b	r10,	r14	
    3922:	4f 49       	mov.b	r9,	r15	
    3924:	b0 12 10 38 	call	#0x3810	
    3928:	0a 58       	add	r8,	r10	
    392a:	0f 4a       	mov	r10,	r15	
    392c:	0f 88       	sub	r8,	r15	
    392e:	81 9f 02 00 	cmp	r15,	2(r1)	;0x0002(r1)
    3932:	f0 23       	jnz	$-30     	;abs 0x3914
    3934:	dc 3f       	jmp	$-70     	;abs 0x38ee
    3936:	36 e3       	inv	r6		
    3938:	16 53       	inc	r6		
    393a:	37 43       	mov	#-1,	r7	;r3 As==11
    393c:	b8 3f       	jmp	$-142    	;abs 0x38ae
    393e:	35 e3       	inv	r5		
    3940:	15 53       	inc	r5		
    3942:	38 43       	mov	#-1,	r8	;r3 As==11
    3944:	b1 3f       	jmp	$-156    	;abs 0x38a8

00003946 <lcd_putlogo>:
    3946:	0b 12       	push	r11		
    3948:	0a 12       	push	r10		
    394a:	09 12       	push	r9		
    394c:	08 12       	push	r8		
    394e:	48 4e       	mov.b	r14,	r8	
    3950:	4b 4d       	mov.b	r13,	r11	
    3952:	4a 4c       	mov.b	r12,	r10	
    3954:	19 41 0a 00 	mov	10(r1),	r9	;0x000a(r1)
    3958:	4d 4f       	mov.b	r15,	r13	
    395a:	7d 53       	add.b	#-1,	r13	;r3 As==11
    395c:	4d 5b       	add.b	r11,	r13	
    395e:	4e 4f       	mov.b	r15,	r14	
    3960:	7f 40 2a 00 	mov.b	#42,	r15	;#0x002a
    3964:	b0 12 36 34 	call	#0x3436	
    3968:	4d 48       	mov.b	r8,	r13	
    396a:	7d 53       	add.b	#-1,	r13	;r3 As==11
    396c:	4d 5a       	add.b	r10,	r13	
    396e:	4e 48       	mov.b	r8,	r14	
    3970:	7f 40 2b 00 	mov.b	#43,	r15	;#0x002b
    3974:	b0 12 36 34 	call	#0x3436	
    3978:	7e 40 03 00 	mov.b	#3,	r14	;#0x0003
    397c:	7f 40 2c 00 	mov.b	#44,	r15	;#0x002c
    3980:	b0 12 b8 33 	call	#0x33b8	
    3984:	02 12       	push	r2		
    3986:	32 c2       	dint			
    3988:	03 43       	nop			
    398a:	c2 4a 30 01 	mov.b	r10,	&0x0130	
    398e:	c2 4b 38 01 	mov.b	r11,	&0x0138	
    3992:	1a 42 3a 01 	mov	&0x013a,r10	
    3996:	32 41       	pop	r2		
    3998:	0a 93       	tst	r10		
    399a:	0a 24       	jz	$+22     	;abs 0x39b0
    399c:	0b 43       	clr	r11		
    399e:	0f 49       	mov	r9,	r15	
    39a0:	0f 5b       	add	r11,	r15	
    39a2:	5e 43       	mov.b	#1,	r14	;r3 As==01
    39a4:	6f 4f       	mov.b	@r15,	r15	
    39a6:	b0 12 b8 33 	call	#0x33b8	
    39aa:	1b 53       	inc	r11		
    39ac:	0b 9a       	cmp	r10,	r11	
    39ae:	f7 2b       	jnc	$-16     	;abs 0x399e
    39b0:	f2 f0 fd ff 	and.b	#-3,	&0x0031	;#0xfffd
    39b4:	31 00 
    39b6:	d2 d3 31 00 	bis.b	#1,	&0x0031	;r3 As==01
    39ba:	7d 40 83 ff 	mov.b	#-125,	r13	;#0xff83
    39be:	4e 43       	clr.b	r14		
    39c0:	7f 40 2a 00 	mov.b	#42,	r15	;#0x002a
    39c4:	b0 12 36 34 	call	#0x3436	
    39c8:	7d 40 83 ff 	mov.b	#-125,	r13	;#0xff83
    39cc:	4e 43       	clr.b	r14		
    39ce:	7f 40 2b 00 	mov.b	#43,	r15	;#0x002b
    39d2:	b0 12 36 34 	call	#0x3436	
    39d6:	38 41       	pop	r8		
    39d8:	39 41       	pop	r9		
    39da:	3a 41       	pop	r10		
    39dc:	3b 41       	pop	r11		
    39de:	30 41       	ret			

000039e0 <lcd_newline>:
    39e0:	5f 42 02 11 	mov.b	&0x1102,r15	
    39e4:	5f 53       	inc.b	r15		
    39e6:	c2 4f 02 11 	mov.b	r15,	&0x1102	
    39ea:	7f 90 10 00 	cmp.b	#16,	r15	;#0x0010
    39ee:	02 20       	jnz	$+6      	;abs 0x39f4
    39f0:	c2 43 02 11 	mov.b	#0,	&0x1102	;r3 As==00
    39f4:	c2 43 04 11 	mov.b	#0,	&0x1104	;r3 As==00
    39f8:	30 41       	ret			

000039fa <lcd_goto>:
    39fa:	7f 90 15 00 	cmp.b	#21,	r15	;#0x0015
    39fe:	01 28       	jnc	$+4      	;abs 0x3a02
    3a00:	4f 43       	clr.b	r15		
    3a02:	7e 90 10 00 	cmp.b	#16,	r14	;#0x0010
    3a06:	01 28       	jnc	$+4      	;abs 0x3a0a
    3a08:	4e 43       	clr.b	r14		
    3a0a:	c2 4f 04 11 	mov.b	r15,	&0x1104	
    3a0e:	c2 4e 02 11 	mov.b	r14,	&0x1102	
    3a12:	30 41       	ret			

00003a14 <lcd_wrchar>:
    3a14:	0b 12       	push	r11		
    3a16:	0a 12       	push	r10		
    3a18:	09 12       	push	r9		
    3a1a:	08 12       	push	r8		
    3a1c:	07 12       	push	r7		
    3a1e:	4b 4f       	mov.b	r15,	r11	
    3a20:	5e 42 04 11 	mov.b	&0x1104,r14	
    3a24:	4e 5e       	rla.b	r14		
    3a26:	5e 52 04 11 	add.b	&0x1104,r14	
    3a2a:	4e 5e       	rla.b	r14		
    3a2c:	4d 4e       	mov.b	r14,	r13	
    3a2e:	7d 50 05 00 	add.b	#5,	r13	;#0x0005
    3a32:	7f 40 2a 00 	mov.b	#42,	r15	;#0x002a
    3a36:	b0 12 36 34 	call	#0x3436	
    3a3a:	5e 42 02 11 	mov.b	&0x1102,r14	
    3a3e:	4e 5e       	rla.b	r14		
    3a40:	4e 5e       	rla.b	r14		
    3a42:	4e 5e       	rla.b	r14		
    3a44:	4d 4e       	mov.b	r14,	r13	
    3a46:	7d 50 09 00 	add.b	#9,	r13	;#0x0009
    3a4a:	6e 53       	incd.b	r14		
    3a4c:	7f 40 2b 00 	mov.b	#43,	r15	;#0x002b
    3a50:	b0 12 36 34 	call	#0x3436	
    3a54:	6e 43       	mov.b	#2,	r14	;r3 As==10
    3a56:	7f 40 2c 00 	mov.b	#44,	r15	;#0x002c
    3a5a:	b0 12 b8 33 	call	#0x33b8	
    3a5e:	4f 4b       	mov.b	r11,	r15	
    3a60:	09 4f       	mov	r15,	r9	
    3a62:	09 59       	rla	r9		
    3a64:	09 59       	rla	r9		
    3a66:	09 5f       	add	r15,	r9	
    3a68:	78 42       	mov.b	#8,	r8	;r2 As==11
    3a6a:	5a 43       	mov.b	#1,	r10	;r3 As==01
    3a6c:	07 49       	mov	r9,	r7	
    3a6e:	37 50 f4 3b 	add	#15348,	r7	;#0x3bf4
    3a72:	39 50 f9 3b 	add	#15353,	r9	;#0x3bf9
    3a76:	0b 47       	mov	r7,	r11	
    3a78:	4e 4a       	mov.b	r10,	r14	
    3a7a:	6e fb       	and.b	@r11,	r14	
    3a7c:	11 24       	jz	$+36     	;abs 0x3aa0
    3a7e:	4e 43       	clr.b	r14		
    3a80:	5f 42 06 11 	mov.b	&0x1106,r15	
    3a84:	b0 12 b8 33 	call	#0x33b8	
    3a88:	1b 53       	inc	r11		
    3a8a:	0b 99       	cmp	r9,	r11	
    3a8c:	f5 23       	jnz	$-20     	;abs 0x3a78
    3a8e:	4e 43       	clr.b	r14		
    3a90:	5f 42 00 11 	mov.b	&0x1100,r15	
    3a94:	b0 12 b8 33 	call	#0x33b8	
    3a98:	78 53       	add.b	#-1,	r8	;r3 As==11
    3a9a:	07 24       	jz	$+16     	;abs 0x3aaa
    3a9c:	4a 5a       	rla.b	r10		
    3a9e:	eb 3f       	jmp	$-40     	;abs 0x3a76
    3aa0:	5f 42 00 11 	mov.b	&0x1100,r15	
    3aa4:	b0 12 b8 33 	call	#0x33b8	
    3aa8:	ef 3f       	jmp	$-32     	;abs 0x3a88
    3aaa:	37 41       	pop	r7		
    3aac:	38 41       	pop	r8		
    3aae:	39 41       	pop	r9		
    3ab0:	3a 41       	pop	r10		
    3ab2:	3b 41       	pop	r11		
    3ab4:	30 41       	ret			

00003ab6 <lcd_putchar>:
    3ab6:	4e 4f       	mov.b	r15,	r14	
    3ab8:	7f 90 0a 00 	cmp.b	#10,	r15	;#0x000a
    3abc:	1c 24       	jz	$+58     	;abs 0x3af6
    3abe:	7f 90 0d 00 	cmp.b	#13,	r15	;#0x000d
    3ac2:	23 24       	jz	$+72     	;abs 0x3b0a
    3ac4:	5d 42 04 11 	mov.b	&0x1104,r13	
    3ac8:	4c 4d       	mov.b	r13,	r12	
    3aca:	5c 53       	inc.b	r12		
    3acc:	c2 4c 04 11 	mov.b	r12,	&0x1104	
    3ad0:	7d 90 15 00 	cmp.b	#21,	r13	;#0x0015
    3ad4:	20 28       	jnc	$+66     	;abs 0x3b16
    3ad6:	5f 42 02 11 	mov.b	&0x1102,r15	
    3ada:	5f 53       	inc.b	r15		
    3adc:	c2 4f 02 11 	mov.b	r15,	&0x1102	
    3ae0:	7f 90 10 00 	cmp.b	#16,	r15	;#0x0010
    3ae4:	15 24       	jz	$+44     	;abs 0x3b10
    3ae6:	c2 43 04 11 	mov.b	#0,	&0x1104	;r3 As==00
    3aea:	4f 4e       	mov.b	r14,	r15	
    3aec:	b0 12 14 3a 	call	#0x3a14	
    3af0:	d2 53 04 11 	inc.b	&0x1104	
    3af4:	30 41       	ret			
    3af6:	5f 42 02 11 	mov.b	&0x1102,r15	
    3afa:	5f 53       	inc.b	r15		
    3afc:	c2 4f 02 11 	mov.b	r15,	&0x1102	
    3b00:	7f 90 10 00 	cmp.b	#16,	r15	;#0x0010
    3b04:	02 20       	jnz	$+6      	;abs 0x3b0a
    3b06:	c2 43 02 11 	mov.b	#0,	&0x1102	;r3 As==00
    3b0a:	c2 43 04 11 	mov.b	#0,	&0x1104	;r3 As==00
    3b0e:	30 41       	ret			
    3b10:	c2 43 02 11 	mov.b	#0,	&0x1102	;r3 As==00
    3b14:	e8 3f       	jmp	$-46     	;abs 0x3ae6
    3b16:	b0 12 14 3a 	call	#0x3a14	
    3b1a:	30 41       	ret			

00003b1c <putchar>:
    3b1c:	b0 12 b6 3a 	call	#0x3ab6	
    3b20:	0f 43       	clr	r15		
    3b22:	30 41       	ret			

00003b24 <lcd_drawprogressbar>:
    3b24:	0b 12       	push	r11		
    3b26:	0a 12       	push	r10		
    3b28:	09 12       	push	r9		
    3b2a:	08 12       	push	r8		
    3b2c:	07 12       	push	r7		
    3b2e:	08 4e       	mov	r14,	r8	
    3b30:	09 4d       	mov	r13,	r9	
    3b32:	0d 43       	clr	r13		
    3b34:	0d 9c       	cmp	r12,	r13	
    3b36:	2f 34       	jge	$+96     	;abs 0x3b96
    3b38:	0d 99       	cmp	r9,	r13	
    3b3a:	2d 34       	jge	$+92     	;abs 0x3b96
    3b3c:	1d 41 10 00 	mov	16(r1),	r13	;0x0010(r1)
    3b40:	3e 40 64 00 	mov	#100,	r14	;#0x0064
    3b44:	0e 9d       	cmp	r13,	r14	
    3b46:	2f 38       	jl	$+96     	;abs 0x3ba6
    3b48:	47 4c       	mov.b	r12,	r7	
    3b4a:	0d 93       	tst	r13		
    3b4c:	2a 38       	jl	$+86     	;abs 0x3ba2
    3b4e:	02 12       	push	r2		
    3b50:	32 c2       	dint			
    3b52:	03 43       	nop			
    3b54:	82 4d 32 01 	mov	r13,	&0x0132	
    3b58:	82 49 38 01 	mov	r9,	&0x0138	
    3b5c:	1d 42 3a 01 	mov	&0x013a,r13	
    3b60:	32 41       	pop	r2		
    3b62:	0c 4d       	mov	r13,	r12	
    3b64:	3a 40 64 00 	mov	#100,	r10	;#0x0064
    3b68:	b0 12 4c 43 	call	#0x434c	
    3b6c:	0d 4c       	mov	r12,	r13	
    3b6e:	4b 4c       	mov.b	r12,	r11	
    3b70:	4a 4f       	mov.b	r15,	r10	
    3b72:	51 12 0e 00 	push.b	14(r1)		;0x000e(r1)
    3b76:	4c 47       	mov.b	r7,	r12	
    3b78:	4e 48       	mov.b	r8,	r14	
    3b7a:	b0 12 5c 34 	call	#0x345c	
    3b7e:	21 53       	incd	r1		
    3b80:	51 12 10 00 	push.b	16(r1)		;0x0010(r1)
    3b84:	4c 47       	mov.b	r7,	r12	
    3b86:	4d 49       	mov.b	r9,	r13	
    3b88:	4d 8b       	sub.b	r11,	r13	
    3b8a:	4e 48       	mov.b	r8,	r14	
    3b8c:	4f 4b       	mov.b	r11,	r15	
    3b8e:	4f 5a       	add.b	r10,	r15	
    3b90:	b0 12 5c 34 	call	#0x345c	
    3b94:	21 53       	incd	r1		
    3b96:	37 41       	pop	r7		
    3b98:	38 41       	pop	r8		
    3b9a:	39 41       	pop	r9		
    3b9c:	3a 41       	pop	r10		
    3b9e:	3b 41       	pop	r11		
    3ba0:	30 41       	ret			
    3ba2:	0d 43       	clr	r13		
    3ba4:	d4 3f       	jmp	$-86     	;abs 0x3b4e
    3ba6:	0d 4e       	mov	r14,	r13	
    3ba8:	47 4c       	mov.b	r12,	r7	
    3baa:	0d 93       	tst	r13		
    3bac:	d0 37       	jge	$-94     	;abs 0x3b4e
    3bae:	f9 3f       	jmp	$-12     	;abs 0x3ba2

00003bb0 <lcd_putdot>:
    3bb0:	0b 12       	push	r11		
    3bb2:	0a 12       	push	r10		
    3bb4:	0b 4f       	mov	r15,	r11	
    3bb6:	0a 4e       	mov	r14,	r10	
    3bb8:	0e 9f       	cmp	r15,	r14	
    3bba:	17 38       	jl	$+48     	;abs 0x3bea
    3bbc:	5f 42 02 11 	mov.b	&0x1102,r15	
    3bc0:	4e 4b       	mov.b	r11,	r14	
    3bc2:	7b 90 15 00 	cmp.b	#21,	r11	;#0x0015
    3bc6:	01 28       	jnc	$+4      	;abs 0x3bca
    3bc8:	4e 43       	clr.b	r14		
    3bca:	7f 90 10 00 	cmp.b	#16,	r15	;#0x0010
    3bce:	10 2c       	jc	$+34     	;abs 0x3bf0
    3bd0:	c2 4e 04 11 	mov.b	r14,	&0x1104	
    3bd4:	c2 4f 02 11 	mov.b	r15,	&0x1102	
    3bd8:	0b 9a       	cmp	r10,	r11	
    3bda:	07 34       	jge	$+16     	;abs 0x3bea
    3bdc:	7f 40 2e 00 	mov.b	#46,	r15	;#0x002e
    3be0:	b0 12 b6 3a 	call	#0x3ab6	
    3be4:	1b 53       	inc	r11		
    3be6:	0b 9a       	cmp	r10,	r11	
    3be8:	f9 3b       	jl	$-12     	;abs 0x3bdc
    3bea:	3a 41       	pop	r10		
    3bec:	3b 41       	pop	r11		
    3bee:	30 41       	ret			
    3bf0:	4f 43       	clr.b	r15		
    3bf2:	ee 3f       	jmp	$-34     	;abs 0x3bd0

00003bf4 <asciitable>:
    3bf4:	00 00       	bra	@r0		
    3bf6:	00 00       	bra	@r0		
    3bf8:	00 3e       	jmp	$-1022   	;abs 0x37fa
    3bfa:	0a 34       	jge	$+22     	;abs 0x3c10
    3bfc:	00 3e       	jmp	$-1022   	;abs 0x37fe
    3bfe:	18 3e       	jmp	$-974    	;abs 0x3830
    3c00:	00 3e       	jmp	$-1022   	;abs 0x3802
    3c02:	22 00 3e 20 	mova	&0x0203e,r2	
    3c06:	20 00 22 1c 	bra	&0x01c22	
    3c0a:	00 24       	jz	$+2      	;abs 0x3c0c
    3c0c:	2a 00 08 38 	mova	&0x03808,r10	
    3c10:	38 08 1c 22 	mova	8732(r8),r8	;0x221c(r8)
    3c14:	22 22       	jnz	$-954    	;abs 0x385a
    3c16:	1c 00       	mova	#0x00000,r12	
    3c18:	38 38       	jl	$+114    	;abs 0x3c8a
    3c1a:	44 82       	sub.b	r2,	r4	
    3c1c:	1c 3e       	jmp	$-966    	;abs 0x3856
    3c1e:	62 62       	addc.b	#4,	r2	;r2 As==10
    3c20:	32 2e       	jc	$-922    	;abs 0x3886
    3c22:	26 23       	jnz	$-434    	;abs 0x3a70
    3c24:	23 22       	jnz	$-952    	;abs 0x386c
    3c26:	00 00       	bra	@r0		
    3c28:	00 00       	bra	@r0		
    3c2a:	00 1c       	.word	0x1c00;	????	
    3c2c:	3e 36       	jge	$-898    	;abs 0x38aa
    3c2e:	22 36       	jge	$-954    	;abs 0x3874
    3c30:	3e 3e       	jmp	$-898    	;abs 0x38ae
    3c32:	36 36       	jge	$-914    	;abs 0x38a0
    3c34:	36 00 00 00 	mova	0x0000,	r6	;PC rel. 0x03c36
    3c38:	00 00       	bra	@r0		
    3c3a:	18 08       	mova	@r8+,	r8	
    3c3c:	1c 22       	jnz	$-966    	;abs 0x3876
    3c3e:	22 63       	addc	#2,	r2	;r3 As==10
    3c40:	55 4d 55 6b 	mov.b	27477(r13),r5	;0x6b55(r13)
    3c44:	00 3e       	jmp	$-1022   	;abs 0x3846
    3c46:	0a 04       	mova	@r4,	r10	
    3c48:	78 00 3e 0a 	mova	r0,	2622(r8);0x0a3e(r8)
    3c4c:	04 78       	subc	r8,	r4	
    3c4e:	00 38       	jl	$+2      	;abs 0x3c50
    3c50:	44 5f       	add.b	r15,	r4	
    3c52:	4e 00       	rrcm.a	#1,	r14	
    3c54:	38 44       	mov	@r4+,	r8	
    3c56:	44 5f       	add.b	r15,	r4	
    3c58:	00 3c       	jmp	$+2      	;abs 0x3c5a
    3c5a:	3c 3c       	jmp	$+122    	;abs 0x3cd4
    3c5c:	3c 00 3e 0a 	mova	0x0a3e,	r12	;PC rel. 0x0469c
    3c60:	04 78       	subc	r8,	r4	
    3c62:	18 24       	jz	$+50     	;abs 0x3c94
    3c64:	42 24       	jz	$+134    	;abs 0x3cea
    3c66:	18 18 3c 7e 	subcx	@r14+,	r12	
    3c6a:	3c 18 c0 f0 	andx.a	r0,	0xcf0fc	;PC rel. 0xd2d6c
    3c6e:	fc f0 
    3c70:	c0 03       	bra	#0		;r3 As==00
    3c72:	0f 3f       	jmp	$-480    	;abs 0x3a92
    3c74:	0f 03       	mova	#2,	r15	;r3 As==10
    3c76:	ff 7e 3c 18 	subc.b	@r14+,	6204(r15);0x183c(r15)
    3c7a:	00 00       	bra	@r0		
    3c7c:	18 3c       	jmp	$+50     	;abs 0x3cae
    3c7e:	7e ff       	and.b	@r15+,	r14	
    3c80:	00 3c       	jmp	$+2      	;abs 0x3c82
    3c82:	20 00 00 08 	bra	&0x00800	
    3c86:	14 00       	mova	#0x00000,r4	
    3c88:	14 08       	mova	@r8+,	r4	
    3c8a:	08 0c       	mova	@r12,	r8	
    3c8c:	0e 0c       	mova	@r12,	r14	
    3c8e:	08 08       	mova	@r8,	r8	
    3c90:	18 38       	jl	$+50     	;abs 0x3cc2
    3c92:	18 08       	mova	@r8+,	r8	
    3c94:	00 00       	bra	@r0		
    3c96:	00 00       	bra	@r0		
    3c98:	00 00       	bra	@r0		
    3c9a:	00 5f       	add	r15,	r0	
    3c9c:	00 00       	bra	@r0		
    3c9e:	00 07       	bra	@r7		
    3ca0:	00 07       	bra	@r7		
    3ca2:	00 14       	pushm.a	#1,	r0	
    3ca4:	7f 14       	pushm.a	#8,	r15	
    3ca6:	7f 14       	pushm.a	#8,	r15	
    3ca8:	24 2a       	jnc	$-950    	;abs 0x38f2
    3caa:	7f 2a       	jnc	$-768    	;abs 0x39aa
    3cac:	12 23       	jnz	$-474    	;abs 0x3ad2
    3cae:	13 08       	.word	0x0813;	????	Illegal as address instr
    3cb0:	64 62       	addc.b	#4,	r4	;r2 As==10
    3cb2:	36 49       	mov	@r9+,	r6	
    3cb4:	55 22       	jnz	$-852    	;abs 0x3960
    3cb6:	50 00       	rrcm	#1,	r0	
    3cb8:	05 03       	mova	#2,	r5	;r3 As==10
    3cba:	00 00       	bra	@r0		
    3cbc:	00 1c 22 41 	movx	@r1,	r2	
    3cc0:	00 00       	bra	@r0		
    3cc2:	41 22       	jnz	$-892    	;abs 0x3946
    3cc4:	1c 00       	mova	#0x00000,r12	
    3cc6:	14 08       	mova	@r8+,	r4	
    3cc8:	3e 08 14 08 	mova	2068(r8),r14	;0x0814(r8)
    3ccc:	08 3e       	jmp	$-1006   	;abs 0x38de
    3cce:	08 08       	mova	@r8,	r8	
    3cd0:	00 50       	rla	r0		
    3cd2:	30 00 00 08 	bra	0x0800		;PC rel. 0x044d4
    3cd6:	08 08       	mova	@r8,	r8	
    3cd8:	08 08       	mova	@r8,	r8	
    3cda:	00 60       	rlc	r0		
    3cdc:	60 00 00 20 	mova	r0,	&0x02000
    3ce0:	10 08       	bra	@r8+		
    3ce2:	04 02       	mova	#4,	r4	;r2 As==10
    3ce4:	3e 51       	add	@r1+,	r14	
    3ce6:	49 45       	mov.b	r5,	r9	
    3ce8:	3e 00 42 7f 	mova	0x7f42,	r14	;PC rel. 0x0bc2c
    3cec:	40 00       	rrcm.a	#1,	r0	
    3cee:	42 61       	addc.b	r1,	r2	
    3cf0:	51 49 46 21 	mov.b	8518(r9),r1	;0x2146(r9)
    3cf4:	41 45       	mov.b	r5,	r1	
    3cf6:	4b 31       	jn	$+664    	;abs 0x3f8e
    3cf8:	18 14       	pushm.a	#2,	r8	
    3cfa:	12 7f 10 27 	subc	10000(r15),r2	;0x2710(r15)
    3cfe:	45 45       	mov.b	r5,	r5	
    3d00:	45 39       	jl	$+652    	;abs 0x3f8c
    3d02:	3c 4a       	mov	@r10+,	r12	
    3d04:	49 49       	mov.b	r9,	r9	
    3d06:	30 01 71 09 	bra	2417(r1)	;0x0971(r1)
    3d0a:	05 03       	mova	#2,	r5	;r3 As==10
    3d0c:	36 49       	mov	@r9+,	r6	
    3d0e:	49 49       	mov.b	r9,	r9	
    3d10:	36 06 49 49 	mova	18761(r6),r6	;0x4949(r6)
    3d14:	29 1e       	.word	0x1e29;	????	
    3d16:	00 36       	jge	$-1022   	;abs 0x3918
    3d18:	36 00 00 00 	mova	0x0000,	r6	;PC rel. 0x03d1a
    3d1c:	56 36       	jge	$-850    	;abs 0x39ca
    3d1e:	00 00       	bra	@r0		
    3d20:	08 14       	pushm.a	#1,	r8	
    3d22:	22 41       	mov	@r1,	r2	
    3d24:	00 14       	pushm.a	#1,	r0	
    3d26:	14 14       	pushm.a	#2,	r4	
    3d28:	14 14       	pushm.a	#2,	r4	
    3d2a:	00 41       	br	r1		
    3d2c:	22 14       	pushm.a	#3,	r2	
    3d2e:	08 02       	mova	#4,	r8	;r2 As==10
    3d30:	01 51       	rla	r1		
    3d32:	09 06       	mova	@r6,	r9	
    3d34:	32 49       	mov	@r9+,	r2	
    3d36:	79 41       	pop.b	r9		
    3d38:	3e 7e       	subc	@r14+,	r14	
    3d3a:	11 11 11 7e 	rra	32273(r1)	;0x7e11(r1)
    3d3e:	7f 49       	mov.b	@r9+,	r15	
    3d40:	49 49       	mov.b	r9,	r9	
    3d42:	36 3e       	jmp	$-914    	;abs 0x39b0
    3d44:	41 41       	mov.b	r1,	r1	
    3d46:	41 22       	jnz	$-892    	;abs 0x39ca
    3d48:	7f 41       	pop.b	r15		
    3d4a:	41 22       	jnz	$-892    	;abs 0x39ce
    3d4c:	1c 7f 49 49 	subc	18761(r15),r12	;0x4949(r15)
    3d50:	49 41       	mov.b	r1,	r9	
    3d52:	7f 09 09 09 	mova	r9,	2313(r15);0x0909(r15)
    3d56:	01 3e       	jmp	$-1020   	;abs 0x395a
    3d58:	41 49       	mov.b	r9,	r1	
    3d5a:	49 7a       	subc.b	r10,	r9	
    3d5c:	7f 08 08 08 	mova	r8,	2056(r15);0x0808(r15)
    3d60:	7f 00 41 7f 	mova	r0,	32577(r15);0x7f41(r15)
    3d64:	41 00       	rrcm.a	#1,	r1	
    3d66:	20 40       	br	@r0		
    3d68:	41 3f       	jmp	$-380    	;abs 0x3bec
    3d6a:	01 7f       	subc	r15,	r1	
    3d6c:	08 14       	pushm.a	#1,	r8	
    3d6e:	22 41       	mov	@r1,	r2	
    3d70:	7f 40 40 40 	mov.b	#16448,	r15	;#0x4040
    3d74:	40 7f       	subc.b	r15,	r0	
    3d76:	02 0c       	mova	@r12,	r2	
    3d78:	02 7f       	subc	r15,	r2	
    3d7a:	7f 04 08 10 	mova	r4,	4104(r15);0x1008(r15)
    3d7e:	7f 3e       	jmp	$-768    	;abs 0x3a7e
    3d80:	41 41       	mov.b	r1,	r1	
    3d82:	41 3e       	jmp	$-892    	;abs 0x3a06
    3d84:	7f 09 09 09 	mova	r9,	2313(r15);0x0909(r15)
    3d88:	06 3e       	jmp	$-1010   	;abs 0x3996
    3d8a:	41 51       	rla.b	r1		
    3d8c:	21 5e       	add	@r14,	r1	
    3d8e:	7f 09 19 29 	mova	r9,	10521(r15);0x2919(r15)
    3d92:	46 46       	mov.b	r6,	r6	
    3d94:	49 49       	mov.b	r9,	r9	
    3d96:	49 31       	jn	$+660    	;abs 0x402a
    3d98:	01 01       	mova	@r1,	r1	
    3d9a:	7f 01 01 3f 	mova	r1,	16129(r15);0x3f01(r15)
    3d9e:	40 40       	br	r0		
    3da0:	40 3f       	jmp	$-382    	;abs 0x3c22
    3da2:	1f 20       	jnz	$+64     	;abs 0x3de2
    3da4:	40 20       	jnz	$+130    	;abs 0x3e26
    3da6:	1f 3f       	jmp	$-448    	;abs 0x3be6
    3da8:	40 38       	jl	$+130    	;abs 0x3e2a
    3daa:	40 3f       	jmp	$-382    	;abs 0x3c2c
    3dac:	63 14       	pushm.a	#7,	#0	;r3 As==00
    3dae:	08 14       	pushm.a	#1,	r8	
    3db0:	63 07 08 70 	mova	r7,	&0x37008
    3db4:	08 07       	mova	@r7,	r8	
    3db6:	61 51       	add.b	@r1,	r1	
    3db8:	49 45       	mov.b	r5,	r9	
    3dba:	43 00       	rrcm.a	#1,	#0	;r3 As==00
    3dbc:	7f 41       	pop.b	r15		
    3dbe:	41 00       	rrcm.a	#1,	r1	
    3dc0:	02 04       	mova	@r4,	r2	
    3dc2:	08 10       	rrc	r8		
    3dc4:	20 00 41 41 	bra	&0x04141	
    3dc8:	7f 00 04 02 	mova	r0,	516(r15);0x0204(r15)
    3dcc:	01 02       	mova	#4,	r1	;r2 As==10
    3dce:	04 40       	mov	r0,	r4	
    3dd0:	40 40       	br	r0		
    3dd2:	40 40       	br	r0		
    3dd4:	00 01       	bra	@r1		
    3dd6:	02 04       	mova	@r4,	r2	
    3dd8:	00 20       	jnz	$+2      	;abs 0x3dda
    3dda:	54 54 54 78 	add.b	30804(r4),r4	;0x7854(r4)
    3dde:	7f 48       	mov.b	@r8+,	r15	
    3de0:	44 44       	mov.b	r4,	r4	
    3de2:	38 38       	jl	$+114    	;abs 0x3e54
    3de4:	44 44       	mov.b	r4,	r4	
    3de6:	44 20       	jnz	$+138    	;abs 0x3e70
    3de8:	38 44       	mov	@r4+,	r8	
    3dea:	44 48       	mov.b	r8,	r4	
    3dec:	7f 38       	jl	$+256    	;abs 0x3eec
    3dee:	54 54 54 18 	add.b	6228(r4),r4	;0x1854(r4)
    3df2:	08 7e       	subc	r14,	r8	
    3df4:	09 01       	mova	@r1,	r9	
    3df6:	02 0c       	mova	@r12,	r2	
    3df8:	52 52 52 3e 	add.b	&0x3e52,r2	
    3dfc:	7f 08 04 04 	mova	r8,	1028(r15);0x0404(r15)
    3e00:	78 00 44 7d 	mova	r0,	32068(r8);0x7d44(r8)
    3e04:	40 00       	rrcm.a	#1,	r0	
    3e06:	20 40       	br	@r0		
    3e08:	44 3d       	jmp	$+650    	;abs 0x4092
    3e0a:	00 7f       	subc	r15,	r0	
    3e0c:	10 28       	jnc	$+34     	;abs 0x3e2e
    3e0e:	44 00       	rrcm.a	#1,	r4	
    3e10:	00 41       	br	r1		
    3e12:	7f 40 00 7c 	mov.b	#31744,	r15	;#0x7c00
    3e16:	04 18 04 78 	.rpt	#4
				subcx	r8,	r4	
    3e1a:	7c 08 04 04 	mova	r8,	1028(r12);0x0404(r12)
    3e1e:	78 38       	jl	$+242    	;abs 0x3f10
    3e20:	44 44       	mov.b	r4,	r4	
    3e22:	44 38       	jl	$+138    	;abs 0x3eac
    3e24:	7c 14       	pushm.a	#8,	r12	
    3e26:	14 14       	pushm.a	#2,	r4	
    3e28:	08 08       	mova	@r8,	r8	
    3e2a:	14 14       	pushm.a	#2,	r4	
    3e2c:	18 7c 7c 08 	subc	2172(r12),r8	;0x087c(r12)
    3e30:	04 04       	mova	@r4,	r4	
    3e32:	08 48       	mov	r8,	r8	
    3e34:	54 54 54 20 	add.b	8276(r4),r4	;0x2054(r4)
    3e38:	04 3f       	jmp	$-502    	;abs 0x3c42
    3e3a:	44 40       	mov.b	r0,	r4	
    3e3c:	20 3c       	jmp	$+66     	;abs 0x3e7e
    3e3e:	40 40       	br	r0		
    3e40:	20 7c       	subc	@r12,	r0	
    3e42:	1c 20       	jnz	$+58     	;abs 0x3e7c
    3e44:	40 20       	jnz	$+130    	;abs 0x3ec6
    3e46:	1c 3c       	jmp	$+58     	;abs 0x3e80
    3e48:	40 30       	jn	$+130    	;abs 0x3eca
    3e4a:	40 3c       	jmp	$+130    	;abs 0x3ecc
    3e4c:	44 28       	jnc	$+138    	;abs 0x3ed6
    3e4e:	10 28       	jnc	$+34     	;abs 0x3e70
    3e50:	44 0c       	rrcm.a	#4,	r4	
    3e52:	50 50 50 3c 	add.b	0x3c50,	r0	;PC rel. 0x07aa6
    3e56:	44 64       	rlc.b	r4		
    3e58:	54 4c 44 00 	mov.b	68(r12),r4	;0x0044(r12)
    3e5c:	00 36       	jge	$-1022   	;abs 0x3a5e
    3e5e:	41 00       	rrcm.a	#1,	r1	
    3e60:	00 00       	bra	@r0		
    3e62:	7f 00 00 00 	mova	r0,	0(r15)	;0x0000(r15)
    3e66:	41 36       	jge	$-892    	;abs 0x3aea
    3e68:	08 00       	mova	@r0,	r8	
    3e6a:	10 08       	bra	@r8+		
    3e6c:	08 10       	rrc	r8		
    3e6e:	08 78       	subc	r8,	r8	
    3e70:	46 41       	mov.b	r1,	r6	
    3e72:	46 78       	subc.b	r8,	r6	

00003e74 <clock_init>:
    3e74:	c2 43 58 00 	mov.b	#0,	&0x0058	;r3 As==00
    3e78:	f2 40 77 00 	mov.b	#119,	&0x0056	;#0x0077
    3e7c:	56 00 
    3e7e:	f2 40 cf ff 	mov.b	#-49,	&0x0057	;#0xffcf
    3e82:	57 00 
    3e84:	f2 40 a0 ff 	mov.b	#-96,	&0x0053	;#0xffa0
    3e88:	53 00 
    3e8a:	30 41       	ret			

00003e8c <hardware_setup>:
    3e8c:	b2 40 80 5a 	mov	#23168,	&0x0120	;#0x5a80
    3e90:	20 01 
    3e92:	c2 43 58 00 	mov.b	#0,	&0x0058	;r3 As==00
    3e96:	f2 40 77 00 	mov.b	#119,	&0x0056	;#0x0077
    3e9a:	56 00 
    3e9c:	f2 40 cf ff 	mov.b	#-49,	&0x0057	;#0xffcf
    3ea0:	57 00 
    3ea2:	f2 40 a0 ff 	mov.b	#-96,	&0x0053	;#0xffa0
    3ea6:	53 00 
    3ea8:	f2 d2 2a 00 	bis.b	#8,	&0x002a	;r2 As==11
    3eac:	f2 d2 29 00 	bis.b	#8,	&0x0029	;r2 As==11
    3eb0:	b0 12 6e 32 	call	#0x326e	
    3eb4:	30 41       	ret			

00003eb6 <printf>:
    3eb6:	0d 41       	mov	r1,	r13	
    3eb8:	2d 52       	add	#4,	r13	;r2 As==10
    3eba:	1e 41 02 00 	mov	2(r1),	r14	;0x0002(r1)
    3ebe:	3f 40 1c 3b 	mov	#15132,	r15	;#0x3b1c
    3ec2:	b0 12 e2 3f 	call	#0x3fe2	
    3ec6:	30 41       	ret			

00003ec8 <vprintf>:
    3ec8:	0d 4e       	mov	r14,	r13	
    3eca:	0e 4f       	mov	r15,	r14	
    3ecc:	3f 40 1c 3b 	mov	#15132,	r15	;#0x3b1c
    3ed0:	b0 12 e2 3f 	call	#0x3fe2	
    3ed4:	30 41       	ret			

00003ed6 <print_field>:
    3ed6:	0b 12       	push	r11		
    3ed8:	0a 12       	push	r10		
    3eda:	09 12       	push	r9		
    3edc:	08 12       	push	r8		
    3ede:	07 12       	push	r7		
    3ee0:	06 12       	push	r6		
    3ee2:	05 12       	push	r5		
    3ee4:	04 12       	push	r4		
    3ee6:	21 83       	decd	r1		
    3ee8:	0a 4f       	mov	r15,	r10	
    3eea:	08 4e       	mov	r14,	r8	
    3eec:	07 4d       	mov	r13,	r7	
    3eee:	0f 4c       	mov	r12,	r15	
    3ef0:	8f 10       	swpb	r15		
    3ef2:	8f 11       	sxt	r15		
    3ef4:	4d 4c       	mov.b	r12,	r13	
    3ef6:	4e 4c       	mov.b	r12,	r14	
    3ef8:	7e f0 10 00 	and.b	#16,	r14	;#0x0010
    3efc:	10 24       	jz	$+34     	;abs 0x3f1e
    3efe:	f1 40 30 00 	mov.b	#48,	0(r1)	;#0x0030, 0x0000(r1)
    3f02:	00 00 
    3f04:	7d f0 40 00 	and.b	#64,	r13	;#0x0040
    3f08:	03 24       	jz	$+8      	;abs 0x3f10
    3f0a:	7f 40 58 00 	mov.b	#88,	r15	;#0x0058
    3f0e:	02 3c       	jmp	$+6      	;abs 0x3f14
    3f10:	7f 40 78 00 	mov.b	#120,	r15	;#0x0078
    3f14:	c1 4f 01 00 	mov.b	r15,	1(r1)	;0x0001(r1)
    3f18:	06 41       	mov	r1,	r6	
    3f1a:	26 53       	incd	r6		
    3f1c:	08 3c       	jmp	$+18     	;abs 0x3f2e
    3f1e:	4f 9e       	cmp.b	r14,	r15	
    3f20:	05 24       	jz	$+12     	;abs 0x3f2c
    3f22:	c1 4f 00 00 	mov.b	r15,	0(r1)	;0x0000(r1)
    3f26:	06 41       	mov	r1,	r6	
    3f28:	16 53       	inc	r6		
    3f2a:	01 3c       	jmp	$+4      	;abs 0x3f2e
    3f2c:	06 41       	mov	r1,	r6	
    3f2e:	06 81       	sub	r1,	r6	
    3f30:	6c b2       	bit.b	#4,	r12	;r2 As==10
    3f32:	2b 20       	jnz	$+88     	;abs 0x3f8a
    3f34:	0f 48       	mov	r8,	r15	
    3f36:	3f 53       	add	#-1,	r15	;r3 As==11
    3f38:	1f 53       	inc	r15		
    3f3a:	cf 93 00 00 	tst.b	0(r15)		;0x0000(r15)
    3f3e:	fc 23       	jnz	$-6      	;abs 0x3f38
    3f40:	05 4f       	mov	r15,	r5	
    3f42:	05 88       	sub	r8,	r5	
    3f44:	07 96       	cmp	r6,	r7	
    3f46:	02 28       	jnc	$+6      	;abs 0x3f4c
    3f48:	07 86       	sub	r6,	r7	
    3f4a:	01 3c       	jmp	$+4      	;abs 0x3f4e
    3f4c:	07 43       	clr	r7		
    3f4e:	7c f0 20 00 	and.b	#32,	r12	;#0x0020
    3f52:	0e 24       	jz	$+30     	;abs 0x3f70
    3f54:	09 43       	clr	r9		
    3f56:	06 3c       	jmp	$+14     	;abs 0x3f64
    3f58:	0f 41       	mov	r1,	r15	
    3f5a:	0f 59       	add	r9,	r15	
    3f5c:	6f 4f       	mov.b	@r15,	r15	
    3f5e:	8f 11       	sxt	r15		
    3f60:	19 53       	inc	r9		
    3f62:	8a 12       	call	r10		
    3f64:	09 96       	cmp	r6,	r9	
    3f66:	f8 3b       	jl	$-14     	;abs 0x3f58
    3f68:	0b 46       	mov	r6,	r11	
    3f6a:	74 40 30 00 	mov.b	#48,	r4	;#0x0030
    3f6e:	0a 3c       	jmp	$+22     	;abs 0x3f84
    3f70:	74 40 20 00 	mov.b	#32,	r4	;#0x0020
    3f74:	09 43       	clr	r9		
    3f76:	0b 49       	mov	r9,	r11	
    3f78:	05 3c       	jmp	$+12     	;abs 0x3f84
    3f7a:	4f 44       	mov.b	r4,	r15	
    3f7c:	8f 11       	sxt	r15		
    3f7e:	8a 12       	call	r10		
    3f80:	1b 53       	inc	r11		
    3f82:	15 53       	inc	r5		
    3f84:	05 97       	cmp	r7,	r5	
    3f86:	f9 2b       	jnc	$-12     	;abs 0x3f7a
    3f88:	02 3c       	jmp	$+6      	;abs 0x3f8e
    3f8a:	09 43       	clr	r9		
    3f8c:	0b 49       	mov	r9,	r11	
    3f8e:	09 51       	add	r1,	r9	
    3f90:	05 3c       	jmp	$+12     	;abs 0x3f9c
    3f92:	1b 53       	inc	r11		
    3f94:	6f 49       	mov.b	@r9,	r15	
    3f96:	8f 11       	sxt	r15		
    3f98:	8a 12       	call	r10		
    3f9a:	19 53       	inc	r9		
    3f9c:	0f 49       	mov	r9,	r15	
    3f9e:	0f 81       	sub	r1,	r15	
    3fa0:	0f 96       	cmp	r6,	r15	
    3fa2:	f7 3b       	jl	$-16     	;abs 0x3f92
    3fa4:	05 3c       	jmp	$+12     	;abs 0x3fb0
    3fa6:	6f 48       	mov.b	@r8,	r15	
    3fa8:	8f 11       	sxt	r15		
    3faa:	8a 12       	call	r10		
    3fac:	18 53       	inc	r8		
    3fae:	1b 53       	inc	r11		
    3fb0:	c8 93 00 00 	tst.b	0(r8)		;0x0000(r8)
    3fb4:	f8 23       	jnz	$-14     	;abs 0x3fa6
    3fb6:	04 3c       	jmp	$+10     	;abs 0x3fc0
    3fb8:	3f 40 20 00 	mov	#32,	r15	;#0x0020
    3fbc:	8a 12       	call	r10		
    3fbe:	1b 53       	inc	r11		
    3fc0:	0b 97       	cmp	r7,	r11	
    3fc2:	fa 2b       	jnc	$-10     	;abs 0x3fb8
    3fc4:	0f 4b       	mov	r11,	r15	
    3fc6:	21 53       	incd	r1		
    3fc8:	34 41       	pop	r4		
    3fca:	35 41       	pop	r5		
    3fcc:	36 41       	pop	r6		
    3fce:	37 41       	pop	r7		
    3fd0:	38 41       	pop	r8		
    3fd2:	39 41       	pop	r9		
    3fd4:	3a 41       	pop	r10		
    3fd6:	3b 41       	pop	r11		
    3fd8:	30 41       	ret			
    3fda:	28 6e       	addc	@r14,	r8	
    3fdc:	75 6c       	addc.b	@r12+,	r5	
    3fde:	6c 29       	jnc	$+730    	;abs 0x42b8
	...

00003fe2 <vuprintf>:
    3fe2:	0b 12       	push	r11		
    3fe4:	0a 12       	push	r10		
    3fe6:	09 12       	push	r9		
    3fe8:	08 12       	push	r8		
    3fea:	07 12       	push	r7		
    3fec:	06 12       	push	r6		
    3fee:	05 12       	push	r5		
    3ff0:	04 12       	push	r4		
    3ff2:	31 50 de ff 	add	#-34,	r1	;#0xffde
    3ff6:	81 4f 18 00 	mov	r15,	24(r1)	;0x0018(r1)
    3ffa:	81 4e 1a 00 	mov	r14,	26(r1)	;0x001a(r1)
    3ffe:	81 4d 0e 00 	mov	r13,	14(r1)	;0x000e(r1)
    4002:	81 43 10 00 	mov	#0,	16(r1)	;r3 As==00, 0x0010(r1)
    4006:	1a 41 10 00 	mov	16(r1),	r10	;0x0010(r1)
    400a:	81 4a 12 00 	mov	r10,	18(r1)	;0x0012(r1)
    400e:	30 40 24 43 	br	#0x4324	
    4012:	0a 93       	tst	r10		
    4014:	0b 20       	jnz	$+24     	;abs 0x402c
    4016:	7e 90 25 00 	cmp.b	#37,	r14	;#0x0025
    401a:	02 24       	jz	$+6      	;abs 0x4020
    401c:	30 40 0e 43 	br	#0x430e	
    4020:	81 4a 00 00 	mov	r10,	0(r1)	;0x0000(r1)
    4024:	81 4a 10 00 	mov	r10,	16(r1)	;0x0010(r1)
    4028:	30 40 1e 43 	br	#0x431e	
    402c:	7e 90 63 00 	cmp.b	#99,	r14	;#0x0063
    4030:	a3 24       	jz	$+328    	;abs 0x4178
    4032:	7f 40 63 00 	mov.b	#99,	r15	;#0x0063
    4036:	4f 9e       	cmp.b	r14,	r15	
    4038:	2a 38       	jl	$+86     	;abs 0x408e
    403a:	7e 90 30 00 	cmp.b	#48,	r14	;#0x0030
    403e:	78 24       	jz	$+242    	;abs 0x4130
    4040:	7f 50 cd ff 	add.b	#-51,	r15	;#0xffcd
    4044:	4f 9e       	cmp.b	r14,	r15	
    4046:	19 38       	jl	$+52     	;abs 0x407a
    4048:	7e 90 2a 00 	cmp.b	#42,	r14	;#0x002a
    404c:	5b 24       	jz	$+184    	;abs 0x4104
    404e:	7f 50 fa ff 	add.b	#-6,	r15	;#0xfffa
    4052:	4f 9e       	cmp.b	r14,	r15	
    4054:	09 38       	jl	$+20     	;abs 0x4068
    4056:	7e 90 20 00 	cmp.b	#32,	r14	;#0x0020
    405a:	49 24       	jz	$+148    	;abs 0x40ee
    405c:	7e 90 23 00 	cmp.b	#35,	r14	;#0x0023
    4060:	02 24       	jz	$+6      	;abs 0x4066
    4062:	30 40 0e 43 	br	#0x430e	
    4066:	32 3c       	jmp	$+102    	;abs 0x40cc
    4068:	7e 90 2b 00 	cmp.b	#43,	r14	;#0x002b
    406c:	3b 24       	jz	$+120    	;abs 0x40e4
    406e:	7e 90 2d 00 	cmp.b	#45,	r14	;#0x002d
    4072:	02 24       	jz	$+6      	;abs 0x4078
    4074:	30 40 0e 43 	br	#0x430e	
    4078:	31 3c       	jmp	$+100    	;abs 0x40dc
    407a:	7f 40 39 00 	mov.b	#57,	r15	;#0x0039
    407e:	4f 9e       	cmp.b	r14,	r15	
    4080:	6c 34       	jge	$+218    	;abs 0x415a
    4082:	7e 90 58 00 	cmp.b	#88,	r14	;#0x0058
    4086:	02 24       	jz	$+6      	;abs 0x408c
    4088:	30 40 0e 43 	br	#0x430e	
    408c:	a9 3c       	jmp	$+340    	;abs 0x41e0
    408e:	7e 90 70 00 	cmp.b	#112,	r14	;#0x0070
    4092:	8f 24       	jz	$+288    	;abs 0x41b2
    4094:	7f 40 70 00 	mov.b	#112,	r15	;#0x0070
    4098:	4f 9e       	cmp.b	r14,	r15	
    409a:	0c 38       	jl	$+26     	;abs 0x40b4
    409c:	7e 90 69 00 	cmp.b	#105,	r14	;#0x0069
    40a0:	a3 24       	jz	$+328    	;abs 0x41e8
    40a2:	7e 90 6c 00 	cmp.b	#108,	r14	;#0x006c
    40a6:	16 24       	jz	$+46     	;abs 0x40d4
    40a8:	7e 90 64 00 	cmp.b	#100,	r14	;#0x0064
    40ac:	02 24       	jz	$+6      	;abs 0x40b2
    40ae:	30 40 0e 43 	br	#0x430e	
    40b2:	9a 3c       	jmp	$+310    	;abs 0x41e8
    40b4:	7e 90 75 00 	cmp.b	#117,	r14	;#0x0075
    40b8:	99 24       	jz	$+308    	;abs 0x41ec
    40ba:	7e 90 78 00 	cmp.b	#120,	r14	;#0x0078
    40be:	99 24       	jz	$+308    	;abs 0x41f2
    40c0:	7e 90 73 00 	cmp.b	#115,	r14	;#0x0073
    40c4:	02 24       	jz	$+6      	;abs 0x40ca
    40c6:	30 40 0e 43 	br	#0x430e	
    40ca:	5d 3c       	jmp	$+188    	;abs 0x4186
    40cc:	f1 d2 00 00 	bis.b	#8,	0(r1)	;r2 As==11, 0x0000(r1)
    40d0:	30 40 1e 43 	br	#0x431e	
    40d4:	d1 d3 00 00 	bis.b	#1,	0(r1)	;r3 As==01, 0x0000(r1)
    40d8:	30 40 1e 43 	br	#0x431e	
    40dc:	e1 d2 00 00 	bis.b	#4,	0(r1)	;r2 As==10, 0x0000(r1)
    40e0:	30 40 1e 43 	br	#0x431e	
    40e4:	f1 40 2b 00 	mov.b	#43,	1(r1)	;#0x002b, 0x0001(r1)
    40e8:	01 00 
    40ea:	30 40 1e 43 	br	#0x431e	
    40ee:	f1 90 2b 00 	cmp.b	#43,	1(r1)	;#0x002b, 0x0001(r1)
    40f2:	01 00 
    40f4:	02 20       	jnz	$+6      	;abs 0x40fa
    40f6:	30 40 1e 43 	br	#0x431e	
    40fa:	f1 40 20 00 	mov.b	#32,	1(r1)	;#0x0020, 0x0001(r1)
    40fe:	01 00 
    4100:	30 40 1e 43 	br	#0x431e	
    4104:	1c 41 0e 00 	mov	14(r1),	r12	;0x000e(r1)
    4108:	2c 53       	incd	r12		
    410a:	1f 41 0e 00 	mov	14(r1),	r15	;0x000e(r1)
    410e:	2e 4f       	mov	@r15,	r14	
    4110:	0e 93       	tst	r14		
    4112:	03 38       	jl	$+8      	;abs 0x411a
    4114:	81 4e 10 00 	mov	r14,	16(r1)	;0x0010(r1)
    4118:	07 3c       	jmp	$+16     	;abs 0x4128
    411a:	e1 d2 00 00 	bis.b	#4,	0(r1)	;r2 As==10, 0x0000(r1)
    411e:	3e e3       	inv	r14		
    4120:	81 4e 10 00 	mov	r14,	16(r1)	;0x0010(r1)
    4124:	91 53 10 00 	inc	16(r1)		;0x0010(r1)
    4128:	81 4c 0e 00 	mov	r12,	14(r1)	;0x000e(r1)
    412c:	30 40 1e 43 	br	#0x431e	
    4130:	81 93 10 00 	tst	16(r1)		;0x0010(r1)
    4134:	12 20       	jnz	$+38     	;abs 0x415a
    4136:	6b 41       	mov.b	@r1,	r11	
    4138:	6b f2       	and.b	#4,	r11	;r2 As==10
    413a:	5a 43       	mov.b	#1,	r10	;r3 As==01
    413c:	02 24       	jz	$+6      	;abs 0x4142
    413e:	5a 41 10 00 	mov.b	16(r1),	r10	;0x0010(r1)
    4142:	5a f3       	and.b	#1,	r10	;r3 As==01
    4144:	4a 5a       	rla.b	r10		
    4146:	4a 5a       	rla.b	r10		
    4148:	4a 5a       	rla.b	r10		
    414a:	4a 5a       	rla.b	r10		
    414c:	4a 5a       	rla.b	r10		
    414e:	6b 41       	mov.b	@r1,	r11	
    4150:	7b f0 df ff 	and.b	#-33,	r11	;#0xffdf
    4154:	4b da       	bis.b	r10,	r11	
    4156:	c1 4b 00 00 	mov.b	r11,	0(r1)	;0x0000(r1)
    415a:	1b 41 10 00 	mov	16(r1),	r11	;0x0010(r1)
    415e:	0b 5b       	rla	r11		
    4160:	0b 5b       	rla	r11		
    4162:	1b 51 10 00 	add	16(r1),	r11	;0x0010(r1)
    4166:	0b 5b       	rla	r11		
    4168:	8e 11       	sxt	r14		
    416a:	3e 50 d0 ff 	add	#-48,	r14	;#0xffd0
    416e:	81 4e 10 00 	mov	r14,	16(r1)	;0x0010(r1)
    4172:	81 5b 10 00 	add	r11,	16(r1)	;0x0010(r1)
    4176:	d3 3c       	jmp	$+424    	;abs 0x431e
    4178:	1f 41 0e 00 	mov	14(r1),	r15	;0x000e(r1)
    417c:	6e 4f       	mov.b	@r15,	r14	
    417e:	2f 53       	incd	r15		
    4180:	81 4f 0e 00 	mov	r15,	14(r1)	;0x000e(r1)
    4184:	c4 3c       	jmp	$+394    	;abs 0x430e
    4186:	1b 41 0e 00 	mov	14(r1),	r11	;0x000e(r1)
    418a:	2b 53       	incd	r11		
    418c:	1f 41 0e 00 	mov	14(r1),	r15	;0x000e(r1)
    4190:	2e 4f       	mov	@r15,	r14	
    4192:	0e 93       	tst	r14		
    4194:	02 20       	jnz	$+6      	;abs 0x419a
    4196:	3e 40 da 3f 	mov	#16346,	r14	;#0x3fda
    419a:	2c 41       	mov	@r1,	r12	
    419c:	1d 41 10 00 	mov	16(r1),	r13	;0x0010(r1)
    41a0:	1f 41 18 00 	mov	24(r1),	r15	;0x0018(r1)
    41a4:	b0 12 d6 3e 	call	#0x3ed6	
    41a8:	81 5f 12 00 	add	r15,	18(r1)	;0x0012(r1)
    41ac:	81 4b 0e 00 	mov	r11,	14(r1)	;0x000e(r1)
    41b0:	b4 3c       	jmp	$+362    	;abs 0x431a
    41b2:	1f 41 0e 00 	mov	14(r1),	r15	;0x000e(r1)
    41b6:	a1 4f 14 00 	mov	@r15,	20(r1)	;0x0014(r1)
    41ba:	1f 41 14 00 	mov	20(r1),	r15	;0x0014(r1)
    41be:	8f 10       	swpb	r15		
    41c0:	8f 11       	sxt	r15		
    41c2:	8f 10       	swpb	r15		
    41c4:	8f 11       	sxt	r15		
    41c6:	81 4f 16 00 	mov	r15,	22(r1)	;0x0016(r1)
    41ca:	15 41 14 00 	mov	20(r1),	r5	;0x0014(r1)
    41ce:	16 41 16 00 	mov	22(r1),	r6	;0x0016(r1)
    41d2:	35 f3       	and	#-1,	r5	;r3 As==11
    41d4:	06 f3       	and	#0,	r6	;r3 As==00
    41d6:	f1 d2 00 00 	bis.b	#8,	0(r1)	;r2 As==11, 0x0000(r1)
    41da:	a1 53 0e 00 	incd	14(r1)		;0x000e(r1)
    41de:	30 3c       	jmp	$+98     	;abs 0x4240
    41e0:	f1 d0 40 00 	bis.b	#64,	0(r1)	;#0x0040, 0x0000(r1)
    41e4:	00 00 
    41e6:	05 3c       	jmp	$+12     	;abs 0x41f2
    41e8:	e1 d3 00 00 	bis.b	#2,	0(r1)	;r3 As==10, 0x0000(r1)
    41ec:	34 40 0a 00 	mov	#10,	r4	;#0x000a
    41f0:	02 3c       	jmp	$+6      	;abs 0x41f6
    41f2:	34 40 10 00 	mov	#16,	r4	;#0x0010
    41f6:	6b 41       	mov.b	@r1,	r11	
    41f8:	4c 4b       	mov.b	r11,	r12	
    41fa:	5c f3       	and.b	#1,	r12	;r3 As==01
    41fc:	09 24       	jz	$+20     	;abs 0x4210
    41fe:	1f 41 0e 00 	mov	14(r1),	r15	;0x000e(r1)
    4202:	25 4f       	mov	@r15,	r5	
    4204:	16 4f 02 00 	mov	2(r15),	r6	;0x0002(r15)
    4208:	2f 52       	add	#4,	r15	;r2 As==10
    420a:	81 4f 0e 00 	mov	r15,	14(r1)	;0x000e(r1)
    420e:	15 3c       	jmp	$+44     	;abs 0x423a
    4210:	6b f3       	and.b	#2,	r11	;r3 As==10
    4212:	1a 41 0e 00 	mov	14(r1),	r10	;0x000e(r1)
    4216:	2a 53       	incd	r10		
    4218:	4b 9c       	cmp.b	r12,	r11	
    421a:	09 24       	jz	$+20     	;abs 0x422e
    421c:	1f 41 0e 00 	mov	14(r1),	r15	;0x000e(r1)
    4220:	25 4f       	mov	@r15,	r5	
    4222:	06 45       	mov	r5,	r6	
    4224:	86 10       	swpb	r6		
    4226:	86 11       	sxt	r6		
    4228:	86 10       	swpb	r6		
    422a:	86 11       	sxt	r6		
    422c:	04 3c       	jmp	$+10     	;abs 0x4236
    422e:	1f 41 0e 00 	mov	14(r1),	r15	;0x000e(r1)
    4232:	25 4f       	mov	@r15,	r5	
    4234:	06 43       	clr	r6		
    4236:	81 4a 0e 00 	mov	r10,	14(r1)	;0x000e(r1)
    423a:	34 90 10 00 	cmp	#16,	r4	;#0x0010
    423e:	0c 20       	jnz	$+26     	;abs 0x4258
    4240:	05 93       	tst	r5		
    4242:	02 20       	jnz	$+6      	;abs 0x4248
    4244:	06 93       	tst	r6		
    4246:	06 24       	jz	$+14     	;abs 0x4254
    4248:	f1 b2 00 00 	bit.b	#8,	0(r1)	;r2 As==11, 0x0000(r1)
    424c:	03 24       	jz	$+8      	;abs 0x4254
    424e:	f1 d0 10 00 	bis.b	#16,	0(r1)	;#0x0010, 0x0000(r1)
    4252:	00 00 
    4254:	34 40 10 00 	mov	#16,	r4	;#0x0010
    4258:	e1 b3 00 00 	bit.b	#2,	0(r1)	;r3 As==10, 0x0000(r1)
    425c:	09 24       	jz	$+20     	;abs 0x4270
    425e:	06 93       	tst	r6		
    4260:	07 34       	jge	$+16     	;abs 0x4270
    4262:	f1 40 2d 00 	mov.b	#45,	1(r1)	;#0x002d, 0x0001(r1)
    4266:	01 00 
    4268:	35 e3       	inv	r5		
    426a:	36 e3       	inv	r6		
    426c:	15 53       	inc	r5		
    426e:	06 63       	adc	r6		
    4270:	c1 43 0d 00 	mov.b	#0,	13(r1)	;r3 As==00, 0x000d(r1)
    4274:	6f 41       	mov.b	@r1,	r15	
    4276:	7f f0 40 00 	and.b	#64,	r15	;#0x0040
    427a:	c1 4f 1e 00 	mov.b	r15,	30(r1)	;0x001e(r1)
    427e:	07 41       	mov	r1,	r7	
    4280:	37 50 0b 00 	add	#11,	r7	;#0x000b
    4284:	0f 44       	mov	r4,	r15	
    4286:	8f 10       	swpb	r15		
    4288:	8f 11       	sxt	r15		
    428a:	8f 10       	swpb	r15		
    428c:	8f 11       	sxt	r15		
    428e:	81 4f 1c 00 	mov	r15,	28(r1)	;0x001c(r1)
    4292:	0f 47       	mov	r7,	r15	
    4294:	1f 53       	inc	r15		
    4296:	81 4f 20 00 	mov	r15,	32(r1)	;0x0020(r1)
    429a:	0c 45       	mov	r5,	r12	
    429c:	0d 46       	mov	r6,	r13	
    429e:	0a 44       	mov	r4,	r10	
    42a0:	1b 41 1c 00 	mov	28(r1),	r11	;0x001c(r1)
    42a4:	b0 12 9e 43 	call	#0x439e	
    42a8:	3f 40 09 00 	mov	#9,	r15	;#0x0009
    42ac:	0f 9e       	cmp	r14,	r15	
    42ae:	05 38       	jl	$+12     	;abs 0x42ba
    42b0:	7e 50 30 00 	add.b	#48,	r14	;#0x0030
    42b4:	c7 4e 01 00 	mov.b	r14,	1(r7)	;0x0001(r7)
    42b8:	0b 3c       	jmp	$+24     	;abs 0x42d0
    42ba:	c1 93 1e 00 	tst.b	30(r1)		;0x001e(r1)
    42be:	03 24       	jz	$+8      	;abs 0x42c6
    42c0:	7f 40 37 00 	mov.b	#55,	r15	;#0x0037
    42c4:	02 3c       	jmp	$+6      	;abs 0x42ca
    42c6:	7f 40 57 00 	mov.b	#87,	r15	;#0x0057
    42ca:	4f 5e       	add.b	r14,	r15	
    42cc:	c7 4f 01 00 	mov.b	r15,	1(r7)	;0x0001(r7)
    42d0:	0c 45       	mov	r5,	r12	
    42d2:	0d 46       	mov	r6,	r13	
    42d4:	0a 44       	mov	r4,	r10	
    42d6:	1b 41 1c 00 	mov	28(r1),	r11	;0x001c(r1)
    42da:	b0 12 9e 43 	call	#0x439e	
    42de:	05 4c       	mov	r12,	r5	
    42e0:	06 4d       	mov	r13,	r6	
    42e2:	37 53       	add	#-1,	r7	;r3 As==11
    42e4:	0c 93       	tst	r12		
    42e6:	d5 23       	jnz	$-84     	;abs 0x4292
    42e8:	06 93       	tst	r6		
    42ea:	d3 23       	jnz	$-88     	;abs 0x4292
    42ec:	34 90 0a 00 	cmp	#10,	r4	;#0x000a
    42f0:	02 24       	jz	$+6      	;abs 0x42f6
    42f2:	c1 43 01 00 	mov.b	#0,	1(r1)	;r3 As==00, 0x0001(r1)
    42f6:	2c 41       	mov	@r1,	r12	
    42f8:	1d 41 10 00 	mov	16(r1),	r13	;0x0010(r1)
    42fc:	1e 41 20 00 	mov	32(r1),	r14	;0x0020(r1)
    4300:	1f 41 18 00 	mov	24(r1),	r15	;0x0018(r1)
    4304:	b0 12 d6 3e 	call	#0x3ed6	
    4308:	81 5f 12 00 	add	r15,	18(r1)	;0x0012(r1)
    430c:	06 3c       	jmp	$+14     	;abs 0x431a
    430e:	8e 11       	sxt	r14		
    4310:	0f 4e       	mov	r14,	r15	
    4312:	91 12 1a 00 	call	26(r1)		;0x001a(r1)
    4316:	91 53 12 00 	inc	18(r1)		;0x0012(r1)
    431a:	0a 43       	clr	r10		
    431c:	01 3c       	jmp	$+4      	;abs 0x4320
    431e:	1a 43       	mov	#1,	r10	;r3 As==01
    4320:	91 53 1a 00 	inc	26(r1)		;0x001a(r1)
    4324:	1f 41 1a 00 	mov	26(r1),	r15	;0x001a(r1)
    4328:	6e 4f       	mov.b	@r15,	r14	
    432a:	4e 93       	tst.b	r14		
    432c:	02 24       	jz	$+6      	;abs 0x4332
    432e:	30 40 12 40 	br	#0x4012	
    4332:	1f 41 12 00 	mov	18(r1),	r15	;0x0012(r1)
    4336:	31 50 22 00 	add	#34,	r1	;#0x0022
    433a:	34 41       	pop	r4		
    433c:	35 41       	pop	r5		
    433e:	36 41       	pop	r6		
    4340:	37 41       	pop	r7		
    4342:	38 41       	pop	r8		
    4344:	39 41       	pop	r9		
    4346:	3a 41       	pop	r10		
    4348:	3b 41       	pop	r11		
    434a:	30 41       	ret			

0000434c <__divmodhi4>:
    434c:	0d 43       	clr	r13		
    434e:	3c b0 00 80 	bit	#-32768,r12	;#0x8000
    4352:	03 28       	jnc	$+8      	;abs 0x435a
    4354:	3c e3       	inv	r12		
    4356:	1c 53       	inc	r12		
    4358:	2d d2       	bis	#4,	r13	;r2 As==10
    435a:	3a b0 00 80 	bit	#-32768,r10	;#0x8000
    435e:	03 28       	jnc	$+8      	;abs 0x4366
    4360:	3a e3       	inv	r10		
    4362:	1a 53       	inc	r10		
    4364:	3d d2       	bis	#8,	r13	;r2 As==11
    4366:	b0 12 82 43 	call	#0x4382	
    436a:	0d 10       	rrc	r13		
    436c:	2d b2       	bit	#4,	r13	;r2 As==10
    436e:	04 28       	jnc	$+10     	;abs 0x4378
    4370:	3e e3       	inv	r14		
    4372:	1e 53       	inc	r14		
    4374:	3c e3       	inv	r12		
    4376:	1c 53       	inc	r12		
    4378:	3d b2       	bit	#8,	r13	;r2 As==11
    437a:	02 28       	jnc	$+6      	;abs 0x4380
    437c:	3c e3       	inv	r12		
    437e:	1c 53       	inc	r12		
    4380:	30 41       	ret			

00004382 <__udivmodhi4>:
    4382:	0e ee       	xor	r14,	r14	
    4384:	3b 40 11 00 	mov	#17,	r11	;#0x0011
    4388:	05 3c       	jmp	$+12     	;abs 0x4394
    438a:	0d 10       	rrc	r13		
    438c:	0e 6e       	rlc	r14		
    438e:	0e 9a       	cmp	r10,	r14	
    4390:	01 28       	jnc	$+4      	;abs 0x4394
    4392:	0e 8a       	sub	r10,	r14	
    4394:	0c 6c       	rlc	r12		
    4396:	0d 6d       	rlc	r13		
    4398:	1b 83       	dec	r11		
    439a:	f7 23       	jnz	$-16     	;abs 0x438a
    439c:	30 41       	ret			

0000439e <__udivmodsi4>:
    439e:	0f ef       	xor	r15,	r15	
    43a0:	0e ee       	xor	r14,	r14	
    43a2:	39 40 21 00 	mov	#33,	r9	;#0x0021
    43a6:	0a 3c       	jmp	$+22     	;abs 0x43bc
    43a8:	08 10       	rrc	r8		
    43aa:	0e 6e       	rlc	r14		
    43ac:	0f 6f       	rlc	r15		
    43ae:	0f 9b       	cmp	r11,	r15	
    43b0:	05 28       	jnc	$+12     	;abs 0x43bc
    43b2:	02 20       	jnz	$+6      	;abs 0x43b8
    43b4:	0e 9a       	cmp	r10,	r14	
    43b6:	02 28       	jnc	$+6      	;abs 0x43bc
    43b8:	0e 8a       	sub	r10,	r14	
    43ba:	0f 7b       	subc	r11,	r15	
    43bc:	0c 6c       	rlc	r12		
    43be:	0d 6d       	rlc	r13		
    43c0:	08 68       	rlc	r8		
    43c2:	19 83       	dec	r9		
    43c4:	f1 23       	jnz	$-28     	;abs 0x43a8
    43c6:	30 41       	ret			

000043c8 <_unexpected_>:
    43c8:	00 13       	reti			

Disassembly of section .data:

00001100 <LCDBackColor>:
    1100:	ff 00       	suba	r0,	r15	

Disassembly of section .bss:

00001102 <LCDLineCount>:
	...

00001104 <LCDCharCount>:
	...

00001106 <LCDForeColor>:
	...

Disassembly of section .vectors:

0000ffc0 <__ivtbl_32>:
    ffc0:	0a 32       	jn	$-1002   	;abs 0xfbd6
    ffc2:	0a 32       	jn	$-1002   	;abs 0xfbd8
    ffc4:	0a 32       	jn	$-1002   	;abs 0xfbda
    ffc6:	0a 32       	jn	$-1002   	;abs 0xfbdc
    ffc8:	0a 32       	jn	$-1002   	;abs 0xfbde
    ffca:	0a 32       	jn	$-1002   	;abs 0xfbe0
    ffcc:	0a 32       	jn	$-1002   	;abs 0xfbe2
    ffce:	0a 32       	jn	$-1002   	;abs 0xfbe4
    ffd0:	0a 32       	jn	$-1002   	;abs 0xfbe6
    ffd2:	0a 32       	jn	$-1002   	;abs 0xfbe8
    ffd4:	0a 32       	jn	$-1002   	;abs 0xfbea
    ffd6:	0a 32       	jn	$-1002   	;abs 0xfbec
    ffd8:	0a 32       	jn	$-1002   	;abs 0xfbee
    ffda:	0a 32       	jn	$-1002   	;abs 0xfbf0
    ffdc:	0a 32       	jn	$-1002   	;abs 0xfbf2
    ffde:	0a 32       	jn	$-1002   	;abs 0xfbf4
    ffe0:	0a 32       	jn	$-1002   	;abs 0xfbf6
    ffe2:	0a 32       	jn	$-1002   	;abs 0xfbf8
    ffe4:	0a 32       	jn	$-1002   	;abs 0xfbfa
    ffe6:	0a 32       	jn	$-1002   	;abs 0xfbfc
    ffe8:	0a 32       	jn	$-1002   	;abs 0xfbfe
    ffea:	0a 32       	jn	$-1002   	;abs 0xfc00
    ffec:	0a 32       	jn	$-1002   	;abs 0xfc02
    ffee:	0a 32       	jn	$-1002   	;abs 0xfc04
    fff0:	0a 32       	jn	$-1002   	;abs 0xfc06
    fff2:	0a 32       	jn	$-1002   	;abs 0xfc08
    fff4:	0a 32       	jn	$-1002   	;abs 0xfc0a
    fff6:	0a 32       	jn	$-1002   	;abs 0xfc0c
    fff8:	0a 32       	jn	$-1002   	;abs 0xfc0e
    fffa:	0a 32       	jn	$-1002   	;abs 0xfc10
    fffc:	0a 32       	jn	$-1002   	;abs 0xfc12
    fffe:	00 31       	jn	$+514    	;abs 0x200

Disassembly of section .debug_aranges:

00000000 <.debug_aranges>:
   0:	10 00       	bra	#0x00000	
   2:	00 00       	bra	@r0		
   4:	02 00       	mova	@r0,	r2	
   6:	00 00       	bra	@r0		
   8:	00 00       	bra	@r0		
   a:	02 00       	mova	@r0,	r2	
   c:	38 31       	jn	$+626    	;abs 0x27e
   e:	cc 00       	mova	r0,	r12	
  10:	00 00       	bra	@r0		
  12:	00 00       	bra	@r0		
  14:	10 00       	bra	#0x00000	
  16:	00 00       	bra	@r0		
  18:	02 00       	mova	@r0,	r2	
  1a:	fc 00       	suba	r0,	r12	
  1c:	00 00       	bra	@r0		
  1e:	02 00       	mova	@r0,	r2	
  20:	3a 32       	jn	$-906    	;abs 0xfc96
  22:	34 00 00 00 	mova	0x0000,	r4	;PC rel. 0x00024
  26:	00 00       	bra	@r0		
  28:	10 00       	bra	#0x00000	
  2a:	00 00       	bra	@r0		
  2c:	02 00       	mova	@r0,	r2	
  2e:	cb 01       	mova	r1,	r11	
  30:	00 00       	bra	@r0		
  32:	02 00       	mova	@r0,	r2	
  34:	6e 32       	jn	$-802    	;abs 0xfd12
  36:	40 01       	rram.a	#1,	r0	
  38:	00 00       	bra	@r0		
  3a:	00 00       	bra	@r0		
  3c:	10 00       	bra	#0x00000	
  3e:	00 00       	bra	@r0		
  40:	02 00       	mova	@r0,	r2	
  42:	3b 05 00 00 	mova	0(r5),	r11	;0x0000(r5)
  46:	02 00       	mova	@r0,	r2	
  48:	ae 33       	jn	$-162    	;abs 0xffa6
  4a:	c6 0a       	mova	r10,	r6	
  4c:	00 00       	bra	@r0		
  4e:	00 00       	bra	@r0		
  50:	10 00       	bra	#0x00000	
  52:	00 00       	bra	@r0		
  54:	02 00       	mova	@r0,	r2	
  56:	b9 0c 00 00 	suba	#0xc0000,r9	
  5a:	02 00       	mova	@r0,	r2	
  5c:	74 3e       	jmp	$-790    	;abs 0xfd46
  5e:	42 00       	rrcm.a	#1,	r2	
  60:	00 00       	bra	@r0		
  62:	00 00       	bra	@r0		
  64:	10 00       	bra	#0x00000	
  66:	00 00       	bra	@r0		
  68:	02 00       	mova	@r0,	r2	
  6a:	25 0e 00 00 	mova	&0xe0000,r5	
  6e:	02 00       	mova	@r0,	r2	
  70:	b6 3e       	jmp	$-658    	;abs 0xfdde
  72:	20 00 00 00 	bra	&0x00000	
  76:	00 00       	bra	@r0		
  78:	10 00       	bra	#0x00000	
  7a:	00 00       	bra	@r0		
  7c:	02 00       	mova	@r0,	r2	
  7e:	28 0f 00 00 	mova	&0xf0000,r8	
  82:	02 00       	mova	@r0,	r2	
  84:	d6 3e       	jmp	$-594    	;abs 0xfe32
  86:	76 04 00 00 	mova	r4,	0(r6)	;0x0000(r6)
	...

Disassembly of section .debug_pubnames:

00000000 <.debug_pubnames>:
   0:	17 00       	mova	#0x00000,r7	
   2:	00 00       	bra	@r0		
   4:	02 00       	mova	@r0,	r2	
   6:	00 00       	bra	@r0		
   8:	00 00       	bra	@r0		
   a:	fc 00       	suba	r0,	r12	
   c:	00 00       	bra	@r0		
   e:	6b 00 00 00 	mova	r0,	&0xb0000
  12:	6d 61       	addc.b	@r1,	r13	
  14:	69 6e       	addc.b	@r14,	r9	
  16:	00 00       	bra	@r0		
  18:	00 00       	bra	@r0		
  1a:	00 40       	br	r0		
  1c:	00 00       	bra	@r0		
  1e:	00 02       	bra	#4		;r2 As==10
  20:	00 fc       	and	r12,	r0	
  22:	00 00       	bra	@r0		
  24:	00 cf       	bic	r15,	r0	
  26:	00 00       	bra	@r0		
  28:	00 21       	jnz	$+514    	;abs 0x22a
  2a:	00 00       	bra	@r0		
  2c:	00 64       	addc	r4,	r0	
  2e:	65 6c       	addc.b	@r12,	r5	
  30:	61 79       	subc.b	@r9,	r1	
  32:	32 75       	subc	@r5+,	r2	
  34:	73 00       	.word	0x0073;	????	Illegal as address instr
  36:	49 00       	rrcm.a	#1,	r9	
  38:	00 00       	bra	@r0		
  3a:	64 65       	addc.b	@r5,	r4	
  3c:	6c 61       	addc.b	@r1,	r12	
  3e:	79 35       	jge	$+756    	;abs 0x332
  40:	75 73       	subc.b	#-1,	r5	;r3 As==11
  42:	00 6a       	addc	r10,	r0	
  44:	00 00       	bra	@r0		
  46:	00 64       	addc	r4,	r0	
  48:	65 6c       	addc.b	@r12,	r5	
  4a:	61 79       	subc.b	@r9,	r1	
  4c:	75 73       	subc.b	#-1,	r5	;r3 As==11
  4e:	00 a0       	dadd	r0,	r0	
  50:	00 00       	bra	@r0		
  52:	00 64       	addc	r4,	r0	
  54:	65 6c       	addc.b	@r12,	r5	
  56:	61 79       	subc.b	@r9,	r1	
  58:	6d 73       	subc.b	#2,	r13	;r3 As==10
  5a:	00 00       	bra	@r0		
  5c:	00 00       	bra	@r0		
  5e:	00 89       	sub	r9,	r0	
  60:	00 00       	bra	@r0		
  62:	00 02       	bra	#4		;r2 As==10
  64:	00 cb       	bic	r11,	r0	
  66:	01 00       	mova	@r0,	r1	
  68:	00 70       	subc	r0,	r0	
  6a:	03 00       	.word	0x0003;	????	Illegal as address instr
  6c:	00 83       	sub	#0,	r0	;r3 As==00
  6e:	00 00       	bra	@r0		
  70:	00 69       	addc	r9,	r0	
  72:	32 63       	addc	#-1,	r2	;r3 As==11
  74:	5f 69 6e 69 	addc.b	26990(r9),r15	;0x696e(r9)
  78:	74 5f       	add.b	@r15+,	r4	
  7a:	6d 6f       	addc.b	@r15,	r13	
  7c:	64 75       	subc.b	@r5,	r4	
  7e:	6c 65       	addc.b	@r5,	r12	
  80:	00 97       	cmp	r7,	r0	
  82:	00 00       	bra	@r0		
  84:	00 69       	addc	r9,	r0	
  86:	32 63       	addc	#-1,	r2	;r3 As==11
  88:	5f 66 69 6e 	addc.b	28265(r6),r15	;0x6e69(r6)
  8c:	64 5f       	add.b	@r15,	r4	
  8e:	61 64       	addc.b	@r4,	r1	
  90:	64 72       	subc.b	#4,	r4	;r2 As==10
  92:	65 73       	subc.b	#2,	r5	;r3 As==10
  94:	73 00       	.word	0x0073;	????	Illegal as address instr
  96:	c6 00       	mova	r0,	r6	
  98:	00 00       	bra	@r0		
  9a:	69 32       	jn	$-812    	;abs 0xfd6e
  9c:	63 5f       	.word	0x5f63;	????	Illegal as 2-op instr
  9e:	72 65       	addc.b	@r5+,	r2	
  a0:	61 64       	addc.b	@r4,	r1	
  a2:	5f 62 79 74 	addc.b	&0x7479,r15	
  a6:	65 00 10 01 	mova	r0,	&0x50110
  aa:	00 00       	bra	@r0		
  ac:	69 32       	jn	$-812    	;abs 0xfd80
  ae:	63 5f       	.word	0x5f63;	????	Illegal as 2-op instr
  b0:	77 72       	subc.b	#8,	r7	;r2 As==11
  b2:	69 74       	subc.b	@r4,	r9	
  b4:	65 5f       	add.b	@r15,	r5	
  b6:	62 79       	subc.b	@r9,	r2	
  b8:	74 65       	addc.b	@r5+,	r4	
  ba:	00 47       	br	r7		
  bc:	01 00       	mova	@r0,	r1	
  be:	00 69       	addc	r9,	r0	
  c0:	32 63       	addc	#-1,	r2	;r3 As==11
  c2:	5f 72 65 61 	subc.b	&0x6165,r15	
  c6:	64 5f       	add.b	@r15,	r4	
  c8:	72 65       	addc.b	@r5+,	r2	
  ca:	67 69       	addc.b	@r9,	r7	
  cc:	73 74       	.word	0x7473;	????	Illegal as 2-op instr
  ce:	65 72       	subc.b	#4,	r5	;r2 As==10
  d0:	00 9d       	cmp	r13,	r0	
  d2:	01 00       	mova	@r0,	r1	
  d4:	00 69       	addc	r9,	r0	
  d6:	32 63       	addc	#-1,	r2	;r3 As==11
  d8:	5f 77 72 69 	subc.b	26994(r7),r15	;0x6972(r7)
  dc:	74 65       	addc.b	@r5+,	r4	
  de:	5f 72 65 67 	subc.b	&0x6765,r15	
  e2:	69 73       	subc.b	#2,	r9	;r3 As==10
  e4:	74 65       	addc.b	@r5+,	r4	
  e6:	72 00 00 00 	mova	r0,	&0x0000	
  ea:	00 00       	bra	@r0		
  ec:	88 01 00 00 	mova	#0x10000,r8	
  f0:	02 00       	mova	@r0,	r2	
  f2:	3b 05 00 00 	mova	0(r5),	r11	;0x0000(r5)
  f6:	7e 07 00 00 	mova	r7,	0(r14)	;0x0000(r14)
  fa:	96 00 00 00 	cmpa	#0x00000,r6	
  fe:	6c 63       	addc.b	#2,	r12	;r3 As==10
 100:	64 5f       	add.b	@r15,	r4	
 102:	73 65       	.word	0x6573;	????	Illegal as 2-op instr
 104:	74 63       	addc.b	#-1,	r4	;r3 As==11
 106:	6f 6c       	addc.b	@r12,	r15	
 108:	6f 72       	subc.b	#4,	r15	;r2 As==10
 10a:	00 c5       	bic	r5,	r0	
 10c:	00 00       	bra	@r0		
 10e:	00 6e       	addc	r14,	r0	
 110:	36 31       	jn	$+622    	;abs 0x37e
 112:	30 30       	jn	$+98     	;abs 0x174
 114:	5f 73       	subc.b	#1,	r15	;r3 As==01
 116:	65 6e       	addc.b	@r14,	r5	
 118:	64 00 11 01 	mova	r0,	&0x40111
 11c:	00 00       	bra	@r0		
 11e:	6e 36       	jge	$-802    	;abs 0xfdfc
 120:	31 30       	jn	$+100    	;abs 0x184
 122:	30 5f       	add	@r15+,	r0	
 124:	73 65       	.word	0x6573;	????	Illegal as 2-op instr
 126:	6e 64       	addc.b	@r4,	r14	
 128:	63 6f       	.word	0x6f63;	????	Illegal as 2-op instr
 12a:	6d 31       	jn	$+732    	;abs 0x406
 12c:	00 48       	br	r8		
 12e:	01 00       	mova	@r0,	r1	
 130:	00 6e       	addc	r14,	r0	
 132:	36 31       	jn	$+622    	;abs 0x3a0
 134:	30 30       	jn	$+98     	;abs 0x196
 136:	5f 73       	subc.b	#1,	r15	;r3 As==01
 138:	65 6e       	addc.b	@r14,	r5	
 13a:	64 63       	addc.b	#2,	r4	;r3 As==10
 13c:	6f 6d       	addc.b	@r13,	r15	
 13e:	32 00 8f 01 	mova	0x018f,	r2	;PC rel. 0x002cf
 142:	00 00       	bra	@r0		
 144:	6c 63       	addc.b	#2,	r12	;r3 As==10
 146:	64 5f       	add.b	@r15,	r4	
 148:	66 69       	addc.b	@r9,	r6	
 14a:	6c 6c       	addc.b	@r12,	r12	
 14c:	72 65       	addc.b	@r5+,	r2	
 14e:	63 74       	.word	0x7463;	????	Illegal as 2-op instr
 150:	00 0f       	bra	@r15		
 152:	02 00       	mova	@r0,	r2	
 154:	00 6c       	addc	r12,	r0	
 156:	63 64       	.word	0x6463;	????	Illegal as 2-op instr
 158:	5f 63       	addc.b	#1,	r15	;r3 As==01
 15a:	6c 65       	addc.b	@r5,	r12	
 15c:	61 72       	subc.b	#4,	r1	;r2 As==10
 15e:	00 36       	jge	$-1022   	;abs 0xfd60
 160:	02 00       	mova	@r0,	r2	
 162:	00 6c       	addc	r12,	r0	
 164:	63 64       	.word	0x6463;	????	Illegal as 2-op instr
 166:	5f 69 6e 69 	addc.b	26990(r9),r15	;0x696e(r9)
 16a:	74 00 5b 02 	mova	r0,	603(r4)	;0x025b(r4)
 16e:	00 00       	bra	@r0		
 170:	6c 63       	addc.b	#2,	r12	;r3 As==10
 172:	64 5f       	add.b	@r15,	r4	
 174:	64 72       	subc.b	#4,	r4	;r2 As==10
 176:	61 77       	subc.b	@r7,	r1	
 178:	63 69       	.word	0x6963;	????	Illegal as 2-op instr
 17a:	72 63       	addc.b	#-1,	r2	;r3 As==11
 17c:	6c 65       	addc.b	@r5,	r12	
 17e:	00 09       	bra	@r9		
 180:	03 00       	.word	0x0003;	????	Illegal as address instr
 182:	00 6c       	addc	r12,	r0	
 184:	63 64       	.word	0x6463;	????	Illegal as 2-op instr
 186:	5f 64 72 61 	addc.b	24946(r4),r15	;0x6172(r4)
 18a:	77 70 6f 69 	subc.b	#26991,	r7	;#0x696f
 18e:	6e 74       	subc.b	@r4,	r14	
 190:	00 4c       	br	r12		
 192:	03 00       	.word	0x0003;	????	Illegal as address instr
 194:	00 6c       	addc	r12,	r0	
 196:	63 64       	.word	0x6463;	????	Illegal as 2-op instr
 198:	5f 64 72 61 	addc.b	24946(r4),r15	;0x6172(r4)
 19c:	77 6c       	addc.b	@r12+,	r7	
 19e:	69 6e       	addc.b	@r14,	r9	
 1a0:	65 00 1c 04 	mova	r0,	&0x5041c
 1a4:	00 00       	bra	@r0		
 1a6:	6c 63       	addc.b	#2,	r12	;r3 As==10
 1a8:	64 5f       	add.b	@r15,	r4	
 1aa:	70 75       	subc.b	@r5+,	r0	
 1ac:	74 6c       	addc.b	@r12+,	r4	
 1ae:	6f 67       	addc.b	@r7,	r15	
 1b0:	6f 00 a0 04 	mova	r0,	&0xf04a0
 1b4:	00 00       	bra	@r0		
 1b6:	6c 63       	addc.b	#2,	r12	;r3 As==10
 1b8:	64 5f       	add.b	@r15,	r4	
 1ba:	6e 65       	addc.b	@r5,	r14	
 1bc:	77 6c       	addc.b	@r12+,	r7	
 1be:	69 6e       	addc.b	@r14,	r9	
 1c0:	65 00 ac 04 	mova	r0,	&0x504ac
 1c4:	00 00       	bra	@r0		
 1c6:	6c 63       	addc.b	#2,	r12	;r3 As==10
 1c8:	64 5f       	add.b	@r15,	r4	
 1ca:	67 6f       	addc.b	@r15,	r7	
 1cc:	74 6f       	addc.b	@r15+,	r4	
 1ce:	00 cf       	bic	r15,	r0	
 1d0:	04 00       	mova	@r0,	r4	
 1d2:	00 6c       	addc	r12,	r0	
 1d4:	63 64       	.word	0x6463;	????	Illegal as 2-op instr
 1d6:	5f 77 72 63 	subc.b	25458(r7),r15	;0x6372(r7)
 1da:	68 61       	addc.b	@r1,	r8	
 1dc:	72 00 38 05 	mova	r0,	&0x0538	
 1e0:	00 00       	bra	@r0		
 1e2:	6c 63       	addc.b	#2,	r12	;r3 As==10
 1e4:	64 5f       	add.b	@r15,	r4	
 1e6:	70 75       	subc.b	@r5+,	r0	
 1e8:	74 63       	addc.b	#-1,	r4	;r3 As==11
 1ea:	68 61       	addc.b	@r1,	r8	
 1ec:	72 00 76 05 	mova	r0,	&0x0576	
 1f0:	00 00       	bra	@r0		
 1f2:	70 75       	subc.b	@r5+,	r0	
 1f4:	74 63       	addc.b	#-1,	r4	;r3 As==11
 1f6:	68 61       	addc.b	@r1,	r8	
 1f8:	72 00 9c 05 	mova	r0,	&0x059c	
 1fc:	00 00       	bra	@r0		
 1fe:	6c 63       	addc.b	#2,	r12	;r3 As==10
 200:	64 5f       	add.b	@r15,	r4	
 202:	64 72       	subc.b	#4,	r4	;r2 As==10
 204:	61 77       	subc.b	@r7,	r1	
 206:	70 72       	subc.b	#8,	r0	;r2 As==11
 208:	6f 67       	addc.b	@r7,	r15	
 20a:	72 65       	addc.b	@r5+,	r2	
 20c:	73 73       	.word	0x7373;	????	Illegal as 2-op instr
 20e:	62 61       	addc.b	@r1,	r2	
 210:	72 00 2d 06 	mova	r0,	&0x062d	
 214:	00 00       	bra	@r0		
 216:	6c 63       	addc.b	#2,	r12	;r3 As==10
 218:	64 5f       	add.b	@r15,	r4	
 21a:	70 75       	subc.b	@r5+,	r0	
 21c:	74 64       	addc.b	@r4+,	r4	
 21e:	6f 74       	subc.b	@r4,	r15	
 220:	00 28       	jnc	$+2      	;abs 0x222
 222:	07 00       	mova	@r0,	r7	
 224:	00 4c       	br	r12		
 226:	43 44       	.word	0x4443;	????	Illegal as 2-op instr
 228:	4c 69       	addc.b	r9,	r12	
 22a:	6e 65       	addc.b	@r5,	r14	
 22c:	43 6f       	.word	0x6f43;	????	Illegal as 2-op instr
 22e:	75 6e       	addc.b	@r14+,	r5	
 230:	74 00 38 07 	mova	r0,	1848(r4);0x0738(r4)
 234:	00 00       	bra	@r0		
 236:	4c 43       	clr.b	r12		
 238:	44 43       	clr.b	r4		
 23a:	68 61       	addc.b	@r1,	r8	
 23c:	72 43       	mov.b	#-1,	r2	;r3 As==11
 23e:	6f 75       	subc.b	@r5,	r15	
 240:	6e 74       	subc.b	@r4,	r14	
 242:	00 48       	br	r8		
 244:	07 00       	mova	@r0,	r7	
 246:	00 4c       	br	r12		
 248:	43 44       	.word	0x4443;	????	Illegal as 2-op instr
 24a:	42 61       	addc.b	r1,	r2	
 24c:	63 6b       	.word	0x6b63;	????	Illegal as 2-op instr
 24e:	43 6f       	.word	0x6f43;	????	Illegal as 2-op instr
 250:	6c 6f       	addc.b	@r15,	r12	
 252:	72 00 58 07 	mova	r0,	&0x0758	
 256:	00 00       	bra	@r0		
 258:	4c 43       	clr.b	r12		
 25a:	44 46       	mov.b	r6,	r4	
 25c:	6f 72       	subc.b	#4,	r15	;r2 As==10
 25e:	65 43       	mov.b	#2,	r5	;r3 As==10
 260:	6f 6c       	addc.b	@r12,	r15	
 262:	6f 72       	subc.b	#4,	r15	;r2 As==10
 264:	00 68       	addc	r8,	r0	
 266:	07 00       	mova	@r0,	r7	
 268:	00 61       	addc	r1,	r0	
 26a:	73 63       	.word	0x6373;	????	Illegal as 2-op instr
 26c:	69 69       	addc.b	@r9,	r9	
 26e:	74 61       	addc.b	@r1+,	r4	
 270:	62 6c       	addc.b	@r12,	r2	
 272:	65 00 00 00 	mova	r0,	&0x50000
 276:	00 00       	bra	@r0		
 278:	30 00 00 00 	bra	0x0000		;PC rel. 0x0027a
 27c:	02 00       	mova	@r0,	r2	
 27e:	b9 0c 00 00 	suba	#0xc0000,r9	
 282:	6c 01 00 00 	mova	r1,	&0xc0000
 286:	2b 00 00 00 	mova	&0x00000,r11	
 28a:	63 6c       	.word	0x6c63;	????	Illegal as 2-op instr
 28c:	6f 63       	addc.b	#2,	r15	;r3 As==10
 28e:	6b 5f       	add.b	@r15,	r11	
 290:	69 6e       	addc.b	@r14,	r9	
 292:	69 74       	subc.b	@r4,	r9	
 294:	00 37       	jge	$-510    	;abs 0x96
 296:	00 00       	bra	@r0		
 298:	00 68       	addc	r8,	r0	
 29a:	61 72       	subc.b	#4,	r1	;r2 As==10
 29c:	64 77       	subc.b	@r7,	r4	
 29e:	61 72       	subc.b	#4,	r1	;r2 As==10
 2a0:	65 5f       	add.b	@r15,	r5	
 2a2:	73 65       	.word	0x6573;	????	Illegal as 2-op instr
 2a4:	74 75       	subc.b	@r5+,	r4	
 2a6:	70 00 00 00 	mova	r0,	0x0000	;PC rel. 0x002a8
 2aa:	00 00       	bra	@r0		
 2ac:	25 00 00 00 	mova	&0x00000,r5	
 2b0:	02 00       	mova	@r0,	r2	
 2b2:	25 0e 00 00 	mova	&0xe0000,r5	
 2b6:	03 01       	.word	0x0103;	????	Illegal as address instr
 2b8:	00 00       	bra	@r0		
 2ba:	8e 00 00 00 	mova	#0x00000,r14	
 2be:	70 72       	subc.b	#8,	r0	;r2 As==11
 2c0:	69 6e       	addc.b	@r14,	r9	
 2c2:	74 66       	addc.b	@r6+,	r4	
 2c4:	00 cf       	bic	r15,	r0	
 2c6:	00 00       	bra	@r0		
 2c8:	00 76       	subc	r6,	r0	
 2ca:	70 72       	subc.b	#8,	r0	;r2 As==11
 2cc:	69 6e       	addc.b	@r14,	r9	
 2ce:	74 66       	addc.b	@r6+,	r4	
 2d0:	00 00       	bra	@r0		
 2d2:	00 00       	bra	@r0		
 2d4:	00 1b       	.word	0x1b00;	????	
 2d6:	00 00       	bra	@r0		
 2d8:	00 02       	bra	#4		;r2 As==10
 2da:	00 28       	jnc	$+2      	;abs 0x2dc
 2dc:	0f 00       	mova	@r0,	r15	
 2de:	00 b5       	bit	r5,	r0	
 2e0:	03 00       	.word	0x0003;	????	Illegal as address instr
 2e2:	00 79       	subc	r9,	r0	
 2e4:	02 00       	mova	@r0,	r2	
 2e6:	00 76       	subc	r6,	r0	
 2e8:	75 70 72 69 	subc.b	#26994,	r5	;#0x6972
 2ec:	6e 74       	subc.b	@r4,	r14	
 2ee:	66 00 00 00 	mova	r0,	&0x60000
	...

Disassembly of section .debug_info:

00000000 <.debug_info>:
       0:	f8 00       	suba	r0,	r8	
       2:	00 00       	bra	@r0		
       4:	02 00       	mova	@r0,	r2	
       6:	00 00       	bra	@r0		
       8:	00 00       	bra	@r0		
       a:	02 01       	mova	@r1,	r2	
       c:	64 00 00 00 	mova	r0,	&0x40000
      10:	01 0e       	mova	@r14,	r1	
      12:	00 00       	bra	@r0		
      14:	00 3e       	jmp	$-1022   	;abs 0xfc16
	...
      22:	00 00       	bra	@r0		
      24:	00 02       	bra	#4		;r2 As==10
      26:	04 05       	mova	@r5,	r4	
      28:	05 00       	mova	@r0,	r5	
      2a:	00 00       	bra	@r0		
      2c:	02 02       	mova	#4,	r2	;r2 As==10
      2e:	07 31       	jn	$+528    	;abs 0x23e
      30:	00 00       	bra	@r0		
      32:	00 03       	bra	#2		;r3 As==10
      34:	02 05       	mova	@r5,	r2	
      36:	69 6e       	addc.b	@r14,	r9	
      38:	74 00 02 01 	mova	r0,	258(r4)	;0x0102(r4)
      3c:	06 72       	subc	r2,	r6	
      3e:	00 00       	bra	@r0		
      40:	00 02       	bra	#4		;r2 As==10
      42:	08 05       	mova	@r5,	r8	
      44:	00 00       	bra	@r0		
      46:	00 00       	bra	@r0		
      48:	02 01       	mova	@r1,	r2	
      4a:	08 70       	subc	r0,	r8	
      4c:	00 00       	bra	@r0		
      4e:	00 02       	bra	#4		;r2 As==10
      50:	04 07       	mova	@r7,	r4	
      52:	2c 00 00 00 	mova	&0x00000,r12	
      56:	02 08       	mova	@r8,	r2	
      58:	07 27       	jz	$-496    	;abs 0xfe68
      5a:	00 00       	bra	@r0		
      5c:	00 02       	bra	#4		;r2 As==10
      5e:	02 07       	mova	@r7,	r2	
      60:	a1 00 00 00 	adda	#0x00000,r1	
      64:	02 01       	mova	@r1,	r2	
      66:	06 79       	subc	r9,	r6	
      68:	00 00       	bra	@r0		
      6a:	00 04       	bra	@r4		
      6c:	01 7e       	subc	r14,	r1	
      6e:	00 00       	bra	@r0		
      70:	00 01       	bra	@r1		
      72:	14 01       	mova	@r1+,	r4	
      74:	33 00       	.word	0x0033;	????	Illegal as address instr
      76:	00 00       	bra	@r0		
      78:	38 31       	jn	$+626    	;abs 0x2ea
      7a:	04 32       	jn	$-1014   	;abs 0xfc84
      7c:	00 00       	bra	@r0		
      7e:	00 00       	bra	@r0		
      80:	b8 00 00 00 	suba	#0x00000,r8	
      84:	05 51       	add	r1,	r5	
      86:	00 00       	bra	@r0		
      88:	00 01       	bra	@r1		
      8a:	17 48 00 00 	mov	0(r8),	r7	;0x0000(r8)
      8e:	00 68       	addc	r8,	r0	
      90:	05 83       	sub	#0,	r5	;r3 As==00
      92:	00 00       	bra	@r0		
      94:	00 01       	bra	@r1		
      96:	18 48 00 00 	mov	0(r8),	r8	;0x0000(r8)
      9a:	00 50       	rla	r0		
      9c:	05 b4       	bit	r4,	r5	
      9e:	00 00       	bra	@r0		
      a0:	00 01       	bra	@r1		
      a2:	19 48 00 00 	mov	0(r8),	r9	;0x0000(r8)
      a6:	00 1e       	.word	0x1e00;	????	
      a8:	06 15       	pushm	#1,	r6	
      aa:	00 00       	bra	@r0		
      ac:	00 01       	bra	@r1		
      ae:	1b 48 00 00 	mov	0(r8),	r11	;0x0000(r8)
      b2:	00 8c       	sub	r12,	r0	
      b4:	00 00       	bra	@r0		
      b6:	00 00       	bra	@r0		
      b8:	07 1a       	.word	0x1a07;	????	
      ba:	00 00       	bra	@r0		
      bc:	00 02       	bra	#4		;r2 As==10
      be:	3a 48       	mov	@r8+,	r10	
      c0:	00 00       	bra	@r0		
      c2:	00 01       	bra	@r1		
      c4:	01 08       	mova	@r8,	r1	
      c6:	98 00 00 00 	cmpa	#0x00000,r8	
      ca:	03 f3       	.word	0xf303;	????	Illegal as 2-op instr
      cc:	04 95       	cmp	r5,	r4	
      ce:	00 00       	bra	@r0		
      d0:	00 d7       	bis	r7,	r0	
      d2:	00 00       	bra	@r0		
      d4:	00 01       	bra	@r1		
      d6:	01 09       	mova	@r9,	r1	
      d8:	48 00       	rrcm.a	#1,	r8	
      da:	00 00       	bra	@r0		
      dc:	07 1a       	.word	0x1a07;	????	
      de:	00 00       	bra	@r0		
      e0:	00 02       	bra	#4		;r2 As==10
      e2:	3a 48       	mov	@r8+,	r10	
      e4:	00 00       	bra	@r0		
      e6:	00 01       	bra	@r1		
      e8:	01 08       	mova	@r8,	r1	
      ea:	98 00 00 00 	cmpa	#0x00000,r8	
      ee:	03 f3       	.word	0xf303;	????	Illegal as 2-op instr
      f0:	04 95       	cmp	r5,	r4	
      f2:	00 00       	bra	@r0		
      f4:	00 d7       	bis	r7,	r0	
      f6:	00 00       	bra	@r0		
      f8:	00 01       	bra	@r1		
      fa:	01 00       	mova	@r0,	r1	
      fc:	cb 00       	mova	r0,	r11	
      fe:	00 00       	bra	@r0		
     100:	02 00       	mova	@r0,	r2	
     102:	8f 00 00 00 	mova	#0x00000,r15	
     106:	02 01       	mova	@r1,	r2	
     108:	64 00 00 00 	mova	r0,	&0x40000
     10c:	01 23       	jnz	$-508    	;abs 0xff10
     10e:	01 00       	mova	@r0,	r1	
     110:	00 de       	bis	r14,	r0	
     112:	00 00       	bra	@r0		
     114:	00 3a       	jl	$-1022   	;abs 0xfd16
     116:	32 6e       	addc	@r14+,	r2	
     118:	32 11       	rra	#8		;r2 As==11
     11a:	01 00       	mova	@r0,	r1	
     11c:	00 02       	bra	#4		;r2 As==10
     11e:	01 2b       	jnc	$-508    	;abs 0xff22
     120:	01 00       	mova	@r0,	r1	
     122:	00 01       	bra	@r1		
     124:	04 01       	mova	@r1,	r4	
     126:	3a 32       	jn	$-906    	;abs 0xfd9c
     128:	3c 32       	jn	$-902    	;abs 0xfda2
     12a:	02 71       	subc	r1,	r2	
     12c:	02 42       	mov	r2,	r2	
     12e:	00 00       	bra	@r0		
     130:	00 03       	bra	#2		;r3 As==10
     132:	c7 00       	mova	r0,	r7	
     134:	00 00       	bra	@r0		
     136:	01 06       	mova	@r6,	r1	
     138:	42 00       	rrcm.a	#1,	r2	
     13a:	00 00       	bra	@r0		
     13c:	05 00       	mova	@r0,	r5	
     13e:	04 02       	mova	#4,	r4	;r2 As==10
     140:	07 31       	jn	$+528    	;abs 0x350
     142:	00 00       	bra	@r0		
     144:	00 02       	bra	#4		;r2 As==10
     146:	01 d5       	bis	r5,	r1	
     148:	00 00       	bra	@r0		
     14a:	00 01       	bra	@r1		
     14c:	0c 01       	mova	@r1,	r12	
     14e:	3c 32       	jn	$-902    	;abs 0xfdc8
     150:	3e 32       	jn	$-898    	;abs 0xfdce
     152:	02 71       	subc	r1,	r2	
     154:	02 6a       	addc	r10,	r2	
     156:	00 00       	bra	@r0		
     158:	00 03       	bra	#2		;r3 As==10
     15a:	c7 00       	mova	r0,	r7	
     15c:	00 00       	bra	@r0		
     15e:	01 0e       	mova	@r14,	r1	
     160:	42 00       	rrcm.a	#1,	r2	
     162:	00 00       	bra	@r0		
     164:	10 00       	bra	#0x00000	
     166:	02 01       	mova	@r1,	r2	
     168:	1b 01       	mova	@r1+,	r11	
     16a:	00 00       	bra	@r0		
     16c:	01 16       	popm.a	#1,	r1	
     16e:	01 3e       	jmp	$-1020   	;abs 0xfd72
     170:	32 4e       	mov	@r14+,	r2	
     172:	32 02 71 02 	mova	&0x0271,r2	
     176:	99 00 00 00 	cmpa	#0x00000,r9	
     17a:	05 c7       	bic	r7,	r5	
     17c:	00 00       	bra	@r0		
     17e:	00 01       	bra	@r1		
     180:	16 42 00 00 	mov	&0x0000,r6	
     184:	00 01       	bra	@r1		
     186:	5f 06       	rlam	#2,	r15	
     188:	69 00 01 18 	mova	r0,	&0x91801
     18c:	99 00 00 00 	cmpa	#0x00000,r9	
     190:	cc 00       	mova	r0,	r12	
     192:	00 00       	bra	@r0		
     194:	00 07       	bra	@r7		
     196:	02 05       	mova	@r5,	r2	
     198:	69 6e       	addc.b	@r14,	r9	
     19a:	74 00 08 01 	mova	r0,	264(r4)	;0x0108(r4)
     19e:	cd 00       	mova	r0,	r13	
     1a0:	00 00       	bra	@r0		
     1a2:	01 1f 01 4e 	.rpt	#1
				movx	r14,	r1	
     1a6:	32 6e       	addc	@r14+,	r2	
     1a8:	32 df       	bis	@r15+,	r2	
     1aa:	00 00       	bra	@r0		
     1ac:	00 09       	bra	@r9		
     1ae:	c7 00       	mova	r0,	r7	
     1b0:	00 00       	bra	@r0		
     1b2:	01 1f       	.word	0x1f01;	????	
     1b4:	42 00       	rrcm.a	#1,	r2	
     1b6:	00 00       	bra	@r0		
     1b8:	fb 00       	suba	r0,	r11	
     1ba:	00 00       	bra	@r0		
     1bc:	06 69       	addc	r9,	r6	
     1be:	00 01       	bra	@r1		
     1c0:	21 99       	cmp	@r9,	r1	
     1c2:	00 00       	bra	@r0		
     1c4:	00 0d       	bra	@r13		
     1c6:	01 00       	mova	@r0,	r1	
     1c8:	00 00       	bra	@r0		
     1ca:	00 6c       	addc	r12,	r0	
     1cc:	03 00       	.word	0x0003;	????	Illegal as address instr
     1ce:	00 02       	bra	#4		;r2 As==10
     1d0:	00 21       	jnz	$+514    	;abs 0x3d2
     1d2:	01 00       	mova	@r0,	r1	
     1d4:	00 02       	bra	#4		;r2 As==10
     1d6:	01 64       	addc	r4,	r1	
     1d8:	00 00       	bra	@r0		
     1da:	00 01       	bra	@r1		
     1dc:	14 02       	mova	#8,	r4	;r2 As==11
     1de:	00 00       	bra	@r0		
     1e0:	de 00       	cmpa	r0,	r14	
     1e2:	00 00       	bra	@r0		
     1e4:	6e 32       	jn	$-802    	;abs 0xfec2
     1e6:	ae 33       	jn	$-162    	;abs 0x144
     1e8:	80 01 00 00 	bra	#0x10000	
     1ec:	02 02       	mova	#4,	r2	;r2 As==10
     1ee:	03 26       	jz	$-1016   	;abs 0xfdf6
     1f0:	78 00 00 00 	mova	r0,	0(r8)	;0x0000(r8)
     1f4:	03 bb       	.word	0xbb03;	????	Illegal as 2-op instr
     1f6:	02 00       	mova	@r0,	r2	
     1f8:	00 00       	bra	@r0		
     1fa:	03 69       	.word	0x6903;	????	Illegal as 2-op instr
     1fc:	01 00       	mova	@r0,	r1	
     1fe:	00 01       	bra	@r1		
     200:	03 43       	nop			
     202:	02 00       	mova	@r0,	r2	
     204:	00 02       	bra	#4		;r2 As==10
     206:	03 7c       	.word	0x7c03;	????	Illegal as 2-op instr
     208:	02 00       	mova	@r0,	r2	
     20a:	00 03       	bra	#2		;r3 As==10
     20c:	03 dc       	.word	0xdc03;	????	Illegal as 2-op instr
     20e:	02 00       	mova	@r0,	r2	
     210:	00 04       	bra	@r4		
     212:	03 41       	.word	0x4103;	????	Illegal as 2-op instr
     214:	01 00       	mova	@r0,	r1	
     216:	00 05       	bra	@r5		
     218:	03 34       	jge	$+8      	;abs 0x220
     21a:	02 00       	mova	@r0,	r2	
     21c:	00 06       	bra	@r6		
     21e:	03 fb       	.word	0xfb03;	????	Illegal as 2-op instr
     220:	02 00       	mova	@r0,	r2	
     222:	00 07       	bra	@r7		
     224:	03 6e       	.word	0x6e03;	????	Illegal as 2-op instr
     226:	02 00       	mova	@r0,	r2	
     228:	00 08       	bra	@r8		
     22a:	03 ad       	.word	0xad03;	????	Illegal as 2-op instr
     22c:	01 00       	mova	@r0,	r1	
     22e:	00 09       	bra	@r9		
     230:	03 c4       	.word	0xc403;	????	Illegal as 2-op instr
     232:	01 00       	mova	@r0,	r1	
     234:	00 0a       	bra	@r10		
     236:	03 c9       	.word	0xc903;	????	Illegal as 2-op instr
     238:	02 00       	mova	@r0,	r2	
     23a:	00 0b       	bra	@r11		
     23c:	03 01       	.word	0x0103;	????	Illegal as address instr
     23e:	02 00       	mova	@r0,	r2	
     240:	00 0c       	bra	@r12		
     242:	00 04       	bra	@r4		
     244:	8a 02 00 00 	mova	#0x20000,r10	
     248:	03 34       	jge	$+8      	;abs 0x250
     24a:	21 00 00 00 	mova	&0x00000,r1	
     24e:	05 01       	mova	@r1,	r5	
     250:	5e 02       	rlam	#1,	r14	
     252:	00 00       	bra	@r0		
     254:	01 07       	mova	@r7,	r1	
     256:	01 78       	subc	r8,	r1	
     258:	00 00       	bra	@r0		
     25a:	00 6e       	addc	r14,	r0	
     25c:	32 b8       	bit	@r8+,	r2	
     25e:	32 02 71 02 	mova	&0x0271,r2	
     262:	06 01       	mova	@r1,	r6	
     264:	4f 01       	rram.a	#1,	r15	
     266:	00 00       	bra	@r0		
     268:	01 36       	jge	$-1020   	;abs 0xfe6c
     26a:	01 78       	subc	r8,	r1	
     26c:	00 00       	bra	@r0		
     26e:	00 b8       	bit	r8,	r0	
     270:	32 de       	bis	@r14+,	r2	
     272:	32 02 71 02 	mova	&0x0271,r2	
     276:	bf 00 00 00 	suba	#0x00000,r15	
     27a:	07 f4       	and	r4,	r7	
     27c:	01 00       	mova	@r0,	r1	
     27e:	00 01       	bra	@r1		
     280:	36 bf       	bit	@r15+,	r6	
     282:	00 00       	bra	@r0		
     284:	00 20       	jnz	$+2      	;abs 0x286
     286:	01 00       	mova	@r0,	r1	
     288:	00 00       	bra	@r0		
     28a:	08 01       	mova	@r1,	r8	
     28c:	08 70       	subc	r0,	r8	
     28e:	00 00       	bra	@r0		
     290:	00 06       	bra	@r6		
     292:	01 da       	bis	r10,	r1	
     294:	01 00       	mova	@r0,	r1	
     296:	00 01       	bra	@r1		
     298:	67 01 78 00 	mova	r1,	&0x70078
     29c:	00 00       	bra	@r0		
     29e:	de 32       	jn	$-578    	;abs 0x5c
     2a0:	0e 33       	jn	$-482    	;abs 0xbe
     2a2:	02 71       	subc	r1,	r2	
     2a4:	02 0a       	mova	@r10,	r2	
     2a6:	01 00       	mova	@r0,	r1	
     2a8:	00 07       	bra	@r7		
     2aa:	76 01 00 00 	mova	r1,	0(r6)	;0x0000(r6)
     2ae:	01 67       	addc	r7,	r1	
     2b0:	bf 00 00 00 	suba	#0x00000,r15	
     2b4:	2b 01 00 00 	mova	&0x10000,r11	
     2b8:	09 92       	cmp	r2,	r9	
     2ba:	01 00       	mova	@r0,	r1	
     2bc:	00 01       	bra	@r1		
     2be:	67 bf       	bit.b	@r15,	r7	
     2c0:	00 00       	bra	@r0		
     2c2:	00 01       	bra	@r1		
     2c4:	5e 07       	rrum	#2,	r14	
     2c6:	15 00       	mova	#0x00000,r5	
     2c8:	00 00       	bra	@r0		
     2ca:	01 67       	addc	r7,	r1	
     2cc:	0a 01       	mova	@r1,	r10	
     2ce:	00 00       	bra	@r0		
     2d0:	3d 01 00 00 	mova	0(r1),	r13	;0x0000(r1)
     2d4:	00 0a       	bra	@r10		
     2d6:	02 bf       	bit	r15,	r2	
     2d8:	00 00       	bra	@r0		
     2da:	00 06       	bra	@r6		
     2dc:	01 1a       	.word	0x1a01;	????	
     2de:	02 00       	mova	@r0,	r2	
     2e0:	00 01       	bra	@r1		
     2e2:	74 01 78 00 	mova	r1,	120(r4)	;0x0078(r4)
     2e6:	00 00       	bra	@r0		
     2e8:	0e 33       	jn	$-482    	;abs 0x106
     2ea:	46 33       	jn	$-370    	;abs 0x178
     2ec:	02 71       	subc	r1,	r2	
     2ee:	02 47       	mov	r7,	r2	
     2f0:	01 00       	mova	@r0,	r1	
     2f2:	00 07       	bra	@r7		
     2f4:	92 01 00 00 	cmpa	#0x10000,r2	
     2f8:	01 74       	subc	r4,	r1	
     2fa:	bf 00 00 00 	suba	#0x00000,r15	
     2fe:	48 01       	rram.a	#1,	r8	
     300:	00 00       	bra	@r0		
     302:	07 15       	pushm	#1,	r7	
     304:	00 00       	bra	@r0		
     306:	00 01       	bra	@r1		
     308:	74 bf       	bit.b	@r15+,	r4	
     30a:	00 00       	bra	@r0		
     30c:	00 61       	addc	r1,	r0	
     30e:	01 00       	mova	@r0,	r1	
     310:	00 00       	bra	@r0		
     312:	0b 01       	mova	@r1,	r11	
     314:	9b 01 00 00 	cmpa	#0x10000,r11	
     318:	01 4f       	mov	r15,	r1	
     31a:	01 78       	subc	r8,	r1	
     31c:	00 00       	bra	@r0		
     31e:	00 46       	br	r6		
     320:	33 80       	.word	0x8033;	????	Illegal as 2-op instr
     322:	33 6c       	.word	0x6c33;	????	Illegal as 2-op instr
     324:	01 00       	mova	@r0,	r1	
     326:	00 9d       	cmp	r13,	r0	
     328:	01 00       	mova	@r0,	r1	
     32a:	00 07       	bra	@r7		
     32c:	f2 02       	suba	r2,	r2	
     32e:	00 00       	bra	@r0		
     330:	01 4f       	mov	r15,	r1	
     332:	bf 00 00 00 	suba	#0x00000,r15	
     336:	80 01 00 00 	bra	#0x10000	
     33a:	07 15       	pushm	#1,	r7	
     33c:	00 00       	bra	@r0		
     33e:	00 01       	bra	@r1		
     340:	4f 0a       	rlam.a	#3,	r15	
     342:	01 00       	mova	@r0,	r1	
     344:	00 92       	cmp	r2,	r0	
     346:	01 00       	mova	@r0,	r1	
     348:	00 07       	bra	@r7		
     34a:	f4 01       	suba	r1,	r4	
     34c:	00 00       	bra	@r0		
     34e:	01 4f       	mov	r15,	r1	
     350:	bf 00 00 00 	suba	#0x00000,r15	
     354:	ab 01 00 00 	adda	#0x10000,r11	
     358:	0c 57       	add	r7,	r12	
     35a:	02 00       	mova	@r0,	r2	
     35c:	00 01       	bra	@r1		
     35e:	50 78 00 00 	subc.b	0(r8),	r0	;0x0000(r8)
     362:	00 b6       	bit	r6,	r0	
     364:	01 00       	mova	@r0,	r1	
     366:	00 00       	bra	@r0		
     368:	0b 01       	mova	@r1,	r11	
     36a:	7f 01 00 00 	mova	r1,	0(r15)	;0x0000(r15)
     36e:	01 43       	clr	r1		
     370:	01 78       	subc	r8,	r1	
     372:	00 00       	bra	@r0		
     374:	00 80       	sub	r0,	r0	
     376:	33 ae       	.word	0xae33;	????	Illegal as 2-op instr
     378:	33 d0       	.word	0xd033;	????	Illegal as 2-op instr
     37a:	01 00       	mova	@r0,	r1	
     37c:	00 f3       	and	#0,	r0	;r3 As==00
     37e:	01 00       	mova	@r0,	r1	
     380:	00 07       	bra	@r7		
     382:	f2 02       	suba	r2,	r2	
     384:	00 00       	bra	@r0		
     386:	01 43       	clr	r1		
     388:	bf 00 00 00 	suba	#0x00000,r15	
     38c:	e4 01       	adda	r1,	r4	
     38e:	00 00       	bra	@r0		
     390:	07 15       	pushm	#1,	r7	
     392:	00 00       	bra	@r0		
     394:	00 01       	bra	@r1		
     396:	43 bf       	.word	0xbf43;	????	Illegal as 2-op instr
     398:	00 00       	bra	@r0		
     39a:	00 f6       	and	r6,	r0	
     39c:	01 00       	mova	@r0,	r1	
     39e:	00 07       	bra	@r7		
     3a0:	f4 01       	suba	r1,	r4	
     3a2:	00 00       	bra	@r0		
     3a4:	01 43       	clr	r1		
     3a6:	bf 00 00 00 	suba	#0x00000,r15	
     3aa:	0f 02       	mova	#4,	r15	;r2 As==10
     3ac:	00 00       	bra	@r0		
     3ae:	0c 57       	add	r7,	r12	
     3b0:	02 00       	mova	@r0,	r2	
     3b2:	00 01       	bra	@r1		
     3b4:	44 78       	subc.b	r8,	r4	
     3b6:	00 00       	bra	@r0		
     3b8:	00 1a       	.word	0x1a00;	????	
     3ba:	02 00       	mova	@r0,	r2	
     3bc:	00 00       	bra	@r0		
     3be:	0d ed       	xor	r13,	r13	
     3c0:	02 00       	mova	@r0,	r2	
     3c2:	00 02       	bra	#4		;r2 As==10
     3c4:	a6 ea 02 00 	xor	@r10,	2(r6)	;0x0002(r6)
     3c8:	00 04       	bra	@r4		
     3ca:	02 00       	mova	@r0,	r2	
     3cc:	00 01       	bra	@r1		
     3ce:	01 0e       	mova	@r14,	r1	
     3d0:	bf 00 00 00 	suba	#0x00000,r15	
     3d4:	0f 63       	adc	r15		
     3d6:	01 00       	mova	@r0,	r1	
     3d8:	00 02       	bra	#4		;r2 As==10
     3da:	99 03 60 01 	cmpa	#0x30160,r9	
     3de:	00 00       	bra	@r0		
     3e0:	04 02       	mova	#4,	r4	;r2 As==10
     3e2:	00 00       	bra	@r0		
     3e4:	01 01       	mova	@r1,	r1	
     3e6:	0f eb       	xor	r11,	r15	
     3e8:	01 00       	mova	@r0,	r1	
     3ea:	00 02       	bra	#4		;r2 As==10
     3ec:	e9 04       	adda	r4,	r9	
     3ee:	e8 01       	adda	r1,	r8	
     3f0:	00 00       	bra	@r0		
     3f2:	04 02       	mova	#4,	r4	;r2 As==10
     3f4:	00 00       	bra	@r0		
     3f6:	01 01       	mova	@r1,	r1	
     3f8:	0f 98       	cmp	r8,	r15	
     3fa:	02 00       	mova	@r0,	r2	
     3fc:	00 02       	bra	#4		;r2 As==10
     3fe:	eb 04       	adda	r4,	r11	
     400:	95 02 00 00 	cmpa	#0x20000,r5	
     404:	04 02       	mova	#4,	r4	;r2 As==10
     406:	00 00       	bra	@r0		
     408:	01 01       	mova	@r1,	r1	
     40a:	0f 11       	rra	r15		
     40c:	03 00       	.word	0x0003;	????	Illegal as address instr
     40e:	00 02       	bra	#4		;r2 As==10
     410:	ed 04       	adda	r4,	r13	
     412:	0e 03       	mova	#2,	r14	;r3 As==10
     414:	00 00       	bra	@r0		
     416:	04 02       	mova	#4,	r4	;r2 As==10
     418:	00 00       	bra	@r0		
     41a:	01 01       	mova	@r1,	r1	
     41c:	0f 2c       	jc	$+32     	;abs 0x43c
     41e:	02 00       	mova	@r0,	r2	
     420:	00 02       	bra	#4		;r2 As==10
     422:	ef 04       	adda	r4,	r15	
     424:	29 02 00 00 	mova	&0x20000,r9	
     428:	04 02       	mova	#4,	r4	;r2 As==10
     42a:	00 00       	bra	@r0		
     42c:	01 01       	mova	@r1,	r1	
     42e:	0f 98       	cmp	r8,	r15	
     430:	00 00       	bra	@r0		
     432:	00 02       	bra	#4		;r2 As==10
     434:	f3 04       	.word	0x04f3;	????	Illegal as address instr
     436:	95 00 00 00 	cmpa	#0x00000,r5	
     43a:	04 02       	mova	#4,	r4	;r2 As==10
     43c:	00 00       	bra	@r0		
     43e:	01 01       	mova	@r1,	r1	
     440:	0f b1       	bit	r1,	r15	
     442:	02 00       	mova	@r0,	r2	
     444:	00 02       	bra	#4		;r2 As==10
     446:	f5 04       	suba	r4,	r5	
     448:	ae 02 00 00 	adda	#0x20000,r14	
     44c:	87 02 00 00 	mova	#0x20000,r7	
     450:	01 01       	mova	@r1,	r1	
     452:	10 04       	bra	@r4+		
     454:	02 00       	mova	@r0,	r2	
     456:	00 0f       	bra	@r15		
     458:	37 01 00 00 	mova	0(r1),	r7	;0x0000(r1)
     45c:	02 f7       	and	r7,	r2	
     45e:	04 34       	jge	$+10     	;abs 0x468
     460:	01 00       	mova	@r0,	r1	
     462:	00 04       	bra	@r4		
     464:	02 00       	mova	@r0,	r2	
     466:	00 01       	bra	@r1		
     468:	01 0f       	mova	@r15,	r1	
     46a:	a4 02 00 00 	adda	#0x20000,r4	
     46e:	02 fb       	and	r11,	r2	
     470:	04 a1       	dadd	r1,	r4	
     472:	02 00       	mova	@r0,	r2	
     474:	00 b0       	bit	r0,	r0	
     476:	02 00       	mova	@r0,	r2	
     478:	00 01       	bra	@r1		
     47a:	01 0e       	mova	@r14,	r1	
     47c:	b5 02 00 00 	suba	#0x20000,r5	
     480:	08 02       	mova	#4,	r8	;r2 As==10
     482:	07 31       	jn	$+528    	;abs 0x692
     484:	00 00       	bra	@r0		
     486:	00 0d       	bra	@r13		
     488:	ed 02       	adda	r2,	r13	
     48a:	00 00       	bra	@r0		
     48c:	02 a6       	dadd	r6,	r2	
     48e:	ea 02       	adda	r2,	r10	
     490:	00 00       	bra	@r0		
     492:	04 02       	mova	#4,	r4	;r2 As==10
     494:	00 00       	bra	@r0		
     496:	01 01       	mova	@r1,	r1	
     498:	0f 63       	adc	r15		
     49a:	01 00       	mova	@r0,	r1	
     49c:	00 02       	bra	#4		;r2 As==10
     49e:	99 03 60 01 	cmpa	#0x30160,r9	
     4a2:	00 00       	bra	@r0		
     4a4:	04 02       	mova	#4,	r4	;r2 As==10
     4a6:	00 00       	bra	@r0		
     4a8:	01 01       	mova	@r1,	r1	
     4aa:	0f eb       	xor	r11,	r15	
     4ac:	01 00       	mova	@r0,	r1	
     4ae:	00 02       	bra	#4		;r2 As==10
     4b0:	e9 04       	adda	r4,	r9	
     4b2:	e8 01       	adda	r1,	r8	
     4b4:	00 00       	bra	@r0		
     4b6:	04 02       	mova	#4,	r4	;r2 As==10
     4b8:	00 00       	bra	@r0		
     4ba:	01 01       	mova	@r1,	r1	
     4bc:	0f 98       	cmp	r8,	r15	
     4be:	02 00       	mova	@r0,	r2	
     4c0:	00 02       	bra	#4		;r2 As==10
     4c2:	eb 04       	adda	r4,	r11	
     4c4:	95 02 00 00 	cmpa	#0x20000,r5	
     4c8:	04 02       	mova	#4,	r4	;r2 As==10
     4ca:	00 00       	bra	@r0		
     4cc:	01 01       	mova	@r1,	r1	
     4ce:	0f 11       	rra	r15		
     4d0:	03 00       	.word	0x0003;	????	Illegal as address instr
     4d2:	00 02       	bra	#4		;r2 As==10
     4d4:	ed 04       	adda	r4,	r13	
     4d6:	0e 03       	mova	#2,	r14	;r3 As==10
     4d8:	00 00       	bra	@r0		
     4da:	04 02       	mova	#4,	r4	;r2 As==10
     4dc:	00 00       	bra	@r0		
     4de:	01 01       	mova	@r1,	r1	
     4e0:	0f 2c       	jc	$+32     	;abs 0x500
     4e2:	02 00       	mova	@r0,	r2	
     4e4:	00 02       	bra	#4		;r2 As==10
     4e6:	ef 04       	adda	r4,	r15	
     4e8:	29 02 00 00 	mova	&0x20000,r9	
     4ec:	04 02       	mova	#4,	r4	;r2 As==10
     4ee:	00 00       	bra	@r0		
     4f0:	01 01       	mova	@r1,	r1	
     4f2:	0f 98       	cmp	r8,	r15	
     4f4:	00 00       	bra	@r0		
     4f6:	00 02       	bra	#4		;r2 As==10
     4f8:	f3 04       	.word	0x04f3;	????	Illegal as address instr
     4fa:	95 00 00 00 	cmpa	#0x00000,r5	
     4fe:	04 02       	mova	#4,	r4	;r2 As==10
     500:	00 00       	bra	@r0		
     502:	01 01       	mova	@r1,	r1	
     504:	0f b1       	bit	r1,	r15	
     506:	02 00       	mova	@r0,	r2	
     508:	00 02       	bra	#4		;r2 As==10
     50a:	f5 04       	suba	r4,	r5	
     50c:	ae 02 00 00 	adda	#0x20000,r14	
     510:	87 02 00 00 	mova	#0x20000,r7	
     514:	01 01       	mova	@r1,	r1	
     516:	0f 37       	jge	$-480    	;abs 0x336
     518:	01 00       	mova	@r0,	r1	
     51a:	00 02       	bra	#4		;r2 As==10
     51c:	f7 04       	suba	r4,	r7	
     51e:	34 01 00 00 	mova	0(r1),	r4	;0x0000(r1)
     522:	04 02       	mova	#4,	r4	;r2 As==10
     524:	00 00       	bra	@r0		
     526:	01 01       	mova	@r1,	r1	
     528:	0f a4       	dadd	r4,	r15	
     52a:	02 00       	mova	@r0,	r2	
     52c:	00 02       	bra	#4		;r2 As==10
     52e:	fb 04       	suba	r4,	r11	
     530:	a1 02 00 00 	adda	#0x20000,r1	
     534:	b0 02 00 00 	suba	#0x20000,r0	
     538:	01 01       	mova	@r1,	r1	
     53a:	00 7a       	subc	r10,	r0	
     53c:	07 00       	mova	@r0,	r7	
     53e:	00 02       	bra	#4		;r2 As==10
     540:	00 18       	.word	0x1800;	????	
     542:	02 00       	mova	@r0,	r2	
     544:	00 02       	bra	#4		;r2 As==10
     546:	01 64       	addc	r4,	r1	
     548:	00 00       	bra	@r0		
     54a:	00 01       	bra	@r1		
     54c:	67 03 00 00 	mova	#0,	&0x70000;r3 As==00
     550:	de 00       	cmpa	r0,	r14	
     552:	00 00       	bra	@r0		
     554:	ae 33       	jn	$-162    	;abs 0x4b2
     556:	74 3e       	jmp	$-790    	;abs 0x240
     558:	66 03 00 00 	mova	#0,	&0x60000;r3 As==00
     55c:	02 04       	mova	@r4,	r2	
     55e:	05 05       	mova	@r5,	r5	
     560:	00 00       	bra	@r0		
     562:	00 02       	bra	#4		;r2 As==10
     564:	02 07       	mova	@r7,	r2	
     566:	31 00 00 00 	mova	0x0000,	r1	;PC rel. 0x00568
     56a:	03 02       	.word	0x0203;	????	Illegal as address instr
     56c:	05 69       	addc	r9,	r5	
     56e:	6e 74       	subc.b	@r4,	r14	
     570:	00 02       	bra	#4		;r2 As==10
     572:	01 06       	mova	@r6,	r1	
     574:	72 00 00 00 	mova	r0,	&0x0000	
     578:	02 08       	mova	@r8,	r2	
     57a:	05 00       	mova	@r0,	r5	
     57c:	00 00       	bra	@r0		
     57e:	00 02       	bra	#4		;r2 As==10
     580:	01 08       	mova	@r8,	r1	
     582:	70 00 00 00 	mova	r0,	0x0000	;PC rel. 0x00584
     586:	02 04       	mova	@r4,	r2	
     588:	07 2c       	jc	$+16     	;abs 0x598
     58a:	00 00       	bra	@r0		
     58c:	00 02       	bra	#4		;r2 As==10
     58e:	08 07       	mova	@r7,	r8	
     590:	27 00 00 00 	mova	&0x00000,r7	
     594:	02 02       	mova	#4,	r2	;r2 As==10
     596:	07 a1       	dadd	r1,	r7	
     598:	00 00       	bra	@r0		
     59a:	00 02       	bra	#4		;r2 As==10
     59c:	01 06       	mova	@r6,	r1	
     59e:	79 00 00 00 	mova	r0,	0(r9)	;0x0000(r9)
     5a2:	04 01       	mova	@r1,	r4	
     5a4:	1e 03       	mova	#-1,	r14	;r3 As==11
     5a6:	00 00       	bra	@r0		
     5a8:	01 b8       	bit	r8,	r1	
     5aa:	01 01       	mova	@r1,	r1	
     5ac:	01 05       	mova	@r5,	r1	
     5ae:	01 bc       	bit	r12,	r1	
     5b0:	03 00       	.word	0x0003;	????	Illegal as address instr
     5b2:	00 01       	bra	@r1		
     5b4:	c0 01       	bra	r1		
     5b6:	01 01       	mova	@r1,	r1	
     5b8:	96 00 00 00 	cmpa	#0x00000,r6	
     5bc:	06 78       	subc	r8,	r6	
     5be:	00 01       	bra	@r1		
     5c0:	c0 01       	bra	r1		
     5c2:	44 00       	rrcm.a	#1,	r4	
     5c4:	00 00       	bra	@r0		
     5c6:	06 79       	subc	r9,	r6	
     5c8:	00 01       	bra	@r1		
     5ca:	c0 01       	bra	r1		
     5cc:	44 00       	rrcm.a	#1,	r4	
     5ce:	00 00       	bra	@r0		
     5d0:	00 07       	bra	@r7		
     5d2:	01 fa       	and	r10,	r1	
     5d4:	03 00       	.word	0x0003;	????	Illegal as address instr
     5d6:	00 01       	bra	@r1		
     5d8:	b1 01 ae 33 	suba	#0x133ae,r1	
     5dc:	b8 33       	jn	$-142    	;abs 0x54e
     5de:	02 71       	subc	r1,	r2	
     5e0:	02 c5       	bic	r5,	r2	
     5e2:	00 00       	bra	@r0		
     5e4:	00 08       	bra	@r8		
     5e6:	2b 04 00 00 	mova	&0x40000,r11	
     5ea:	01 b1       	bit	r1,	r1	
     5ec:	44 00       	rrcm.a	#1,	r4	
     5ee:	00 00       	bra	@r0		
     5f0:	01 5f       	add	r15,	r1	
     5f2:	08 2a       	jnc	$-1006   	;abs 0x204
     5f4:	03 00       	.word	0x0003;	????	Illegal as address instr
     5f6:	00 01       	bra	@r1		
     5f8:	b1 44 00 00 	mov	@r4+,	0(r1)	;0x0000(r1)
     5fc:	00 01       	bra	@r1		
     5fe:	5e 00       	rrcm	#1,	r14	
     600:	09 01       	mova	@r1,	r9	
     602:	4e 03       	rrum.a	#1,	r14	
     604:	00 00       	bra	@r0		
     606:	01 bd       	bit	r13,	r1	
     608:	01 b8       	bit	r8,	r1	
     60a:	33 1e       	.word	0x1e33;	????	
     60c:	34 34       	jge	$+106    	;abs 0x676
     60e:	02 00       	mova	@r0,	r2	
     610:	00 11       	rra	r0		
     612:	01 00       	mova	@r0,	r1	
     614:	00 08       	bra	@r8		
     616:	26 04 00 00 	mova	&0x40000,r6	
     61a:	01 bd       	bit	r13,	r1	
     61c:	44 00       	rrcm.a	#1,	r4	
     61e:	00 00       	bra	@r0		
     620:	01 5f       	add	r15,	r1	
     622:	0a 63       	adc	r10		
     624:	6d 64       	addc.b	@r4,	r13	
     626:	00 01       	bra	@r1		
     628:	bd 44 00 00 	mov	@r4+,	0(r13)	;0x0000(r13)
     62c:	00 01       	bra	@r1		
     62e:	5e 0b       	rrum	#3,	r14	
     630:	6e 04 00 00 	mova	r4,	&0xe0000
     634:	01 bf       	bit	r15,	r1	
     636:	44 00       	rrcm.a	#1,	r4	
     638:	00 00       	bra	@r0		
     63a:	48 02       	rlam.a	#1,	r8	
     63c:	00 00       	bra	@r0		
     63e:	0c 69       	addc	r9,	r12	
     640:	00 01       	bra	@r1		
     642:	c0 44 00 00 	mov.b	r4,	0x0000	;PC rel. 0x00646
     646:	00 74       	subc	r4,	r0	
     648:	02 00       	mova	@r0,	r2	
     64a:	00 00       	bra	@r0		
     64c:	0d 01       	mova	@r1,	r13	
     64e:	d0 03       	tsta	r0		
     650:	00 00       	bra	@r0		
     652:	01 1f       	.word	0x1f01;	????	
     654:	01 01       	mova	@r1,	r1	
     656:	1e 34       	jge	$+62     	;abs 0x694
     658:	36 34       	jge	$+110    	;abs 0x6c6
     65a:	80 02 00 00 	bra	#0x20000	
     65e:	48 01       	rram.a	#1,	r8	
     660:	00 00       	bra	@r0		
     662:	0e 19       	.word	0x190e;	????	
     664:	03 00       	.word	0x0003;	????	Illegal as address instr
     666:	00 01       	bra	@r1		
     668:	1f 01       	mova	@r1+,	r15	
     66a:	44 00       	rrcm.a	#1,	r4	
     66c:	00 00       	bra	@r0		
     66e:	94 02 00 00 	cmpa	#0x20000,r4	
     672:	0f 64       	addc	r4,	r15	
     674:	61 74       	subc.b	@r4,	r1	
     676:	00 01       	bra	@r1		
     678:	1f 01       	mova	@r1+,	r15	
     67a:	44 00       	rrcm.a	#1,	r4	
     67c:	00 00       	bra	@r0		
     67e:	9f 02 00 00 	cmpa	#0x20000,r15	
     682:	00 0d       	bra	@r13		
     684:	01 df       	bis	r15,	r1	
     686:	03 00       	.word	0x0003;	????	Illegal as address instr
     688:	00 01       	bra	@r1		
     68a:	25 01 01 36 	mova	&0x13601,r5	
     68e:	34 5c       	add	@r12+,	r4	
     690:	34 b1       	bit	@r1+,	r4	
     692:	02 00       	mova	@r0,	r2	
     694:	00 8f       	sub	r15,	r0	
     696:	01 00       	mova	@r0,	r1	
     698:	00 0e       	bra	@r14		
     69a:	19 03       	mova	#-1,	r9	;r3 As==11
     69c:	00 00       	bra	@r0		
     69e:	01 25       	jz	$+516    	;abs 0x8a2
     6a0:	01 44       	mov	r4,	r1	
     6a2:	00 00       	bra	@r0		
     6a4:	00 cd       	bic	r13,	r0	
     6a6:	02 00       	mova	@r0,	r2	
     6a8:	00 0e       	bra	@r14		
     6aa:	f5 03       	decda	r5		
     6ac:	00 00       	bra	@r0		
     6ae:	01 25       	jz	$+516    	;abs 0x8b2
     6b0:	01 44       	mov	r4,	r1	
     6b2:	00 00       	bra	@r0		
     6b4:	00 d8       	bis	r8,	r0	
     6b6:	02 00       	mova	@r0,	r2	
     6b8:	00 0e       	bra	@r14		
     6ba:	5c 04       	rrcm	#2,	r12	
     6bc:	00 00       	bra	@r0		
     6be:	01 25       	jz	$+516    	;abs 0x8c2
     6c0:	01 44       	mov	r4,	r1	
     6c2:	00 00       	bra	@r0		
     6c4:	00 ea       	xor	r10,	r0	
     6c6:	02 00       	mova	@r0,	r2	
     6c8:	00 00       	bra	@r0		
     6ca:	0d 01       	mova	@r1,	r13	
     6cc:	9d 04 00 00 	cmpa	#0x40000,r13	
     6d0:	01 2c       	jc	$+4      	;abs 0x6d4
     6d2:	01 01       	mova	@r1,	r1	
     6d4:	5c 34       	jge	$+186    	;abs 0x78e
     6d6:	f2 34       	jge	$+486    	;abs 0x8bc
     6d8:	fc 02       	suba	r2,	r12	
     6da:	00 00       	bra	@r0		
     6dc:	0f 02       	mova	#4,	r15	;r2 As==10
     6de:	00 00       	bra	@r0		
     6e0:	0f 78       	subc	r8,	r15	
     6e2:	00 01       	bra	@r1		
     6e4:	2c 01 44 00 	mova	&0x10044,r12	
     6e8:	00 00       	bra	@r0		
     6ea:	38 03 00 00 	mova	#1,	r8	;r3 As==01
     6ee:	0f 79       	subc	r9,	r15	
     6f0:	00 01       	bra	@r1		
     6f2:	2c 01 44 00 	mova	&0x10044,r12	
     6f6:	00 00       	bra	@r0		
     6f8:	4a 03       	rrum.a	#1,	r10	
     6fa:	00 00       	bra	@r0		
     6fc:	0f 6c       	addc	r12,	r15	
     6fe:	78 00 01 2c 	mova	r0,	11265(r8);0x2c01(r8)
     702:	01 44       	mov	r4,	r1	
     704:	00 00       	bra	@r0		
     706:	00 5c       	add	r12,	r0	
     708:	03 00       	.word	0x0003;	????	Illegal as address instr
     70a:	00 0f       	bra	@r15		
     70c:	6c 79       	subc.b	@r9,	r12	
     70e:	00 01       	bra	@r1		
     710:	2c 01 44 00 	mova	&0x10044,r12	
     714:	00 00       	bra	@r0		
     716:	6e 03 00 00 	mova	#0,	&0xe0000;r3 As==00
     71a:	10 36       	jge	$-990    	;abs 0x33c
     71c:	04 00       	mova	@r0,	r4	
     71e:	00 01       	bra	@r1		
     720:	2c 01 44 00 	mova	&0x10044,r12	
     724:	00 00       	bra	@r0		
     726:	02 91       	cmp	r1,	r2	
     728:	0a 11       	rra	r10		
     72a:	b7 03 00 00 	suba	#0x30000,r7	
     72e:	01 2e       	jc	$-1020   	;abs 0x332
     730:	01 28       	jnc	$+4      	;abs 0x734
     732:	00 00       	bra	@r0		
     734:	00 89       	sub	r9,	r0	
     736:	03 00       	.word	0x0003;	????	Illegal as address instr
     738:	00 12       	push	r0		
     73a:	6d 61       	addc.b	@r1,	r13	
     73c:	78 00 01 2e 	mova	r0,	11777(r8);0x2e01(r8)
     740:	01 28       	jnc	$+4      	;abs 0x744
     742:	00 00       	bra	@r0		
     744:	00 9c       	cmp	r12,	r0	
     746:	03 00       	.word	0x0003;	????	Illegal as address instr
     748:	00 00       	bra	@r0		
     74a:	0d 01       	mova	@r1,	r13	
     74c:	1c 04       	mova	@r4+,	r12	
     74e:	00 00       	bra	@r0		
     750:	01 1a       	.word	0x1a01;	????	
     752:	01 01       	mova	@r1,	r1	
     754:	f2 34       	jge	$+486    	;abs 0x93a
     756:	06 35       	jge	$+526    	;abs 0x964
     758:	a7 03 00 00 	adda	#0x30000,r7	
     75c:	36 02 00 00 	mova	&0x0000,r6	
     760:	0e 36       	jge	$-994    	;abs 0x37e
     762:	04 00       	mova	@r0,	r4	
     764:	00 01       	bra	@r1		
     766:	1a 01       	mova	@r1+,	r10	
     768:	44 00       	rrcm.a	#1,	r4	
     76a:	00 00       	bra	@r0		
     76c:	c3 03       	.word	0x03c3;	????	Illegal as address instr
     76e:	00 00       	bra	@r0		
     770:	00 09       	bra	@r9		
     772:	01 85       	sub	r5,	r1	
     774:	03 00       	.word	0x0003;	????	Illegal as address instr
     776:	00 01       	bra	@r1		
     778:	e0 01       	adda	r1,	r0	
     77a:	06 35       	jge	$+526    	;abs 0x988
     77c:	70 36       	jge	$-798    	;abs 0x45e
     77e:	d6 03       	tsta	r6		
     780:	00 00       	bra	@r0		
     782:	5b 02       	rlam	#1,	r11	
     784:	00 00       	bra	@r0		
     786:	13 36       	jge	$-984    	;abs 0x3ae
     788:	04 00       	mova	@r0,	r4	
     78a:	00 01       	bra	@r1		
     78c:	e0 44 00 00 	mov.b	@r4,	0x0000	;PC rel. 0x00790
     790:	00 2a       	jnc	$-1022   	;abs 0x392
     792:	04 00       	mova	@r0,	r4	
     794:	00 00       	bra	@r0		
     796:	0d 01       	mova	@r1,	r13	
     798:	0d 04       	mova	@r4,	r13	
     79a:	00 00       	bra	@r0		
     79c:	01 43       	clr	r1		
     79e:	01 01       	mova	@r1,	r1	
     7a0:	70 36       	jge	$-798    	;abs 0x482
     7a2:	10 38       	jl	$+34     	;abs 0x7c4
     7a4:	3c 04 00 00 	mova	0(r4),	r12	;0x0000(r4)
     7a8:	09 03       	mova	#2,	r9	;r3 As==10
     7aa:	00 00       	bra	@r0		
     7ac:	0f 78       	subc	r8,	r15	
     7ae:	30 00 01 43 	bra	0x4301		;PC rel. 0x04ab1
     7b2:	01 28       	jnc	$+4      	;abs 0x7b6
     7b4:	00 00       	bra	@r0		
     7b6:	00 b0       	bit	r0,	r0	
     7b8:	04 00       	mova	@r0,	r4	
     7ba:	00 0f       	bra	@r15		
     7bc:	79 30       	jn	$+244    	;abs 0x8b0
     7be:	00 01       	bra	@r1		
     7c0:	43 01       	rram.a	#1,	#0	;r3 As==00
     7c2:	28 00 00 00 	mova	&0x00000,r8	
     7c6:	c2 04       	mova	r4,	r2	
     7c8:	00 00       	bra	@r0		
     7ca:	0e ee       	xor	r14,	r14	
     7cc:	03 00       	.word	0x0003;	????	Illegal as address instr
     7ce:	00 01       	bra	@r1		
     7d0:	43 01       	rram.a	#1,	#0	;r3 As==00
     7d2:	28 00 00 00 	mova	&0x00000,r8	
     7d6:	d4 04       	cmpa	r4,	r4	
     7d8:	00 00       	bra	@r0		
     7da:	0e 36       	jge	$-994    	;abs 0x3f8
     7dc:	04 00       	mova	@r0,	r4	
     7de:	00 01       	bra	@r1		
     7e0:	43 01       	rram.a	#1,	#0	;r3 As==00
     7e2:	44 00       	rrcm.a	#1,	r4	
     7e4:	00 00       	bra	@r0		
     7e6:	e7 04       	adda	r4,	r7	
     7e8:	00 00       	bra	@r0		
     7ea:	10 97 03 00 	cmp	3(r7),	r0	;0x0003(r7)
     7ee:	00 01       	bra	@r1		
     7f0:	43 01       	rram.a	#1,	#0	;r3 As==00
     7f2:	2f 00 00 00 	mova	&0x00000,r15	
     7f6:	02 91       	cmp	r1,	r2	
     7f8:	1c 12 66 00 	push	102(r12)	;0x0066(r12)
     7fc:	01 44       	mov	r4,	r1	
     7fe:	01 2f       	jc	$-508    	;abs 0x602
     800:	00 00       	bra	@r0		
     802:	00 f9       	and	r9,	r0	
     804:	04 00       	mova	@r0,	r4	
     806:	00 11       	rra	r0		
     808:	50 04       	rrcm	#2,	r0	
     80a:	00 00       	bra	@r0		
     80c:	01 45       	mov	r5,	r1	
     80e:	01 2f       	jc	$-508    	;abs 0x612
     810:	00 00       	bra	@r0		
     812:	00 1b       	.word	0x1b00;	????	
     814:	05 00       	mova	@r0,	r5	
     816:	00 11       	rra	r0		
     818:	56 04       	rrcm	#2,	r6	
     81a:	00 00       	bra	@r0		
     81c:	01 46       	mov	r6,	r1	
     81e:	01 2f       	jc	$-508    	;abs 0x622
     820:	00 00       	bra	@r0		
     822:	00 27       	jz	$-510    	;abs 0x624
     824:	05 00       	mova	@r0,	r5	
     826:	00 12       	push	r0		
     828:	78 00 01 47 	mova	r0,	18177(r8);0x4701(r8)
     82c:	01 2f       	jc	$-508    	;abs 0x630
     82e:	00 00       	bra	@r0		
     830:	00 5c       	add	r12,	r0	
     832:	05 00       	mova	@r0,	r5	
     834:	00 12       	push	r0		
     836:	79 00 01 48 	mova	r0,	18433(r9);0x4801(r9)
     83a:	01 2f       	jc	$-508    	;abs 0x63e
     83c:	00 00       	bra	@r0		
     83e:	00 78       	subc	r8,	r0	
     840:	05 00       	mova	@r0,	r5	
     842:	00 00       	bra	@r0		
     844:	0d 01       	mova	@r1,	r13	
     846:	59 03       	rrum	#1,	r9	
     848:	00 00       	bra	@r0		
     84a:	01 92       	cmp	r2,	r1	
     84c:	01 01       	mova	@r1,	r1	
     84e:	10 38       	jl	$+34     	;abs 0x870
     850:	78 38       	jl	$+242    	;abs 0x942
     852:	8b 05 00 00 	mova	#0x50000,r11	
     856:	4c 03       	rrum.a	#1,	r12	
     858:	00 00       	bra	@r0		
     85a:	0f 78       	subc	r8,	r15	
     85c:	00 01       	bra	@r1		
     85e:	92 01 44 00 	cmpa	#0x10044,r2	
     862:	00 00       	bra	@r0		
     864:	b7 05 00 00 	suba	#0x50000,r7	
     868:	0f 79       	subc	r9,	r15	
     86a:	00 01       	bra	@r1		
     86c:	92 01 44 00 	cmpa	#0x10044,r2	
     870:	00 00       	bra	@r0		
     872:	c9 05       	mova	r5,	r9	
     874:	00 00       	bra	@r0		
     876:	0e 36       	jge	$-994    	;abs 0x494
     878:	04 00       	mova	@r0,	r4	
     87a:	00 01       	bra	@r1		
     87c:	92 01 44 00 	cmpa	#0x10044,r2	
     880:	00 00       	bra	@r0		
     882:	db 05       	cmpa	r5,	r11	
     884:	00 00       	bra	@r0		
     886:	00 0d       	bra	@r13		
     888:	01 90       	cmp	r0,	r1	
     88a:	04 00       	mova	@r0,	r4	
     88c:	00 01       	bra	@r1		
     88e:	61 01 01 78 	mova	r1,	&0x17801
     892:	38 46       	mov	@r6+,	r8	
     894:	39 ed       	xor	@r13+,	r9	
     896:	05 00       	mova	@r0,	r5	
     898:	00 1c       	.word	0x1c00;	????	
     89a:	04 00       	mova	@r0,	r4	
     89c:	00 0f       	bra	@r15		
     89e:	78 30       	jn	$+242    	;abs 0x990
     8a0:	00 01       	bra	@r1		
     8a2:	61 01 2f 00 	mova	r1,	&0x1002f
     8a6:	00 00       	bra	@r0		
     8a8:	41 06       	rlam.a	#2,	r1	
     8aa:	00 00       	bra	@r0		
     8ac:	0f 79       	subc	r9,	r15	
     8ae:	30 00 01 61 	bra	0x6101		;PC rel. 0x069b1
     8b2:	01 2f       	jc	$-508    	;abs 0x6b6
     8b4:	00 00       	bra	@r0		
     8b6:	00 61       	addc	r1,	r0	
     8b8:	06 00       	mova	@r0,	r6	
     8ba:	00 0f       	bra	@r15		
     8bc:	78 31       	jn	$+754    	;abs 0xbae
     8be:	00 01       	bra	@r1		
     8c0:	61 01 2f 00 	mova	r1,	&0x1002f
     8c4:	00 00       	bra	@r0		
     8c6:	88 06 00 00 	mova	#0x60000,r8	
     8ca:	0f 79       	subc	r9,	r15	
     8cc:	31 00 01 61 	mova	0x6101,	r1	;PC rel. 0x069cf
     8d0:	01 2f       	jc	$-508    	;abs 0x6d4
     8d2:	00 00       	bra	@r0		
     8d4:	00 ab       	dadd	r11,	r0	
     8d6:	06 00       	mova	@r0,	r6	
     8d8:	00 10       	rrc	r0		
     8da:	36 04 00 00 	mova	0(r4),	r6	;0x0000(r4)
     8de:	01 61       	rlc	r1		
     8e0:	01 44       	mov	r4,	r1	
     8e2:	00 00       	bra	@r0		
     8e4:	00 02       	bra	#4		;r2 As==10
     8e6:	91 16       	popm.a	#10,	r10	
     8e8:	12 64 79 00 	addc	121(r4),r2	;0x0079(r4)
     8ec:	01 62       	addc	r2,	r1	
     8ee:	01 2f       	jc	$-508    	;abs 0x6f2
     8f0:	00 00       	bra	@r0		
     8f2:	00 be       	bit	r14,	r0	
     8f4:	06 00       	mova	@r0,	r6	
     8f6:	00 12       	push	r0		
     8f8:	64 78       	subc.b	@r8,	r4	
     8fa:	00 01       	bra	@r1		
     8fc:	63 01 2f 00 	mova	r1,	&0x3002f
     900:	00 00       	bra	@r0		
     902:	e8 06       	adda	r6,	r8	
     904:	00 00       	bra	@r0		
     906:	11 48 03 00 	mov	3(r8),	r1	;0x0003(r8)
     90a:	00 01       	bra	@r1		
     90c:	64 01 2f 00 	mova	r1,	&0x4002f
     910:	00 00       	bra	@r0		
     912:	12 07       	mova	@r7+,	r2	
     914:	00 00       	bra	@r0		
     916:	11 07       	mova	@r7+,	r1	
     918:	04 00       	mova	@r0,	r4	
     91a:	00 01       	bra	@r1		
     91c:	64 01 2f 00 	mova	r1,	&0x4002f
     920:	00 00       	bra	@r0		
     922:	2d 07 00 00 	mova	&0x70000,r13	
     926:	14 c0 38 ee 	bic	0xee38,	r4	;PC rel. 0xff762
     92a:	38 05 04 00 	mova	4(r5),	r8	;0x0004(r5)
     92e:	00 11       	rra	r0		
     930:	8e 03 00 00 	mova	#0x30000,r14	
     934:	01 79       	subc	r9,	r1	
     936:	01 2f       	jc	$-508    	;abs 0x73a
     938:	00 00       	bra	@r0		
     93a:	00 48       	br	r8		
     93c:	07 00       	mova	@r0,	r7	
     93e:	00 00       	bra	@r0		
     940:	15 02       	mova	#8,	r5	;r2 As==11
     942:	39 36       	jge	$-908    	;abs 0x5b6
     944:	39 11       	rra	@r9+		
     946:	8e 03 00 00 	mova	#0x30000,r14	
     94a:	01 85       	sub	r5,	r1	
     94c:	01 2f       	jc	$-508    	;abs 0x750
     94e:	00 00       	bra	@r0		
     950:	00 72       	subc	r2,	r0	
     952:	07 00       	mova	@r0,	r7	
     954:	00 00       	bra	@r0		
     956:	00 0d       	bra	@r13		
     958:	01 b7       	bit	r7,	r1	
     95a:	04 00       	mova	@r0,	r4	
     95c:	00 01       	bra	@r1		
     95e:	a2 01 01 46 	adda	#0x14601,r2	
     962:	39 e0 39 9c 	xor	#-25543,r9	;#0x9c39
     966:	07 00       	mova	@r0,	r7	
     968:	00 9a       	cmp	r10,	r0	
     96a:	04 00       	mova	@r0,	r4	
     96c:	00 0f       	bra	@r15		
     96e:	78 00 01 a2 	mova	r0,	-24063(r8);0xa201(r8)
     972:	01 44       	mov	r4,	r1	
     974:	00 00       	bra	@r0		
     976:	00 d8       	bis	r8,	r0	
     978:	07 00       	mova	@r0,	r7	
     97a:	00 0f       	bra	@r15		
     97c:	79 00 01 a2 	mova	r0,	-24063(r9);0xa201(r9)
     980:	01 44       	mov	r4,	r1	
     982:	00 00       	bra	@r0		
     984:	00 ea       	xor	r10,	r0	
     986:	07 00       	mova	@r0,	r7	
     988:	00 0f       	bra	@r15		
     98a:	6c 78       	subc.b	@r8,	r12	
     98c:	00 01       	bra	@r1		
     98e:	a2 01 44 00 	adda	#0x10044,r2	
     992:	00 00       	bra	@r0		
     994:	fc 07       	suba	r7,	r12	
     996:	00 00       	bra	@r0		
     998:	0f 6c       	addc	r12,	r15	
     99a:	79 00 01 a2 	mova	r0,	-24063(r9);0xa201(r9)
     99e:	01 44       	mov	r4,	r1	
     9a0:	00 00       	bra	@r0		
     9a2:	00 0e       	bra	@r14		
     9a4:	08 00       	mova	@r0,	r8	
     9a6:	00 16       	popm.a	#1,	r0	
     9a8:	70 00 01 a2 	mova	r0,	0xa201	;PC rel. 0xfabab
     9ac:	01 9a       	cmp	r10,	r1	
     9ae:	04 00       	mova	@r0,	r4	
     9b0:	00 02       	bra	#4		;r2 As==10
     9b2:	91 0a 11 b7 	cmpa	#0xab711,r1	
     9b6:	03 00       	.word	0x0003;	????	Illegal as address instr
     9b8:	00 01       	bra	@r1		
     9ba:	a4 01 28 00 	adda	#0x10028,r4	
     9be:	00 00       	bra	@r0		
     9c0:	29 08 00 00 	mova	&0x80000,r9	
     9c4:	12 6d 61 78 	addc	30817(r13),r2	;0x7861(r13)
     9c8:	00 01       	bra	@r1		
     9ca:	a4 01 28 00 	adda	#0x10028,r4	
     9ce:	00 00       	bra	@r0		
     9d0:	3c 08 00 00 	mova	0(r8),	r12	;0x0000(r8)
     9d4:	00 17       	popm	#1,	r0	
     9d6:	02 44       	mov	r4,	r2	
     9d8:	00 00       	bra	@r0		
     9da:	00 18       	.word	0x1800;	????	
     9dc:	67 00 00 00 	mova	r0,	&0x70000
     9e0:	e0 39       	jl	$+962    	;abs 0xda2
     9e2:	fa 39       	jl	$+1014   	;abs 0xdd8
     9e4:	02 71       	subc	r1,	r2	
     9e6:	02 19       	.word	0x1902;	????	
     9e8:	72 00 00 00 	mova	r0,	&0x0000	
     9ec:	fa 39       	jl	$+1014   	;abs 0xde2
     9ee:	14 3a       	jl	$-982    	;abs 0x618
     9f0:	02 71       	subc	r1,	r2	
     9f2:	02 cf       	bic	r15,	r2	
     9f4:	04 00       	mova	@r0,	r4	
     9f6:	00 1a       	.word	0x1a00;	????	
     9f8:	81 00 00 00 	mova	#0x00000,r1	
     9fc:	47 08       	rrcm.a	#3,	r7	
     9fe:	00 00       	bra	@r0		
     a00:	1a 8b 00 00 	sub	0(r11),	r10	;0x0000(r11)
     a04:	00 59       	add	r9,	r0	
     a06:	08 00       	mova	@r0,	r8	
     a08:	00 00       	bra	@r0		
     a0a:	0d 01       	mova	@r1,	r13	
     a0c:	7a 03 00 00 	mova	#0,	0(r10)	;r3 As==00, 0x0000(r10)
     a10:	01 c9       	bic	r9,	r1	
     a12:	01 01       	mova	@r1,	r1	
     a14:	14 3a       	jl	$-982    	;abs 0x63e
     a16:	b6 3a       	jl	$-658    	;abs 0x784
     a18:	6b 08 00 00 	mova	r8,	&0xb0000
     a1c:	38 05 00 00 	mova	0(r5),	r8	;0x0000(r5)
     a20:	0f 63       	adc	r15		
     a22:	00 01       	bra	@r1		
     a24:	c9 01       	mova	r1,	r9	
     a26:	44 00       	rrcm.a	#1,	r4	
     a28:	00 00       	bra	@r0		
     a2a:	9f 08 00 00 	cmpa	#0x80000,r15	
     a2e:	1b 6a 00 01 	addc	256(r10),r11	;0x0100(r10)
     a32:	cb 01       	mova	r1,	r11	
     a34:	28 00 00 00 	mova	&0x00000,r8	
     a38:	12 69 00 01 	addc	256(r9),r2	;0x0100(r9)
     a3c:	cc 01       	mova	r1,	r12	
     a3e:	44 00       	rrcm.a	#1,	r4	
     a40:	00 00       	bra	@r0		
     a42:	b1 08 00 00 	suba	#0x80000,r1	
     a46:	12 6b 00 01 	addc	256(r11),r2	;0x0100(r11)
     a4a:	cc 01       	mova	r1,	r12	
     a4c:	44 00       	rrcm.a	#1,	r4	
     a4e:	00 00       	bra	@r0		
     a50:	d6 08       	cmpa	r8,	r6	
     a52:	00 00       	bra	@r0		
     a54:	12 76 00 01 	subc	256(r6),r2	;0x0100(r6)
     a58:	cc 01       	mova	r1,	r12	
     a5a:	44 00       	rrcm.a	#1,	r4	
     a5c:	00 00       	bra	@r0		
     a5e:	e2 08       	adda	r8,	r2	
     a60:	00 00       	bra	@r0		
     a62:	11 6e 04 00 	addc	4(r14),	r1	;0x0004(r14)
     a66:	00 01       	bra	@r1		
     a68:	cc 01       	mova	r1,	r12	
     a6a:	44 00       	rrcm.a	#1,	r4	
     a6c:	00 00       	bra	@r0		
     a6e:	f6 08       	suba	r8,	r6	
     a70:	00 00       	bra	@r0		
     a72:	00 1c 01 73 	sbcx	r1		
     a76:	04 00       	mova	@r0,	r4	
     a78:	00 01       	bra	@r1		
     a7a:	e6 01       	adda	r1,	r6	
     a7c:	01 b6       	bit	r6,	r1	
     a7e:	3a 1c       	.word	0x1c3a;	????	
     a80:	3b 02 71 02 	mova	&0x0271,r11	
     a84:	76 05 00 00 	mova	r5,	0(r6)	;0x0000(r6)
     a88:	0f 63       	adc	r15		
     a8a:	00 01       	bra	@r1		
     a8c:	e6 01       	adda	r1,	r6	
     a8e:	44 00       	rrcm.a	#1,	r4	
     a90:	00 00       	bra	@r0		
     a92:	1f 09       	mova	@r9+,	r15	
     a94:	00 00       	bra	@r0		
     a96:	1d 67 00 00 	addc	0(r7),	r13	;0x0000(r7)
     a9a:	00 d6       	bis	r6,	r0	
     a9c:	3a 08 00 00 	mova	0(r8),	r10	;0x0000(r8)
     aa0:	00 01       	bra	@r1		
     aa2:	f1 01       	suba	r1,	r1	
     aa4:	1e 67 00 00 	addc	0(r7),	r14	;0x0000(r7)
     aa8:	00 f6       	and	r6,	r0	
     aaa:	3a 0a 3b 01 	mova	315(r10),r10	;0x013b(r10)
     aae:	ea 01       	adda	r1,	r10	
     ab0:	00 1f 01 77 	subcx	r7,	r1	
     ab4:	04 00       	mova	@r0,	r4	
     ab6:	00 04       	bra	@r4		
     ab8:	3b 01 2f 00 	mova	47(r1),	r11	;0x002f(r1)
     abc:	00 00       	bra	@r0		
     abe:	1c 3b       	jl	$-454    	;abs 0x8f8
     ac0:	24 3b       	jl	$-438    	;abs 0x90a
     ac2:	02 71       	subc	r1,	r2	
     ac4:	02 9c       	cmp	r12,	r2	
     ac6:	05 00       	mova	@r0,	r5	
     ac8:	00 20       	jnz	$+2      	;abs 0xaca
     aca:	63 00 01 ab 	mova	r0,	&0x3ab01
     ace:	2f 00 00 00 	mova	&0x00000,r15	
     ad2:	38 09 00 00 	mova	0(r9),	r8	;0x0000(r9)
     ad6:	00 0d       	bra	@r13		
     ad8:	01 3c       	jmp	$+4      	;abs 0xadc
     ada:	04 00       	mova	@r0,	r4	
     adc:	00 01       	bra	@r1		
     ade:	f8 01       	suba	r1,	r8	
     ae0:	01 24       	jz	$+4      	;abs 0xae4
     ae2:	3b b0 3b 43 	bit	#17211,	r11	;#0x433b
     ae6:	09 00       	mova	@r0,	r9	
     ae8:	00 2d       	jc	$+514    	;abs 0xcea
     aea:	06 00       	mova	@r0,	r6	
     aec:	00 0f       	bra	@r15		
     aee:	78 00 01 f8 	mova	r0,	-2047(r8);0xf801(r8)
     af2:	01 2f       	jc	$-508    	;abs 0x8f6
     af4:	00 00       	bra	@r0		
     af6:	00 a7       	dadd	r7,	r0	
     af8:	09 00       	mova	@r0,	r9	
     afa:	00 0f       	bra	@r15		
     afc:	79 00 01 f8 	mova	r0,	-2047(r9);0xf801(r9)
     b00:	01 2f       	jc	$-508    	;abs 0x904
     b02:	00 00       	bra	@r0		
     b04:	00 b9       	bit	r9,	r0	
     b06:	09 00       	mova	@r0,	r9	
     b08:	00 0f       	bra	@r15		
     b0a:	6c 78       	subc.b	@r8,	r12	
     b0c:	00 01       	bra	@r1		
     b0e:	f8 01       	suba	r1,	r8	
     b10:	2f 00 00 00 	mova	&0x00000,r15	
     b14:	d2 09       	cmpa	r9,	r2	
     b16:	00 00       	bra	@r0		
     b18:	0f 6c       	addc	r12,	r15	
     b1a:	79 00 01 f8 	mova	r0,	-2047(r9);0xf801(r9)
     b1e:	01 2f       	jc	$-508    	;abs 0x922
     b20:	00 00       	bra	@r0		
     b22:	00 eb       	xor	r11,	r0	
     b24:	09 00       	mova	@r0,	r9	
     b26:	00 10       	rrc	r0		
     b28:	36 04 00 00 	mova	0(r4),	r6	;0x0000(r4)
     b2c:	01 f8       	and	r8,	r1	
     b2e:	01 44       	mov	r4,	r1	
     b30:	00 00       	bra	@r0		
     b32:	00 02       	bra	#4		;r2 As==10
     b34:	91 0c 10 9d 	cmpa	#0xc9d10,r1	
     b38:	03 00       	.word	0x0003;	????	Illegal as address instr
     b3a:	00 01       	bra	@r1		
     b3c:	f8 01       	suba	r1,	r8	
     b3e:	44 00       	rrcm.a	#1,	r4	
     b40:	00 00       	bra	@r0		
     b42:	02 91       	cmp	r1,	r2	
     b44:	0e 0e       	mova	@r14,	r14	
     b46:	7f 04 00 00 	mova	r4,	0(r15)	;0x0000(r15)
     b4a:	01 f8       	and	r8,	r1	
     b4c:	01 2f       	jc	$-508    	;abs 0x950
     b4e:	00 00       	bra	@r0		
     b50:	00 fd       	and	r13,	r0	
     b52:	09 00       	mova	@r0,	r9	
     b54:	00 21       	jnz	$+514    	;abs 0xd56
     b56:	14 00       	mova	#0x00000,r4	
     b58:	00 00       	bra	@r0		
     b5a:	22 ab       	dadd	@r11,	r2	
     b5c:	03 00       	.word	0x0003;	????	Illegal as address instr
     b5e:	00 01       	bra	@r1		
     b60:	05 02       	mova	#4,	r5	;r2 As==10
     b62:	2f 00 00 00 	mova	&0x00000,r15	
     b66:	00 00       	bra	@r0		
     b68:	0d 01       	mova	@r1,	r13	
     b6a:	c5 03       	mova	#0,	r5	;r3 As==00
     b6c:	00 00       	bra	@r0		
     b6e:	01 0c       	mova	@r12,	r1	
     b70:	02 01       	mova	@r1,	r2	
     b72:	b0 3b       	jl	$-158    	;abs 0xad4
     b74:	f4 3b       	jl	$-22     	;abs 0xb5e
     b76:	11 0a       	mova	@r10+,	r1	
     b78:	00 00       	bra	@r0		
     b7a:	84 06 00 00 	mova	#0x60000,r4	
     b7e:	0e ce       	bic	r14,	r14	
     b80:	04 00       	mova	@r0,	r4	
     b82:	00 01       	bra	@r1		
     b84:	0c 02       	mova	#4,	r12	;r2 As==10
     b86:	2f 00 00 00 	mova	&0x00000,r15	
     b8a:	2d 0a 00 00 	mova	&0xa0000,r13	
     b8e:	0f 74       	subc	r4,	r15	
     b90:	6f 00 01 0c 	mova	r0,	&0xf0c01
     b94:	02 2f       	jc	$-506    	;abs 0x99a
     b96:	00 00       	bra	@r0		
     b98:	00 4d       	br	r13		
     b9a:	0a 00       	mova	@r0,	r10	
     b9c:	00 23       	jnz	$-510    	;abs 0x99e
     b9e:	72 00 00 00 	mova	r0,	&0x0000	
     ba2:	c2 3b       	jl	$-122    	;abs 0xb28
     ba4:	24 00 00 00 	mova	&0x00000,r4	
     ba8:	01 0e       	mova	@r14,	r1	
     baa:	02 1a       	.word	0x1a02;	????	
     bac:	8b 00 00 00 	mova	#0x00000,r11	
     bb0:	66 0a 00 00 	mova	r10,	&0x60000
     bb4:	1a 81 00 00 	sub	0(r1),	r10	;0x0000(r1)
     bb8:	00 8a       	sub	r10,	r0	
     bba:	0a 00       	mova	@r0,	r10	
     bbc:	00 00       	bra	@r0		
     bbe:	00 24       	jz	$+2      	;abs 0xbc0
     bc0:	74 03 00 00 	mova	#0,	0(r4)	;r3 As==00, 0x0000(r4)
     bc4:	02 b1       	bit	r1,	r2	
     bc6:	03 71       	.word	0x7103;	????	Illegal as 2-op instr
     bc8:	03 00       	.word	0x0003;	????	Illegal as address instr
     bca:	00 96       	cmp	r6,	r0	
     bcc:	06 00       	mova	@r0,	r6	
     bce:	00 01       	bra	@r1		
     bd0:	01 25       	jz	$+516    	;abs 0xdd4
     bd2:	44 00       	rrcm.a	#1,	r4	
     bd4:	00 00       	bra	@r0		
     bd6:	24 8a       	sub	@r10,	r4	
     bd8:	04 00       	mova	@r0,	r4	
     bda:	00 02       	bra	#4		;r2 As==10
     bdc:	b3 03       	.word	0x03b3;	????	Illegal as address instr
     bde:	87 04 00 00 	mova	#0x40000,r7	
     be2:	96 06 00 00 	cmpa	#0x60000,r6	
     be6:	01 01       	mova	@r1,	r1	
     be8:	26 3b       	jl	$-434    	;abs 0xa36
     bea:	03 00       	.word	0x0003;	????	Illegal as address instr
     bec:	00 03       	bra	#2		;r3 As==10
     bee:	37 44       	mov	@r4+,	r7	
     bf0:	00 00       	bra	@r0		
     bf2:	00 01       	bra	@r1		
     bf4:	01 26       	jz	$-1020   	;abs 0x7f8
     bf6:	61 04 00 00 	mova	r4,	&0x10000
     bfa:	03 38       	jl	$+8      	;abs 0xc02
     bfc:	44 00       	rrcm.a	#1,	r4	
     bfe:	00 00       	bra	@r0		
     c00:	01 01       	mova	@r1,	r1	
     c02:	26 1a       	.word	0x1a26;	????	
     c04:	00 00       	bra	@r0		
     c06:	00 03       	bra	#2		;r3 As==10
     c08:	3a 44       	mov	@r4+,	r10	
     c0a:	00 00       	bra	@r0		
     c0c:	00 01       	bra	@r1		
     c0e:	01 26       	jz	$-1020   	;abs 0x812
     c10:	aa 04 00 00 	adda	#0x40000,r10	
     c14:	03 3b       	jl	$-504    	;abs 0xa1c
     c16:	44 00       	rrcm.a	#1,	r4	
     c18:	00 00       	bra	@r0		
     c1a:	01 01       	mova	@r1,	r1	
     c1c:	27 60       	addc	@r0,	r7	
     c1e:	00 00       	bra	@r0		
     c20:	00 f2       	and	r2,	r0	
     c22:	06 00       	mova	@r0,	r6	
     c24:	00 28       	jnc	$+2      	;abs 0xc26
     c26:	28 00 00 00 	mova	&0x00000,r8	
     c2a:	7f 02 00 26 	mova	r2,	9728(r15);0x2600(r15)
     c2e:	c3 04       	.word	0x04c3;	????	Illegal as address instr
     c30:	00 00       	bra	@r0		
     c32:	03 4d       	.word	0x4d03;	????	Illegal as 2-op instr
     c34:	ff 06       	suba	r6,	r15	
     c36:	00 00       	bra	@r0		
     c38:	01 01       	mova	@r1,	r1	
     c3a:	29 e1       	xor	@r1,	r9	
     c3c:	06 00       	mova	@r0,	r6	
     c3e:	00 24       	jz	$+2      	;abs 0xc40
     c40:	74 03 00 00 	mova	#0,	0(r4)	;r3 As==00, 0x0000(r4)
     c44:	02 b1       	bit	r1,	r2	
     c46:	03 71       	.word	0x7103;	????	Illegal as 2-op instr
     c48:	03 00       	.word	0x0003;	????	Illegal as address instr
     c4a:	00 96       	cmp	r6,	r0	
     c4c:	06 00       	mova	@r0,	r6	
     c4e:	00 01       	bra	@r1		
     c50:	01 24       	jz	$+4      	;abs 0xc54
     c52:	8a 04 00 00 	mova	#0x40000,r10	
     c56:	02 b3       	bit	#0,	r2	;r3 As==00
     c58:	03 87       	.word	0x8703;	????	Illegal as 2-op instr
     c5a:	04 00       	mova	@r0,	r4	
     c5c:	00 96       	cmp	r6,	r0	
     c5e:	06 00       	mova	@r0,	r6	
     c60:	00 01       	bra	@r1		
     c62:	01 2a       	jnc	$-1020   	;abs 0x866
     c64:	3b 03 00 00 	mova	#1,	r11	;r3 As==01
     c68:	01 22       	jnz	$-1020   	;abs 0x86c
     c6a:	44 00       	rrcm.a	#1,	r4	
     c6c:	00 00       	bra	@r0		
     c6e:	01 03       	mova	#2,	r1	;r3 As==10
     c70:	03 02       	.word	0x0203;	????	Illegal as address instr
     c72:	11 2a       	jnc	$-988    	;abs 0x896
     c74:	61 04 00 00 	mova	r4,	&0x10000
     c78:	01 23       	jnz	$-508    	;abs 0xa7c
     c7a:	44 00       	rrcm.a	#1,	r4	
     c7c:	00 00       	bra	@r0		
     c7e:	01 03       	mova	#2,	r1	;r3 As==10
     c80:	03 04       	.word	0x0403;	????	Illegal as address instr
     c82:	11 2a       	jnc	$-988    	;abs 0x8a6
     c84:	1a 00       	mova	#0x00000,r10	
     c86:	00 00       	bra	@r0		
     c88:	01 24       	jz	$+4      	;abs 0xc8c
     c8a:	44 00       	rrcm.a	#1,	r4	
     c8c:	00 00       	bra	@r0		
     c8e:	01 03       	mova	#2,	r1	;r3 As==10
     c90:	03 00       	.word	0x0003;	????	Illegal as address instr
     c92:	11 2a       	jnc	$-988    	;abs 0x8b6
     c94:	aa 04 00 00 	adda	#0x40000,r10	
     c98:	01 25       	jz	$+516    	;abs 0xe9c
     c9a:	44 00       	rrcm.a	#1,	r4	
     c9c:	00 00       	bra	@r0		
     c9e:	01 03       	mova	#2,	r1	;r3 As==10
     ca0:	03 06       	.word	0x0603;	????	Illegal as address instr
     ca2:	11 2a       	jnc	$-988    	;abs 0x8c6
     ca4:	c3 04       	.word	0x04c3;	????	Illegal as address instr
     ca6:	00 00       	bra	@r0		
     ca8:	01 27       	jz	$-508    	;abs 0xaac
     caa:	78 07 00 00 	mova	r7,	0(r8)	;0x0000(r8)
     cae:	01 03       	mova	#2,	r1	;r3 As==10
     cb0:	03 f4       	.word	0xf403;	????	Illegal as 2-op instr
     cb2:	3b 29       	jnc	$+632    	;abs 0xf2a
     cb4:	e1 06       	adda	r6,	r1	
     cb6:	00 00       	bra	@r0		
     cb8:	00 68       	addc	r8,	r0	
     cba:	01 00       	mova	@r0,	r1	
     cbc:	00 02       	bra	#4		;r2 As==10
     cbe:	00 85       	sub	r5,	r0	
     cc0:	04 00       	mova	@r0,	r4	
     cc2:	00 02       	bra	#4		;r2 As==10
     cc4:	01 64       	addc	r4,	r1	
     cc6:	00 00       	bra	@r0		
     cc8:	00 01       	bra	@r1		
     cca:	29 05 00 00 	mova	&0x50000,r9	
     cce:	de 00       	cmpa	r0,	r14	
     cd0:	00 00       	bra	@r0		
     cd2:	74 3e       	jmp	$-790    	;abs 0x9bc
     cd4:	b6 3e       	jmp	$-658    	;abs 0xa42
     cd6:	63 0a 00 00 	mova	r10,	&0x30000
     cda:	02 01       	mova	@r1,	r2	
     cdc:	3b 05 00 00 	mova	0(r5),	r11	;0x0000(r5)
     ce0:	01 06       	mova	@r6,	r1	
     ce2:	01 01       	mova	@r1,	r1	
     ce4:	03 21       	jnz	$+520    	;abs 0xeec
     ce6:	00 00       	bra	@r0		
     ce8:	00 74       	subc	r4,	r0	
     cea:	3e 8c       	sub	@r12+,	r14	
     cec:	3e 02 71 02 	mova	&0x0271,r14	
     cf0:	04 01       	mova	@r1,	r4	
     cf2:	1a 05       	mova	@r5+,	r10	
     cf4:	00 00       	bra	@r0		
     cf6:	01 0d       	mova	@r13,	r1	
     cf8:	01 8c       	sub	r12,	r1	
     cfa:	3e b6       	bit	@r6+,	r14	
     cfc:	3e 02 71 02 	mova	&0x0271,r14	
     d00:	57 00       	rrcm	#1,	r7	
     d02:	00 00       	bra	@r0		
     d04:	05 21       	jnz	$+524    	;abs 0xf10
     d06:	00 00       	bra	@r0		
     d08:	00 92       	cmp	r2,	r0	
     d0a:	3e a8       	dadd	@r8+,	r14	
     d0c:	3e 01 10 00 	mova	16(r1),	r14	;0x0010(r1)
     d10:	06 df       	bis	r15,	r6	
     d12:	04 00       	mova	@r0,	r4	
     d14:	00 02       	bra	#4		;r2 As==10
     d16:	c4 01       	mova	r1,	r4	
     d18:	dc 04       	cmpa	r4,	r12	
     d1a:	00 00       	bra	@r0		
     d1c:	69 00 00 00 	mova	r0,	&0x90000
     d20:	01 01       	mova	@r1,	r1	
     d22:	07 6e       	addc	r14,	r7	
     d24:	00 00       	bra	@r0		
     d26:	00 08       	bra	@r8		
     d28:	01 08       	mova	@r8,	r1	
     d2a:	70 00 00 00 	mova	r0,	0x0000	;PC rel. 0x00d2c
     d2e:	06 e9       	xor	r9,	r6	
     d30:	04 00       	mova	@r0,	r4	
     d32:	00 02       	bra	#4		;r2 As==10
     d34:	c6 01       	mova	r1,	r6	
     d36:	e6 04       	adda	r4,	r6	
     d38:	00 00       	bra	@r0		
     d3a:	69 00 00 00 	mova	r0,	&0x90000
     d3e:	01 01       	mova	@r1,	r1	
     d40:	06 f4       	and	r4,	r6	
     d42:	04 00       	mova	@r0,	r4	
     d44:	00 02       	bra	#4		;r2 As==10
     d46:	c8 01       	mova	r1,	r8	
     d48:	f1 04       	suba	r4,	r1	
     d4a:	00 00       	bra	@r0		
     d4c:	69 00 00 00 	mova	r0,	&0x90000
     d50:	01 01       	mova	@r1,	r1	
     d52:	06 ff       	and	r15,	r6	
     d54:	04 00       	mova	@r0,	r4	
     d56:	00 02       	bra	#4		;r2 As==10
     d58:	ca 01       	mova	r1,	r10	
     d5a:	fc 04       	suba	r4,	r12	
     d5c:	00 00       	bra	@r0		
     d5e:	69 00 00 00 	mova	r0,	&0x90000
     d62:	01 01       	mova	@r1,	r1	
     d64:	06 d6       	bis	r6,	r6	
     d66:	04 00       	mova	@r0,	r4	
     d68:	00 02       	bra	#4		;r2 As==10
     d6a:	7e 03 d3 04 	mova	#0,	1235(r14);r3 As==00, 0x04d3(r14)
     d6e:	00 00       	bra	@r0		
     d70:	69 00 00 00 	mova	r0,	&0x90000
     d74:	01 01       	mova	@r1,	r1	
     d76:	06 14       	pushm.a	#1,	r6	
     d78:	05 00       	mova	@r0,	r5	
     d7a:	00 02       	bra	#4		;r2 As==10
     d7c:	80 03 11 05 	bra	#0x30511	
     d80:	00 00       	bra	@r0		
     d82:	69 00 00 00 	mova	r0,	&0x90000
     d86:	01 01       	mova	@r1,	r1	
     d88:	06 0a       	mova	@r10,	r6	
     d8a:	05 00       	mova	@r0,	r5	
     d8c:	00 02       	bra	#4		;r2 As==10
     d8e:	d9 05       	cmpa	r5,	r9	
     d90:	07 05       	mova	@r5,	r7	
     d92:	00 00       	bra	@r0		
     d94:	e1 00       	adda	r0,	r1	
     d96:	00 00       	bra	@r0		
     d98:	01 01       	mova	@r1,	r1	
     d9a:	07 e6       	xor	r6,	r7	
     d9c:	00 00       	bra	@r0		
     d9e:	00 08       	bra	@r8		
     da0:	02 07       	mova	@r7,	r2	
     da2:	31 00 00 00 	mova	0x0000,	r1	;PC rel. 0x00da4
     da6:	06 df       	bis	r15,	r6	
     da8:	04 00       	mova	@r0,	r4	
     daa:	00 02       	bra	#4		;r2 As==10
     dac:	c4 01       	mova	r1,	r4	
     dae:	dc 04       	cmpa	r4,	r12	
     db0:	00 00       	bra	@r0		
     db2:	69 00 00 00 	mova	r0,	&0x90000
     db6:	01 01       	mova	@r1,	r1	
     db8:	06 e9       	xor	r9,	r6	
     dba:	04 00       	mova	@r0,	r4	
     dbc:	00 02       	bra	#4		;r2 As==10
     dbe:	c6 01       	mova	r1,	r6	
     dc0:	e6 04       	adda	r4,	r6	
     dc2:	00 00       	bra	@r0		
     dc4:	69 00 00 00 	mova	r0,	&0x90000
     dc8:	01 01       	mova	@r1,	r1	
     dca:	06 f4       	and	r4,	r6	
     dcc:	04 00       	mova	@r0,	r4	
     dce:	00 02       	bra	#4		;r2 As==10
     dd0:	c8 01       	mova	r1,	r8	
     dd2:	f1 04       	suba	r4,	r1	
     dd4:	00 00       	bra	@r0		
     dd6:	69 00 00 00 	mova	r0,	&0x90000
     dda:	01 01       	mova	@r1,	r1	
     ddc:	06 ff       	and	r15,	r6	
     dde:	04 00       	mova	@r0,	r4	
     de0:	00 02       	bra	#4		;r2 As==10
     de2:	ca 01       	mova	r1,	r10	
     de4:	fc 04       	suba	r4,	r12	
     de6:	00 00       	bra	@r0		
     de8:	69 00 00 00 	mova	r0,	&0x90000
     dec:	01 01       	mova	@r1,	r1	
     dee:	06 d6       	bis	r6,	r6	
     df0:	04 00       	mova	@r0,	r4	
     df2:	00 02       	bra	#4		;r2 As==10
     df4:	7e 03 d3 04 	mova	#0,	1235(r14);r3 As==00, 0x04d3(r14)
     df8:	00 00       	bra	@r0		
     dfa:	69 00 00 00 	mova	r0,	&0x90000
     dfe:	01 01       	mova	@r1,	r1	
     e00:	06 14       	pushm.a	#1,	r6	
     e02:	05 00       	mova	@r0,	r5	
     e04:	00 02       	bra	#4		;r2 As==10
     e06:	80 03 11 05 	bra	#0x30511	
     e0a:	00 00       	bra	@r0		
     e0c:	69 00 00 00 	mova	r0,	&0x90000
     e10:	01 01       	mova	@r1,	r1	
     e12:	06 0a       	mova	@r10,	r6	
     e14:	05 00       	mova	@r0,	r5	
     e16:	00 02       	bra	#4		;r2 As==10
     e18:	d9 05       	cmpa	r5,	r9	
     e1a:	07 05       	mova	@r5,	r7	
     e1c:	00 00       	bra	@r0		
     e1e:	e1 00       	adda	r0,	r1	
     e20:	00 00       	bra	@r0		
     e22:	01 01       	mova	@r1,	r1	
     e24:	00 ff       	and	r15,	r0	
     e26:	00 00       	bra	@r0		
     e28:	00 02       	bra	#4		;r2 As==10
     e2a:	00 03       	bra	#2		;r3 As==10
     e2c:	05 00       	mova	@r0,	r5	
     e2e:	00 02       	bra	#4		;r2 As==10
     e30:	01 64       	addc	r4,	r1	
     e32:	00 00       	bra	@r0		
     e34:	00 01       	bra	@r1		
     e36:	86 05 00 00 	mova	#0x50000,r6	
     e3a:	58 05       	rram	#2,	r8	
     e3c:	00 00       	bra	@r0		
     e3e:	b6 3e       	jmp	$-658    	;abs 0xbac
     e40:	d6 3e       	jmp	$-594    	;abs 0xbee
     e42:	4c 0b       	rrum.a	#3,	r12	
     e44:	00 00       	bra	@r0		
     e46:	02 04       	mova	@r4,	r2	
     e48:	05 05       	mova	@r5,	r5	
     e4a:	00 00       	bra	@r0		
     e4c:	00 02       	bra	#4		;r2 As==10
     e4e:	02 07       	mova	@r7,	r2	
     e50:	31 00 00 00 	mova	0x0000,	r1	;PC rel. 0x00e52
     e54:	03 02       	.word	0x0203;	????	Illegal as address instr
     e56:	05 69       	addc	r9,	r5	
     e58:	6e 74       	subc.b	@r4,	r14	
     e5a:	00 02       	bra	#4		;r2 As==10
     e5c:	01 06       	mova	@r6,	r1	
     e5e:	72 00 00 00 	mova	r0,	&0x0000	
     e62:	02 08       	mova	@r8,	r2	
     e64:	05 00       	mova	@r0,	r5	
     e66:	00 00       	bra	@r0		
     e68:	00 02       	bra	#4		;r2 As==10
     e6a:	01 08       	mova	@r8,	r1	
     e6c:	70 00 00 00 	mova	r0,	0x0000	;PC rel. 0x00e6e
     e70:	02 04       	mova	@r4,	r2	
     e72:	07 2c       	jc	$+16     	;abs 0xe82
     e74:	00 00       	bra	@r0		
     e76:	00 02       	bra	#4		;r2 As==10
     e78:	08 07       	mova	@r7,	r8	
     e7a:	27 00 00 00 	mova	&0x00000,r7	
     e7e:	02 02       	mova	#4,	r2	;r2 As==10
     e80:	07 a1       	dadd	r1,	r7	
     e82:	00 00       	bra	@r0		
     e84:	00 02       	bra	#4		;r2 As==10
     e86:	01 06       	mova	@r6,	r1	
     e88:	79 00 00 00 	mova	r0,	0(r9)	;0x0000(r9)
     e8c:	04 02       	mova	#4,	r4	;r2 As==10
     e8e:	6d 00 00 00 	mova	r0,	&0xd0000
     e92:	05 60       	addc	r0,	r5	
     e94:	00 00       	bra	@r0		
     e96:	00 06       	bra	@r6		
     e98:	98 05 00 00 	cmpa	#0x50000,r8	
     e9c:	02 28       	jnc	$+6      	;abs 0xea2
     e9e:	7d 00 00 00 	mova	r0,	0(r13)	;0x0000(r13)
     ea2:	07 02       	mova	#4,	r7	;r2 As==10
     ea4:	46 05       	rram.a	#2,	r6	
     ea6:	00 00       	bra	@r0		
     ea8:	06 9f       	cmp	r15,	r6	
     eaa:	05 00       	mova	@r0,	r5	
     eac:	00 02       	bra	#4		;r2 As==10
     eae:	66 72       	subc.b	#4,	r6	;r2 As==10
     eb0:	00 00       	bra	@r0		
     eb2:	00 08       	bra	@r8		
     eb4:	01 94       	cmp	r4,	r1	
     eb6:	06 00       	mova	@r0,	r6	
     eb8:	00 01       	bra	@r1		
     eba:	24 01 2f 00 	mova	&0x1002f,r4	
     ebe:	00 00       	bra	@r0		
     ec0:	b6 3e       	jmp	$-658    	;abs 0xc2e
     ec2:	c8 3e       	jmp	$-622    	;abs 0xc54
     ec4:	02 71       	subc	r1,	r2	
     ec6:	02 cf       	bic	r15,	r2	
     ec8:	00 00       	bra	@r0		
     eca:	00 09       	bra	@r9		
     ecc:	66 6d       	addc.b	@r13,	r6	
     ece:	74 00 01 24 	mova	r0,	9217(r4);0x2401(r4)
     ed2:	67 00 00 00 	mova	r0,	&0x70000
     ed6:	02 91       	cmp	r1,	r2	
     ed8:	02 0a       	mova	@r10,	r2	
     eda:	0b a7       	dadd	r7,	r11	
     edc:	05 00       	mova	@r0,	r5	
     ede:	00 01       	bra	@r1		
     ee0:	26 83       	decd	r6		
     ee2:	00 00       	bra	@r0		
     ee4:	00 03       	bra	#2		;r3 As==10
     ee6:	91 02 9f 0c 	cmpa	#0x20c9f,r1	
     eea:	72 63       	addc.b	#-1,	r2	;r3 As==11
     eec:	00 01       	bra	@r1		
     eee:	27 2f       	jc	$-432    	;abs 0xd3e
     ef0:	00 00       	bra	@r0		
     ef2:	00 00       	bra	@r0		
     ef4:	0d 01       	mova	@r1,	r13	
     ef6:	7e 05 00 00 	mova	r5,	0(r14)	;0x0000(r14)
     efa:	01 30       	jn	$+4      	;abs 0xefe
     efc:	01 2f       	jc	$-508    	;abs 0xd00
     efe:	00 00       	bra	@r0		
     f00:	00 c8       	bic	r8,	r0	
     f02:	3e d6       	bis	@r6+,	r14	
     f04:	3e 02 71 02 	mova	&0x0271,r14	
     f08:	0e 66       	addc	r6,	r14	
     f0a:	6d 74       	subc.b	@r4,	r13	
     f0c:	00 01       	bra	@r1		
     f0e:	30 67       	addc	@r7+,	r0	
     f10:	00 00       	bra	@r0		
     f12:	00 a3       	dadc	r0		
     f14:	0a 00       	mova	@r0,	r10	
     f16:	00 0f       	bra	@r15		
     f18:	a7 05 00 00 	adda	#0x50000,r7	
     f1c:	01 30       	jn	$+4      	;abs 0xf20
     f1e:	83 00       	.word	0x0083;	????	Illegal as address instr
     f20:	00 00       	bra	@r0		
     f22:	b5 0a 00 00 	suba	#0xa0000,r5	
     f26:	00 00       	bra	@r0		
     f28:	b1 03 00 00 	suba	#0x30000,r1	
     f2c:	02 00       	mova	@r0,	r2	
     f2e:	d1 05       	cmpa	r5,	r1	
     f30:	00 00       	bra	@r0		
     f32:	02 01       	mova	@r1,	r2	
     f34:	64 00 00 00 	mova	r0,	&0x40000
     f38:	01 b7       	bit	r7,	r1	
     f3a:	06 00       	mova	@r0,	r6	
     f3c:	00 58       	add	r8,	r0	
     f3e:	05 00       	mova	@r0,	r5	
     f40:	00 d6       	bis	r6,	r0	
     f42:	3e 4c       	mov	@r12+,	r14	
     f44:	43 e2       	.word	0xe243;	????	Illegal as 2-op instr
     f46:	0b 00       	mova	@r0,	r11	
     f48:	00 02       	bra	#4		;r2 As==10
     f4a:	04 05       	mova	@r5,	r4	
     f4c:	05 00       	mova	@r0,	r5	
     f4e:	00 00       	bra	@r0		
     f50:	02 02       	mova	#4,	r2	;r2 As==10
     f52:	07 31       	jn	$+528    	;abs 0x1162
     f54:	00 00       	bra	@r0		
     f56:	00 03       	bra	#2		;r3 As==10
     f58:	02 05       	mova	@r5,	r2	
     f5a:	69 6e       	addc.b	@r14,	r9	
     f5c:	74 00 02 01 	mova	r0,	258(r4)	;0x0102(r4)
     f60:	06 72       	subc	r2,	r6	
     f62:	00 00       	bra	@r0		
     f64:	00 04       	bra	@r4		
     f66:	70 06 00 00 	mova	r6,	0x0000	;PC rel. 0x00f68
     f6a:	02 27       	jz	$-506    	;abs 0xd70
     f6c:	2f 00 00 00 	mova	&0x00000,r15	
     f70:	02 08       	mova	@r8,	r2	
     f72:	05 00       	mova	@r0,	r5	
     f74:	00 00       	bra	@r0		
     f76:	00 02       	bra	#4		;r2 As==10
     f78:	01 08       	mova	@r8,	r1	
     f7a:	70 00 00 00 	mova	r0,	0x0000	;PC rel. 0x00f7c
     f7e:	02 04       	mova	@r4,	r2	
     f80:	07 2c       	jc	$+16     	;abs 0xf90
     f82:	00 00       	bra	@r0		
     f84:	00 02       	bra	#4		;r2 As==10
     f86:	08 07       	mova	@r7,	r8	
     f88:	27 00 00 00 	mova	&0x00000,r7	
     f8c:	04 ac       	dadd	r12,	r4	
     f8e:	05 00       	mova	@r0,	r5	
     f90:	00 02       	bra	#4		;r2 As==10
     f92:	56 3d       	jmp	$+686    	;abs 0x1240
     f94:	00 00       	bra	@r0		
     f96:	00 02       	bra	#4		;r2 As==10
     f98:	02 07       	mova	@r7,	r2	
     f9a:	a1 00 00 00 	adda	#0x00000,r1	
     f9e:	05 02       	mova	#4,	r5	;r2 As==10
     fa0:	7c 00 00 00 	mova	r0,	0(r12)	;0x0000(r12)
     fa4:	02 01       	mova	@r1,	r2	
     fa6:	06 79       	subc	r9,	r6	
     fa8:	00 00       	bra	@r0		
     faa:	00 05       	bra	@r5		
     fac:	02 89       	sub	r9,	r2	
     fae:	00 00       	bra	@r0		
     fb0:	00 06       	bra	@r6		
     fb2:	7c 00 00 00 	mova	r0,	0(r12)	;0x0000(r12)
     fb6:	04 98       	cmp	r8,	r4	
     fb8:	05 00       	mova	@r0,	r5	
     fba:	00 03       	bra	#2		;r3 As==10
     fbc:	28 99       	cmp	@r9,	r8	
     fbe:	00 00       	bra	@r0		
     fc0:	00 07       	bra	@r7		
     fc2:	02 46       	mov	r6,	r2	
     fc4:	05 00       	mova	@r0,	r5	
     fc6:	00 04       	bra	@r4		
     fc8:	9f 05 00 00 	cmpa	#0x50000,r15	
     fcc:	03 66       	.word	0x6603;	????	Illegal as 2-op instr
     fce:	8e 00 00 00 	mova	#0x00000,r14	
     fd2:	08 02       	mova	#4,	r8	;r2 As==10
     fd4:	01 34       	jge	$+4      	;abs 0xfd8
     fd6:	38 01 00 00 	mova	0(r1),	r8	;0x0000(r1)
     fda:	09 1b       	.word	0x1b09;	????	
     fdc:	06 00       	mova	@r0,	r6	
     fde:	00 01       	bra	@r1		
     fe0:	36 28       	jnc	$+110    	;abs 0x104e
     fe2:	00 00       	bra	@r0		
     fe4:	00 02       	bra	#4		;r2 As==10
     fe6:	01 0f       	mova	@r15,	r1	
     fe8:	02 23       	jnz	$-506    	;abs 0xdee
     fea:	00 09       	bra	@r9		
     fec:	9b 06 00 00 	cmpa	#0x60000,r11	
     ff0:	01 37       	jge	$-508    	;abs 0xdf4
     ff2:	28 00 00 00 	mova	&0x00000,r8	
     ff6:	02 01       	mova	@r1,	r2	
     ff8:	0e 02       	mova	#4,	r14	;r2 As==10
     ffa:	23 00       	.word	0x0023;	????	Illegal as address instr
     ffc:	09 06       	mova	@r6,	r9	
     ffe:	06 00       	mova	@r0,	r6	
    1000:	00 01       	bra	@r1		
    1002:	38 28       	jnc	$+114    	;abs 0x1074
    1004:	00 00       	bra	@r0		
    1006:	00 02       	bra	#4		;r2 As==10
    1008:	01 0d       	mova	@r13,	r1	
    100a:	02 23       	jnz	$-506    	;abs 0xe10
    100c:	00 09       	bra	@r9		
    100e:	f4 05       	suba	r5,	r4	
    1010:	00 00       	bra	@r0		
    1012:	01 39       	jl	$+516    	;abs 0x1216
    1014:	28 00 00 00 	mova	&0x00000,r8	
    1018:	02 01       	mova	@r1,	r2	
    101a:	0c 02       	mova	#4,	r12	;r2 As==10
    101c:	23 00       	.word	0x0023;	????	Illegal as address instr
    101e:	09 d2       	bis	r2,	r9	
    1020:	05 00       	mova	@r0,	r5	
    1022:	00 01       	bra	@r1		
    1024:	3a 28       	jnc	$+118    	;abs 0x109a
    1026:	00 00       	bra	@r0		
    1028:	00 02       	bra	#4		;r2 As==10
    102a:	01 0b       	mova	@r11,	r1	
    102c:	02 23       	jnz	$-506    	;abs 0xe32
    102e:	00 09       	bra	@r9		
    1030:	ad 06 00 00 	adda	#0x60000,r13	
    1034:	01 3b       	jl	$-508    	;abs 0xe38
    1036:	28 00 00 00 	mova	&0x00000,r8	
    103a:	02 01       	mova	@r1,	r2	
    103c:	0a 02       	mova	#4,	r10	;r2 As==10
    103e:	23 00       	.word	0x0023;	????	Illegal as address instr
    1040:	09 11       	rra	r9		
    1042:	06 00       	mova	@r0,	r6	
    1044:	00 01       	bra	@r1		
    1046:	3c 28       	jnc	$+122    	;abs 0x10c0
    1048:	00 00       	bra	@r0		
    104a:	00 02       	bra	#4		;r2 As==10
    104c:	01 09       	mova	@r9,	r1	
    104e:	02 23       	jnz	$-506    	;abs 0xe54
    1050:	00 0a       	bra	@r10		
    1052:	88 06 00 00 	mova	#0x60000,r8	
    1056:	01 3d       	jmp	$+516    	;abs 0x125a
    1058:	7c 00 00 00 	mova	r0,	0(r12)	;0x0000(r12)
    105c:	02 23       	jnz	$-506    	;abs 0xe62
    105e:	01 00       	mova	@r0,	r1	
    1060:	04 a5       	dadd	r5,	r4	
    1062:	06 00       	mova	@r0,	r6	
    1064:	00 01       	bra	@r1		
    1066:	3e aa       	dadd	@r10+,	r14	
    1068:	00 00       	bra	@r0		
    106a:	00 0b       	bra	@r11		
    106c:	fb 06       	suba	r6,	r11	
    106e:	00 00       	bra	@r0		
    1070:	01 4b       	mov	r11,	r1	
    1072:	01 2f       	jc	$-508    	;abs 0xe76
    1074:	00 00       	bra	@r0		
    1076:	00 01       	bra	@r1		
    1078:	74 01 00 00 	mova	r1,	0(r4)	;0x0000(r4)
    107c:	0c 5c       	rla	r12		
    107e:	06 00       	mova	@r0,	r6	
    1080:	00 01       	bra	@r1		
    1082:	4b 76       	subc.b	r6,	r11	
    1084:	00 00       	bra	@r0		
    1086:	00 0c       	bra	@r12		
    1088:	51 06       	rlam	#2,	r1	
    108a:	00 00       	bra	@r0		
    108c:	01 4b       	mov	r11,	r1	
    108e:	38 01 00 00 	mova	0(r1),	r8	;0x0000(r1)
    1092:	0d 70       	subc	r0,	r13	
    1094:	00 01       	bra	@r1		
    1096:	4d 76       	subc.b	r6,	r13	
    1098:	00 00       	bra	@r0		
    109a:	00 00       	bra	@r0		
    109c:	0e 2d       	jc	$+542    	;abs 0x12ba
    109e:	06 00       	mova	@r0,	r6	
    10a0:	00 01       	bra	@r1		
    10a2:	63 01 2f 00 	mova	r1,	&0x3002f
    10a6:	00 00       	bra	@r0		
    10a8:	d6 3e       	jmp	$-594    	;abs 0xe56
    10aa:	da 3f       	jmp	$-74     	;abs 0x1060
    10ac:	c7 0a       	mova	r10,	r7	
    10ae:	00 00       	bra	@r0		
    10b0:	53 02       	rlam	#1,	#0	;r3 As==00
    10b2:	00 00       	bra	@r0		
    10b4:	0f c7       	bic	r7,	r15	
    10b6:	05 00       	mova	@r0,	r5	
    10b8:	00 01       	bra	@r1		
    10ba:	63 63       	.word	0x6363;	????	Illegal as 2-op instr
    10bc:	02 00       	mova	@r0,	r2	
    10be:	00 1b       	.word	0x1b00;	????	
    10c0:	0b 00       	mova	@r0,	r11	
    10c2:	00 0f       	bra	@r15		
    10c4:	ed 05       	adda	r5,	r13	
    10c6:	00 00       	bra	@r0		
    10c8:	01 63       	adc	r1		
    10ca:	83 00       	.word	0x0083;	????	Illegal as address instr
    10cc:	00 00       	bra	@r0		
    10ce:	2d 0b 00 00 	mova	&0xb0000,r13	
    10d2:	0f 97       	cmp	r7,	r15	
    10d4:	03 00       	.word	0x0003;	????	Illegal as address instr
    10d6:	00 01       	bra	@r1		
    10d8:	63 28       	jnc	$+200    	;abs 0x11a0
    10da:	00 00       	bra	@r0		
    10dc:	00 46       	br	r6		
    10de:	0b 00       	mova	@r0,	r11	
    10e0:	00 0f       	bra	@r15		
    10e2:	51 06       	rlam	#2,	r1	
    10e4:	00 00       	bra	@r0		
    10e6:	01 64       	addc	r4,	r1	
    10e8:	38 01 00 00 	mova	0(r1),	r8	;0x0000(r1)
    10ec:	66 0b 00 00 	mova	r11,	&0x60000
    10f0:	10 d1 06 00 	bis	6(r1),	r0	;0x0006(r1)
    10f4:	00 01       	bra	@r1		
    10f6:	66 2f       	jc	$-306    	;abs 0xfc4
    10f8:	00 00       	bra	@r0		
    10fa:	00 71       	subc	r1,	r0	
    10fc:	0b 00       	mova	@r0,	r11	
    10fe:	00 11       	rra	r0		
    1100:	5c 06       	rlam	#2,	r12	
    1102:	00 00       	bra	@r0		
    1104:	01 67       	addc	r7,	r1	
    1106:	69 02 00 00 	mova	r2,	&0x90000
    110a:	02 91       	cmp	r1,	r2	
    110c:	00 10       	rrc	r0		
    110e:	46 06       	rlam.a	#2,	r6	
    1110:	00 00       	bra	@r0		
    1112:	01 68       	addc	r8,	r1	
    1114:	2f 00 00 00 	mova	&0x00000,r15	
    1118:	c4 0b       	mova	r11,	r4	
    111a:	00 00       	bra	@r0		
    111c:	11 e2 05 00 	xor	&0x0005,r1	
    1120:	00 01       	bra	@r1		
    1122:	69 2f       	jc	$-300    	;abs 0xff6
    1124:	00 00       	bra	@r0		
    1126:	00 01       	bra	@r1		
    1128:	56 12 43 01 	push.b	323(r6)	;0x0143(r6)
    112c:	00 00       	bra	@r0		
    112e:	f4 3e       	jmp	$-534    	;abs 0xf18
    1130:	30 3f       	jmp	$-414    	;abs 0xf92
    1132:	01 69       	addc	r9,	r1	
    1134:	2e 02 00 00 	mova	&0x20000,r14	
    1138:	13 5f       	.word	0x5f13;	????	Illegal as 2-op instr
    113a:	01 00       	mova	@r0,	r1	
    113c:	00 14       	pushm.a	#1,	r0	
    113e:	54 01       	rram	#1,	r4	
    1140:	00 00       	bra	@r0		
    1142:	03 0c       	.word	0x0c03;	????	Illegal as address instr
    1144:	00 00       	bra	@r0		
    1146:	15 f4 3e 30 	and	12350(r4),r5	;0x303e(r4)
    114a:	3f 16       	popm.a	#4,	r2	
    114c:	6a 01 00 00 	mova	r1,	&0xa0000
    1150:	17 0c       	mova	@r12+,	r7	
    1152:	00 00       	bra	@r0		
    1154:	00 00       	bra	@r0		
    1156:	17 30       	jn	$+48     	;abs 0x1186
    1158:	00 00       	bra	@r0		
    115a:	00 10       	rrc	r0		
    115c:	ba 05 00 00 	suba	#0x50000,r10	
    1160:	01 6e       	addc	r14,	r1	
    1162:	7c 00 00 00 	mova	r0,	0(r12)	;0x0000(r12)
    1166:	52 0c       	rrcm	#4,	r2	
    1168:	00 00       	bra	@r0		
    116a:	18 6c 65 6e 	addc	28261(r12),r8	;0x6e65(r12)
    116e:	00 01       	bra	@r1		
    1170:	6f 28       	jnc	$+224    	;abs 0x1250
    1172:	00 00       	bra	@r0		
    1174:	00 6d       	addc	r13,	r0	
    1176:	0c 00       	mova	@r0,	r12	
    1178:	00 00       	bra	@r0		
    117a:	00 19       	.word	0x1900;	????	
    117c:	01 2f       	jc	$-508    	;abs 0xf80
    117e:	00 00       	bra	@r0		
    1180:	00 63       	adc	r0		
    1182:	02 00       	mova	@r0,	r2	
    1184:	00 1a       	.word	0x1a00;	????	
    1186:	2f 00 00 00 	mova	&0x00000,r15	
    118a:	00 05       	bra	@r5		
    118c:	02 53       	add	#0,	r2	;r3 As==00
    118e:	02 00       	mova	@r0,	r2	
    1190:	00 1b       	.word	0x1b00;	????	
    1192:	7c 00 00 00 	mova	r0,	0(r12)	;0x0000(r12)
    1196:	79 02 00 00 	mova	r2,	0(r9)	;0x0000(r9)
    119a:	1c 28       	jnc	$+58     	;abs 0x11d4
    119c:	00 00       	bra	@r0		
    119e:	00 01       	bra	@r1		
    11a0:	00 1d 01 92 	cmpx	r2,	r1	
    11a4:	06 00       	mova	@r0,	r6	
    11a6:	00 01       	bra	@r1		
    11a8:	c5 01       	mova	r1,	r5	
    11aa:	2f 00 00 00 	mova	&0x00000,r15	
    11ae:	e2 3f       	jmp	$-58     	;abs 0x1174
    11b0:	4c 43       	clr.b	r12		
    11b2:	7f 0c 00 00 	mova	r12,	0(r15)	;0x0000(r15)
    11b6:	a8 03 00 00 	adda	#0x30000,r8	
    11ba:	0f c7       	bic	r7,	r15	
    11bc:	05 00       	mova	@r0,	r5	
    11be:	00 01       	bra	@r1		
    11c0:	c5 63 02 00 	adc.b	2(r5)		;0x0002(r5)
    11c4:	00 d3       	bis	#0,	r0	;r3 As==00
    11c6:	0c 00       	mova	@r0,	r12	
    11c8:	00 0f       	bra	@r15		
    11ca:	f4 06       	suba	r6,	r4	
    11cc:	00 00       	bra	@r0		
    11ce:	01 c5       	bic	r5,	r1	
    11d0:	83 00       	.word	0x0083;	????	Illegal as address instr
    11d2:	00 00       	bra	@r0		
    11d4:	e6 0c       	adda	r12,	r6	
    11d6:	00 00       	bra	@r0		
    11d8:	0f 57       	add	r7,	r15	
    11da:	06 00       	mova	@r0,	r6	
    11dc:	00 01       	bra	@r1		
    11de:	c5 9f 00 00 	cmp.b	r15,	0(r5)	;0x0000(r5)
    11e2:	00 00       	bra	@r0		
    11e4:	0d 00       	mova	@r0,	r13	
    11e6:	00 10       	rrc	r0		
    11e8:	d1 06       	cmpa	r6,	r1	
    11ea:	00 00       	bra	@r0		
    11ec:	01 c7       	bic	r7,	r1	
    11ee:	2f 00 00 00 	mova	&0x00000,r15	
    11f2:	7b 0d 00 00 	mova	r13,	0(r11)	;0x0000(r11)
    11f6:	1e 02       	mova	#8,	r14	;r2 As==11
    11f8:	01 c9       	bic	r9,	r1	
    11fa:	e3 02       	.word	0x02e3;	????	Illegal as address instr
    11fc:	00 00       	bra	@r0		
    11fe:	1f e1 06 00 	xor	6(r1),	r15	;0x0006(r1)
    1202:	00 00       	bra	@r0		
    1204:	1f 23       	jnz	$-448    	;abs 0x1044
    1206:	06 00       	mova	@r0,	r6	
    1208:	00 01       	bra	@r1		
    120a:	00 10       	rrc	r0		
    120c:	b5 05 00 00 	suba	#0x50000,r5	
    1210:	01 c9       	bic	r9,	r1	
    1212:	ce 02       	mova	r2,	r14	
    1214:	00 00       	bra	@r0		
    1216:	97 0d 00 00 	cmpa	#0xd0000,r7	
    121a:	10 97 03 00 	cmp	3(r7),	r0	;0x0003(r7)
    121e:	00 01       	bra	@r1		
    1220:	ca 28       	jnc	$+406    	;abs 0x13b6
    1222:	00 00       	bra	@r0		
    1224:	00 f4       	and	r4,	r0	
    1226:	0d 00       	mova	@r0,	r13	
    1228:	00 11       	rra	r0		
    122a:	51 06       	rlam	#2,	r1	
    122c:	00 00       	bra	@r0		
    122e:	01 cb       	bic	r11,	r1	
    1230:	38 01 00 00 	mova	0(r1),	r8	;0x0000(r1)
    1234:	02 91       	cmp	r1,	r2	
    1236:	00 10       	rrc	r0		
    1238:	ed 05       	adda	r5,	r13	
    123a:	00 00       	bra	@r0		
    123c:	01 cc       	bic	r12,	r1	
    123e:	76 00 00 00 	mova	r0,	0(r6)	;0x0000(r6)
    1242:	48 0e       	rlam.a	#4,	r8	
    1244:	00 00       	bra	@r0		
    1246:	10 7e 06 00 	subc	6(r14),	r0	;0x0006(r14)
    124a:	00 01       	bra	@r1		
    124c:	cd 7c 00 00 	subc.b	r12,	0(r13)	;0x0000(r13)
    1250:	00 85       	sub	r5,	r0	
    1252:	0e 00       	mova	@r0,	r14	
    1254:	00 10       	rrc	r0		
    1256:	6a 06 00 00 	mova	r6,	&0xa0000
    125a:	01 ce       	bic	r14,	r1	
    125c:	2f 00 00 00 	mova	&0x00000,r15	
    1260:	d4 0e       	cmpa	r14,	r4	
    1262:	00 00       	bra	@r0		
    1264:	10 3f       	jmp	$-478    	;abs 0x1086
    1266:	06 00       	mova	@r0,	r6	
    1268:	00 01       	bra	@r1		
    126a:	cf 21       	jnz	$+928    	;abs 0x160a
    126c:	00 00       	bra	@r0		
    126e:	00 e7       	xor	r7,	r0	
    1270:	0e 00       	mova	@r0,	r14	
    1272:	00 11       	rra	r0		
    1274:	63 06 00 00 	mova	r6,	&0x30000
    1278:	01 d0       	bis	r0,	r1	
    127a:	a8 03 00 00 	adda	#0x30000,r8	
    127e:	02 91       	cmp	r1,	r2	
    1280:	02 20       	jnz	$+6      	;abs 0x1286
    1282:	78 06 00 00 	mova	r6,	0(r8)	;0x0000(r8)
    1286:	01 a0       	dadd	r0,	r1	
    1288:	01 0e       	mova	@r14,	r1	
    128a:	43 20       	jnz	$+136    	;abs 0x1312
    128c:	e8 06       	adda	r6,	r8	
    128e:	00 00       	bra	@r0		
    1290:	01 71       	subc	r1,	r1	
    1292:	01 3a       	jl	$-1020   	;abs 0xe96
    1294:	42 20       	jnz	$+134    	;abs 0x131a
    1296:	39 06 00 00 	mova	0(r6),	r9	;0x0000(r6)
    129a:	01 5f       	add	r15,	r1	
    129c:	01 f6       	and	r6,	r1	
    129e:	41 21       	jnz	$+644    	;abs 0x1522
    12a0:	04 41       	mov	r1,	r4	
    12a2:	30 41       	ret			
    12a4:	91 03 00 00 	cmpa	#0x30000,r1	
    12a8:	22 76       	subc	@r6,	r2	
    12aa:	61 6c       	addc.b	@r12,	r1	
    12ac:	00 01       	bra	@r1		
    12ae:	0d 01       	mova	@r1,	r13	
    12b0:	2f 00 00 00 	mova	&0x00000,r15	
    12b4:	44 0f       	rrum.a	#4,	r4	
    12b6:	00 00       	bra	@r0		
    12b8:	00 15       	pushm	#1,	r0	
    12ba:	74 42       	mov.b	#8,	r4	;r2 As==11
    12bc:	e4 42 23 cb 	mov.b	#4,	-13533(r4);r2 As==10, 0xcb23(r4)
    12c0:	06 00       	mova	@r0,	r6	
    12c2:	00 01       	bra	@r1		
    12c4:	83 01       	.word	0x0183;	????	Illegal as address instr
    12c6:	2f 00 00 00 	mova	&0x00000,r15	
    12ca:	51 0f       	rrum	#4,	r1	
    12cc:	00 00       	bra	@r0		
    12ce:	00 00       	bra	@r0		
    12d0:	24 7c       	subc	@r12,	r4	
    12d2:	00 00       	bra	@r0		
    12d4:	00 1c       	.word	0x1c00;	????	
    12d6:	28 00 00 00 	mova	&0x00000,r8	
    12da:	0b 00       	mova	@r0,	r11	
	...

Disassembly of section .debug_abbrev:

00000000 <.debug_abbrev>:
   0:	01 11       	rra	r1		
   2:	01 25       	jz	$+516    	;abs 0x206
   4:	0e 13       	reti			;return from interupt
   6:	0b 03       	mova	#2,	r11	;r3 As==10
   8:	0e 1b 0e 11 	.rpt	#14
				rrax	r14		
   c:	01 52       	add	r2,	r1	
   e:	01 55       	add	r5,	r1	
  10:	06 10       	rrc	r6		
  12:	06 00       	mova	@r0,	r6	
  14:	00 02       	bra	#4		;r2 As==10
  16:	24 00 0b 0b 	mova	&0x00b0b,r4	
  1a:	3e 0b 03 0e 	mova	3587(r11),r14	;0x0e03(r11)
  1e:	00 00       	bra	@r0		
  20:	03 24       	jz	$+8      	;abs 0x28
  22:	00 0b       	bra	@r11		
  24:	0b 3e       	jmp	$-1000   	;abs 0xfc3c
  26:	0b 03       	mova	#2,	r11	;r3 As==10
  28:	08 00       	mova	@r0,	r8	
  2a:	00 04       	bra	@r4		
  2c:	2e 01 3f 0c 	mova	&0x10c3f,r14	
  30:	03 0e       	.word	0x0e03;	????	Illegal as address instr
  32:	3a 0b 3b 0b 	mova	2875(r11),r10	;0x0b3b(r11)
  36:	27 0c 49 13 	mova	&0xc1349,r7	
  3a:	11 01       	mova	@r1+,	r1	
  3c:	12 01       	mova	@r1+,	r2	
  3e:	40 06       	rlam.a	#2,	r0	
  40:	01 13       	reti			;return from interupt
  42:	00 00       	bra	@r0		
  44:	05 34       	jge	$+12     	;abs 0x50
  46:	00 03       	bra	#2		;r3 As==10
  48:	0e 3a       	jl	$-994    	;abs 0xfc66
  4a:	0b 3b       	jl	$-488    	;abs 0xfe62
  4c:	0b 49       	mov	r9,	r11	
  4e:	13 1c       	.word	0x1c13;	????	
  50:	0b 00       	mova	@r0,	r11	
  52:	00 06       	bra	@r6		
  54:	34 00 03 0e 	mova	0x0e03,	r4	;PC rel. 0x00e59
  58:	3a 0b 3b 0b 	mova	2875(r11),r10	;0x0b3b(r11)
  5c:	49 13       	calla	r9		
  5e:	02 06       	mova	@r6,	r2	
  60:	00 00       	bra	@r0		
  62:	07 34       	jge	$+16     	;abs 0x72
  64:	00 03       	bra	#2		;r3 As==10
  66:	0e 3a       	jl	$-994    	;abs 0xfc84
  68:	0b 3b       	jl	$-488    	;abs 0xfe80
  6a:	0b 49       	mov	r9,	r11	
  6c:	13 3f       	jmp	$-472    	;abs 0xfe94
  6e:	0c 3c       	jmp	$+26     	;abs 0x88
  70:	0c 00       	mova	@r0,	r12	
  72:	00 08       	bra	@r8		
  74:	34 00 03 0e 	mova	0x0e03,	r4	;PC rel. 0x00e79
  78:	3a 0b 3b 05 	mova	1339(r11),r10	;0x053b(r11)
  7c:	87 40 0e 49 	mov	r0,	18702(r7);0x490e(r7)
  80:	13 3f       	jmp	$-472    	;abs 0xfea8
  82:	0c 3c       	jmp	$+26     	;abs 0x9c
  84:	0c 00       	mova	@r0,	r12	
  86:	00 09       	bra	@r9		
  88:	35 00 49 13 	mova	0x1349,	r5	;PC rel. 0x013d3
  8c:	00 00       	bra	@r0		
  8e:	00 01       	bra	@r1		
  90:	11 01       	mova	@r1+,	r1	
  92:	25 0e 13 0b 	mova	&0xe0b13,r5	
  96:	03 0e       	.word	0x0e03;	????	Illegal as address instr
  98:	1b 0e       	mova	@r14+,	r11	
  9a:	11 01       	mova	@r1+,	r1	
  9c:	12 01       	mova	@r1+,	r2	
  9e:	10 06       	bra	@r6+		
  a0:	00 00       	bra	@r0		
  a2:	02 2e       	jc	$-1018   	;abs 0xfca8
  a4:	01 3f       	jmp	$-508    	;abs 0xfea8
  a6:	0c 03       	mova	#2,	r12	;r3 As==10
  a8:	0e 3a       	jl	$-994    	;abs 0xfcc6
  aa:	0b 3b       	jl	$-488    	;abs 0xfec2
  ac:	0b 27       	jz	$-488    	;abs 0xfec4
  ae:	0c 11       	rra	r12		
  b0:	01 12       	push	r1		
  b2:	01 40       	mov	r0,	r1	
  b4:	0a 01       	mova	@r1,	r10	
  b6:	13 00       	.word	0x0013;	????	Illegal as address instr
  b8:	00 03       	bra	#2		;r3 As==10
  ba:	34 00 03 0e 	mova	0x0e03,	r4	;PC rel. 0x00ebf
  be:	3a 0b 3b 0b 	mova	2875(r11),r10	;0x0b3b(r11)
  c2:	49 13       	calla	r9		
  c4:	1c 0b       	mova	@r11+,	r12	
  c6:	00 00       	bra	@r0		
  c8:	04 24       	jz	$+10     	;abs 0xd2
  ca:	00 0b       	bra	@r11		
  cc:	0b 3e       	jmp	$-1000   	;abs 0xfce4
  ce:	0b 03       	mova	#2,	r11	;r3 As==10
  d0:	0e 00       	mova	@r0,	r14	
  d2:	00 05       	bra	@r5		
  d4:	05 00       	mova	@r0,	r5	
  d6:	03 0e       	.word	0x0e03;	????	Illegal as address instr
  d8:	3a 0b 3b 0b 	mova	2875(r11),r10	;0x0b3b(r11)
  dc:	49 13       	calla	r9		
  de:	02 0a       	mova	@r10,	r2	
  e0:	00 00       	bra	@r0		
  e2:	06 34       	jge	$+14     	;abs 0xf0
  e4:	00 03       	bra	#2		;r3 As==10
  e6:	08 3a       	jl	$-1006   	;abs 0xfcf8
  e8:	0b 3b       	jl	$-488    	;abs 0xff00
  ea:	0b 49       	mov	r9,	r11	
  ec:	13 02       	.word	0x0213;	????	Illegal as address instr
  ee:	06 00       	mova	@r0,	r6	
  f0:	00 07       	bra	@r7		
  f2:	24 00 0b 0b 	mova	&0x00b0b,r4	
  f6:	3e 0b 03 08 	mova	2051(r11),r14	;0x0803(r11)
  fa:	00 00       	bra	@r0		
  fc:	08 2e       	jc	$-1006   	;abs 0xfd0e
  fe:	01 3f       	jmp	$-508    	;abs 0xff02
 100:	0c 03       	mova	#2,	r12	;r3 As==10
 102:	0e 3a       	jl	$-994    	;abs 0xfd20
 104:	0b 3b       	jl	$-488    	;abs 0xff1c
 106:	0b 27       	jz	$-488    	;abs 0xff1e
 108:	0c 11       	rra	r12		
 10a:	01 12       	push	r1		
 10c:	01 40       	mov	r0,	r1	
 10e:	06 00       	mova	@r0,	r6	
 110:	00 09       	bra	@r9		
 112:	05 00       	mova	@r0,	r5	
 114:	03 0e       	.word	0x0e03;	????	Illegal as address instr
 116:	3a 0b 3b 0b 	mova	2875(r11),r10	;0x0b3b(r11)
 11a:	49 13       	calla	r9		
 11c:	02 06       	mova	@r6,	r2	
 11e:	00 00       	bra	@r0		
 120:	00 01       	bra	@r1		
 122:	11 01       	mova	@r1+,	r1	
 124:	25 0e 13 0b 	mova	&0xe0b13,r5	
 128:	03 0e       	.word	0x0e03;	????	Illegal as address instr
 12a:	1b 0e       	mova	@r14+,	r11	
 12c:	11 01       	mova	@r1+,	r1	
 12e:	12 01       	mova	@r1+,	r2	
 130:	10 06       	bra	@r6+		
 132:	00 00       	bra	@r0		
 134:	02 04       	mova	@r4,	r2	
 136:	01 0b       	mova	@r11,	r1	
 138:	0b 3a       	jl	$-1000   	;abs 0xfd50
 13a:	0b 3b       	jl	$-488    	;abs 0xff52
 13c:	0b 01       	mova	@r1,	r11	
 13e:	13 00       	.word	0x0013;	????	Illegal as address instr
 140:	00 03       	bra	#2		;r3 As==10
 142:	28 00 03 0e 	mova	&0x00e03,r8	
 146:	1c 0d       	mova	@r13+,	r12	
 148:	00 00       	bra	@r0		
 14a:	04 16       	popm.a	#1,	r4	
 14c:	00 03       	bra	#2		;r3 As==10
 14e:	0e 3a       	jl	$-994    	;abs 0xfd6c
 150:	0b 3b       	jl	$-488    	;abs 0xff68
 152:	0b 49       	mov	r9,	r11	
 154:	13 00       	.word	0x0013;	????	Illegal as address instr
 156:	00 05       	bra	@r5		
 158:	2e 00 3f 0c 	mova	&0x00c3f,r14	
 15c:	03 0e       	.word	0x0e03;	????	Illegal as address instr
 15e:	3a 0b 3b 0b 	mova	2875(r11),r10	;0x0b3b(r11)
 162:	27 0c 49 13 	mova	&0xc1349,r7	
 166:	11 01       	mova	@r1+,	r1	
 168:	12 01       	mova	@r1+,	r2	
 16a:	40 0a       	rlam.a	#3,	r0	
 16c:	00 00       	bra	@r0		
 16e:	06 2e       	jc	$-1010   	;abs 0xfd7c
 170:	01 3f       	jmp	$-508    	;abs 0xff74
 172:	0c 03       	mova	#2,	r12	;r3 As==10
 174:	0e 3a       	jl	$-994    	;abs 0xfd92
 176:	0b 3b       	jl	$-488    	;abs 0xff8e
 178:	0b 27       	jz	$-488    	;abs 0xff90
 17a:	0c 49       	mov	r9,	r12	
 17c:	13 11       	rra	#1		;r3 As==01
 17e:	01 12       	push	r1		
 180:	01 40       	mov	r0,	r1	
 182:	0a 01       	mova	@r1,	r10	
 184:	13 00       	.word	0x0013;	????	Illegal as address instr
 186:	00 07       	bra	@r7		
 188:	05 00       	mova	@r0,	r5	
 18a:	03 0e       	.word	0x0e03;	????	Illegal as address instr
 18c:	3a 0b 3b 0b 	mova	2875(r11),r10	;0x0b3b(r11)
 190:	49 13       	calla	r9		
 192:	02 06       	mova	@r6,	r2	
 194:	00 00       	bra	@r0		
 196:	08 24       	jz	$+18     	;abs 0x1a8
 198:	00 0b       	bra	@r11		
 19a:	0b 3e       	jmp	$-1000   	;abs 0xfdb2
 19c:	0b 03       	mova	#2,	r11	;r3 As==10
 19e:	0e 00       	mova	@r0,	r14	
 1a0:	00 09       	bra	@r9		
 1a2:	05 00       	mova	@r0,	r5	
 1a4:	03 0e       	.word	0x0e03;	????	Illegal as address instr
 1a6:	3a 0b 3b 0b 	mova	2875(r11),r10	;0x0b3b(r11)
 1aa:	49 13       	calla	r9		
 1ac:	02 0a       	mova	@r10,	r2	
 1ae:	00 00       	bra	@r0		
 1b0:	0a 0f       	mova	@r15,	r10	
 1b2:	00 0b       	bra	@r11		
 1b4:	0b 49       	mov	r9,	r11	
 1b6:	13 00       	.word	0x0013;	????	Illegal as address instr
 1b8:	00 0b       	bra	@r11		
 1ba:	2e 01 3f 0c 	mova	&0x10c3f,r14	
 1be:	03 0e       	.word	0x0e03;	????	Illegal as address instr
 1c0:	3a 0b 3b 0b 	mova	2875(r11),r10	;0x0b3b(r11)
 1c4:	27 0c 49 13 	mova	&0xc1349,r7	
 1c8:	11 01       	mova	@r1+,	r1	
 1ca:	12 01       	mova	@r1+,	r2	
 1cc:	40 06       	rlam.a	#2,	r0	
 1ce:	01 13       	reti			;return from interupt
 1d0:	00 00       	bra	@r0		
 1d2:	0c 34       	jge	$+26     	;abs 0x1ec
 1d4:	00 03       	bra	#2		;r3 As==10
 1d6:	0e 3a       	jl	$-994    	;abs 0xfdf4
 1d8:	0b 3b       	jl	$-488    	;abs 0xfff0
 1da:	0b 49       	mov	r9,	r11	
 1dc:	13 02       	.word	0x0213;	????	Illegal as address instr
 1de:	06 00       	mova	@r0,	r6	
 1e0:	00 0d       	bra	@r13		
 1e2:	34 00 03 0e 	mova	0x0e03,	r4	;PC rel. 0x00fe7
 1e6:	3a 0b 3b 0b 	mova	2875(r11),r10	;0x0b3b(r11)
 1ea:	87 40 0e 49 	mov	r0,	18702(r7);0x490e(r7)
 1ee:	13 3f       	jmp	$-472    	;abs 0x16
 1f0:	0c 3c       	jmp	$+26     	;abs 0x20a
 1f2:	0c 00       	mova	@r0,	r12	
 1f4:	00 0e       	bra	@r14		
 1f6:	35 00 49 13 	mova	0x1349,	r5	;PC rel. 0x01541
 1fa:	00 00       	bra	@r0		
 1fc:	0f 34       	jge	$+32     	;abs 0x21c
 1fe:	00 03       	bra	#2		;r3 As==10
 200:	0e 3a       	jl	$-994    	;abs 0xfe1e
 202:	0b 3b       	jl	$-488    	;abs 0x1a
 204:	05 87       	sub	r7,	r5	
 206:	40 0e       	rlam.a	#4,	r0	
 208:	49 13       	calla	r9		
 20a:	3f 0c 3c 0c 	mova	3132(r12),r15	;0x0c3c(r12)
 20e:	00 00       	bra	@r0		
 210:	10 26       	jz	$-990    	;abs 0xfe32
 212:	00 49       	br	r9		
 214:	13 00       	.word	0x0013;	????	Illegal as address instr
 216:	00 00       	bra	@r0		
 218:	01 11       	rra	r1		
 21a:	01 25       	jz	$+516    	;abs 0x41e
 21c:	0e 13       	reti			;return from interupt
 21e:	0b 03       	mova	#2,	r11	;r3 As==10
 220:	0e 1b 0e 11 	.rpt	#14
				rrax	r14		
 224:	01 12       	push	r1		
 226:	01 10       	rrc	r1		
 228:	06 00       	mova	@r0,	r6	
 22a:	00 02       	bra	#4		;r2 As==10
 22c:	24 00 0b 0b 	mova	&0x00b0b,r4	
 230:	3e 0b 03 0e 	mova	3587(r11),r14	;0x0e03(r11)
 234:	00 00       	bra	@r0		
 236:	03 24       	jz	$+8      	;abs 0x23e
 238:	00 0b       	bra	@r11		
 23a:	0b 3e       	jmp	$-1000   	;abs 0xfe52
 23c:	0b 03       	mova	#2,	r11	;r3 As==10
 23e:	08 00       	mova	@r0,	r8	
 240:	00 04       	bra	@r4		
 242:	2e 00 3f 0c 	mova	&0x00c3f,r14	
 246:	03 0e       	.word	0x0e03;	????	Illegal as address instr
 248:	3a 0b 3b 05 	mova	1339(r11),r10	;0x053b(r11)
 24c:	27 0c 20 0b 	mova	&0xc0b20,r7	
 250:	00 00       	bra	@r0		
 252:	05 2e       	jc	$-1012   	;abs 0xfe5e
 254:	01 3f       	jmp	$-508    	;abs 0x58
 256:	0c 03       	mova	#2,	r12	;r3 As==10
 258:	0e 3a       	jl	$-994    	;abs 0xfe76
 25a:	0b 3b       	jl	$-488    	;abs 0x72
 25c:	05 27       	jz	$-500    	;abs 0x68
 25e:	0c 20       	jnz	$+26     	;abs 0x278
 260:	0b 01       	mova	@r1,	r11	
 262:	13 00       	.word	0x0013;	????	Illegal as address instr
 264:	00 06       	bra	@r6		
 266:	05 00       	mova	@r0,	r5	
 268:	03 08       	.word	0x0803;	????	Illegal as address instr
 26a:	3a 0b 3b 05 	mova	1339(r11),r10	;0x053b(r11)
 26e:	49 13       	calla	r9		
 270:	00 00       	bra	@r0		
 272:	07 2e       	jc	$-1008   	;abs 0xfe82
 274:	01 3f       	jmp	$-508    	;abs 0x78
 276:	0c 03       	mova	#2,	r12	;r3 As==10
 278:	0e 3a       	jl	$-994    	;abs 0xfe96
 27a:	0b 3b       	jl	$-488    	;abs 0x92
 27c:	0b 27       	jz	$-488    	;abs 0x94
 27e:	0c 11       	rra	r12		
 280:	01 12       	push	r1		
 282:	01 40       	mov	r0,	r1	
 284:	0a 01       	mova	@r1,	r10	
 286:	13 00       	.word	0x0013;	????	Illegal as address instr
 288:	00 08       	bra	@r8		
 28a:	05 00       	mova	@r0,	r5	
 28c:	03 0e       	.word	0x0e03;	????	Illegal as address instr
 28e:	3a 0b 3b 0b 	mova	2875(r11),r10	;0x0b3b(r11)
 292:	49 13       	calla	r9		
 294:	02 0a       	mova	@r10,	r2	
 296:	00 00       	bra	@r0		
 298:	09 2e       	jc	$-1004   	;abs 0xfeac
 29a:	01 3f       	jmp	$-508    	;abs 0x9e
 29c:	0c 03       	mova	#2,	r12	;r3 As==10
 29e:	0e 3a       	jl	$-994    	;abs 0xfebc
 2a0:	0b 3b       	jl	$-488    	;abs 0xb8
 2a2:	0b 27       	jz	$-488    	;abs 0xba
 2a4:	0c 11       	rra	r12		
 2a6:	01 12       	push	r1		
 2a8:	01 40       	mov	r0,	r1	
 2aa:	06 01       	mova	@r1,	r6	
 2ac:	13 00       	.word	0x0013;	????	Illegal as address instr
 2ae:	00 0a       	bra	@r10		
 2b0:	05 00       	mova	@r0,	r5	
 2b2:	03 08       	.word	0x0803;	????	Illegal as address instr
 2b4:	3a 0b 3b 0b 	mova	2875(r11),r10	;0x0b3b(r11)
 2b8:	49 13       	calla	r9		
 2ba:	02 0a       	mova	@r10,	r2	
 2bc:	00 00       	bra	@r0		
 2be:	0b 34       	jge	$+24     	;abs 0x2d6
 2c0:	00 03       	bra	#2		;r3 As==10
 2c2:	0e 3a       	jl	$-994    	;abs 0xfee0
 2c4:	0b 3b       	jl	$-488    	;abs 0xdc
 2c6:	0b 49       	mov	r9,	r11	
 2c8:	13 02       	.word	0x0213;	????	Illegal as address instr
 2ca:	06 00       	mova	@r0,	r6	
 2cc:	00 0c       	bra	@r12		
 2ce:	34 00 03 08 	mova	0x0803,	r4	;PC rel. 0x00ad3
 2d2:	3a 0b 3b 0b 	mova	2875(r11),r10	;0x0b3b(r11)
 2d6:	49 13       	calla	r9		
 2d8:	02 06       	mova	@r6,	r2	
 2da:	00 00       	bra	@r0		
 2dc:	0d 2e       	jc	$-996    	;abs 0xfef8
 2de:	01 3f       	jmp	$-508    	;abs 0xe2
 2e0:	0c 03       	mova	#2,	r12	;r3 As==10
 2e2:	0e 3a       	jl	$-994    	;abs 0xff00
 2e4:	0b 3b       	jl	$-488    	;abs 0xfc
 2e6:	05 27       	jz	$-500    	;abs 0xf2
 2e8:	0c 11       	rra	r12		
 2ea:	01 12       	push	r1		
 2ec:	01 40       	mov	r0,	r1	
 2ee:	06 01       	mova	@r1,	r6	
 2f0:	13 00       	.word	0x0013;	????	Illegal as address instr
 2f2:	00 0e       	bra	@r14		
 2f4:	05 00       	mova	@r0,	r5	
 2f6:	03 0e       	.word	0x0e03;	????	Illegal as address instr
 2f8:	3a 0b 3b 05 	mova	1339(r11),r10	;0x053b(r11)
 2fc:	49 13       	calla	r9		
 2fe:	02 06       	mova	@r6,	r2	
 300:	00 00       	bra	@r0		
 302:	0f 05       	mova	@r5,	r15	
 304:	00 03       	bra	#2		;r3 As==10
 306:	08 3a       	jl	$-1006   	;abs 0xff18
 308:	0b 3b       	jl	$-488    	;abs 0x120
 30a:	05 49       	mov	r9,	r5	
 30c:	13 02       	.word	0x0213;	????	Illegal as address instr
 30e:	06 00       	mova	@r0,	r6	
 310:	00 10       	rrc	r0		
 312:	05 00       	mova	@r0,	r5	
 314:	03 0e       	.word	0x0e03;	????	Illegal as address instr
 316:	3a 0b 3b 05 	mova	1339(r11),r10	;0x053b(r11)
 31a:	49 13       	calla	r9		
 31c:	02 0a       	mova	@r10,	r2	
 31e:	00 00       	bra	@r0		
 320:	11 34       	jge	$+36     	;abs 0x344
 322:	00 03       	bra	#2		;r3 As==10
 324:	0e 3a       	jl	$-994    	;abs 0xff42
 326:	0b 3b       	jl	$-488    	;abs 0x13e
 328:	05 49       	mov	r9,	r5	
 32a:	13 02       	.word	0x0213;	????	Illegal as address instr
 32c:	06 00       	mova	@r0,	r6	
 32e:	00 12       	push	r0		
 330:	34 00 03 08 	mova	0x0803,	r4	;PC rel. 0x00b35
 334:	3a 0b 3b 05 	mova	1339(r11),r10	;0x053b(r11)
 338:	49 13       	calla	r9		
 33a:	02 06       	mova	@r6,	r2	
 33c:	00 00       	bra	@r0		
 33e:	13 05       	.word	0x0513;	????	Illegal as address instr
 340:	00 03       	bra	#2		;r3 As==10
 342:	0e 3a       	jl	$-994    	;abs 0xff60
 344:	0b 3b       	jl	$-488    	;abs 0x15c
 346:	0b 49       	mov	r9,	r11	
 348:	13 02       	.word	0x0213;	????	Illegal as address instr
 34a:	06 00       	mova	@r0,	r6	
 34c:	00 14       	pushm.a	#1,	r0	
 34e:	0b 01       	mova	@r1,	r11	
 350:	11 01       	mova	@r1+,	r1	
 352:	12 01       	mova	@r1+,	r2	
 354:	01 13       	reti			;return from interupt
 356:	00 00       	bra	@r0		
 358:	15 0b       	mova	@r11+,	r5	
 35a:	01 11       	rra	r1		
 35c:	01 12       	push	r1		
 35e:	01 00       	mova	@r0,	r1	
 360:	00 16       	popm.a	#1,	r0	
 362:	05 00       	mova	@r0,	r5	
 364:	03 08       	.word	0x0803;	????	Illegal as address instr
 366:	3a 0b 3b 05 	mova	1339(r11),r10	;0x053b(r11)
 36a:	49 13       	calla	r9		
 36c:	02 0a       	mova	@r10,	r2	
 36e:	00 00       	bra	@r0		
 370:	17 0f       	mova	@r15+,	r7	
 372:	00 0b       	bra	@r11		
 374:	0b 49       	mov	r9,	r11	
 376:	13 00       	.word	0x0013;	????	Illegal as address instr
 378:	00 18       	.word	0x1800;	????	
 37a:	2e 00 31 13 	mova	&0x01331,r14	
 37e:	11 01       	mova	@r1+,	r1	
 380:	12 01       	mova	@r1+,	r2	
 382:	40 0a       	rlam.a	#3,	r0	
 384:	00 00       	bra	@r0		
 386:	19 2e       	jc	$-972    	;abs 0xffba
 388:	01 31       	jn	$+516    	;abs 0x58c
 38a:	13 11       	rra	#1		;r3 As==01
 38c:	01 12       	push	r1		
 38e:	01 40       	mov	r0,	r1	
 390:	0a 01       	mova	@r1,	r10	
 392:	13 00       	.word	0x0013;	????	Illegal as address instr
 394:	00 1a       	.word	0x1a00;	????	
 396:	05 00       	mova	@r0,	r5	
 398:	31 13       	reti			;return from interupt
 39a:	02 06       	mova	@r6,	r2	
 39c:	00 00       	bra	@r0		
 39e:	1b 34       	jge	$+56     	;abs 0x3d6
 3a0:	00 03       	bra	#2		;r3 As==10
 3a2:	08 3a       	jl	$-1006   	;abs 0xffb4
 3a4:	0b 3b       	jl	$-488    	;abs 0x1bc
 3a6:	05 49       	mov	r9,	r5	
 3a8:	13 00       	.word	0x0013;	????	Illegal as address instr
 3aa:	00 1c       	.word	0x1c00;	????	
 3ac:	2e 01 3f 0c 	mova	&0x10c3f,r14	
 3b0:	03 0e       	.word	0x0e03;	????	Illegal as address instr
 3b2:	3a 0b 3b 05 	mova	1339(r11),r10	;0x053b(r11)
 3b6:	27 0c 11 01 	mova	&0xc0111,r7	
 3ba:	12 01       	mova	@r1+,	r2	
 3bc:	40 0a       	rlam.a	#3,	r0	
 3be:	01 13       	reti			;return from interupt
 3c0:	00 00       	bra	@r0		
 3c2:	1d 1d       	.word	0x1d1d;	????	
 3c4:	00 31       	jn	$+514    	;abs 0x5c6
 3c6:	13 52       	.word	0x5213;	????	Illegal as 2-op instr
 3c8:	01 55       	add	r5,	r1	
 3ca:	06 58       	add	r8,	r6	
 3cc:	0b 59       	add	r9,	r11	
 3ce:	05 00       	mova	@r0,	r5	
 3d0:	00 1e       	.word	0x1e00;	????	
 3d2:	1d 00       	mova	#0x00000,r13	
 3d4:	31 13       	reti			;return from interupt
 3d6:	11 01       	mova	@r1+,	r1	
 3d8:	12 01       	mova	@r1+,	r2	
 3da:	58 0b       	rrum	#3,	r8	
 3dc:	59 05       	rram	#2,	r9	
 3de:	00 00       	bra	@r0		
 3e0:	1f 2e       	jc	$-960    	;abs 0x20
 3e2:	01 3f       	jmp	$-508    	;abs 0x1e6
 3e4:	0c 03       	mova	#2,	r12	;r3 As==10
 3e6:	0e 3a       	jl	$-994    	;abs 0x4
 3e8:	0b 3b       	jl	$-488    	;abs 0x200
 3ea:	0b 27       	jz	$-488    	;abs 0x202
 3ec:	0c 49       	mov	r9,	r12	
 3ee:	13 11       	rra	#1		;r3 As==01
 3f0:	01 12       	push	r1		
 3f2:	01 40       	mov	r0,	r1	
 3f4:	0a 01       	mova	@r1,	r10	
 3f6:	13 00       	.word	0x0013;	????	Illegal as address instr
 3f8:	00 20       	jnz	$+2      	;abs 0x3fa
 3fa:	05 00       	mova	@r0,	r5	
 3fc:	03 08       	.word	0x0803;	????	Illegal as address instr
 3fe:	3a 0b 3b 0b 	mova	2875(r11),r10	;0x0b3b(r11)
 402:	49 13       	calla	r9		
 404:	02 06       	mova	@r6,	r2	
 406:	00 00       	bra	@r0		
 408:	21 0b 01 55 	mova	&0xb5501,r1	
 40c:	06 00       	mova	@r0,	r6	
 40e:	00 22       	jnz	$-1022   	;abs 0x10
 410:	34 00 03 0e 	mova	0x0e03,	r4	;PC rel. 0x01215
 414:	3a 0b 3b 05 	mova	1339(r11),r10	;0x053b(r11)
 418:	49 13       	calla	r9		
 41a:	00 00       	bra	@r0		
 41c:	23 1d       	.word	0x1d23;	????	
 41e:	01 31       	jn	$+516    	;abs 0x622
 420:	13 52       	.word	0x5213;	????	Illegal as 2-op instr
 422:	01 55       	add	r5,	r1	
 424:	06 58       	add	r8,	r6	
 426:	0b 59       	add	r9,	r11	
 428:	05 00       	mova	@r0,	r5	
 42a:	00 24       	jz	$+2      	;abs 0x42c
 42c:	34 00 03 0e 	mova	0x0e03,	r4	;PC rel. 0x01231
 430:	3a 0b 3b 05 	mova	1339(r11),r10	;0x053b(r11)
 434:	87 40 0e 49 	mov	r0,	18702(r7);0x490e(r7)
 438:	13 3f       	jmp	$-472    	;abs 0x260
 43a:	0c 3c       	jmp	$+26     	;abs 0x454
 43c:	0c 00       	mova	@r0,	r12	
 43e:	00 25       	jz	$+514    	;abs 0x640
 440:	35 00 49 13 	mova	0x1349,	r5	;PC rel. 0x0178b
 444:	00 00       	bra	@r0		
 446:	26 34       	jge	$+78     	;abs 0x494
 448:	00 03       	bra	#2		;r3 As==10
 44a:	0e 3a       	jl	$-994    	;abs 0x68
 44c:	0b 3b       	jl	$-488    	;abs 0x264
 44e:	0b 49       	mov	r9,	r11	
 450:	13 3f       	jmp	$-472    	;abs 0x278
 452:	0c 3c       	jmp	$+26     	;abs 0x46c
 454:	0c 00       	mova	@r0,	r12	
 456:	00 27       	jz	$-510    	;abs 0x258
 458:	01 01       	mova	@r1,	r1	
 45a:	49 13       	calla	r9		
 45c:	01 13       	reti			;return from interupt
 45e:	00 00       	bra	@r0		
 460:	28 21       	jnz	$+594    	;abs 0x6b2
 462:	00 49       	br	r9		
 464:	13 2f       	jc	$-472    	;abs 0x28c
 466:	05 00       	mova	@r0,	r5	
 468:	00 29       	jnc	$+514    	;abs 0x66a
 46a:	26 00 49 13 	mova	&0x01349,r6	
 46e:	00 00       	bra	@r0		
 470:	2a 34       	jge	$+86     	;abs 0x4c6
 472:	00 03       	bra	#2		;r3 As==10
 474:	0e 3a       	jl	$-994    	;abs 0x92
 476:	0b 3b       	jl	$-488    	;abs 0x28e
 478:	0b 49       	mov	r9,	r11	
 47a:	13 3f       	jmp	$-472    	;abs 0x2a2
 47c:	0c 02       	mova	#4,	r12	;r2 As==10
 47e:	0a 00       	mova	@r0,	r10	
 480:	00 00       	bra	@r0		
 482:	00 00       	bra	@r0		
 484:	00 01       	bra	@r1		
 486:	11 01       	mova	@r1+,	r1	
 488:	25 0e 13 0b 	mova	&0xe0b13,r5	
 48c:	03 0e       	.word	0x0e03;	????	Illegal as address instr
 48e:	1b 0e       	mova	@r14+,	r11	
 490:	11 01       	mova	@r1+,	r1	
 492:	12 01       	mova	@r1+,	r2	
 494:	10 06       	bra	@r6+		
 496:	00 00       	bra	@r0		
 498:	02 2e       	jc	$-1018   	;abs 0x9e
 49a:	00 3f       	jmp	$-510    	;abs 0x29c
 49c:	0c 03       	mova	#2,	r12	;r3 As==10
 49e:	0e 3a       	jl	$-994    	;abs 0xbc
 4a0:	0b 3b       	jl	$-488    	;abs 0x2b8
 4a2:	0b 27       	jz	$-488    	;abs 0x2ba
 4a4:	0c 20       	jnz	$+26     	;abs 0x4be
 4a6:	0b 00       	mova	@r0,	r11	
 4a8:	00 03       	bra	#2		;r3 As==10
 4aa:	2e 00 31 13 	mova	&0x01331,r14	
 4ae:	11 01       	mova	@r1+,	r1	
 4b0:	12 01       	mova	@r1+,	r2	
 4b2:	40 0a       	rlam.a	#3,	r0	
 4b4:	00 00       	bra	@r0		
 4b6:	04 2e       	jc	$-1014   	;abs 0xc0
 4b8:	01 3f       	jmp	$-508    	;abs 0x2bc
 4ba:	0c 03       	mova	#2,	r12	;r3 As==10
 4bc:	0e 3a       	jl	$-994    	;abs 0xda
 4be:	0b 3b       	jl	$-488    	;abs 0x2d6
 4c0:	0b 27       	jz	$-488    	;abs 0x2d8
 4c2:	0c 11       	rra	r12		
 4c4:	01 12       	push	r1		
 4c6:	01 40       	mov	r0,	r1	
 4c8:	0a 01       	mova	@r1,	r10	
 4ca:	13 00       	.word	0x0013;	????	Illegal as address instr
 4cc:	00 05       	bra	@r5		
 4ce:	1d 00       	mova	#0x00000,r13	
 4d0:	31 13       	reti			;return from interupt
 4d2:	11 01       	mova	@r1+,	r1	
 4d4:	12 01       	mova	@r1+,	r2	
 4d6:	58 0b       	rrum	#3,	r8	
 4d8:	59 0b       	rrum	#3,	r9	
 4da:	00 00       	bra	@r0		
 4dc:	06 34       	jge	$+14     	;abs 0x4ea
 4de:	00 03       	bra	#2		;r3 As==10
 4e0:	0e 3a       	jl	$-994    	;abs 0xfe
 4e2:	0b 3b       	jl	$-488    	;abs 0x2fa
 4e4:	05 87       	sub	r7,	r5	
 4e6:	40 0e       	rlam.a	#4,	r0	
 4e8:	49 13       	calla	r9		
 4ea:	3f 0c 3c 0c 	mova	3132(r12),r15	;0x0c3c(r12)
 4ee:	00 00       	bra	@r0		
 4f0:	07 35       	jge	$+528    	;abs 0x700
 4f2:	00 49       	br	r9		
 4f4:	13 00       	.word	0x0013;	????	Illegal as address instr
 4f6:	00 08       	bra	@r8		
 4f8:	24 00 0b 0b 	mova	&0x00b0b,r4	
 4fc:	3e 0b 03 0e 	mova	3587(r11),r14	;0x0e03(r11)
 500:	00 00       	bra	@r0		
 502:	00 01       	bra	@r1		
 504:	11 01       	mova	@r1+,	r1	
 506:	25 0e 13 0b 	mova	&0xe0b13,r5	
 50a:	03 0e       	.word	0x0e03;	????	Illegal as address instr
 50c:	1b 0e       	mova	@r14+,	r11	
 50e:	11 01       	mova	@r1+,	r1	
 510:	12 01       	mova	@r1+,	r2	
 512:	10 06       	bra	@r6+		
 514:	00 00       	bra	@r0		
 516:	02 24       	jz	$+6      	;abs 0x51c
 518:	00 0b       	bra	@r11		
 51a:	0b 3e       	jmp	$-1000   	;abs 0x132
 51c:	0b 03       	mova	#2,	r11	;r3 As==10
 51e:	0e 00       	mova	@r0,	r14	
 520:	00 03       	bra	#2		;r3 As==10
 522:	24 00 0b 0b 	mova	&0x00b0b,r4	
 526:	3e 0b 03 08 	mova	2051(r11),r14	;0x0803(r11)
 52a:	00 00       	bra	@r0		
 52c:	04 0f       	mova	@r15,	r4	
 52e:	00 0b       	bra	@r11		
 530:	0b 49       	mov	r9,	r11	
 532:	13 00       	.word	0x0013;	????	Illegal as address instr
 534:	00 05       	bra	@r5		
 536:	26 00 49 13 	mova	&0x01349,r6	
 53a:	00 00       	bra	@r0		
 53c:	06 16       	popm.a	#1,	r6	
 53e:	00 03       	bra	#2		;r3 As==10
 540:	0e 3a       	jl	$-994    	;abs 0x15e
 542:	0b 3b       	jl	$-488    	;abs 0x35a
 544:	0b 49       	mov	r9,	r11	
 546:	13 00       	.word	0x0013;	????	Illegal as address instr
 548:	00 07       	bra	@r7		
 54a:	0f 00       	mova	@r0,	r15	
 54c:	0b 0b       	mova	@r11,	r11	
 54e:	03 0e       	.word	0x0e03;	????	Illegal as address instr
 550:	00 00       	bra	@r0		
 552:	08 2e       	jc	$-1006   	;abs 0x164
 554:	01 3f       	jmp	$-508    	;abs 0x358
 556:	0c 03       	mova	#2,	r12	;r3 As==10
 558:	0e 3a       	jl	$-994    	;abs 0x176
 55a:	0b 3b       	jl	$-488    	;abs 0x372
 55c:	0b 27       	jz	$-488    	;abs 0x374
 55e:	0c 49       	mov	r9,	r12	
 560:	13 11       	rra	#1		;r3 As==01
 562:	01 12       	push	r1		
 564:	01 40       	mov	r0,	r1	
 566:	0a 01       	mova	@r1,	r10	
 568:	13 00       	.word	0x0013;	????	Illegal as address instr
 56a:	00 09       	bra	@r9		
 56c:	05 00       	mova	@r0,	r5	
 56e:	03 08       	.word	0x0803;	????	Illegal as address instr
 570:	3a 0b 3b 0b 	mova	2875(r11),r10	;0x0b3b(r11)
 574:	49 13       	calla	r9		
 576:	02 0a       	mova	@r10,	r2	
 578:	00 00       	bra	@r0		
 57a:	0a 18       	.word	0x180a;	????	
 57c:	00 00       	bra	@r0		
 57e:	00 0b       	bra	@r11		
 580:	34 00 03 0e 	mova	0x0e03,	r4	;PC rel. 0x01385
 584:	3a 0b 3b 0b 	mova	2875(r11),r10	;0x0b3b(r11)
 588:	49 13       	calla	r9		
 58a:	02 0a       	mova	@r10,	r2	
 58c:	00 00       	bra	@r0		
 58e:	0c 34       	jge	$+26     	;abs 0x5a8
 590:	00 03       	bra	#2		;r3 As==10
 592:	08 3a       	jl	$-1006   	;abs 0x1a4
 594:	0b 3b       	jl	$-488    	;abs 0x3ac
 596:	0b 49       	mov	r9,	r11	
 598:	13 00       	.word	0x0013;	????	Illegal as address instr
 59a:	00 0d       	bra	@r13		
 59c:	2e 01 3f 0c 	mova	&0x10c3f,r14	
 5a0:	03 0e       	.word	0x0e03;	????	Illegal as address instr
 5a2:	3a 0b 3b 0b 	mova	2875(r11),r10	;0x0b3b(r11)
 5a6:	27 0c 49 13 	mova	&0xc1349,r7	
 5aa:	11 01       	mova	@r1+,	r1	
 5ac:	12 01       	mova	@r1+,	r2	
 5ae:	40 0a       	rlam.a	#3,	r0	
 5b0:	00 00       	bra	@r0		
 5b2:	0e 05       	mova	@r5,	r14	
 5b4:	00 03       	bra	#2		;r3 As==10
 5b6:	08 3a       	jl	$-1006   	;abs 0x1c8
 5b8:	0b 3b       	jl	$-488    	;abs 0x3d0
 5ba:	0b 49       	mov	r9,	r11	
 5bc:	13 02       	.word	0x0213;	????	Illegal as address instr
 5be:	06 00       	mova	@r0,	r6	
 5c0:	00 0f       	bra	@r15		
 5c2:	05 00       	mova	@r0,	r5	
 5c4:	03 0e       	.word	0x0e03;	????	Illegal as address instr
 5c6:	3a 0b 3b 0b 	mova	2875(r11),r10	;0x0b3b(r11)
 5ca:	49 13       	calla	r9		
 5cc:	02 06       	mova	@r6,	r2	
 5ce:	00 00       	bra	@r0		
 5d0:	00 01       	bra	@r1		
 5d2:	11 01       	mova	@r1+,	r1	
 5d4:	25 0e 13 0b 	mova	&0xe0b13,r5	
 5d8:	03 0e       	.word	0x0e03;	????	Illegal as address instr
 5da:	1b 0e       	mova	@r14+,	r11	
 5dc:	11 01       	mova	@r1+,	r1	
 5de:	12 01       	mova	@r1+,	r2	
 5e0:	10 06       	bra	@r6+		
 5e2:	00 00       	bra	@r0		
 5e4:	02 24       	jz	$+6      	;abs 0x5ea
 5e6:	00 0b       	bra	@r11		
 5e8:	0b 3e       	jmp	$-1000   	;abs 0x200
 5ea:	0b 03       	mova	#2,	r11	;r3 As==10
 5ec:	0e 00       	mova	@r0,	r14	
 5ee:	00 03       	bra	#2		;r3 As==10
 5f0:	24 00 0b 0b 	mova	&0x00b0b,r4	
 5f4:	3e 0b 03 08 	mova	2051(r11),r14	;0x0803(r11)
 5f8:	00 00       	bra	@r0		
 5fa:	04 16       	popm.a	#1,	r4	
 5fc:	00 03       	bra	#2		;r3 As==10
 5fe:	0e 3a       	jl	$-994    	;abs 0x21c
 600:	0b 3b       	jl	$-488    	;abs 0x418
 602:	0b 49       	mov	r9,	r11	
 604:	13 00       	.word	0x0013;	????	Illegal as address instr
 606:	00 05       	bra	@r5		
 608:	0f 00       	mova	@r0,	r15	
 60a:	0b 0b       	mova	@r11,	r11	
 60c:	49 13       	calla	r9		
 60e:	00 00       	bra	@r0		
 610:	06 26       	jz	$-1010   	;abs 0x21e
 612:	00 49       	br	r9		
 614:	13 00       	.word	0x0013;	????	Illegal as address instr
 616:	00 07       	bra	@r7		
 618:	0f 00       	mova	@r0,	r15	
 61a:	0b 0b       	mova	@r11,	r11	
 61c:	03 0e       	.word	0x0e03;	????	Illegal as address instr
 61e:	00 00       	bra	@r0		
 620:	08 13       	reti			;return from interupt
 622:	01 0b       	mova	@r11,	r1	
 624:	0b 3a       	jl	$-1000   	;abs 0x23c
 626:	0b 3b       	jl	$-488    	;abs 0x43e
 628:	0b 01       	mova	@r1,	r11	
 62a:	13 00       	.word	0x0013;	????	Illegal as address instr
 62c:	00 09       	bra	@r9		
 62e:	0d 00       	mova	@r0,	r13	
 630:	03 0e       	.word	0x0e03;	????	Illegal as address instr
 632:	3a 0b 3b 0b 	mova	2875(r11),r10	;0x0b3b(r11)
 636:	49 13       	calla	r9		
 638:	0b 0b       	mova	@r11,	r11	
 63a:	0d 0b       	mova	@r11,	r13	
 63c:	0c 0b       	mova	@r11,	r12	
 63e:	38 0a 00 00 	mova	0(r10),	r8	;0x0000(r10)
 642:	0a 0d       	mova	@r13,	r10	
 644:	00 03       	bra	#2		;r3 As==10
 646:	0e 3a       	jl	$-994    	;abs 0x264
 648:	0b 3b       	jl	$-488    	;abs 0x460
 64a:	0b 49       	mov	r9,	r11	
 64c:	13 38       	jl	$+40     	;abs 0x674
 64e:	0a 00       	mova	@r0,	r10	
 650:	00 0b       	bra	@r11		
 652:	2e 01 03 0e 	mova	&0x10e03,r14	
 656:	3a 0b 3b 0b 	mova	2875(r11),r10	;0x0b3b(r11)
 65a:	27 0c 49 13 	mova	&0xc1349,r7	
 65e:	20 0b 01 13 	bra	&0xb1301	
 662:	00 00       	bra	@r0		
 664:	0c 05       	mova	@r5,	r12	
 666:	00 03       	bra	#2		;r3 As==10
 668:	0e 3a       	jl	$-994    	;abs 0x286
 66a:	0b 3b       	jl	$-488    	;abs 0x482
 66c:	0b 49       	mov	r9,	r11	
 66e:	13 00       	.word	0x0013;	????	Illegal as address instr
 670:	00 0d       	bra	@r13		
 672:	34 00 03 08 	mova	0x0803,	r4	;PC rel. 0x00e77
 676:	3a 0b 3b 0b 	mova	2875(r11),r10	;0x0b3b(r11)
 67a:	49 13       	calla	r9		
 67c:	00 00       	bra	@r0		
 67e:	0e 2e       	jc	$-994    	;abs 0x29c
 680:	01 03       	mova	#2,	r1	;r3 As==10
 682:	0e 3a       	jl	$-994    	;abs 0x2a0
 684:	0b 3b       	jl	$-488    	;abs 0x49c
 686:	0b 27       	jz	$-488    	;abs 0x49e
 688:	0c 49       	mov	r9,	r12	
 68a:	13 11       	rra	#1		;r3 As==01
 68c:	01 12       	push	r1		
 68e:	01 40       	mov	r0,	r1	
 690:	06 01       	mova	@r1,	r6	
 692:	13 00       	.word	0x0013;	????	Illegal as address instr
 694:	00 0f       	bra	@r15		
 696:	05 00       	mova	@r0,	r5	
 698:	03 0e       	.word	0x0e03;	????	Illegal as address instr
 69a:	3a 0b 3b 0b 	mova	2875(r11),r10	;0x0b3b(r11)
 69e:	49 13       	calla	r9		
 6a0:	02 06       	mova	@r6,	r2	
 6a2:	00 00       	bra	@r0		
 6a4:	10 34       	jge	$+34     	;abs 0x6c6
 6a6:	00 03       	bra	#2		;r3 As==10
 6a8:	0e 3a       	jl	$-994    	;abs 0x2c6
 6aa:	0b 3b       	jl	$-488    	;abs 0x4c2
 6ac:	0b 49       	mov	r9,	r11	
 6ae:	13 02       	.word	0x0213;	????	Illegal as address instr
 6b0:	06 00       	mova	@r0,	r6	
 6b2:	00 11       	rra	r0		
 6b4:	34 00 03 0e 	mova	0x0e03,	r4	;PC rel. 0x014b9
 6b8:	3a 0b 3b 0b 	mova	2875(r11),r10	;0x0b3b(r11)
 6bc:	49 13       	calla	r9		
 6be:	02 0a       	mova	@r10,	r2	
 6c0:	00 00       	bra	@r0		
 6c2:	12 1d       	.word	0x1d12;	????	
 6c4:	01 31       	jn	$+516    	;abs 0x8c8
 6c6:	13 11       	rra	#1		;r3 As==01
 6c8:	01 12       	push	r1		
 6ca:	01 58       	add	r8,	r1	
 6cc:	0b 59       	add	r9,	r11	
 6ce:	0b 01       	mova	@r1,	r11	
 6d0:	13 00       	.word	0x0013;	????	Illegal as address instr
 6d2:	00 13       	reti			
 6d4:	05 00       	mova	@r0,	r5	
 6d6:	31 13       	reti			;return from interupt
 6d8:	00 00       	bra	@r0		
 6da:	14 05       	mova	@r5+,	r4	
 6dc:	00 31       	jn	$+514    	;abs 0x8de
 6de:	13 02       	.word	0x0213;	????	Illegal as address instr
 6e0:	06 00       	mova	@r0,	r6	
 6e2:	00 15       	pushm	#1,	r0	
 6e4:	0b 01       	mova	@r1,	r11	
 6e6:	11 01       	mova	@r1+,	r1	
 6e8:	12 01       	mova	@r1+,	r2	
 6ea:	00 00       	bra	@r0		
 6ec:	16 34       	jge	$+46     	;abs 0x71a
 6ee:	00 31       	jn	$+514    	;abs 0x8f0
 6f0:	13 02       	.word	0x0213;	????	Illegal as address instr
 6f2:	06 00       	mova	@r0,	r6	
 6f4:	00 17       	popm	#1,	r0	
 6f6:	0b 01       	mova	@r1,	r11	
 6f8:	55 06       	rlam	#2,	r5	
 6fa:	00 00       	bra	@r0		
 6fc:	18 34       	jge	$+50     	;abs 0x72e
 6fe:	00 03       	bra	#2		;r3 As==10
 700:	08 3a       	jl	$-1006   	;abs 0x312
 702:	0b 3b       	jl	$-488    	;abs 0x51a
 704:	0b 49       	mov	r9,	r11	
 706:	13 02       	.word	0x0213;	????	Illegal as address instr
 708:	06 00       	mova	@r0,	r6	
 70a:	00 19       	.word	0x1900;	????	
 70c:	15 01       	mova	@r1+,	r5	
 70e:	27 0c 49 13 	mova	&0xc1349,r7	
 712:	01 13       	reti			;return from interupt
 714:	00 00       	bra	@r0		
 716:	1a 05       	mova	@r5+,	r10	
 718:	00 49       	br	r9		
 71a:	13 00       	.word	0x0013;	????	Illegal as address instr
 71c:	00 1b       	.word	0x1b00;	????	
 71e:	01 01       	mova	@r1,	r1	
 720:	49 13       	calla	r9		
 722:	01 13       	reti			;return from interupt
 724:	00 00       	bra	@r0		
 726:	1c 21       	jnz	$+570    	;abs 0x960
 728:	00 49       	br	r9		
 72a:	13 2f       	jc	$-472    	;abs 0x552
 72c:	0b 00       	mova	@r0,	r11	
 72e:	00 1d       	.word	0x1d00;	????	
 730:	2e 01 3f 0c 	mova	&0x10c3f,r14	
 734:	03 0e       	.word	0x0e03;	????	Illegal as address instr
 736:	3a 0b 3b 0b 	mova	2875(r11),r10	;0x0b3b(r11)
 73a:	27 0c 49 13 	mova	&0xc1349,r7	
 73e:	11 01       	mova	@r1+,	r1	
 740:	12 01       	mova	@r1+,	r2	
 742:	40 06       	rlam.a	#2,	r0	
 744:	01 13       	reti			;return from interupt
 746:	00 00       	bra	@r0		
 748:	1e 04       	mova	@r4+,	r14	
 74a:	01 0b       	mova	@r11,	r1	
 74c:	0b 3a       	jl	$-1000   	;abs 0x364
 74e:	0b 3b       	jl	$-488    	;abs 0x566
 750:	0b 01       	mova	@r1,	r11	
 752:	13 00       	.word	0x0013;	????	Illegal as address instr
 754:	00 1f       	.word	0x1f00;	????	
 756:	28 00 03 0e 	mova	&0x00e03,r8	
 75a:	1c 0d       	mova	@r13+,	r12	
 75c:	00 00       	bra	@r0		
 75e:	20 0a 00 03 	bra	&0xa0300	
 762:	0e 3a       	jl	$-994    	;abs 0x380
 764:	0b 3b       	jl	$-488    	;abs 0x57c
 766:	05 11       	rra	r5		
 768:	01 00       	mova	@r0,	r1	
 76a:	00 21       	jnz	$+514    	;abs 0x96c
 76c:	0b 01       	mova	@r1,	r11	
 76e:	11 01       	mova	@r1+,	r1	
 770:	12 01       	mova	@r1+,	r2	
 772:	01 13       	reti			;return from interupt
 774:	00 00       	bra	@r0		
 776:	22 34       	jge	$+70     	;abs 0x7bc
 778:	00 03       	bra	#2		;r3 As==10
 77a:	08 3a       	jl	$-1006   	;abs 0x38c
 77c:	0b 3b       	jl	$-488    	;abs 0x594
 77e:	05 49       	mov	r9,	r5	
 780:	13 02       	.word	0x0213;	????	Illegal as address instr
 782:	06 00       	mova	@r0,	r6	
 784:	00 23       	jnz	$-510    	;abs 0x586
 786:	34 00 03 0e 	mova	0x0e03,	r4	;PC rel. 0x0158b
 78a:	3a 0b 3b 05 	mova	1339(r11),r10	;0x053b(r11)
 78e:	49 13       	calla	r9		
 790:	02 06       	mova	@r6,	r2	
 792:	00 00       	bra	@r0		
 794:	24 01 01 49 	mova	&0x14901,r4	
 798:	13 00       	.word	0x0013;	????	Illegal as address instr
	...

Disassembly of section .debug_line:

00000000 <.debug_line>:
   0:	0d 01       	mova	@r1,	r13	
   2:	00 00       	bra	@r0		
   4:	02 00       	mova	@r0,	r2	
   6:	79 00 00 00 	mova	r0,	0(r9)	;0x0000(r9)
   a:	01 01       	mova	@r1,	r1	
   c:	f6 f5 0a 00 	and.b	@r5+,	10(r6)	;0x000a(r6)
  10:	01 01       	mova	@r1,	r1	
  12:	01 01       	mova	@r1,	r1	
  14:	00 00       	bra	@r0		
  16:	00 01       	bra	@r1		
  18:	63 3a       	jl	$-824    	;abs 0xfce0
  1a:	5c 6d 73 70 	addc.b	28787(r13),r12	;0x7073(r13)
  1e:	67 63       	addc.b	#2,	r7	;r3 As==10
  20:	63 5c       	.word	0x5c63;	????	Illegal as 2-op instr
  22:	62 69       	addc.b	@r9,	r2	
  24:	6e 5c       	add.b	@r12,	r14	
  26:	2e 2e       	jc	$-930    	;abs 0xfc84
  28:	2f 6c       	addc	@r12,	r15	
  2a:	69 62       	addc.b	#4,	r9	;r2 As==10
  2c:	2f 67       	addc	@r7,	r15	
  2e:	63 63       	.word	0x6363;	????	Illegal as 2-op instr
  30:	2f 6d       	addc	@r13,	r15	
  32:	73 70       	.word	0x7073;	????	Illegal as 2-op instr
  34:	34 33       	jn	$-406    	;abs 0xfe9e
  36:	30 2f       	jc	$-414    	;abs 0xfe98
  38:	34 2e       	jc	$-918    	;abs 0xfca2
  3a:	35 2e       	jc	$-916    	;abs 0xfca6
  3c:	33 2f       	jc	$-408    	;abs 0xfea4
  3e:	2e 2e       	jc	$-930    	;abs 0xfc9c
  40:	2f 2e       	jc	$-928    	;abs 0xfca0
  42:	2e 2f       	jc	$-418    	;abs 0xfea0
  44:	2e 2e       	jc	$-930    	;abs 0xfca2
  46:	2f 2e       	jc	$-928    	;abs 0xfca6
  48:	2e 2f       	jc	$-418    	;abs 0xfea6
  4a:	6d 73       	subc.b	#2,	r13	;r3 As==10
  4c:	70 34       	jge	$+226    	;abs 0x12e
  4e:	33 30       	jn	$+104    	;abs 0xb6
  50:	2f 69       	addc	@r9,	r15	
  52:	6e 63       	addc.b	#2,	r14	;r3 As==10
  54:	6c 75       	subc.b	@r5,	r12	
  56:	64 65       	addc.b	@r5,	r4	
  58:	00 00       	bra	@r0		
  5a:	6d 61       	addc.b	@r1,	r13	
  5c:	69 6e       	addc.b	@r14,	r9	
  5e:	2e 63       	addc	#2,	r14	;r3 As==10
  60:	00 00       	bra	@r0		
  62:	00 00       	bra	@r0		
  64:	6c 63       	addc.b	#2,	r12	;r3 As==10
  66:	64 36       	jge	$-822    	;abs 0xfd30
  68:	31 30       	jn	$+100    	;abs 0xcc
  6a:	30 2e       	jc	$-926    	;abs 0xfccc
  6c:	68 00 00 00 	mova	r0,	&0x80000
  70:	00 6d       	addc	r13,	r0	
  72:	73 70       	.word	0x7073;	????	Illegal as 2-op instr
  74:	34 33       	jn	$-406    	;abs 0xfede
  76:	30 66       	addc	@r6+,	r0	
  78:	32 36       	jge	$-922    	;abs 0xfcde
  7a:	31 38       	jl	$+100    	;abs 0xde
  7c:	2e 68       	addc	@r8,	r14	
  7e:	00 01       	bra	@r1		
  80:	00 00       	bra	@r0		
  82:	00 00       	bra	@r0		
  84:	03 02       	.word	0x0203;	????	Illegal as address instr
  86:	3a 32       	jn	$-906    	;abs 0xfcfc
  88:	00 01       	bra	@r1		
  8a:	01 00       	mova	@r0,	r1	
  8c:	03 02       	.word	0x0203;	????	Illegal as address instr
  8e:	38 31       	jn	$+626    	;abs 0x300
  90:	27 00 03 02 	mova	&0x00203,r7	
  94:	3a 31       	jn	$+630    	;abs 0x30a
  96:	1b 00       	mova	#0x00000,r11	
  98:	03 02       	.word	0x0203;	????	Illegal as address instr
  9a:	3e 31       	jn	$+638    	;abs 0x318
  9c:	16 00       	mova	#0x00000,r6	
  9e:	03 02       	.word	0x0203;	????	Illegal as address instr
  a0:	42 31       	jn	$+646    	;abs 0x326
  a2:	16 00       	mova	#0x00000,r6	
  a4:	03 02       	.word	0x0203;	????	Illegal as address instr
  a6:	4a 31       	jn	$+662    	;abs 0x33c
  a8:	17 00       	mova	#0x00000,r7	
  aa:	03 02       	.word	0x0203;	????	Illegal as address instr
  ac:	52 31       	jn	$+678    	;abs 0x352
  ae:	17 00       	mova	#0x00000,r7	
  b0:	03 02       	.word	0x0203;	????	Illegal as address instr
  b2:	5a 31       	jn	$+694    	;abs 0x368
  b4:	19 00       	mova	#0x00000,r9	
  b6:	03 02       	.word	0x0203;	????	Illegal as address instr
  b8:	62 31       	jn	$+710    	;abs 0x37e
  ba:	15 00       	mova	#0x00000,r5	
  bc:	03 02       	.word	0x0203;	????	Illegal as address instr
  be:	72 31       	jn	$+742    	;abs 0x3a4
  c0:	15 00       	mova	#0x00000,r5	
  c2:	03 02       	.word	0x0203;	????	Illegal as address instr
  c4:	78 31       	jn	$+754    	;abs 0x3b6
  c6:	16 00       	mova	#0x00000,r6	
  c8:	03 02       	.word	0x0203;	????	Illegal as address instr
  ca:	84 31       	jn	$+778    	;abs 0x3d4
  cc:	15 00       	mova	#0x00000,r5	
  ce:	03 02       	.word	0x0203;	????	Illegal as address instr
  d0:	92 31       	jn	$+806    	;abs 0x3f6
  d2:	15 00       	mova	#0x00000,r5	
  d4:	03 02       	.word	0x0203;	????	Illegal as address instr
  d6:	9a 31       	jn	$+822    	;abs 0x40c
  d8:	16 00       	mova	#0x00000,r6	
  da:	03 02       	.word	0x0203;	????	Illegal as address instr
  dc:	a6 31       	jn	$+846    	;abs 0x42a
  de:	15 00       	mova	#0x00000,r5	
  e0:	03 02       	.word	0x0203;	????	Illegal as address instr
  e2:	b4 31       	jn	$+874    	;abs 0x44c
  e4:	15 00       	mova	#0x00000,r5	
  e6:	03 02       	.word	0x0203;	????	Illegal as address instr
  e8:	bc 31       	jn	$+890    	;abs 0x462
  ea:	16 00       	mova	#0x00000,r6	
  ec:	03 02       	.word	0x0203;	????	Illegal as address instr
  ee:	c8 31       	jn	$+914    	;abs 0x480
  f0:	15 00       	mova	#0x00000,r5	
  f2:	03 02       	.word	0x0203;	????	Illegal as address instr
  f4:	d6 31       	jn	$+942    	;abs 0x4a2
  f6:	15 00       	mova	#0x00000,r5	
  f8:	03 02       	.word	0x0203;	????	Illegal as address instr
  fa:	de 31       	jn	$+958    	;abs 0x4b8
  fc:	16 00       	mova	#0x00000,r6	
  fe:	03 02       	.word	0x0203;	????	Illegal as address instr
 100:	ec 31       	jn	$+986    	;abs 0x4da
 102:	15 00       	mova	#0x00000,r5	
 104:	03 02       	.word	0x0203;	????	Illegal as address instr
 106:	fa 31       	jn	$+1014   	;abs 0x4fc
 108:	15 00       	mova	#0x00000,r5	
 10a:	03 02       	.word	0x0203;	????	Illegal as address instr
 10c:	04 32       	jn	$-1014   	;abs 0xfd16
 10e:	00 01       	bra	@r1		
 110:	01 6b       	addc	r11,	r1	
 112:	00 00       	bra	@r0		
 114:	00 02       	bra	#4		;r2 As==10
 116:	00 1b       	.word	0x1b00;	????	
 118:	00 00       	bra	@r0		
 11a:	00 01       	bra	@r1		
 11c:	01 f6       	and	r6,	r1	
 11e:	f5 0a       	suba	r10,	r5	
 120:	00 01       	bra	@r1		
 122:	01 01       	mova	@r1,	r1	
 124:	01 00       	mova	@r0,	r1	
 126:	00 00       	bra	@r0		
 128:	01 00       	mova	@r0,	r1	
 12a:	64 65       	addc.b	@r5,	r4	
 12c:	6c 61       	addc.b	@r1,	r12	
 12e:	79 2e       	jc	$-780    	;abs 0xfe22
 130:	63 00 00 00 	mova	r0,	&0x30000
 134:	00 00       	bra	@r0		
 136:	00 03       	bra	#2		;r3 As==10
 138:	02 3a       	jl	$-1018   	;abs 0xfd3e
 13a:	32 18       	.word	0x1832;	????	
 13c:	00 03       	bra	#2		;r3 As==10
 13e:	02 3a       	jl	$-1018   	;abs 0xfd44
 140:	32 19       	.word	0x1932;	????	
 142:	00 03       	bra	#2		;r3 As==10
 144:	02 3c       	jmp	$+6      	;abs 0x14a
 146:	32 17       	popm	#4,	r5	
 148:	00 03       	bra	#2		;r3 As==10
 14a:	02 3c       	jmp	$+6      	;abs 0x150
 14c:	32 19       	.word	0x1932;	????	
 14e:	00 03       	bra	#2		;r3 As==10
 150:	02 3e       	jmp	$-1018   	;abs 0xfd56
 152:	32 19       	.word	0x1932;	????	
 154:	00 03       	bra	#2		;r3 As==10
 156:	02 3e       	jmp	$-1018   	;abs 0xfd5c
 158:	32 17       	popm	#4,	r5	
 15a:	00 03       	bra	#2		;r3 As==10
 15c:	02 42       	mov	r2,	r2	
 15e:	32 01 00 03 	mova	768(r1),r2	;0x0300(r1)
 162:	02 4e       	mov	r14,	r2	
 164:	32 1a       	.word	0x1a32;	????	
 166:	00 03       	bra	#2		;r3 As==10
 168:	02 54       	add	r4,	r2	
 16a:	32 17       	popm	#4,	r5	
 16c:	00 03       	bra	#2		;r3 As==10
 16e:	02 58       	add	r8,	r2	
 170:	32 01 00 03 	mova	768(r1),r2	;0x0300(r1)
 174:	02 68       	addc	r8,	r2	
 176:	32 15       	pushm	#4,	r2	
 178:	00 03       	bra	#2		;r3 As==10
 17a:	02 6e       	addc	r14,	r2	
 17c:	32 00 01 01 	mova	0x0101,	r2	;PC rel. 0x0027f
 180:	e2 01       	adda	r1,	r2	
 182:	00 00       	bra	@r0		
 184:	02 00       	mova	@r0,	r2	
 186:	74 00 00 00 	mova	r0,	0(r4)	;0x0000(r4)
 18a:	01 01       	mova	@r1,	r1	
 18c:	f6 f5 0a 00 	and.b	@r5+,	10(r6)	;0x000a(r6)
 190:	01 01       	mova	@r1,	r1	
 192:	01 01       	mova	@r1,	r1	
 194:	00 00       	bra	@r0		
 196:	00 01       	bra	@r1		
 198:	63 3a       	jl	$-824    	;abs 0xfe60
 19a:	5c 6d 73 70 	addc.b	28787(r13),r12	;0x7073(r13)
 19e:	67 63       	addc.b	#2,	r7	;r3 As==10
 1a0:	63 5c       	.word	0x5c63;	????	Illegal as 2-op instr
 1a2:	62 69       	addc.b	@r9,	r2	
 1a4:	6e 5c       	add.b	@r12,	r14	
 1a6:	2e 2e       	jc	$-930    	;abs 0xfe04
 1a8:	2f 6c       	addc	@r12,	r15	
 1aa:	69 62       	addc.b	#4,	r9	;r2 As==10
 1ac:	2f 67       	addc	@r7,	r15	
 1ae:	63 63       	.word	0x6363;	????	Illegal as 2-op instr
 1b0:	2f 6d       	addc	@r13,	r15	
 1b2:	73 70       	.word	0x7073;	????	Illegal as 2-op instr
 1b4:	34 33       	jn	$-406    	;abs 0x1e
 1b6:	30 2f       	jc	$-414    	;abs 0x18
 1b8:	34 2e       	jc	$-918    	;abs 0xfe22
 1ba:	35 2e       	jc	$-916    	;abs 0xfe26
 1bc:	33 2f       	jc	$-408    	;abs 0x24
 1be:	2e 2e       	jc	$-930    	;abs 0xfe1c
 1c0:	2f 2e       	jc	$-928    	;abs 0xfe20
 1c2:	2e 2f       	jc	$-418    	;abs 0x20
 1c4:	2e 2e       	jc	$-930    	;abs 0xfe22
 1c6:	2f 2e       	jc	$-928    	;abs 0xfe26
 1c8:	2e 2f       	jc	$-418    	;abs 0x26
 1ca:	6d 73       	subc.b	#2,	r13	;r3 As==10
 1cc:	70 34       	jge	$+226    	;abs 0x2ae
 1ce:	33 30       	jn	$+104    	;abs 0x236
 1d0:	2f 69       	addc	@r9,	r15	
 1d2:	6e 63       	addc.b	#2,	r14	;r3 As==10
 1d4:	6c 75       	subc.b	@r5,	r12	
 1d6:	64 65       	addc.b	@r5,	r4	
 1d8:	00 00       	bra	@r0		
 1da:	69 32       	jn	$-812    	;abs 0xfeae
 1dc:	63 2e       	jc	$-824    	;abs 0xfea4
 1de:	63 00 00 00 	mova	r0,	&0x30000
 1e2:	00 6d       	addc	r13,	r0	
 1e4:	73 70       	.word	0x7073;	????	Illegal as 2-op instr
 1e6:	34 33       	jn	$-406    	;abs 0x50
 1e8:	30 66       	addc	@r6+,	r0	
 1ea:	32 36       	jge	$-922    	;abs 0xfe50
 1ec:	31 38       	jl	$+100    	;abs 0x250
 1ee:	2e 68       	addc	@r8,	r14	
 1f0:	00 01       	bra	@r1		
 1f2:	00 00       	bra	@r0		
 1f4:	69 32       	jn	$-812    	;abs 0xfec8
 1f6:	63 2e       	jc	$-824    	;abs 0xfebe
 1f8:	68 00 00 00 	mova	r0,	&0x80000
 1fc:	00 00       	bra	@r0		
 1fe:	00 03       	bra	#2		;r3 As==10
 200:	02 6e       	addc	r14,	r2	
 202:	32 1a       	.word	0x1a32;	????	
 204:	00 03       	bra	#2		;r3 As==10
 206:	02 6e       	addc	r14,	r2	
 208:	32 16       	popm.a	#4,	r5	
 20a:	00 03       	bra	#2		;r3 As==10
 20c:	02 72       	subc	r2,	r2	
 20e:	32 1f       	.word	0x1f32;	????	
 210:	00 03       	bra	#2		;r3 As==10
 212:	02 78       	subc	r8,	r2	
 214:	32 15       	pushm	#4,	r2	
 216:	00 03       	bra	#2		;r3 As==10
 218:	02 7c       	subc	r12,	r2	
 21a:	32 1b       	.word	0x1b32;	????	
 21c:	00 03       	bra	#2		;r3 As==10
 21e:	02 82       	sub	r2,	r2	
 220:	32 16       	popm.a	#4,	r5	
 222:	00 03       	bra	#2		;r3 As==10
 224:	02 88       	sub	r8,	r2	
 226:	32 16       	popm.a	#4,	r5	
 228:	00 03       	bra	#2		;r3 As==10
 22a:	02 8e       	sub	r14,	r2	
 22c:	32 16       	popm.a	#4,	r5	
 22e:	00 03       	bra	#2		;r3 As==10
 230:	02 94       	cmp	r4,	r2	
 232:	32 16       	popm.a	#4,	r5	
 234:	00 03       	bra	#2		;r3 As==10
 236:	02 9e       	cmp	r14,	r2	
 238:	32 15       	pushm	#4,	r2	
 23a:	00 03       	bra	#2		;r3 As==10
 23c:	02 a2       	dadd	r2,	r2	
 23e:	32 15       	pushm	#4,	r2	
 240:	00 03       	bra	#2		;r3 As==10
 242:	02 a8       	dadd	r8,	r2	
 244:	32 15       	pushm	#4,	r2	
 246:	00 03       	bra	#2		;r3 As==10
 248:	02 ac       	dadd	r12,	r2	
 24a:	32 15       	pushm	#4,	r2	
 24c:	00 03       	bra	#2		;r3 As==10
 24e:	02 b2       	bit	r2,	r2	
 250:	32 20       	jnz	$+102    	;abs 0x2b6
 252:	00 03       	bra	#2		;r3 As==10
 254:	02 b8       	bit	r8,	r2	
 256:	32 16       	popm.a	#4,	r5	
 258:	00 03       	bra	#2		;r3 As==10
 25a:	02 b8       	bit	r8,	r2	
 25c:	32 16       	popm.a	#4,	r5	
 25e:	00 03       	bra	#2		;r3 As==10
 260:	02 be       	bit	r14,	r2	
 262:	32 16       	popm.a	#4,	r5	
 264:	00 03       	bra	#2		;r3 As==10
 266:	02 c4       	bic	r4,	r2	
 268:	32 15       	pushm	#4,	r2	
 26a:	00 03       	bra	#2		;r3 As==10
 26c:	02 ca       	bic	r10,	r2	
 26e:	32 16       	popm.a	#4,	r5	
 270:	00 03       	bra	#2		;r3 As==10
 272:	02 d2       	bis	r2,	r2	
 274:	32 17       	popm	#4,	r5	
 276:	00 03       	bra	#2		;r3 As==10
 278:	02 d6       	bis	r6,	r2	
 27a:	32 15       	pushm	#4,	r2	
 27c:	00 03       	bra	#2		;r3 As==10
 27e:	02 d8       	bis	r8,	r2	
 280:	32 11       	rra	#8		;r2 As==11
 282:	00 03       	bra	#2		;r3 As==10
 284:	02 de       	bis	r14,	r2	
 286:	32 3d       	jmp	$+614    	;abs 0x4ec
 288:	00 03       	bra	#2		;r3 As==10
 28a:	02 de       	bis	r14,	r2	
 28c:	32 15       	pushm	#4,	r2	
 28e:	00 03       	bra	#2		;r3 As==10
 290:	02 e6       	xor	r6,	r2	
 292:	32 15       	pushm	#4,	r2	
 294:	00 03       	bra	#2		;r3 As==10
 296:	02 ee       	xor	r14,	r2	
 298:	32 15       	pushm	#4,	r2	
 29a:	00 03       	bra	#2		;r3 As==10
 29c:	02 f4       	and	r4,	r2	
 29e:	32 15       	pushm	#4,	r2	
 2a0:	00 03       	bra	#2		;r3 As==10
 2a2:	02 f8       	and	r8,	r2	
 2a4:	32 17       	popm	#4,	r5	
 2a6:	00 03       	bra	#2		;r3 As==10
 2a8:	02 fc       	and	r12,	r2	
 2aa:	32 15       	pushm	#4,	r2	
 2ac:	00 03       	bra	#2		;r3 As==10
 2ae:	02 02       	mova	#4,	r2	;r2 As==10
 2b0:	33 17       	popm	#4,	r6	
 2b2:	00 03       	bra	#2		;r3 As==10
 2b4:	02 08       	mova	@r8,	r2	
 2b6:	33 0e       	.word	0x0e33;	????	Illegal as address instr
 2b8:	00 03       	bra	#2		;r3 As==10
 2ba:	02 0e       	mova	@r14,	r2	
 2bc:	33 1c       	.word	0x1c33;	????	
 2be:	00 03       	bra	#2		;r3 As==10
 2c0:	02 0e       	mova	@r14,	r2	
 2c2:	33 15       	pushm	#4,	#0	;r3 As==00
 2c4:	00 03       	bra	#2		;r3 As==10
 2c6:	02 16       	popm.a	#1,	r2	
 2c8:	33 15       	pushm	#4,	#0	;r3 As==00
 2ca:	00 03       	bra	#2		;r3 As==10
 2cc:	02 1a       	.word	0x1a02;	????	
 2ce:	33 15       	pushm	#4,	#0	;r3 As==00
 2d0:	00 03       	bra	#2		;r3 As==10
 2d2:	02 22       	jnz	$-1018   	;abs 0xfed8
 2d4:	33 15       	pushm	#4,	#0	;r3 As==00
 2d6:	00 03       	bra	#2		;r3 As==10
 2d8:	02 2a       	jnc	$-1018   	;abs 0xfede
 2da:	33 18       	.word	0x1833;	????	
 2dc:	00 03       	bra	#2		;r3 As==10
 2de:	02 2e       	jc	$-1018   	;abs 0xfee4
 2e0:	33 15       	pushm	#4,	#0	;r3 As==00
 2e2:	00 03       	bra	#2		;r3 As==10
 2e4:	02 34       	jge	$+6      	;abs 0x2ea
 2e6:	33 16       	popm.a	#4,	r6	
 2e8:	00 03       	bra	#2		;r3 As==10
 2ea:	02 3e       	jmp	$-1018   	;abs 0xfef0
 2ec:	33 15       	pushm	#4,	#0	;r3 As==00
 2ee:	00 03       	bra	#2		;r3 As==10
 2f0:	02 40       	mov	r0,	r2	
 2f2:	33 0d       	.word	0x0d33;	????	Illegal as address instr
 2f4:	00 03       	bra	#2		;r3 As==10
 2f6:	02 46       	mov	r6,	r2	
 2f8:	33 03       	.word	0x0333;	????	Illegal as address instr
 2fa:	56 01       	rram	#1,	r6	
 2fc:	00 03       	bra	#2		;r3 As==10
 2fe:	02 4a       	mov	r10,	r2	
 300:	33 18       	.word	0x1833;	????	
 302:	00 03       	bra	#2		;r3 As==10
 304:	02 50       	add	r0,	r2	
 306:	33 17       	popm	#4,	r6	
 308:	00 03       	bra	#2		;r3 As==10
 30a:	02 56       	add	r6,	r2	
 30c:	33 17       	popm	#4,	r6	
 30e:	00 03       	bra	#2		;r3 As==10
 310:	02 5e       	add	r14,	r2	
 312:	33 17       	popm	#4,	r6	
 314:	00 03       	bra	#2		;r3 As==10
 316:	02 64       	addc	r4,	r2	
 318:	33 1d       	.word	0x1d33;	????	
 31a:	00 03       	bra	#2		;r3 As==10
 31c:	02 68       	addc	r8,	r2	
 31e:	33 0d       	.word	0x0d33;	????	Illegal as address instr
 320:	00 03       	bra	#2		;r3 As==10
 322:	02 72       	subc	r2,	r2	
 324:	33 17       	popm	#4,	r6	
 326:	00 03       	bra	#2		;r3 As==10
 328:	02 7c       	subc	r12,	r2	
 32a:	33 18       	.word	0x1833;	????	
 32c:	00 03       	bra	#2		;r3 As==10
 32e:	02 80       	sub	r0,	r2	
 330:	33 03       	.word	0x0333;	????	Illegal as address instr
 332:	5e 01       	rram	#1,	r14	
 334:	00 03       	bra	#2		;r3 As==10
 336:	02 84       	sub	r4,	r2	
 338:	33 16       	popm.a	#4,	r6	
 33a:	00 03       	bra	#2		;r3 As==10
 33c:	02 8a       	sub	r10,	r2	
 33e:	33 15       	pushm	#4,	#0	;r3 As==00
 340:	00 03       	bra	#2		;r3 As==10
 342:	02 90       	cmp	r0,	r2	
 344:	33 15       	pushm	#4,	#0	;r3 As==00
 346:	00 03       	bra	#2		;r3 As==10
 348:	02 98       	cmp	r8,	r2	
 34a:	33 15       	pushm	#4,	#0	;r3 As==00
 34c:	00 03       	bra	#2		;r3 As==10
 34e:	02 9e       	cmp	r14,	r2	
 350:	33 19       	.word	0x1933;	????	
 352:	00 03       	bra	#2		;r3 As==10
 354:	02 a2       	dadd	r2,	r2	
 356:	33 10       	rrc	#-1		;r3 As==11
 358:	00 03       	bra	#2		;r3 As==10
 35a:	02 aa       	dadd	r10,	r2	
 35c:	33 18       	.word	0x1833;	????	
 35e:	00 03       	bra	#2		;r3 As==10
 360:	02 ae       	dadd	r14,	r2	
 362:	33 00       	.word	0x0033;	????	Illegal as address instr
 364:	01 01       	mova	@r1,	r1	
 366:	93 06       	.word	0x0693;	????	Illegal as address instr
 368:	00 00       	bra	@r0		
 36a:	02 00       	mova	@r0,	r2	
 36c:	87 00 00 00 	mova	#0x00000,r7	
 370:	01 01       	mova	@r1,	r1	
 372:	f6 f5 0a 00 	and.b	@r5+,	10(r6)	;0x000a(r6)
 376:	01 01       	mova	@r1,	r1	
 378:	01 01       	mova	@r1,	r1	
 37a:	00 00       	bra	@r0		
 37c:	00 01       	bra	@r1		
 37e:	63 3a       	jl	$-824    	;abs 0x46
 380:	5c 6d 73 70 	addc.b	28787(r13),r12	;0x7073(r13)
 384:	67 63       	addc.b	#2,	r7	;r3 As==10
 386:	63 5c       	.word	0x5c63;	????	Illegal as 2-op instr
 388:	62 69       	addc.b	@r9,	r2	
 38a:	6e 5c       	add.b	@r12,	r14	
 38c:	2e 2e       	jc	$-930    	;abs 0xffea
 38e:	2f 6c       	addc	@r12,	r15	
 390:	69 62       	addc.b	#4,	r9	;r2 As==10
 392:	2f 67       	addc	@r7,	r15	
 394:	63 63       	.word	0x6363;	????	Illegal as 2-op instr
 396:	2f 6d       	addc	@r13,	r15	
 398:	73 70       	.word	0x7073;	????	Illegal as 2-op instr
 39a:	34 33       	jn	$-406    	;abs 0x204
 39c:	30 2f       	jc	$-414    	;abs 0x1fe
 39e:	34 2e       	jc	$-918    	;abs 0x8
 3a0:	35 2e       	jc	$-916    	;abs 0xc
 3a2:	33 2f       	jc	$-408    	;abs 0x20a
 3a4:	2e 2e       	jc	$-930    	;abs 0x2
 3a6:	2f 2e       	jc	$-928    	;abs 0x6
 3a8:	2e 2f       	jc	$-418    	;abs 0x206
 3aa:	2e 2e       	jc	$-930    	;abs 0x8
 3ac:	2f 2e       	jc	$-928    	;abs 0xc
 3ae:	2e 2f       	jc	$-418    	;abs 0x20c
 3b0:	6d 73       	subc.b	#2,	r13	;r3 As==10
 3b2:	70 34       	jge	$+226    	;abs 0x494
 3b4:	33 30       	jn	$+104    	;abs 0x41c
 3b6:	2f 69       	addc	@r9,	r15	
 3b8:	6e 63       	addc.b	#2,	r14	;r3 As==10
 3ba:	6c 75       	subc.b	@r5,	r12	
 3bc:	64 65       	addc.b	@r5,	r4	
 3be:	00 00       	bra	@r0		
 3c0:	6c 63       	addc.b	#2,	r12	;r3 As==10
 3c2:	64 36       	jge	$-822    	;abs 0x8c
 3c4:	31 30       	jn	$+100    	;abs 0x428
 3c6:	30 2e       	jc	$-926    	;abs 0x28
 3c8:	63 00 00 00 	mova	r0,	&0x30000
 3cc:	00 6d       	addc	r13,	r0	
 3ce:	73 70       	.word	0x7073;	????	Illegal as 2-op instr
 3d0:	34 33       	jn	$-406    	;abs 0x23a
 3d2:	30 66       	addc	@r6+,	r0	
 3d4:	32 36       	jge	$-922    	;abs 0x3a
 3d6:	31 38       	jl	$+100    	;abs 0x43a
 3d8:	2e 68       	addc	@r8,	r14	
 3da:	00 01       	bra	@r1		
 3dc:	00 00       	bra	@r0		
 3de:	6c 63       	addc.b	#2,	r12	;r3 As==10
 3e0:	64 36       	jge	$-822    	;abs 0xaa
 3e2:	31 30       	jn	$+100    	;abs 0x446
 3e4:	30 2e       	jc	$-926    	;abs 0x46
 3e6:	68 00 00 00 	mova	r0,	&0x80000
 3ea:	00 73       	sbc	r0		
 3ec:	74 64       	addc.b	@r4+,	r4	
 3ee:	69 6f       	addc.b	@r15,	r9	
 3f0:	2e 68       	addc	@r8,	r14	
 3f2:	00 01       	bra	@r1		
 3f4:	00 00       	bra	@r0		
 3f6:	00 00       	bra	@r0		
 3f8:	03 02       	.word	0x0203;	????	Illegal as address instr
 3fa:	ae 33       	jn	$-162    	;abs 0x358
 3fc:	c5 00       	mova	r0,	r5	
 3fe:	03 02       	.word	0x0203;	????	Illegal as address instr
 400:	ae 33       	jn	$-162    	;abs 0x35e
 402:	15 00       	mova	#0x00000,r5	
 404:	03 02       	.word	0x0203;	????	Illegal as address instr
 406:	b2 33       	jn	$-154    	;abs 0x36c
 408:	15 00       	mova	#0x00000,r5	
 40a:	03 02       	.word	0x0203;	????	Illegal as address instr
 40c:	b6 33       	jn	$-146    	;abs 0x37a
 40e:	15 00       	mova	#0x00000,r5	
 410:	03 02       	.word	0x0203;	????	Illegal as address instr
 412:	b8 33       	jn	$-142    	;abs 0x384
 414:	1d 00       	mova	#0x00000,r13	
 416:	03 02       	.word	0x0203;	????	Illegal as address instr
 418:	ba 33       	jn	$-138    	;abs 0x38e
 41a:	18 00       	mova	#0x00000,r8	
 41c:	03 02       	.word	0x0203;	????	Illegal as address instr
 41e:	be 33       	jn	$-130    	;abs 0x39c
 420:	15 00       	mova	#0x00000,r5	
 422:	03 02       	.word	0x0203;	????	Illegal as address instr
 424:	c4 33       	jn	$-118    	;abs 0x3ae
 426:	1a 00       	mova	#0x00000,r10	
 428:	03 02       	.word	0x0203;	????	Illegal as address instr
 42a:	ca 33       	jn	$-106    	;abs 0x3c0
 42c:	15 00       	mova	#0x00000,r5	
 42e:	03 02       	.word	0x0203;	????	Illegal as address instr
 430:	ce 33       	jn	$-98     	;abs 0x3ce
 432:	15 00       	mova	#0x00000,r5	
 434:	03 02       	.word	0x0203;	????	Illegal as address instr
 436:	d6 33       	jn	$-82     	;abs 0x3e4
 438:	03 74       	.word	0x7403;	????	Illegal as 2-op instr
 43a:	01 00       	mova	@r0,	r1	
 43c:	03 02       	.word	0x0203;	????	Illegal as address instr
 43e:	dc 33       	jn	$-70     	;abs 0x3f8
 440:	24 00 03 02 	mova	&0x00203,r4	
 444:	e0 33       	jn	$-62     	;abs 0x406
 446:	19 00       	mova	#0x00000,r9	
 448:	03 02       	.word	0x0203;	????	Illegal as address instr
 44a:	e4 33       	jn	$-54     	;abs 0x414
 44c:	15 00       	mova	#0x00000,r5	
 44e:	03 02       	.word	0x0203;	????	Illegal as address instr
 450:	ec 33       	jn	$-38     	;abs 0x42a
 452:	0c 00       	mova	@r0,	r12	
 454:	03 02       	.word	0x0203;	????	Illegal as address instr
 456:	ee 33       	jn	$-34     	;abs 0x434
 458:	1d 00       	mova	#0x00000,r13	
 45a:	03 02       	.word	0x0203;	????	Illegal as address instr
 45c:	f2 33       	jn	$-26     	;abs 0x442
 45e:	0c 00       	mova	@r0,	r12	
 460:	03 02       	.word	0x0203;	????	Illegal as address instr
 462:	f8 33       	jn	$-14     	;abs 0x454
 464:	18 00       	mova	#0x00000,r8	
 466:	03 02       	.word	0x0203;	????	Illegal as address instr
 468:	00 34       	jge	$+2      	;abs 0x46a
 46a:	1b 00       	mova	#0x00000,r11	
 46c:	03 02       	.word	0x0203;	????	Illegal as address instr
 46e:	04 34       	jge	$+10     	;abs 0x478
 470:	01 00       	mova	@r0,	r1	
 472:	03 02       	.word	0x0203;	????	Illegal as address instr
 474:	0a 34       	jge	$+22     	;abs 0x48a
 476:	17 00       	mova	#0x00000,r7	
 478:	03 02       	.word	0x0203;	????	Illegal as address instr
 47a:	10 34       	jge	$+34     	;abs 0x49c
 47c:	15 00       	mova	#0x00000,r5	
 47e:	03 02       	.word	0x0203;	????	Illegal as address instr
 480:	14 34       	jge	$+42     	;abs 0x4aa
 482:	15 00       	mova	#0x00000,r5	
 484:	03 02       	.word	0x0203;	????	Illegal as address instr
 486:	18 34       	jge	$+50     	;abs 0x4b8
 488:	03 68       	.word	0x6803;	????	Illegal as 2-op instr
 48a:	01 00       	mova	@r0,	r1	
 48c:	03 02       	.word	0x0203;	????	Illegal as address instr
 48e:	1e 34       	jge	$+62     	;abs 0x4cc
 490:	6e 00 03 02 	mova	r0,	&0xe0203
 494:	22 34       	jge	$+70     	;abs 0x4da
 496:	15 00       	mova	#0x00000,r5	
 498:	03 02       	.word	0x0203;	????	Illegal as address instr
 49a:	2a 34       	jge	$+86     	;abs 0x4f0
 49c:	15 00       	mova	#0x00000,r5	
 49e:	03 02       	.word	0x0203;	????	Illegal as address instr
 4a0:	32 34       	jge	$+102    	;abs 0x506
 4a2:	15 00       	mova	#0x00000,r5	
 4a4:	03 02       	.word	0x0203;	????	Illegal as address instr
 4a6:	36 34       	jge	$+110    	;abs 0x514
 4a8:	17 00       	mova	#0x00000,r7	
 4aa:	03 02       	.word	0x0203;	????	Illegal as address instr
 4ac:	3e 34       	jge	$+126    	;abs 0x52a
 4ae:	15 00       	mova	#0x00000,r5	
 4b0:	03 02       	.word	0x0203;	????	Illegal as address instr
 4b2:	46 34       	jge	$+142    	;abs 0x540
 4b4:	15 00       	mova	#0x00000,r5	
 4b6:	03 02       	.word	0x0203;	????	Illegal as address instr
 4b8:	4e 34       	jge	$+158    	;abs 0x556
 4ba:	15 00       	mova	#0x00000,r5	
 4bc:	03 02       	.word	0x0203;	????	Illegal as address instr
 4be:	56 34       	jge	$+174    	;abs 0x56c
 4c0:	15 00       	mova	#0x00000,r5	
 4c2:	03 02       	.word	0x0203;	????	Illegal as address instr
 4c4:	5c 34       	jge	$+186    	;abs 0x57e
 4c6:	17 00       	mova	#0x00000,r7	
 4c8:	03 02       	.word	0x0203;	????	Illegal as address instr
 4ca:	6e 34       	jge	$+222    	;abs 0x5a8
 4cc:	17 00       	mova	#0x00000,r7	
 4ce:	03 02       	.word	0x0203;	????	Illegal as address instr
 4d0:	7e 34       	jge	$+254    	;abs 0x5ce
 4d2:	15 00       	mova	#0x00000,r5	
 4d4:	03 02       	.word	0x0203;	????	Illegal as address instr
 4d6:	8e 34       	jge	$+286    	;abs 0x5f4
 4d8:	16 00       	mova	#0x00000,r6	
 4da:	03 02       	.word	0x0203;	????	Illegal as address instr
 4dc:	9a 34       	jge	$+310    	;abs 0x612
 4de:	16 00       	mova	#0x00000,r6	
 4e0:	03 02       	.word	0x0203;	????	Illegal as address instr
 4e2:	ae 34       	jge	$+350    	;abs 0x640
 4e4:	15 00       	mova	#0x00000,r5	
 4e6:	03 02       	.word	0x0203;	????	Illegal as address instr
 4e8:	b2 34       	jge	$+358    	;abs 0x64e
 4ea:	01 00       	mova	@r0,	r1	
 4ec:	03 02       	.word	0x0203;	????	Illegal as address instr
 4ee:	b4 34       	jge	$+362    	;abs 0x658
 4f0:	16 00       	mova	#0x00000,r6	
 4f2:	03 02       	.word	0x0203;	????	Illegal as address instr
 4f4:	bc 34       	jge	$+378    	;abs 0x66e
 4f6:	12 00       	mova	#0x00000,r2	
 4f8:	03 02       	.word	0x0203;	????	Illegal as address instr
 4fa:	c2 34       	jge	$+390    	;abs 0x680
 4fc:	19 00       	mova	#0x00000,r9	
 4fe:	03 02       	.word	0x0203;	????	Illegal as address instr
 500:	c8 34       	jge	$+402    	;abs 0x692
 502:	15 00       	mova	#0x00000,r5	
 504:	03 02       	.word	0x0203;	????	Illegal as address instr
 506:	cc 34       	jge	$+410    	;abs 0x6a0
 508:	16 00       	mova	#0x00000,r6	
 50a:	03 02       	.word	0x0203;	????	Illegal as address instr
 50c:	da 34       	jge	$+438    	;abs 0x6c2
 50e:	15 00       	mova	#0x00000,r5	
 510:	03 02       	.word	0x0203;	????	Illegal as address instr
 512:	e8 34       	jge	$+466    	;abs 0x6e4
 514:	15 00       	mova	#0x00000,r5	
 516:	03 02       	.word	0x0203;	????	Illegal as address instr
 518:	f2 34       	jge	$+486    	;abs 0x6fe
 51a:	03 5b       	.word	0x5b03;	????	Illegal as 2-op instr
 51c:	01 00       	mova	@r0,	r1	
 51e:	03 02       	.word	0x0203;	????	Illegal as address instr
 520:	f2 34       	jge	$+486    	;abs 0x706
 522:	15 00       	mova	#0x00000,r5	
 524:	03 02       	.word	0x0203;	????	Illegal as address instr
 526:	04 35       	jge	$+522    	;abs 0x730
 528:	15 00       	mova	#0x00000,r5	
 52a:	03 02       	.word	0x0203;	????	Illegal as address instr
 52c:	06 35       	jge	$+526    	;abs 0x73a
 52e:	03 44       	.word	0x4403;	????	Illegal as 2-op instr
 530:	01 00       	mova	@r0,	r1	
 532:	03 02       	.word	0x0203;	????	Illegal as address instr
 534:	16 35       	jge	$+558    	;abs 0x762
 536:	15 00       	mova	#0x00000,r5	
 538:	03 02       	.word	0x0203;	????	Illegal as address instr
 53a:	1c 35       	jge	$+570    	;abs 0x774
 53c:	16 00       	mova	#0x00000,r6	
 53e:	03 02       	.word	0x0203;	????	Illegal as address instr
 540:	20 35       	jge	$+578    	;abs 0x782
 542:	15 00       	mova	#0x00000,r5	
 544:	03 02       	.word	0x0203;	????	Illegal as address instr
 546:	26 35       	jge	$+590    	;abs 0x794
 548:	15 00       	mova	#0x00000,r5	
 54a:	03 02       	.word	0x0203;	????	Illegal as address instr
 54c:	2c 35       	jge	$+602    	;abs 0x7a6
 54e:	16 00       	mova	#0x00000,r6	
 550:	03 02       	.word	0x0203;	????	Illegal as address instr
 552:	32 35       	jge	$+614    	;abs 0x7b8
 554:	15 00       	mova	#0x00000,r5	
 556:	03 02       	.word	0x0203;	????	Illegal as address instr
 558:	3c 35       	jge	$+634    	;abs 0x7d2
 55a:	15 00       	mova	#0x00000,r5	
 55c:	03 02       	.word	0x0203;	????	Illegal as address instr
 55e:	40 35       	jge	$+642    	;abs 0x7e0
 560:	15 00       	mova	#0x00000,r5	
 562:	03 02       	.word	0x0203;	????	Illegal as address instr
 564:	46 35       	jge	$+654    	;abs 0x7f2
 566:	17 00       	mova	#0x00000,r7	
 568:	03 02       	.word	0x0203;	????	Illegal as address instr
 56a:	50 35       	jge	$+674    	;abs 0x80c
 56c:	16 00       	mova	#0x00000,r6	
 56e:	03 02       	.word	0x0203;	????	Illegal as address instr
 570:	5c 35       	jge	$+698    	;abs 0x82a
 572:	16 00       	mova	#0x00000,r6	
 574:	03 02       	.word	0x0203;	????	Illegal as address instr
 576:	66 35       	jge	$+718    	;abs 0x844
 578:	15 00       	mova	#0x00000,r5	
 57a:	03 02       	.word	0x0203;	????	Illegal as address instr
 57c:	70 35       	jge	$+738    	;abs 0x85e
 57e:	15 00       	mova	#0x00000,r5	
 580:	03 02       	.word	0x0203;	????	Illegal as address instr
 582:	78 35       	jge	$+754    	;abs 0x874
 584:	17 00       	mova	#0x00000,r7	
 586:	03 02       	.word	0x0203;	????	Illegal as address instr
 588:	82 35       	jge	$+774    	;abs 0x88e
 58a:	16 00       	mova	#0x00000,r6	
 58c:	03 02       	.word	0x0203;	????	Illegal as address instr
 58e:	8c 35       	jge	$+794    	;abs 0x8a8
 590:	16 00       	mova	#0x00000,r6	
 592:	03 02       	.word	0x0203;	????	Illegal as address instr
 594:	94 35       	jge	$+810    	;abs 0x8be
 596:	15 00       	mova	#0x00000,r5	
 598:	03 02       	.word	0x0203;	????	Illegal as address instr
 59a:	9c 35       	jge	$+826    	;abs 0x8d4
 59c:	15 00       	mova	#0x00000,r5	
 59e:	03 02       	.word	0x0203;	????	Illegal as address instr
 5a0:	a8 35       	jge	$+850    	;abs 0x8f2
 5a2:	15 00       	mova	#0x00000,r5	
 5a4:	03 02       	.word	0x0203;	????	Illegal as address instr
 5a6:	b4 35       	jge	$+874    	;abs 0x910
 5a8:	15 00       	mova	#0x00000,r5	
 5aa:	03 02       	.word	0x0203;	????	Illegal as address instr
 5ac:	c0 35       	jge	$+898    	;abs 0x92e
 5ae:	15 00       	mova	#0x00000,r5	
 5b0:	03 02       	.word	0x0203;	????	Illegal as address instr
 5b2:	cc 35       	jge	$+922    	;abs 0x94c
 5b4:	15 00       	mova	#0x00000,r5	
 5b6:	03 02       	.word	0x0203;	????	Illegal as address instr
 5b8:	d8 35       	jge	$+946    	;abs 0x96a
 5ba:	15 00       	mova	#0x00000,r5	
 5bc:	03 02       	.word	0x0203;	????	Illegal as address instr
 5be:	e4 35       	jge	$+970    	;abs 0x988
 5c0:	16 00       	mova	#0x00000,r6	
 5c2:	03 02       	.word	0x0203;	????	Illegal as address instr
 5c4:	ec 35       	jge	$+986    	;abs 0x99e
 5c6:	15 00       	mova	#0x00000,r5	
 5c8:	03 02       	.word	0x0203;	????	Illegal as address instr
 5ca:	f4 35       	jge	$+1002   	;abs 0x9b4
 5cc:	15 00       	mova	#0x00000,r5	
 5ce:	03 02       	.word	0x0203;	????	Illegal as address instr
 5d0:	fc 35       	jge	$+1018   	;abs 0x9ca
 5d2:	15 00       	mova	#0x00000,r5	
 5d4:	03 02       	.word	0x0203;	????	Illegal as address instr
 5d6:	04 36       	jge	$-1014   	;abs 0x1e0
 5d8:	15 00       	mova	#0x00000,r5	
 5da:	03 02       	.word	0x0203;	????	Illegal as address instr
 5dc:	0c 36       	jge	$-998    	;abs 0x1f6
 5de:	15 00       	mova	#0x00000,r5	
 5e0:	03 02       	.word	0x0203;	????	Illegal as address instr
 5e2:	14 36       	jge	$-982    	;abs 0x20c
 5e4:	15 00       	mova	#0x00000,r5	
 5e6:	03 02       	.word	0x0203;	????	Illegal as address instr
 5e8:	1c 36       	jge	$-966    	;abs 0x222
 5ea:	15 00       	mova	#0x00000,r5	
 5ec:	03 02       	.word	0x0203;	????	Illegal as address instr
 5ee:	24 36       	jge	$-950    	;abs 0x238
 5f0:	16 00       	mova	#0x00000,r6	
 5f2:	03 02       	.word	0x0203;	????	Illegal as address instr
 5f4:	2c 36       	jge	$-934    	;abs 0x24e
 5f6:	15 00       	mova	#0x00000,r5	
 5f8:	03 02       	.word	0x0203;	????	Illegal as address instr
 5fa:	34 36       	jge	$-918    	;abs 0x264
 5fc:	15 00       	mova	#0x00000,r5	
 5fe:	03 02       	.word	0x0203;	????	Illegal as address instr
 600:	3c 36       	jge	$-902    	;abs 0x27a
 602:	15 00       	mova	#0x00000,r5	
 604:	03 02       	.word	0x0203;	????	Illegal as address instr
 606:	44 36       	jge	$-886    	;abs 0x290
 608:	17 00       	mova	#0x00000,r7	
 60a:	03 02       	.word	0x0203;	????	Illegal as address instr
 60c:	4e 36       	jge	$-866    	;abs 0x2aa
 60e:	16 00       	mova	#0x00000,r6	
 610:	03 02       	.word	0x0203;	????	Illegal as address instr
 612:	60 36       	jge	$-830    	;abs 0x2d4
 614:	17 00       	mova	#0x00000,r7	
 616:	03 02       	.word	0x0203;	????	Illegal as address instr
 618:	70 36       	jge	$-798    	;abs 0x2fa
 61a:	3f 00 03 02 	mova	0x0203,	r15	;PC rel. 0x0081f
 61e:	8e 36       	jge	$-738    	;abs 0x33c
 620:	19 00       	mova	#0x00000,r9	
 622:	03 02       	.word	0x0203;	????	Illegal as address instr
 624:	92 36       	jge	$-730    	;abs 0x34a
 626:	15 00       	mova	#0x00000,r5	
 628:	03 02       	.word	0x0203;	????	Illegal as address instr
 62a:	b0 36       	jge	$-670    	;abs 0x38c
 62c:	15 00       	mova	#0x00000,r5	
 62e:	03 02       	.word	0x0203;	????	Illegal as address instr
 630:	c4 36       	jge	$-630    	;abs 0x3ba
 632:	15 00       	mova	#0x00000,r5	
 634:	03 02       	.word	0x0203;	????	Illegal as address instr
 636:	d8 36       	jge	$-590    	;abs 0x3e8
 638:	15 00       	mova	#0x00000,r5	
 63a:	03 02       	.word	0x0203;	????	Illegal as address instr
 63c:	ee 36       	jge	$-546    	;abs 0x41a
 63e:	15 00       	mova	#0x00000,r5	
 640:	03 02       	.word	0x0203;	????	Illegal as address instr
 642:	f6 36       	jge	$-530    	;abs 0x430
 644:	0b 00       	mova	@r0,	r11	
 646:	03 02       	.word	0x0203;	????	Illegal as address instr
 648:	fc 36       	jge	$-518    	;abs 0x442
 64a:	16 00       	mova	#0x00000,r6	
 64c:	03 02       	.word	0x0203;	????	Illegal as address instr
 64e:	1a 37       	jge	$-458    	;abs 0x484
 650:	15 00       	mova	#0x00000,r5	
 652:	03 02       	.word	0x0203;	????	Illegal as address instr
 654:	20 37       	jge	$-446    	;abs 0x496
 656:	22 00 03 02 	mova	&0x00203,r2	
 65a:	28 37       	jge	$-430    	;abs 0x4ac
 65c:	0d 00       	mova	@r0,	r13	
 65e:	03 02       	.word	0x0203;	????	Illegal as address instr
 660:	2c 37       	jge	$-422    	;abs 0x4ba
 662:	15 00       	mova	#0x00000,r5	
 664:	03 02       	.word	0x0203;	????	Illegal as address instr
 666:	30 37       	jge	$-414    	;abs 0x4c8
 668:	15 00       	mova	#0x00000,r5	
 66a:	03 02       	.word	0x0203;	????	Illegal as address instr
 66c:	34 37       	jge	$-406    	;abs 0x4d6
 66e:	15 00       	mova	#0x00000,r5	
 670:	03 02       	.word	0x0203;	????	Illegal as address instr
 672:	38 37       	jge	$-398    	;abs 0x4e4
 674:	16 00       	mova	#0x00000,r6	
 676:	03 02       	.word	0x0203;	????	Illegal as address instr
 678:	3c 37       	jge	$-390    	;abs 0x4f2
 67a:	17 00       	mova	#0x00000,r7	
 67c:	03 02       	.word	0x0203;	????	Illegal as address instr
 67e:	44 37       	jge	$-374    	;abs 0x508
 680:	03 6d       	.word	0x6d03;	????	Illegal as 2-op instr
 682:	01 00       	mova	@r0,	r1	
 684:	03 02       	.word	0x0203;	????	Illegal as address instr
 686:	4e 37       	jge	$-354    	;abs 0x524
 688:	27 00 03 02 	mova	&0x00203,r7	
 68c:	62 37       	jge	$-314    	;abs 0x552
 68e:	15 00       	mova	#0x00000,r5	
 690:	03 02       	.word	0x0203;	????	Illegal as address instr
 692:	72 37       	jge	$-282    	;abs 0x578
 694:	15 00       	mova	#0x00000,r5	
 696:	03 02       	.word	0x0203;	????	Illegal as address instr
 698:	88 37       	jge	$-238    	;abs 0x5aa
 69a:	15 00       	mova	#0x00000,r5	
 69c:	03 02       	.word	0x0203;	????	Illegal as address instr
 69e:	9e 37       	jge	$-194    	;abs 0x5dc
 6a0:	15 00       	mova	#0x00000,r5	
 6a2:	03 02       	.word	0x0203;	????	Illegal as address instr
 6a4:	b4 37       	jge	$-150    	;abs 0x60e
 6a6:	15 00       	mova	#0x00000,r5	
 6a8:	03 02       	.word	0x0203;	????	Illegal as address instr
 6aa:	d0 37       	jge	$-94     	;abs 0x64c
 6ac:	15 00       	mova	#0x00000,r5	
 6ae:	03 02       	.word	0x0203;	????	Illegal as address instr
 6b0:	e0 37       	jge	$-62     	;abs 0x672
 6b2:	15 00       	mova	#0x00000,r5	
 6b4:	03 02       	.word	0x0203;	????	Illegal as address instr
 6b6:	f2 37       	jge	$-26     	;abs 0x69c
 6b8:	03 70       	.word	0x7003;	????	Illegal as 2-op instr
 6ba:	01 00       	mova	@r0,	r1	
 6bc:	03 02       	.word	0x0203;	????	Illegal as address instr
 6be:	fa 37       	jge	$-10     	;abs 0x6b4
 6c0:	26 00 03 02 	mova	&0x00203,r6	
 6c4:	10 38       	jl	$+34     	;abs 0x6e6
 6c6:	48 00       	rrcm.a	#1,	r8	
 6c8:	03 02       	.word	0x0203;	????	Illegal as address instr
 6ca:	1c 38       	jl	$+58     	;abs 0x704
 6cc:	15 00       	mova	#0x00000,r5	
 6ce:	03 02       	.word	0x0203;	????	Illegal as address instr
 6d0:	2a 38       	jl	$+86     	;abs 0x726
 6d2:	15 00       	mova	#0x00000,r5	
 6d4:	03 02       	.word	0x0203;	????	Illegal as address instr
 6d6:	38 38       	jl	$+114    	;abs 0x748
 6d8:	16 00       	mova	#0x00000,r6	
 6da:	03 02       	.word	0x0203;	????	Illegal as address instr
 6dc:	44 38       	jl	$+138    	;abs 0x766
 6de:	15 00       	mova	#0x00000,r5	
 6e0:	03 02       	.word	0x0203;	????	Illegal as address instr
 6e2:	4c 38       	jl	$+154    	;abs 0x77c
 6e4:	17 00       	mova	#0x00000,r7	
 6e6:	03 02       	.word	0x0203;	????	Illegal as address instr
 6e8:	52 38       	jl	$+166    	;abs 0x78e
 6ea:	15 00       	mova	#0x00000,r5	
 6ec:	03 02       	.word	0x0203;	????	Illegal as address instr
 6ee:	56 38       	jl	$+174    	;abs 0x79c
 6f0:	16 00       	mova	#0x00000,r6	
 6f2:	03 02       	.word	0x0203;	????	Illegal as address instr
 6f4:	64 38       	jl	$+202    	;abs 0x7be
 6f6:	15 00       	mova	#0x00000,r5	
 6f8:	03 02       	.word	0x0203;	????	Illegal as address instr
 6fa:	6e 38       	jl	$+222    	;abs 0x7d8
 6fc:	15 00       	mova	#0x00000,r5	
 6fe:	03 02       	.word	0x0203;	????	Illegal as address instr
 700:	78 38       	jl	$+242    	;abs 0x7f2
 702:	03 41       	.word	0x4103;	????	Illegal as 2-op instr
 704:	01 00       	mova	@r0,	r1	
 706:	03 02       	.word	0x0203;	????	Illegal as address instr
 708:	9a 38       	jl	$+310    	;abs 0x83e
 70a:	15 00       	mova	#0x00000,r5	
 70c:	03 02       	.word	0x0203;	????	Illegal as address instr
 70e:	9e 38       	jl	$+318    	;abs 0x84c
 710:	15 00       	mova	#0x00000,r5	
 712:	03 02       	.word	0x0203;	????	Illegal as address instr
 714:	a2 38       	jl	$+326    	;abs 0x85a
 716:	16 00       	mova	#0x00000,r6	
 718:	03 02       	.word	0x0203;	????	Illegal as address instr
 71a:	a6 38       	jl	$+334    	;abs 0x868
 71c:	19 00       	mova	#0x00000,r9	
 71e:	03 02       	.word	0x0203;	????	Illegal as address instr
 720:	a8 38       	jl	$+338    	;abs 0x872
 722:	16 00       	mova	#0x00000,r6	
 724:	03 02       	.word	0x0203;	????	Illegal as address instr
 726:	ac 38       	jl	$+346    	;abs 0x880
 728:	19 00       	mova	#0x00000,r9	
 72a:	03 02       	.word	0x0203;	????	Illegal as address instr
 72c:	ae 38       	jl	$+350    	;abs 0x88a
 72e:	16 00       	mova	#0x00000,r6	
 730:	03 02       	.word	0x0203;	????	Illegal as address instr
 732:	b0 38       	jl	$+354    	;abs 0x894
 734:	15 00       	mova	#0x00000,r5	
 736:	03 02       	.word	0x0203;	????	Illegal as address instr
 738:	b2 38       	jl	$+358    	;abs 0x89e
 73a:	16 00       	mova	#0x00000,r6	
 73c:	03 02       	.word	0x0203;	????	Illegal as address instr
 73e:	bc 38       	jl	$+378    	;abs 0x8b8
 740:	16 00       	mova	#0x00000,r6	
 742:	03 02       	.word	0x0203;	????	Illegal as address instr
 744:	c0 38       	jl	$+386    	;abs 0x8c6
 746:	16 00       	mova	#0x00000,r6	
 748:	03 02       	.word	0x0203;	????	Illegal as address instr
 74a:	c4 38       	jl	$+394    	;abs 0x8d4
 74c:	13 00       	.word	0x0013;	????	Illegal as address instr
 74e:	03 02       	.word	0x0203;	????	Illegal as address instr
 750:	cc 38       	jl	$+410    	;abs 0x8ea
 752:	03 68       	.word	0x6803;	????	Illegal as 2-op instr
 754:	01 00       	mova	@r0,	r1	
 756:	03 02       	.word	0x0203;	????	Illegal as address instr
 758:	d0 38       	jl	$+418    	;abs 0x8fa
 75a:	33 00       	.word	0x0033;	????	Illegal as address instr
 75c:	03 02       	.word	0x0203;	????	Illegal as address instr
 75e:	d2 38       	jl	$+422    	;abs 0x904
 760:	0f 00       	mova	@r0,	r15	
 762:	03 02       	.word	0x0203;	????	Illegal as address instr
 764:	d6 38       	jl	$+430    	;abs 0x912
 766:	15 00       	mova	#0x00000,r5	
 768:	03 02       	.word	0x0203;	????	Illegal as address instr
 76a:	d8 38       	jl	$+434    	;abs 0x91c
 76c:	15 00       	mova	#0x00000,r5	
 76e:	03 02       	.word	0x0203;	????	Illegal as address instr
 770:	da 38       	jl	$+438    	;abs 0x926
 772:	18 00       	mova	#0x00000,r8	
 774:	03 02       	.word	0x0203;	????	Illegal as address instr
 776:	e6 38       	jl	$+462    	;abs 0x944
 778:	03 60       	.word	0x6003;	????	Illegal as 2-op instr
 77a:	01 00       	mova	@r0,	r1	
 77c:	03 02       	.word	0x0203;	????	Illegal as address instr
 77e:	ea 38       	jl	$+470    	;abs 0x954
 780:	2d 00 03 02 	mova	&0x00203,r13	
 784:	ee 38       	jl	$+478    	;abs 0x962
 786:	2a 00 03 02 	mova	&0x00203,r10	
 78a:	02 39       	jl	$+518    	;abs 0x990
 78c:	0a 00       	mova	@r0,	r10	
 78e:	03 02       	.word	0x0203;	????	Illegal as address instr
 790:	08 39       	jl	$+530    	;abs 0x9a2
 792:	13 00       	.word	0x0013;	????	Illegal as address instr
 794:	03 02       	.word	0x0203;	????	Illegal as address instr
 796:	10 39       	jl	$+546    	;abs 0x9b8
 798:	03 5c       	.word	0x5c03;	????	Illegal as 2-op instr
 79a:	01 00       	mova	@r0,	r1	
 79c:	03 02       	.word	0x0203;	????	Illegal as address instr
 79e:	14 39       	jl	$+554    	;abs 0x9c8
 7a0:	3f 00 03 02 	mova	0x0203,	r15	;PC rel. 0x009a5
 7a4:	16 39       	jl	$+558    	;abs 0x9d2
 7a6:	0f 00       	mova	@r0,	r15	
 7a8:	03 02       	.word	0x0203;	????	Illegal as address instr
 7aa:	1a 39       	jl	$+566    	;abs 0x9e0
 7ac:	15 00       	mova	#0x00000,r5	
 7ae:	03 02       	.word	0x0203;	????	Illegal as address instr
 7b0:	1c 39       	jl	$+570    	;abs 0x9ea
 7b2:	15 00       	mova	#0x00000,r5	
 7b4:	03 02       	.word	0x0203;	????	Illegal as address instr
 7b6:	1e 39       	jl	$+574    	;abs 0x9f4
 7b8:	18 00       	mova	#0x00000,r8	
 7ba:	03 02       	.word	0x0203;	????	Illegal as address instr
 7bc:	2a 39       	jl	$+598    	;abs 0xa12
 7be:	03 54       	.word	0x5403;	????	Illegal as 2-op instr
 7c0:	01 00       	mova	@r0,	r1	
 7c2:	03 02       	.word	0x0203;	????	Illegal as address instr
 7c4:	2e 39       	jl	$+606    	;abs 0xa22
 7c6:	39 00 03 02 	mova	0x0203,	r9	;PC rel. 0x009cb
 7ca:	36 39       	jl	$+622    	;abs 0xa38
 7cc:	03 67       	.word	0x6703;	????	Illegal as 2-op instr
 7ce:	01 00       	mova	@r0,	r1	
 7d0:	03 02       	.word	0x0203;	????	Illegal as address instr
 7d2:	3a 39       	jl	$+630    	;abs 0xa48
 7d4:	15 00       	mova	#0x00000,r5	
 7d6:	03 02       	.word	0x0203;	????	Illegal as address instr
 7d8:	3e 39       	jl	$+638    	;abs 0xa56
 7da:	0c 00       	mova	@r0,	r12	
 7dc:	03 02       	.word	0x0203;	????	Illegal as address instr
 7de:	42 39       	jl	$+646    	;abs 0xa64
 7e0:	15 00       	mova	#0x00000,r5	
 7e2:	03 02       	.word	0x0203;	????	Illegal as address instr
 7e4:	46 39       	jl	$+654    	;abs 0xa72
 7e6:	50 00       	rrcm	#1,	r0	
 7e8:	03 02       	.word	0x0203;	????	Illegal as address instr
 7ea:	58 39       	jl	$+690    	;abs 0xa9c
 7ec:	17 00       	mova	#0x00000,r7	
 7ee:	03 02       	.word	0x0203;	????	Illegal as address instr
 7f0:	68 39       	jl	$+722    	;abs 0xac2
 7f2:	15 00       	mova	#0x00000,r5	
 7f4:	03 02       	.word	0x0203;	????	Illegal as address instr
 7f6:	78 39       	jl	$+754    	;abs 0xae8
 7f8:	16 00       	mova	#0x00000,r6	
 7fa:	03 02       	.word	0x0203;	????	Illegal as address instr
 7fc:	84 39       	jl	$+778    	;abs 0xb06
 7fe:	16 00       	mova	#0x00000,r6	
 800:	03 02       	.word	0x0203;	????	Illegal as address instr
 802:	98 39       	jl	$+818    	;abs 0xb34
 804:	15 00       	mova	#0x00000,r5	
 806:	03 02       	.word	0x0203;	????	Illegal as address instr
 808:	9c 39       	jl	$+826    	;abs 0xb42
 80a:	01 00       	mova	@r0,	r1	
 80c:	03 02       	.word	0x0203;	????	Illegal as address instr
 80e:	9e 39       	jl	$+830    	;abs 0xb4c
 810:	0a 00       	mova	@r0,	r10	
 812:	03 02       	.word	0x0203;	????	Illegal as address instr
 814:	a2 39       	jl	$+838    	;abs 0xb5a
 816:	20 00 03 02 	bra	&0x00203	
 81a:	aa 39       	jl	$+854    	;abs 0xb70
 81c:	12 00       	mova	#0x00000,r2	
 81e:	03 02       	.word	0x0203;	????	Illegal as address instr
 820:	b0 39       	jl	$+866    	;abs 0xb82
 822:	19 00       	mova	#0x00000,r9	
 824:	03 02       	.word	0x0203;	????	Illegal as address instr
 826:	b6 39       	jl	$+878    	;abs 0xb94
 828:	15 00       	mova	#0x00000,r5	
 82a:	03 02       	.word	0x0203;	????	Illegal as address instr
 82c:	ba 39       	jl	$+886    	;abs 0xba2
 82e:	16 00       	mova	#0x00000,r6	
 830:	03 02       	.word	0x0203;	????	Illegal as address instr
 832:	c8 39       	jl	$+914    	;abs 0xbc4
 834:	15 00       	mova	#0x00000,r5	
 836:	03 02       	.word	0x0203;	????	Illegal as address instr
 838:	d6 39       	jl	$+942    	;abs 0xbe6
 83a:	15 00       	mova	#0x00000,r5	
 83c:	03 02       	.word	0x0203;	????	Illegal as address instr
 83e:	e0 39       	jl	$+962    	;abs 0xc00
 840:	17 00       	mova	#0x00000,r7	
 842:	03 02       	.word	0x0203;	????	Illegal as address instr
 844:	e0 39       	jl	$+962    	;abs 0xc06
 846:	15 00       	mova	#0x00000,r5	
 848:	03 02       	.word	0x0203;	????	Illegal as address instr
 84a:	f0 39       	jl	$+994    	;abs 0xc2c
 84c:	15 00       	mova	#0x00000,r5	
 84e:	03 02       	.word	0x0203;	????	Illegal as address instr
 850:	f4 39       	jl	$+1002   	;abs 0xc3a
 852:	16 00       	mova	#0x00000,r6	
 854:	03 02       	.word	0x0203;	????	Illegal as address instr
 856:	f8 39       	jl	$+1010   	;abs 0xc48
 858:	15 00       	mova	#0x00000,r5	
 85a:	03 02       	.word	0x0203;	????	Illegal as address instr
 85c:	fa 39       	jl	$+1014   	;abs 0xc52
 85e:	17 00       	mova	#0x00000,r7	
 860:	03 02       	.word	0x0203;	????	Illegal as address instr
 862:	fa 39       	jl	$+1014   	;abs 0xc58
 864:	15 00       	mova	#0x00000,r5	
 866:	03 02       	.word	0x0203;	????	Illegal as address instr
 868:	02 3a       	jl	$-1018   	;abs 0x46e
 86a:	15 00       	mova	#0x00000,r5	
 86c:	03 02       	.word	0x0203;	????	Illegal as address instr
 86e:	0a 3a       	jl	$-1002   	;abs 0x484
 870:	16 00       	mova	#0x00000,r6	
 872:	03 02       	.word	0x0203;	????	Illegal as address instr
 874:	0e 3a       	jl	$-994    	;abs 0x492
 876:	15 00       	mova	#0x00000,r5	
 878:	03 02       	.word	0x0203;	????	Illegal as address instr
 87a:	12 3a       	jl	$-986    	;abs 0x4a0
 87c:	15 00       	mova	#0x00000,r5	
 87e:	03 02       	.word	0x0203;	????	Illegal as address instr
 880:	14 3a       	jl	$-982    	;abs 0x4aa
 882:	17 00       	mova	#0x00000,r7	
 884:	03 02       	.word	0x0203;	????	Illegal as address instr
 886:	20 3a       	jl	$-958    	;abs 0x4c8
 888:	19 00       	mova	#0x00000,r9	
 88a:	03 02       	.word	0x0203;	????	Illegal as address instr
 88c:	2c 3a       	jl	$-934    	;abs 0x4e6
 88e:	15 00       	mova	#0x00000,r5	
 890:	03 02       	.word	0x0203;	????	Illegal as address instr
 892:	3a 3a       	jl	$-906    	;abs 0x508
 894:	15 00       	mova	#0x00000,r5	
 896:	03 02       	.word	0x0203;	????	Illegal as address instr
 898:	44 3a       	jl	$-886    	;abs 0x522
 89a:	15 00       	mova	#0x00000,r5	
 89c:	03 02       	.word	0x0203;	????	Illegal as address instr
 89e:	54 3a       	jl	$-854    	;abs 0x548
 8a0:	18 00       	mova	#0x00000,r8	
 8a2:	03 02       	.word	0x0203;	????	Illegal as address instr
 8a4:	6a 3a       	jl	$-810    	;abs 0x57a
 8a6:	13 00       	.word	0x0013;	????	Illegal as address instr
 8a8:	03 02       	.word	0x0203;	????	Illegal as address instr
 8aa:	76 3a       	jl	$-786    	;abs 0x598
 8ac:	03 74       	.word	0x7403;	????	Illegal as 2-op instr
 8ae:	01 00       	mova	@r0,	r1	
 8b0:	03 02       	.word	0x0203;	????	Illegal as address instr
 8b2:	78 3a       	jl	$-782    	;abs 0x5a4
 8b4:	29 00 03 02 	mova	&0x00203,r9	
 8b8:	7e 3a       	jl	$-770    	;abs 0x5b6
 8ba:	01 00       	mova	@r0,	r1	
 8bc:	03 02       	.word	0x0203;	????	Illegal as address instr
 8be:	88 3a       	jl	$-750    	;abs 0x5d0
 8c0:	01 00       	mova	@r0,	r1	
 8c2:	03 02       	.word	0x0203;	????	Illegal as address instr
 8c4:	8a 3a       	jl	$-746    	;abs 0x5da
 8c6:	11 00       	mova	#0x00000,r1	
 8c8:	03 02       	.word	0x0203;	????	Illegal as address instr
 8ca:	8e 3a       	jl	$-738    	;abs 0x5e8
 8cc:	1a 00       	mova	#0x00000,r10	
 8ce:	03 02       	.word	0x0203;	????	Illegal as address instr
 8d0:	9a 3a       	jl	$-714    	;abs 0x606
 8d2:	0b 00       	mova	@r0,	r11	
 8d4:	03 02       	.word	0x0203;	????	Illegal as address instr
 8d6:	9c 3a       	jl	$-710    	;abs 0x610
 8d8:	1e 00       	mova	#0x00000,r14	
 8da:	03 02       	.word	0x0203;	????	Illegal as address instr
 8dc:	a0 3a       	jl	$-702    	;abs 0x61e
 8de:	10 00       	bra	#0x00000	
 8e0:	03 02       	.word	0x0203;	????	Illegal as address instr
 8e2:	aa 3a       	jl	$-682    	;abs 0x638
 8e4:	1a 00       	mova	#0x00000,r10	
 8e6:	03 02       	.word	0x0203;	????	Illegal as address instr
 8e8:	b6 3a       	jl	$-658    	;abs 0x656
 8ea:	17 00       	mova	#0x00000,r7	
 8ec:	03 02       	.word	0x0203;	????	Illegal as address instr
 8ee:	b8 3a       	jl	$-654    	;abs 0x660
 8f0:	15 00       	mova	#0x00000,r5	
 8f2:	03 02       	.word	0x0203;	????	Illegal as address instr
 8f4:	c4 3a       	jl	$-630    	;abs 0x67e
 8f6:	1a 00       	mova	#0x00000,r10	
 8f8:	03 02       	.word	0x0203;	????	Illegal as address instr
 8fa:	d6 3a       	jl	$-594    	;abs 0x6a8
 8fc:	03 4c       	.word	0x4c03;	????	Illegal as 2-op instr
 8fe:	01 00       	mova	@r0,	r1	
 900:	03 02       	.word	0x0203;	????	Illegal as address instr
 902:	e6 3a       	jl	$-562    	;abs 0x6d0
 904:	17 00       	mova	#0x00000,r7	
 906:	03 02       	.word	0x0203;	????	Illegal as address instr
 908:	ea 3a       	jl	$-554    	;abs 0x6de
 90a:	49 00       	rrcm.a	#1,	r9	
 90c:	03 02       	.word	0x0203;	????	Illegal as address instr
 90e:	f0 3a       	jl	$-542    	;abs 0x6f0
 910:	15 00       	mova	#0x00000,r5	
 912:	03 02       	.word	0x0203;	????	Illegal as address instr
 914:	f6 3a       	jl	$-530    	;abs 0x702
 916:	03 47       	.word	0x4703;	????	Illegal as 2-op instr
 918:	01 00       	mova	@r0,	r1	
 91a:	03 02       	.word	0x0203;	????	Illegal as address instr
 91c:	06 3b       	jl	$-498    	;abs 0x72a
 91e:	15 00       	mova	#0x00000,r5	
 920:	03 02       	.word	0x0203;	????	Illegal as address instr
 922:	0a 3b       	jl	$-490    	;abs 0x738
 924:	45 00       	rrcm.a	#1,	r5	
 926:	03 02       	.word	0x0203;	????	Illegal as address instr
 928:	0e 3b       	jl	$-482    	;abs 0x746
 92a:	15 00       	mova	#0x00000,r5	
 92c:	03 02       	.word	0x0203;	????	Illegal as address instr
 92e:	10 3b       	jl	$-478    	;abs 0x750
 930:	03 4e       	.word	0x4e03;	????	Illegal as 2-op instr
 932:	01 00       	mova	@r0,	r1	
 934:	03 02       	.word	0x0203;	????	Illegal as address instr
 936:	16 3b       	jl	$-466    	;abs 0x764
 938:	47 00       	rrcm.a	#1,	r7	
 93a:	03 02       	.word	0x0203;	????	Illegal as address instr
 93c:	1c 3b       	jl	$-454    	;abs 0x776
 93e:	03 be       	.word	0xbe03;	????	Illegal as 2-op instr
 940:	7d 01 00 03 	mova	r1,	768(r13);0x0300(r13)
 944:	02 1c       	.word	0x1c02;	????	
 946:	3b 15       	pushm	#4,	r11	
 948:	00 03       	bra	#2		;r3 As==10
 94a:	02 20       	jnz	$+6      	;abs 0x950
 94c:	3b 16       	popm.a	#4,	r14	
 94e:	00 03       	bra	#2		;r3 As==10
 950:	02 24       	jz	$+6      	;abs 0x956
 952:	3b 03 c9 02 	mova	#1,	r11	;r3 As==01
 956:	01 00       	mova	@r0,	r1	
 958:	03 02       	.word	0x0203;	????	Illegal as address instr
 95a:	32 3b       	jl	$-410    	;abs 0x7c0
 95c:	15 00       	mova	#0x00000,r5	
 95e:	03 02       	.word	0x0203;	????	Illegal as address instr
 960:	38 3b       	jl	$-398    	;abs 0x7d2
 962:	01 00       	mova	@r0,	r1	
 964:	03 02       	.word	0x0203;	????	Illegal as address instr
 966:	3c 3b       	jl	$-390    	;abs 0x7e0
 968:	01 00       	mova	@r0,	r1	
 96a:	03 02       	.word	0x0203;	????	Illegal as address instr
 96c:	48 3b       	jl	$-366    	;abs 0x7fe
 96e:	21 00 03 02 	mova	&0x00203,r1	
 972:	4a 3b       	jl	$-362    	;abs 0x808
 974:	13 00       	.word	0x0013;	????	Illegal as address instr
 976:	03 02       	.word	0x0203;	????	Illegal as address instr
 978:	6e 3b       	jl	$-290    	;abs 0x856
 97a:	15 00       	mova	#0x00000,r5	
 97c:	03 02       	.word	0x0203;	????	Illegal as address instr
 97e:	80 3b       	jl	$-254    	;abs 0x880
 980:	15 00       	mova	#0x00000,r5	
 982:	03 02       	.word	0x0203;	????	Illegal as address instr
 984:	96 3b       	jl	$-210    	;abs 0x8b2
 986:	16 00       	mova	#0x00000,r6	
 988:	03 02       	.word	0x0203;	????	Illegal as address instr
 98a:	a2 3b       	jl	$-186    	;abs 0x8d0
 98c:	10 00       	bra	#0x00000	
 98e:	03 02       	.word	0x0203;	????	Illegal as address instr
 990:	a6 3b       	jl	$-178    	;abs 0x8de
 992:	03 74       	.word	0x7403;	????	Illegal as 2-op instr
 994:	01 00       	mova	@r0,	r1	
 996:	03 02       	.word	0x0203;	????	Illegal as address instr
 998:	a8 3b       	jl	$-174    	;abs 0x8ea
 99a:	21 00 03 02 	mova	&0x00203,r1	
 99e:	aa 3b       	jl	$-170    	;abs 0x8f4
 9a0:	13 00       	.word	0x0013;	????	Illegal as address instr
 9a2:	03 02       	.word	0x0203;	????	Illegal as address instr
 9a4:	b0 3b       	jl	$-158    	;abs 0x906
 9a6:	1b 00       	mova	#0x00000,r11	
 9a8:	03 02       	.word	0x0203;	????	Illegal as address instr
 9aa:	b8 3b       	jl	$-142    	;abs 0x91c
 9ac:	15 00       	mova	#0x00000,r5	
 9ae:	03 02       	.word	0x0203;	????	Illegal as address instr
 9b0:	bc 3b       	jl	$-134    	;abs 0x92a
 9b2:	15 00       	mova	#0x00000,r5	
 9b4:	03 02       	.word	0x0203;	????	Illegal as address instr
 9b6:	c2 3b       	jl	$-122    	;abs 0x93c
 9b8:	03 b4       	.word	0xb403;	????	Illegal as 2-op instr
 9ba:	7f 01 00 03 	mova	r1,	768(r15);0x0300(r15)
 9be:	02 ca       	bic	r10,	r2	
 9c0:	3b 15       	pushm	#4,	r11	
 9c2:	00 03       	bra	#2		;r3 As==10
 9c4:	02 d0       	bis	r0,	r2	
 9c6:	3b 16       	popm.a	#4,	r14	
 9c8:	00 03       	bra	#2		;r3 As==10
 9ca:	02 d4       	bis	r4,	r2	
 9cc:	3b 15       	pushm	#4,	r11	
 9ce:	00 03       	bra	#2		;r3 As==10
 9d0:	02 d8       	bis	r8,	r2	
 9d2:	3b 5e       	add	@r14+,	r11	
 9d4:	00 03       	bra	#2		;r3 As==10
 9d6:	02 dc       	bis	r12,	r2	
 9d8:	3b 15       	pushm	#4,	r11	
 9da:	00 03       	bra	#2		;r3 As==10
 9dc:	02 e4       	xor	r4,	r2	
 9de:	3b 15       	pushm	#4,	r11	
 9e0:	00 03       	bra	#2		;r3 As==10
 9e2:	02 e6       	xor	r6,	r2	
 9e4:	3b 12       	push	@r11+		
 9e6:	00 03       	bra	#2		;r3 As==10
 9e8:	02 ea       	xor	r10,	r2	
 9ea:	3b 18       	.word	0x183b;	????	
 9ec:	00 03       	bra	#2		;r3 As==10
 9ee:	02 f0       	and	r0,	r2	
 9f0:	3b 03 af 7f 	mova	#1,	r11	;r3 As==01
 9f4:	01 00       	mova	@r0,	r1	
 9f6:	03 02       	.word	0x0203;	????	Illegal as address instr
 9f8:	74 3e       	jmp	$-790    	;abs 0x6e2
 9fa:	00 01       	bra	@r1		
 9fc:	01 1e       	.word	0x1e01;	????	
 9fe:	00 00       	bra	@r0		
 a00:	00 02       	bra	#4		;r2 As==10
 a02:	00 10       	rrc	r0		
 a04:	00 00       	bra	@r0		
 a06:	00 01       	bra	@r1		
 a08:	01 f6       	and	r6,	r1	
 a0a:	f5 0a       	suba	r10,	r5	
 a0c:	00 01       	bra	@r1		
 a0e:	01 01       	mova	@r1,	r1	
 a10:	01 00       	mova	@r0,	r1	
 a12:	00 00       	bra	@r0		
 a14:	01 00       	mova	@r0,	r1	
 a16:	00 00       	bra	@r0		
 a18:	03 02       	.word	0x0203;	????	Illegal as address instr
 a1a:	74 3e       	jmp	$-790    	;abs 0x704
 a1c:	00 01       	bra	@r1		
 a1e:	01 1e       	.word	0x1e01;	????	
 a20:	00 00       	bra	@r0		
 a22:	00 02       	bra	#4		;r2 As==10
 a24:	00 10       	rrc	r0		
 a26:	00 00       	bra	@r0		
 a28:	00 01       	bra	@r1		
 a2a:	01 f6       	and	r6,	r1	
 a2c:	f5 0a       	suba	r10,	r5	
 a2e:	00 01       	bra	@r1		
 a30:	01 01       	mova	@r1,	r1	
 a32:	01 00       	mova	@r0,	r1	
 a34:	00 00       	bra	@r0		
 a36:	01 00       	mova	@r0,	r1	
 a38:	00 00       	bra	@r0		
 a3a:	03 02       	.word	0x0203;	????	Illegal as address instr
 a3c:	74 3e       	jmp	$-790    	;abs 0x726
 a3e:	00 01       	bra	@r1		
 a40:	01 1e       	.word	0x1e01;	????	
 a42:	00 00       	bra	@r0		
 a44:	00 02       	bra	#4		;r2 As==10
 a46:	00 10       	rrc	r0		
 a48:	00 00       	bra	@r0		
 a4a:	00 01       	bra	@r1		
 a4c:	01 f6       	and	r6,	r1	
 a4e:	f5 0a       	suba	r10,	r5	
 a50:	00 01       	bra	@r1		
 a52:	01 01       	mova	@r1,	r1	
 a54:	01 00       	mova	@r0,	r1	
 a56:	00 00       	bra	@r0		
 a58:	01 00       	mova	@r0,	r1	
 a5a:	00 00       	bra	@r0		
 a5c:	03 02       	.word	0x0203;	????	Illegal as address instr
 a5e:	74 3e       	jmp	$-790    	;abs 0x748
 a60:	00 01       	bra	@r1		
 a62:	01 e5       	xor	r5,	r1	
 a64:	00 00       	bra	@r0		
 a66:	00 02       	bra	#4		;r2 As==10
 a68:	00 77       	subc	r7,	r0	
 a6a:	00 00       	bra	@r0		
 a6c:	00 01       	bra	@r1		
 a6e:	01 f6       	and	r6,	r1	
 a70:	f5 0a       	suba	r10,	r5	
 a72:	00 01       	bra	@r1		
 a74:	01 01       	mova	@r1,	r1	
 a76:	01 00       	mova	@r0,	r1	
 a78:	00 00       	bra	@r0		
 a7a:	01 63       	adc	r1		
 a7c:	3a 5c       	add	@r12+,	r10	
 a7e:	6d 73       	subc.b	#2,	r13	;r3 As==10
 a80:	70 67       	addc.b	@r7+,	r0	
 a82:	63 63       	.word	0x6363;	????	Illegal as 2-op instr
 a84:	5c 62 69 6e 	addc.b	&0x6e69,r12	
 a88:	5c 2e       	jc	$-838    	;abs 0x742
 a8a:	2e 2f       	jc	$-418    	;abs 0x8e8
 a8c:	6c 69       	addc.b	@r9,	r12	
 a8e:	62 2f       	jc	$-314    	;abs 0x954
 a90:	67 63       	addc.b	#2,	r7	;r3 As==10
 a92:	63 2f       	jc	$-312    	;abs 0x95a
 a94:	6d 73       	subc.b	#2,	r13	;r3 As==10
 a96:	70 34       	jge	$+226    	;abs 0xb78
 a98:	33 30       	jn	$+104    	;abs 0xb00
 a9a:	2f 34       	jge	$+96     	;abs 0xafa
 a9c:	2e 35       	jge	$+606    	;abs 0xcfa
 a9e:	2e 33       	jn	$-418    	;abs 0x8fc
 aa0:	2f 2e       	jc	$-928    	;abs 0x700
 aa2:	2e 2f       	jc	$-418    	;abs 0x900
 aa4:	2e 2e       	jc	$-930    	;abs 0x702
 aa6:	2f 2e       	jc	$-928    	;abs 0x706
 aa8:	2e 2f       	jc	$-418    	;abs 0x906
 aaa:	2e 2e       	jc	$-930    	;abs 0x708
 aac:	2f 6d       	addc	@r13,	r15	
 aae:	73 70       	.word	0x7073;	????	Illegal as 2-op instr
 ab0:	34 33       	jn	$-406    	;abs 0x91a
 ab2:	30 2f       	jc	$-414    	;abs 0x914
 ab4:	69 6e       	addc.b	@r14,	r9	
 ab6:	63 6c       	.word	0x6c63;	????	Illegal as 2-op instr
 ab8:	75 64       	addc.b	@r4+,	r5	
 aba:	65 00 00 68 	mova	r0,	&0x56800
 abe:	61 72       	subc.b	#4,	r1	;r2 As==10
 ac0:	64 77       	subc.b	@r7,	r4	
 ac2:	61 72       	subc.b	#4,	r1	;r2 As==10
 ac4:	65 5f       	add.b	@r15,	r5	
 ac6:	63 6f       	.word	0x6f63;	????	Illegal as 2-op instr
 ac8:	6e 66       	addc.b	@r6,	r14	
 aca:	69 67       	addc.b	@r7,	r9	
 acc:	2e 63       	addc	#2,	r14	;r3 As==10
 ace:	00 00       	bra	@r0		
 ad0:	00 00       	bra	@r0		
 ad2:	6d 73       	subc.b	#2,	r13	;r3 As==10
 ad4:	70 34       	jge	$+226    	;abs 0xbb6
 ad6:	33 30       	jn	$+104    	;abs 0xb3e
 ad8:	66 32       	jn	$-818    	;abs 0x7a6
 ada:	36 31       	jn	$+622    	;abs 0xd48
 adc:	38 2e       	jc	$-910    	;abs 0x74e
 ade:	68 00 01 00 	mova	r0,	&0x80001
 ae2:	00 00       	bra	@r0		
 ae4:	00 03       	bra	#2		;r3 As==10
 ae6:	02 74       	subc	r4,	r2	
 ae8:	3e 19       	.word	0x193e;	????	
 aea:	00 03       	bra	#2		;r3 As==10
 aec:	02 74       	subc	r4,	r2	
 aee:	3e 15       	pushm	#4,	r14	
 af0:	00 03       	bra	#2		;r3 As==10
 af2:	02 78       	subc	r8,	r2	
 af4:	3e 15       	pushm	#4,	r14	
 af6:	00 03       	bra	#2		;r3 As==10
 af8:	02 7e       	subc	r14,	r2	
 afa:	3e 15       	pushm	#4,	r14	
 afc:	00 03       	bra	#2		;r3 As==10
 afe:	02 84       	sub	r4,	r2	
 b00:	3e 15       	pushm	#4,	r14	
 b02:	00 03       	bra	#2		;r3 As==10
 b04:	02 8a       	sub	r10,	r2	
 b06:	3e 15       	pushm	#4,	r14	
 b08:	00 03       	bra	#2		;r3 As==10
 b0a:	02 8c       	sub	r12,	r2	
 b0c:	3e 16       	popm.a	#4,	r1	
 b0e:	00 03       	bra	#2		;r3 As==10
 b10:	02 8c       	sub	r12,	r2	
 b12:	3e 15       	pushm	#4,	r14	
 b14:	00 03       	bra	#2		;r3 As==10
 b16:	02 92       	cmp	r2,	r2	
 b18:	3e 0d 00 03 	mova	768(r13),r14	;0x0300(r13)
 b1c:	02 96       	cmp	r6,	r2	
 b1e:	3e 15       	pushm	#4,	r14	
 b20:	00 03       	bra	#2		;r3 As==10
 b22:	02 9c       	cmp	r12,	r2	
 b24:	3e 15       	pushm	#4,	r14	
 b26:	00 03       	bra	#2		;r3 As==10
 b28:	02 a2       	dadd	r2,	r2	
 b2a:	3e 15       	pushm	#4,	r14	
 b2c:	00 03       	bra	#2		;r3 As==10
 b2e:	02 a8       	dadd	r8,	r2	
 b30:	3e 1c       	.word	0x1c3e;	????	
 b32:	00 03       	bra	#2		;r3 As==10
 b34:	02 ac       	dadd	r12,	r2	
 b36:	3e 15       	pushm	#4,	r14	
 b38:	00 03       	bra	#2		;r3 As==10
 b3a:	02 b0       	bit	r0,	r2	
 b3c:	3e 16       	popm.a	#4,	r1	
 b3e:	00 03       	bra	#2		;r3 As==10
 b40:	02 b4       	bit	r4,	r2	
 b42:	3e 19       	.word	0x193e;	????	
 b44:	00 03       	bra	#2		;r3 As==10
 b46:	02 b6       	bit	r6,	r2	
 b48:	3e 00 01 01 	mova	0x0101,	r14	;PC rel. 0x00c4b
 b4c:	92 00 00 00 	cmpa	#0x00000,r2	
 b50:	02 00       	mova	@r0,	r2	
 b52:	60 00 00 00 	mova	r0,	&0x00000
 b56:	01 01       	mova	@r1,	r1	
 b58:	f6 f5 0a 00 	and.b	@r5+,	10(r6)	;0x000a(r6)
 b5c:	01 01       	mova	@r1,	r1	
 b5e:	01 01       	mova	@r1,	r1	
 b60:	00 00       	bra	@r0		
 b62:	00 01       	bra	@r1		
 b64:	2f 6f       	addc	@r15,	r15	
 b66:	70 74       	subc.b	@r4+,	r0	
 b68:	2f 6d       	addc	@r13,	r15	
 b6a:	73 70       	.word	0x7073;	????	Illegal as 2-op instr
 b6c:	67 63       	addc.b	#2,	r7	;r3 As==10
 b6e:	63 34       	jge	$+200    	;abs 0xc36
 b70:	2f 62       	addc	#4,	r15	;r2 As==10
 b72:	69 6e       	addc.b	@r14,	r9	
 b74:	2f 2e       	jc	$-928    	;abs 0x7d4
 b76:	2e 2f       	jc	$-418    	;abs 0x9d4
 b78:	6c 69       	addc.b	@r9,	r12	
 b7a:	62 2f       	jc	$-314    	;abs 0xa40
 b7c:	67 63       	addc.b	#2,	r7	;r3 As==10
 b7e:	63 2f       	jc	$-312    	;abs 0xa46
 b80:	6d 73       	subc.b	#2,	r13	;r3 As==10
 b82:	70 34       	jge	$+226    	;abs 0xc64
 b84:	33 30       	jn	$+104    	;abs 0xbec
 b86:	2f 34       	jge	$+96     	;abs 0xbe6
 b88:	2e 35       	jge	$+606    	;abs 0xde6
 b8a:	2e 33       	jn	$-418    	;abs 0x9e8
 b8c:	2f 69       	addc	@r9,	r15	
 b8e:	6e 63       	addc.b	#2,	r14	;r3 As==10
 b90:	6c 75       	subc.b	@r5,	r12	
 b92:	64 65       	addc.b	@r5,	r4	
 b94:	00 73       	sbc	r0		
 b96:	74 64       	addc.b	@r4+,	r4	
 b98:	6c 69       	addc.b	@r9,	r12	
 b9a:	62 00 00 70 	mova	r0,	&0x27000
 b9e:	72 69       	addc.b	@r9+,	r2	
 ba0:	6e 74       	subc.b	@r4,	r14	
 ba2:	66 2e       	jc	$-818    	;abs 0x870
 ba4:	63 00 02 00 	mova	r0,	&0x30002
 ba8:	00 73       	sbc	r0		
 baa:	74 64       	addc.b	@r4+,	r4	
 bac:	61 72       	subc.b	#4,	r1	;r2 As==10
 bae:	67 2e       	jc	$-816    	;abs 0x87e
 bb0:	68 00 01 00 	mova	r0,	&0x80001
 bb4:	00 00       	bra	@r0		
 bb6:	00 03       	bra	#2		;r3 As==10
 bb8:	02 b6       	bit	r6,	r2	
 bba:	3e 38       	jl	$+126    	;abs 0xc38
 bbc:	00 03       	bra	#2		;r3 As==10
 bbe:	02 b6       	bit	r6,	r2	
 bc0:	3e 19       	.word	0x193e;	????	
 bc2:	00 03       	bra	#2		;r3 As==10
 bc4:	02 c6       	bic	r6,	r2	
 bc6:	3e 17       	popm	#4,	r1	
 bc8:	00 03       	bra	#2		;r3 As==10
 bca:	02 c8       	bic	r8,	r2	
 bcc:	3e 18       	.word	0x183e;	????	
 bce:	00 03       	bra	#2		;r3 As==10
 bd0:	02 c8       	bic	r8,	r2	
 bd2:	3e 15       	pushm	#4,	r14	
 bd4:	00 03       	bra	#2		;r3 As==10
 bd6:	02 d4       	bis	r4,	r2	
 bd8:	3e 15       	pushm	#4,	r14	
 bda:	00 03       	bra	#2		;r3 As==10
 bdc:	02 d6       	bis	r6,	r2	
 bde:	3e 00 01 01 	mova	0x0101,	r14	;PC rel. 0x00ce1
 be2:	58 03       	rrum	#1,	r8	
 be4:	00 00       	bra	@r0		
 be6:	02 00       	mova	@r0,	r2	
 be8:	79 00 00 00 	mova	r0,	0(r9)	;0x0000(r9)
 bec:	01 01       	mova	@r1,	r1	
 bee:	f6 f5 0a 00 	and.b	@r5+,	10(r6)	;0x000a(r6)
 bf2:	01 01       	mova	@r1,	r1	
 bf4:	01 01       	mova	@r1,	r1	
 bf6:	00 00       	bra	@r0		
 bf8:	00 01       	bra	@r1		
 bfa:	2e 2e       	jc	$-930    	;abs 0x858
 bfc:	2f 69       	addc	@r9,	r15	
 bfe:	6e 63       	addc.b	#2,	r14	;r3 As==10
 c00:	6c 75       	subc.b	@r5,	r12	
 c02:	64 65       	addc.b	@r5,	r4	
 c04:	00 2f       	jc	$-510    	;abs 0xa06
 c06:	6f 70       	subc.b	@r0,	r15	
 c08:	74 2f       	jc	$-278    	;abs 0xaf2
 c0a:	6d 73       	subc.b	#2,	r13	;r3 As==10
 c0c:	70 67       	addc.b	@r7+,	r0	
 c0e:	63 63       	.word	0x6363;	????	Illegal as 2-op instr
 c10:	34 2f       	jc	$-406    	;abs 0xa7a
 c12:	62 69       	addc.b	@r9,	r2	
 c14:	6e 2f       	jc	$-290    	;abs 0xaf2
 c16:	2e 2e       	jc	$-930    	;abs 0x874
 c18:	2f 6c       	addc	@r12,	r15	
 c1a:	69 62       	addc.b	#4,	r9	;r2 As==10
 c1c:	2f 67       	addc	@r7,	r15	
 c1e:	63 63       	.word	0x6363;	????	Illegal as 2-op instr
 c20:	2f 6d       	addc	@r13,	r15	
 c22:	73 70       	.word	0x7073;	????	Illegal as 2-op instr
 c24:	34 33       	jn	$-406    	;abs 0xa8e
 c26:	30 2f       	jc	$-414    	;abs 0xa88
 c28:	34 2e       	jc	$-918    	;abs 0x892
 c2a:	35 2e       	jc	$-916    	;abs 0x896
 c2c:	33 2f       	jc	$-408    	;abs 0xa94
 c2e:	69 6e       	addc.b	@r14,	r9	
 c30:	63 6c       	.word	0x6c63;	????	Illegal as 2-op instr
 c32:	75 64       	addc.b	@r4+,	r5	
 c34:	65 00 73 74 	mova	r0,	&0x57473
 c38:	64 6c       	addc.b	@r12,	r4	
 c3a:	69 62       	addc.b	#4,	r9	;r2 As==10
 c3c:	00 00       	bra	@r0		
 c3e:	76 75       	subc.b	@r5+,	r6	
 c40:	70 72       	subc.b	#8,	r0	;r2 As==11
 c42:	69 6e       	addc.b	@r14,	r9	
 c44:	74 66       	addc.b	@r6+,	r4	
 c46:	2e 63       	addc	#2,	r14	;r3 As==10
 c48:	00 03       	bra	#2		;r3 As==10
 c4a:	00 00       	bra	@r0		
 c4c:	73 74       	.word	0x7473;	????	Illegal as 2-op instr
 c4e:	64 69       	addc.b	@r9,	r4	
 c50:	6e 74       	subc.b	@r4,	r14	
 c52:	2e 68       	addc	@r8,	r14	
 c54:	00 01       	bra	@r1		
 c56:	00 00       	bra	@r0		
 c58:	73 74       	.word	0x7473;	????	Illegal as 2-op instr
 c5a:	64 61       	addc.b	@r1,	r4	
 c5c:	72 67       	addc.b	@r7+,	r2	
 c5e:	2e 68       	addc	@r8,	r14	
 c60:	00 02       	bra	#4		;r2 As==10
 c62:	00 00       	bra	@r0		
 c64:	00 00       	bra	@r0		
 c66:	03 02       	.word	0x0203;	????	Illegal as address instr
 c68:	d6 3e       	jmp	$-594    	;abs 0xa16
 c6a:	78 00 03 02 	mova	r0,	515(r8)	;0x0203(r8)
 c6e:	ee 3e       	jmp	$-546    	;abs 0xa4c
 c70:	15 00       	mova	#0x00000,r5	
 c72:	03 02       	.word	0x0203;	????	Illegal as address instr
 c74:	f4 3e       	jmp	$-534    	;abs 0xa5e
 c76:	03 68       	.word	0x6803;	????	Illegal as 2-op instr
 c78:	01 00       	mova	@r0,	r1	
 c7a:	03 02       	.word	0x0203;	????	Illegal as address instr
 c7c:	fe 3e       	jmp	$-514    	;abs 0xa7a
 c7e:	16 00       	mova	#0x00000,r6	
 c80:	03 02       	.word	0x0203;	????	Illegal as address instr
 c82:	04 3f       	jmp	$-502    	;abs 0xa8c
 c84:	15 00       	mova	#0x00000,r5	
 c86:	03 02       	.word	0x0203;	????	Illegal as address instr
 c88:	1e 3f       	jmp	$-450    	;abs 0xac6
 c8a:	16 00       	mova	#0x00000,r6	
 c8c:	03 02       	.word	0x0203;	????	Illegal as address instr
 c8e:	22 3f       	jmp	$-442    	;abs 0xad4
 c90:	15 00       	mova	#0x00000,r5	
 c92:	03 02       	.word	0x0203;	????	Illegal as address instr
 c94:	2c 3f       	jmp	$-422    	;abs 0xaee
 c96:	0d 00       	mova	@r0,	r13	
 c98:	03 02       	.word	0x0203;	????	Illegal as address instr
 c9a:	2e 3f       	jmp	$-418    	;abs 0xaf8
 c9c:	1c 00       	mova	#0x00000,r12	
 c9e:	03 02       	.word	0x0203;	????	Illegal as address instr
 ca0:	30 3f       	jmp	$-414    	;abs 0xb02
 ca2:	2b 00 03 02 	mova	&0x00203,r11	
 ca6:	34 3f       	jmp	$-406    	;abs 0xb10
 ca8:	17 00       	mova	#0x00000,r7	
 caa:	03 02       	.word	0x0203;	????	Illegal as address instr
 cac:	44 3f       	jmp	$-374    	;abs 0xb36
 cae:	16 00       	mova	#0x00000,r6	
 cb0:	03 02       	.word	0x0203;	????	Illegal as address instr
 cb2:	48 3f       	jmp	$-366    	;abs 0xb44
 cb4:	15 00       	mova	#0x00000,r5	
 cb6:	03 02       	.word	0x0203;	????	Illegal as address instr
 cb8:	4c 3f       	jmp	$-358    	;abs 0xb52
 cba:	16 00       	mova	#0x00000,r6	
 cbc:	03 02       	.word	0x0203;	????	Illegal as address instr
 cbe:	4e 3f       	jmp	$-354    	;abs 0xb5c
 cc0:	17 00       	mova	#0x00000,r7	
 cc2:	03 02       	.word	0x0203;	????	Illegal as address instr
 cc4:	54 3f       	jmp	$-342    	;abs 0xb6e
 cc6:	01 00       	mova	@r0,	r1	
 cc8:	03 02       	.word	0x0203;	????	Illegal as address instr
 cca:	58 3f       	jmp	$-334    	;abs 0xb7c
 ccc:	03 6c       	.word	0x6c03;	????	Illegal as 2-op instr
 cce:	01 00       	mova	@r0,	r1	
 cd0:	03 02       	.word	0x0203;	????	Illegal as address instr
 cd2:	5c 3f       	jmp	$-326    	;abs 0xb8c
 cd4:	2d 00 03 02 	mova	&0x00203,r13	
 cd8:	64 3f       	jmp	$-310    	;abs 0xba2
 cda:	13 00       	.word	0x0013;	????	Illegal as address instr
 cdc:	03 02       	.word	0x0203;	????	Illegal as address instr
 cde:	68 3f       	jmp	$-302    	;abs 0xbb0
 ce0:	01 00       	mova	@r0,	r1	
 ce2:	03 02       	.word	0x0203;	????	Illegal as address instr
 ce4:	6a 3f       	jmp	$-298    	;abs 0xbba
 ce6:	12 00       	mova	#0x00000,r2	
 ce8:	03 02       	.word	0x0203;	????	Illegal as address instr
 cea:	70 3f       	jmp	$-286    	;abs 0xbcc
 cec:	03 75       	.word	0x7503;	????	Illegal as 2-op instr
 cee:	01 00       	mova	@r0,	r1	
 cf0:	03 02       	.word	0x0203;	????	Illegal as address instr
 cf2:	74 3f       	jmp	$-278    	;abs 0xbdc
 cf4:	0e 00       	mova	@r0,	r14	
 cf6:	03 02       	.word	0x0203;	????	Illegal as address instr
 cf8:	76 3f       	jmp	$-274    	;abs 0xbe6
 cfa:	12 00       	mova	#0x00000,r2	
 cfc:	03 02       	.word	0x0203;	????	Illegal as address instr
 cfe:	7a 3f       	jmp	$-266    	;abs 0xbf4
 d00:	2f 00 03 02 	mova	&0x00203,r15	
 d04:	80 3f       	jmp	$-254    	;abs 0xc06
 d06:	15 00       	mova	#0x00000,r5	
 d08:	03 02       	.word	0x0203;	????	Illegal as address instr
 d0a:	82 3f       	jmp	$-250    	;abs 0xc10
 d0c:	15 00       	mova	#0x00000,r5	
 d0e:	03 02       	.word	0x0203;	????	Illegal as address instr
 d10:	84 3f       	jmp	$-246    	;abs 0xc1a
 d12:	10 00       	bra	#0x00000	
 d14:	03 02       	.word	0x0203;	????	Illegal as address instr
 d16:	8a 3f       	jmp	$-234    	;abs 0xc2c
 d18:	03 69       	.word	0x6903;	????	Illegal as 2-op instr
 d1a:	01 00       	mova	@r0,	r1	
 d1c:	03 02       	.word	0x0203;	????	Illegal as address instr
 d1e:	8c 3f       	jmp	$-230    	;abs 0xc38
 d20:	12 00       	mova	#0x00000,r2	
 d22:	03 02       	.word	0x0203;	????	Illegal as address instr
 d24:	8e 3f       	jmp	$-226    	;abs 0xc42
 d26:	11 00       	mova	#0x00000,r1	
 d28:	03 02       	.word	0x0203;	????	Illegal as address instr
 d2a:	92 3f       	jmp	$-218    	;abs 0xc50
 d2c:	3b 00 03 02 	mova	0x0203,	r11	;PC rel. 0x00f31
 d30:	94 3f       	jmp	$-214    	;abs 0xc5a
 d32:	15 00       	mova	#0x00000,r5	
 d34:	03 02       	.word	0x0203;	????	Illegal as address instr
 d36:	9c 3f       	jmp	$-198    	;abs 0xc70
 d38:	03 58       	.word	0x5803;	????	Illegal as 2-op instr
 d3a:	01 00       	mova	@r0,	r1	
 d3c:	03 02       	.word	0x0203;	????	Illegal as address instr
 d3e:	a0 3f       	jmp	$-190    	;abs 0xc80
 d40:	39 00 03 02 	mova	0x0203,	r9	;PC rel. 0x00f45
 d44:	a6 3f       	jmp	$-178    	;abs 0xc92
 d46:	1d 00       	mova	#0x00000,r13	
 d48:	03 02       	.word	0x0203;	????	Illegal as address instr
 d4a:	ac 3f       	jmp	$-166    	;abs 0xca4
 d4c:	15 00       	mova	#0x00000,r5	
 d4e:	03 02       	.word	0x0203;	????	Illegal as address instr
 d50:	ae 3f       	jmp	$-162    	;abs 0xcae
 d52:	15 00       	mova	#0x00000,r5	
 d54:	03 02       	.word	0x0203;	????	Illegal as address instr
 d56:	b0 3f       	jmp	$-158    	;abs 0xcb8
 d58:	10 00       	bra	#0x00000	
 d5a:	03 02       	.word	0x0203;	????	Illegal as address instr
 d5c:	b8 3f       	jmp	$-142    	;abs 0xcce
 d5e:	1d 00       	mova	#0x00000,r13	
 d60:	03 02       	.word	0x0203;	????	Illegal as address instr
 d62:	be 3f       	jmp	$-130    	;abs 0xce0
 d64:	15 00       	mova	#0x00000,r5	
 d66:	03 02       	.word	0x0203;	????	Illegal as address instr
 d68:	c0 3f       	jmp	$-126    	;abs 0xcea
 d6a:	11 00       	mova	#0x00000,r1	
 d6c:	03 02       	.word	0x0203;	????	Illegal as address instr
 d6e:	c4 3f       	jmp	$-118    	;abs 0xcf8
 d70:	1b 00       	mova	#0x00000,r11	
 d72:	03 02       	.word	0x0203;	????	Illegal as address instr
 d74:	e2 3f       	jmp	$-58     	;abs 0xd3a
 d76:	3d 00 03 02 	mova	0x0203,	r13	;PC rel. 0x00f7b
 d7a:	02 40       	mov	r0,	r2	
 d7c:	18 00       	mova	#0x00000,r8	
 d7e:	03 02       	.word	0x0203;	????	Illegal as address instr
 d80:	06 40       	mov	r0,	r6	
 d82:	13 00       	.word	0x0013;	????	Illegal as address instr
 d84:	03 02       	.word	0x0203;	????	Illegal as address instr
 d86:	0a 40       	mov	r0,	r10	
 d88:	12 00       	mova	#0x00000,r2	
 d8a:	03 02       	.word	0x0203;	????	Illegal as address instr
 d8c:	0e 40       	mov	r0,	r14	
 d8e:	1f 00       	mova	#0x00000,r15	
 d90:	03 02       	.word	0x0203;	????	Illegal as address instr
 d92:	12 40 16 00 	mov	0x0016,	r2	;PC rel. 0x00dac
 d96:	03 02       	.word	0x0203;	????	Illegal as address instr
 d98:	16 40 18 00 	mov	0x0018,	r6	;PC rel. 0x00db4
 d9c:	03 02       	.word	0x0203;	????	Illegal as address instr
 d9e:	20 40       	br	@r0		
 da0:	17 00       	mova	#0x00000,r7	
 da2:	03 02       	.word	0x0203;	????	Illegal as address instr
 da4:	24 40       	mov	@r0,	r4	
 da6:	13 00       	.word	0x0013;	????	Illegal as address instr
 da8:	03 02       	.word	0x0203;	????	Illegal as address instr
 daa:	2c 40       	mov	@r0,	r12	
 dac:	20 00 03 02 	bra	&0x00203	
 db0:	cc 40 1c 00 	mov.b	r0,	28(r12)	;0x001c(r12)
 db4:	03 02       	.word	0x0203;	????	Illegal as address instr
 db6:	d4 40 19 00 	mov.b	0x0019,	515(r4)	;PC rel. 0x00dd3, 0x0203(r4)
 dba:	03 02 
 dbc:	dc 40 19 00 	mov.b	0x0019,	515(r12);PC rel. 0x00dd9, 0x0203(r12)
 dc0:	03 02 
 dc2:	e4 40 19 00 	mov.b	@r0,	25(r4)	;0x0019(r4)
 dc6:	03 02       	.word	0x0203;	????	Illegal as address instr
 dc8:	ee 40 1a 00 	mov.b	@r0,	26(r14)	;0x001a(r14)
 dcc:	03 02       	.word	0x0203;	????	Illegal as address instr
 dce:	fa 40 16 00 	mov.b	#22,	515(r10);#0x0016, 0x0203(r10)
 dd2:	03 02 
 dd4:	04 41       	mov	r1,	r4	
 dd6:	1c 00       	mova	#0x00000,r12	
 dd8:	03 02       	.word	0x0203;	????	Illegal as address instr
 dda:	10 41 16 00 	br	22(r1)		;0x0016(r1)
 dde:	03 02       	.word	0x0203;	????	Illegal as address instr
 de0:	14 41 15 00 	mov	21(r1),	r4	;0x0015(r1)
 de4:	03 02       	.word	0x0203;	????	Illegal as address instr
 de6:	1a 41 17 00 	mov	23(r1),	r10	;0x0017(r1)
 dea:	03 02       	.word	0x0203;	????	Illegal as address instr
 dec:	1e 41 15 00 	mov	21(r1),	r14	;0x0015(r1)
 df0:	03 02       	.word	0x0203;	????	Illegal as address instr
 df2:	28 41       	mov	@r1,	r8	
 df4:	0d 00       	mova	@r0,	r13	
 df6:	03 02       	.word	0x0203;	????	Illegal as address instr
 df8:	30 41       	ret			
 dfa:	27 00 03 02 	mova	&0x00203,r7	
 dfe:	36 41       	pop	r6		
 e00:	16 00       	mova	#0x00000,r6	
 e02:	03 02       	.word	0x0203;	????	Illegal as address instr
 e04:	5a 41 20 00 	mov.b	32(r1),	r10	;0x0020(r1)
 e08:	03 02       	.word	0x0203;	????	Illegal as address instr
 e0a:	68 41       	mov.b	@r1,	r8	
 e0c:	15 00       	mova	#0x00000,r5	
 e0e:	03 02       	.word	0x0203;	????	Illegal as address instr
 e10:	78 41       	pop.b	r8		
 e12:	19 00       	mova	#0x00000,r9	
 e14:	03 02       	.word	0x0203;	????	Illegal as address instr
 e16:	84 41 15 00 	mov	r1,	21(r4)	;0x0015(r4)
 e1a:	03 02       	.word	0x0203;	????	Illegal as address instr
 e1c:	86 41 19 00 	mov	r1,	25(r6)	;0x0019(r6)
 e20:	03 02       	.word	0x0203;	????	Illegal as address instr
 e22:	92 41 17 00 	mov	23(r1),	&0x0203	;0x0017(r1)
 e26:	03 02 
 e28:	9a 41 01 00 	mov	1(r1),	515(r10);0x0001(r1), 0x0203(r10)
 e2c:	03 02 
 e2e:	ac 41 11 00 	mov	@r1,	17(r12)	;0x0011(r12)
 e32:	03 02       	.word	0x0203;	????	Illegal as address instr
 e34:	b2 41 22 00 	pop	&0x0022	
 e38:	03 02       	.word	0x0203;	????	Illegal as address instr
 e3a:	ca 41 15 00 	mov.b	r1,	21(r10)	;0x0015(r10)
 e3e:	03 02       	.word	0x0203;	????	Illegal as address instr
 e40:	d6 41 16 00 	mov.b	22(r1),	515(r6)	;0x0016(r1), 0x0203(r6)
 e44:	03 02 
 e46:	da 41 11 00 	mov.b	17(r1),	515(r10);0x0011(r1), 0x0203(r10)
 e4a:	03 02 
 e4c:	e0 41 1c 00 	mov.b	@r1,	0x001c	;PC rel. 0x00e6c
 e50:	03 02       	.word	0x0203;	????	Illegal as address instr
 e52:	e8 41 1d 00 	mov.b	@r1,	29(r8)	;0x001d(r8)
 e56:	03 02       	.word	0x0203;	????	Illegal as address instr
 e58:	ec 41 18 00 	mov.b	@r1,	24(r12)	;0x0018(r12)
 e5c:	03 02       	.word	0x0203;	????	Illegal as address instr
 e5e:	f2 41 0a 00 	pop.b	&0x000a	
 e62:	03 02       	.word	0x0203;	????	Illegal as address instr
 e64:	f6 41 21 00 	pop.b	33(r6)		;0x0021(r6)
 e68:	03 02       	.word	0x0203;	????	Illegal as address instr
 e6a:	fe 41 16 00 	pop.b	22(r14)	;0x0016(r14)
 e6e:	03 02       	.word	0x0203;	????	Illegal as address instr
 e70:	10 42 18 00 	br	&0x0018	
 e74:	03 02       	.word	0x0203;	????	Illegal as address instr
 e76:	1c 42 16 00 	mov	&0x0016,r12	
 e7a:	03 02       	.word	0x0203;	????	Illegal as address instr
 e7c:	2e 42       	mov	#4,	r14	;r2 As==10
 e7e:	18 00       	mova	#0x00000,r8	
 e80:	03 02       	.word	0x0203;	????	Illegal as address instr
 e82:	3a 42       	mov	#8,	r10	;r2 As==11
 e84:	1b 00       	mova	#0x00000,r11	
 e86:	03 02       	.word	0x0203;	????	Illegal as address instr
 e88:	40 42       	br	r2		
 e8a:	01 00       	mova	@r0,	r1	
 e8c:	03 02       	.word	0x0203;	????	Illegal as address instr
 e8e:	4e 42       	mov.b	r2,	r14	
 e90:	15 00       	mova	#0x00000,r5	
 e92:	03 02       	.word	0x0203;	????	Illegal as address instr
 e94:	54 42 13 00 	mov.b	&0x0013,r4	
 e98:	03 02       	.word	0x0203;	????	Illegal as address instr
 e9a:	58 42 16 00 	mov.b	&0x0016,r8	
 e9e:	03 02       	.word	0x0203;	????	Illegal as address instr
 ea0:	5e 42 01 00 	mov.b	&0x0001,r14	
 ea4:	03 02       	.word	0x0203;	????	Illegal as address instr
 ea6:	62 42       	mov.b	#4,	r2	;r2 As==10
 ea8:	17 00       	mova	#0x00000,r7	
 eaa:	03 02       	.word	0x0203;	????	Illegal as address instr
 eac:	68 42       	mov.b	#4,	r8	;r2 As==10
 eae:	15 00       	mova	#0x00000,r5	
 eb0:	03 02       	.word	0x0203;	????	Illegal as address instr
 eb2:	70 42       	br	#8		;r2 As==11
 eb4:	19 00       	mova	#0x00000,r9	
 eb6:	03 02       	.word	0x0203;	????	Illegal as address instr
 eb8:	74 42       	mov.b	#8,	r4	;r2 As==11
 eba:	21 00 03 02 	mova	&0x00203,r1	
 ebe:	84 42 0c 00 	mov	r2,	12(r4)	;0x000c(r4)
 ec2:	03 02       	.word	0x0203;	????	Illegal as address instr
 ec4:	92 42 03 c2 	mov	&0xc203,&0x017e	
 ec8:	7e 01 
 eca:	00 03       	bra	#2		;r3 As==10
 ecc:	02 9a       	cmp	r10,	r2	
 ece:	42 d2       	bis.b	r2,	r2	
 ed0:	00 03       	bra	#2		;r3 As==10
 ed2:	02 a8       	dadd	r8,	r2	
 ed4:	42 15       	pushm	#5,	r2	
 ed6:	00 03       	bra	#2		;r3 As==10
 ed8:	02 b0       	bit	r0,	r2	
 eda:	42 16       	popm.a	#5,	r6	
 edc:	00 03       	bra	#2		;r3 As==10
 ede:	02 ba       	bit	r10,	r2	
 ee0:	42 18       	.word	0x1842;	????	
 ee2:	00 03       	bra	#2		;r3 As==10
 ee4:	02 ca       	bic	r10,	r2	
 ee6:	42 01       	rram.a	#1,	r2	
 ee8:	00 03       	bra	#2		;r3 As==10
 eea:	02 d0       	bis	r0,	r2	
 eec:	42 17       	popm	#5,	r6	
 eee:	00 03       	bra	#2		;r3 As==10
 ef0:	02 e4       	xor	r4,	r2	
 ef2:	42 16       	popm.a	#5,	r6	
 ef4:	00 03       	bra	#2		;r3 As==10
 ef6:	02 ec       	xor	r12,	r2	
 ef8:	42 17       	popm	#5,	r6	
 efa:	00 03       	bra	#2		;r3 As==10
 efc:	02 f2       	and	r2,	r2	
 efe:	42 16       	popm.a	#5,	r6	
 f00:	00 03       	bra	#2		;r3 As==10
 f02:	02 f6       	and	r6,	r2	
 f04:	42 18       	.word	0x1842;	????	
 f06:	00 03       	bra	#2		;r3 As==10
 f08:	02 0e       	mova	@r14,	r2	
 f0a:	43 1d       	.word	0x1d43;	????	
 f0c:	00 03       	bra	#2		;r3 As==10
 f0e:	02 16       	popm.a	#1,	r2	
 f10:	43 15       	pushm	#5,	#0	;r3 As==00
 f12:	00 03       	bra	#2		;r3 As==10
 f14:	02 1a       	.word	0x1a02;	????	
 f16:	43 15       	pushm	#5,	#0	;r3 As==00
 f18:	00 03       	bra	#2		;r3 As==10
 f1a:	02 1e       	.word	0x1e02;	????	
 f1c:	43 03       	rrum.a	#1,	#0	;r3 As==00
 f1e:	e0 7e 01 00 	subc.b	@r14,	0x0001	;PC rel. 0x00f23
 f22:	03 02       	.word	0x0203;	????	Illegal as address instr
 f24:	20 43       	br	#2		;r3 As==10
 f26:	b7 00 03 02 	suba	#0x00203,r7	
 f2a:	24 43       	mov	#2,	r4	;r3 As==10
 f2c:	03 ac       	.word	0xac03;	????	Illegal as 2-op instr
 f2e:	7e 01 00 03 	mova	r1,	768(r14);0x0300(r14)
 f32:	02 32       	jn	$-1018   	;abs 0xb38
 f34:	43 eb       	.word	0xeb43;	????	Illegal as 2-op instr
 f36:	00 03       	bra	#2		;r3 As==10
 f38:	02 4c       	mov	r12,	r2	
 f3a:	43 00       	rrcm.a	#1,	#0	;r3 As==00
 f3c:	01 01       	mova	@r1,	r1	

Disassembly of section .debug_frame:

00000000 <.debug_frame>:
   0:	0e 00       	mova	@r0,	r14	
   2:	00 00       	bra	@r0		
   4:	ff ff ff ff 	and.b	@r15+,	-1(r15)	;0xffff(r15)
   8:	01 00       	mova	@r0,	r1	
   a:	01 7e       	subc	r14,	r1	
   c:	00 0c       	bra	@r12		
   e:	01 02       	mova	#4,	r1	;r2 As==10
  10:	80 01 56 00 	bra	#0x10056	
  14:	00 00       	bra	@r0		
  16:	00 00       	bra	@r0		
  18:	00 00       	bra	@r0		
  1a:	38 31       	jn	$+626    	;abs 0x28c
  1c:	cc 00       	mova	r0,	r12	
  1e:	42 0e       	rlam.a	#4,	r2	
  20:	04 6e       	addc	r14,	r4	
  22:	0e 06       	mova	@r6,	r14	
  24:	44 0e       	rlam.a	#4,	r4	
  26:	08 40       	mov	r0,	r8	
  28:	2e 04 46 0e 	mova	&0x40e46,r14	
  2c:	04 42       	mov	r2,	r4	
  2e:	2e 00 54 0e 	mova	&0x00e54,r14	
  32:	06 44       	mov	r4,	r6	
  34:	0e 08       	mova	@r8,	r14	
  36:	40 2e       	jc	$-894    	;abs 0xfcb8
  38:	04 46       	mov	r6,	r4	
  3a:	0e 04       	mova	@r4,	r14	
  3c:	44 2e       	jc	$-886    	;abs 0xfcc6
  3e:	00 54       	add	r4,	r0	
  40:	0e 06       	mova	@r6,	r14	
  42:	44 0e       	rlam.a	#4,	r4	
  44:	08 40       	mov	r0,	r8	
  46:	2e 04 46 0e 	mova	&0x40e46,r14	
  4a:	04 44       	mov	r4,	r4	
  4c:	2e 00 54 0e 	mova	&0x00e54,r14	
  50:	06 44       	mov	r4,	r6	
  52:	0e 08       	mova	@r8,	r14	
  54:	40 2e       	jc	$-894    	;abs 0xfcd6
  56:	04 46       	mov	r6,	r4	
  58:	0e 04       	mova	@r4,	r14	
  5a:	44 2e       	jc	$-886    	;abs 0xfce4
  5c:	00 56       	add	r6,	r0	
  5e:	0e 06       	mova	@r6,	r14	
  60:	44 0e       	rlam.a	#4,	r4	
  62:	08 40       	mov	r0,	r8	
  64:	2e 04 46 0e 	mova	&0x40e46,r14	
  68:	04 44       	mov	r4,	r4	
  6a:	2e 00 0e 00 	mova	&0x0000e,r14	
  6e:	00 00       	bra	@r0		
  70:	ff ff ff ff 	and.b	@r15+,	-1(r15)	;0xffff(r15)
  74:	01 00       	mova	@r0,	r1	
  76:	01 7e       	subc	r14,	r1	
  78:	00 0c       	bra	@r12		
  7a:	01 02       	mova	#4,	r1	;r2 As==10
  7c:	80 01 08 00 	bra	#0x10008	
  80:	00 00       	bra	@r0		
  82:	6c 00 00 00 	mova	r0,	&0xc0000
  86:	3a 32       	jn	$-906    	;abs 0xfcfc
  88:	02 00       	mova	@r0,	r2	
  8a:	08 00       	mova	@r0,	r8	
  8c:	00 00       	bra	@r0		
  8e:	6c 00 00 00 	mova	r0,	&0xc0000
  92:	3c 32       	jn	$-902    	;abs 0xfd0c
  94:	02 00       	mova	@r0,	r2	
  96:	08 00       	mova	@r0,	r8	
  98:	00 00       	bra	@r0		
  9a:	6c 00 00 00 	mova	r0,	&0xc0000
  9e:	3e 32       	jn	$-898    	;abs 0xfd1c
  a0:	10 00       	bra	#0x00000	
  a2:	12 00       	mova	#0x00000,r2	
  a4:	00 00       	bra	@r0		
  a6:	6c 00 00 00 	mova	r0,	&0xc0000
  aa:	4e 32       	jn	$-866    	;abs 0xfd48
  ac:	20 00 42 0e 	bra	&0x00e42	
  b0:	04 42       	mov	r2,	r4	
  b2:	0e 06       	mova	@r6,	r14	
  b4:	8a 03 8b 02 	mova	#0x3028b,r10	
  b8:	0e 00       	mova	@r0,	r14	
  ba:	00 00       	bra	@r0		
  bc:	ff ff ff ff 	and.b	@r15+,	-1(r15)	;0xffff(r15)
  c0:	01 00       	mova	@r0,	r1	
  c2:	01 7e       	subc	r14,	r1	
  c4:	00 0c       	bra	@r12		
  c6:	01 02       	mova	#4,	r1	;r2 As==10
  c8:	80 01 08 00 	bra	#0x10008	
  cc:	00 00       	bra	@r0		
  ce:	b8 00 00 00 	suba	#0x00000,r8	
  d2:	6e 32       	jn	$-802    	;abs 0xfdb0
  d4:	4a 00       	rrcm.a	#1,	r10	
  d6:	08 00       	mova	@r0,	r8	
  d8:	00 00       	bra	@r0		
  da:	b8 00 00 00 	suba	#0x00000,r8	
  de:	b8 32       	jn	$-654    	;abs 0xfe50
  e0:	26 00 08 00 	mova	&0x00008,r6	
  e4:	00 00       	bra	@r0		
  e6:	b8 00 00 00 	suba	#0x00000,r8	
  ea:	de 32       	jn	$-578    	;abs 0xfea8
  ec:	30 00 08 00 	bra	0x0008		;PC rel. 0x000f6
  f0:	00 00       	bra	@r0		
  f2:	b8 00 00 00 	suba	#0x00000,r8	
  f6:	0e 33       	jn	$-482    	;abs 0xff14
  f8:	38 00 0e 00 	mova	0x000e,	r8	;PC rel. 0x00108
  fc:	00 00       	bra	@r0		
  fe:	b8 00 00 00 	suba	#0x00000,r8	
 102:	46 33       	jn	$-370    	;abs 0xff90
 104:	3a 00 42 0e 	mova	0x0e42,	r10	;PC rel. 0x00f48
 108:	04 8b       	sub	r11,	r4	
 10a:	02 00       	mova	@r0,	r2	
 10c:	0e 00       	mova	@r0,	r14	
 10e:	00 00       	bra	@r0		
 110:	b8 00 00 00 	suba	#0x00000,r8	
 114:	80 33       	jn	$-254    	;abs 0x16
 116:	2e 00 42 0e 	mova	&0x00e42,r14	
 11a:	04 8b       	sub	r11,	r4	
 11c:	02 00       	mova	@r0,	r2	
 11e:	0e 00       	mova	@r0,	r14	
 120:	00 00       	bra	@r0		
 122:	ff ff ff ff 	and.b	@r15+,	-1(r15)	;0xffff(r15)
 126:	01 00       	mova	@r0,	r1	
 128:	01 7e       	subc	r14,	r1	
 12a:	00 0c       	bra	@r12		
 12c:	01 02       	mova	#4,	r1	;r2 As==10
 12e:	80 01 08 00 	bra	#0x10008	
 132:	00 00       	bra	@r0		
 134:	1e 01       	mova	@r1+,	r14	
 136:	00 00       	bra	@r0		
 138:	ae 33       	jn	$-162    	;abs 0x96
 13a:	0a 00       	mova	@r0,	r10	
 13c:	0e 00       	mova	@r0,	r14	
 13e:	00 00       	bra	@r0		
 140:	1e 01       	mova	@r1+,	r14	
 142:	00 00       	bra	@r0		
 144:	b8 33       	jn	$-142    	;abs 0xb6
 146:	66 00 42 0e 	mova	r0,	&0x60e42
 14a:	04 8b       	sub	r11,	r4	
 14c:	02 00       	mova	@r0,	r2	
 14e:	0e 00       	mova	@r0,	r14	
 150:	00 00       	bra	@r0		
 152:	1e 01       	mova	@r1+,	r14	
 154:	00 00       	bra	@r0		
 156:	1e 34       	jge	$+62     	;abs 0x194
 158:	18 00       	mova	#0x00000,r8	
 15a:	42 0e       	rlam.a	#4,	r2	
 15c:	04 8b       	sub	r11,	r4	
 15e:	02 00       	mova	@r0,	r2	
 160:	12 00       	mova	#0x00000,r2	
 162:	00 00       	bra	@r0		
 164:	1e 01       	mova	@r1+,	r14	
 166:	00 00       	bra	@r0		
 168:	36 34       	jge	$+110    	;abs 0x1d6
 16a:	26 00 42 0e 	mova	&0x00e42,r6	
 16e:	04 42       	mov	r2,	r4	
 170:	0e 06       	mova	@r6,	r14	
 172:	8a 03 8b 02 	mova	#0x3028b,r10	
 176:	22 00 00 00 	mova	&0x00000,r2	
 17a:	1e 01       	mova	@r1+,	r14	
 17c:	00 00       	bra	@r0		
 17e:	5c 34       	jge	$+186    	;abs 0x238
 180:	96 00 42 0e 	cmpa	#0x00e42,r6	
 184:	04 42       	mov	r2,	r4	
 186:	0e 06       	mova	@r6,	r14	
 188:	42 0e       	rlam.a	#4,	r2	
 18a:	08 42       	mov	r2,	r8	
 18c:	0e 0a       	mova	@r10,	r14	
 18e:	88 05 89 04 	mova	#0x50489,r8	
 192:	8a 03 8b 02 	mova	#0x3028b,r10	
 196:	7c 0e 0c 4e 	mova	r14,	19980(r12);0x4e0c(r12)
 19a:	0e 0a       	mova	@r10,	r14	
 19c:	12 00       	mova	#0x00000,r2	
 19e:	00 00       	bra	@r0		
 1a0:	1e 01       	mova	@r1+,	r14	
 1a2:	00 00       	bra	@r0		
 1a4:	f2 34       	jge	$+486    	;abs 0x38a
 1a6:	14 00       	mova	#0x00000,r4	
 1a8:	42 0e       	rlam.a	#4,	r2	
 1aa:	04 4a       	mov	r10,	r4	
 1ac:	2e 02 46 0e 	mova	&0x20e46,r14	
 1b0:	02 00       	mova	@r0,	r2	
 1b2:	36 00 00 00 	mova	0x0000,	r6	;PC rel. 0x001b4
 1b6:	1e 01       	mova	@r1+,	r14	
 1b8:	00 00       	bra	@r0		
 1ba:	06 35       	jge	$+526    	;abs 0x3c8
 1bc:	6a 01 42 0e 	mova	r1,	&0xa0e42
 1c0:	04 42       	mov	r2,	r4	
 1c2:	0e 06       	mova	@r6,	r14	
 1c4:	42 0e       	rlam.a	#4,	r2	
 1c6:	08 42       	mov	r2,	r8	
 1c8:	0e 0a       	mova	@r10,	r14	
 1ca:	42 0e       	rlam.a	#4,	r2	
 1cc:	0c 42       	mov	r2,	r12	
 1ce:	0e 0e       	mova	@r14,	r14	
 1d0:	42 0e       	rlam.a	#4,	r2	
 1d2:	10 85 08 86 	sub	-31224(r5),r0	;0x8608(r5)
 1d6:	07 87       	sub	r7,	r7	
 1d8:	06 88       	sub	r8,	r6	
 1da:	05 89       	sub	r9,	r5	
 1dc:	04 8a       	sub	r10,	r4	
 1de:	03 8b       	.word	0x8b03;	????	Illegal as 2-op instr
 1e0:	02 03       	mova	#2,	r2	;r3 As==10
 1e2:	3c 01 0e 12 	mova	4622(r1),r12	;0x120e(r1)
 1e6:	4a 2e       	jc	$-874    	;abs 0xfe7c
 1e8:	02 46       	mov	r6,	r2	
 1ea:	0e 10       	rrc	r14		
 1ec:	46 00       	rrcm.a	#1,	r6	
 1ee:	00 00       	bra	@r0		
 1f0:	1e 01       	mova	@r1+,	r14	
 1f2:	00 00       	bra	@r0		
 1f4:	70 36       	jge	$-798    	;abs 0xfed6
 1f6:	a0 01 42 0e 	adda	#0x10e42,r0	
 1fa:	04 42       	mov	r2,	r4	
 1fc:	0e 06       	mova	@r6,	r14	
 1fe:	42 0e       	rlam.a	#4,	r2	
 200:	08 42       	mov	r2,	r8	
 202:	0e 0a       	mova	@r10,	r14	
 204:	42 0e       	rlam.a	#4,	r2	
 206:	0c 42       	mov	r2,	r12	
 208:	0e 0e       	mova	@r14,	r14	
 20a:	42 0e       	rlam.a	#4,	r2	
 20c:	10 42 0e 12 	br	&0x120e	
 210:	44 0e       	rlam.a	#4,	r4	
 212:	1c 84 09 85 	sub	-31479(r4),r12	;0x8509(r4)
 216:	08 86       	sub	r6,	r8	
 218:	07 87       	sub	r7,	r7	
 21a:	06 88       	sub	r8,	r6	
 21c:	05 89       	sub	r9,	r5	
 21e:	04 8a       	sub	r10,	r4	
 220:	03 8b       	.word	0x8b03;	????	Illegal as 2-op instr
 222:	02 5e       	add	r14,	r2	
 224:	0e 1e       	.word	0x1e0e;	????	
 226:	4a 2e       	jc	$-874    	;abs 0xfebc
 228:	02 02       	mova	#4,	r2	;r2 As==10
 22a:	42 0e       	rlam.a	#4,	r2	
 22c:	1c 02       	mova	#8,	r12	;r2 As==11
 22e:	62 0e 1e 02 	mova	r14,	&0x2021e
 232:	a2 0e 1c 00 	adda	#0xe001c,r2	
 236:	1c 00       	mova	#0x00000,r12	
 238:	00 00       	bra	@r0		
 23a:	1e 01       	mova	@r1+,	r14	
 23c:	00 00       	bra	@r0		
 23e:	10 38       	jl	$+34     	;abs 0x260
 240:	68 00 42 0e 	mova	r0,	&0x80e42
 244:	04 42       	mov	r2,	r4	
 246:	0e 06       	mova	@r6,	r14	
 248:	42 0e       	rlam.a	#4,	r2	
 24a:	08 42       	mov	r2,	r8	
 24c:	0e 0a       	mova	@r10,	r14	
 24e:	88 05 89 04 	mova	#0x50489,r8	
 252:	8a 03 8b 02 	mova	#0x3028b,r10	
 256:	34 00 00 00 	mova	0x0000,	r4	;PC rel. 0x00258
 25a:	1e 01       	mova	@r1+,	r14	
 25c:	00 00       	bra	@r0		
 25e:	78 38       	jl	$+242    	;abs 0x350
 260:	ce 00       	mova	r0,	r14	
 262:	42 0e       	rlam.a	#4,	r2	
 264:	04 42       	mov	r2,	r4	
 266:	0e 06       	mova	@r6,	r14	
 268:	42 0e       	rlam.a	#4,	r2	
 26a:	08 42       	mov	r2,	r8	
 26c:	0e 0a       	mova	@r10,	r14	
 26e:	42 0e       	rlam.a	#4,	r2	
 270:	0c 42       	mov	r2,	r12	
 272:	0e 0e       	mova	@r14,	r14	
 274:	42 0e       	rlam.a	#4,	r2	
 276:	10 42 0e 12 	br	&0x120e	
 27a:	42 0e       	rlam.a	#4,	r2	
 27c:	16 84 09 85 	sub	-31479(r4),r6	;0x8509(r4)
 280:	08 86       	sub	r6,	r8	
 282:	07 87       	sub	r7,	r7	
 284:	06 88       	sub	r8,	r6	
 286:	05 89       	sub	r9,	r5	
 288:	04 8a       	sub	r10,	r4	
 28a:	03 8b       	.word	0x8b03;	????	Illegal as 2-op instr
 28c:	02 00       	mova	@r0,	r2	
 28e:	22 00 00 00 	mova	&0x00000,r2	
 292:	1e 01       	mova	@r1+,	r14	
 294:	00 00       	bra	@r0		
 296:	46 39       	jl	$+654    	;abs 0x524
 298:	9a 00 42 0e 	cmpa	#0x00e42,r10	
 29c:	04 42       	mov	r2,	r4	
 29e:	0e 06       	mova	@r6,	r14	
 2a0:	42 0e       	rlam.a	#4,	r2	
 2a2:	08 42       	mov	r2,	r8	
 2a4:	0e 0a       	mova	@r10,	r14	
 2a6:	88 05 89 04 	mova	#0x50489,r8	
 2aa:	8a 03 8b 02 	mova	#0x3028b,r10	
 2ae:	7c 0e 0c 4e 	mova	r14,	19980(r12);0x4e0c(r12)
 2b2:	0e 0a       	mova	@r10,	r14	
 2b4:	08 00       	mova	@r0,	r8	
 2b6:	00 00       	bra	@r0		
 2b8:	1e 01       	mova	@r1+,	r14	
 2ba:	00 00       	bra	@r0		
 2bc:	e0 39       	jl	$+962    	;abs 0x67e
 2be:	1a 00       	mova	#0x00000,r10	
 2c0:	08 00       	mova	@r0,	r8	
 2c2:	00 00       	bra	@r0		
 2c4:	1e 01       	mova	@r1+,	r14	
 2c6:	00 00       	bra	@r0		
 2c8:	fa 39       	jl	$+1014   	;abs 0x6be
 2ca:	1a 00       	mova	#0x00000,r10	
 2cc:	22 00 00 00 	mova	&0x00000,r2	
 2d0:	1e 01       	mova	@r1+,	r14	
 2d2:	00 00       	bra	@r0		
 2d4:	14 3a       	jl	$-982    	;abs 0xfefe
 2d6:	a2 00 42 0e 	adda	#0x00e42,r2	
 2da:	04 42       	mov	r2,	r4	
 2dc:	0e 06       	mova	@r6,	r14	
 2de:	42 0e       	rlam.a	#4,	r2	
 2e0:	08 42       	mov	r2,	r8	
 2e2:	0e 0a       	mova	@r10,	r14	
 2e4:	42 0e       	rlam.a	#4,	r2	
 2e6:	0c 87       	sub	r7,	r12	
 2e8:	06 88       	sub	r8,	r6	
 2ea:	05 89       	sub	r9,	r5	
 2ec:	04 8a       	sub	r10,	r4	
 2ee:	03 8b       	.word	0x8b03;	????	Illegal as 2-op instr
 2f0:	02 00       	mova	@r0,	r2	
 2f2:	08 00       	mova	@r0,	r8	
 2f4:	00 00       	bra	@r0		
 2f6:	1e 01       	mova	@r1+,	r14	
 2f8:	00 00       	bra	@r0		
 2fa:	b6 3a       	jl	$-658    	;abs 0x68
 2fc:	66 00 08 00 	mova	r0,	&0x60008
 300:	00 00       	bra	@r0		
 302:	1e 01       	mova	@r1+,	r14	
 304:	00 00       	bra	@r0		
 306:	1c 3b       	jl	$-454    	;abs 0x140
 308:	08 00       	mova	@r0,	r8	
 30a:	36 00 00 00 	mova	0x0000,	r6	;PC rel. 0x0030c
 30e:	1e 01       	mova	@r1+,	r14	
 310:	00 00       	bra	@r0		
 312:	24 3b       	jl	$-438    	;abs 0x15c
 314:	8c 00 42 0e 	mova	#0x00e42,r12	
 318:	04 42       	mov	r2,	r4	
 31a:	0e 06       	mova	@r6,	r14	
 31c:	42 0e       	rlam.a	#4,	r2	
 31e:	08 42       	mov	r2,	r8	
 320:	0e 0a       	mova	@r10,	r14	
 322:	42 0e       	rlam.a	#4,	r2	
 324:	0c 87       	sub	r7,	r12	
 326:	06 88       	sub	r8,	r6	
 328:	05 89       	sub	r9,	r5	
 32a:	04 8a       	sub	r10,	r4	
 32c:	03 8b       	.word	0x8b03;	????	Illegal as 2-op instr
 32e:	02 66       	addc	r6,	r2	
 330:	0e 0e       	mova	@r14,	r14	
 332:	4e 0e       	rlam.a	#4,	r14	
 334:	0c 54       	add	r4,	r12	
 336:	0e 0e       	mova	@r14,	r14	
 338:	44 2e       	jc	$-886    	;abs 0xffc2
 33a:	02 46       	mov	r6,	r2	
 33c:	0e 0c       	mova	@r12,	r14	
 33e:	44 0e       	rlam.a	#4,	r4	
 340:	0e 52       	add	r2,	r14	
 342:	0e 0c       	mova	@r12,	r14	
 344:	12 00       	mova	#0x00000,r2	
 346:	00 00       	bra	@r0		
 348:	1e 01       	mova	@r1+,	r14	
 34a:	00 00       	bra	@r0		
 34c:	b0 3b       	jl	$-158    	;abs 0x2ae
 34e:	44 00       	rrcm.a	#1,	r4	
 350:	42 0e       	rlam.a	#4,	r2	
 352:	04 42       	mov	r2,	r4	
 354:	0e 06       	mova	@r6,	r14	
 356:	8a 03 8b 02 	mova	#0x3028b,r10	
 35a:	0e 00       	mova	@r0,	r14	
 35c:	00 00       	bra	@r0		
 35e:	ff ff ff ff 	and.b	@r15+,	-1(r15)	;0xffff(r15)
 362:	01 00       	mova	@r0,	r1	
 364:	01 7e       	subc	r14,	r1	
 366:	00 0c       	bra	@r12		
 368:	01 02       	mova	#4,	r1	;r2 As==10
 36a:	80 01 08 00 	bra	#0x10008	
 36e:	00 00       	bra	@r0		
 370:	5a 03       	rrum	#1,	r10	
 372:	00 00       	bra	@r0		
 374:	74 3e       	jmp	$-790    	;abs 0x5e
 376:	18 00       	mova	#0x00000,r8	
 378:	08 00       	mova	@r0,	r8	
 37a:	00 00       	bra	@r0		
 37c:	5a 03       	rrum	#1,	r10	
 37e:	00 00       	bra	@r0		
 380:	8c 3e       	jmp	$-742    	;abs 0x9a
 382:	2a 00 0e 00 	mova	&0x0000e,r10	
 386:	00 00       	bra	@r0		
 388:	ff ff ff ff 	and.b	@r15+,	-1(r15)	;0xffff(r15)
 38c:	01 00       	mova	@r0,	r1	
 38e:	01 7e       	subc	r14,	r1	
 390:	00 0c       	bra	@r12		
 392:	01 02       	mova	#4,	r1	;r2 As==10
 394:	80 01 08 00 	bra	#0x10008	
 398:	00 00       	bra	@r0		
 39a:	84 03 00 00 	mova	#0x30000,r4	
 39e:	b6 3e       	jmp	$-658    	;abs 0x10c
 3a0:	12 00       	mova	#0x00000,r2	
 3a2:	08 00       	mova	@r0,	r8	
 3a4:	00 00       	bra	@r0		
 3a6:	84 03 00 00 	mova	#0x30000,r4	
 3aa:	c8 3e       	jmp	$-622    	;abs 0x13c
 3ac:	0e 00       	mova	@r0,	r14	
 3ae:	0e 00       	mova	@r0,	r14	
 3b0:	00 00       	bra	@r0		
 3b2:	ff ff ff ff 	and.b	@r15+,	-1(r15)	;0xffff(r15)
 3b6:	01 00       	mova	@r0,	r1	
 3b8:	01 7e       	subc	r14,	r1	
 3ba:	00 0c       	bra	@r12		
 3bc:	01 02       	mova	#4,	r1	;r2 As==10
 3be:	80 01 34 00 	bra	#0x10034	
 3c2:	00 00       	bra	@r0		
 3c4:	ae 03 00 00 	adda	#0x30000,r14	
 3c8:	d6 3e       	jmp	$-594    	;abs 0x176
 3ca:	04 01       	mova	@r1,	r4	
 3cc:	42 0e       	rlam.a	#4,	r2	
 3ce:	04 42       	mov	r2,	r4	
 3d0:	0e 06       	mova	@r6,	r14	
 3d2:	42 0e       	rlam.a	#4,	r2	
 3d4:	08 42       	mov	r2,	r8	
 3d6:	0e 0a       	mova	@r10,	r14	
 3d8:	42 0e       	rlam.a	#4,	r2	
 3da:	0c 42       	mov	r2,	r12	
 3dc:	0e 0e       	mova	@r14,	r14	
 3de:	42 0e       	rlam.a	#4,	r2	
 3e0:	10 42 0e 12 	br	&0x120e	
 3e4:	42 0e       	rlam.a	#4,	r2	
 3e6:	14 84 09 85 	sub	-31479(r4),r4	;0x8509(r4)
 3ea:	08 86       	sub	r6,	r8	
 3ec:	07 87       	sub	r7,	r7	
 3ee:	06 88       	sub	r8,	r6	
 3f0:	05 89       	sub	r9,	r5	
 3f2:	04 8a       	sub	r10,	r4	
 3f4:	03 8b       	.word	0x8b03;	????	Illegal as 2-op instr
 3f6:	02 00       	mova	@r0,	r2	
 3f8:	34 00 00 00 	mova	0x0000,	r4	;PC rel. 0x003fa
 3fc:	ae 03 00 00 	adda	#0x30000,r14	
 400:	e2 3f       	jmp	$-58     	;abs 0x3c6
 402:	6a 03 42 0e 	mova	#0,	&0xa0e42;r3 As==00
 406:	04 42       	mov	r2,	r4	
 408:	0e 06       	mova	@r6,	r14	
 40a:	42 0e       	rlam.a	#4,	r2	
 40c:	08 42       	mov	r2,	r8	
 40e:	0e 0a       	mova	@r10,	r14	
 410:	42 0e       	rlam.a	#4,	r2	
 412:	0c 42       	mov	r2,	r12	
 414:	0e 0e       	mova	@r14,	r14	
 416:	42 0e       	rlam.a	#4,	r2	
 418:	10 42 0e 12 	br	&0x120e	
 41c:	44 0e       	rlam.a	#4,	r4	
 41e:	34 84       	sub	@r4+,	r4	
 420:	09 85       	sub	r5,	r9	
 422:	08 86       	sub	r6,	r8	
 424:	07 87       	sub	r7,	r7	
 426:	06 88       	sub	r8,	r6	
 428:	05 89       	sub	r9,	r5	
 42a:	04 8a       	sub	r10,	r4	
 42c:	03 8b       	.word	0x8b03;	????	Illegal as 2-op instr
 42e:	02 00       	mova	@r0,	r2	

Disassembly of section .debug_str:

00000000 <.debug_str>:
   0:	6c 6f       	addc.b	@r15,	r12	
   2:	6e 67       	addc.b	@r7,	r14	
   4:	20 6c       	addc	@r12,	r0	
   6:	6f 6e       	addc.b	@r14,	r15	
   8:	67 20       	jnz	$+208    	;abs 0xd8
   a:	69 6e       	addc.b	@r14,	r9	
   c:	74 00 6d 61 	mova	r0,	24941(r4);0x616d(r4)
  10:	69 6e       	addc.b	@r14,	r9	
  12:	2e 63       	addc	#2,	r14	;r3 As==10
  14:	00 44       	br	r4		
  16:	61 74       	subc.b	@r4,	r1	
  18:	61 00 4c 43 	mova	r0,	&0x1434c
  1c:	44 42       	mov.b	r2,	r4	
  1e:	61 63       	addc.b	#2,	r1	;r3 As==10
  20:	6b 43       	mov.b	#2,	r11	;r3 As==10
  22:	6f 6c       	addc.b	@r12,	r15	
  24:	6f 72       	subc.b	#4,	r15	;r2 As==10
  26:	00 6c       	addc	r12,	r0	
  28:	6f 6e       	addc.b	@r14,	r15	
  2a:	67 20       	jnz	$+208    	;abs 0xfa
  2c:	6c 6f       	addc.b	@r15,	r12	
  2e:	6e 67       	addc.b	@r7,	r14	
  30:	20 75       	subc	@r5,	r0	
  32:	6e 73       	subc.b	#2,	r14	;r3 As==10
  34:	69 67       	addc.b	@r7,	r9	
  36:	6e 65       	addc.b	@r5,	r14	
  38:	64 20       	jnz	$+202    	;abs 0x102
  3a:	69 6e       	addc.b	@r14,	r9	
  3c:	74 00 59 3a 	mova	r0,	14937(r4);0x3a59(r4)
  40:	5c 6d 69 6e 	addc.b	28265(r13),r12	;0x6e69(r13)
  44:	69 71       	subc.b	@r1,	r9	
  46:	75 61       	addc.b	@r1+,	r5	
  48:	64 49       	mov.b	@r9,	r4	
  4a:	54 47 33 32 	mov.b	12851(r7),r4	;0x3233(r7)
  4e:	30 30       	jn	$+98     	;abs 0xb0
  50:	00 49       	br	r9		
  52:	54 47 33 32 	mov.b	12851(r7),r4	;0x3233(r7)
  56:	30 30       	jn	$+98     	;abs 0xb8
  58:	5f 49 32 43 	mov.b	17202(r9),r15	;0x4332(r9)
  5c:	41 64       	addc.b	r4,	r1	
  5e:	64 72       	subc.b	#4,	r4	;r2 As==10
  60:	65 73       	subc.b	#2,	r5	;r3 As==10
  62:	73 00       	.word	0x0073;	????	Illegal as address instr
  64:	47 4e       	mov.b	r14,	r7	
  66:	55 20       	jnz	$+172    	;abs 0x112
  68:	43 20       	jnz	$+136    	;abs 0xf0
  6a:	34 2e       	jc	$-918    	;abs 0xfcd4
  6c:	35 2e       	jc	$-916    	;abs 0xfcd8
  6e:	33 00       	.word	0x0033;	????	Illegal as address instr
  70:	75 6e       	addc.b	@r14+,	r5	
  72:	73 69       	.word	0x6973;	????	Illegal as 2-op instr
  74:	67 6e       	addc.b	@r14,	r7	
  76:	65 64       	addc.b	@r4,	r5	
  78:	20 63       	addc	#2,	r0	;r3 As==10
  7a:	68 61       	addc.b	@r1,	r8	
  7c:	72 00 6d 61 	mova	r0,	&0x616d	
  80:	69 6e       	addc.b	@r14,	r9	
  82:	00 45       	br	r5		
  84:	45 50       	add.b	r0,	r5	
  86:	52 4f 4d 5f 	mov.b	24397(r15),r2	;0x5f4d(r15)
  8a:	49 32       	jn	$-876    	;abs 0xfd1e
  8c:	43 41       	.word	0x4143;	????	Illegal as 2-op instr
  8e:	64 64       	addc.b	@r4,	r4	
  90:	72 65       	addc.b	@r5+,	r2	
  92:	73 73       	.word	0x7373;	????	Illegal as 2-op instr
  94:	00 2a       	jnc	$-1022   	;abs 0xfc96
  96:	5f 5f 55 43 	add.b	17237(r15),r15	;0x4355(r15)
  9a:	42 30       	jn	$+134    	;abs 0x120
  9c:	53 54       	.word	0x5453;	????	Illegal as 2-op instr
  9e:	41 54       	add.b	r4,	r1	
  a0:	00 73       	sbc	r0		
  a2:	68 6f       	addc.b	@r15,	r8	
  a4:	72 74       	subc.b	@r4+,	r2	
  a6:	20 75       	subc	@r5,	r0	
  a8:	6e 73       	subc.b	#2,	r14	;r3 As==10
  aa:	69 67       	addc.b	@r7,	r9	
  ac:	6e 65       	addc.b	@r5,	r14	
  ae:	64 20       	jnz	$+202    	;abs 0x178
  b0:	69 6e       	addc.b	@r14,	r9	
  b2:	74 00 48 4d 	mova	r0,	19784(r4);0x4d48(r4)
  b6:	43 35       	jge	$+648    	;abs 0x33e
  b8:	38 34       	jge	$+114    	;abs 0x12a
  ba:	33 5f       	.word	0x5f33;	????	Illegal as 2-op instr
  bc:	49 32       	jn	$-876    	;abs 0xfd50
  be:	43 41       	.word	0x4143;	????	Illegal as 2-op instr
  c0:	64 64       	addc.b	@r4,	r4	
  c2:	72 65       	addc.b	@r5+,	r2	
  c4:	73 73       	.word	0x7373;	????	Illegal as 2-op instr
  c6:	00 74       	subc	r4,	r0	
  c8:	65 6d       	addc.b	@r13,	r5	
  ca:	70 6f       	addc.b	@r15+,	r0	
  cc:	00 64       	addc	r4,	r0	
  ce:	65 6c       	addc.b	@r12,	r5	
  d0:	61 79       	subc.b	@r9,	r1	
  d2:	6d 73       	subc.b	#2,	r13	;r3 As==10
  d4:	00 64       	addc	r4,	r0	
  d6:	65 6c       	addc.b	@r12,	r5	
  d8:	61 79       	subc.b	@r9,	r1	
  da:	35 75       	subc	@r5+,	r5	
  dc:	73 00       	.word	0x0073;	????	Illegal as address instr
  de:	43 3a       	jl	$-888    	;abs 0xfd66
  e0:	5c 55 73 65 	add.b	25971(r5),r12	;0x6573(r5)
  e4:	72 73       	subc.b	#-1,	r2	;r3 As==11
  e6:	5c 66 6c 61 	addc.b	24940(r6),r12	;0x616c(r6)
  ea:	76 69       	addc.b	@r9+,	r6	
  ec:	6f 68       	addc.b	@r8,	r15	
  ee:	70 6f       	addc.b	@r15+,	r0	
  f0:	5c 44 65 73 	mov.b	29541(r4),r12	;0x7365(r4)
  f4:	6b 74       	subc.b	@r4,	r11	
  f6:	6f 70       	subc.b	@r0,	r15	
  f8:	5c 6d 69 6e 	addc.b	28265(r13),r12	;0x6e69(r13)
  fc:	69 71       	subc.b	@r1,	r9	
  fe:	75 61       	addc.b	@r1+,	r5	
 100:	64 5c       	add.b	@r12,	r4	
 102:	6d 69       	addc.b	@r9,	r13	
 104:	6e 69       	addc.b	@r9,	r14	
 106:	71 75       	subc.b	@r5+,	r1	
 108:	61 64       	addc.b	@r4,	r1	
 10a:	5c 6d 69 6e 	addc.b	28265(r13),r12	;0x6e69(r13)
 10e:	69 71       	subc.b	@r1,	r9	
 110:	75 61       	addc.b	@r1+,	r5	
 112:	64 49       	mov.b	@r9,	r4	
 114:	54 47 33 32 	mov.b	12851(r7),r4	;0x3233(r7)
 118:	30 30       	jn	$+98     	;abs 0x17a
 11a:	00 64       	addc	r4,	r0	
 11c:	65 6c       	addc.b	@r12,	r5	
 11e:	61 79       	subc.b	@r9,	r1	
 120:	75 73       	subc.b	#-1,	r5	;r3 As==11
 122:	00 64       	addc	r4,	r0	
 124:	65 6c       	addc.b	@r12,	r5	
 126:	61 79       	subc.b	@r9,	r1	
 128:	2e 63       	addc	#2,	r14	;r3 As==10
 12a:	00 64       	addc	r4,	r0	
 12c:	65 6c       	addc.b	@r12,	r5	
 12e:	61 79       	subc.b	@r9,	r1	
 130:	32 75       	subc	@r5+,	r2	
 132:	73 00       	.word	0x0073;	????	Illegal as address instr
 134:	2a 5f       	add	@r15,	r10	
 136:	5f 55 43 42 	add.b	16963(r5),r15	;0x4243(r5)
 13a:	30 54       	add	@r4+,	r0	
 13c:	58 42 55 46 	mov.b	&0x4655,r8	
 140:	00 49       	br	r9		
 142:	32 43       	mov	#-1,	r2	;r3 As==11
 144:	5f 53       	inc.b	r15		
 146:	54 41 54 5f 	mov.b	24404(r1),r4	;0x5f54(r1)
 14a:	42 55       	add.b	r5,	r2	
 14c:	53 59       	.word	0x5953;	????	Illegal as 2-op instr
 14e:	00 69       	addc	r9,	r0	
 150:	32 63       	addc	#-1,	r2	;r3 As==11
 152:	5f 66 69 6e 	addc.b	28265(r6),r15	;0x6e69(r6)
 156:	64 5f       	add.b	@r15,	r4	
 158:	61 64       	addc.b	@r4,	r1	
 15a:	64 72       	subc.b	#4,	r4	;r2 As==10
 15c:	65 73       	subc.b	#2,	r5	;r3 As==10
 15e:	73 00       	.word	0x0073;	????	Illegal as address instr
 160:	2a 5f       	add	@r15,	r10	
 162:	5f 50 33 53 	add.b	0x5333,	r15	;PC rel. 0x05499
 166:	45 4c       	mov.b	r12,	r5	
 168:	00 49       	br	r9		
 16a:	32 43       	mov	#-1,	r2	;r3 As==11
 16c:	5f 53       	inc.b	r15		
 16e:	54 41 54 5f 	mov.b	24404(r1),r4	;0x5f54(r1)
 172:	41 43       	clr.b	r1		
 174:	4b 00       	rrcm.a	#1,	r11	
 176:	53 65       	.word	0x6553;	????	Illegal as 2-op instr
 178:	6e 64       	addc.b	@r4,	r14	
 17a:	4e 61       	addc.b	r1,	r14	
 17c:	63 6b       	.word	0x6b63;	????	Illegal as 2-op instr
 17e:	00 69       	addc	r9,	r0	
 180:	32 63       	addc	#-1,	r2	;r3 As==11
 182:	5f 77 72 69 	subc.b	26994(r7),r15	;0x6972(r7)
 186:	74 65       	addc.b	@r5+,	r4	
 188:	5f 72 65 67 	subc.b	&0x6765,r15	
 18c:	69 73       	subc.b	#2,	r9	;r3 As==10
 18e:	74 65       	addc.b	@r5+,	r4	
 190:	72 00 53 65 	mova	r0,	&0x6553	
 194:	6e 64       	addc.b	@r4,	r14	
 196:	53 74       	.word	0x7453;	????	Illegal as 2-op instr
 198:	6f 70       	subc.b	@r0,	r15	
 19a:	00 69       	addc	r9,	r0	
 19c:	32 63       	addc	#-1,	r2	;r3 As==11
 19e:	5f 72 65 61 	subc.b	&0x6165,r15	
 1a2:	64 5f       	add.b	@r15,	r4	
 1a4:	72 65       	addc.b	@r5+,	r2	
 1a6:	67 69       	addc.b	@r9,	r7	
 1a8:	73 74       	.word	0x7473;	????	Illegal as 2-op instr
 1aa:	65 72       	subc.b	#4,	r5	;r2 As==10
 1ac:	00 49       	br	r9		
 1ae:	32 43       	mov	#-1,	r2	;r3 As==11
 1b0:	5f 53       	inc.b	r15		
 1b2:	54 41 54 5f 	mov.b	24404(r1),r4	;0x5f54(r1)
 1b6:	57 52 49 54 	add.b	&0x5449,r7	
 1ba:	45 5f       	add.b	r15,	r5	
 1bc:	54 49 4d 45 	mov.b	17741(r9),r4	;0x454d(r9)
 1c0:	4f 55       	add.b	r5,	r15	
 1c2:	54 00       	rrcm	#1,	r4	
 1c4:	49 32       	jn	$-876    	;abs 0xfe58
 1c6:	43 5f       	.word	0x5f43;	????	Illegal as 2-op instr
 1c8:	53 54       	.word	0x5453;	????	Illegal as 2-op instr
 1ca:	41 54       	add.b	r4,	r1	
 1cc:	5f 52 45 41 	add.b	&0x4145,r15	
 1d0:	44 5f       	add.b	r15,	r4	
 1d2:	54 49 4d 45 	mov.b	17741(r9),r4	;0x454d(r9)
 1d6:	4f 55       	add.b	r5,	r15	
 1d8:	54 00       	rrcm	#1,	r4	
 1da:	69 32       	jn	$-812    	;abs 0xfeae
 1dc:	63 5f       	.word	0x5f63;	????	Illegal as 2-op instr
 1de:	72 65       	addc.b	@r5+,	r2	
 1e0:	61 64       	addc.b	@r4,	r1	
 1e2:	5f 62 79 74 	addc.b	&0x7479,r15	
 1e6:	65 00 2a 5f 	mova	r0,	&0x55f2a
 1ea:	5f 55 43 42 	add.b	16963(r5),r15	;0x4243(r5)
 1ee:	30 43       	br	#-1		;r3 As==11
 1f0:	54 4c 30 00 	mov.b	48(r12),r4	;0x0030(r12)
 1f4:	53 6c       	.word	0x6c53;	????	Illegal as 2-op instr
 1f6:	61 76       	subc.b	@r6,	r1	
 1f8:	65 41       	mov.b	@r1,	r5	
 1fa:	64 64       	addc.b	@r4,	r4	
 1fc:	72 65       	addc.b	@r5+,	r2	
 1fe:	73 73       	.word	0x7373;	????	Illegal as 2-op instr
 200:	00 49       	br	r9		
 202:	32 43       	mov	#-1,	r2	;r3 As==11
 204:	5f 53       	inc.b	r15		
 206:	54 41 54 5f 	mov.b	24404(r1),r4	;0x5f54(r1)
 20a:	44 41       	mov.b	r1,	r4	
 20c:	54 41 5f 4e 	mov.b	20063(r1),r4	;0x4e5f(r1)
 210:	41 43       	clr.b	r1		
 212:	4b 00       	rrcm.a	#1,	r11	
 214:	69 32       	jn	$-812    	;abs 0xfee8
 216:	63 2e       	jc	$-824    	;abs 0xfede
 218:	63 00 69 32 	mova	r0,	&0x33269
 21c:	63 5f       	.word	0x5f63;	????	Illegal as 2-op instr
 21e:	77 72       	subc.b	#8,	r7	;r2 As==11
 220:	69 74       	subc.b	@r4,	r9	
 222:	65 5f       	add.b	@r15,	r5	
 224:	62 79       	subc.b	@r9,	r2	
 226:	74 65       	addc.b	@r5+,	r4	
 228:	00 2a       	jnc	$-1022   	;abs 0xfe2a
 22a:	5f 5f 55 43 	add.b	17237(r15),r15	;0x4355(r15)
 22e:	42 30       	jn	$+134    	;abs 0x2b4
 230:	42 52       	rla.b	r2		
 232:	31 00 49 32 	mova	0x3249,	r1	;PC rel. 0x0347d
 236:	43 5f       	.word	0x5f43;	????	Illegal as 2-op instr
 238:	53 54       	.word	0x5453;	????	Illegal as 2-op instr
 23a:	41 54       	add.b	r4,	r1	
 23c:	5f 46 4f 55 	mov.b	21839(r6),r15	;0x554f(r6)
 240:	4e 44       	mov.b	r4,	r14	
 242:	00 49       	br	r9		
 244:	32 43       	mov	#-1,	r2	;r3 As==11
 246:	5f 53       	inc.b	r15		
 248:	54 41 54 5f 	mov.b	24404(r1),r4	;0x5f54(r1)
 24c:	44 41       	mov.b	r1,	r4	
 24e:	54 41 5f 52 	mov.b	21087(r1),r4	;0x525f(r1)
 252:	45 41       	mov.b	r1,	r5	
 254:	44 59       	add.b	r9,	r4	
 256:	00 52       	add	r2,	r0	
 258:	65 73       	subc.b	#2,	r5	;r3 As==10
 25a:	75 6c       	addc.b	@r12+,	r5	
 25c:	74 00 69 32 	mova	r0,	12905(r4);0x3269(r4)
 260:	63 5f       	.word	0x5f63;	????	Illegal as 2-op instr
 262:	69 6e       	addc.b	@r14,	r9	
 264:	69 74       	subc.b	@r4,	r9	
 266:	5f 6d 6f 64 	addc.b	25711(r13),r15	;0x646f(r13)
 26a:	75 6c       	addc.b	@r12+,	r5	
 26c:	65 00 49 32 	mova	r0,	&0x53249
 270:	43 5f       	.word	0x5f43;	????	Illegal as 2-op instr
 272:	53 54       	.word	0x5453;	????	Illegal as 2-op instr
 274:	41 54       	add.b	r4,	r1	
 276:	5f 46 41 49 	mov.b	18753(r6),r15	;0x4941(r6)
 27a:	4c 00       	rrcm.a	#1,	r12	
 27c:	49 32       	jn	$-876    	;abs 0xff10
 27e:	43 5f       	.word	0x5f43;	????	Illegal as 2-op instr
 280:	53 54       	.word	0x5453;	????	Illegal as 2-op instr
 282:	41 54       	add.b	r4,	r1	
 284:	5f 44 4f 4e 	mov.b	20047(r4),r15	;0x4e4f(r4)
 288:	45 00       	rrcm.a	#1,	r5	
 28a:	49 32       	jn	$-876    	;abs 0xff1e
 28c:	43 5f       	.word	0x5f43;	????	Illegal as 2-op instr
 28e:	53 54       	.word	0x5453;	????	Illegal as 2-op instr
 290:	41 54       	add.b	r4,	r1	
 292:	55 53       	inc.b	r5		
 294:	00 2a       	jnc	$-1022   	;abs 0xfe96
 296:	5f 5f 55 43 	add.b	17237(r15),r15	;0x4355(r15)
 29a:	42 30       	jn	$+134    	;abs 0x320
 29c:	43 54       	.word	0x5443;	????	Illegal as 2-op instr
 29e:	4c 31       	jn	$+666    	;abs 0x538
 2a0:	00 2a       	jnc	$-1022   	;abs 0xfea2
 2a2:	5f 5f 55 43 	add.b	17237(r15),r15	;0x4355(r15)
 2a6:	42 30       	jn	$+134    	;abs 0x32c
 2a8:	49 32       	jn	$-876    	;abs 0xff3c
 2aa:	43 53       	.word	0x5343;	????	Illegal as emulation instr
 2ac:	41 00       	rrcm.a	#1,	r1	
 2ae:	2a 5f       	add	@r15,	r10	
 2b0:	5f 55 43 42 	add.b	16963(r5),r15	;0x4243(r5)
 2b4:	30 52       	add	#8,	r0	;r2 As==11
 2b6:	58 42 55 46 	mov.b	&0x4655,r8	
 2ba:	00 49       	br	r9		
 2bc:	32 43       	mov	#-1,	r2	;r3 As==11
 2be:	5f 53       	inc.b	r15		
 2c0:	54 41 54 5f 	mov.b	24404(r1),r4	;0x5f54(r1)
 2c4:	4e 4f       	mov.b	r15,	r14	
 2c6:	4e 45       	mov.b	r5,	r14	
 2c8:	00 49       	br	r9		
 2ca:	32 43       	mov	#-1,	r2	;r3 As==11
 2cc:	5f 53       	inc.b	r15		
 2ce:	54 41 54 5f 	mov.b	24404(r1),r4	;0x5f54(r1)
 2d2:	41 44       	mov.b	r4,	r1	
 2d4:	44 52       	add.b	r2,	r4	
 2d6:	5f 4e 41 43 	mov.b	17217(r14),r15	;0x4341(r14)
 2da:	4b 00       	rrcm.a	#1,	r11	
 2dc:	49 32       	jn	$-876    	;abs 0xff70
 2de:	43 5f       	.word	0x5f43;	????	Illegal as 2-op instr
 2e0:	53 54       	.word	0x5453;	????	Illegal as 2-op instr
 2e2:	41 54       	add.b	r4,	r1	
 2e4:	5f 49 44 4c 	mov.b	19524(r9),r15	;0x4c44(r9)
 2e8:	45 00       	rrcm.a	#1,	r5	
 2ea:	2a 5f       	add	@r15,	r10	
 2ec:	5f 49 46 47 	mov.b	18246(r9),r15	;0x4746(r9)
 2f0:	32 00 52 65 	mova	0x6552,	r2	;PC rel. 0x06844
 2f4:	67 69       	addc.b	@r9,	r7	
 2f6:	73 74       	.word	0x7473;	????	Illegal as 2-op instr
 2f8:	65 72       	subc.b	#4,	r5	;r2 As==10
 2fa:	00 49       	br	r9		
 2fc:	32 43       	mov	#-1,	r2	;r3 As==11
 2fe:	5f 53       	inc.b	r15		
 300:	54 41 54 5f 	mov.b	24404(r1),r4	;0x5f54(r1)
 304:	4e 4f       	mov.b	r15,	r14	
 306:	54 5f 46 4f 	add.b	20294(r15),r4	;0x4f46(r15)
 30a:	55 4e 44 00 	mov.b	68(r14),r5	;0x0044(r14)
 30e:	2a 5f       	add	@r15,	r10	
 310:	5f 55 43 42 	add.b	16963(r5),r15	;0x4243(r5)
 314:	30 42       	br	#8		;r2 As==11
 316:	52 30       	jn	$+166    	;abs 0x3bc
 318:	00 63       	adc	r0		
 31a:	6f 6d       	addc.b	@r13,	r15	
 31c:	6d 00 6c 63 	mova	r0,	&0xd636c
 320:	64 5f       	add.b	@r15,	r4	
 322:	6e 65       	addc.b	@r5,	r14	
 324:	77 6c       	addc.b	@r12+,	r7	
 326:	69 6e       	addc.b	@r14,	r9	
 328:	65 00 62 61 	mova	r0,	&0x56162
 32c:	63 6b       	.word	0x6b63;	????	Illegal as 2-op instr
 32e:	67 72       	subc.b	#4,	r7	;r2 As==10
 330:	6f 75       	subc.b	@r5,	r15	
 332:	6e 64       	addc.b	@r4,	r14	
 334:	5f 63       	addc.b	#1,	r15	;r3 As==01
 336:	6f 6c       	addc.b	@r12,	r15	
 338:	6f 72       	subc.b	#4,	r15	;r2 As==10
 33a:	00 4c       	br	r12		
 33c:	43 44       	.word	0x4443;	????	Illegal as 2-op instr
 33e:	4c 69       	addc.b	r9,	r12	
 340:	6e 65       	addc.b	@r5,	r14	
 342:	43 6f       	.word	0x6f43;	????	Illegal as 2-op instr
 344:	75 6e       	addc.b	@r14+,	r5	
 346:	74 00 73 74 	mova	r0,	29811(r4);0x7473(r4)
 34a:	65 70       	subc.b	@r0,	r5	
 34c:	78 00 6e 36 	mova	r0,	13934(r8);0x366e(r8)
 350:	31 30       	jn	$+100    	;abs 0x3b4
 352:	30 5f       	add	@r15+,	r0	
 354:	73 65       	.word	0x6573;	????	Illegal as 2-op instr
 356:	6e 64       	addc.b	@r4,	r14	
 358:	00 6c       	addc	r12,	r0	
 35a:	63 64       	.word	0x6463;	????	Illegal as 2-op instr
 35c:	5f 64 72 61 	addc.b	24946(r4),r15	;0x6172(r4)
 360:	77 70 6f 69 	subc.b	#26991,	r7	;#0x696f
 364:	6e 74       	subc.b	@r4,	r14	
 366:	00 6c       	addc	r12,	r0	
 368:	63 64       	.word	0x6463;	????	Illegal as 2-op instr
 36a:	36 31       	jn	$+622    	;abs 0x5d8
 36c:	30 30       	jn	$+98     	;abs 0x3ce
 36e:	2e 63       	addc	#2,	r14	;r3 As==10
 370:	00 2a       	jnc	$-1022   	;abs 0xff72
 372:	5f 5f 50 35 	add.b	13648(r15),r15	;0x3550(r15)
 376:	4f 55       	add.b	r5,	r15	
 378:	54 00       	rrcm	#1,	r4	
 37a:	6c 63       	addc.b	#2,	r12	;r3 As==10
 37c:	64 5f       	add.b	@r15,	r4	
 37e:	77 72       	subc.b	#8,	r7	;r2 As==11
 380:	63 68       	.word	0x6863;	????	Illegal as 2-op instr
 382:	61 72       	subc.b	#4,	r1	;r2 As==10
 384:	00 6c       	addc	r12,	r0	
 386:	63 64       	.word	0x6463;	????	Illegal as 2-op instr
 388:	5f 69 6e 69 	addc.b	26990(r9),r15	;0x696e(r9)
 38c:	74 00 66 72 	mova	r0,	29286(r4);0x7266(r4)
 390:	61 63       	addc.b	#2,	r1	;r3 As==10
 392:	74 69       	addc.b	@r9+,	r4	
 394:	6f 6e       	addc.b	@r14,	r15	
 396:	00 77       	subc	r7,	r0	
 398:	69 64       	addc.b	@r4,	r9	
 39a:	74 68       	addc.b	@r8+,	r4	
 39c:	00 63       	adc	r0		
 39e:	6f 6c       	addc.b	@r12,	r15	
 3a0:	6f 72       	subc.b	#4,	r15	;r2 As==10
 3a2:	70 72       	subc.b	#8,	r0	;r2 As==11
 3a4:	6f 67       	addc.b	@r7,	r15	
 3a6:	72 65       	addc.b	@r5+,	r2	
 3a8:	73 73       	.word	0x7373;	????	Illegal as 2-op instr
 3aa:	00 6c       	addc	r12,	r0	
 3ac:	78 5f       	add.b	@r15+,	r8	
 3ae:	70 72       	subc.b	#8,	r0	;r2 As==11
 3b0:	6f 67       	addc.b	@r7,	r15	
 3b2:	72 65       	addc.b	@r5+,	r2	
 3b4:	73 73       	.word	0x7373;	????	Illegal as 2-op instr
 3b6:	00 61       	addc	r1,	r0	
 3b8:	64 64       	addc.b	@r4,	r4	
 3ba:	72 00 6c 63 	mova	r0,	&0x636c	
 3be:	64 5f       	add.b	@r15,	r4	
 3c0:	67 6f       	addc.b	@r15,	r7	
 3c2:	74 6f       	addc.b	@r15+,	r4	
 3c4:	00 6c       	addc	r12,	r0	
 3c6:	63 64       	.word	0x6463;	????	Illegal as 2-op instr
 3c8:	5f 70 75 74 	subc.b	0x7475,	r15	;PC rel. 0x07841
 3cc:	64 6f       	addc.b	@r15,	r4	
 3ce:	74 00 6e 36 	mova	r0,	13934(r4);0x366e(r4)
 3d2:	31 30       	jn	$+100    	;abs 0x436
 3d4:	30 5f       	add	@r15+,	r0	
 3d6:	73 65       	.word	0x6573;	????	Illegal as 2-op instr
 3d8:	6e 64       	addc.b	@r4,	r14	
 3da:	63 6f       	.word	0x6f63;	????	Illegal as 2-op instr
 3dc:	6d 31       	jn	$+732    	;abs 0x6b8
 3de:	00 6e       	addc	r14,	r0	
 3e0:	36 31       	jn	$+622    	;abs 0x64e
 3e2:	30 30       	jn	$+98     	;abs 0x444
 3e4:	5f 73       	subc.b	#1,	r15	;r3 As==01
 3e6:	65 6e       	addc.b	@r14,	r5	
 3e8:	64 63       	addc.b	#2,	r4	;r3 As==10
 3ea:	6f 6d       	addc.b	@r13,	r15	
 3ec:	32 00 72 61 	mova	0x6172,	r2	;PC rel. 0x06560
 3f0:	64 69       	addc.b	@r9,	r4	
 3f2:	75 73       	subc.b	#-1,	r5	;r3 As==11
 3f4:	00 64       	addc	r4,	r0	
 3f6:	61 74       	subc.b	@r4,	r1	
 3f8:	31 00 6c 63 	mova	0x636c,	r1	;PC rel. 0x06766
 3fc:	64 5f       	add.b	@r15,	r4	
 3fe:	73 65       	.word	0x6573;	????	Illegal as 2-op instr
 400:	74 63       	addc.b	#-1,	r4	;r3 As==11
 402:	6f 6c       	addc.b	@r12,	r15	
 404:	6f 72       	subc.b	#4,	r15	;r2 As==10
 406:	00 73       	sbc	r0		
 408:	74 65       	addc.b	@r5+,	r4	
 40a:	70 79       	subc.b	@r9+,	r0	
 40c:	00 6c       	addc	r12,	r0	
 40e:	63 64       	.word	0x6463;	????	Illegal as 2-op instr
 410:	5f 64 72 61 	addc.b	24946(r4),r15	;0x6172(r4)
 414:	77 63       	addc.b	#-1,	r7	;r3 As==11
 416:	69 72       	subc.b	#4,	r9	;r2 As==10
 418:	63 6c       	.word	0x6c63;	????	Illegal as 2-op instr
 41a:	65 00 6c 63 	mova	r0,	&0x5636c
 41e:	64 5f       	add.b	@r15,	r4	
 420:	63 6c       	.word	0x6c63;	????	Illegal as 2-op instr
 422:	65 61       	addc.b	@r1,	r5	
 424:	72 00 64 61 	mova	r0,	&0x6164	
 428:	74 61       	addc.b	@r1+,	r4	
 42a:	00 66       	addc	r6,	r0	
 42c:	6f 72       	subc.b	#4,	r15	;r2 As==10
 42e:	65 67       	addc.b	@r7,	r5	
 430:	72 6f       	addc.b	@r15+,	r2	
 432:	75 6e       	addc.b	@r14+,	r5	
 434:	64 5f       	add.b	@r15,	r4	
 436:	63 6f       	.word	0x6f63;	????	Illegal as 2-op instr
 438:	6c 6f       	addc.b	@r15,	r12	
 43a:	72 00 6c 63 	mova	r0,	&0x636c	
 43e:	64 5f       	add.b	@r15,	r4	
 440:	64 72       	subc.b	#4,	r4	;r2 As==10
 442:	61 77       	subc.b	@r7,	r1	
 444:	70 72       	subc.b	#8,	r0	;r2 As==11
 446:	6f 67       	addc.b	@r7,	r15	
 448:	72 65       	addc.b	@r5+,	r2	
 44a:	73 73       	.word	0x7373;	????	Illegal as 2-op instr
 44c:	62 61       	addc.b	@r1,	r2	
 44e:	72 00 64 64 	mova	r0,	&0x6464	
 452:	46 5f       	add.b	r15,	r6	
 454:	78 00 64 64 	mova	r0,	25700(r8);0x6464(r8)
 458:	46 5f       	add.b	r15,	r6	
 45a:	79 00 64 61 	mova	r0,	24932(r9);0x6164(r9)
 45e:	74 32       	jn	$-790    	;abs 0x148
 460:	00 4c       	br	r12		
 462:	43 44       	.word	0x4443;	????	Illegal as 2-op instr
 464:	43 68       	.word	0x6843;	????	Illegal as 2-op instr
 466:	61 72       	subc.b	#4,	r1	;r2 As==10
 468:	43 6f       	.word	0x6f43;	????	Illegal as 2-op instr
 46a:	75 6e       	addc.b	@r14+,	r5	
 46c:	74 00 6d 61 	mova	r0,	24941(r4);0x616d(r4)
 470:	73 6b       	.word	0x6b73;	????	Illegal as 2-op instr
 472:	00 6c       	addc	r12,	r0	
 474:	63 64       	.word	0x6463;	????	Illegal as 2-op instr
 476:	5f 70 75 74 	subc.b	0x7475,	r15	;PC rel. 0x078ef
 47a:	63 68       	.word	0x6863;	????	Illegal as 2-op instr
 47c:	61 72       	subc.b	#4,	r1	;r2 As==10
 47e:	00 70       	subc	r0,	r0	
 480:	65 72       	subc.b	#4,	r5	;r2 As==10
 482:	63 65       	.word	0x6563;	????	Illegal as 2-op instr
 484:	6e 74       	subc.b	@r4,	r14	
 486:	00 2a       	jnc	$-1022   	;abs 0x88
 488:	5f 5f 50 35 	add.b	13648(r15),r15	;0x3550(r15)
 48c:	44 49       	mov.b	r9,	r4	
 48e:	52 00       	rrcm	#1,	r2	
 490:	6c 63       	addc.b	#2,	r12	;r3 As==10
 492:	64 5f       	add.b	@r15,	r4	
 494:	64 72       	subc.b	#4,	r4	;r2 As==10
 496:	61 77       	subc.b	@r7,	r1	
 498:	6c 69       	addc.b	@r9,	r12	
 49a:	6e 65       	addc.b	@r5,	r14	
 49c:	00 6c       	addc	r12,	r0	
 49e:	63 64       	.word	0x6463;	????	Illegal as 2-op instr
 4a0:	5f 66 69 6c 	addc.b	27753(r6),r15	;0x6c69(r6)
 4a4:	6c 72       	subc.b	#4,	r12	;r2 As==10
 4a6:	65 63       	addc.b	#2,	r5	;r3 As==10
 4a8:	74 00 4c 43 	mova	r0,	17228(r4);0x434c(r4)
 4ac:	44 46       	mov.b	r6,	r4	
 4ae:	6f 72       	subc.b	#4,	r15	;r2 As==10
 4b0:	65 43       	mov.b	#2,	r5	;r3 As==10
 4b2:	6f 6c       	addc.b	@r12,	r15	
 4b4:	6f 72       	subc.b	#4,	r15	;r2 As==10
 4b6:	00 6c       	addc	r12,	r0	
 4b8:	63 64       	.word	0x6463;	????	Illegal as 2-op instr
 4ba:	5f 70 75 74 	subc.b	0x7475,	r15	;PC rel. 0x07933
 4be:	6c 6f       	addc.b	@r15,	r12	
 4c0:	67 6f       	addc.b	@r15,	r7	
 4c2:	00 61       	addc	r1,	r0	
 4c4:	73 63       	.word	0x6373;	????	Illegal as 2-op instr
 4c6:	69 69       	addc.b	@r9,	r9	
 4c8:	74 61       	addc.b	@r1+,	r4	
 4ca:	62 6c       	addc.b	@r12,	r2	
 4cc:	65 00 66 72 	mova	r0,	&0x57266
 4d0:	6f 6d       	addc.b	@r13,	r15	
 4d2:	00 2a       	jnc	$-1022   	;abs 0xd4
 4d4:	5f 5f 50 32 	add.b	12880(r15),r15	;0x3250(r15)
 4d8:	4f 55       	add.b	r5,	r15	
 4da:	54 00       	rrcm	#1,	r4	
 4dc:	2a 5f       	add	@r15,	r10	
 4de:	5f 44 43 4f 	mov.b	20291(r4),r15	;0x4f43(r4)
 4e2:	43 54       	.word	0x5443;	????	Illegal as 2-op instr
 4e4:	4c 00       	rrcm.a	#1,	r12	
 4e6:	2a 5f       	add	@r15,	r10	
 4e8:	5f 42 43 53 	mov.b	&0x5343,r15	
 4ec:	43 54       	.word	0x5443;	????	Illegal as 2-op instr
 4ee:	4c 31       	jn	$+666    	;abs 0x788
 4f0:	00 2a       	jnc	$-1022   	;abs 0xf2
 4f2:	5f 5f 42 43 	add.b	17218(r15),r15	;0x4342(r15)
 4f6:	53 43       	.word	0x4353;	????	Illegal as 2-op instr
 4f8:	54 4c 32 00 	mov.b	50(r12),r4	;0x0032(r12)
 4fc:	2a 5f       	add	@r15,	r10	
 4fe:	5f 42 43 53 	mov.b	&0x5343,r15	
 502:	43 54       	.word	0x5443;	????	Illegal as 2-op instr
 504:	4c 33       	jn	$-358    	;abs 0x39e
 506:	00 2a       	jnc	$-1022   	;abs 0x108
 508:	5f 5f 57 44 	add.b	17495(r15),r15	;0x4457(r15)
 50c:	54 43       	mov.b	#1,	r4	;r3 As==01
 50e:	54 4c 00 2a 	mov.b	10752(r12),r4	;0x2a00(r12)
 512:	5f 5f 50 32 	add.b	12880(r15),r15	;0x3250(r15)
 516:	44 49       	mov.b	r9,	r4	
 518:	52 00       	rrcm	#1,	r2	
 51a:	68 61       	addc.b	@r1,	r8	
 51c:	72 64       	addc.b	@r4+,	r2	
 51e:	77 61       	addc.b	@r1+,	r7	
 520:	72 65       	addc.b	@r5+,	r2	
 522:	5f 73       	subc.b	#1,	r15	;r3 As==01
 524:	65 74       	subc.b	@r4,	r5	
 526:	75 70 00 68 	subc.b	#26624,	r5	;#0x6800
 52a:	61 72       	subc.b	#4,	r1	;r2 As==10
 52c:	64 77       	subc.b	@r7,	r4	
 52e:	61 72       	subc.b	#4,	r1	;r2 As==10
 530:	65 5f       	add.b	@r15,	r5	
 532:	63 6f       	.word	0x6f63;	????	Illegal as 2-op instr
 534:	6e 66       	addc.b	@r6,	r14	
 536:	69 67       	addc.b	@r7,	r9	
 538:	2e 63       	addc	#2,	r14	;r3 As==10
 53a:	00 63       	adc	r0		
 53c:	6c 6f       	addc.b	@r15,	r12	
 53e:	63 6b       	.word	0x6b63;	????	Illegal as 2-op instr
 540:	5f 69 6e 69 	addc.b	26990(r9),r15	;0x696e(r9)
 544:	74 00 5f 5f 	mova	r0,	24415(r4);0x5f5f(r4)
 548:	62 75       	subc.b	@r5,	r2	
 54a:	69 6c       	addc.b	@r12,	r9	
 54c:	74 69       	addc.b	@r9+,	r4	
 54e:	6e 5f       	add.b	@r15,	r14	
 550:	76 61       	addc.b	@r1+,	r6	
 552:	5f 6c 69 73 	addc.b	29545(r12),r15	;0x7369(r12)
 556:	74 00 2f 72 	mova	r0,	29231(r4);0x722f(r4)
 55a:	6f 6f       	addc.b	@r15,	r15	
 55c:	74 2f       	jc	$-278    	;abs 0x446
 55e:	6d 73       	subc.b	#2,	r13	;r3 As==10
 560:	70 67       	addc.b	@r7+,	r0	
 562:	63 63       	.word	0x6363;	????	Illegal as 2-op instr
 564:	2d 32       	jn	$-932    	;abs 0x1c0
 566:	30 31       	jn	$+610    	;abs 0x7c8
 568:	31 30       	jn	$+100    	;abs 0x5cc
 56a:	37 31       	jn	$+624    	;abs 0x7da
 56c:	36 2f       	jc	$-402    	;abs 0x3da
 56e:	6d 73       	subc.b	#2,	r13	;r3 As==10
 570:	70 34       	jge	$+226    	;abs 0x652
 572:	33 30       	jn	$+104    	;abs 0x5da
 574:	2d 6c       	addc	@r12,	r13	
 576:	69 62       	addc.b	#4,	r9	;r2 As==10
 578:	63 2f       	jc	$-312    	;abs 0x440
 57a:	73 72       	.word	0x7273;	????	Illegal as 2-op instr
 57c:	63 00 76 70 	mova	r0,	&0x37076
 580:	72 69       	addc.b	@r9+,	r2	
 582:	6e 74       	subc.b	@r4,	r14	
 584:	66 00 2e 2f 	mova	r0,	&0x62f2e
 588:	73 74       	.word	0x7473;	????	Illegal as 2-op instr
 58a:	64 6c       	addc.b	@r12,	r4	
 58c:	69 62       	addc.b	#4,	r9	;r2 As==10
 58e:	2f 70       	subc	@r0,	r15	
 590:	72 69       	addc.b	@r9+,	r2	
 592:	6e 74       	subc.b	@r4,	r14	
 594:	66 2e       	jc	$-818    	;abs 0x262
 596:	63 00 5f 5f 	mova	r0,	&0x35f5f
 59a:	67 6e       	addc.b	@r14,	r7	
 59c:	75 63       	addc.b	#-1,	r5	;r3 As==11
 59e:	5f 76 61 5f 	subc.b	24417(r6),r15	;0x5f61(r6)
 5a2:	6c 69       	addc.b	@r9,	r12	
 5a4:	73 74       	.word	0x7473;	????	Illegal as 2-op instr
 5a6:	00 61       	addc	r1,	r0	
 5a8:	72 67       	addc.b	@r7+,	r2	
 5aa:	70 00 69 6e 	mova	r0,	0x6e69	;PC rel. 0x07415
 5ae:	74 70 74 72 	subc.b	#29300,	r4	;#0x7274
 5b2:	5f 74 00 6d 	subc.b	27904(r4),r15	;0x6d00(r4)
 5b6:	6f 64       	addc.b	@r4,	r15	
 5b8:	65 00 6c 65 	mova	r0,	&0x5656c
 5bc:	61 64       	addc.b	@r4,	r1	
 5be:	69 6e       	addc.b	@r14,	r9	
 5c0:	67 5f       	add.b	@r15,	r7	
 5c2:	66 69       	addc.b	@r9,	r6	
 5c4:	6c 6c       	addc.b	@r12,	r12	
 5c6:	00 77       	subc	r7,	r0	
 5c8:	72 69       	addc.b	@r9+,	r2	
 5ca:	74 65       	addc.b	@r5+,	r4	
 5cc:	5f 63       	addc.b	#1,	r15	;r3 As==01
 5ce:	68 61       	addc.b	@r1,	r8	
 5d0:	72 00 65 6d 	mova	r0,	&0x6d65	
 5d4:	69 74       	subc.b	@r4,	r9	
 5d6:	5f 68 65 78 	addc.b	30821(r8),r15	;0x7865(r8)
 5da:	5f 70 72 65 	subc.b	0x6572,	r15	;PC rel. 0x06b50
 5de:	66 69       	addc.b	@r9,	r6	
 5e0:	78 00 70 72 	mova	r0,	29296(r8);0x7270(r8)
 5e4:	65 66       	addc.b	@r6,	r5	
 5e6:	69 78       	subc.b	@r8,	r9	
 5e8:	5f 6c 65 6e 	addc.b	28261(r12),r15	;0x6e65(r12)
 5ec:	00 63       	adc	r0		
 5ee:	68 61       	addc.b	@r1,	r8	
 5f0:	72 5f       	add.b	@r15+,	r2	
 5f2:	70 00 69 73 	mova	r0,	0x7369	;PC rel. 0x0795d
 5f6:	5f 61 6c 74 	addc.b	29804(r1),r15	;0x746c(r1)
 5fa:	65 72       	subc.b	#4,	r5	;r2 As==10
 5fc:	6e 61       	addc.b	@r1,	r14	
 5fe:	74 65       	addc.b	@r5+,	r4	
 600:	5f 66 6f 72 	addc.b	29295(r6),r15	;0x726f(r6)
 604:	6d 00 6c 65 	mova	r0,	&0xd656c
 608:	66 74       	subc.b	@r4,	r6	
 60a:	5f 61 6c 69 	addc.b	26988(r1),r15	;0x696c(r1)
 60e:	67 6e       	addc.b	@r14,	r7	
 610:	00 75       	subc	r5,	r0	
 612:	70 70 65 72 	subc.b	#29285,	r0	;#0x7265
 616:	63 61       	.word	0x6163;	????	Illegal as 2-op instr
 618:	73 65       	.word	0x6573;	????	Illegal as 2-op instr
 61a:	00 69       	addc	r9,	r0	
 61c:	73 5f       	.word	0x5f73;	????	Illegal as 2-op instr
 61e:	6c 6f       	addc.b	@r15,	r12	
 620:	6e 67       	addc.b	@r7,	r14	
 622:	00 46       	br	r6		
 624:	4f 52       	add.b	r2,	r15	
 626:	4d 41       	mov.b	r1,	r13	
 628:	54 49 4e 47 	mov.b	18254(r9),r4	;0x474e(r9)
 62c:	00 70       	subc	r0,	r0	
 62e:	72 69       	addc.b	@r9+,	r2	
 630:	6e 74       	subc.b	@r4,	r14	
 632:	5f 66 69 65 	addc.b	25961(r6),r15	;0x6569(r6)
 636:	6c 64       	addc.b	@r4,	r12	
 638:	00 66       	addc	r6,	r0	
 63a:	65 74       	subc.b	@r4,	r5	
 63c:	63 68       	.word	0x6863;	????	Illegal as 2-op instr
 63e:	5f 6e 75 6d 	addc.b	28021(r14),r15	;0x6d75(r14)
 642:	62 65       	addc.b	@r5,	r2	
 644:	72 00 70 72 	mova	r0,	&0x7270	
 648:	65 66       	addc.b	@r6,	r5	
 64a:	69 78       	subc.b	@r8,	r9	
 64c:	5f 69 64 78 	addc.b	30820(r9),r15	;0x7864(r9)
 650:	00 66       	addc	r6,	r0	
 652:	6c 61       	addc.b	@r1,	r12	
 654:	67 73       	subc.b	#2,	r7	;r3 As==10
 656:	00 61       	addc	r1,	r0	
 658:	72 67       	addc.b	@r7+,	r2	
 65a:	73 00       	.word	0x0073;	????	Illegal as address instr
 65c:	70 72       	subc.b	#8,	r0	;r2 As==11
 65e:	65 66       	addc.b	@r6,	r5	
 660:	69 78       	subc.b	@r8,	r9	
 662:	5f 62 75 66 	addc.b	&0x6675,r15	
 666:	66 65       	addc.b	@r5,	r6	
 668:	72 00 72 61 	mova	r0,	&0x6172	
 66c:	64 69       	addc.b	@r9,	r4	
 66e:	78 00 69 6e 	mova	r0,	28265(r8);0x6e69(r8)
 672:	74 31       	jn	$+746    	;abs 0x95c
 674:	36 5f       	add	@r15+,	r6	
 676:	74 00 77 72 	mova	r0,	29303(r4);0x7277(r4)
 67a:	69 74       	subc.b	@r4,	r9	
 67c:	65 5f       	add.b	@r15,	r5	
 67e:	63 68       	.word	0x6863;	????	Illegal as 2-op instr
 680:	61 72       	subc.b	#4,	r1	;r2 As==10
 682:	61 63       	addc.b	#2,	r1	;r3 As==10
 684:	74 65       	addc.b	@r5+,	r4	
 686:	72 00 73 69 	mova	r0,	&0x6973	
 68a:	67 6e       	addc.b	@r14,	r7	
 68c:	5f 63       	addc.b	#1,	r15	;r3 As==01
 68e:	68 61       	addc.b	@r1,	r8	
 690:	72 00 76 75 	mova	r0,	&0x7576	
 694:	70 72       	subc.b	#8,	r0	;r2 As==11
 696:	69 6e       	addc.b	@r14,	r9	
 698:	74 66       	addc.b	@r6+,	r4	
 69a:	00 69       	addc	r9,	r0	
 69c:	73 5f       	.word	0x5f73;	????	Illegal as 2-op instr
 69e:	73 69       	.word	0x6973;	????	Illegal as 2-op instr
 6a0:	67 6e       	addc.b	@r14,	r7	
 6a2:	65 64       	addc.b	@r4,	r5	
 6a4:	00 66       	addc	r6,	r0	
 6a6:	6c 61       	addc.b	@r1,	r12	
 6a8:	67 73       	subc.b	#2,	r7	;r3 As==10
 6aa:	5f 74 00 66 	subc.b	26112(r4),r15	;0x6600(r4)
 6ae:	69 6c       	addc.b	@r12,	r9	
 6b0:	6c 5f       	add.b	@r15,	r12	
 6b2:	7a 65       	addc.b	@r5+,	r10	
 6b4:	72 6f       	addc.b	@r15+,	r2	
 6b6:	00 2e       	jc	$-1022   	;abs 0x2b8
 6b8:	2f 73       	subc	#2,	r15	;r3 As==10
 6ba:	74 64       	addc.b	@r4+,	r4	
 6bc:	6c 69       	addc.b	@r9,	r12	
 6be:	62 2f       	jc	$-314    	;abs 0x584
 6c0:	76 75       	subc.b	@r5+,	r6	
 6c2:	70 72       	subc.b	#8,	r0	;r2 As==11
 6c4:	69 6e       	addc.b	@r14,	r9	
 6c6:	74 66       	addc.b	@r6+,	r4	
 6c8:	2e 63       	addc	#2,	r14	;r3 As==10
 6ca:	00 64       	addc	r4,	r0	
 6cc:	69 67       	addc.b	@r7,	r9	
 6ce:	69 74       	subc.b	@r4,	r9	
 6d0:	00 63       	adc	r0		
 6d2:	68 61       	addc.b	@r1,	r8	
 6d4:	72 61       	addc.b	@r1+,	r2	
 6d6:	63 74       	.word	0x7463;	????	Illegal as 2-op instr
 6d8:	65 72       	subc.b	#4,	r5	;r2 As==10
 6da:	5f 63       	addc.b	#1,	r15	;r3 As==01
 6dc:	6f 75       	subc.b	@r5,	r15	
 6de:	6e 74       	subc.b	@r4,	r14	
 6e0:	00 44       	br	r4		
 6e2:	49 52       	add.b	r2,	r9	
 6e4:	45 43       	clr.b	r5		
 6e6:	54 00       	rrcm	#1,	r4	
 6e8:	65 6d       	addc.b	@r13,	r5	
 6ea:	69 74       	subc.b	@r4,	r9	
 6ec:	5f 6e 75 6d 	addc.b	28021(r14),r15	;0x6d75(r14)
 6f0:	62 65       	addc.b	@r5,	r2	
 6f2:	72 00 66 6f 	mova	r0,	&0x6f66	
 6f6:	72 6d       	addc.b	@r13+,	r2	
 6f8:	61 74       	subc.b	@r4,	r1	
 6fa:	00 62       	addc	r2,	r0	
 6fc:	75 69       	addc.b	@r9+,	r5	
 6fe:	6c 64       	addc.b	@r4,	r12	
 700:	5f 6e 75 6d 	addc.b	28021(r14),r15	;0x6d75(r14)
 704:	65 72       	subc.b	#4,	r5	;r2 As==10
 706:	69 63       	addc.b	#2,	r9	;r3 As==10
 708:	5f 70 72 65 	subc.b	0x6572,	r15	;PC rel. 0x06c7e
 70c:	66 69       	addc.b	@r9,	r6	
 70e:	78 00 98 b0 	Address 0x00000710 is out of bounds.
mova	r0,	-1(r8)	;0xffff(r8)

Disassembly of section .debug_loc:

00000000 <.debug_loc>:
   0:	38 31       	jn	$+626    	;abs 0x272
   2:	3a 31       	jn	$+630    	;abs 0x278
   4:	02 00       	mova	@r0,	r2	
   6:	71 02 3a 31 	mova	r2,	12602(r1);0x313a(r1)
   a:	68 31       	jn	$+722    	;abs 0x2dc
   c:	02 00       	mova	@r0,	r2	
   e:	71 04 68 31 	mova	r4,	12648(r1);0x3168(r1)
  12:	6c 31       	jn	$+730    	;abs 0x2ec
  14:	02 00       	mova	@r0,	r2	
  16:	71 06 6c 31 	mova	r6,	12652(r1);0x316c(r1)
  1a:	72 31       	jn	$+742    	;abs 0x300
  1c:	02 00       	mova	@r0,	r2	
  1e:	71 08 72 31 	mova	r8,	12658(r1);0x3172(r1)
  22:	88 31       	jn	$+786    	;abs 0x334
  24:	02 00       	mova	@r0,	r2	
  26:	71 04 88 31 	mova	r4,	12680(r1);0x3188(r1)
  2a:	8c 31       	jn	$+794    	;abs 0x344
  2c:	02 00       	mova	@r0,	r2	
  2e:	71 06 8c 31 	mova	r6,	12684(r1);0x318c(r1)
  32:	92 31       	jn	$+806    	;abs 0x358
  34:	02 00       	mova	@r0,	r2	
  36:	71 08 92 31 	mova	r8,	12690(r1);0x3192(r1)
  3a:	aa 31       	jn	$+854    	;abs 0x390
  3c:	02 00       	mova	@r0,	r2	
  3e:	71 04 aa 31 	mova	r4,	12714(r1);0x31aa(r1)
  42:	ae 31       	jn	$+862    	;abs 0x3a0
  44:	02 00       	mova	@r0,	r2	
  46:	71 06 ae 31 	mova	r6,	12718(r1);0x31ae(r1)
  4a:	b4 31       	jn	$+874    	;abs 0x3b4
  4c:	02 00       	mova	@r0,	r2	
  4e:	71 08 b4 31 	mova	r8,	12724(r1);0x31b4(r1)
  52:	cc 31       	jn	$+922    	;abs 0x3ec
  54:	02 00       	mova	@r0,	r2	
  56:	71 04 cc 31 	mova	r4,	12748(r1);0x31cc(r1)
  5a:	d0 31       	jn	$+930    	;abs 0x3fc
  5c:	02 00       	mova	@r0,	r2	
  5e:	71 06 d0 31 	mova	r6,	12752(r1);0x31d0(r1)
  62:	d6 31       	jn	$+942    	;abs 0x410
  64:	02 00       	mova	@r0,	r2	
  66:	71 08 d6 31 	mova	r8,	12758(r1);0x31d6(r1)
  6a:	f0 31       	jn	$+994    	;abs 0x44c
  6c:	02 00       	mova	@r0,	r2	
  6e:	71 04 f0 31 	mova	r4,	12784(r1);0x31f0(r1)
  72:	f4 31       	jn	$+1002   	;abs 0x45c
  74:	02 00       	mova	@r0,	r2	
  76:	71 06 f4 31 	mova	r6,	12788(r1);0x31f4(r1)
  7a:	fa 31       	jn	$+1014   	;abs 0x470
  7c:	02 00       	mova	@r0,	r2	
  7e:	71 08 fa 31 	mova	r8,	12794(r1);0x31fa(r1)
  82:	04 32       	jn	$-1014   	;abs 0xfc8c
  84:	02 00       	mova	@r0,	r2	
  86:	71 04 00 00 	mova	r4,	0(r1)	;0x0000(r1)
  8a:	00 00       	bra	@r0		
  8c:	3e 31       	jn	$+638    	;abs 0x30a
  8e:	86 31       	jn	$+782    	;abs 0x39c
  90:	02 00       	mova	@r0,	r2	
  92:	91 7c 88 31 	subc	12680(r12),12687(r1);0x3188(r12), 0x318f(r1)
  96:	8f 31 
  98:	01 00       	mova	@r0,	r1	
  9a:	5f a6 31 a8 	dadd.b	-22479(r6),r15	;0xa831(r6)
  9e:	31 02 00 91 	mova	&0x9100,r1	
  a2:	7c aa       	dadd.b	@r10+,	r12	
  a4:	31 b1       	bit	@r1+,	r1	
  a6:	31 01 00 5f 	mova	24320(r1),r1	;0x5f00(r1)
  aa:	c8 31       	jn	$+914    	;abs 0x43c
  ac:	ca 31       	jn	$+918    	;abs 0x442
  ae:	02 00       	mova	@r0,	r2	
  b0:	91 7c cc 31 	subc	12748(r12),12755(r1);0x31cc(r12), 0x31d3(r1)
  b4:	d3 31 
  b6:	01 00       	mova	@r0,	r1	
  b8:	5f ec 31 ee 	xor.b	-4559(r12),r15	;0xee31(r12)
  bc:	31 02 00 91 	mova	&0x9100,r1	
  c0:	7c f0 31 f7 	and.b	#-2255,	r12	;#0xf731
  c4:	31 01 00 5f 	mova	24320(r1),r1	;0x5f00(r1)
  c8:	00 00       	bra	@r0		
  ca:	00 00       	bra	@r0		
  cc:	04 00       	mova	@r0,	r4	
  ce:	0a 00       	mova	@r0,	r10	
  d0:	02 00       	mova	@r0,	r2	
  d2:	30 9f       	cmp	@r15+,	r0	
  d4:	0e 00       	mova	@r0,	r14	
  d6:	12 00       	mova	#0x00000,r2	
  d8:	01 00       	mova	@r0,	r1	
  da:	5e 00       	rrcm	#1,	r14	
  dc:	00 00       	bra	@r0		
  de:	00 14       	pushm.a	#1,	r0	
  e0:	00 16       	popm.a	#1,	r0	
  e2:	00 02       	bra	#4		;r2 As==10
  e4:	00 71       	subc	r1,	r0	
  e6:	02 16       	popm.a	#1,	r2	
  e8:	00 18       	.word	0x1800;	????	
  ea:	00 02       	bra	#4		;r2 As==10
  ec:	00 71       	subc	r1,	r0	
  ee:	04 18       	.word	0x1804;	????	
  f0:	00 34       	jge	$+2      	;abs 0xf2
  f2:	00 02       	bra	#4		;r2 As==10
  f4:	00 71       	subc	r1,	r0	
  f6:	06 00       	mova	@r0,	r6	
  f8:	00 00       	bra	@r0		
  fa:	00 14       	pushm.a	#1,	r0	
  fc:	00 1e       	.word	0x1e00;	????	
  fe:	00 01       	bra	@r1		
 100:	00 5f       	add	r15,	r0	
 102:	1e 00       	mova	#0x00000,r14	
 104:	30 00 01 00 	bra	0x0001		;PC rel. 0x00107
 108:	5a 00       	rrcm	#1,	r10	
 10a:	00 00       	bra	@r0		
 10c:	00 1a       	.word	0x1a00;	????	
 10e:	00 20       	jnz	$+2      	;abs 0x110
 110:	00 02       	bra	#4		;r2 As==10
 112:	00 30       	jn	$+2      	;abs 0x114
 114:	9f 2a       	jnc	$-704    	;abs 0xfe54
 116:	00 2e       	jc	$-1022   	;abs 0xfd18
 118:	00 01       	bra	@r1		
 11a:	00 5b       	add	r11,	r0	
 11c:	00 00       	bra	@r0		
 11e:	00 00       	bra	@r0		
 120:	4a 00       	rrcm.a	#1,	r10	
 122:	60 00 01 00 	mova	r0,	&0x00001
 126:	5f 00       	rrcm	#1,	r15	
 128:	00 00       	bra	@r0		
 12a:	00 70       	subc	r0,	r0	
 12c:	00 98       	cmp	r8,	r0	
 12e:	00 01       	bra	@r1		
 130:	00 5f       	add	r15,	r0	
 132:	9a 00 a0 00 	cmpa	#0x000a0,r10	
 136:	01 00       	mova	@r0,	r1	
 138:	5f 00       	rrcm	#1,	r15	
 13a:	00 00       	bra	@r0		
 13c:	00 70       	subc	r0,	r0	
 13e:	00 9a       	cmp	r10,	r0	
 140:	00 01       	bra	@r1		
 142:	00 5d       	add	r13,	r0	
 144:	00 00       	bra	@r0		
 146:	00 00       	bra	@r0		
 148:	a0 00 ca 00 	adda	#0x000ca,r0	
 14c:	01 00       	mova	@r0,	r1	
 14e:	5f cc 00 d0 	bic.b	-12288(r12),r15	;0xd000(r12)
 152:	00 01       	bra	@r1		
 154:	00 5f       	add	r15,	r0	
 156:	d2 00       	cmpa	r0,	r2	
 158:	d6 00       	cmpa	r0,	r6	
 15a:	01 00       	mova	@r0,	r1	
 15c:	5f 00       	rrcm	#1,	r15	
 15e:	00 00       	bra	@r0		
 160:	00 a0       	dadd	r0,	r0	
 162:	00 ac       	dadd	r12,	r0	
 164:	00 01       	bra	@r1		
 166:	00 5e       	add	r14,	r0	
 168:	00 00       	bra	@r0		
 16a:	00 00       	bra	@r0		
 16c:	d8 00       	cmpa	r0,	r8	
 16e:	da 00       	cmpa	r0,	r10	
 170:	02 00       	mova	@r0,	r2	
 172:	71 02 da 00 	mova	r2,	218(r1)	;0x00da(r1)
 176:	12 01       	mova	@r1+,	r2	
 178:	02 00       	mova	@r0,	r2	
 17a:	71 04 00 00 	mova	r4,	0(r1)	;0x0000(r1)
 17e:	00 00       	bra	@r0		
 180:	d8 00       	cmpa	r0,	r8	
 182:	ec 00       	adda	r0,	r12	
 184:	01 00       	mova	@r0,	r1	
 186:	5f ec 00 ef 	xor.b	-4352(r12),r15	;0xef00(r12)
 18a:	00 01       	bra	@r1		
 18c:	00 5e       	add	r14,	r0	
 18e:	00 00       	bra	@r0		
 190:	00 00       	bra	@r0		
 192:	d8 00       	cmpa	r0,	r8	
 194:	ea 00       	adda	r0,	r10	
 196:	01 00       	mova	@r0,	r1	
 198:	5e ea 00 f8 	xor.b	-2048(r10),r14	;0xf800(r10)
 19c:	00 01       	bra	@r1		
 19e:	00 5b       	add	r11,	r0	
 1a0:	fa 00       	suba	r0,	r10	
 1a2:	10 01       	reta			
 1a4:	01 00       	mova	@r0,	r1	
 1a6:	5b 00       	rrcm	#1,	r11	
 1a8:	00 00       	bra	@r0		
 1aa:	00 d8       	bis	r8,	r0	
 1ac:	00 ef       	xor	r15,	r0	
 1ae:	00 01       	bra	@r1		
 1b0:	00 5d       	add	r13,	r0	
 1b2:	00 00       	bra	@r0		
 1b4:	00 00       	bra	@r0		
 1b6:	dc 00       	cmpa	r0,	r12	
 1b8:	f0 00       	suba	r0,	r0	
 1ba:	02 00       	mova	@r0,	r2	
 1bc:	30 9f       	cmp	@r15+,	r0	
 1be:	f0 00       	suba	r0,	r0	
 1c0:	0a 01       	mova	@r1,	r10	
 1c2:	01 00       	mova	@r0,	r1	
 1c4:	5f 0e       	rlam	#4,	r15	
 1c6:	01 12       	push	r1		
 1c8:	01 01       	mova	@r1,	r1	
 1ca:	00 5f       	add	r15,	r0	
 1cc:	00 00       	bra	@r0		
 1ce:	00 00       	bra	@r0		
 1d0:	12 01       	mova	@r1+,	r2	
 1d2:	14 01       	mova	@r1+,	r4	
 1d4:	02 00       	mova	@r0,	r2	
 1d6:	71 02 14 01 	mova	r2,	276(r1)	;0x0114(r1)
 1da:	40 01       	rram.a	#1,	r0	
 1dc:	02 00       	mova	@r0,	r2	
 1de:	71 04 00 00 	mova	r4,	0(r1)	;0x0000(r1)
 1e2:	00 00       	bra	@r0		
 1e4:	12 01       	mova	@r1+,	r2	
 1e6:	26 01 01 00 	mova	&0x10001,r6	
 1ea:	5f 26       	jz	$-832    	;abs 0xfeaa
 1ec:	01 29       	jnc	$+516    	;abs 0x3f0
 1ee:	01 01       	mova	@r1,	r1	
 1f0:	00 5e       	add	r14,	r0	
 1f2:	00 00       	bra	@r0		
 1f4:	00 00       	bra	@r0		
 1f6:	12 01       	mova	@r1+,	r2	
 1f8:	24 01 01 00 	mova	&0x10001,r4	
 1fc:	5e 24       	jz	$+190    	;abs 0x2ba
 1fe:	01 32       	jn	$-1020   	;abs 0xfe02
 200:	01 01       	mova	@r1,	r1	
 202:	00 5b       	add	r11,	r0	
 204:	34 01 3e 01 	mova	318(r1),r4	;0x013e(r1)
 208:	01 00       	mova	@r0,	r1	
 20a:	5b 00       	rrcm	#1,	r11	
 20c:	00 00       	bra	@r0		
 20e:	00 12       	push	r0		
 210:	01 29       	jnc	$+516    	;abs 0x414
 212:	01 01       	mova	@r1,	r1	
 214:	00 5d       	add	r13,	r0	
 216:	00 00       	bra	@r0		
 218:	00 00       	bra	@r0		
 21a:	16 01       	mova	@r1+,	r6	
 21c:	2a 01 02 00 	mova	&0x10002,r10	
 220:	30 9f       	cmp	@r15+,	r0	
 222:	2a 01 38 01 	mova	&0x10138,r10	
 226:	01 00       	mova	@r0,	r1	
 228:	5f 3c       	jmp	$+192    	;abs 0x2e8
 22a:	01 40       	mov	r0,	r1	
 22c:	01 01       	mova	@r1,	r1	
 22e:	00 5f       	add	r15,	r0	
 230:	00 00       	bra	@r0		
 232:	00 00       	bra	@r0		
 234:	0a 00       	mova	@r0,	r10	
 236:	0c 00       	mova	@r0,	r12	
 238:	02 00       	mova	@r0,	r2	
 23a:	71 02 0c 00 	mova	r2,	12(r1)	;0x000c(r1)
 23e:	70 00 02 00 	mova	r0,	0x0002	;PC rel. 0x00242
 242:	71 04 00 00 	mova	r4,	0(r1)	;0x0000(r1)
 246:	00 00       	bra	@r0		
 248:	0c 00       	mova	@r0,	r12	
 24a:	2e 00 03 00 	mova	&0x00003,r14	
 24e:	09 80       	sub	r0,	r9	
 250:	9f 3c       	jmp	$+320    	;abs 0x390
 252:	00 44       	br	r4		
 254:	00 05       	bra	@r5		
 256:	00 7c       	subc	r12,	r0	
 258:	00 31       	jn	$+514    	;abs 0x45a
 25a:	25 9f       	cmp	@r15,	r5	
 25c:	52 00       	rrcm	#1,	r2	
 25e:	6a 00 05 00 	mova	r0,	&0xa0005
 262:	7c 00 31 25 	mova	r0,	9521(r12);0x2531(r12)
 266:	9f 6a 00 70 	addc	28672(r10),768(r15);0x7000(r10), 0x0300(r15)
 26a:	00 03 
 26c:	00 09       	bra	@r9		
 26e:	80 9f 00 00 	cmp	r15,	0x0000	;PC rel. 0x00272
 272:	00 00       	bra	@r0		
 274:	26 00 2e 00 	mova	&0x0002e,r6	
 278:	02 00       	mova	@r0,	r2	
 27a:	30 9f       	cmp	@r15+,	r0	
 27c:	00 00       	bra	@r0		
 27e:	00 00       	bra	@r0		
 280:	70 00 72 00 	mova	r0,	0x0072	;PC rel. 0x002f4
 284:	02 00       	mova	@r0,	r2	
 286:	71 02 72 00 	mova	r2,	114(r1)	;0x0072(r1)
 28a:	88 00 02 00 	mova	#0x00002,r8	
 28e:	71 04 00 00 	mova	r4,	0(r1)	;0x0000(r1)
 292:	00 00       	bra	@r0		
 294:	70 00 7b 00 	mova	r0,	0x007b	;PC rel. 0x00311
 298:	01 00       	mova	@r0,	r1	
 29a:	5f 00       	rrcm	#1,	r15	
 29c:	00 00       	bra	@r0		
 29e:	00 70       	subc	r0,	r0	
 2a0:	00 78       	subc	r8,	r0	
 2a2:	00 01       	bra	@r1		
 2a4:	00 5e       	add	r14,	r0	
 2a6:	78 00 86 00 	mova	r0,	134(r8)	;0x0086(r8)
 2aa:	01 00       	mova	@r0,	r1	
 2ac:	5b 00       	rrcm	#1,	r11	
 2ae:	00 00       	bra	@r0		
 2b0:	00 88       	sub	r8,	r0	
 2b2:	00 8a       	sub	r10,	r0	
 2b4:	00 02       	bra	#4		;r2 As==10
 2b6:	00 71       	subc	r1,	r0	
 2b8:	02 8a       	sub	r10,	r2	
 2ba:	00 8c       	sub	r12,	r0	
 2bc:	00 02       	bra	#4		;r2 As==10
 2be:	00 71       	subc	r1,	r0	
 2c0:	04 8c       	sub	r12,	r4	
 2c2:	00 ae       	dadd	r14,	r0	
 2c4:	00 02       	bra	#4		;r2 As==10
 2c6:	00 71       	subc	r1,	r0	
 2c8:	06 00       	mova	@r0,	r6	
 2ca:	00 00       	bra	@r0		
 2cc:	00 88       	sub	r8,	r0	
 2ce:	00 97       	cmp	r7,	r0	
 2d0:	00 01       	bra	@r1		
 2d2:	00 5f       	add	r15,	r0	
 2d4:	00 00       	bra	@r0		
 2d6:	00 00       	bra	@r0		
 2d8:	88 00 94 00 	mova	#0x00094,r8	
 2dc:	01 00       	mova	@r0,	r1	
 2de:	5e 94 00 aa 	cmp.b	-22016(r4),r14	;0xaa00(r4)
 2e2:	00 01       	bra	@r1		
 2e4:	00 5a       	add	r10,	r0	
 2e6:	00 00       	bra	@r0		
 2e8:	00 00       	bra	@r0		
 2ea:	88 00 97 00 	mova	#0x00097,r8	
 2ee:	01 00       	mova	@r0,	r1	
 2f0:	5d 97 00 ac 	cmp.b	-21504(r7),r13	;0xac00(r7)
 2f4:	00 01       	bra	@r1		
 2f6:	00 5b       	add	r11,	r0	
 2f8:	00 00       	bra	@r0		
 2fa:	00 00       	bra	@r0		
 2fc:	ae 00 b0 00 	adda	#0x000b0,r14	
 300:	02 00       	mova	@r0,	r2	
 302:	71 02 b0 00 	mova	r2,	176(r1)	;0x00b0(r1)
 306:	b2 00 02 00 	suba	#0x00002,r2	
 30a:	71 04 b2 00 	mova	r4,	178(r1)	;0x00b2(r1)
 30e:	b4 00 02 00 	suba	#0x00002,r4	
 312:	71 06 b4 00 	mova	r6,	180(r1)	;0x00b4(r1)
 316:	b6 00 02 00 	suba	#0x00002,r6	
 31a:	71 08 b6 00 	mova	r8,	182(r1)	;0x00b6(r1)
 31e:	f2 00       	suba	r0,	r2	
 320:	02 00       	mova	@r0,	r2	
 322:	71 0a f2 00 	mova	r10,	242(r1)	;0x00f2(r1)
 326:	00 01       	bra	@r1		
 328:	02 00       	mova	@r0,	r2	
 32a:	71 0c 00 01 	mova	r12,	256(r1)	;0x0100(r1)
 32e:	44 01       	rram.a	#1,	r4	
 330:	02 00       	mova	@r0,	r2	
 332:	71 0a 00 00 	mova	r10,	0(r1)	;0x0000(r1)
 336:	00 00       	bra	@r0		
 338:	ae 00 cc 00 	adda	#0x000cc,r14	
 33c:	01 00       	mova	@r0,	r1	
 33e:	5f cc 00 cf 	bic.b	-12544(r12),r15	;0xcf00(r12)
 342:	00 01       	bra	@r1		
 344:	00 5e       	add	r14,	r0	
 346:	00 00       	bra	@r0		
 348:	00 00       	bra	@r0		
 34a:	ae 00 c8 00 	adda	#0x000c8,r14	
 34e:	01 00       	mova	@r0,	r1	
 350:	5e c8 00 3c 	bic.b	15360(r8),r14	;0x3c00(r8)
 354:	01 01       	mova	@r1,	r1	
 356:	00 58       	add	r8,	r0	
 358:	00 00       	bra	@r0		
 35a:	00 00       	bra	@r0		
 35c:	ae 00 c2 00 	adda	#0x000c2,r14	
 360:	01 00       	mova	@r0,	r1	
 362:	5d c2 00 06 	bic.b	&0x0600,r13	
 366:	01 01       	mova	@r1,	r1	
 368:	00 5b       	add	r11,	r0	
 36a:	00 00       	bra	@r0		
 36c:	00 00       	bra	@r0		
 36e:	ae 00 cf 00 	adda	#0x000cf,r14	
 372:	01 00       	mova	@r0,	r1	
 374:	5c cf 00 fe 	bic.b	-512(r15),r12	;0xfe00(r15)
 378:	00 01       	bra	@r1		
 37a:	00 5a       	add	r10,	r0	
 37c:	fe 00       	suba	r0,	r14	
 37e:	06 01       	mova	@r1,	r6	
 380:	03 00       	.word	0x0003;	????	Illegal as address instr
 382:	03 30       	jn	$+8      	;abs 0x38a
 384:	01 00       	mova	@r0,	r1	
 386:	00 00       	bra	@r0		
 388:	00 00       	bra	@r0		
 38a:	01 06       	mova	@r6,	r1	
 38c:	01 02       	mova	#4,	r1	;r2 As==10
 38e:	00 30       	jn	$+2      	;abs 0x390
 390:	9f 10 01 14 	swpb	5121(r15)	;0x1401(r15)
 394:	01 01       	mova	@r1,	r1	
 396:	00 5b       	add	r11,	r0	
 398:	00 00       	bra	@r0		
 39a:	00 00       	bra	@r0		
 39c:	00 01       	bra	@r1		
 39e:	40 01       	rram.a	#1,	r0	
 3a0:	01 00       	mova	@r0,	r1	
 3a2:	5a 00       	rrcm	#1,	r10	
 3a4:	00 00       	bra	@r0		
 3a6:	00 44       	br	r4		
 3a8:	01 46       	mov	r6,	r1	
 3aa:	01 02       	mova	#4,	r1	;r2 As==10
 3ac:	00 71       	subc	r1,	r0	
 3ae:	02 46       	mov	r6,	r2	
 3b0:	01 56       	add	r6,	r1	
 3b2:	01 02       	mova	#4,	r1	;r2 As==10
 3b4:	00 71       	subc	r1,	r0	
 3b6:	04 56       	add	r6,	r4	
 3b8:	01 58       	add	r8,	r1	
 3ba:	01 02       	mova	#4,	r1	;r2 As==10
 3bc:	00 71       	subc	r1,	r0	
 3be:	02 00       	mova	@r0,	r2	
 3c0:	00 00       	bra	@r0		
 3c2:	00 44       	br	r4		
 3c4:	01 50       	add	r0,	r1	
 3c6:	01 01       	mova	@r1,	r1	
 3c8:	00 5f       	add	r15,	r0	
 3ca:	50 01       	rram	#1,	r0	
 3cc:	53 01       	rram	#1,	#0	;r3 As==00
 3ce:	02 00       	mova	@r0,	r2	
 3d0:	91 7a 00 00 	subc	0(r10),	0(r1)	;0x0000(r10), 0x0000(r1)
 3d4:	00 00 
 3d6:	58 01       	rram	#1,	r8	
 3d8:	5a 01       	rram	#1,	r10	
 3da:	02 00       	mova	@r0,	r2	
 3dc:	71 02 5a 01 	mova	r2,	346(r1)	;0x015a(r1)
 3e0:	5c 01       	rram	#1,	r12	
 3e2:	02 00       	mova	@r0,	r2	
 3e4:	71 04 5c 01 	mova	r4,	348(r1)	;0x015c(r1)
 3e8:	5e 01       	rram	#1,	r14	
 3ea:	02 00       	mova	@r0,	r2	
 3ec:	71 06 5e 01 	mova	r6,	350(r1)	;0x015e(r1)
 3f0:	60 01 02 00 	mova	r1,	&0x00002
 3f4:	71 08 60 01 	mova	r8,	352(r1)	;0x0160(r1)
 3f8:	62 01 02 00 	mova	r1,	&0x20002
 3fc:	71 0a 62 01 	mova	r10,	354(r1)	;0x0162(r1)
 400:	64 01 02 00 	mova	r1,	&0x40002
 404:	71 0c 64 01 	mova	r12,	356(r1)	;0x0164(r1)
 408:	66 01 02 00 	mova	r1,	&0x60002
 40c:	71 0e 66 01 	mova	r14,	358(r1)	;0x0166(r1)
 410:	a2 02 02 00 	adda	#0x20002,r2	
 414:	71 10       	rrc.b	@r1+		
 416:	a2 02 b2 02 	adda	#0x202b2,r2	
 41a:	02 00       	mova	@r0,	r2	
 41c:	71 12       	push.b	@r1+		
 41e:	b2 02 c2 02 	suba	#0x202c2,r2	
 422:	02 00       	mova	@r0,	r2	
 424:	71 10       	rrc.b	@r1+		
 426:	00 00       	bra	@r0		
 428:	00 00       	bra	@r0		
 42a:	58 01       	rram	#1,	r8	
 42c:	8a 01 01 00 	mova	#0x10001,r10	
 430:	5f 8a 01 b4 	sub.b	-19455(r10),r15	;0xb401(r10)
 434:	02 01       	mova	@r1,	r2	
 436:	00 55       	add	r5,	r0	
 438:	00 00       	bra	@r0		
 43a:	00 00       	bra	@r0		
 43c:	c2 02       	mova	r2,	r2	
 43e:	c4 02       	mova	r2,	r4	
 440:	02 00       	mova	@r0,	r2	
 442:	71 02 c4 02 	mova	r2,	708(r1)	;0x02c4(r1)
 446:	c6 02       	mova	r2,	r6	
 448:	02 00       	mova	@r0,	r2	
 44a:	71 04 c6 02 	mova	r4,	710(r1)	;0x02c6(r1)
 44e:	c8 02       	mova	r2,	r8	
 450:	02 00       	mova	@r0,	r2	
 452:	71 06 c8 02 	mova	r6,	712(r1)	;0x02c8(r1)
 456:	ca 02       	mova	r2,	r10	
 458:	02 00       	mova	@r0,	r2	
 45a:	71 08 ca 02 	mova	r8,	714(r1)	;0x02ca(r1)
 45e:	cc 02       	mova	r2,	r12	
 460:	02 00       	mova	@r0,	r2	
 462:	71 0a cc 02 	mova	r10,	716(r1)	;0x02cc(r1)
 466:	ce 02       	mova	r2,	r14	
 468:	02 00       	mova	@r0,	r2	
 46a:	71 0c ce 02 	mova	r12,	718(r1)	;0x02ce(r1)
 46e:	d0 02       	cmpa	r2,	r0	
 470:	02 00       	mova	@r0,	r2	
 472:	71 0e d0 02 	mova	r14,	720(r1)	;0x02d0(r1)
 476:	d2 02       	cmpa	r2,	r2	
 478:	02 00       	mova	@r0,	r2	
 47a:	71 10       	rrc.b	@r1+		
 47c:	d2 02       	cmpa	r2,	r2	
 47e:	d6 02       	cmpa	r2,	r6	
 480:	02 00       	mova	@r0,	r2	
 482:	71 12       	push.b	@r1+		
 484:	d6 02       	cmpa	r2,	r6	
 486:	f4 02       	suba	r2,	r4	
 488:	02 00       	mova	@r0,	r2	
 48a:	71 1c       	.word	0x1c71;	????	
 48c:	f4 02       	suba	r2,	r4	
 48e:	40 03       	rrum.a	#1,	r0	
 490:	02 00       	mova	@r0,	r2	
 492:	71 1e       	.word	0x1e71;	????	
 494:	40 03       	rrum.a	#1,	r0	
 496:	a2 03 02 00 	adda	#0x30002,r2	
 49a:	71 1c       	.word	0x1c71;	????	
 49c:	a2 03 44 04 	adda	#0x30444,r2	
 4a0:	02 00       	mova	@r0,	r2	
 4a2:	71 1e       	.word	0x1e71;	????	
 4a4:	44 04       	rrcm.a	#2,	r4	
 4a6:	62 04 02 00 	mova	r4,	&0x20002
 4aa:	71 1c       	.word	0x1c71;	????	
 4ac:	00 00       	bra	@r0		
 4ae:	00 00       	bra	@r0		
 4b0:	c2 02       	mova	r2,	r2	
 4b2:	01 03       	mova	#2,	r1	;r3 As==10
 4b4:	01 00       	mova	@r0,	r1	
 4b6:	5f 01       	rram	#1,	r15	
 4b8:	03 72       	.word	0x7203;	????	Illegal as 2-op instr
 4ba:	03 01       	.word	0x0103;	????	Illegal as address instr
 4bc:	00 58       	add	r8,	r0	
 4be:	00 00       	bra	@r0		
 4c0:	00 00       	bra	@r0		
 4c2:	c2 02       	mova	r2,	r2	
 4c4:	fa 02       	suba	r2,	r10	
 4c6:	01 00       	mova	@r0,	r1	
 4c8:	5e fa 02 72 	and.b	29186(r10),r14	;0x7202(r10)
 4cc:	03 01       	.word	0x0103;	????	Illegal as address instr
 4ce:	00 59       	add	r9,	r0	
 4d0:	00 00       	bra	@r0		
 4d2:	00 00       	bra	@r0		
 4d4:	c2 02       	mova	r2,	r2	
 4d6:	f8 02       	suba	r2,	r8	
 4d8:	01 00       	mova	@r0,	r1	
 4da:	5d f8 02 62 	and.b	25090(r8),r13	;0x6202(r8)
 4de:	04 02       	mova	#4,	r4	;r2 As==10
 4e0:	00 91       	cmp	r1,	r0	
 4e2:	68 00 00 00 	mova	r0,	&0x80000
 4e6:	00 c2       	bic	r2,	r0	
 4e8:	02 f6       	and	r6,	r2	
 4ea:	02 01       	mova	@r1,	r2	
 4ec:	00 5c       	add	r12,	r0	
 4ee:	f6 02       	suba	r2,	r6	
 4f0:	54 04       	rrcm	#2,	r4	
 4f2:	01 00       	mova	@r0,	r1	
 4f4:	55 00       	rrcm	#1,	r5	
 4f6:	00 00       	bra	@r0		
 4f8:	00 e0       	xor	r0,	r0	
 4fa:	02 f8       	and	r8,	r2	
 4fc:	02 05       	mova	@r5,	r2	
 4fe:	00 31       	jn	$+514    	;abs 0x700
 500:	7d 00 1c 9f 	mova	r0,	-24804(r13);0x9f1c(r13)
 504:	f8 02       	suba	r2,	r8	
 506:	72 03 06 00 	mova	#0,	&0x0006	;r3 As==00
 50a:	31 91       	cmp	@r1+,	r1	
 50c:	68 06 1c 9f 	mova	r6,	&0x89f1c
 510:	8a 03 8e 03 	mova	#0x3038e,r10	
 514:	01 00       	mova	@r0,	r1	
 516:	54 00       	rrcm	#1,	r4	
 518:	00 00       	bra	@r0		
 51a:	00 e0       	xor	r0,	r0	
 51c:	02 72       	subc	r2,	r2	
 51e:	03 02       	.word	0x0203;	????	Illegal as address instr
 520:	00 30       	jn	$+2      	;abs 0x522
 522:	9f 00 00 00 	cmpa	#0x00000,r15	
 526:	00 e0       	xor	r0,	r0	
 528:	02 f8       	and	r8,	r2	
 52a:	02 06       	mova	@r6,	r2	
 52c:	00 7d       	subc	r13,	r0	
 52e:	00 09       	bra	@r9		
 530:	fe 1e 9f f8 	andx	-167422(r8),-129277(r15);0xd7202(r8), 0xe0703(r15)
 534:	02 72 03 07 
 538:	00 91       	cmp	r1,	r0	
 53a:	68 06 09 fe 	mova	r6,	&0x8fe09
 53e:	1e 9f 72 03 	cmp	882(r15),r14	;0x0372(r15)
 542:	7a 03 02 00 	mova	#0,	2(r10)	;r3 As==00, 0x0002(r10)
 546:	91 6c 86 03 	addc	902(r12),906(r1)	;0x0386(r12), 0x038a(r1)
 54a:	8a 03 
 54c:	02 00       	mova	@r0,	r2	
 54e:	91 6c 8a 03 	addc	906(r12),1100(r1);0x038a(r12), 0x044c(r1)
 552:	4c 04 
 554:	02 00       	mova	@r0,	r2	
 556:	91 6c 00 00 	addc	0(r12),	0(r1)	;0x0000(r12), 0x0000(r1)
 55a:	00 00 
 55c:	e0 02       	adda	r2,	r0	
 55e:	72 03 02 00 	mova	#0,	&0x0002	;r3 As==00
 562:	30 9f       	cmp	@r15+,	r0	
 564:	72 03 7a 03 	mova	#0,	&0x037a	;r3 As==00
 568:	02 00       	mova	@r0,	r2	
 56a:	91 66 8e 03 	addc	910(r6),1100(r1);0x038e(r6), 0x044c(r1)
 56e:	4c 04 
 570:	02 00       	mova	@r0,	r2	
 572:	91 66 00 00 	addc	0(r6),	0(r1)	;0x0000(r6), 0x0000(r1)
 576:	00 00 
 578:	e4 02       	adda	r2,	r4	
 57a:	f8 02       	suba	r2,	r8	
 57c:	01 00       	mova	@r0,	r1	
 57e:	5d f8 02 62 	and.b	25090(r8),r13	;0x6202(r8)
 582:	04 02       	mova	#4,	r4	;r2 As==10
 584:	00 91       	cmp	r1,	r0	
 586:	68 00 00 00 	mova	r0,	&0x80000
 58a:	00 62       	addc	r2,	r0	
 58c:	04 64       	rlc	r4		
 58e:	04 02       	mova	#4,	r4	;r2 As==10
 590:	00 71       	subc	r1,	r0	
 592:	02 64       	addc	r4,	r2	
 594:	04 66       	addc	r6,	r4	
 596:	04 02       	mova	#4,	r4	;r2 As==10
 598:	00 71       	subc	r1,	r0	
 59a:	04 66       	addc	r6,	r4	
 59c:	04 68       	addc	r8,	r4	
 59e:	04 02       	mova	#4,	r4	;r2 As==10
 5a0:	00 71       	subc	r1,	r0	
 5a2:	06 68       	addc	r8,	r6	
 5a4:	04 6a       	addc	r10,	r4	
 5a6:	04 02       	mova	#4,	r4	;r2 As==10
 5a8:	00 71       	subc	r1,	r0	
 5aa:	08 6a       	addc	r10,	r8	
 5ac:	04 ca       	bic	r10,	r4	
 5ae:	04 02       	mova	#4,	r4	;r2 As==10
 5b0:	00 71       	subc	r1,	r0	
 5b2:	0a 00       	mova	@r0,	r10	
 5b4:	00 00       	bra	@r0		
 5b6:	00 62       	addc	r2,	r0	
 5b8:	04 78       	subc	r8,	r4	
 5ba:	04 01       	mova	@r1,	r4	
 5bc:	00 5f       	add	r15,	r0	
 5be:	78 04 7b 04 	mova	r4,	1147(r8);0x047b(r8)
 5c2:	01 00       	mova	@r0,	r1	
 5c4:	5d 00       	rrcm	#1,	r13	
 5c6:	00 00       	bra	@r0		
 5c8:	00 62       	addc	r2,	r0	
 5ca:	04 76       	subc	r6,	r4	
 5cc:	04 01       	mova	@r1,	r4	
 5ce:	00 5e       	add	r14,	r0	
 5d0:	76 04 c2 04 	mova	r4,	1218(r6);0x04c2(r6)
 5d4:	01 00       	mova	@r0,	r1	
 5d6:	58 00       	rrcm	#1,	r8	
 5d8:	00 00       	bra	@r0		
 5da:	00 62       	addc	r2,	r0	
 5dc:	04 74       	subc	r4,	r4	
 5de:	04 01       	mova	@r1,	r4	
 5e0:	00 5d       	add	r13,	r0	
 5e2:	74 04 ac 04 	mova	r4,	1196(r4);0x04ac(r4)
 5e6:	01 00       	mova	@r0,	r1	
 5e8:	5a 00       	rrcm	#1,	r10	
 5ea:	00 00       	bra	@r0		
 5ec:	00 ca       	bic	r10,	r0	
 5ee:	04 cc       	bic	r12,	r4	
 5f0:	04 02       	mova	#4,	r4	;r2 As==10
 5f2:	00 71       	subc	r1,	r0	
 5f4:	02 cc       	bic	r12,	r2	
 5f6:	04 ce       	bic	r14,	r4	
 5f8:	04 02       	mova	#4,	r4	;r2 As==10
 5fa:	00 71       	subc	r1,	r0	
 5fc:	04 ce       	bic	r14,	r4	
 5fe:	04 d0       	bis	r0,	r4	
 600:	04 02       	mova	#4,	r4	;r2 As==10
 602:	00 71       	subc	r1,	r0	
 604:	06 d0       	bis	r0,	r6	
 606:	04 d2       	bis	r2,	r4	
 608:	04 02       	mova	#4,	r4	;r2 As==10
 60a:	00 71       	subc	r1,	r0	
 60c:	08 d2       	bis	r2,	r8	
 60e:	04 d4       	bis	r4,	r4	
 610:	04 02       	mova	#4,	r4	;r2 As==10
 612:	00 71       	subc	r1,	r0	
 614:	0a d4       	bis	r4,	r10	
 616:	04 d6       	bis	r6,	r4	
 618:	04 02       	mova	#4,	r4	;r2 As==10
 61a:	00 71       	subc	r1,	r0	
 61c:	0c d6       	bis	r6,	r12	
 61e:	04 d8       	bis	r8,	r4	
 620:	04 02       	mova	#4,	r4	;r2 As==10
 622:	00 71       	subc	r1,	r0	
 624:	0e d8       	bis	r8,	r14	
 626:	04 da       	bis	r10,	r4	
 628:	04 02       	mova	#4,	r4	;r2 As==10
 62a:	00 71       	subc	r1,	r0	
 62c:	10 da 04 dc 	bis	-9212(r10),r0	;0xdc04(r10)
 630:	04 02       	mova	#4,	r4	;r2 As==10
 632:	00 71       	subc	r1,	r0	
 634:	12 dc 04 98 	bis	-26620(r12),r2	;0x9804(r12)
 638:	05 02       	mova	#4,	r5	;r2 As==10
 63a:	00 71       	subc	r1,	r0	
 63c:	16 00       	mova	#0x00000,r6	
 63e:	00 00       	bra	@r0		
 640:	00 ca       	bic	r10,	r0	
 642:	04 f8       	and	r8,	r4	
 644:	04 01       	mova	@r1,	r4	
 646:	00 5f       	add	r15,	r0	
 648:	f8 04       	suba	r4,	r8	
 64a:	20 05 01 00 	bra	&0x50001	
 64e:	59 54 05 6e 	add.b	28165(r4),r9	;0x6e05(r4)
 652:	05 01       	mova	@r1,	r5	
 654:	00 59       	add	r9,	r0	
 656:	6e 05 98 05 	mova	r5,	&0xe0598
 65a:	01 00       	mova	@r0,	r1	
 65c:	59 00       	rrcm	#1,	r9	
 65e:	00 00       	bra	@r0		
 660:	00 ca       	bic	r10,	r0	
 662:	04 f8       	and	r8,	r4	
 664:	04 01       	mova	@r1,	r4	
 666:	00 5e       	add	r14,	r0	
 668:	f8 04       	suba	r4,	r8	
 66a:	2a 05 01 00 	mova	&0x50001,r10	
 66e:	5a 2a       	jnc	$-842    	;abs 0x324
 670:	05 40       	mov	r0,	r5	
 672:	05 01       	mova	@r1,	r5	
 674:	00 5a       	add	r10,	r0	
 676:	54 05       	rram	#2,	r4	
 678:	64 05 01 00 	mova	r5,	&0x40001
 67c:	5a 88 05 98 	sub.b	-26619(r8),r10	;0x9805(r8)
 680:	05 01       	mova	@r1,	r5	
 682:	00 5a       	add	r10,	r0	
 684:	00 00       	bra	@r0		
 686:	00 00       	bra	@r0		
 688:	ca 04       	mova	r4,	r10	
 68a:	06 05       	mova	@r5,	r6	
 68c:	01 00       	mova	@r0,	r1	
 68e:	5d 06       	rlam	#2,	r13	
 690:	05 42       	mov	r2,	r5	
 692:	05 02       	mova	#4,	r5	;r2 As==10
 694:	00 71       	subc	r1,	r0	
 696:	00 42       	br	r2		
 698:	05 54       	add	r4,	r5	
 69a:	05 02       	mova	#4,	r5	;r2 As==10
 69c:	00 91       	cmp	r1,	r0	
 69e:	6a 54       	add.b	@r4,	r10	
 6a0:	05 98       	cmp	r8,	r5	
 6a2:	05 02       	mova	#4,	r5	;r2 As==10
 6a4:	00 71       	subc	r1,	r0	
 6a6:	00 00       	bra	@r0		
 6a8:	00 00       	bra	@r0		
 6aa:	00 ca       	bic	r10,	r0	
 6ac:	04 0d       	mova	@r13,	r4	
 6ae:	05 01       	mova	@r1,	r5	
 6b0:	00 5c       	add	r12,	r0	
 6b2:	0d 05       	mova	@r5,	r13	
 6b4:	98 05 02 00 	cmpa	#0x50002,r8	
 6b8:	91 6c 00 00 	addc	0(r12),	0(r1)	;0x0000(r12), 0x0000(r1)
 6bc:	00 00 
 6be:	f0 04       	suba	r4,	r0	
 6c0:	02 05       	mova	@r5,	r2	
 6c2:	01 00       	mova	@r0,	r1	
 6c4:	55 02       	rlam	#1,	r5	
 6c6:	05 46       	mov	r6,	r5	
 6c8:	05 01       	mova	@r1,	r5	
 6ca:	00 55       	add	r5,	r0	
 6cc:	54 05       	rram	#2,	r4	
 6ce:	92 05 01 00 	cmpa	#0x50001,r2	
 6d2:	55 92 05 94 	cmp.b	&0x9405,r5	
 6d6:	05 04       	mova	@r4,	r5	
 6d8:	00 75       	subc	r5,	r0	
 6da:	00 20       	jnz	$+2      	;abs 0x6dc
 6dc:	9f 94 05 98 	cmp	-26619(r4),261(r15);0x9805(r4), 0x0105(r15)
 6e0:	05 01 
 6e2:	00 55       	add	r5,	r0	
 6e4:	00 00       	bra	@r0		
 6e6:	00 00       	bra	@r0		
 6e8:	f4 04       	suba	r4,	r4	
 6ea:	04 05       	mova	@r5,	r4	
 6ec:	01 00       	mova	@r0,	r1	
 6ee:	56 04       	rrcm	#2,	r6	
 6f0:	05 48       	mov	r8,	r5	
 6f2:	05 01       	mova	@r1,	r5	
 6f4:	00 56       	add	r6,	r0	
 6f6:	54 05       	rram	#2,	r4	
 6f8:	8a 05 01 00 	mova	#0x50001,r10	
 6fc:	56 8a 05 8c 	sub.b	-29691(r10),r6	;0x8c05(r10)
 700:	05 04       	mova	@r4,	r5	
 702:	00 76       	subc	r6,	r0	
 704:	00 20       	jnz	$+2      	;abs 0x706
 706:	9f 8c 05 98 	sub	-26619(r12),261(r15);0x9805(r12), 0x0105(r15)
 70a:	05 01 
 70c:	00 56       	add	r6,	r0	
 70e:	00 00       	bra	@r0		
 710:	00 00       	bra	@r0		
 712:	00 05       	bra	@r5		
 714:	4a 05       	rram.a	#2,	r10	
 716:	01 00       	mova	@r0,	r1	
 718:	57 54 05 88 	add.b	-30715(r4),r7	;0x8805(r4)
 71c:	05 01       	mova	@r1,	r5	
 71e:	00 57       	add	r7,	r0	
 720:	8c 05 90 05 	mova	#0x50590,r12	
 724:	03 00       	.word	0x0003;	????	Illegal as address instr
 726:	09 ff       	and	r15,	r9	
 728:	9f 00 00 00 	cmpa	#0x00000,r15	
 72c:	00 fa       	and	r10,	r0	
 72e:	04 4c       	mov	r12,	r4	
 730:	05 01       	mova	@r1,	r5	
 732:	00 58       	add	r8,	r0	
 734:	54 05       	rram	#2,	r4	
 736:	90 05 01 00 	cmpa	#0x50001,r0	
 73a:	58 94 05 98 	cmp.b	-26619(r4),r8	;0x9805(r4)
 73e:	05 03       	mova	#2,	r5	;r3 As==10
 740:	00 09       	bra	@r9		
 742:	ff 9f 00 00 	cmp.b	@r15+,	0(r15)	;0x0000(r15)
 746:	00 00       	bra	@r0		
 748:	12 05       	mova	@r5+,	r2	
 74a:	22 05 08 00 	mova	&0x50008,r2	
 74e:	75 00 76 00 	mova	r0,	118(r5)	;0x0076(r5)
 752:	31 26       	jz	$-924    	;abs 0x3b6
 754:	1c 9f 22 05 	cmp	1314(r15),r12	;0x0522(r15)
 758:	24 05 06 00 	mova	&0x50006,r4	
 75c:	7b 00 75 00 	mova	r0,	117(r11);0x0075(r11)
 760:	22 9f       	cmp	@r15,	r2	
 762:	2c 05 40 05 	mova	&0x50540,r12	
 766:	06 00       	mova	@r0,	r6	
 768:	7b 00 75 00 	mova	r0,	117(r11);0x0075(r11)
 76c:	22 9f       	cmp	@r15,	r2	
 76e:	00 00       	bra	@r0		
 770:	00 00       	bra	@r0		
 772:	54 05       	rram	#2,	r4	
 774:	66 05 08 00 	mova	r5,	&0x60008
 778:	76 00 75 00 	mova	r0,	117(r6)	;0x0075(r6)
 77c:	31 26       	jz	$-924    	;abs 0x3e0
 77e:	1c 9f 66 05 	cmp	1382(r15),r12	;0x0566(r15)
 782:	68 05 06 00 	mova	r5,	&0x80006
 786:	7b 00 76 00 	mova	r0,	118(r11);0x0076(r11)
 78a:	22 9f       	cmp	@r15,	r2	
 78c:	70 05 88 05 	mova	r5,	0x0588	;PC rel. 0x00d16
 790:	06 00       	mova	@r0,	r6	
 792:	7b 00 76 00 	mova	r0,	118(r11);0x0076(r11)
 796:	22 9f       	cmp	@r15,	r2	
 798:	00 00       	bra	@r0		
 79a:	00 00       	bra	@r0		
 79c:	98 05 9a 05 	cmpa	#0x5059a,r8	
 7a0:	02 00       	mova	@r0,	r2	
 7a2:	71 02 9a 05 	mova	r2,	1434(r1);0x059a(r1)
 7a6:	9c 05 02 00 	cmpa	#0x50002,r12	
 7aa:	71 04 9c 05 	mova	r4,	1436(r1);0x059c(r1)
 7ae:	9e 05 02 00 	cmpa	#0x50002,r14	
 7b2:	71 06 9e 05 	mova	r6,	1438(r1);0x059e(r1)
 7b6:	a0 05 02 00 	adda	#0x50002,r0	
 7ba:	71 08 a0 05 	mova	r8,	1440(r1);0x05a0(r1)
 7be:	dc 05       	cmpa	r5,	r12	
 7c0:	02 00       	mova	@r0,	r2	
 7c2:	71 0a dc 05 	mova	r10,	1500(r1);0x05dc(r1)
 7c6:	ea 05       	adda	r5,	r10	
 7c8:	02 00       	mova	@r0,	r2	
 7ca:	71 0c ea 05 	mova	r12,	1514(r1);0x05ea(r1)
 7ce:	32 06 02 00 	mova	2(r6),	r2	;0x0002(r6)
 7d2:	71 0a 00 00 	mova	r10,	0(r1)	;0x0000(r1)
 7d6:	00 00       	bra	@r0		
 7d8:	98 05 b6 05 	cmpa	#0x505b6,r8	
 7dc:	01 00       	mova	@r0,	r1	
 7de:	5f b6 05 b9 	bit.b	-18171(r6),r15	;0xb905(r6)
 7e2:	05 01       	mova	@r1,	r5	
 7e4:	00 5e       	add	r14,	r0	
 7e6:	00 00       	bra	@r0		
 7e8:	00 00       	bra	@r0		
 7ea:	98 05 b2 05 	cmpa	#0x505b2,r8	
 7ee:	01 00       	mova	@r0,	r1	
 7f0:	5e b2 05 2a 	bit.b	&0x2a05,r14	
 7f4:	06 01       	mova	@r1,	r6	
 7f6:	00 58       	add	r8,	r0	
 7f8:	00 00       	bra	@r0		
 7fa:	00 00       	bra	@r0		
 7fc:	98 05 ac 05 	cmpa	#0x505ac,r8	
 800:	01 00       	mova	@r0,	r1	
 802:	5d ac 05 f0 	dadd.b	-4091(r12),r13	;0xf005(r12)
 806:	05 01       	mova	@r1,	r5	
 808:	00 5b       	add	r11,	r0	
 80a:	00 00       	bra	@r0		
 80c:	00 00       	bra	@r0		
 80e:	98 05 b9 05 	cmpa	#0x505b9,r8	
 812:	01 00       	mova	@r0,	r1	
 814:	5c b9 05 e8 	bit.b	-6139(r9),r12	;0xe805(r9)
 818:	05 01       	mova	@r1,	r5	
 81a:	00 5a       	add	r10,	r0	
 81c:	e8 05       	adda	r5,	r8	
 81e:	f0 05       	suba	r5,	r0	
 820:	03 00       	.word	0x0003;	????	Illegal as address instr
 822:	03 30       	jn	$+8      	;abs 0x82a
 824:	01 00       	mova	@r0,	r1	
 826:	00 00       	bra	@r0		
 828:	00 ea       	xor	r10,	r0	
 82a:	05 f0       	and	r0,	r5	
 82c:	05 02       	mova	#4,	r5	;r2 As==10
 82e:	00 30       	jn	$+2      	;abs 0x830
 830:	9f fe 05 02 	and	517(r14),262(r15);0x0205(r14), 0x0106(r15)
 834:	06 01 
 836:	00 5b       	add	r11,	r0	
 838:	00 00       	bra	@r0		
 83a:	00 00       	bra	@r0		
 83c:	ea 05       	adda	r5,	r10	
 83e:	2e 06 01 00 	mova	&0x60001,r14	
 842:	5a 00       	rrcm	#1,	r10	
 844:	00 00       	bra	@r0		
 846:	00 4c       	br	r12		
 848:	06 54       	add	r4,	r6	
 84a:	06 01       	mova	@r1,	r6	
 84c:	00 5f       	add	r15,	r0	
 84e:	54 06       	rlam	#2,	r4	
 850:	66 06 01 00 	mova	r6,	&0x60001
 854:	5f 00       	rrcm	#1,	r15	
 856:	00 00       	bra	@r0		
 858:	00 4c       	br	r12		
 85a:	06 5c       	add	r12,	r6	
 85c:	06 01       	mova	@r1,	r6	
 85e:	00 5e       	add	r14,	r0	
 860:	5c 06       	rlam	#2,	r12	
 862:	66 06 01 00 	mova	r6,	&0x60001
 866:	5e 00       	rrcm	#1,	r14	
 868:	00 00       	bra	@r0		
 86a:	00 66       	addc	r6,	r0	
 86c:	06 68       	addc	r8,	r6	
 86e:	06 02       	mova	#4,	r6	;r2 As==10
 870:	00 71       	subc	r1,	r0	
 872:	02 68       	addc	r8,	r2	
 874:	06 6a       	addc	r10,	r6	
 876:	06 02       	mova	#4,	r6	;r2 As==10
 878:	00 71       	subc	r1,	r0	
 87a:	04 6a       	addc	r10,	r4	
 87c:	06 6c       	addc	r12,	r6	
 87e:	06 02       	mova	#4,	r6	;r2 As==10
 880:	00 71       	subc	r1,	r0	
 882:	06 6c       	addc	r12,	r6	
 884:	06 6e       	addc	r14,	r6	
 886:	06 02       	mova	#4,	r6	;r2 As==10
 888:	00 71       	subc	r1,	r0	
 88a:	08 6e       	addc	r14,	r8	
 88c:	06 70       	subc	r0,	r6	
 88e:	06 02       	mova	#4,	r6	;r2 As==10
 890:	00 71       	subc	r1,	r0	
 892:	0a 70       	subc	r0,	r10	
 894:	06 08       	mova	@r8,	r6	
 896:	07 02       	mova	#4,	r7	;r2 As==10
 898:	00 71       	subc	r1,	r0	
 89a:	0c 00       	mova	@r0,	r12	
 89c:	00 00       	bra	@r0		
 89e:	00 66       	addc	r6,	r0	
 8a0:	06 88       	sub	r8,	r6	
 8a2:	06 01       	mova	@r1,	r6	
 8a4:	00 5f       	add	r15,	r0	
 8a6:	88 06 c8 06 	mova	#0x606c8,r8	
 8aa:	01 00       	mova	@r0,	r1	
 8ac:	5b 00       	rrcm	#1,	r11	
 8ae:	00 00       	bra	@r0		
 8b0:	00 7e       	subc	r14,	r0	
 8b2:	06 8b       	sub	r11,	r6	
 8b4:	06 01       	mova	@r1,	r6	
 8b6:	00 5e       	add	r14,	r0	
 8b8:	96 06 9e 06 	cmpa	#0x6069e,r6	
 8bc:	03 00       	.word	0x0003;	????	Illegal as address instr
 8be:	7e 02 9f 9e 	mova	r2,	-24929(r14);0x9e9f(r14)
 8c2:	06 a5       	dadd	r5,	r6	
 8c4:	06 03       	mova	#2,	r6	;r3 As==10
 8c6:	00 7d       	subc	r13,	r0	
 8c8:	79 9f       	cmp.b	@r15+,	r9	
 8ca:	c8 06       	mova	r6,	r8	
 8cc:	ca 06       	mova	r6,	r10	
 8ce:	02 00       	mova	@r0,	r2	
 8d0:	30 9f       	cmp	@r15+,	r0	
 8d2:	00 00       	bra	@r0		
 8d4:	00 00       	bra	@r0		
 8d6:	b0 06 c8 06 	suba	#0x606c8,r0	
 8da:	02 00       	mova	@r0,	r2	
 8dc:	30 9f       	cmp	@r15+,	r0	
 8de:	00 00       	bra	@r0		
 8e0:	00 00       	bra	@r0		
 8e2:	ca 06       	mova	r6,	r10	
 8e4:	d9 06       	cmpa	r6,	r9	
 8e6:	02 00       	mova	@r0,	r2	
 8e8:	7b 00 f2 06 	mova	r0,	1778(r11);0x06f2(r11)
 8ec:	f9 06       	suba	r6,	r9	
 8ee:	02 00       	mova	@r0,	r2	
 8f0:	7b 00 00 00 	mova	r0,	0(r11)	;0x0000(r11)
 8f4:	00 00       	bra	@r0		
 8f6:	a6 06 c8 06 	adda	#0x606c8,r6	
 8fa:	02 00       	mova	@r0,	r2	
 8fc:	31 9f       	cmp	@r15+,	r1	
 8fe:	ea 06       	adda	r6,	r10	
 900:	f0 06       	suba	r6,	r0	
 902:	05 00       	mova	@r0,	r5	
 904:	7a 00 31 24 	mova	r0,	9265(r10);0x2431(r10)
 908:	9f f0 06 f2 	and	0xf206,	262(r15);PC rel. 0xffb12, 0x0106(r15)
 90c:	06 01 
 90e:	00 5a       	add	r10,	r0	
 910:	fc 06       	suba	r6,	r12	
 912:	04 07       	mova	@r7,	r4	
 914:	05 00       	mova	@r0,	r5	
 916:	7a 00 31 24 	mova	r0,	9265(r10);0x2431(r10)
 91a:	9f 00 00 00 	cmpa	#0x00000,r15	
 91e:	00 08       	bra	@r8		
 920:	07 10       	rrc	r7		
 922:	07 01       	mova	@r1,	r7	
 924:	00 5f       	add	r15,	r0	
 926:	10 07       	bra	@r7+		
 928:	41 07       	rrum.a	#2,	r1	
 92a:	01 00       	mova	@r0,	r1	
 92c:	5e 48 07 6b 	mov.b	27399(r8),r14	;0x6b07(r8)
 930:	07 01       	mova	@r1,	r7	
 932:	00 5e       	add	r14,	r0	
 934:	00 00       	bra	@r0		
 936:	00 00       	bra	@r0		
 938:	6e 07 71 07 	mova	r7,	&0xe0771
 93c:	01 00       	mova	@r0,	r1	
 93e:	5f 00       	rrcm	#1,	r15	
 940:	00 00       	bra	@r0		
 942:	00 76       	subc	r6,	r0	
 944:	07 78       	subc	r8,	r7	
 946:	07 02       	mova	#4,	r7	;r2 As==10
 948:	00 71       	subc	r1,	r0	
 94a:	02 78       	subc	r8,	r2	
 94c:	07 7a       	subc	r10,	r7	
 94e:	07 02       	mova	#4,	r7	;r2 As==10
 950:	00 71       	subc	r1,	r0	
 952:	04 7a       	subc	r10,	r4	
 954:	07 7c       	subc	r12,	r7	
 956:	07 02       	mova	#4,	r7	;r2 As==10
 958:	00 71       	subc	r1,	r0	
 95a:	06 7c       	subc	r12,	r6	
 95c:	07 7e       	subc	r14,	r7	
 95e:	07 02       	mova	#4,	r7	;r2 As==10
 960:	00 71       	subc	r1,	r0	
 962:	08 7e       	subc	r14,	r8	
 964:	07 80       	sub	r0,	r7	
 966:	07 02       	mova	#4,	r7	;r2 As==10
 968:	00 71       	subc	r1,	r0	
 96a:	0a 80       	sub	r0,	r10	
 96c:	07 a6       	dadd	r6,	r7	
 96e:	07 02       	mova	#4,	r7	;r2 As==10
 970:	00 71       	subc	r1,	r0	
 972:	0c a6       	dadd	r6,	r12	
 974:	07 b4       	bit	r4,	r7	
 976:	07 02       	mova	#4,	r7	;r2 As==10
 978:	00 71       	subc	r1,	r0	
 97a:	0e b4       	bit	r4,	r14	
 97c:	07 c8       	bic	r8,	r7	
 97e:	07 02       	mova	#4,	r7	;r2 As==10
 980:	00 71       	subc	r1,	r0	
 982:	0c c8       	bic	r8,	r12	
 984:	07 d2       	bis	r2,	r7	
 986:	07 02       	mova	#4,	r7	;r2 As==10
 988:	00 71       	subc	r1,	r0	
 98a:	0e d2       	bis	r2,	r14	
 98c:	07 d6       	bis	r6,	r7	
 98e:	07 02       	mova	#4,	r7	;r2 As==10
 990:	00 71       	subc	r1,	r0	
 992:	0c d6       	bis	r6,	r12	
 994:	07 e8       	xor	r8,	r7	
 996:	07 02       	mova	#4,	r7	;r2 As==10
 998:	00 71       	subc	r1,	r0	
 99a:	0e e8       	xor	r8,	r14	
 99c:	07 02       	mova	#4,	r7	;r2 As==10
 99e:	08 02       	mova	#4,	r8	;r2 As==10
 9a0:	00 71       	subc	r1,	r0	
 9a2:	0c 00       	mova	@r0,	r12	
 9a4:	00 00       	bra	@r0		
 9a6:	00 76       	subc	r6,	r0	
 9a8:	07 cf       	bic	r15,	r7	
 9aa:	07 01       	mova	@r1,	r7	
 9ac:	00 5f       	add	r15,	r0	
 9ae:	f4 07       	suba	r7,	r4	
 9b0:	02 08       	mova	@r8,	r2	
 9b2:	01 00       	mova	@r0,	r1	
 9b4:	5f 00       	rrcm	#1,	r15	
 9b6:	00 00       	bra	@r0		
 9b8:	00 76       	subc	r6,	r0	
 9ba:	07 8a       	sub	r10,	r7	
 9bc:	07 01       	mova	@r1,	r7	
 9be:	00 5e       	add	r14,	r0	
 9c0:	8a 07 ec 07 	mova	#0x707ec,r10	
 9c4:	01 00       	mova	@r0,	r1	
 9c6:	58 f4 07 02 	and.b	519(r4),r8	;0x0207(r4)
 9ca:	08 01       	mova	@r1,	r8	
 9cc:	00 58       	add	r8,	r0	
 9ce:	00 00       	bra	@r0		
 9d0:	00 00       	bra	@r0		
 9d2:	76 07 86 07 	mova	r7,	1926(r6);0x0786(r6)
 9d6:	01 00       	mova	@r0,	r1	
 9d8:	5d 86 07 ee 	sub.b	-4601(r6),r13	;0xee07(r6)
 9dc:	07 01       	mova	@r1,	r7	
 9de:	00 59       	add	r9,	r0	
 9e0:	f4 07       	suba	r7,	r4	
 9e2:	02 08       	mova	@r8,	r2	
 9e4:	01 00       	mova	@r0,	r1	
 9e6:	59 00       	rrcm	#1,	r9	
 9e8:	00 00       	bra	@r0		
 9ea:	00 76       	subc	r6,	r0	
 9ec:	07 b6       	bit	r6,	r7	
 9ee:	07 01       	mova	@r1,	r7	
 9f0:	00 5c       	add	r12,	r0	
 9f2:	f4 07       	suba	r7,	r4	
 9f4:	02 08       	mova	@r8,	r2	
 9f6:	01 00       	mova	@r0,	r1	
 9f8:	5c 00       	rrcm	#1,	r12	
 9fa:	00 00       	bra	@r0		
 9fc:	00 76       	subc	r6,	r0	
 9fe:	07 9a       	cmp	r10,	r7	
 a00:	07 02       	mova	#4,	r7	;r2 As==10
 a02:	00 91       	cmp	r1,	r0	
 a04:	10 f8 07 fa 	and	-1529(r8),r0	;0xfa07(r8)
 a08:	07 02       	mova	#4,	r7	;r2 As==10
 a0a:	00 91       	cmp	r1,	r0	
 a0c:	10 00       	bra	#0x00000	
 a0e:	00 00       	bra	@r0		
 a10:	00 02       	bra	#4		;r2 As==10
 a12:	08 04       	mova	@r4,	r8	
 a14:	08 02       	mova	#4,	r8	;r2 As==10
 a16:	00 71       	subc	r1,	r0	
 a18:	02 04       	mova	@r4,	r2	
 a1a:	08 06       	mova	@r6,	r8	
 a1c:	08 02       	mova	#4,	r8	;r2 As==10
 a1e:	00 71       	subc	r1,	r0	
 a20:	04 06       	mova	@r6,	r4	
 a22:	08 46       	mov	r6,	r8	
 a24:	08 02       	mova	#4,	r8	;r2 As==10
 a26:	00 71       	subc	r1,	r0	
 a28:	06 00       	mova	@r0,	r6	
 a2a:	00 00       	bra	@r0		
 a2c:	00 02       	bra	#4		;r2 As==10
 a2e:	08 0e       	mova	@r14,	r8	
 a30:	08 01       	mova	@r1,	r8	
 a32:	00 5f       	add	r15,	r0	
 a34:	0e 08       	mova	@r8,	r14	
 a36:	38 08 01 00 	mova	1(r8),	r8	;0x0001(r8)
 a3a:	5b 38       	jl	$+184    	;abs 0xaf2
 a3c:	08 40       	mov	r0,	r8	
 a3e:	08 01       	mova	@r1,	r8	
 a40:	00 5b       	add	r11,	r0	
 a42:	42 08       	rrcm.a	#3,	r2	
 a44:	46 08       	rrcm.a	#3,	r6	
 a46:	01 00       	mova	@r0,	r1	
 a48:	5b 00       	rrcm	#1,	r11	
 a4a:	00 00       	bra	@r0		
 a4c:	00 02       	bra	#4		;r2 As==10
 a4e:	08 0e       	mova	@r14,	r8	
 a50:	08 01       	mova	@r1,	r8	
 a52:	00 5e       	add	r14,	r0	
 a54:	0e 08       	mova	@r8,	r14	
 a56:	3e 08 01 00 	mova	1(r8),	r14	;0x0001(r8)
 a5a:	5a 42 08 46 	mov.b	&0x4608,r10	
 a5e:	08 01       	mova	@r1,	r8	
 a60:	00 5a       	add	r10,	r0	
 a62:	00 00       	bra	@r0		
 a64:	00 00       	bra	@r0		
 a66:	14 08       	mova	@r8+,	r4	
 a68:	22 08 03 00 	mova	&0x80003,r2	
 a6c:	03 02       	.word	0x0203;	????	Illegal as address instr
 a6e:	11 22       	jnz	$-988    	;abs 0x692
 a70:	08 2e       	jc	$-1006   	;abs 0x682
 a72:	08 01       	mova	@r1,	r8	
 a74:	00 5f       	add	r15,	r0	
 a76:	42 08       	rrcm.a	#3,	r2	
 a78:	44 08       	rrcm.a	#3,	r4	
 a7a:	01 00       	mova	@r0,	r1	
 a7c:	5f 44 08 46 	mov.b	17928(r4),r15	;0x4608(r4)
 a80:	08 03       	mova	#2,	r8	;r3 As==10
 a82:	00 03       	bra	#2		;r3 As==10
 a84:	02 11       	rra	r2		
 a86:	00 00       	bra	@r0		
 a88:	00 00       	bra	@r0		
 a8a:	14 08       	mova	@r8+,	r4	
 a8c:	1c 08       	mova	@r8+,	r12	
 a8e:	01 00       	mova	@r0,	r1	
 a90:	5b 1c       	.word	0x1c5b;	????	
 a92:	08 2e       	jc	$-1006   	;abs 0x6a4
 a94:	08 01       	mova	@r1,	r8	
 a96:	00 5e       	add	r14,	r0	
 a98:	42 08       	rrcm.a	#3,	r2	
 a9a:	46 08       	rrcm.a	#3,	r6	
 a9c:	01 00       	mova	@r0,	r1	
 a9e:	5e 00       	rrcm	#1,	r14	
 aa0:	00 00       	bra	@r0		
 aa2:	00 12       	push	r0		
 aa4:	00 1a       	.word	0x1a00;	????	
 aa6:	00 01       	bra	@r1		
 aa8:	00 5f       	add	r15,	r0	
 aaa:	1a 00       	mova	#0x00000,r10	
 aac:	1d 00       	mova	#0x00000,r13	
 aae:	01 00       	mova	@r0,	r1	
 ab0:	5e 00       	rrcm	#1,	r14	
 ab2:	00 00       	bra	@r0		
 ab4:	00 12       	push	r0		
 ab6:	00 16       	popm.a	#1,	r0	
 ab8:	00 01       	bra	@r1		
 aba:	00 5e       	add	r14,	r0	
 abc:	16 00       	mova	#0x00000,r6	
 abe:	1d 00       	mova	#0x00000,r13	
 ac0:	01 00       	mova	@r0,	r1	
 ac2:	5d 00       	rrcm	#1,	r13	
 ac4:	00 00       	bra	@r0		
 ac6:	00 00       	bra	@r0		
 ac8:	00 02       	bra	#4		;r2 As==10
 aca:	00 02       	bra	#4		;r2 As==10
 acc:	00 71       	subc	r1,	r0	
 ace:	02 02       	mova	#4,	r2	;r2 As==10
 ad0:	00 04       	bra	@r4		
 ad2:	00 02       	bra	#4		;r2 As==10
 ad4:	00 71       	subc	r1,	r0	
 ad6:	04 04       	mova	@r4,	r4	
 ad8:	00 06       	bra	@r6		
 ada:	00 02       	bra	#4		;r2 As==10
 adc:	00 71       	subc	r1,	r0	
 ade:	06 06       	mova	@r6,	r6	
 ae0:	00 08       	bra	@r8		
 ae2:	00 02       	bra	#4		;r2 As==10
 ae4:	00 71       	subc	r1,	r0	
 ae6:	08 08       	mova	@r8,	r8	
 ae8:	00 0a       	bra	@r10		
 aea:	00 02       	bra	#4		;r2 As==10
 aec:	00 71       	subc	r1,	r0	
 aee:	0a 0a       	mova	@r10,	r10	
 af0:	00 0c       	bra	@r12		
 af2:	00 02       	bra	#4		;r2 As==10
 af4:	00 71       	subc	r1,	r0	
 af6:	0c 0c       	mova	@r12,	r12	
 af8:	00 0e       	bra	@r14		
 afa:	00 02       	bra	#4		;r2 As==10
 afc:	00 71       	subc	r1,	r0	
 afe:	0e 0e       	mova	@r14,	r14	
 b00:	00 10       	rrc	r0		
 b02:	00 02       	bra	#4		;r2 As==10
 b04:	00 71       	subc	r1,	r0	
 b06:	10 10 00 12 	rrc	0x1200		;PC rel. 0x01d0a
 b0a:	00 02       	bra	#4		;r2 As==10
 b0c:	00 71       	subc	r1,	r0	
 b0e:	12 12 00 04 	push	&0x0400	
 b12:	01 02       	mova	#4,	r1	;r2 As==10
 b14:	00 71       	subc	r1,	r0	
 b16:	14 00       	mova	#0x00000,r4	
 b18:	00 00       	bra	@r0		
 b1a:	00 00       	bra	@r0		
 b1c:	00 1a       	.word	0x1a00;	????	
 b1e:	00 01       	bra	@r1		
 b20:	00 5f       	add	r15,	r0	
 b22:	1a 00       	mova	#0x00000,r10	
 b24:	00 01       	bra	@r1		
 b26:	01 00       	mova	@r0,	r1	
 b28:	5a 00       	rrcm	#1,	r10	
 b2a:	00 00       	bra	@r0		
 b2c:	00 00       	bra	@r0		
 b2e:	00 22       	jnz	$-1022   	;abs 0x730
 b30:	00 01       	bra	@r1		
 b32:	00 5e       	add	r14,	r0	
 b34:	22 00 d8 00 	mova	&0x000d8,r2	
 b38:	01 00       	mova	@r0,	r1	
 b3a:	58 d8 00 fc 	bis.b	-1024(r8),r8	;0xfc00(r8)
 b3e:	00 01       	bra	@r1		
 b40:	00 58       	add	r8,	r0	
 b42:	00 00       	bra	@r0		
 b44:	00 00       	bra	@r0		
 b46:	00 00       	bra	@r0		
 b48:	20 00 01 00 	bra	&0x00001	
 b4c:	5d 20       	jnz	$+188    	;abs 0xc08
 b4e:	00 74       	subc	r4,	r0	
 b50:	00 01       	bra	@r1		
 b52:	00 57       	add	r7,	r0	
 b54:	74 00 78 00 	mova	r0,	120(r4)	;0x0078(r4)
 b58:	01 00       	mova	@r0,	r1	
 b5a:	57 78 00 fa 	subc.b	-1536(r8),r7	;0xfa00(r8)
 b5e:	00 01       	bra	@r1		
 b60:	00 57       	add	r7,	r0	
 b62:	00 00       	bra	@r0		
 b64:	00 00       	bra	@r0		
 b66:	00 00       	bra	@r0		
 b68:	1c 00       	mova	#0x00000,r12	
 b6a:	01 00       	mova	@r0,	r1	
 b6c:	5c 00       	rrcm	#1,	r12	
 b6e:	00 00       	bra	@r0		
 b70:	00 1e 00 a4 	daddx	r4,	r0	
 b74:	00 02       	bra	#4		;r2 As==10
 b76:	00 30       	jn	$+2      	;abs 0xb78
 b78:	9f a4 00 ac 	dadd	-21504(r4),256(r15);0xac00(r4), 0x0100(r15)
 b7c:	00 01 
 b7e:	00 5b       	add	r11,	r0	
 b80:	ac 00 ae 00 	adda	#0x000ae,r12	
 b84:	01 00       	mova	@r0,	r1	
 b86:	5b ae 00 b4 	dadd.b	-19456(r14),r11	;0xb400(r14)
 b8a:	00 01       	bra	@r1		
 b8c:	00 5b       	add	r11,	r0	
 b8e:	b4 00 b8 00 	suba	#0x000b8,r4	
 b92:	02 00       	mova	@r0,	r2	
 b94:	30 9f       	cmp	@r15+,	r0	
 b96:	bc 00 be 00 	suba	#0x000be,r12	
 b9a:	01 00       	mova	@r0,	r1	
 b9c:	5b be 00 c6 	bit.b	-14848(r14),r11	;0xc600(r14)
 ba0:	00 01       	bra	@r1		
 ba2:	00 5b       	add	r11,	r0	
 ba4:	c6 00       	mova	r0,	r6	
 ba6:	da 00       	cmpa	r0,	r10	
 ba8:	01 00       	mova	@r0,	r1	
 baa:	5b da 00 ea 	bis.b	-5632(r10),r11	;0xea00(r10)
 bae:	00 01       	bra	@r1		
 bb0:	00 5b       	add	r11,	r0	
 bb2:	ea 00       	adda	r0,	r10	
 bb4:	02 01       	mova	@r1,	r2	
 bb6:	01 00       	mova	@r0,	r1	
 bb8:	5b 02       	rlam	#1,	r11	
 bba:	01 04       	mova	@r4,	r1	
 bbc:	01 01       	mova	@r1,	r1	
 bbe:	00 5f       	add	r15,	r0	
 bc0:	00 00       	bra	@r0		
 bc2:	00 00       	bra	@r0		
 bc4:	1e 00       	mova	#0x00000,r14	
 bc6:	82 00 02 00 	mova	#0x00002,r2	
 bca:	30 9f       	cmp	@r15+,	r0	
 bcc:	82 00 8c 00 	mova	#0x0008c,r2	
 bd0:	01 00       	mova	@r0,	r1	
 bd2:	59 8c 00 8e 	sub.b	-29184(r12),r9	;0x8e00(r12)
 bd6:	00 01       	bra	@r1		
 bd8:	00 59       	add	r9,	r0	
 bda:	8e 00 9a 00 	mova	#0x0009a,r14	
 bde:	01 00       	mova	@r0,	r1	
 be0:	59 9a 00 a4 	cmp.b	-23552(r10),r9	;0xa400(r10)
 be4:	00 02       	bra	#4		;r2 As==10
 be6:	00 30       	jn	$+2      	;abs 0xbe8
 be8:	9f a4 00 ae 	dadd	-20992(r4),256(r15);0xae00(r4), 0x0100(r15)
 bec:	00 01 
 bee:	00 59       	add	r9,	r0	
 bf0:	ae 00 b4 00 	adda	#0x000b4,r14	
 bf4:	01 00       	mova	@r0,	r1	
 bf6:	59 b4 00 b8 	bit.b	-18432(r4),r9	;0xb800(r4)
 bfa:	00 02       	bra	#4		;r2 As==10
 bfc:	00 30       	jn	$+2      	;abs 0xbfe
 bfe:	9f 00 00 00 	cmpa	#0x00000,r15	
 c02:	00 1e 00 f2 	andx	r2,	r0	
 c06:	00 01       	bra	@r1		
 c08:	00 51       	add	r1,	r0	
 c0a:	f2 00       	suba	r0,	r2	
 c0c:	04 01       	mova	@r1,	r4	
 c0e:	03 00       	.word	0x0003;	????	Illegal as address instr
 c10:	91 6c 9f 00 	addc	159(r12),0(r1)	;0x009f(r12), 0x0000(r1)
 c14:	00 00 
 c16:	00 1e       	.word	0x1e00;	????	
 c18:	00 2e       	jc	$-1022   	;abs 0x81a
 c1a:	00 01       	bra	@r1		
 c1c:	00 51       	add	r1,	r0	
 c1e:	2e 00 42 00 	mova	&0x00042,r14	
 c22:	03 00       	.word	0x0003;	????	Illegal as address instr
 c24:	91 6d 9f 42 	addc	17055(r13),18432(r1);0x429f(r13), 0x4800(r1)
 c28:	00 48 
 c2a:	00 03       	bra	#2		;r3 As==10
 c2c:	00 91       	cmp	r1,	r0	
 c2e:	6e 9f       	cmp.b	@r15,	r14	
 c30:	48 00       	rrcm.a	#1,	r8	
 c32:	50 00       	rrcm	#1,	r0	
 c34:	01 00       	mova	@r0,	r1	
 c36:	51 50 00 56 	add.b	0x5600,	r1	;PC rel. 0x0623a
 c3a:	00 03       	bra	#2		;r3 As==10
 c3c:	00 91       	cmp	r1,	r0	
 c3e:	6d 9f       	cmp.b	@r15,	r13	
 c40:	56 00       	rrcm	#1,	r6	
 c42:	58 00       	rrcm	#1,	r8	
 c44:	01 00       	mova	@r0,	r1	
 c46:	51 58 00 5a 	add.b	23040(r8),r1	;0x5a00(r8)
 c4a:	00 01       	bra	@r1		
 c4c:	00 56       	add	r6,	r0	
 c4e:	00 00       	bra	@r0		
 c50:	00 00       	bra	@r0		
 c52:	5e 00       	rrcm	#1,	r14	
 c54:	a4 00 03 00 	adda	#0x00003,r4	
 c58:	08 20       	jnz	$+18     	;abs 0xc6a
 c5a:	9f a4 00 ae 	dadd	-20992(r4),256(r15);0xae00(r4), 0x0100(r15)
 c5e:	00 01 
 c60:	00 54       	add	r4,	r0	
 c62:	ae 00 b4 00 	adda	#0x000b4,r14	
 c66:	01 00       	mova	@r0,	r1	
 c68:	54 00       	rrcm	#1,	r4	
 c6a:	00 00       	bra	@r0		
 c6c:	00 6e       	addc	r14,	r0	
 c6e:	00 ae       	dadd	r14,	r0	
 c70:	00 01       	bra	@r1		
 c72:	00 55       	add	r5,	r0	
 c74:	ae 00 b4 00 	adda	#0x000b4,r14	
 c78:	01 00       	mova	@r0,	r1	
 c7a:	55 00       	rrcm	#1,	r5	
 c7c:	00 00       	bra	@r0		
 c7e:	00 0c       	bra	@r12		
 c80:	01 0e       	mova	@r14,	r1	
 c82:	01 02       	mova	#4,	r1	;r2 As==10
 c84:	00 71       	subc	r1,	r0	
 c86:	02 0e       	mova	@r14,	r2	
 c88:	01 10       	rrc	r1		
 c8a:	01 02       	mova	#4,	r1	;r2 As==10
 c8c:	00 71       	subc	r1,	r0	
 c8e:	04 10       	rrc	r4		
 c90:	01 12       	push	r1		
 c92:	01 02       	mova	#4,	r1	;r2 As==10
 c94:	00 71       	subc	r1,	r0	
 c96:	06 12       	push	r6		
 c98:	01 14       	pushm.a	#1,	r1	
 c9a:	01 02       	mova	#4,	r1	;r2 As==10
 c9c:	00 71       	subc	r1,	r0	
 c9e:	08 14       	pushm.a	#1,	r8	
 ca0:	01 16       	popm.a	#1,	r1	
 ca2:	01 02       	mova	#4,	r1	;r2 As==10
 ca4:	00 71       	subc	r1,	r0	
 ca6:	0a 16       	popm.a	#1,	r10	
 ca8:	01 18       	.word	0x1801;	????	
 caa:	01 02       	mova	#4,	r1	;r2 As==10
 cac:	00 71       	subc	r1,	r0	
 cae:	0c 18       	.word	0x180c;	????	
 cb0:	01 1a       	.word	0x1a01;	????	
 cb2:	01 02       	mova	#4,	r1	;r2 As==10
 cb4:	00 71       	subc	r1,	r0	
 cb6:	0e 1a       	.word	0x1a0e;	????	
 cb8:	01 1c       	.word	0x1c01;	????	
 cba:	01 02       	mova	#4,	r1	;r2 As==10
 cbc:	00 71       	subc	r1,	r0	
 cbe:	10 1c       	.word	0x1c10;	????	
 cc0:	01 20       	jnz	$+4      	;abs 0xcc4
 cc2:	01 02       	mova	#4,	r1	;r2 As==10
 cc4:	00 71       	subc	r1,	r0	
 cc6:	12 20       	jnz	$+38     	;abs 0xcec
 cc8:	01 76       	subc	r6,	r1	
 cca:	04 02       	mova	#4,	r4	;r2 As==10
 ccc:	00 71       	subc	r1,	r0	
 cce:	34 00 00 00 	mova	0x0000,	r4	;PC rel. 0x00cd0
 cd2:	00 0c       	bra	@r12		
 cd4:	01 3c       	jmp	$+4      	;abs 0xcd8
 cd6:	01 01       	mova	@r1,	r1	
 cd8:	00 5f       	add	r15,	r0	
 cda:	3c 01 76 04 	mova	1142(r1),r12	;0x0476(r1)
 cde:	02 00       	mova	@r0,	r2	
 ce0:	91 64 00 00 	addc	0(r4),	0(r1)	;0x0000(r4), 0x0000(r1)
 ce4:	00 00 
 ce6:	0c 01       	mova	@r1,	r12	
 ce8:	3c 01 01 00 	mova	1(r1),	r12	;0x0001(r1)
 cec:	5e 3c       	jmp	$+190    	;abs 0xdaa
 cee:	01 60       	addc	r0,	r1	
 cf0:	01 01       	mova	@r1,	r1	
 cf2:	00 5f       	add	r15,	r0	
 cf4:	60 01 76 04 	mova	r1,	&0x00476
 cf8:	02 00       	mova	@r0,	r2	
 cfa:	91 66 00 00 	addc	0(r6),	0(r1)	;0x0000(r6), 0x0000(r1)
 cfe:	00 00 
 d00:	0c 01       	mova	@r1,	r12	
 d02:	3c 01 01 00 	mova	1(r1),	r12	;0x0001(r1)
 d06:	5d 3c       	jmp	$+188    	;abs 0xdc2
 d08:	01 34       	jge	$+4      	;abs 0xd0c
 d0a:	02 02       	mova	#4,	r2	;r2 As==10
 d0c:	00 91       	cmp	r1,	r0	
 d0e:	5a 34       	jge	$+182    	;abs 0xdc4
 d10:	02 5a       	add	r10,	r2	
 d12:	02 01       	mova	@r1,	r2	
 d14:	00 5c       	add	r12,	r0	
 d16:	5a 02       	rlam	#1,	r10	
 d18:	a2 02 02 00 	adda	#0x20002,r2	
 d1c:	91 5a a2 02 	add	674(r10),688(r1)	;0x02a2(r10), 0x02b0(r1)
 d20:	b0 02 
 d22:	06 00       	mova	@r0,	r6	
 d24:	91 5a 06 23 	add	8966(r10),-24830(r1);0x2306(r10), 0x9f02(r1)
 d28:	02 9f 
 d2a:	b0 02 b6 02 	suba	#0x202b6,r0	
 d2e:	02 00       	mova	@r0,	r2	
 d30:	91 5a b6 02 	add	694(r10),732(r1)	;0x02b6(r10), 0x02dc(r1)
 d34:	dc 02 
 d36:	01 00       	mova	@r0,	r1	
 d38:	5b dc 02 0a 	bis.b	2562(r12),r11	;0x0a02(r12)
 d3c:	03 06       	.word	0x0603;	????	Illegal as address instr
 d3e:	00 91       	cmp	r1,	r0	
 d40:	5a 06       	rlam	#2,	r10	
 d42:	23 02       	.word	0x0223;	????	Illegal as address instr
 d44:	9f 0a 03 28 	cmpa	#0xa2803,r15	
 d48:	03 02       	.word	0x0203;	????	Illegal as address instr
 d4a:	00 91       	cmp	r1,	r0	
 d4c:	5a 28       	jnc	$+182    	;abs 0xe02
 d4e:	03 3a       	jl	$-1016   	;abs 0x956
 d50:	03 06       	.word	0x0603;	????	Illegal as address instr
 d52:	00 91       	cmp	r1,	r0	
 d54:	5a 06       	rlam	#2,	r10	
 d56:	23 04       	.word	0x0423;	????	Illegal as address instr
 d58:	9f 3a       	jl	$-704    	;abs 0xa98
 d5a:	03 46       	.word	0x4603;	????	Illegal as 2-op instr
 d5c:	03 02       	.word	0x0203;	????	Illegal as address instr
 d5e:	00 91       	cmp	r1,	r0	
 d60:	5a 46 03 58 	mov.b	22531(r6),r10	;0x5803(r6)
 d64:	03 01       	.word	0x0103;	????	Illegal as address instr
 d66:	00 5a       	add	r10,	r0	
 d68:	58 03       	rrum	#1,	r8	
 d6a:	64 03 01 00 	mova	#0,	&0x40001;r3 As==00
 d6e:	5a 64 03 76 	addc.b	30211(r4),r10	;0x7603(r4)
 d72:	04 02       	mova	#4,	r4	;r2 As==10
 d74:	00 91       	cmp	r1,	r0	
 d76:	5a 00       	rrcm	#1,	r10	
 d78:	00 00       	bra	@r0		
 d7a:	00 2c       	jc	$+2      	;abs 0xd7c
 d7c:	01 3c       	jmp	$+4      	;abs 0xd80
 d7e:	01 02       	mova	#4,	r1	;r2 As==10
 d80:	00 30       	jn	$+2      	;abs 0xd82
 d82:	9f 3c       	jmp	$+320    	;abs 0xec2
 d84:	01 4e       	mov	r14,	r1	
 d86:	04 02       	mova	#4,	r4	;r2 As==10
 d88:	00 91       	cmp	r1,	r0	
 d8a:	5e 4e 04 76 	mov.b	30212(r14),r14	;0x7604(r14)
 d8e:	04 02       	mova	#4,	r4	;r2 As==10
 d90:	00 91       	cmp	r1,	r0	
 d92:	5e 00       	rrcm	#1,	r14	
 d94:	00 00       	bra	@r0		
 d96:	00 2c       	jc	$+2      	;abs 0xd98
 d98:	01 3c       	jmp	$+4      	;abs 0xd9c
 d9a:	01 02       	mova	#4,	r1	;r2 As==10
 d9c:	00 30       	jn	$+2      	;abs 0xd9e
 d9e:	9f 3c       	jmp	$+320    	;abs 0xede
 da0:	01 4e       	mov	r14,	r1	
 da2:	01 01       	mova	@r1,	r1	
 da4:	00 5a       	add	r10,	r0	
 da6:	4e 01       	rram.a	#1,	r14	
 da8:	56 01       	rram	#1,	r6	
 daa:	02 00       	mova	@r0,	r2	
 dac:	31 9f       	cmp	@r15+,	r1	
 dae:	56 01       	rram	#1,	r6	
 db0:	66 02 01 00 	mova	r2,	&0x60001
 db4:	5a a2 02 d6 	dadd.b	&0xd602,r10	
 db8:	02 01       	mova	@r1,	r2	
 dba:	00 5a       	add	r10,	r0	
 dbc:	d6 02       	cmpa	r2,	r6	
 dbe:	dc 02       	cmpa	r2,	r12	
 dc0:	02 00       	mova	@r0,	r2	
 dc2:	30 9f       	cmp	@r15+,	r0	
 dc4:	dc 02       	cmpa	r2,	r12	
 dc6:	40 03       	rrum.a	#1,	r0	
 dc8:	01 00       	mova	@r0,	r1	
 dca:	5a 36       	jge	$-842    	;abs 0xa80
 dcc:	04 38       	jl	$+10     	;abs 0xdd6
 dce:	04 02       	mova	#4,	r4	;r2 As==10
 dd0:	00 30       	jn	$+2      	;abs 0xdd2
 dd2:	9f 38       	jl	$+320    	;abs 0xf12
 dd4:	04 44       	mov	r4,	r4	
 dd6:	04 01       	mova	@r1,	r4	
 dd8:	00 5a       	add	r10,	r0	
 dda:	44 04       	rrcm.a	#2,	r4	
 ddc:	48 04       	rrcm.a	#2,	r8	
 dde:	02 00       	mova	@r0,	r2	
 de0:	30 9f       	cmp	@r15+,	r0	
 de2:	4a 04       	rrcm.a	#2,	r10	
 de4:	4e 04       	rrcm.a	#2,	r14	
 de6:	01 00       	mova	@r0,	r1	
 de8:	5a 4e 04 72 	mov.b	29188(r14),r10	;0x7204(r14)
 dec:	04 01       	mova	@r1,	r4	
 dee:	00 5a       	add	r10,	r0	
 df0:	00 00       	bra	@r0		
 df2:	00 00       	bra	@r0		
 df4:	2c 01 3c 01 	mova	&0x1013c,r12	
 df8:	02 00       	mova	@r0,	r2	
 dfa:	30 9f       	cmp	@r15+,	r0	
 dfc:	3c 01 4a 01 	mova	330(r1),r12	;0x014a(r1)
 e00:	02 00       	mova	@r0,	r2	
 e02:	91 5c 4a 01 	add	330(r12),342(r1)	;0x014a(r12), 0x0156(r1)
 e06:	56 01 
 e08:	02 00       	mova	@r0,	r2	
 e0a:	30 9f       	cmp	@r15+,	r0	
 e0c:	56 01       	rram	#1,	r6	
 e0e:	42 02       	rlam.a	#1,	r2	
 e10:	02 00       	mova	@r0,	r2	
 e12:	91 5c 42 02 	add	578(r12),580(r1)	;0x0242(r12), 0x0244(r1)
 e16:	44 02 
 e18:	03 00       	.word	0x0003;	????	Illegal as address instr
 e1a:	91 5a 06 44 	add	17414(r10),-28158(r1);0x4406(r10), 0x9202(r1)
 e1e:	02 92 
 e20:	02 02       	mova	#4,	r2	;r2 As==10
 e22:	00 91       	cmp	r1,	r0	
 e24:	5c 92 02 a0 	cmp.b	&0xa002,r12	
 e28:	02 01       	mova	@r1,	r2	
 e2a:	00 5b       	add	r11,	r0	
 e2c:	a0 02 48 04 	adda	#0x20448,r0	
 e30:	02 00       	mova	@r0,	r2	
 e32:	91 5c 4a 04 	add	1098(r12),1102(r1);0x044a(r12), 0x044e(r1)
 e36:	4e 04 
 e38:	02 00       	mova	@r0,	r2	
 e3a:	91 5c 4e 04 	add	1102(r12),1142(r1);0x044e(r12), 0x0476(r1)
 e3e:	76 04 
 e40:	02 00       	mova	@r0,	r2	
 e42:	91 5c 00 00 	add	0(r12),	0(r1)	;0x0000(r12), 0x0000(r1)
 e46:	00 00 
 e48:	bc 02 d1 02 	suba	#0x202d1,r12	
 e4c:	03 00       	.word	0x0003;	????	Illegal as address instr
 e4e:	91 5a 06 9a 	add	-26106(r10),-25085(r1);0x9a06(r10), 0x9e03(r1)
 e52:	03 9e 
 e54:	03 03       	.word	0x0303;	????	Illegal as address instr
 e56:	00 91       	cmp	r1,	r0	
 e58:	59 9f 9e 03 	cmp.b	926(r15),r9	;0x039e(r15)
 e5c:	bc 03 03 00 	suba	#0x30003,r12	
 e60:	91 58 9f c4 	add	-15201(r8),-10749(r1);0xc49f(r8), 0xd603(r1)
 e64:	03 d6 
 e66:	03 01       	.word	0x0103;	????	Illegal as address instr
 e68:	00 5f       	add	r15,	r0	
 e6a:	d6 03       	tsta	r6		
 e6c:	e2 03       	incda	r2		
 e6e:	02 00       	mova	@r0,	r2	
 e70:	91 6c e2 03 	addc	994(r12),996(r1)	;0x03e2(r12), 0x03e4(r1)
 e74:	e4 03 
 e76:	01 00       	mova	@r0,	r1	
 e78:	57 e4 03 fa 	xor.b	-1533(r4),r7	;0xfa03(r4)
 e7c:	03 02       	.word	0x0203;	????	Illegal as address instr
 e7e:	00 91       	cmp	r1,	r0	
 e80:	6c 00 00 00 	mova	r0,	&0xc0000
 e84:	00 3c       	jmp	$+2      	;abs 0xe86
 e86:	01 3a       	jl	$-1020   	;abs 0xa8a
 e88:	02 01       	mova	@r1,	r2	
 e8a:	00 5e       	add	r14,	r0	
 e8c:	3a 02 a8 02 	mova	&0x02a8,r10	
 e90:	03 00       	.word	0x0003;	????	Illegal as address instr
 e92:	91 66 06 a8 	addc	-22522(r6),-20478(r1);0xa806(r6), 0xb002(r1)
 e96:	02 b0 
 e98:	02 03       	mova	#2,	r2	;r3 As==10
 e9a:	00 91       	cmp	r1,	r0	
 e9c:	5a 06       	rlam	#2,	r10	
 e9e:	b0 02 d1 02 	suba	#0x202d1,r0	
 ea2:	03 00       	.word	0x0003;	????	Illegal as address instr
 ea4:	91 66 06 dc 	addc	-9210(r6),-17406(r1);0xdc06(r6), 0xbc02(r1)
 ea8:	02 bc 
 eaa:	03 01       	.word	0x0103;	????	Illegal as address instr
 eac:	00 5e       	add	r14,	r0	
 eae:	bc 03 31 04 	suba	#0x30431,r12	
 eb2:	03 00       	.word	0x0003;	????	Illegal as address instr
 eb4:	91 66 06 38 	addc	14342(r6),14852(r1);0x3806(r6), 0x3a04(r1)
 eb8:	04 3a 
 eba:	04 01       	mova	@r1,	r4	
 ebc:	00 5e       	add	r14,	r0	
 ebe:	48 04       	rrcm.a	#2,	r8	
 ec0:	4a 04       	rrcm.a	#2,	r10	
 ec2:	03 00       	.word	0x0003;	????	Illegal as address instr
 ec4:	91 66 06 54 	addc	21510(r6),30212(r1);0x5406(r6), 0x7604(r1)
 ec8:	04 76 
 eca:	04 03       	mova	#2,	r4	;r3 As==10
 ecc:	00 91       	cmp	r1,	r0	
 ece:	66 06 00 00 	mova	r6,	&0x60000
 ed2:	00 00       	bra	@r0		
 ed4:	00 03       	bra	#2		;r3 As==10
 ed6:	0a 03       	mova	#2,	r10	;r3 As==10
 ed8:	02 00       	mova	@r0,	r2	
 eda:	40 9f       	cmp.b	r15,	r0	
 edc:	20 03 6a 03 	bra	&0x3036a	
 ee0:	01 00       	mova	@r0,	r1	
 ee2:	54 00       	rrcm	#1,	r4	
 ee4:	00 00       	bra	@r0		
 ee6:	00 f4       	and	r4,	r0	
 ee8:	02 00       	mova	@r0,	r2	
 eea:	03 02       	.word	0x0203;	????	Illegal as address instr
 eec:	00 91       	cmp	r1,	r0	
 eee:	60 00 03 0a 	mova	r0,	&0x00a03
 ef2:	03 06       	.word	0x0603;	????	Illegal as address instr
 ef4:	00 55       	add	r5,	r0	
 ef6:	93 02       	.word	0x0293;	????	Illegal as address instr
 ef8:	56 93       	cmp.b	#1,	r6	;r3 As==01
 efa:	02 32       	jn	$-1018   	;abs 0xb00
 efc:	03 3a       	jl	$-1016   	;abs 0xb04
 efe:	03 03       	.word	0x0303;	????	Illegal as address instr
 f00:	00 91       	cmp	r1,	r0	
 f02:	5a 06       	rlam	#2,	r10	
 f04:	56 03       	rrum	#1,	r6	
 f06:	58 03       	rrum	#1,	r8	
 f08:	06 00       	mova	@r0,	r6	
 f0a:	55 93       	cmp.b	#1,	r5	;r3 As==01
 f0c:	02 56       	add	r6,	r2	
 f0e:	93 02       	.word	0x0293;	????	Illegal as address instr
 f10:	60 03 96 03 	mova	#0,	&0x00396;r3 As==00
 f14:	06 00       	mova	@r0,	r6	
 f16:	55 93       	cmp.b	#1,	r5	;r3 As==01
 f18:	02 56       	add	r6,	r2	
 f1a:	93 02       	.word	0x0293;	????	Illegal as address instr
 f1c:	9a 03 0c 04 	cmpa	#0x3040c,r10	
 f20:	06 00       	mova	@r0,	r6	
 f22:	55 93       	cmp.b	#1,	r5	;r3 As==01
 f24:	02 56       	add	r6,	r2	
 f26:	93 02       	.word	0x0293;	????	Illegal as address instr
 f28:	0c 04       	mova	@r4,	r12	
 f2a:	22 04 06 00 	mova	&0x40006,r2	
 f2e:	5c 93       	cmp.b	#1,	r12	;r3 As==01
 f30:	02 5d       	add	r13,	r2	
 f32:	93 02       	.word	0x0293;	????	Illegal as address instr
 f34:	22 04 38 04 	mova	&0x40438,r2	
 f38:	06 00       	mova	@r0,	r6	
 f3a:	55 93       	cmp.b	#1,	r5	;r3 As==01
 f3c:	02 56       	add	r6,	r2	
 f3e:	93 02       	.word	0x0293;	????	Illegal as address instr
 f40:	00 00       	bra	@r0		
 f42:	00 00       	bra	@r0		
 f44:	3a 02 5a 02 	mova	&0x025a,r10	
 f48:	03 00       	.word	0x0003;	????	Illegal as address instr
 f4a:	91 5a 06 00 	add	6(r10),	0(r1)	;0x0006(r10), 0x0000(r1)
 f4e:	00 00 
 f50:	00 d2       	bis	r2,	r0	
 f52:	03 de       	.word	0xde03;	????	Illegal as 2-op instr
 f54:	03 01       	.word	0x0103;	????	Illegal as address instr
 f56:	00 5e       	add	r14,	r0	
 f58:	e4 03       	incda	r4		
 f5a:	fa 03       	decda	r10		
 f5c:	01 00       	mova	@r0,	r1	
 f5e:	5e 00       	rrcm	#1,	r14	
 f60:	00 00       	bra	@r0		
	...

Disassembly of section .debug_pubtypes:

00000000 <.debug_pubtypes>:
   0:	0e 00       	mova	@r0,	r14	
   2:	00 00       	bra	@r0		
   4:	02 00       	mova	@r0,	r2	
   6:	00 00       	bra	@r0		
   8:	00 00       	bra	@r0		
   a:	fc 00       	suba	r0,	r12	
   c:	00 00       	bra	@r0		
   e:	00 00       	bra	@r0		
  10:	00 00       	bra	@r0		
  12:	1d 00       	mova	#0x00000,r13	
  14:	00 00       	bra	@r0		
  16:	02 00       	mova	@r0,	r2	
  18:	cb 01       	mova	r1,	r11	
  1a:	00 00       	bra	@r0		
  1c:	70 03 00 00 	mova	#0,	0x0000	;r3 As==00, PC rel. 0x0001e
  20:	78 00 00 00 	mova	r0,	0(r8)	;0x0000(r8)
  24:	49 32       	jn	$-876    	;abs 0xfcb8
  26:	43 5f       	.word	0x5f43;	????	Illegal as 2-op instr
  28:	53 54       	.word	0x5453;	????	Illegal as 2-op instr
  2a:	41 54       	add.b	r4,	r1	
  2c:	55 53       	inc.b	r5		
  2e:	00 00       	bra	@r0		
  30:	00 00       	bra	@r0		
  32:	00 0e       	bra	@r14		
  34:	00 00       	bra	@r0		
  36:	00 02       	bra	#4		;r2 As==10
  38:	00 3b       	jl	$-510    	;abs 0xfe3a
  3a:	05 00       	mova	@r0,	r5	
  3c:	00 7e       	subc	r14,	r0	
  3e:	07 00       	mova	@r0,	r7	
  40:	00 00       	bra	@r0		
  42:	00 00       	bra	@r0		
  44:	00 0e       	bra	@r14		
  46:	00 00       	bra	@r0		
  48:	00 02       	bra	#4		;r2 As==10
  4a:	00 b9       	bit	r9,	r0	
  4c:	0c 00       	mova	@r0,	r12	
  4e:	00 6c       	addc	r12,	r0	
  50:	01 00       	mova	@r0,	r1	
  52:	00 00       	bra	@r0		
  54:	00 00       	bra	@r0		
  56:	00 2d       	jc	$+514    	;abs 0x258
  58:	00 00       	bra	@r0		
  5a:	00 02       	bra	#4		;r2 As==10
  5c:	00 25       	jz	$+514    	;abs 0x25e
  5e:	0e 00       	mova	@r0,	r14	
  60:	00 03       	bra	#2		;r3 As==10
  62:	01 00       	mova	@r0,	r1	
  64:	00 72       	subc	r2,	r0	
  66:	00 00       	bra	@r0		
  68:	00 5f       	add	r15,	r0	
  6a:	5f 67 6e 75 	addc.b	30062(r7),r15	;0x756e(r7)
  6e:	63 5f       	.word	0x5f63;	????	Illegal as 2-op instr
  70:	76 61       	addc.b	@r1+,	r6	
  72:	5f 6c 69 73 	addc.b	29545(r12),r15	;0x7369(r12)
  76:	74 00 83 00 	mova	r0,	131(r4)	;0x0083(r4)
  7a:	00 00       	bra	@r0		
  7c:	76 61       	addc.b	@r1+,	r6	
  7e:	5f 6c 69 73 	addc.b	29545(r12),r15	;0x7369(r12)
  82:	74 00 00 00 	mova	r0,	0(r4)	;0x0000(r4)
  86:	00 00       	bra	@r0		
  88:	52 00       	rrcm	#1,	r2	
  8a:	00 00       	bra	@r0		
  8c:	02 00       	mova	@r0,	r2	
  8e:	28 0f 00 00 	mova	&0xf0000,r8	
  92:	b5 03 00 00 	suba	#0x30000,r5	
  96:	3d 00 00 00 	mova	0x0000,	r13	;PC rel. 0x00098
  9a:	69 6e       	addc.b	@r14,	r9	
  9c:	74 31       	jn	$+746    	;abs 0x386
  9e:	36 5f       	add	@r15+,	r6	
  a0:	74 00 64 00 	mova	r0,	100(r4)	;0x0064(r4)
  a4:	00 00       	bra	@r0		
  a6:	69 6e       	addc.b	@r14,	r9	
  a8:	74 70 74 72 	subc.b	#29300,	r4	;#0x7274
  ac:	5f 74 00 8e 	subc.b	-29184(r4),r15	;0x8e00(r4)
  b0:	00 00       	bra	@r0		
  b2:	00 5f       	add	r15,	r0	
  b4:	5f 67 6e 75 	addc.b	30062(r7),r15	;0x756e(r7)
  b8:	63 5f       	.word	0x5f63;	????	Illegal as 2-op instr
  ba:	76 61       	addc.b	@r1+,	r6	
  bc:	5f 6c 69 73 	addc.b	29545(r12),r15	;0x7369(r12)
  c0:	74 00 9f 00 	mova	r0,	159(r4)	;0x009f(r4)
  c4:	00 00       	bra	@r0		
  c6:	76 61       	addc.b	@r1+,	r6	
  c8:	5f 6c 69 73 	addc.b	29545(r12),r15	;0x7369(r12)
  cc:	74 00 38 01 	mova	r0,	312(r4)	;0x0138(r4)
  d0:	00 00       	bra	@r0		
  d2:	66 6c       	addc.b	@r12,	r6	
  d4:	61 67       	addc.b	@r7,	r1	
  d6:	73 5f       	.word	0x5f73;	????	Illegal as 2-op instr
  d8:	74 00 00 00 	mova	r0,	0(r4)	;0x0000(r4)
	...

Disassembly of section .debug_ranges:

00000000 <.debug_ranges>:
   0:	38 31       	jn	$+626    	;abs 0x272
   2:	04 32       	jn	$-1014   	;abs 0xfc0c
   4:	00 00       	bra	@r0		
   6:	00 00       	bra	@r0		
   8:	28 07 3c 07 	mova	&0x7073c,r8	
   c:	62 07 68 07 	mova	r7,	&0x20768
  10:	00 00       	bra	@r0		
  12:	00 00       	bra	@r0		
  14:	9a 07 e8 07 	cmpa	#0x707e8,r10	
  18:	fa 07       	suba	r7,	r10	
  1a:	02 08       	mova	@r8,	r2	
  1c:	f4 07       	suba	r7,	r4	
  1e:	f8 07       	suba	r7,	r8	
  20:	00 00       	bra	@r0		
  22:	00 00       	bra	@r0		
  24:	14 08       	mova	@r8+,	r4	
  26:	2a 08 42 08 	mova	&0x80842,r10	
  2a:	46 08       	rrcm.a	#3,	r6	
  2c:	00 00       	bra	@r0		
  2e:	00 00       	bra	@r0		
  30:	5e 00       	rrcm	#1,	r14	
  32:	b4 00 b8 00 	suba	#0x000b8,r4	
  36:	bc 00 00 00 	suba	#0x00000,r12	
	...
