
francis.o:     file format elf32-msp430

Disassembly of section .text:

0000f800 <__low_level_init>:
    f800:	b2 40 80 5a 	mov	#23168,	&0x0120	;#0x5a80
    f804:	20 01 

0000f806 <__do_copy_data>:
    f806:	3f 40 00 00 	mov	#0,	r15	;#0x0000
    f80a:	0f 93       	cmp	#0,	r15	;r3 As==00
    f80c:	05 24       	jz	$+12     	;abs 0xf818
    f80e:	2f 83       	decd	r15		;
    f810:	9f 4f 1e fe 	mov	-482(r15),512(r15);
    f814:	00 02 
    f816:	fb 23       	jnz	$-8      	;abs 0xf80e

0000f818 <__do_clear_bss>:
    f818:	3f 40 06 00 	mov	#6,	r15	;#0x0006
    f81c:	0f 93       	cmp	#0,	r15	;r3 As==00
    f81e:	04 24       	jz	$+10     	;abs 0xf828
    f820:	1f 83       	dec	r15		;
    f822:	cf 43 00 02 	mov.b	#0,	512(r15);r3 As==00
    f826:	fc 23       	jnz	$-6      	;abs 0xf820

0000f828 <__jump_to_main>:
    f828:	30 40 3a f8 	br	#0xf83a		;

0000f82c <__ctors_end>:
    f82c:	30 40 30 f8 	br	#0xf830		;

0000f830 <_unexpected_>:
    f830:	00 13       	reti			

0000f832 <mask>:
    f832:	80 40 20 10 	mov	r0,	0x1020	; PC rel. 0x0854
    f836:	08 04       	.word	0x0408;	????
    f838:	02 01       	.word	0x0102;	????

0000f83a <main>:
    f83a:	31 40 80 02 	mov	#640,	r1	;#0x0280
    f83e:	b0 12 9a f8 	call	#-1894		;#0xf89a
    f842:	b0 12 ec f8 	call	#-1812		;#0xf8ec
    f846:	3f 40 21 00 	mov	#33,	r15	;#0x0021
    f84a:	ff f0 ef ff 	and.b	#-17,	0(r15)	;#0xffef
    f84e:	00 00 
    f850:	ff f0 df ff 	and.b	#-33,	0(r15)	;#0xffdf
    f854:	00 00 
    f856:	b0 12 50 fb 	call	#-1200		;#0xfb50
    f85a:	4f 93       	cmp.b	#0,	r15	;r3 As==00
    f85c:	18 20       	jnz	$+50     	;abs 0xf88e
    f85e:	f2 d0 10 00 	bis.b	#16,	&0x0021	;#0x0010
    f862:	21 00 
    f864:	39 40 21 00 	mov	#33,	r9	;#0x0021
    f868:	0a 49       	mov	r9,	r10	;
    f86a:	3b 40 13 00 	mov	#19,	r11	;#0x0013
    f86e:	b0 12 b4 fa 	call	#-1356		;#0xfab4
    f872:	4f 93       	cmp.b	#0,	r15	;r3 As==00
    f874:	08 20       	jnz	$+18     	;abs 0xf886
    f876:	f9 d0 10 00 	bis.b	#16,	0(r9)	;#0x0010
    f87a:	00 00 
    f87c:	3b 53       	add	#-1,	r11	;r3 As==11
    f87e:	3b b0 00 80 	bit	#-32768,r11	;#0x8000
    f882:	f5 37       	jge	$-20     	;abs 0xf86e
    f884:	ff 3f       	jmp	$+0      	;abs 0xf884
    f886:	fa d0 20 00 	bis.b	#32,	0(r10)	;#0x0020
    f88a:	00 00 
    f88c:	f7 3f       	jmp	$-16     	;abs 0xf87c
    f88e:	f2 d0 20 00 	bis.b	#32,	&0x0021	;#0x0020
    f892:	21 00 
    f894:	e7 3f       	jmp	$-48     	;abs 0xf864
    f896:	30 40 1c fe 	br	#0xfe1c		;

0000f89a <configura_cpu>:
    f89a:	b2 40 80 5a 	mov	#23168,	&0x0120	;#0x5a80
    f89e:	20 01 
    f8a0:	d2 42 fd 10 	mov.b	&0x10fd,&0x0057	;0x10fd
    f8a4:	57 00 
    f8a6:	d2 42 fc 10 	mov.b	&0x10fc,&0x0056	;0x10fc
    f8aa:	56 00 
    f8ac:	c2 43 58 00 	mov.b	#0,	&0x0058	;r3 As==00
    f8b0:	c2 43 53 00 	mov.b	#0,	&0x0053	;r3 As==00
    f8b4:	f2 40 33 00 	mov.b	#51,	&0x0022	;#0x0033
    f8b8:	22 00 
    f8ba:	30 41       	ret			

0000f8bc <delayus>:
    f8bc:	0e 43       	clr	r14		;
    f8be:	0e 9f       	cmp	r15,	r14	;
    f8c0:	04 2c       	jc	$+10     	;abs 0xf8ca
    f8c2:	03 43       	nop			
    f8c4:	1e 53       	inc	r14		;
    f8c6:	0e 9f       	cmp	r15,	r14	;
    f8c8:	fc 2b       	jnc	$-6      	;abs 0xf8c2
    f8ca:	30 41       	ret			

0000f8cc <delayms>:
    f8cc:	0b 12       	push	r11		;
    f8ce:	0a 12       	push	r10		;
    f8d0:	0a 4f       	mov	r15,	r10	;
    f8d2:	0b 43       	clr	r11		;
    f8d4:	0b 9f       	cmp	r15,	r11	;
    f8d6:	07 2c       	jc	$+16     	;abs 0xf8e6
    f8d8:	3f 40 20 03 	mov	#800,	r15	;#0x0320
    f8dc:	b0 12 bc f8 	call	#-1860		;#0xf8bc
    f8e0:	1b 53       	inc	r11		;
    f8e2:	0b 9a       	cmp	r10,	r11	;
    f8e4:	f9 2b       	jnc	$-12     	;abs 0xf8d8
    f8e6:	3a 41       	pop	r10		;
    f8e8:	3b 41       	pop	r11		;
    f8ea:	30 41       	ret			

0000f8ec <init_i2c>:
    f8ec:	f2 40 33 00 	mov.b	#51,	&0x0022	;#0x0033
    f8f0:	22 00 
    f8f2:	3f 40 21 00 	mov	#33,	r15	;#0x0021
    f8f6:	df d3 00 00 	bis.b	#1,	0(r15)	;r3 As==01
    f8fa:	ef d3 00 00 	bis.b	#2,	0(r15)	;r3 As==10
    f8fe:	30 41       	ret			

0000f900 <start_i2c>:
    f900:	0b 12       	push	r11		;
    f902:	3b 40 21 00 	mov	#33,	r11	;#0x0021
    f906:	db d3 00 00 	bis.b	#1,	0(r11)	;r3 As==01
    f90a:	2f 43       	mov	#2,	r15	;r3 As==10
    f90c:	b0 12 bc f8 	call	#-1860		;#0xf8bc
    f910:	eb d3 00 00 	bis.b	#2,	0(r11)	;r3 As==10
    f914:	2f 42       	mov	#4,	r15	;r2 As==10
    f916:	b0 12 bc f8 	call	#-1860		;#0xf8bc
    f91a:	db c3 00 00 	bic.b	#1,	0(r11)	;r3 As==01
    f91e:	2f 42       	mov	#4,	r15	;r2 As==10
    f920:	b0 12 bc f8 	call	#-1860		;#0xf8bc
    f924:	eb c3 00 00 	bic.b	#2,	0(r11)	;r3 As==10
    f928:	2f 43       	mov	#2,	r15	;r3 As==10
    f92a:	b0 12 bc f8 	call	#-1860		;#0xf8bc
    f92e:	3b 41       	pop	r11		;
    f930:	30 41       	ret			

0000f932 <stop_i2c>:
    f932:	0b 12       	push	r11		;
    f934:	3b 40 21 00 	mov	#33,	r11	;#0x0021
    f938:	db c3 00 00 	bic.b	#1,	0(r11)	;r3 As==01
    f93c:	2f 43       	mov	#2,	r15	;r3 As==10
    f93e:	b0 12 bc f8 	call	#-1860		;#0xf8bc
    f942:	eb d3 00 00 	bis.b	#2,	0(r11)	;r3 As==10
    f946:	2f 42       	mov	#4,	r15	;r2 As==10
    f948:	b0 12 bc f8 	call	#-1860		;#0xf8bc
    f94c:	db d3 00 00 	bis.b	#1,	0(r11)	;r3 As==01
    f950:	2f 42       	mov	#4,	r15	;r2 As==10
    f952:	b0 12 bc f8 	call	#-1860		;#0xf8bc
    f956:	3b 41       	pop	r11		;
    f958:	30 41       	ret			

0000f95a <send_0>:
    f95a:	0b 12       	push	r11		;
    f95c:	3b 40 21 00 	mov	#33,	r11	;#0x0021
    f960:	db c3 00 00 	bic.b	#1,	0(r11)	;r3 As==01
    f964:	2f 43       	mov	#2,	r15	;r3 As==10
    f966:	b0 12 bc f8 	call	#-1860		;#0xf8bc
    f96a:	eb d3 00 00 	bis.b	#2,	0(r11)	;r3 As==10
    f96e:	2f 42       	mov	#4,	r15	;r2 As==10
    f970:	b0 12 bc f8 	call	#-1860		;#0xf8bc
    f974:	eb c3 00 00 	bic.b	#2,	0(r11)	;r3 As==10
    f978:	2f 43       	mov	#2,	r15	;r3 As==10
    f97a:	b0 12 bc f8 	call	#-1860		;#0xf8bc
    f97e:	3b 41       	pop	r11		;
    f980:	30 41       	ret			

0000f982 <send_1>:
    f982:	0b 12       	push	r11		;
    f984:	3b 40 21 00 	mov	#33,	r11	;#0x0021
    f988:	db d3 00 00 	bis.b	#1,	0(r11)	;r3 As==01
    f98c:	2f 43       	mov	#2,	r15	;r3 As==10
    f98e:	b0 12 bc f8 	call	#-1860		;#0xf8bc
    f992:	eb d3 00 00 	bis.b	#2,	0(r11)	;r3 As==10
    f996:	2f 42       	mov	#4,	r15	;r2 As==10
    f998:	b0 12 bc f8 	call	#-1860		;#0xf8bc
    f99c:	eb c3 00 00 	bic.b	#2,	0(r11)	;r3 As==10
    f9a0:	2f 43       	mov	#2,	r15	;r3 As==10
    f9a2:	b0 12 bc f8 	call	#-1860		;#0xf8bc
    f9a6:	db c3 00 00 	bic.b	#1,	0(r11)	;r3 As==01
    f9aa:	2f 43       	mov	#2,	r15	;r3 As==10
    f9ac:	b0 12 bc f8 	call	#-1860		;#0xf8bc
    f9b0:	3b 41       	pop	r11		;
    f9b2:	30 41       	ret			

0000f9b4 <lebit>:
    f9b4:	0b 12       	push	r11		;
    f9b6:	e2 d3 21 00 	bis.b	#2,	&0x0021	;r3 As==10
    f9ba:	2f 43       	mov	#2,	r15	;r3 As==10
    f9bc:	b0 12 bc f8 	call	#-1860		;#0xf8bc
    f9c0:	d2 b3 20 00 	bit.b	#1,	&0x0020	;r3 As==01
    f9c4:	02 24       	jz	$+6      	;abs 0xf9ca
    f9c6:	5b 43       	mov.b	#1,	r11	;r3 As==01
    f9c8:	01 3c       	jmp	$+4      	;abs 0xf9cc
    f9ca:	4b 43       	clr.b	r11		;
    f9cc:	2f 43       	mov	#2,	r15	;r3 As==10
    f9ce:	b0 12 bc f8 	call	#-1860		;#0xf8bc
    f9d2:	e2 c3 21 00 	bic.b	#2,	&0x0021	;r3 As==10
    f9d6:	2f 43       	mov	#2,	r15	;r3 As==10
    f9d8:	b0 12 bc f8 	call	#-1860		;#0xf8bc
    f9dc:	4f 4b       	mov.b	r11,	r15	;
    f9de:	3b 41       	pop	r11		;
    f9e0:	30 41       	ret			

0000f9e2 <le_i2c>:
    f9e2:	0b 12       	push	r11		;
    f9e4:	0a 12       	push	r10		;
    f9e6:	09 12       	push	r9		;
    f9e8:	08 12       	push	r8		;
    f9ea:	48 4f       	mov.b	r15,	r8	;
    f9ec:	49 43       	clr.b	r9		;
    f9ee:	f2 40 32 00 	mov.b	#50,	&0x0022	;#0x0032
    f9f2:	22 00 
    f9f4:	4b 43       	clr.b	r11		;
    f9f6:	3a 40 32 f8 	mov	#-1998,	r10	;#0xf832
    f9fa:	b0 12 b4 f9 	call	#-1612		;#0xf9b4
    f9fe:	4f 93       	cmp.b	#0,	r15	;r3 As==00
    fa00:	01 24       	jz	$+4      	;abs 0xfa04
    fa02:	69 5a       	add.b	@r10,	r9	;
    fa04:	1a 53       	inc	r10		;
    fa06:	5b 53       	inc.b	r11		;
    fa08:	7b 92       	cmp.b	#8,	r11	;r2 As==11
    fa0a:	f7 2b       	jnc	$-16     	;abs 0xf9fa
    fa0c:	f2 40 33 00 	mov.b	#51,	&0x0022	;#0x0033
    fa10:	22 00 
    fa12:	48 93       	cmp.b	#0,	r8	;r3 As==00
    fa14:	03 20       	jnz	$+8      	;abs 0xfa1c
    fa16:	b0 12 5a f9 	call	#-1702		;#0xf95a
    fa1a:	02 3c       	jmp	$+6      	;abs 0xfa20
    fa1c:	b0 12 82 f9 	call	#-1662		;#0xf982
    fa20:	4f 49       	mov.b	r9,	r15	;
    fa22:	38 41       	pop	r8		;
    fa24:	39 41       	pop	r9		;
    fa26:	3a 41       	pop	r10		;
    fa28:	3b 41       	pop	r11		;
    fa2a:	30 41       	ret			

0000fa2c <escreve_i2c>:
    fa2c:	0b 12       	push	r11		;
    fa2e:	0a 12       	push	r10		;
    fa30:	09 12       	push	r9		;
    fa32:	49 4f       	mov.b	r15,	r9	;
    fa34:	4a 43       	clr.b	r10		;
    fa36:	3b 40 32 f8 	mov	#-1998,	r11	;#0xf832
    fa3a:	6f 4b       	mov.b	@r11,	r15	;
    fa3c:	1b 53       	inc	r11		;
    fa3e:	4f f9       	and.b	r9,	r15	;
    fa40:	06 24       	jz	$+14     	;abs 0xfa4e
    fa42:	b0 12 82 f9 	call	#-1662		;#0xf982
    fa46:	5a 53       	inc.b	r10		;
    fa48:	7a 92       	cmp.b	#8,	r10	;r2 As==11
    fa4a:	f7 2b       	jnc	$-16     	;abs 0xfa3a
    fa4c:	03 3c       	jmp	$+8      	;abs 0xfa54
    fa4e:	b0 12 5a f9 	call	#-1702		;#0xf95a
    fa52:	f9 3f       	jmp	$-12     	;abs 0xfa46
    fa54:	f2 40 32 00 	mov.b	#50,	&0x0022	;#0x0032
    fa58:	22 00 
    fa5a:	b0 12 b4 f9 	call	#-1612		;#0xf9b4
    fa5e:	f2 40 33 00 	mov.b	#51,	&0x0022	;#0x0033
    fa62:	22 00 
    fa64:	7f f3       	and.b	#-1,	r15	;r3 As==11
    fa66:	39 41       	pop	r9		;
    fa68:	3a 41       	pop	r10		;
    fa6a:	3b 41       	pop	r11		;
    fa6c:	30 41       	ret			

0000fa6e <mem_found>:
    fa6e:	0b 12       	push	r11		;
    fa70:	4b 4f       	mov.b	r15,	r11	;
    fa72:	b0 12 00 f9 	call	#-1792		;#0xf900
    fa76:	4f 4b       	mov.b	r11,	r15	;
    fa78:	b0 12 2c fa 	call	#-1492		;#0xfa2c
    fa7c:	4b 4f       	mov.b	r15,	r11	;
    fa7e:	b0 12 32 f9 	call	#-1742		;#0xf932
    fa82:	4f 4b       	mov.b	r11,	r15	;
    fa84:	3b 41       	pop	r11		;
    fa86:	30 41       	ret			

0000fa88 <nunchuck_init>:
    fa88:	0b 12       	push	r11		;
    fa8a:	b0 12 00 f9 	call	#-1792		;#0xf900
    fa8e:	7f 40 a4 ff 	mov.b	#-92,	r15	;#0xffa4
    fa92:	b0 12 2c fa 	call	#-1492		;#0xfa2c
    fa96:	4b 4f       	mov.b	r15,	r11	;
    fa98:	7f 40 40 00 	mov.b	#64,	r15	;#0x0040
    fa9c:	b0 12 2c fa 	call	#-1492		;#0xfa2c
    faa0:	4b 5f       	add.b	r15,	r11	;
    faa2:	4f 43       	clr.b	r15		;
    faa4:	b0 12 2c fa 	call	#-1492		;#0xfa2c
    faa8:	4b 5f       	add.b	r15,	r11	;
    faaa:	b0 12 32 f9 	call	#-1742		;#0xf932
    faae:	4f 4b       	mov.b	r11,	r15	;
    fab0:	3b 41       	pop	r11		;
    fab2:	30 41       	ret			

0000fab4 <nunchuck_get_data>:
    fab4:	0b 12       	push	r11		;
    fab6:	0a 12       	push	r10		;
    fab8:	09 12       	push	r9		;
    faba:	4a 43       	clr.b	r10		;
    fabc:	b0 12 00 f9 	call	#-1792		;#0xf900
    fac0:	7f 40 a4 ff 	mov.b	#-92,	r15	;#0xffa4
    fac4:	b0 12 2c fa 	call	#-1492		;#0xfa2c
    fac8:	49 4f       	mov.b	r15,	r9	;
    faca:	4f 43       	clr.b	r15		;
    facc:	b0 12 2c fa 	call	#-1492		;#0xfa2c
    fad0:	49 5f       	add.b	r15,	r9	;
    fad2:	b0 12 32 f9 	call	#-1742		;#0xf932
    fad6:	1f 43       	mov	#1,	r15	;r3 As==01
    fad8:	b0 12 cc f8 	call	#-1844		;#0xf8cc
    fadc:	b0 12 00 f9 	call	#-1792		;#0xf900
    fae0:	7f 40 a5 ff 	mov.b	#-91,	r15	;#0xffa5
    fae4:	b0 12 2c fa 	call	#-1492		;#0xfa2c
    fae8:	49 5f       	add.b	r15,	r9	;
    faea:	3b 40 00 02 	mov	#512,	r11	;#0x0200
    faee:	4f 43       	clr.b	r15		;
    faf0:	b0 12 e2 f9 	call	#-1566		;#0xf9e2
    faf4:	b0 12 44 fb 	call	#-1212		;#0xfb44
    faf8:	cb 4f 00 00 	mov.b	r15,	0(r11)	;
    fafc:	1b 53       	inc	r11		;
    fafe:	5a 53       	inc.b	r10		;
    fb00:	7a 90 05 00 	cmp.b	#5,	r10	;#0x0005
    fb04:	f4 2b       	jnc	$-22     	;abs 0xfaee
    fb06:	5f 43       	mov.b	#1,	r15	;r3 As==01
    fb08:	b0 12 e2 f9 	call	#-1566		;#0xf9e2
    fb0c:	b0 12 44 fb 	call	#-1212		;#0xfb44
    fb10:	c2 4f 05 02 	mov.b	r15,	&0x0205	;
    fb14:	b0 12 32 f9 	call	#-1742		;#0xf932
    fb18:	4f 49       	mov.b	r9,	r15	;
    fb1a:	39 41       	pop	r9		;
    fb1c:	3a 41       	pop	r10		;
    fb1e:	3b 41       	pop	r11		;
    fb20:	30 41       	ret			

0000fb22 <nunchuck_send_request>:
    fb22:	0b 12       	push	r11		;
    fb24:	b0 12 00 f9 	call	#-1792		;#0xf900
    fb28:	7f 40 a4 ff 	mov.b	#-92,	r15	;#0xffa4
    fb2c:	b0 12 2c fa 	call	#-1492		;#0xfa2c
    fb30:	4b 4f       	mov.b	r15,	r11	;
    fb32:	4f 43       	clr.b	r15		;
    fb34:	b0 12 2c fa 	call	#-1492		;#0xfa2c
    fb38:	4b 5f       	add.b	r15,	r11	;
    fb3a:	b0 12 32 f9 	call	#-1742		;#0xf932
    fb3e:	4f 4b       	mov.b	r11,	r15	;
    fb40:	3b 41       	pop	r11		;
    fb42:	30 41       	ret			

0000fb44 <nunchuk_decode_byte>:
    fb44:	7f e0 17 00 	xor.b	#23,	r15	;#0x0017
    fb48:	7f 50 17 00 	add.b	#23,	r15	;#0x0017
    fb4c:	7f f3       	and.b	#-1,	r15	;r3 As==11
    fb4e:	30 41       	ret			

0000fb50 <inicia_nunchuck>:
    fb50:	0b 12       	push	r11		;
    fb52:	0a 12       	push	r10		;
    fb54:	09 12       	push	r9		;
    fb56:	31 82       	sub	#8,	r1	;r2 As==11
    fb58:	b0 12 00 f9 	call	#-1792		;#0xf900
    fb5c:	7f 40 a4 ff 	mov.b	#-92,	r15	;#0xffa4
    fb60:	b0 12 2c fa 	call	#-1492		;#0xfa2c
    fb64:	49 4f       	mov.b	r15,	r9	;
    fb66:	7f 40 f0 ff 	mov.b	#-16,	r15	;#0xfff0
    fb6a:	b0 12 2c fa 	call	#-1492		;#0xfa2c
    fb6e:	49 5f       	add.b	r15,	r9	;
    fb70:	7f 40 55 00 	mov.b	#85,	r15	;#0x0055
    fb74:	b0 12 2c fa 	call	#-1492		;#0xfa2c
    fb78:	49 5f       	add.b	r15,	r9	;
    fb7a:	b0 12 32 f9 	call	#-1742		;#0xf932
    fb7e:	b0 12 00 f9 	call	#-1792		;#0xf900
    fb82:	7f 40 a4 ff 	mov.b	#-92,	r15	;#0xffa4
    fb86:	b0 12 2c fa 	call	#-1492		;#0xfa2c
    fb8a:	49 5f       	add.b	r15,	r9	;
    fb8c:	7f 40 fb ff 	mov.b	#-5,	r15	;#0xfffb
    fb90:	b0 12 2c fa 	call	#-1492		;#0xfa2c
    fb94:	49 5f       	add.b	r15,	r9	;
    fb96:	4f 43       	clr.b	r15		;
    fb98:	b0 12 2c fa 	call	#-1492		;#0xfa2c
    fb9c:	49 5f       	add.b	r15,	r9	;
    fb9e:	b0 12 32 f9 	call	#-1742		;#0xf932
    fba2:	b0 12 00 f9 	call	#-1792		;#0xf900
    fba6:	7f 40 a4 ff 	mov.b	#-92,	r15	;#0xffa4
    fbaa:	b0 12 2c fa 	call	#-1492		;#0xfa2c
    fbae:	49 5f       	add.b	r15,	r9	;
    fbb0:	7f 40 fa ff 	mov.b	#-6,	r15	;#0xfffa
    fbb4:	b0 12 2c fa 	call	#-1492		;#0xfa2c
    fbb8:	49 5f       	add.b	r15,	r9	;
    fbba:	b0 12 32 f9 	call	#-1742		;#0xf932
    fbbe:	b0 12 00 f9 	call	#-1792		;#0xf900
    fbc2:	7f 40 a5 ff 	mov.b	#-91,	r15	;#0xffa5
    fbc6:	b0 12 2c fa 	call	#-1492		;#0xfa2c
    fbca:	49 5f       	add.b	r15,	r9	;
    fbcc:	4b 43       	clr.b	r11		;
    fbce:	0a 41       	mov	r1,	r10	;
    fbd0:	4f 43       	clr.b	r15		;
    fbd2:	b0 12 e2 f9 	call	#-1566		;#0xf9e2
    fbd6:	ca 4f 00 00 	mov.b	r15,	0(r10)	;
    fbda:	1a 53       	inc	r10		;
    fbdc:	5b 53       	inc.b	r11		;
    fbde:	7b 90 05 00 	cmp.b	#5,	r11	;#0x0005
    fbe2:	f6 2b       	jnc	$-18     	;abs 0xfbd0
    fbe4:	5f 43       	mov.b	#1,	r15	;r3 As==01
    fbe6:	b0 12 e2 f9 	call	#-1566		;#0xf9e2
    fbea:	c1 4f 05 00 	mov.b	r15,	5(r1)	;
    fbee:	b0 12 32 f9 	call	#-1742		;#0xf932
    fbf2:	b0 12 00 f9 	call	#-1792		;#0xf900
    fbf6:	7f 40 a4 ff 	mov.b	#-92,	r15	;#0xffa4
    fbfa:	b0 12 2c fa 	call	#-1492		;#0xfa2c
    fbfe:	49 5f       	add.b	r15,	r9	;
    fc00:	7f 40 f0 ff 	mov.b	#-16,	r15	;#0xfff0
    fc04:	b0 12 2c fa 	call	#-1492		;#0xfa2c
    fc08:	49 5f       	add.b	r15,	r9	;
    fc0a:	7f 40 aa ff 	mov.b	#-86,	r15	;#0xffaa
    fc0e:	b0 12 2c fa 	call	#-1492		;#0xfa2c
    fc12:	49 5f       	add.b	r15,	r9	;
    fc14:	b0 12 32 f9 	call	#-1742		;#0xf932
    fc18:	b0 12 00 f9 	call	#-1792		;#0xf900
    fc1c:	7f 40 a4 ff 	mov.b	#-92,	r15	;#0xffa4
    fc20:	b0 12 2c fa 	call	#-1492		;#0xfa2c
    fc24:	49 5f       	add.b	r15,	r9	;
    fc26:	7f 40 40 00 	mov.b	#64,	r15	;#0x0040
    fc2a:	b0 12 2c fa 	call	#-1492		;#0xfa2c
    fc2e:	49 5f       	add.b	r15,	r9	;
    fc30:	7f 40 ac ff 	mov.b	#-84,	r15	;#0xffac
    fc34:	b0 12 2c fa 	call	#-1492		;#0xfa2c
    fc38:	49 5f       	add.b	r15,	r9	;
    fc3a:	7f 40 b9 ff 	mov.b	#-71,	r15	;#0xffb9
    fc3e:	b0 12 2c fa 	call	#-1492		;#0xfa2c
    fc42:	49 5f       	add.b	r15,	r9	;
    fc44:	7f 40 8b ff 	mov.b	#-117,	r15	;#0xff8b
    fc48:	b0 12 2c fa 	call	#-1492		;#0xfa2c
    fc4c:	49 5f       	add.b	r15,	r9	;
    fc4e:	7f 40 35 00 	mov.b	#53,	r15	;#0x0035
    fc52:	b0 12 2c fa 	call	#-1492		;#0xfa2c
    fc56:	49 5f       	add.b	r15,	r9	;
    fc58:	7f 40 1f 00 	mov.b	#31,	r15	;#0x001f
    fc5c:	b0 12 2c fa 	call	#-1492		;#0xfa2c
    fc60:	49 5f       	add.b	r15,	r9	;
    fc62:	7f 40 c8 ff 	mov.b	#-56,	r15	;#0xffc8
    fc66:	b0 12 2c fa 	call	#-1492		;#0xfa2c
    fc6a:	49 5f       	add.b	r15,	r9	;
    fc6c:	b0 12 32 f9 	call	#-1742		;#0xf932
    fc70:	b0 12 00 f9 	call	#-1792		;#0xf900
    fc74:	7f 40 a4 ff 	mov.b	#-92,	r15	;#0xffa4
    fc78:	b0 12 2c fa 	call	#-1492		;#0xfa2c
    fc7c:	49 5f       	add.b	r15,	r9	;
    fc7e:	7f 40 46 00 	mov.b	#70,	r15	;#0x0046
    fc82:	b0 12 2c fa 	call	#-1492		;#0xfa2c
    fc86:	49 5f       	add.b	r15,	r9	;
    fc88:	7f 40 28 00 	mov.b	#40,	r15	;#0x0028
    fc8c:	b0 12 2c fa 	call	#-1492		;#0xfa2c
    fc90:	49 5f       	add.b	r15,	r9	;
    fc92:	7f 40 be ff 	mov.b	#-66,	r15	;#0xffbe
    fc96:	b0 12 2c fa 	call	#-1492		;#0xfa2c
    fc9a:	49 5f       	add.b	r15,	r9	;
    fc9c:	7f 40 b2 ff 	mov.b	#-78,	r15	;#0xffb2
    fca0:	b0 12 2c fa 	call	#-1492		;#0xfa2c
    fca4:	49 5f       	add.b	r15,	r9	;
    fca6:	7f 40 89 ff 	mov.b	#-119,	r15	;#0xff89
    fcaa:	b0 12 2c fa 	call	#-1492		;#0xfa2c
    fcae:	49 5f       	add.b	r15,	r9	;
    fcb0:	7f 40 07 00 	mov.b	#7,	r15	;#0x0007
    fcb4:	b0 12 2c fa 	call	#-1492		;#0xfa2c
    fcb8:	49 5f       	add.b	r15,	r9	;
    fcba:	7f 40 18 00 	mov.b	#24,	r15	;#0x0018
    fcbe:	b0 12 2c fa 	call	#-1492		;#0xfa2c
    fcc2:	49 5f       	add.b	r15,	r9	;
    fcc4:	b0 12 32 f9 	call	#-1742		;#0xf932
    fcc8:	b0 12 00 f9 	call	#-1792		;#0xf900
    fccc:	7f 40 a4 ff 	mov.b	#-92,	r15	;#0xffa4
    fcd0:	b0 12 2c fa 	call	#-1492		;#0xfa2c
    fcd4:	49 5f       	add.b	r15,	r9	;
    fcd6:	7f 40 4c 00 	mov.b	#76,	r15	;#0x004c
    fcda:	b0 12 2c fa 	call	#-1492		;#0xfa2c
    fcde:	49 5f       	add.b	r15,	r9	;
    fce0:	7f 40 19 00 	mov.b	#25,	r15	;#0x0019
    fce4:	b0 12 2c fa 	call	#-1492		;#0xfa2c
    fce8:	49 5f       	add.b	r15,	r9	;
    fcea:	7f 43       	mov.b	#-1,	r15	;r3 As==11
    fcec:	b0 12 2c fa 	call	#-1492		;#0xfa2c
    fcf0:	49 5f       	add.b	r15,	r9	;
    fcf2:	5f 43       	mov.b	#1,	r15	;r3 As==01
    fcf4:	b0 12 2c fa 	call	#-1492		;#0xfa2c
    fcf8:	49 5f       	add.b	r15,	r9	;
    fcfa:	7f 40 c6 ff 	mov.b	#-58,	r15	;#0xffc6
    fcfe:	b0 12 2c fa 	call	#-1492		;#0xfa2c
    fd02:	49 5f       	add.b	r15,	r9	;
    fd04:	b0 12 32 f9 	call	#-1742		;#0xf932
    fd08:	b0 12 00 f9 	call	#-1792		;#0xf900
    fd0c:	7f 40 a4 ff 	mov.b	#-92,	r15	;#0xffa4
    fd10:	b0 12 2c fa 	call	#-1492		;#0xfa2c
    fd14:	49 5f       	add.b	r15,	r9	;
    fd16:	7f 40 20 00 	mov.b	#32,	r15	;#0x0020
    fd1a:	b0 12 2c fa 	call	#-1492		;#0xfa2c
    fd1e:	49 5f       	add.b	r15,	r9	;
    fd20:	b0 12 32 f9 	call	#-1742		;#0xf932
    fd24:	b0 12 00 f9 	call	#-1792		;#0xf900
    fd28:	7f 40 a5 ff 	mov.b	#-91,	r15	;#0xffa5
    fd2c:	b0 12 2c fa 	call	#-1492		;#0xfa2c
    fd30:	49 5f       	add.b	r15,	r9	;
    fd32:	4b 43       	clr.b	r11		;
    fd34:	0a 41       	mov	r1,	r10	;
    fd36:	4f 43       	clr.b	r15		;
    fd38:	b0 12 e2 f9 	call	#-1566		;#0xf9e2
    fd3c:	ca 4f 00 00 	mov.b	r15,	0(r10)	;
    fd40:	1a 53       	inc	r10		;
    fd42:	5b 53       	inc.b	r11		;
    fd44:	7b 90 07 00 	cmp.b	#7,	r11	;#0x0007
    fd48:	f6 2b       	jnc	$-18     	;abs 0xfd36
    fd4a:	5f 43       	mov.b	#1,	r15	;r3 As==01
    fd4c:	b0 12 e2 f9 	call	#-1566		;#0xf9e2
    fd50:	c1 4f 07 00 	mov.b	r15,	7(r1)	;
    fd54:	b0 12 32 f9 	call	#-1742		;#0xf932
    fd58:	b0 12 00 f9 	call	#-1792		;#0xf900
    fd5c:	7f 40 a5 ff 	mov.b	#-91,	r15	;#0xffa5
    fd60:	b0 12 2c fa 	call	#-1492		;#0xfa2c
    fd64:	49 5f       	add.b	r15,	r9	;
    fd66:	4b 43       	clr.b	r11		;
    fd68:	0a 41       	mov	r1,	r10	;
    fd6a:	4f 43       	clr.b	r15		;
    fd6c:	b0 12 e2 f9 	call	#-1566		;#0xf9e2
    fd70:	ca 4f 00 00 	mov.b	r15,	0(r10)	;
    fd74:	1a 53       	inc	r10		;
    fd76:	5b 53       	inc.b	r11		;
    fd78:	7b 90 07 00 	cmp.b	#7,	r11	;#0x0007
    fd7c:	f6 2b       	jnc	$-18     	;abs 0xfd6a
    fd7e:	5f 43       	mov.b	#1,	r15	;r3 As==01
    fd80:	b0 12 e2 f9 	call	#-1566		;#0xf9e2
    fd84:	c1 4f 07 00 	mov.b	r15,	7(r1)	;
    fd88:	b0 12 32 f9 	call	#-1742		;#0xf932
    fd8c:	b0 12 00 f9 	call	#-1792		;#0xf900
    fd90:	7f 40 a4 ff 	mov.b	#-92,	r15	;#0xffa4
    fd94:	b0 12 2c fa 	call	#-1492		;#0xfa2c
    fd98:	49 5f       	add.b	r15,	r9	;
    fd9a:	7f 40 30 00 	mov.b	#48,	r15	;#0x0030
    fd9e:	b0 12 2c fa 	call	#-1492		;#0xfa2c
    fda2:	49 5f       	add.b	r15,	r9	;
    fda4:	b0 12 32 f9 	call	#-1742		;#0xf932
    fda8:	b0 12 00 f9 	call	#-1792		;#0xf900
    fdac:	7f 40 a5 ff 	mov.b	#-91,	r15	;#0xffa5
    fdb0:	b0 12 2c fa 	call	#-1492		;#0xfa2c
    fdb4:	49 5f       	add.b	r15,	r9	;
    fdb6:	4b 43       	clr.b	r11		;
    fdb8:	0a 41       	mov	r1,	r10	;
    fdba:	4f 43       	clr.b	r15		;
    fdbc:	b0 12 e2 f9 	call	#-1566		;#0xf9e2
    fdc0:	ca 4f 00 00 	mov.b	r15,	0(r10)	;
    fdc4:	1a 53       	inc	r10		;
    fdc6:	5b 53       	inc.b	r11		;
    fdc8:	7b 90 07 00 	cmp.b	#7,	r11	;#0x0007
    fdcc:	f6 2b       	jnc	$-18     	;abs 0xfdba
    fdce:	5f 43       	mov.b	#1,	r15	;r3 As==01
    fdd0:	b0 12 e2 f9 	call	#-1566		;#0xf9e2
    fdd4:	c1 4f 07 00 	mov.b	r15,	7(r1)	;
    fdd8:	b0 12 32 f9 	call	#-1742		;#0xf932
    fddc:	b0 12 00 f9 	call	#-1792		;#0xf900
    fde0:	7f 40 a5 ff 	mov.b	#-91,	r15	;#0xffa5
    fde4:	b0 12 2c fa 	call	#-1492		;#0xfa2c
    fde8:	49 5f       	add.b	r15,	r9	;
    fdea:	4b 43       	clr.b	r11		;
    fdec:	0a 41       	mov	r1,	r10	;
    fdee:	4f 43       	clr.b	r15		;
    fdf0:	b0 12 e2 f9 	call	#-1566		;#0xf9e2
    fdf4:	ca 4f 00 00 	mov.b	r15,	0(r10)	;
    fdf8:	1a 53       	inc	r10		;
    fdfa:	5b 53       	inc.b	r11		;
    fdfc:	7b 90 07 00 	cmp.b	#7,	r11	;#0x0007
    fe00:	f6 2b       	jnc	$-18     	;abs 0xfdee
    fe02:	5f 43       	mov.b	#1,	r15	;r3 As==01
    fe04:	b0 12 e2 f9 	call	#-1566		;#0xf9e2
    fe08:	c1 4f 07 00 	mov.b	r15,	7(r1)	;
    fe0c:	b0 12 32 f9 	call	#-1742		;#0xf932
    fe10:	4f 49       	mov.b	r9,	r15	;
    fe12:	31 52       	add	#8,	r1	;r2 As==11
    fe14:	39 41       	pop	r9		;
    fe16:	3a 41       	pop	r10		;
    fe18:	3b 41       	pop	r11		;
    fe1a:	30 41       	ret			

0000fe1c <__stop_progExec__>:
    fe1c:	ff 3f       	jmp	$+0      	;abs 0xfe1c
Disassembly of section .bss:

00000200 <__bss_start>:
 200:	00 00       	beq			
 202:	00 00       	beq			
	...
Disassembly of section .vectors:

0000ffe0 <InterruptVectors>:
    ffe0:	2c f8       	interrupt service routine at 0xf82c
    ffe2:	2c f8       	interrupt service routine at 0xf82c
    ffe4:	2c f8       	interrupt service routine at 0xf82c
    ffe6:	2c f8       	interrupt service routine at 0xf82c
    ffe8:	2c f8       	interrupt service routine at 0xf82c
    ffea:	2c f8       	interrupt service routine at 0xf82c
    ffec:	2c f8       	interrupt service routine at 0xf82c
    ffee:	2c f8       	interrupt service routine at 0xf82c
    fff0:	2c f8       	interrupt service routine at 0xf82c
    fff2:	2c f8       	interrupt service routine at 0xf82c
    fff4:	2c f8       	interrupt service routine at 0xf82c
    fff6:	2c f8       	interrupt service routine at 0xf82c
    fff8:	2c f8       	interrupt service routine at 0xf82c
    fffa:	2c f8       	interrupt service routine at 0xf82c
    fffc:	2c f8       	interrupt service routine at 0xf82c
    fffe:	00 f8       	interrupt service routine at 0xf800
Disassembly of section .stab:

00000000 <.stab>:
       0:	01 00       	.word	0x0001;	????
       2:	00 00       	beq			
       4:	00 00       	beq			
       6:	b9 01       	.word	0x01b9;	????
       8:	13 10       	rrc	#1		;r3 As==01
       a:	00 00       	beq			
       c:	01 00       	.word	0x0001;	????
       e:	00 00       	beq			
      10:	64 00       	.word	0x0064;	????
      12:	00 00       	beq			
      14:	2c f8       	and	@r8,	r12	;
      16:	00 00       	beq			
      18:	2b 00       	.word	0x002b;	????
      1a:	00 00       	beq			
      1c:	84 00       	.word	0x0084;	????
      1e:	00 00       	beq			
      20:	2c f8       	and	@r8,	r12	;
      22:	00 00       	beq			
      24:	00 00       	beq			
      26:	00 00       	beq			
      28:	44 00       	.word	0x0044;	????
      2a:	28 00       	.word	0x0028;	????
      2c:	2c f8       	and	@r8,	r12	;
      2e:	00 00       	beq			
      30:	00 00       	beq			
      32:	00 00       	beq			
      34:	44 00       	.word	0x0044;	????
      36:	2a 00       	.word	0x002a;	????
      38:	30 f8       	and	@r8+,	r0	;
      3a:	00 00       	beq			
      3c:	00 00       	beq			
      3e:	00 00       	beq			
      40:	44 00       	.word	0x0044;	????
      42:	4e 00       	.word	0x004e;	????
      44:	e0 ff 00 00 	and.b	@r15,	0x0000	; PC rel. 0x0046
      48:	00 00       	beq			
      4a:	00 00       	beq			
      4c:	44 00       	.word	0x0044;	????
      4e:	4f 00       	.word	0x004f;	????
      50:	e2 ff 00 00 	and.b	@r15,	&0x0000	;
      54:	00 00       	beq			
      56:	00 00       	beq			
      58:	44 00       	.word	0x0044;	????
      5a:	50 00       	.word	0x0050;	????
      5c:	e4 ff 00 00 	and.b	@r15,	0(r4)	;
      60:	00 00       	beq			
      62:	00 00       	beq			
      64:	44 00       	.word	0x0044;	????
      66:	51 00       	.word	0x0051;	????
      68:	e6 ff 00 00 	and.b	@r15,	0(r6)	;
      6c:	00 00       	beq			
      6e:	00 00       	beq			
      70:	44 00       	.word	0x0044;	????
      72:	52 00       	.word	0x0052;	????
      74:	e8 ff 00 00 	and.b	@r15,	0(r8)	;
      78:	00 00       	beq			
      7a:	00 00       	beq			
      7c:	44 00       	.word	0x0044;	????
      7e:	53 00       	.word	0x0053;	????
      80:	ea ff 00 00 	and.b	@r15,	0(r10)	;
      84:	00 00       	beq			
      86:	00 00       	beq			
      88:	44 00       	.word	0x0044;	????
      8a:	54 00       	.word	0x0054;	????
      8c:	ec ff 00 00 	and.b	@r15,	0(r12)	;
      90:	00 00       	beq			
      92:	00 00       	beq			
      94:	44 00       	.word	0x0044;	????
      96:	55 00       	.word	0x0055;	????
      98:	ee ff 00 00 	and.b	@r15,	0(r14)	;
      9c:	00 00       	beq			
      9e:	00 00       	beq			
      a0:	44 00       	.word	0x0044;	????
      a2:	56 00       	.word	0x0056;	????
      a4:	f0 ff 00 00 	and.b	@r15+,	0x0000	; PC rel. 0x00a6
      a8:	00 00       	beq			
      aa:	00 00       	beq			
      ac:	44 00       	.word	0x0044;	????
      ae:	57 00       	.word	0x0057;	????
      b0:	f2 ff 00 00 	and.b	@r15+,	&0x0000	;
      b4:	00 00       	beq			
      b6:	00 00       	beq			
      b8:	44 00       	.word	0x0044;	????
      ba:	58 00       	.word	0x0058;	????
      bc:	f4 ff 00 00 	and.b	@r15+,	0(r4)	;
      c0:	00 00       	beq			
      c2:	00 00       	beq			
      c4:	44 00       	.word	0x0044;	????
      c6:	59 00       	.word	0x0059;	????
      c8:	f6 ff 00 00 	and.b	@r15+,	0(r6)	;
      cc:	00 00       	beq			
      ce:	00 00       	beq			
      d0:	44 00       	.word	0x0044;	????
      d2:	5a 00       	.word	0x005a;	????
      d4:	f8 ff 00 00 	and.b	@r15+,	0(r8)	;
      d8:	00 00       	beq			
      da:	00 00       	beq			
      dc:	44 00       	.word	0x0044;	????
      de:	5b 00       	.word	0x005b;	????
      e0:	fa ff 00 00 	and.b	@r15+,	0(r10)	;
      e4:	00 00       	beq			
      e6:	00 00       	beq			
      e8:	44 00       	.word	0x0044;	????
      ea:	5c 00       	.word	0x005c;	????
      ec:	fc ff 00 00 	and.b	@r15+,	0(r12)	;
      f0:	33 00       	.word	0x0033;	????
      f2:	00 00       	beq			
      f4:	64 00       	.word	0x0064;	????
      f6:	00 00       	beq			
      f8:	32 f8       	and	@r8+,	r2	;
      fa:	00 00       	beq			
      fc:	50 00       	.word	0x0050;	????
      fe:	00 00       	beq			
     100:	64 00       	.word	0x0064;	????
     102:	00 00       	beq			
     104:	32 f8       	and	@r8+,	r2	;
     106:	00 00       	beq			
     108:	5a 00       	.word	0x005a;	????
     10a:	00 00       	beq			
     10c:	3c 00       	.word	0x003c;	????
     10e:	00 00       	beq			
     110:	00 00       	beq			
     112:	00 00       	beq			
     114:	69 00       	.word	0x0069;	????
     116:	00 00       	beq			
     118:	80 00       	.word	0x0080;	????
     11a:	00 00       	beq			
     11c:	00 00       	beq			
     11e:	00 00       	beq			
     120:	89 00       	.word	0x0089;	????
     122:	00 00       	beq			
     124:	80 00       	.word	0x0080;	????
     126:	00 00       	beq			
     128:	00 00       	beq			
     12a:	00 00       	beq			
     12c:	a3 00       	.word	0x00a3;	????
     12e:	00 00       	beq			
     130:	80 00       	.word	0x0080;	????
     132:	00 00       	beq			
     134:	00 00       	beq			
     136:	00 00       	beq			
     138:	dc 00       	.word	0x00dc;	????
     13a:	00 00       	beq			
     13c:	80 00       	.word	0x0080;	????
     13e:	00 00       	beq			
     140:	00 00       	beq			
     142:	00 00       	beq			
     144:	14 01       	.word	0x0114;	????
     146:	00 00       	beq			
     148:	80 00       	.word	0x0080;	????
     14a:	00 00       	beq			
     14c:	00 00       	beq			
     14e:	00 00       	beq			
     150:	56 01       	.word	0x0156;	????
     152:	00 00       	beq			
     154:	80 00       	.word	0x0080;	????
     156:	00 00       	beq			
     158:	00 00       	beq			
     15a:	00 00       	beq			
     15c:	a7 01       	.word	0x01a7;	????
     15e:	00 00       	beq			
     160:	80 00       	.word	0x0080;	????
     162:	00 00       	beq			
     164:	00 00       	beq			
     166:	00 00       	beq			
     168:	f8 01       	.word	0x01f8;	????
     16a:	00 00       	beq			
     16c:	80 00       	.word	0x0080;	????
     16e:	00 00       	beq			
     170:	00 00       	beq			
     172:	00 00       	beq			
     174:	1e 02       	.word	0x021e;	????
     176:	00 00       	beq			
     178:	80 00       	.word	0x0080;	????
     17a:	00 00       	beq			
     17c:	00 00       	beq			
     17e:	00 00       	beq			
     180:	5c 02       	.word	0x025c;	????
     182:	00 00       	beq			
     184:	80 00       	.word	0x0080;	????
     186:	00 00       	beq			
     188:	00 00       	beq			
     18a:	00 00       	beq			
     18c:	86 02       	.word	0x0286;	????
     18e:	00 00       	beq			
     190:	80 00       	.word	0x0080;	????
     192:	00 00       	beq			
     194:	00 00       	beq			
     196:	00 00       	beq			
     198:	af 02       	.word	0x02af;	????
     19a:	00 00       	beq			
     19c:	80 00       	.word	0x0080;	????
     19e:	00 00       	beq			
     1a0:	00 00       	beq			
     1a2:	00 00       	beq			
     1a4:	c9 02       	.word	0x02c9;	????
     1a6:	00 00       	beq			
     1a8:	80 00       	.word	0x0080;	????
     1aa:	00 00       	beq			
     1ac:	00 00       	beq			
     1ae:	00 00       	beq			
     1b0:	e4 02       	.word	0x02e4;	????
     1b2:	00 00       	beq			
     1b4:	80 00       	.word	0x0080;	????
     1b6:	00 00       	beq			
     1b8:	00 00       	beq			
     1ba:	00 00       	beq			
     1bc:	04 03       	.word	0x0304;	????
     1be:	00 00       	beq			
     1c0:	80 00       	.word	0x0080;	????
     1c2:	00 00       	beq			
     1c4:	00 00       	beq			
     1c6:	00 00       	beq			
     1c8:	3d 03       	.word	0x033d;	????
     1ca:	00 00       	beq			
     1cc:	80 00       	.word	0x0080;	????
     1ce:	00 00       	beq			
     1d0:	00 00       	beq			
     1d2:	00 00       	beq			
     1d4:	5b 03       	.word	0x035b;	????
     1d6:	00 00       	beq			
     1d8:	80 00       	.word	0x0080;	????
     1da:	00 00       	beq			
     1dc:	00 00       	beq			
     1de:	00 00       	beq			
     1e0:	7a 03       	.word	0x037a;	????
     1e2:	00 00       	beq			
     1e4:	80 00       	.word	0x0080;	????
     1e6:	00 00       	beq			
     1e8:	00 00       	beq			
     1ea:	00 00       	beq			
     1ec:	9e 03       	.word	0x039e;	????
     1ee:	00 00       	beq			
     1f0:	80 00       	.word	0x0080;	????
     1f2:	00 00       	beq			
     1f4:	00 00       	beq			
     1f6:	00 00       	beq			
     1f8:	c7 03       	.word	0x03c7;	????
     1fa:	00 00       	beq			
     1fc:	80 00       	.word	0x0080;	????
     1fe:	00 00       	beq			
     200:	00 00       	beq			
     202:	00 00       	beq			
     204:	50 00       	.word	0x0050;	????
     206:	00 00       	beq			
     208:	82 00       	.word	0x0082;	????
     20a:	00 00       	beq			
     20c:	70 66       	addc.b	@r6+,	r0	;
     20e:	01 00       	.word	0x0001;	????
     210:	de 03       	.word	0x03de;	????
     212:	00 00       	beq			
     214:	82 00       	.word	0x0082;	????
     216:	00 00       	beq			
     218:	00 00       	beq			
     21a:	00 00       	beq			
     21c:	05 04       	.word	0x0405;	????
     21e:	00 00       	beq			
     220:	82 00       	.word	0x0082;	????
     222:	00 00       	beq			
     224:	00 00       	beq			
     226:	00 00       	beq			
     228:	29 04       	.word	0x0429;	????
     22a:	00 00       	beq			
     22c:	82 00       	.word	0x0082;	????
     22e:	00 00       	beq			
     230:	91 34       	jge	$+292    	;abs 0x354
     232:	00 00       	beq			
     234:	51 04       	.word	0x0451;	????
     236:	00 00       	beq			
     238:	80 00       	.word	0x0080;	????
     23a:	26 00       	.word	0x0026;	????
     23c:	00 00       	beq			
     23e:	00 00       	beq			
     240:	66 04       	.word	0x0466;	????
     242:	00 00       	beq			
     244:	80 00       	.word	0x0080;	????
     246:	27 00       	.word	0x0027;	????
     248:	00 00       	beq			
     24a:	00 00       	beq			
     24c:	7c 04       	.word	0x047c;	????
     24e:	00 00       	beq			
     250:	80 00       	.word	0x0080;	????
     252:	29 00       	.word	0x0029;	????
     254:	00 00       	beq			
     256:	00 00       	beq			
     258:	91 04       	.word	0x0491;	????
     25a:	00 00       	beq			
     25c:	80 00       	.word	0x0080;	????
     25e:	2a 00       	.word	0x002a;	????
     260:	00 00       	beq			
     262:	00 00       	beq			
     264:	a7 04       	.word	0x04a7;	????
     266:	00 00       	beq			
     268:	80 00       	.word	0x0080;	????
     26a:	2c 00       	.word	0x002c;	????
     26c:	00 00       	beq			
     26e:	00 00       	beq			
     270:	bc 04       	.word	0x04bc;	????
     272:	00 00       	beq			
     274:	80 00       	.word	0x0080;	????
     276:	2d 00       	.word	0x002d;	????
     278:	00 00       	beq			
     27a:	00 00       	beq			
     27c:	d2 04       	.word	0x04d2;	????
     27e:	00 00       	beq			
     280:	80 00       	.word	0x0080;	????
     282:	2f 00       	.word	0x002f;	????
     284:	00 00       	beq			
     286:	00 00       	beq			
     288:	e7 04       	.word	0x04e7;	????
     28a:	00 00       	beq			
     28c:	80 00       	.word	0x0080;	????
     28e:	30 00       	.word	0x0030;	????
     290:	00 00       	beq			
     292:	00 00       	beq			
     294:	fd 04       	.word	0x04fd;	????
     296:	00 00       	beq			
     298:	80 00       	.word	0x0080;	????
     29a:	35 00       	.word	0x0035;	????
     29c:	00 00       	beq			
     29e:	00 00       	beq			
     2a0:	13 05       	.word	0x0513;	????
     2a2:	00 00       	beq			
     2a4:	80 00       	.word	0x0080;	????
     2a6:	36 00       	.word	0x0036;	????
	...
     2b0:	a2 00       	.word	0x00a2;	????
	...
     2ba:	00 00       	beq			
     2bc:	a2 00       	.word	0x00a2;	????
     2be:	00 00       	beq			
     2c0:	00 00       	beq			
     2c2:	00 00       	beq			
     2c4:	2b 05       	.word	0x052b;	????
     2c6:	00 00       	beq			
     2c8:	82 00       	.word	0x0082;	????
	...
     2d2:	00 00       	beq			
     2d4:	a2 00       	.word	0x00a2;	????
     2d6:	00 00       	beq			
     2d8:	00 00       	beq			
     2da:	00 00       	beq			
     2dc:	59 05       	.word	0x0559;	????
     2de:	00 00       	beq			
     2e0:	82 00       	.word	0x0082;	????
	...
     2ea:	00 00       	beq			
     2ec:	a2 00       	.word	0x00a2;	????
     2ee:	00 00       	beq			
     2f0:	00 00       	beq			
     2f2:	00 00       	beq			
     2f4:	81 05       	.word	0x0581;	????
     2f6:	00 00       	beq			
     2f8:	82 00       	.word	0x0082;	????
	...
     302:	00 00       	beq			
     304:	a2 00       	.word	0x00a2;	????
     306:	00 00       	beq			
     308:	00 00       	beq			
     30a:	00 00       	beq			
     30c:	a9 05       	.word	0x05a9;	????
     30e:	00 00       	beq			
     310:	82 00       	.word	0x0082;	????
     312:	00 00       	beq			
     314:	0c 8a       	sub	r10,	r12	;
     316:	00 00       	beq			
     318:	d2 05       	.word	0x05d2;	????
     31a:	00 00       	beq			
     31c:	80 00       	.word	0x0080;	????
     31e:	7f 00       	.word	0x007f;	????
     320:	00 00       	beq			
     322:	00 00       	beq			
     324:	59 06       	.word	0x0659;	????
     326:	00 00       	beq			
     328:	80 00       	.word	0x0080;	????
     32a:	8f 00       	.word	0x008f;	????
     32c:	00 00       	beq			
     32e:	00 00       	beq			
     330:	28 07       	.word	0x0728;	????
     332:	00 00       	beq			
     334:	80 00       	.word	0x0080;	????
	...
     33e:	00 00       	beq			
     340:	a2 00       	.word	0x00a2;	????
     342:	00 00       	beq			
     344:	00 00       	beq			
     346:	00 00       	beq			
     348:	1e 08       	.word	0x081e;	????
     34a:	00 00       	beq			
     34c:	82 00       	.word	0x0082;	????
     34e:	00 00       	beq			
     350:	00 00       	beq			
     352:	00 00       	beq			
     354:	45 08       	.word	0x0845;	????
     356:	00 00       	beq			
     358:	82 00       	.word	0x0082;	????
     35a:	00 00       	beq			
     35c:	f3 50 00 00 	add.b	#0,	2164(r3);#0x0000
     360:	74 08 
     362:	00 00       	beq			
     364:	80 00       	.word	0x0080;	????
     366:	00 00       	beq			
     368:	00 00       	beq			
     36a:	00 00       	beq			
     36c:	2b 09       	.word	0x092b;	????
     36e:	00 00       	beq			
     370:	80 00       	.word	0x0080;	????
     372:	27 00       	.word	0x0027;	????
     374:	00 00       	beq			
     376:	00 00       	beq			
     378:	47 09       	.word	0x0947;	????
     37a:	00 00       	beq			
     37c:	80 00       	.word	0x0080;	????
	...
     386:	00 00       	beq			
     388:	a2 00       	.word	0x00a2;	????
	...
     392:	00 00       	beq			
     394:	a2 00       	.word	0x00a2;	????
     396:	00 00       	beq			
     398:	00 00       	beq			
     39a:	00 00       	beq			
     39c:	db 09       	.word	0x09db;	????
     39e:	00 00       	beq			
     3a0:	82 00       	.word	0x0082;	????
	...
     3aa:	00 00       	beq			
     3ac:	a2 00       	.word	0x00a2;	????
     3ae:	00 00       	beq			
     3b0:	00 00       	beq			
     3b2:	00 00       	beq			
     3b4:	02 0a       	.word	0x0a02;	????
     3b6:	00 00       	beq			
     3b8:	82 00       	.word	0x0082;	????
	...
     3c2:	00 00       	beq			
     3c4:	a2 00       	.word	0x00a2;	????
     3c6:	00 00       	beq			
     3c8:	00 00       	beq			
     3ca:	00 00       	beq			
     3cc:	28 0a       	.word	0x0a28;	????
     3ce:	00 00       	beq			
     3d0:	82 00       	.word	0x0082;	????
	...
     3da:	00 00       	beq			
     3dc:	a2 00       	.word	0x00a2;	????
	...
     3e6:	00 00       	beq			
     3e8:	a2 00       	.word	0x00a2;	????
     3ea:	00 00       	beq			
     3ec:	00 00       	beq			
     3ee:	00 00       	beq			
     3f0:	51 0a       	.word	0x0a51;	????
     3f2:	00 00       	beq			
     3f4:	24 00       	.word	0x0024;	????
     3f6:	31 00       	.word	0x0031;	????
     3f8:	3a f8       	and	@r8+,	r10	;
     3fa:	00 00       	beq			
     3fc:	00 00       	beq			
     3fe:	00 00       	beq			
     400:	44 00       	.word	0x0044;	????
     402:	31 00       	.word	0x0031;	????
	...
     40c:	44 00       	.word	0x0044;	????
     40e:	33 00       	.word	0x0033;	????
     410:	04 00       	.word	0x0004;	????
     412:	00 00       	beq			
     414:	00 00       	beq			
     416:	00 00       	beq			
     418:	44 00       	.word	0x0044;	????
     41a:	34 00       	.word	0x0034;	????
     41c:	08 00       	.word	0x0008;	????
     41e:	00 00       	beq			
     420:	00 00       	beq			
     422:	00 00       	beq			
     424:	44 00       	.word	0x0044;	????
     426:	36 00       	.word	0x0036;	????
     428:	0c 00       	.word	0x000c;	????
     42a:	00 00       	beq			
     42c:	00 00       	beq			
     42e:	00 00       	beq			
     430:	44 00       	.word	0x0044;	????
     432:	37 00       	.word	0x0037;	????
     434:	16 00       	.word	0x0016;	????
     436:	00 00       	beq			
     438:	00 00       	beq			
     43a:	00 00       	beq			
     43c:	44 00       	.word	0x0044;	????
     43e:	3a 00       	.word	0x003a;	????
     440:	1c 00       	.word	0x001c;	????
     442:	00 00       	beq			
     444:	00 00       	beq			
     446:	00 00       	beq			
     448:	44 00       	.word	0x0044;	????
     44a:	3c 00       	.word	0x003c;	????
     44c:	2a 00       	.word	0x002a;	????
     44e:	00 00       	beq			
     450:	00 00       	beq			
     452:	00 00       	beq			
     454:	44 00       	.word	0x0044;	????
     456:	3e 00       	.word	0x003e;	????
     458:	34 00       	.word	0x0034;	????
     45a:	00 00       	beq			
     45c:	00 00       	beq			
     45e:	00 00       	beq			
     460:	44 00       	.word	0x0044;	????
     462:	3c 00       	.word	0x003c;	????
     464:	42 00       	.word	0x0042;	????
     466:	00 00       	beq			
     468:	00 00       	beq			
     46a:	00 00       	beq			
     46c:	44 00       	.word	0x0044;	????
     46e:	41 00       	.word	0x0041;	????
     470:	4a 00       	.word	0x004a;	????
     472:	00 00       	beq			
     474:	00 00       	beq			
     476:	00 00       	beq			
     478:	44 00       	.word	0x0044;	????
     47a:	46 00       	.word	0x0046;	????
     47c:	5c 00       	.word	0x005c;	????
     47e:	00 00       	beq			
     480:	5d 0a       	.word	0x0a5d;	????
     482:	00 00       	beq			
     484:	40 00       	.word	0x0040;	????
     486:	32 00       	.word	0x0032;	????
     488:	0b 00       	.word	0x000b;	????
     48a:	00 00       	beq			
     48c:	00 00       	beq			
     48e:	00 00       	beq			
     490:	c0 00       	.word	0x00c0;	????
     492:	00 00       	beq			
     494:	04 00       	.word	0x0004;	????
     496:	00 00       	beq			
     498:	00 00       	beq			
     49a:	00 00       	beq			
     49c:	e0 00       	.word	0x00e0;	????
     49e:	00 00       	beq			
     4a0:	5c 00       	.word	0x005c;	????
     4a2:	00 00       	beq			
     4a4:	00 00       	beq			
     4a6:	00 00       	beq			
     4a8:	24 00       	.word	0x0024;	????
     4aa:	00 00       	beq			
     4ac:	60 00       	.word	0x0060;	????
     4ae:	00 00       	beq			
     4b0:	66 0a       	.word	0x0a66;	????
     4b2:	00 00       	beq			
     4b4:	24 00       	.word	0x0024;	????
     4b6:	49 00       	.word	0x0049;	????
     4b8:	9a f8 00 00 	and	0(r8),	0(r10)	;
     4bc:	00 00 
     4be:	00 00       	beq			
     4c0:	44 00       	.word	0x0044;	????
     4c2:	49 00       	.word	0x0049;	????
	...
     4cc:	44 00       	.word	0x0044;	????
     4ce:	4a 00       	.word	0x004a;	????
	...
     4d8:	44 00       	.word	0x0044;	????
     4da:	4c 00       	.word	0x004c;	????
     4dc:	06 00       	.word	0x0006;	????
     4de:	00 00       	beq			
     4e0:	00 00       	beq			
     4e2:	00 00       	beq			
     4e4:	44 00       	.word	0x0044;	????
     4e6:	4d 00       	.word	0x004d;	????
     4e8:	0c 00       	.word	0x000c;	????
     4ea:	00 00       	beq			
     4ec:	00 00       	beq			
     4ee:	00 00       	beq			
     4f0:	44 00       	.word	0x0044;	????
     4f2:	4e 00       	.word	0x004e;	????
     4f4:	12 00       	.word	0x0012;	????
     4f6:	00 00       	beq			
     4f8:	00 00       	beq			
     4fa:	00 00       	beq			
     4fc:	44 00       	.word	0x0044;	????
     4fe:	4f 00       	.word	0x004f;	????
     500:	16 00       	.word	0x0016;	????
     502:	00 00       	beq			
     504:	00 00       	beq			
     506:	00 00       	beq			
     508:	44 00       	.word	0x0044;	????
     50a:	51 00       	.word	0x0051;	????
     50c:	1a 00       	.word	0x001a;	????
     50e:	00 00       	beq			
     510:	00 00       	beq			
     512:	00 00       	beq			
     514:	44 00       	.word	0x0044;	????
     516:	52 00       	.word	0x0052;	????
     518:	20 00       	.word	0x0020;	????
     51a:	00 00       	beq			
     51c:	00 00       	beq			
     51e:	00 00       	beq			
     520:	24 00       	.word	0x0024;	????
     522:	00 00       	beq			
     524:	22 00       	.word	0x0022;	????
     526:	00 00       	beq			
     528:	7c 0a       	.word	0x0a7c;	????
     52a:	00 00       	beq			
     52c:	24 00       	.word	0x0024;	????
     52e:	57 00       	.word	0x0057;	????
     530:	bc f8 00 00 	and	@r8+,	0(r12)	;
     534:	8c 0a       	.word	0x0a8c;	????
     536:	00 00       	beq			
     538:	40 00       	.word	0x0040;	????
     53a:	56 00       	.word	0x0056;	????
     53c:	0f 00       	.word	0x000f;	????
     53e:	00 00       	beq			
     540:	00 00       	beq			
     542:	00 00       	beq			
     544:	44 00       	.word	0x0044;	????
     546:	57 00       	.word	0x0057;	????
	...
     550:	44 00       	.word	0x0044;	????
     552:	5a 00       	.word	0x005a;	????
	...
     55c:	44 00       	.word	0x0044;	????
     55e:	5b 00       	.word	0x005b;	????
     560:	0e 00       	.word	0x000e;	????
     562:	00 00       	beq			
     564:	5d 0a       	.word	0x0a5d;	????
     566:	00 00       	beq			
     568:	40 00       	.word	0x0040;	????
     56a:	58 00       	.word	0x0058;	????
     56c:	0e 00       	.word	0x000e;	????
     56e:	00 00       	beq			
     570:	00 00       	beq			
     572:	00 00       	beq			
     574:	c0 00       	.word	0x00c0;	????
	...
     57e:	00 00       	beq			
     580:	e0 00       	.word	0x00e0;	????
     582:	00 00       	beq			
     584:	10 00       	.word	0x0010;	????
     586:	00 00       	beq			
     588:	00 00       	beq			
     58a:	00 00       	beq			
     58c:	24 00       	.word	0x0024;	????
     58e:	00 00       	beq			
     590:	10 00       	.word	0x0010;	????
     592:	00 00       	beq			
     594:	99 0a       	.word	0x0a99;	????
     596:	00 00       	beq			
     598:	24 00       	.word	0x0024;	????
     59a:	60 00       	.word	0x0060;	????
     59c:	cc f8 00 00 	and.b	r8,	0(r12)	;
     5a0:	8c 0a       	.word	0x0a8c;	????
     5a2:	00 00       	beq			
     5a4:	40 00       	.word	0x0040;	????
     5a6:	5f 00       	.word	0x005f;	????
     5a8:	0a 00       	.word	0x000a;	????
     5aa:	00 00       	beq			
     5ac:	00 00       	beq			
     5ae:	00 00       	beq			
     5b0:	44 00       	.word	0x0044;	????
     5b2:	60 00       	.word	0x0060;	????
	...
     5bc:	44 00       	.word	0x0044;	????
     5be:	63 00       	.word	0x0063;	????
     5c0:	06 00       	.word	0x0006;	????
     5c2:	00 00       	beq			
     5c4:	00 00       	beq			
     5c6:	00 00       	beq			
     5c8:	44 00       	.word	0x0044;	????
     5ca:	64 00       	.word	0x0064;	????
     5cc:	1a 00       	.word	0x001a;	????
     5ce:	00 00       	beq			
     5d0:	5d 0a       	.word	0x0a5d;	????
     5d2:	00 00       	beq			
     5d4:	40 00       	.word	0x0040;	????
     5d6:	61 00       	.word	0x0061;	????
     5d8:	0b 00       	.word	0x000b;	????
     5da:	00 00       	beq			
     5dc:	00 00       	beq			
     5de:	00 00       	beq			
     5e0:	c0 00       	.word	0x00c0;	????
     5e2:	00 00       	beq			
     5e4:	06 00       	.word	0x0006;	????
     5e6:	00 00       	beq			
     5e8:	00 00       	beq			
     5ea:	00 00       	beq			
     5ec:	e0 00       	.word	0x00e0;	????
     5ee:	00 00       	beq			
     5f0:	1a 00       	.word	0x001a;	????
     5f2:	00 00       	beq			
     5f4:	00 00       	beq			
     5f6:	00 00       	beq			
     5f8:	24 00       	.word	0x0024;	????
     5fa:	00 00       	beq			
     5fc:	20 00       	.word	0x0020;	????
     5fe:	00 00       	beq			
     600:	a9 0a       	.word	0x0aa9;	????
     602:	00 00       	beq			
     604:	24 00       	.word	0x0024;	????
     606:	6a 00       	.word	0x006a;	????
     608:	ec f8 00 00 	and.b	@r8,	0(r12)	;
     60c:	00 00       	beq			
     60e:	00 00       	beq			
     610:	44 00       	.word	0x0044;	????
     612:	6a 00       	.word	0x006a;	????
	...
     61c:	44 00       	.word	0x0044;	????
     61e:	6b 00       	.word	0x006b;	????
	...
     628:	44 00       	.word	0x0044;	????
     62a:	6c 00       	.word	0x006c;	????
     62c:	06 00       	.word	0x0006;	????
     62e:	00 00       	beq			
     630:	00 00       	beq			
     632:	00 00       	beq			
     634:	44 00       	.word	0x0044;	????
     636:	6d 00       	.word	0x006d;	????
     638:	0e 00       	.word	0x000e;	????
     63a:	00 00       	beq			
     63c:	00 00       	beq			
     63e:	00 00       	beq			
     640:	44 00       	.word	0x0044;	????
     642:	6e 00       	.word	0x006e;	????
     644:	12 00       	.word	0x0012;	????
     646:	00 00       	beq			
     648:	00 00       	beq			
     64a:	00 00       	beq			
     64c:	24 00       	.word	0x0024;	????
     64e:	00 00       	beq			
     650:	14 00       	.word	0x0014;	????
     652:	00 00       	beq			
     654:	ba 0a       	.word	0x0aba;	????
     656:	00 00       	beq			
     658:	24 00       	.word	0x0024;	????
     65a:	71 00       	.word	0x0071;	????
     65c:	00 f9       	and	r9,	r0	;
     65e:	00 00       	beq			
     660:	00 00       	beq			
     662:	00 00       	beq			
     664:	44 00       	.word	0x0044;	????
     666:	71 00       	.word	0x0071;	????
	...
     670:	44 00       	.word	0x0044;	????
     672:	72 00       	.word	0x0072;	????
     674:	02 00       	.word	0x0002;	????
     676:	00 00       	beq			
     678:	00 00       	beq			
     67a:	00 00       	beq			
     67c:	44 00       	.word	0x0044;	????
     67e:	73 00       	.word	0x0073;	????
     680:	0a 00       	.word	0x000a;	????
     682:	00 00       	beq			
     684:	00 00       	beq			
     686:	00 00       	beq			
     688:	44 00       	.word	0x0044;	????
     68a:	74 00       	.word	0x0074;	????
     68c:	10 00       	.word	0x0010;	????
     68e:	00 00       	beq			
     690:	00 00       	beq			
     692:	00 00       	beq			
     694:	44 00       	.word	0x0044;	????
     696:	75 00       	.word	0x0075;	????
     698:	14 00       	.word	0x0014;	????
     69a:	00 00       	beq			
     69c:	00 00       	beq			
     69e:	00 00       	beq			
     6a0:	44 00       	.word	0x0044;	????
     6a2:	76 00       	.word	0x0076;	????
     6a4:	1a 00       	.word	0x001a;	????
     6a6:	00 00       	beq			
     6a8:	00 00       	beq			
     6aa:	00 00       	beq			
     6ac:	44 00       	.word	0x0044;	????
     6ae:	77 00       	.word	0x0077;	????
     6b0:	1e 00       	.word	0x001e;	????
     6b2:	00 00       	beq			
     6b4:	00 00       	beq			
     6b6:	00 00       	beq			
     6b8:	44 00       	.word	0x0044;	????
     6ba:	78 00       	.word	0x0078;	????
     6bc:	24 00       	.word	0x0024;	????
     6be:	00 00       	beq			
     6c0:	00 00       	beq			
     6c2:	00 00       	beq			
     6c4:	44 00       	.word	0x0044;	????
     6c6:	79 00       	.word	0x0079;	????
     6c8:	28 00       	.word	0x0028;	????
     6ca:	00 00       	beq			
     6cc:	00 00       	beq			
     6ce:	00 00       	beq			
     6d0:	44 00       	.word	0x0044;	????
     6d2:	7a 00       	.word	0x007a;	????
     6d4:	2e 00       	.word	0x002e;	????
     6d6:	00 00       	beq			
     6d8:	00 00       	beq			
     6da:	00 00       	beq			
     6dc:	24 00       	.word	0x0024;	????
     6de:	00 00       	beq			
     6e0:	32 00       	.word	0x0032;	????
     6e2:	00 00       	beq			
     6e4:	cc 0a       	.word	0x0acc;	????
     6e6:	00 00       	beq			
     6e8:	24 00       	.word	0x0024;	????
     6ea:	7d 00       	.word	0x007d;	????
     6ec:	32 f9       	and	@r9+,	r2	;
     6ee:	00 00       	beq			
     6f0:	00 00       	beq			
     6f2:	00 00       	beq			
     6f4:	44 00       	.word	0x0044;	????
     6f6:	7d 00       	.word	0x007d;	????
	...
     700:	44 00       	.word	0x0044;	????
     702:	7e 00       	.word	0x007e;	????
     704:	02 00       	.word	0x0002;	????
     706:	00 00       	beq			
     708:	00 00       	beq			
     70a:	00 00       	beq			
     70c:	44 00       	.word	0x0044;	????
     70e:	7f 00       	.word	0x007f;	????
     710:	0a 00       	.word	0x000a;	????
     712:	00 00       	beq			
     714:	00 00       	beq			
     716:	00 00       	beq			
     718:	44 00       	.word	0x0044;	????
     71a:	80 00       	.word	0x0080;	????
     71c:	10 00       	.word	0x0010;	????
     71e:	00 00       	beq			
     720:	00 00       	beq			
     722:	00 00       	beq			
     724:	44 00       	.word	0x0044;	????
     726:	81 00       	.word	0x0081;	????
     728:	14 00       	.word	0x0014;	????
     72a:	00 00       	beq			
     72c:	00 00       	beq			
     72e:	00 00       	beq			
     730:	44 00       	.word	0x0044;	????
     732:	82 00       	.word	0x0082;	????
     734:	1a 00       	.word	0x001a;	????
     736:	00 00       	beq			
     738:	00 00       	beq			
     73a:	00 00       	beq			
     73c:	44 00       	.word	0x0044;	????
     73e:	83 00       	.word	0x0083;	????
     740:	1e 00       	.word	0x001e;	????
     742:	00 00       	beq			
     744:	00 00       	beq			
     746:	00 00       	beq			
     748:	44 00       	.word	0x0044;	????
     74a:	84 00       	.word	0x0084;	????
     74c:	24 00       	.word	0x0024;	????
     74e:	00 00       	beq			
     750:	00 00       	beq			
     752:	00 00       	beq			
     754:	24 00       	.word	0x0024;	????
     756:	00 00       	beq			
     758:	28 00       	.word	0x0028;	????
     75a:	00 00       	beq			
     75c:	dd 0a       	.word	0x0add;	????
     75e:	00 00       	beq			
     760:	24 00       	.word	0x0024;	????
     762:	87 00       	.word	0x0087;	????
     764:	5a f9 00 00 	and.b	0(r9),	r10	;
     768:	00 00       	beq			
     76a:	00 00       	beq			
     76c:	44 00       	.word	0x0044;	????
     76e:	87 00       	.word	0x0087;	????
	...
     778:	44 00       	.word	0x0044;	????
     77a:	88 00       	.word	0x0088;	????
     77c:	02 00       	.word	0x0002;	????
     77e:	00 00       	beq			
     780:	00 00       	beq			
     782:	00 00       	beq			
     784:	44 00       	.word	0x0044;	????
     786:	89 00       	.word	0x0089;	????
     788:	0a 00       	.word	0x000a;	????
     78a:	00 00       	beq			
     78c:	00 00       	beq			
     78e:	00 00       	beq			
     790:	44 00       	.word	0x0044;	????
     792:	8a 00       	.word	0x008a;	????
     794:	10 00       	.word	0x0010;	????
     796:	00 00       	beq			
     798:	00 00       	beq			
     79a:	00 00       	beq			
     79c:	44 00       	.word	0x0044;	????
     79e:	8b 00       	.word	0x008b;	????
     7a0:	14 00       	.word	0x0014;	????
     7a2:	00 00       	beq			
     7a4:	00 00       	beq			
     7a6:	00 00       	beq			
     7a8:	44 00       	.word	0x0044;	????
     7aa:	8c 00       	.word	0x008c;	????
     7ac:	1a 00       	.word	0x001a;	????
     7ae:	00 00       	beq			
     7b0:	00 00       	beq			
     7b2:	00 00       	beq			
     7b4:	44 00       	.word	0x0044;	????
     7b6:	8d 00       	.word	0x008d;	????
     7b8:	1e 00       	.word	0x001e;	????
     7ba:	00 00       	beq			
     7bc:	00 00       	beq			
     7be:	00 00       	beq			
     7c0:	44 00       	.word	0x0044;	????
     7c2:	8e 00       	.word	0x008e;	????
     7c4:	24 00       	.word	0x0024;	????
     7c6:	00 00       	beq			
     7c8:	00 00       	beq			
     7ca:	00 00       	beq			
     7cc:	24 00       	.word	0x0024;	????
     7ce:	00 00       	beq			
     7d0:	28 00       	.word	0x0028;	????
     7d2:	00 00       	beq			
     7d4:	ec 0a       	.word	0x0aec;	????
     7d6:	00 00       	beq			
     7d8:	24 00       	.word	0x0024;	????
     7da:	91 00       	.word	0x0091;	????
     7dc:	82 f9 00 00 	and	r9,	&0x0000	;
     7e0:	00 00       	beq			
     7e2:	00 00       	beq			
     7e4:	44 00       	.word	0x0044;	????
     7e6:	91 00       	.word	0x0091;	????
	...
     7f0:	44 00       	.word	0x0044;	????
     7f2:	92 00       	.word	0x0092;	????
     7f4:	02 00       	.word	0x0002;	????
     7f6:	00 00       	beq			
     7f8:	00 00       	beq			
     7fa:	00 00       	beq			
     7fc:	44 00       	.word	0x0044;	????
     7fe:	93 00       	.word	0x0093;	????
     800:	0a 00       	.word	0x000a;	????
     802:	00 00       	beq			
     804:	00 00       	beq			
     806:	00 00       	beq			
     808:	44 00       	.word	0x0044;	????
     80a:	94 00       	.word	0x0094;	????
     80c:	10 00       	.word	0x0010;	????
     80e:	00 00       	beq			
     810:	00 00       	beq			
     812:	00 00       	beq			
     814:	44 00       	.word	0x0044;	????
     816:	95 00       	.word	0x0095;	????
     818:	14 00       	.word	0x0014;	????
     81a:	00 00       	beq			
     81c:	00 00       	beq			
     81e:	00 00       	beq			
     820:	44 00       	.word	0x0044;	????
     822:	96 00       	.word	0x0096;	????
     824:	1a 00       	.word	0x001a;	????
     826:	00 00       	beq			
     828:	00 00       	beq			
     82a:	00 00       	beq			
     82c:	44 00       	.word	0x0044;	????
     82e:	97 00       	.word	0x0097;	????
     830:	1e 00       	.word	0x001e;	????
     832:	00 00       	beq			
     834:	00 00       	beq			
     836:	00 00       	beq			
     838:	44 00       	.word	0x0044;	????
     83a:	98 00       	.word	0x0098;	????
     83c:	24 00       	.word	0x0024;	????
     83e:	00 00       	beq			
     840:	00 00       	beq			
     842:	00 00       	beq			
     844:	44 00       	.word	0x0044;	????
     846:	99 00       	.word	0x0099;	????
     848:	28 00       	.word	0x0028;	????
     84a:	00 00       	beq			
     84c:	00 00       	beq			
     84e:	00 00       	beq			
     850:	44 00       	.word	0x0044;	????
     852:	9a 00       	.word	0x009a;	????
     854:	2e 00       	.word	0x002e;	????
     856:	00 00       	beq			
     858:	00 00       	beq			
     85a:	00 00       	beq			
     85c:	24 00       	.word	0x0024;	????
     85e:	00 00       	beq			
     860:	32 00       	.word	0x0032;	????
     862:	00 00       	beq			
     864:	fb 0a       	.word	0x0afb;	????
     866:	00 00       	beq			
     868:	24 00       	.word	0x0024;	????
     86a:	9d 00       	.word	0x009d;	????
     86c:	b4 f9 00 00 	and	@r9+,	0(r4)	;
     870:	00 00       	beq			
     872:	00 00       	beq			
     874:	44 00       	.word	0x0044;	????
     876:	9d 00       	.word	0x009d;	????
	...
     880:	44 00       	.word	0x0044;	????
     882:	a0 00       	.word	0x00a0;	????
     884:	02 00       	.word	0x0002;	????
     886:	00 00       	beq			
     888:	00 00       	beq			
     88a:	00 00       	beq			
     88c:	44 00       	.word	0x0044;	????
     88e:	a1 00       	.word	0x00a1;	????
     890:	06 00       	.word	0x0006;	????
     892:	00 00       	beq			
     894:	00 00       	beq			
     896:	00 00       	beq			
     898:	44 00       	.word	0x0044;	????
     89a:	a2 00       	.word	0x00a2;	????
     89c:	0c 00       	.word	0x000c;	????
     89e:	00 00       	beq			
     8a0:	00 00       	beq			
     8a2:	00 00       	beq			
     8a4:	44 00       	.word	0x0044;	????
     8a6:	a3 00       	.word	0x00a3;	????
     8a8:	18 00       	.word	0x0018;	????
     8aa:	00 00       	beq			
     8ac:	00 00       	beq			
     8ae:	00 00       	beq			
     8b0:	44 00       	.word	0x0044;	????
     8b2:	a4 00       	.word	0x00a4;	????
     8b4:	1e 00       	.word	0x001e;	????
     8b6:	00 00       	beq			
     8b8:	00 00       	beq			
     8ba:	00 00       	beq			
     8bc:	44 00       	.word	0x0044;	????
     8be:	a5 00       	.word	0x00a5;	????
     8c0:	22 00       	.word	0x0022;	????
     8c2:	00 00       	beq			
     8c4:	00 00       	beq			
     8c6:	00 00       	beq			
     8c8:	44 00       	.word	0x0044;	????
     8ca:	a7 00       	.word	0x00a7;	????
     8cc:	28 00       	.word	0x0028;	????
     8ce:	00 00       	beq			
     8d0:	00 00       	beq			
     8d2:	00 00       	beq			
     8d4:	44 00       	.word	0x0044;	????
     8d6:	a8 00       	.word	0x00a8;	????
     8d8:	2a 00       	.word	0x002a;	????
     8da:	00 00       	beq			
     8dc:	09 0b       	.word	0x0b09;	????
     8de:	00 00       	beq			
     8e0:	40 00       	.word	0x0040;	????
     8e2:	9e 00       	.word	0x009e;	????
     8e4:	0b 00       	.word	0x000b;	????
     8e6:	00 00       	beq			
     8e8:	00 00       	beq			
     8ea:	00 00       	beq			
     8ec:	c0 00       	.word	0x00c0;	????
     8ee:	00 00       	beq			
     8f0:	02 00       	.word	0x0002;	????
     8f2:	00 00       	beq			
     8f4:	00 00       	beq			
     8f6:	00 00       	beq			
     8f8:	e0 00       	.word	0x00e0;	????
     8fa:	00 00       	beq			
     8fc:	2a 00       	.word	0x002a;	????
     8fe:	00 00       	beq			
     900:	00 00       	beq			
     902:	00 00       	beq			
     904:	24 00       	.word	0x0024;	????
     906:	00 00       	beq			
     908:	2e 00       	.word	0x002e;	????
     90a:	00 00       	beq			
     90c:	13 0b       	.word	0x0b13;	????
     90e:	00 00       	beq			
     910:	24 00       	.word	0x0024;	????
     912:	ab 00       	.word	0x00ab;	????
     914:	e2 f9 00 00 	and.b	@r9,	&0x0000	;
     918:	22 0b       	.word	0x0b22;	????
     91a:	00 00       	beq			
     91c:	40 00       	.word	0x0040;	????
     91e:	aa 00       	.word	0x00aa;	????
     920:	08 00       	.word	0x0008;	????
     922:	00 00       	beq			
     924:	00 00       	beq			
     926:	00 00       	beq			
     928:	44 00       	.word	0x0044;	????
     92a:	ab 00       	.word	0x00ab;	????
	...
     934:	44 00       	.word	0x0044;	????
     936:	ac 00       	.word	0x00ac;	????
     938:	0a 00       	.word	0x000a;	????
     93a:	00 00       	beq			
     93c:	00 00       	beq			
     93e:	00 00       	beq			
     940:	44 00       	.word	0x0044;	????
     942:	ae 00       	.word	0x00ae;	????
     944:	0c 00       	.word	0x000c;	????
     946:	00 00       	beq			
     948:	00 00       	beq			
     94a:	00 00       	beq			
     94c:	44 00       	.word	0x0044;	????
     94e:	af 00       	.word	0x00af;	????
     950:	12 00       	.word	0x0012;	????
     952:	00 00       	beq			
     954:	00 00       	beq			
     956:	00 00       	beq			
     958:	44 00       	.word	0x0044;	????
     95a:	b0 00       	.word	0x00b0;	????
     95c:	18 00       	.word	0x0018;	????
     95e:	00 00       	beq			
     960:	00 00       	beq			
     962:	00 00       	beq			
     964:	44 00       	.word	0x0044;	????
     966:	af 00       	.word	0x00af;	????
     968:	22 00       	.word	0x0022;	????
     96a:	00 00       	beq			
     96c:	00 00       	beq			
     96e:	00 00       	beq			
     970:	44 00       	.word	0x0044;	????
     972:	b2 00       	.word	0x00b2;	????
     974:	2a 00       	.word	0x002a;	????
     976:	00 00       	beq			
     978:	00 00       	beq			
     97a:	00 00       	beq			
     97c:	44 00       	.word	0x0044;	????
     97e:	b3 00       	.word	0x00b3;	????
     980:	30 00       	.word	0x0030;	????
     982:	00 00       	beq			
     984:	00 00       	beq			
     986:	00 00       	beq			
     988:	44 00       	.word	0x0044;	????
     98a:	b5 00       	.word	0x00b5;	????
     98c:	3e 00       	.word	0x003e;	????
     98e:	00 00       	beq			
     990:	00 00       	beq			
     992:	00 00       	beq			
     994:	44 00       	.word	0x0044;	????
     996:	b6 00       	.word	0x00b6;	????
     998:	40 00       	.word	0x0040;	????
     99a:	00 00       	beq			
     99c:	36 0b       	.word	0x0b36;	????
     99e:	00 00       	beq			
     9a0:	40 00       	.word	0x0040;	????
     9a2:	ac 00       	.word	0x00ac;	????
     9a4:	0b 00       	.word	0x000b;	????
     9a6:	00 00       	beq			
     9a8:	40 0b       	.word	0x0b40;	????
     9aa:	00 00       	beq			
     9ac:	40 00       	.word	0x0040;	????
     9ae:	ac 00       	.word	0x00ac;	????
     9b0:	09 00       	.word	0x0009;	????
     9b2:	00 00       	beq			
     9b4:	00 00       	beq			
     9b6:	00 00       	beq			
     9b8:	c0 00       	.word	0x00c0;	????
     9ba:	00 00       	beq			
     9bc:	0a 00       	.word	0x000a;	????
     9be:	00 00       	beq			
     9c0:	00 00       	beq			
     9c2:	00 00       	beq			
     9c4:	e0 00       	.word	0x00e0;	????
     9c6:	00 00       	beq			
     9c8:	40 00       	.word	0x0040;	????
     9ca:	00 00       	beq			
     9cc:	00 00       	beq			
     9ce:	00 00       	beq			
     9d0:	24 00       	.word	0x0024;	????
     9d2:	00 00       	beq			
     9d4:	4a 00       	.word	0x004a;	????
     9d6:	00 00       	beq			
     9d8:	4a 0b       	.word	0x0b4a;	????
     9da:	00 00       	beq			
     9dc:	24 00       	.word	0x0024;	????
     9de:	b9 00       	.word	0x00b9;	????
     9e0:	2c fa       	and	@r10,	r12	;
     9e2:	00 00       	beq			
     9e4:	5e 0b       	.word	0x0b5e;	????
     9e6:	00 00       	beq			
     9e8:	40 00       	.word	0x0040;	????
     9ea:	b8 00       	.word	0x00b8;	????
     9ec:	09 00       	.word	0x0009;	????
     9ee:	00 00       	beq			
     9f0:	00 00       	beq			
     9f2:	00 00       	beq			
     9f4:	44 00       	.word	0x0044;	????
     9f6:	b9 00       	.word	0x00b9;	????
	...
     a00:	44 00       	.word	0x0044;	????
     a02:	bc 00       	.word	0x00bc;	????
     a04:	08 00       	.word	0x0008;	????
     a06:	00 00       	beq			
     a08:	00 00       	beq			
     a0a:	00 00       	beq			
     a0c:	44 00       	.word	0x0044;	????
     a0e:	bd 00       	.word	0x00bd;	????
     a10:	0e 00       	.word	0x000e;	????
     a12:	00 00       	beq			
     a14:	00 00       	beq			
     a16:	00 00       	beq			
     a18:	44 00       	.word	0x0044;	????
     a1a:	bc 00       	.word	0x00bc;	????
     a1c:	1a 00       	.word	0x001a;	????
     a1e:	00 00       	beq			
     a20:	00 00       	beq			
     a22:	00 00       	beq			
     a24:	44 00       	.word	0x0044;	????
     a26:	bf 00       	.word	0x00bf;	????
     a28:	28 00       	.word	0x0028;	????
     a2a:	00 00       	beq			
     a2c:	00 00       	beq			
     a2e:	00 00       	beq			
     a30:	44 00       	.word	0x0044;	????
     a32:	c0 00       	.word	0x00c0;	????
     a34:	2e 00       	.word	0x002e;	????
     a36:	00 00       	beq			
     a38:	00 00       	beq			
     a3a:	00 00       	beq			
     a3c:	44 00       	.word	0x0044;	????
     a3e:	c1 00       	.word	0x00c1;	????
     a40:	32 00       	.word	0x0032;	????
     a42:	00 00       	beq			
     a44:	00 00       	beq			
     a46:	00 00       	beq			
     a48:	44 00       	.word	0x0044;	????
     a4a:	c3 00       	.word	0x00c3;	????
     a4c:	38 00       	.word	0x0038;	????
     a4e:	00 00       	beq			
     a50:	00 00       	beq			
     a52:	00 00       	beq			
     a54:	44 00       	.word	0x0044;	????
     a56:	c4 00       	.word	0x00c4;	????
     a58:	3a 00       	.word	0x003a;	????
     a5a:	00 00       	beq			
     a5c:	36 0b       	.word	0x0b36;	????
     a5e:	00 00       	beq			
     a60:	40 00       	.word	0x0040;	????
     a62:	ba 00       	.word	0x00ba;	????
     a64:	0a 00       	.word	0x000a;	????
     a66:	00 00       	beq			
     a68:	00 00       	beq			
     a6a:	00 00       	beq			
     a6c:	c0 00       	.word	0x00c0;	????
     a6e:	00 00       	beq			
     a70:	08 00       	.word	0x0008;	????
     a72:	00 00       	beq			
     a74:	00 00       	beq			
     a76:	00 00       	beq			
     a78:	e0 00       	.word	0x00e0;	????
     a7a:	00 00       	beq			
     a7c:	3a 00       	.word	0x003a;	????
     a7e:	00 00       	beq			
     a80:	00 00       	beq			
     a82:	00 00       	beq			
     a84:	24 00       	.word	0x0024;	????
     a86:	00 00       	beq			
     a88:	42 00       	.word	0x0042;	????
     a8a:	00 00       	beq			
     a8c:	6b 0b       	.word	0x0b6b;	????
     a8e:	00 00       	beq			
     a90:	24 00       	.word	0x0024;	????
     a92:	c9 00       	.word	0x00c9;	????
     a94:	6e fa       	and.b	@r10,	r14	;
     a96:	00 00       	beq			
     a98:	7d 0b       	.word	0x0b7d;	????
     a9a:	00 00       	beq			
     a9c:	40 00       	.word	0x0040;	????
     a9e:	c8 00       	.word	0x00c8;	????
     aa0:	0b 00       	.word	0x000b;	????
     aa2:	00 00       	beq			
     aa4:	00 00       	beq			
     aa6:	00 00       	beq			
     aa8:	44 00       	.word	0x0044;	????
     aaa:	c9 00       	.word	0x00c9;	????
	...
     ab4:	44 00       	.word	0x0044;	????
     ab6:	cc 00       	.word	0x00cc;	????
     ab8:	04 00       	.word	0x0004;	????
     aba:	00 00       	beq			
     abc:	00 00       	beq			
     abe:	00 00       	beq			
     ac0:	44 00       	.word	0x0044;	????
     ac2:	cd 00       	.word	0x00cd;	????
     ac4:	08 00       	.word	0x0008;	????
     ac6:	00 00       	beq			
     ac8:	00 00       	beq			
     aca:	00 00       	beq			
     acc:	44 00       	.word	0x0044;	????
     ace:	ce 00       	.word	0x00ce;	????
     ad0:	10 00       	.word	0x0010;	????
     ad2:	00 00       	beq			
     ad4:	00 00       	beq			
     ad6:	00 00       	beq			
     ad8:	44 00       	.word	0x0044;	????
     ada:	d0 00       	.word	0x00d0;	????
     adc:	14 00       	.word	0x0014;	????
     ade:	00 00       	beq			
     ae0:	00 00       	beq			
     ae2:	00 00       	beq			
     ae4:	44 00       	.word	0x0044;	????
     ae6:	d1 00       	.word	0x00d1;	????
     ae8:	16 00       	.word	0x0016;	????
     aea:	00 00       	beq			
     aec:	09 0b       	.word	0x0b09;	????
     aee:	00 00       	beq			
     af0:	40 00       	.word	0x0040;	????
     af2:	ca 00       	.word	0x00ca;	????
     af4:	0b 00       	.word	0x000b;	????
     af6:	00 00       	beq			
     af8:	00 00       	beq			
     afa:	00 00       	beq			
     afc:	c0 00       	.word	0x00c0;	????
     afe:	00 00       	beq			
     b00:	04 00       	.word	0x0004;	????
     b02:	00 00       	beq			
     b04:	00 00       	beq			
     b06:	00 00       	beq			
     b08:	e0 00       	.word	0x00e0;	????
     b0a:	00 00       	beq			
     b0c:	16 00       	.word	0x0016;	????
     b0e:	00 00       	beq			
     b10:	00 00       	beq			
     b12:	00 00       	beq			
     b14:	24 00       	.word	0x0024;	????
     b16:	00 00       	beq			
     b18:	1a 00       	.word	0x001a;	????
     b1a:	00 00       	beq			
     b1c:	8d 0b       	.word	0x0b8d;	????
     b1e:	00 00       	beq			
     b20:	24 00       	.word	0x0024;	????
     b22:	d5 00       	.word	0x00d5;	????
     b24:	88 fa 00 00 	and	r10,	0(r8)	;
     b28:	00 00       	beq			
     b2a:	00 00       	beq			
     b2c:	44 00       	.word	0x0044;	????
     b2e:	d5 00       	.word	0x00d5;	????
	...
     b38:	44 00       	.word	0x0044;	????
     b3a:	d8 00       	.word	0x00d8;	????
     b3c:	02 00       	.word	0x0002;	????
     b3e:	00 00       	beq			
     b40:	00 00       	beq			
     b42:	00 00       	beq			
     b44:	44 00       	.word	0x0044;	????
     b46:	d9 00       	.word	0x00d9;	????
     b48:	06 00       	.word	0x0006;	????
     b4a:	00 00       	beq			
     b4c:	00 00       	beq			
     b4e:	00 00       	beq			
     b50:	44 00       	.word	0x0044;	????
     b52:	da 00       	.word	0x00da;	????
     b54:	10 00       	.word	0x0010;	????
     b56:	00 00       	beq			
     b58:	00 00       	beq			
     b5a:	00 00       	beq			
     b5c:	44 00       	.word	0x0044;	????
     b5e:	db 00       	.word	0x00db;	????
     b60:	1a 00       	.word	0x001a;	????
     b62:	00 00       	beq			
     b64:	00 00       	beq			
     b66:	00 00       	beq			
     b68:	44 00       	.word	0x0044;	????
     b6a:	dc 00       	.word	0x00dc;	????
     b6c:	22 00       	.word	0x0022;	????
     b6e:	00 00       	beq			
     b70:	00 00       	beq			
     b72:	00 00       	beq			
     b74:	44 00       	.word	0x0044;	????
     b76:	de 00       	.word	0x00de;	????
     b78:	26 00       	.word	0x0026;	????
     b7a:	00 00       	beq			
     b7c:	00 00       	beq			
     b7e:	00 00       	beq			
     b80:	44 00       	.word	0x0044;	????
     b82:	df 00       	.word	0x00df;	????
     b84:	28 00       	.word	0x0028;	????
     b86:	00 00       	beq			
     b88:	36 0b       	.word	0x0b36;	????
     b8a:	00 00       	beq			
     b8c:	40 00       	.word	0x0040;	????
     b8e:	d6 00       	.word	0x00d6;	????
     b90:	0b 00       	.word	0x000b;	????
     b92:	00 00       	beq			
     b94:	00 00       	beq			
     b96:	00 00       	beq			
     b98:	c0 00       	.word	0x00c0;	????
     b9a:	00 00       	beq			
     b9c:	02 00       	.word	0x0002;	????
     b9e:	00 00       	beq			
     ba0:	00 00       	beq			
     ba2:	00 00       	beq			
     ba4:	e0 00       	.word	0x00e0;	????
     ba6:	00 00       	beq			
     ba8:	28 00       	.word	0x0028;	????
     baa:	00 00       	beq			
     bac:	00 00       	beq			
     bae:	00 00       	beq			
     bb0:	24 00       	.word	0x0024;	????
     bb2:	00 00       	beq			
     bb4:	2c 00       	.word	0x002c;	????
     bb6:	00 00       	beq			
     bb8:	a3 0b       	.word	0x0ba3;	????
     bba:	00 00       	beq			
     bbc:	24 00       	.word	0x0024;	????
     bbe:	e2 00       	.word	0x00e2;	????
     bc0:	b4 fa 00 00 	and	@r10+,	0(r4)	;
     bc4:	00 00       	beq			
     bc6:	00 00       	beq			
     bc8:	44 00       	.word	0x0044;	????
     bca:	e2 00       	.word	0x00e2;	????
	...
     bd4:	44 00       	.word	0x0044;	????
     bd6:	e3 00       	.word	0x00e3;	????
     bd8:	06 00       	.word	0x0006;	????
     bda:	00 00       	beq			
     bdc:	00 00       	beq			
     bde:	00 00       	beq			
     be0:	44 00       	.word	0x0044;	????
     be2:	e5 00       	.word	0x00e5;	????
     be4:	08 00       	.word	0x0008;	????
     be6:	00 00       	beq			
     be8:	00 00       	beq			
     bea:	00 00       	beq			
     bec:	44 00       	.word	0x0044;	????
     bee:	e6 00       	.word	0x00e6;	????
     bf0:	0c 00       	.word	0x000c;	????
     bf2:	00 00       	beq			
     bf4:	00 00       	beq			
     bf6:	00 00       	beq			
     bf8:	44 00       	.word	0x0044;	????
     bfa:	e7 00       	.word	0x00e7;	????
     bfc:	16 00       	.word	0x0016;	????
     bfe:	00 00       	beq			
     c00:	00 00       	beq			
     c02:	00 00       	beq			
     c04:	44 00       	.word	0x0044;	????
     c06:	e8 00       	.word	0x00e8;	????
     c08:	1e 00       	.word	0x001e;	????
     c0a:	00 00       	beq			
     c0c:	00 00       	beq			
     c0e:	00 00       	beq			
     c10:	44 00       	.word	0x0044;	????
     c12:	ea 00       	.word	0x00ea;	????
     c14:	22 00       	.word	0x0022;	????
     c16:	00 00       	beq			
     c18:	00 00       	beq			
     c1a:	00 00       	beq			
     c1c:	44 00       	.word	0x0044;	????
     c1e:	ec 00       	.word	0x00ec;	????
     c20:	28 00       	.word	0x0028;	????
     c22:	00 00       	beq			
     c24:	00 00       	beq			
     c26:	00 00       	beq			
     c28:	44 00       	.word	0x0044;	????
     c2a:	ed 00       	.word	0x00ed;	????
     c2c:	2c 00       	.word	0x002c;	????
     c2e:	00 00       	beq			
     c30:	00 00       	beq			
     c32:	00 00       	beq			
     c34:	44 00       	.word	0x0044;	????
     c36:	ef 00       	.word	0x00ef;	????
     c38:	36 00       	.word	0x0036;	????
     c3a:	00 00       	beq			
     c3c:	00 00       	beq			
     c3e:	00 00       	beq			
     c40:	44 00       	.word	0x0044;	????
     c42:	f1 00       	.word	0x00f1;	????
     c44:	3a 00       	.word	0x003a;	????
     c46:	00 00       	beq			
     c48:	00 00       	beq			
     c4a:	00 00       	beq			
     c4c:	44 00       	.word	0x0044;	????
     c4e:	f2 00       	.word	0x00f2;	????
     c50:	4a 00       	.word	0x004a;	????
     c52:	00 00       	beq			
     c54:	00 00       	beq			
     c56:	00 00       	beq			
     c58:	44 00       	.word	0x0044;	????
     c5a:	f4 00       	.word	0x00f4;	????
     c5c:	52 00       	.word	0x0052;	????
     c5e:	00 00       	beq			
     c60:	00 00       	beq			
     c62:	00 00       	beq			
     c64:	44 00       	.word	0x0044;	????
     c66:	f5 00       	.word	0x00f5;	????
     c68:	60 00       	.word	0x0060;	????
     c6a:	00 00       	beq			
     c6c:	00 00       	beq			
     c6e:	00 00       	beq			
     c70:	44 00       	.word	0x0044;	????
     c72:	f7 00       	.word	0x00f7;	????
     c74:	64 00       	.word	0x0064;	????
     c76:	00 00       	beq			
     c78:	00 00       	beq			
     c7a:	00 00       	beq			
     c7c:	44 00       	.word	0x0044;	????
     c7e:	f8 00       	.word	0x00f8;	????
     c80:	66 00       	.word	0x0066;	????
     c82:	00 00       	beq			
     c84:	36 0b       	.word	0x0b36;	????
     c86:	00 00       	beq			
     c88:	40 00       	.word	0x0040;	????
     c8a:	e3 00       	.word	0x00e3;	????
     c8c:	0a 00       	.word	0x000a;	????
     c8e:	00 00       	beq			
     c90:	09 0b       	.word	0x0b09;	????
     c92:	00 00       	beq			
     c94:	40 00       	.word	0x0040;	????
     c96:	e3 00       	.word	0x00e3;	????
     c98:	09 00       	.word	0x0009;	????
     c9a:	00 00       	beq			
     c9c:	00 00       	beq			
     c9e:	00 00       	beq			
     ca0:	c0 00       	.word	0x00c0;	????
     ca2:	00 00       	beq			
     ca4:	06 00       	.word	0x0006;	????
     ca6:	00 00       	beq			
     ca8:	00 00       	beq			
     caa:	00 00       	beq			
     cac:	e0 00       	.word	0x00e0;	????
     cae:	00 00       	beq			
     cb0:	66 00       	.word	0x0066;	????
     cb2:	00 00       	beq			
     cb4:	00 00       	beq			
     cb6:	00 00       	beq			
     cb8:	24 00       	.word	0x0024;	????
     cba:	00 00       	beq			
     cbc:	6e 00       	.word	0x006e;	????
     cbe:	00 00       	beq			
     cc0:	bd 0b       	.word	0x0bbd;	????
     cc2:	00 00       	beq			
     cc4:	24 00       	.word	0x0024;	????
     cc6:	fb 00       	.word	0x00fb;	????
     cc8:	22 fb       	and	@r11,	r2	;
     cca:	00 00       	beq			
     ccc:	00 00       	beq			
     cce:	00 00       	beq			
     cd0:	44 00       	.word	0x0044;	????
     cd2:	fb 00       	.word	0x00fb;	????
	...
     cdc:	44 00       	.word	0x0044;	????
     cde:	fe 00       	.word	0x00fe;	????
     ce0:	02 00       	.word	0x0002;	????
     ce2:	00 00       	beq			
     ce4:	00 00       	beq			
     ce6:	00 00       	beq			
     ce8:	44 00       	.word	0x0044;	????
     cea:	ff 00       	.word	0x00ff;	????
     cec:	06 00       	.word	0x0006;	????
     cee:	00 00       	beq			
     cf0:	00 00       	beq			
     cf2:	00 00       	beq			
     cf4:	44 00       	.word	0x0044;	????
     cf6:	00 01       	.word	0x0100;	????
     cf8:	10 00       	.word	0x0010;	????
     cfa:	00 00       	beq			
     cfc:	00 00       	beq			
     cfe:	00 00       	beq			
     d00:	44 00       	.word	0x0044;	????
     d02:	01 01       	.word	0x0101;	????
     d04:	18 00       	.word	0x0018;	????
     d06:	00 00       	beq			
     d08:	00 00       	beq			
     d0a:	00 00       	beq			
     d0c:	44 00       	.word	0x0044;	????
     d0e:	03 01       	.word	0x0103;	????
     d10:	1c 00       	.word	0x001c;	????
     d12:	00 00       	beq			
     d14:	00 00       	beq			
     d16:	00 00       	beq			
     d18:	44 00       	.word	0x0044;	????
     d1a:	04 01       	.word	0x0104;	????
     d1c:	1e 00       	.word	0x001e;	????
     d1e:	00 00       	beq			
     d20:	00 00       	beq			
     d22:	00 00       	beq			
     d24:	24 00       	.word	0x0024;	????
     d26:	00 00       	beq			
     d28:	22 00       	.word	0x0022;	????
     d2a:	00 00       	beq			
     d2c:	db 0b       	.word	0x0bdb;	????
     d2e:	00 00       	beq			
     d30:	24 00       	.word	0x0024;	????
     d32:	07 01       	.word	0x0107;	????
     d34:	44 fb       	and.b	r11,	r4	;
     d36:	00 00       	beq			
     d38:	f7 0b       	.word	0x0bf7;	????
     d3a:	00 00       	beq			
     d3c:	40 00       	.word	0x0040;	????
     d3e:	06 01       	.word	0x0106;	????
     d40:	0f 00       	.word	0x000f;	????
     d42:	00 00       	beq			
     d44:	00 00       	beq			
     d46:	00 00       	beq			
     d48:	44 00       	.word	0x0044;	????
     d4a:	07 01       	.word	0x0107;	????
	...
     d54:	44 00       	.word	0x0044;	????
     d56:	08 01       	.word	0x0108;	????
	...
     d60:	44 00       	.word	0x0044;	????
     d62:	09 01       	.word	0x0109;	????
     d64:	08 00       	.word	0x0008;	????
     d66:	00 00       	beq			
     d68:	00 00       	beq			
     d6a:	00 00       	beq			
     d6c:	44 00       	.word	0x0044;	????
     d6e:	0a 01       	.word	0x010a;	????
     d70:	0a 00       	.word	0x000a;	????
     d72:	00 00       	beq			
     d74:	00 00       	beq			
     d76:	00 00       	beq			
     d78:	24 00       	.word	0x0024;	????
     d7a:	00 00       	beq			
     d7c:	0c 00       	.word	0x000c;	????
     d7e:	00 00       	beq			
     d80:	01 0c       	.word	0x0c01;	????
     d82:	00 00       	beq			
     d84:	24 00       	.word	0x0024;	????
     d86:	0d 01       	.word	0x010d;	????
     d88:	50 fb 00 00 	and.b	0(r11),	r0	;
     d8c:	00 00       	beq			
     d8e:	00 00       	beq			
     d90:	44 00       	.word	0x0044;	????
     d92:	0d 01       	.word	0x010d;	????
	...
     d9c:	44 00       	.word	0x0044;	????
     d9e:	10 01       	.word	0x0110;	????
     da0:	08 00       	.word	0x0008;	????
     da2:	00 00       	beq			
     da4:	00 00       	beq			
     da6:	00 00       	beq			
     da8:	44 00       	.word	0x0044;	????
     daa:	11 01       	.word	0x0111;	????
     dac:	0c 00       	.word	0x000c;	????
     dae:	00 00       	beq			
     db0:	00 00       	beq			
     db2:	00 00       	beq			
     db4:	44 00       	.word	0x0044;	????
     db6:	12 01       	.word	0x0112;	????
     db8:	16 00       	.word	0x0016;	????
     dba:	00 00       	beq			
     dbc:	00 00       	beq			
     dbe:	00 00       	beq			
     dc0:	44 00       	.word	0x0044;	????
     dc2:	13 01       	.word	0x0113;	????
     dc4:	20 00       	.word	0x0020;	????
     dc6:	00 00       	beq			
     dc8:	00 00       	beq			
     dca:	00 00       	beq			
     dcc:	44 00       	.word	0x0044;	????
     dce:	14 01       	.word	0x0114;	????
     dd0:	2a 00       	.word	0x002a;	????
     dd2:	00 00       	beq			
     dd4:	00 00       	beq			
     dd6:	00 00       	beq			
     dd8:	44 00       	.word	0x0044;	????
     dda:	16 01       	.word	0x0116;	????
     ddc:	2e 00       	.word	0x002e;	????
     dde:	00 00       	beq			
     de0:	00 00       	beq			
     de2:	00 00       	beq			
     de4:	44 00       	.word	0x0044;	????
     de6:	17 01       	.word	0x0117;	????
     de8:	32 00       	.word	0x0032;	????
     dea:	00 00       	beq			
     dec:	00 00       	beq			
     dee:	00 00       	beq			
     df0:	44 00       	.word	0x0044;	????
     df2:	18 01       	.word	0x0118;	????
     df4:	3c 00       	.word	0x003c;	????
     df6:	00 00       	beq			
     df8:	00 00       	beq			
     dfa:	00 00       	beq			
     dfc:	44 00       	.word	0x0044;	????
     dfe:	19 01       	.word	0x0119;	????
     e00:	46 00       	.word	0x0046;	????
     e02:	00 00       	beq			
     e04:	00 00       	beq			
     e06:	00 00       	beq			
     e08:	44 00       	.word	0x0044;	????
     e0a:	1a 01       	.word	0x011a;	????
     e0c:	4e 00       	.word	0x004e;	????
     e0e:	00 00       	beq			
     e10:	00 00       	beq			
     e12:	00 00       	beq			
     e14:	44 00       	.word	0x0044;	????
     e16:	1c 01       	.word	0x011c;	????
     e18:	52 00       	.word	0x0052;	????
     e1a:	00 00       	beq			
     e1c:	00 00       	beq			
     e1e:	00 00       	beq			
     e20:	44 00       	.word	0x0044;	????
     e22:	1d 01       	.word	0x011d;	????
     e24:	56 00       	.word	0x0056;	????
     e26:	00 00       	beq			
     e28:	00 00       	beq			
     e2a:	00 00       	beq			
     e2c:	44 00       	.word	0x0044;	????
     e2e:	1e 01       	.word	0x011e;	????
     e30:	60 00       	.word	0x0060;	????
     e32:	00 00       	beq			
     e34:	00 00       	beq			
     e36:	00 00       	beq			
     e38:	44 00       	.word	0x0044;	????
     e3a:	1f 01       	.word	0x011f;	????
     e3c:	6a 00       	.word	0x006a;	????
     e3e:	00 00       	beq			
     e40:	00 00       	beq			
     e42:	00 00       	beq			
     e44:	44 00       	.word	0x0044;	????
     e46:	21 01       	.word	0x0121;	????
     e48:	6e 00       	.word	0x006e;	????
     e4a:	00 00       	beq			
     e4c:	00 00       	beq			
     e4e:	00 00       	beq			
     e50:	44 00       	.word	0x0044;	????
     e52:	22 01       	.word	0x0122;	????
     e54:	72 00       	.word	0x0072;	????
     e56:	00 00       	beq			
     e58:	00 00       	beq			
     e5a:	00 00       	beq			
     e5c:	44 00       	.word	0x0044;	????
     e5e:	23 01       	.word	0x0123;	????
     e60:	7c 00       	.word	0x007c;	????
     e62:	00 00       	beq			
     e64:	00 00       	beq			
     e66:	00 00       	beq			
     e68:	44 00       	.word	0x0044;	????
     e6a:	24 01       	.word	0x0124;	????
     e6c:	94 00       	.word	0x0094;	????
     e6e:	00 00       	beq			
     e70:	00 00       	beq			
     e72:	00 00       	beq			
     e74:	44 00       	.word	0x0044;	????
     e76:	25 01       	.word	0x0125;	????
     e78:	9e 00       	.word	0x009e;	????
     e7a:	00 00       	beq			
     e7c:	00 00       	beq			
     e7e:	00 00       	beq			
     e80:	44 00       	.word	0x0044;	????
     e82:	27 01       	.word	0x0127;	????
     e84:	a2 00       	.word	0x00a2;	????
     e86:	00 00       	beq			
     e88:	00 00       	beq			
     e8a:	00 00       	beq			
     e8c:	44 00       	.word	0x0044;	????
     e8e:	28 01       	.word	0x0128;	????
     e90:	a6 00       	.word	0x00a6;	????
     e92:	00 00       	beq			
     e94:	00 00       	beq			
     e96:	00 00       	beq			
     e98:	44 00       	.word	0x0044;	????
     e9a:	29 01       	.word	0x0129;	????
     e9c:	b0 00       	.word	0x00b0;	????
     e9e:	00 00       	beq			
     ea0:	00 00       	beq			
     ea2:	00 00       	beq			
     ea4:	44 00       	.word	0x0044;	????
     ea6:	2a 01       	.word	0x012a;	????
     ea8:	ba 00       	.word	0x00ba;	????
     eaa:	00 00       	beq			
     eac:	00 00       	beq			
     eae:	00 00       	beq			
     eb0:	44 00       	.word	0x0044;	????
     eb2:	2b 01       	.word	0x012b;	????
     eb4:	c4 00       	.word	0x00c4;	????
     eb6:	00 00       	beq			
     eb8:	00 00       	beq			
     eba:	00 00       	beq			
     ebc:	44 00       	.word	0x0044;	????
     ebe:	2d 01       	.word	0x012d;	????
     ec0:	c8 00       	.word	0x00c8;	????
     ec2:	00 00       	beq			
     ec4:	00 00       	beq			
     ec6:	00 00       	beq			
     ec8:	44 00       	.word	0x0044;	????
     eca:	2e 01       	.word	0x012e;	????
     ecc:	cc 00       	.word	0x00cc;	????
     ece:	00 00       	beq			
     ed0:	00 00       	beq			
     ed2:	00 00       	beq			
     ed4:	44 00       	.word	0x0044;	????
     ed6:	2f 01       	.word	0x012f;	????
     ed8:	d6 00       	.word	0x00d6;	????
     eda:	00 00       	beq			
     edc:	00 00       	beq			
     ede:	00 00       	beq			
     ee0:	44 00       	.word	0x0044;	????
     ee2:	30 01       	.word	0x0130;	????
     ee4:	e0 00       	.word	0x00e0;	????
     ee6:	00 00       	beq			
     ee8:	00 00       	beq			
     eea:	00 00       	beq			
     eec:	44 00       	.word	0x0044;	????
     eee:	31 01       	.word	0x0131;	????
     ef0:	ea 00       	.word	0x00ea;	????
     ef2:	00 00       	beq			
     ef4:	00 00       	beq			
     ef6:	00 00       	beq			
     ef8:	44 00       	.word	0x0044;	????
     efa:	32 01       	.word	0x0132;	????
     efc:	f4 00       	.word	0x00f4;	????
     efe:	00 00       	beq			
     f00:	00 00       	beq			
     f02:	00 00       	beq			
     f04:	44 00       	.word	0x0044;	????
     f06:	33 01       	.word	0x0133;	????
     f08:	fe 00       	.word	0x00fe;	????
     f0a:	00 00       	beq			
     f0c:	00 00       	beq			
     f0e:	00 00       	beq			
     f10:	44 00       	.word	0x0044;	????
     f12:	34 01       	.word	0x0134;	????
     f14:	08 01       	.word	0x0108;	????
     f16:	00 00       	beq			
     f18:	00 00       	beq			
     f1a:	00 00       	beq			
     f1c:	44 00       	.word	0x0044;	????
     f1e:	35 01       	.word	0x0135;	????
     f20:	12 01       	.word	0x0112;	????
     f22:	00 00       	beq			
     f24:	00 00       	beq			
     f26:	00 00       	beq			
     f28:	44 00       	.word	0x0044;	????
     f2a:	36 01       	.word	0x0136;	????
     f2c:	1c 01       	.word	0x011c;	????
     f2e:	00 00       	beq			
     f30:	00 00       	beq			
     f32:	00 00       	beq			
     f34:	44 00       	.word	0x0044;	????
     f36:	38 01       	.word	0x0138;	????
     f38:	20 01       	.word	0x0120;	????
     f3a:	00 00       	beq			
     f3c:	00 00       	beq			
     f3e:	00 00       	beq			
     f40:	44 00       	.word	0x0044;	????
     f42:	39 01       	.word	0x0139;	????
     f44:	24 01       	.word	0x0124;	????
     f46:	00 00       	beq			
     f48:	00 00       	beq			
     f4a:	00 00       	beq			
     f4c:	44 00       	.word	0x0044;	????
     f4e:	3a 01       	.word	0x013a;	????
     f50:	2e 01       	.word	0x012e;	????
     f52:	00 00       	beq			
     f54:	00 00       	beq			
     f56:	00 00       	beq			
     f58:	44 00       	.word	0x0044;	????
     f5a:	3b 01       	.word	0x013b;	????
     f5c:	38 01       	.word	0x0138;	????
     f5e:	00 00       	beq			
     f60:	00 00       	beq			
     f62:	00 00       	beq			
     f64:	44 00       	.word	0x0044;	????
     f66:	3c 01       	.word	0x013c;	????
     f68:	42 01       	.word	0x0142;	????
     f6a:	00 00       	beq			
     f6c:	00 00       	beq			
     f6e:	00 00       	beq			
     f70:	44 00       	.word	0x0044;	????
     f72:	3d 01       	.word	0x013d;	????
     f74:	4c 01       	.word	0x014c;	????
     f76:	00 00       	beq			
     f78:	00 00       	beq			
     f7a:	00 00       	beq			
     f7c:	44 00       	.word	0x0044;	????
     f7e:	3e 01       	.word	0x013e;	????
     f80:	56 01       	.word	0x0156;	????
     f82:	00 00       	beq			
     f84:	00 00       	beq			
     f86:	00 00       	beq			
     f88:	44 00       	.word	0x0044;	????
     f8a:	3f 01       	.word	0x013f;	????
     f8c:	60 01       	.word	0x0160;	????
     f8e:	00 00       	beq			
     f90:	00 00       	beq			
     f92:	00 00       	beq			
     f94:	44 00       	.word	0x0044;	????
     f96:	40 01       	.word	0x0140;	????
     f98:	6a 01       	.word	0x016a;	????
     f9a:	00 00       	beq			
     f9c:	00 00       	beq			
     f9e:	00 00       	beq			
     fa0:	44 00       	.word	0x0044;	????
     fa2:	41 01       	.word	0x0141;	????
     fa4:	74 01       	.word	0x0174;	????
     fa6:	00 00       	beq			
     fa8:	00 00       	beq			
     faa:	00 00       	beq			
     fac:	44 00       	.word	0x0044;	????
     fae:	43 01       	.word	0x0143;	????
     fb0:	78 01       	.word	0x0178;	????
     fb2:	00 00       	beq			
     fb4:	00 00       	beq			
     fb6:	00 00       	beq			
     fb8:	44 00       	.word	0x0044;	????
     fba:	44 01       	.word	0x0144;	????
     fbc:	7c 01       	.word	0x017c;	????
     fbe:	00 00       	beq			
     fc0:	00 00       	beq			
     fc2:	00 00       	beq			
     fc4:	44 00       	.word	0x0044;	????
     fc6:	45 01       	.word	0x0145;	????
     fc8:	86 01       	.word	0x0186;	????
     fca:	00 00       	beq			
     fcc:	00 00       	beq			
     fce:	00 00       	beq			
     fd0:	44 00       	.word	0x0044;	????
     fd2:	46 01       	.word	0x0146;	????
     fd4:	90 01       	.word	0x0190;	????
     fd6:	00 00       	beq			
     fd8:	00 00       	beq			
     fda:	00 00       	beq			
     fdc:	44 00       	.word	0x0044;	????
     fde:	47 01       	.word	0x0147;	????
     fe0:	9a 01       	.word	0x019a;	????
     fe2:	00 00       	beq			
     fe4:	00 00       	beq			
     fe6:	00 00       	beq			
     fe8:	44 00       	.word	0x0044;	????
     fea:	48 01       	.word	0x0148;	????
     fec:	a2 01       	.word	0x01a2;	????
     fee:	00 00       	beq			
     ff0:	00 00       	beq			
     ff2:	00 00       	beq			
     ff4:	44 00       	.word	0x0044;	????
     ff6:	49 01       	.word	0x0149;	????
     ff8:	aa 01       	.word	0x01aa;	????
     ffa:	00 00       	beq			
     ffc:	00 00       	beq			
     ffe:	00 00       	beq			
    1000:	44 00       	.word	0x0044;	????
    1002:	4a 01       	.word	0x014a;	????
    1004:	b4 01       	.word	0x01b4;	????
    1006:	00 00       	beq			
    1008:	00 00       	beq			
    100a:	00 00       	beq			
    100c:	44 00       	.word	0x0044;	????
    100e:	4c 01       	.word	0x014c;	????
    1010:	b8 01       	.word	0x01b8;	????
    1012:	00 00       	beq			
    1014:	00 00       	beq			
    1016:	00 00       	beq			
    1018:	44 00       	.word	0x0044;	????
    101a:	4d 01       	.word	0x014d;	????
    101c:	bc 01       	.word	0x01bc;	????
    101e:	00 00       	beq			
    1020:	00 00       	beq			
    1022:	00 00       	beq			
    1024:	44 00       	.word	0x0044;	????
    1026:	4e 01       	.word	0x014e;	????
    1028:	c6 01       	.word	0x01c6;	????
    102a:	00 00       	beq			
    102c:	00 00       	beq			
    102e:	00 00       	beq			
    1030:	44 00       	.word	0x0044;	????
    1032:	4f 01       	.word	0x014f;	????
    1034:	d0 01       	.word	0x01d0;	????
    1036:	00 00       	beq			
    1038:	00 00       	beq			
    103a:	00 00       	beq			
    103c:	44 00       	.word	0x0044;	????
    103e:	51 01       	.word	0x0151;	????
    1040:	d4 01       	.word	0x01d4;	????
    1042:	00 00       	beq			
    1044:	00 00       	beq			
    1046:	00 00       	beq			
    1048:	44 00       	.word	0x0044;	????
    104a:	52 01       	.word	0x0152;	????
    104c:	d8 01       	.word	0x01d8;	????
    104e:	00 00       	beq			
    1050:	00 00       	beq			
    1052:	00 00       	beq			
    1054:	44 00       	.word	0x0044;	????
    1056:	53 01       	.word	0x0153;	????
    1058:	e2 01       	.word	0x01e2;	????
    105a:	00 00       	beq			
    105c:	00 00       	beq			
    105e:	00 00       	beq			
    1060:	44 00       	.word	0x0044;	????
    1062:	54 01       	.word	0x0154;	????
    1064:	fa 01       	.word	0x01fa;	????
    1066:	00 00       	beq			
    1068:	00 00       	beq			
    106a:	00 00       	beq			
    106c:	44 00       	.word	0x0044;	????
    106e:	55 01       	.word	0x0155;	????
    1070:	04 02       	.word	0x0204;	????
    1072:	00 00       	beq			
    1074:	00 00       	beq			
    1076:	00 00       	beq			
    1078:	44 00       	.word	0x0044;	????
    107a:	57 01       	.word	0x0157;	????
    107c:	08 02       	.word	0x0208;	????
    107e:	00 00       	beq			
    1080:	00 00       	beq			
    1082:	00 00       	beq			
    1084:	44 00       	.word	0x0044;	????
    1086:	58 01       	.word	0x0158;	????
    1088:	0c 02       	.word	0x020c;	????
    108a:	00 00       	beq			
    108c:	00 00       	beq			
    108e:	00 00       	beq			
    1090:	44 00       	.word	0x0044;	????
    1092:	59 01       	.word	0x0159;	????
    1094:	16 02       	.word	0x0216;	????
    1096:	00 00       	beq			
    1098:	00 00       	beq			
    109a:	00 00       	beq			
    109c:	44 00       	.word	0x0044;	????
    109e:	5a 01       	.word	0x015a;	????
    10a0:	2e 02       	.word	0x022e;	????
    10a2:	00 00       	beq			
    10a4:	00 00       	beq			
    10a6:	00 00       	beq			
    10a8:	44 00       	.word	0x0044;	????
    10aa:	5b 01       	.word	0x015b;	????
    10ac:	38 02       	.word	0x0238;	????
    10ae:	00 00       	beq			
    10b0:	00 00       	beq			
    10b2:	00 00       	beq			
    10b4:	44 00       	.word	0x0044;	????
    10b6:	5d 01       	.word	0x015d;	????
    10b8:	3c 02       	.word	0x023c;	????
    10ba:	00 00       	beq			
    10bc:	00 00       	beq			
    10be:	00 00       	beq			
    10c0:	44 00       	.word	0x0044;	????
    10c2:	5e 01       	.word	0x015e;	????
    10c4:	40 02       	.word	0x0240;	????
    10c6:	00 00       	beq			
    10c8:	00 00       	beq			
    10ca:	00 00       	beq			
    10cc:	44 00       	.word	0x0044;	????
    10ce:	5f 01       	.word	0x015f;	????
    10d0:	4a 02       	.word	0x024a;	????
    10d2:	00 00       	beq			
    10d4:	00 00       	beq			
    10d6:	00 00       	beq			
    10d8:	44 00       	.word	0x0044;	????
    10da:	60 01       	.word	0x0160;	????
    10dc:	54 02       	.word	0x0254;	????
    10de:	00 00       	beq			
    10e0:	00 00       	beq			
    10e2:	00 00       	beq			
    10e4:	44 00       	.word	0x0044;	????
    10e6:	62 01       	.word	0x0162;	????
    10e8:	58 02       	.word	0x0258;	????
    10ea:	00 00       	beq			
    10ec:	00 00       	beq			
    10ee:	00 00       	beq			
    10f0:	44 00       	.word	0x0044;	????
    10f2:	63 01       	.word	0x0163;	????
    10f4:	5c 02       	.word	0x025c;	????
    10f6:	00 00       	beq			
    10f8:	00 00       	beq			
    10fa:	00 00       	beq			
    10fc:	44 00       	.word	0x0044;	????
    10fe:	64 01       	.word	0x0164;	????
    1100:	66 02       	.word	0x0266;	????
    1102:	00 00       	beq			
    1104:	00 00       	beq			
    1106:	00 00       	beq			
    1108:	44 00       	.word	0x0044;	????
    110a:	65 01       	.word	0x0165;	????
    110c:	7e 02       	.word	0x027e;	????
    110e:	00 00       	beq			
    1110:	00 00       	beq			
    1112:	00 00       	beq			
    1114:	44 00       	.word	0x0044;	????
    1116:	66 01       	.word	0x0166;	????
    1118:	88 02       	.word	0x0288;	????
    111a:	00 00       	beq			
    111c:	00 00       	beq			
    111e:	00 00       	beq			
    1120:	44 00       	.word	0x0044;	????
    1122:	68 01       	.word	0x0168;	????
    1124:	8c 02       	.word	0x028c;	????
    1126:	00 00       	beq			
    1128:	00 00       	beq			
    112a:	00 00       	beq			
    112c:	44 00       	.word	0x0044;	????
    112e:	69 01       	.word	0x0169;	????
    1130:	90 02       	.word	0x0290;	????
    1132:	00 00       	beq			
    1134:	00 00       	beq			
    1136:	00 00       	beq			
    1138:	44 00       	.word	0x0044;	????
    113a:	6a 01       	.word	0x016a;	????
    113c:	9a 02       	.word	0x029a;	????
    113e:	00 00       	beq			
    1140:	00 00       	beq			
    1142:	00 00       	beq			
    1144:	44 00       	.word	0x0044;	????
    1146:	6b 01       	.word	0x016b;	????
    1148:	b2 02       	.word	0x02b2;	????
    114a:	00 00       	beq			
    114c:	00 00       	beq			
    114e:	00 00       	beq			
    1150:	44 00       	.word	0x0044;	????
    1152:	6c 01       	.word	0x016c;	????
    1154:	bc 02       	.word	0x02bc;	????
    1156:	00 00       	beq			
    1158:	00 00       	beq			
    115a:	00 00       	beq			
    115c:	44 00       	.word	0x0044;	????
    115e:	6e 01       	.word	0x016e;	????
    1160:	c0 02       	.word	0x02c0;	????
    1162:	00 00       	beq			
    1164:	00 00       	beq			
    1166:	00 00       	beq			
    1168:	44 00       	.word	0x0044;	????
    116a:	6f 01       	.word	0x016f;	????
    116c:	c2 02       	.word	0x02c2;	????
    116e:	00 00       	beq			
    1170:	36 0b       	.word	0x0b36;	????
    1172:	00 00       	beq			
    1174:	40 00       	.word	0x0040;	????
    1176:	0e 01       	.word	0x010e;	????
    1178:	09 00       	.word	0x0009;	????
    117a:	00 00       	beq			
    117c:	19 0c       	.word	0x0c19;	????
    117e:	00 00       	beq			
    1180:	40 00       	.word	0x0040;	????
    1182:	0e 01       	.word	0x010e;	????
    1184:	0b 00       	.word	0x000b;	????
    1186:	00 00       	beq			
    1188:	23 0c       	.word	0x0c23;	????
    118a:	00 00       	beq			
    118c:	80 00       	.word	0x0080;	????
    118e:	0e 01       	.word	0x010e;	????
	...
    1198:	c0 00       	.word	0x00c0;	????
    119a:	00 00       	beq			
    119c:	08 00       	.word	0x0008;	????
    119e:	00 00       	beq			
    11a0:	00 00       	beq			
    11a2:	00 00       	beq			
    11a4:	e0 00       	.word	0x00e0;	????
    11a6:	00 00       	beq			
    11a8:	c2 02       	.word	0x02c2;	????
    11aa:	00 00       	beq			
    11ac:	00 00       	beq			
    11ae:	00 00       	beq			
    11b0:	24 00       	.word	0x0024;	????
    11b2:	00 00       	beq			
    11b4:	cc 02       	.word	0x02cc;	????
    11b6:	00 00       	beq			
    11b8:	43 0c       	.word	0x0c43;	????
    11ba:	00 00       	beq			
    11bc:	20 00       	.word	0x0020;	????
    11be:	14 00       	.word	0x0014;	????
    11c0:	00 00       	beq			
    11c2:	00 00       	beq			
    11c4:	59 0c       	.word	0x0c59;	????
    11c6:	00 00       	beq			
    11c8:	20 00       	.word	0x0020;	????
    11ca:	16 00       	.word	0x0016;	????
    11cc:	00 00       	beq			
    11ce:	00 00       	beq			
    11d0:	68 0c       	.word	0x0c68;	????
    11d2:	00 00       	beq			
    11d4:	20 00       	.word	0x0020;	????
    11d6:	18 00       	.word	0x0018;	????
    11d8:	00 00       	beq			
    11da:	00 00       	beq			
    11dc:	77 0c       	.word	0x0c77;	????
    11de:	00 00       	beq			
    11e0:	20 00       	.word	0x0020;	????
    11e2:	1b 00       	.word	0x001b;	????
    11e4:	00 00       	beq			
    11e6:	00 00       	beq			
    11e8:	86 0c       	.word	0x0c86;	????
    11ea:	00 00       	beq			
    11ec:	20 00       	.word	0x0020;	????
    11ee:	14 00       	.word	0x0014;	????
    11f0:	00 00       	beq			
    11f2:	00 00       	beq			
    11f4:	93 0c       	.word	0x0c93;	????
    11f6:	00 00       	beq			
    11f8:	20 00       	.word	0x0020;	????
    11fa:	16 00       	.word	0x0016;	????
    11fc:	00 00       	beq			
    11fe:	00 00       	beq			
    1200:	a0 0c       	.word	0x0ca0;	????
    1202:	00 00       	beq			
    1204:	20 00       	.word	0x0020;	????
    1206:	18 00       	.word	0x0018;	????
    1208:	00 00       	beq			
    120a:	00 00       	beq			
    120c:	ad 0c       	.word	0x0cad;	????
    120e:	00 00       	beq			
    1210:	20 00       	.word	0x0020;	????
    1212:	13 00       	.word	0x0013;	????
    1214:	00 00       	beq			
    1216:	00 00       	beq			
    1218:	ba 0c       	.word	0x0cba;	????
    121a:	00 00       	beq			
    121c:	20 00       	.word	0x0020;	????
    121e:	19 00       	.word	0x0019;	????
    1220:	00 00       	beq			
    1222:	00 00       	beq			
    1224:	c7 0c       	.word	0x0cc7;	????
    1226:	00 00       	beq			
    1228:	20 00       	.word	0x0020;	????
    122a:	1b 00       	.word	0x001b;	????
    122c:	00 00       	beq			
    122e:	00 00       	beq			
    1230:	d5 0c       	.word	0x0cd5;	????
    1232:	00 00       	beq			
    1234:	20 00       	.word	0x0020;	????
    1236:	1d 00       	.word	0x001d;	????
    1238:	00 00       	beq			
    123a:	00 00       	beq			
    123c:	e1 0c       	.word	0x0ce1;	????
    123e:	00 00       	beq			
    1240:	20 00       	.word	0x0020;	????
    1242:	20 00       	.word	0x0020;	????
    1244:	00 00       	beq			
    1246:	00 00       	beq			
    1248:	f1 0c       	.word	0x0cf1;	????
    124a:	00 00       	beq			
    124c:	20 00       	.word	0x0020;	????
    124e:	22 00       	.word	0x0022;	????
    1250:	00 00       	beq			
    1252:	00 00       	beq			
    1254:	01 0d       	.word	0x0d01;	????
    1256:	00 00       	beq			
    1258:	20 00       	.word	0x0020;	????
    125a:	24 00       	.word	0x0024;	????
    125c:	00 00       	beq			
    125e:	00 00       	beq			
    1260:	10 0d       	.word	0x0d10;	????
    1262:	00 00       	beq			
    1264:	20 00       	.word	0x0020;	????
    1266:	26 00       	.word	0x0026;	????
    1268:	00 00       	beq			
    126a:	00 00       	beq			
    126c:	1f 0d       	.word	0x0d1f;	????
    126e:	00 00       	beq			
    1270:	20 00       	.word	0x0020;	????
    1272:	a0 00       	.word	0x00a0;	????
    1274:	00 00       	beq			
    1276:	00 00       	beq			
    1278:	2d 0d       	.word	0x0d2d;	????
    127a:	00 00       	beq			
    127c:	20 00       	.word	0x0020;	????
    127e:	88 00       	.word	0x0088;	????
    1280:	00 00       	beq			
    1282:	00 00       	beq			
    1284:	3b 0d       	.word	0x0d3b;	????
    1286:	00 00       	beq			
    1288:	20 00       	.word	0x0020;	????
    128a:	8c 00       	.word	0x008c;	????
    128c:	00 00       	beq			
    128e:	00 00       	beq			
    1290:	49 0d       	.word	0x0d49;	????
    1292:	00 00       	beq			
    1294:	20 00       	.word	0x0020;	????
    1296:	72 00       	.word	0x0072;	????
    1298:	00 00       	beq			
    129a:	00 00       	beq			
    129c:	55 0d       	.word	0x0d55;	????
    129e:	00 00       	beq			
    12a0:	20 00       	.word	0x0020;	????
    12a2:	74 00       	.word	0x0074;	????
    12a4:	00 00       	beq			
    12a6:	00 00       	beq			
    12a8:	62 0d       	.word	0x0d62;	????
    12aa:	00 00       	beq			
    12ac:	20 00       	.word	0x0020;	????
    12ae:	76 00       	.word	0x0076;	????
    12b0:	00 00       	beq			
    12b2:	00 00       	beq			
    12b4:	6f 0d       	.word	0x0d6f;	????
    12b6:	00 00       	beq			
    12b8:	20 00       	.word	0x0020;	????
    12ba:	78 00       	.word	0x0078;	????
    12bc:	00 00       	beq			
    12be:	00 00       	beq			
    12c0:	7c 0d       	.word	0x0d7c;	????
    12c2:	00 00       	beq			
    12c4:	20 00       	.word	0x0020;	????
    12c6:	7a 00       	.word	0x007a;	????
    12c8:	00 00       	beq			
    12ca:	00 00       	beq			
    12cc:	89 0d       	.word	0x0d89;	????
    12ce:	00 00       	beq			
    12d0:	20 00       	.word	0x0020;	????
    12d2:	7c 00       	.word	0x007c;	????
    12d4:	00 00       	beq			
    12d6:	00 00       	beq			
    12d8:	95 0d       	.word	0x0d95;	????
    12da:	00 00       	beq			
    12dc:	20 00       	.word	0x0020;	????
    12de:	7e 00       	.word	0x007e;	????
    12e0:	00 00       	beq			
    12e2:	00 00       	beq			
    12e4:	a2 0d       	.word	0x0da2;	????
    12e6:	00 00       	beq			
    12e8:	20 00       	.word	0x0020;	????
    12ea:	81 00       	.word	0x0081;	????
    12ec:	00 00       	beq			
    12ee:	00 00       	beq			
    12f0:	af 0d       	.word	0x0daf;	????
    12f2:	00 00       	beq			
    12f4:	20 00       	.word	0x0020;	????
    12f6:	87 00       	.word	0x0087;	????
    12f8:	00 00       	beq			
    12fa:	00 00       	beq			
    12fc:	bb 0d       	.word	0x0dbb;	????
    12fe:	00 00       	beq			
    1300:	20 00       	.word	0x0020;	????
    1302:	89 00       	.word	0x0089;	????
    1304:	00 00       	beq			
    1306:	00 00       	beq			
    1308:	c8 0d       	.word	0x0dc8;	????
    130a:	00 00       	beq			
    130c:	20 00       	.word	0x0020;	????
    130e:	8b 00       	.word	0x008b;	????
    1310:	00 00       	beq			
    1312:	00 00       	beq			
    1314:	d5 0d       	.word	0x0dd5;	????
    1316:	00 00       	beq			
    1318:	20 00       	.word	0x0020;	????
    131a:	8d 00       	.word	0x008d;	????
    131c:	00 00       	beq			
    131e:	00 00       	beq			
    1320:	e2 0d       	.word	0x0de2;	????
    1322:	00 00       	beq			
    1324:	20 00       	.word	0x0020;	????
    1326:	8f 00       	.word	0x008f;	????
    1328:	00 00       	beq			
    132a:	00 00       	beq			
    132c:	ef 0d       	.word	0x0def;	????
    132e:	00 00       	beq			
    1330:	20 00       	.word	0x0020;	????
    1332:	91 00       	.word	0x0091;	????
    1334:	00 00       	beq			
    1336:	00 00       	beq			
    1338:	fb 0d       	.word	0x0dfb;	????
    133a:	00 00       	beq			
    133c:	20 00       	.word	0x0020;	????
    133e:	93 00       	.word	0x0093;	????
    1340:	00 00       	beq			
    1342:	00 00       	beq			
    1344:	08 0e       	.word	0x0e08;	????
    1346:	00 00       	beq			
    1348:	20 00       	.word	0x0020;	????
    134a:	96 00       	.word	0x0096;	????
    134c:	00 00       	beq			
    134e:	00 00       	beq			
    1350:	15 0e       	.word	0x0e15;	????
    1352:	00 00       	beq			
    1354:	20 00       	.word	0x0020;	????
    1356:	17 00       	.word	0x0017;	????
    1358:	00 00       	beq			
    135a:	00 00       	beq			
    135c:	24 0e       	.word	0x0e24;	????
    135e:	00 00       	beq			
    1360:	20 00       	.word	0x0020;	????
    1362:	19 00       	.word	0x0019;	????
    1364:	00 00       	beq			
    1366:	00 00       	beq			
    1368:	32 0e       	.word	0x0e32;	????
    136a:	00 00       	beq			
    136c:	20 00       	.word	0x0020;	????
    136e:	1d 00       	.word	0x001d;	????
    1370:	00 00       	beq			
    1372:	00 00       	beq			
    1374:	40 0e       	.word	0x0e40;	????
    1376:	00 00       	beq			
    1378:	20 00       	.word	0x0020;	????
    137a:	27 00       	.word	0x0027;	????
    137c:	00 00       	beq			
    137e:	00 00       	beq			
    1380:	52 0e       	.word	0x0e52;	????
    1382:	00 00       	beq			
    1384:	20 00       	.word	0x0020;	????
    1386:	29 00       	.word	0x0029;	????
    1388:	00 00       	beq			
    138a:	00 00       	beq			
    138c:	62 0e       	.word	0x0e62;	????
    138e:	00 00       	beq			
    1390:	20 00       	.word	0x0020;	????
    1392:	2b 00       	.word	0x002b;	????
    1394:	00 00       	beq			
    1396:	00 00       	beq			
    1398:	73 0e       	.word	0x0e73;	????
    139a:	00 00       	beq			
    139c:	20 00       	.word	0x0020;	????
    139e:	2d 00       	.word	0x002d;	????
    13a0:	00 00       	beq			
    13a2:	00 00       	beq			
    13a4:	83 0e       	.word	0x0e83;	????
    13a6:	00 00       	beq			
    13a8:	20 00       	.word	0x0020;	????
    13aa:	14 00       	.word	0x0014;	????
    13ac:	00 00       	beq			
    13ae:	00 00       	beq			
    13b0:	92 0e       	.word	0x0e92;	????
    13b2:	00 00       	beq			
    13b4:	20 00       	.word	0x0020;	????
    13b6:	16 00       	.word	0x0016;	????
    13b8:	00 00       	beq			
    13ba:	00 00       	beq			
    13bc:	a1 0e       	.word	0x0ea1;	????
    13be:	00 00       	beq			
    13c0:	20 00       	.word	0x0020;	????
    13c2:	18 00       	.word	0x0018;	????
    13c4:	00 00       	beq			
    13c6:	00 00       	beq			
    13c8:	b1 0e       	.word	0x0eb1;	????
    13ca:	00 00       	beq			
    13cc:	20 00       	.word	0x0020;	????
    13ce:	1a 00       	.word	0x001a;	????
    13d0:	00 00       	beq			
    13d2:	00 00       	beq			
    13d4:	bf 0e       	.word	0x0ebf;	????
    13d6:	00 00       	beq			
    13d8:	20 00       	.word	0x0020;	????
    13da:	1c 00       	.word	0x001c;	????
    13dc:	00 00       	beq			
    13de:	00 00       	beq			
    13e0:	cd 0e       	.word	0x0ecd;	????
    13e2:	00 00       	beq			
    13e4:	20 00       	.word	0x0020;	????
    13e6:	1e 00       	.word	0x001e;	????
    13e8:	00 00       	beq			
    13ea:	00 00       	beq			
    13ec:	db 0e       	.word	0x0edb;	????
    13ee:	00 00       	beq			
    13f0:	20 00       	.word	0x0020;	????
    13f2:	20 00       	.word	0x0020;	????
    13f4:	00 00       	beq			
    13f6:	00 00       	beq			
    13f8:	e9 0e       	.word	0x0ee9;	????
    13fa:	00 00       	beq			
    13fc:	20 00       	.word	0x0020;	????
    13fe:	23 00       	.word	0x0023;	????
    1400:	00 00       	beq			
    1402:	00 00       	beq			
    1404:	f8 0e       	.word	0x0ef8;	????
    1406:	00 00       	beq			
    1408:	20 00       	.word	0x0020;	????
    140a:	26 00       	.word	0x0026;	????
    140c:	00 00       	beq			
    140e:	00 00       	beq			
    1410:	05 0f       	.word	0x0f05;	????
    1412:	00 00       	beq			
    1414:	20 00       	.word	0x0020;	????
    1416:	47 00       	.word	0x0047;	????
    1418:	00 00       	beq			
    141a:	00 00       	beq			
    141c:	13 0f       	.word	0x0f13;	????
    141e:	00 00       	beq			
    1420:	20 00       	.word	0x0020;	????
    1422:	27 00       	.word	0x0027;	????
    1424:	00 00       	beq			
    1426:	00 00       	beq			
    1428:	1e 0f       	.word	0x0f1e;	????
    142a:	00 00       	beq			
    142c:	20 00       	.word	0x0020;	????
    142e:	2e 00       	.word	0x002e;	????
    1430:	00 00       	beq			
    1432:	00 00       	beq			
    1434:	2a 0f       	.word	0x0f2a;	????
    1436:	00 00       	beq			
    1438:	20 00       	.word	0x0020;	????
    143a:	3a 00       	.word	0x003a;	????
    143c:	00 00       	beq			
    143e:	00 00       	beq			
    1440:	3e 0f       	.word	0x0f3e;	????
    1442:	00 00       	beq			
    1444:	20 00       	.word	0x0020;	????
    1446:	3c 00       	.word	0x003c;	????
    1448:	00 00       	beq			
    144a:	00 00       	beq			
    144c:	52 0f       	.word	0x0f52;	????
    144e:	00 00       	beq			
    1450:	20 00       	.word	0x0020;	????
    1452:	3e 00       	.word	0x003e;	????
    1454:	00 00       	beq			
    1456:	00 00       	beq			
    1458:	66 0f       	.word	0x0f66;	????
    145a:	00 00       	beq			
    145c:	20 00       	.word	0x0020;	????
    145e:	40 00       	.word	0x0040;	????
    1460:	00 00       	beq			
    1462:	00 00       	beq			
    1464:	7a 0f       	.word	0x0f7a;	????
    1466:	00 00       	beq			
    1468:	20 00       	.word	0x0020;	????
    146a:	42 00       	.word	0x0042;	????
    146c:	00 00       	beq			
    146e:	00 00       	beq			
    1470:	8d 0f       	.word	0x0f8d;	????
    1472:	00 00       	beq			
    1474:	20 00       	.word	0x0020;	????
    1476:	44 00       	.word	0x0044;	????
    1478:	00 00       	beq			
    147a:	00 00       	beq			
    147c:	a0 0f       	.word	0x0fa0;	????
    147e:	00 00       	beq			
    1480:	20 00       	.word	0x0020;	????
    1482:	46 00       	.word	0x0046;	????
    1484:	00 00       	beq			
    1486:	00 00       	beq			
    1488:	b3 0f       	.word	0x0fb3;	????
    148a:	00 00       	beq			
    148c:	20 00       	.word	0x0020;	????
    148e:	48 00       	.word	0x0048;	????
    1490:	00 00       	beq			
    1492:	00 00       	beq			
    1494:	c6 0f       	.word	0x0fc6;	????
    1496:	00 00       	beq			
    1498:	20 00       	.word	0x0020;	????
    149a:	11 00       	.word	0x0011;	????
    149c:	00 00       	beq			
    149e:	00 00       	beq			
    14a0:	ec 0f       	.word	0x0fec;	????
    14a2:	00 00       	beq			
    14a4:	20 00       	.word	0x0020;	????
    14a6:	13 00       	.word	0x0013;	????
	...
    14b0:	64 00       	.word	0x0064;	????
    14b2:	00 00       	beq			
    14b4:	1c fe 00 00 	and	0(r14),	r12	;
Disassembly of section .stabstr:

00000000 <.stabstr>:
       0:	00 43       	clr	r0		;
       2:	3a 2f       	jc	$-394    	;abs 0xfe78
       4:	44 4f       	mov.b	r15,	r4	;
       6:	4b 55       	add.b	r5,	r11	;
       8:	4d 45       	mov.b	r5,	r13	;
       a:	7e 31       	jn	$+766    	;abs 0x308
       c:	2f 77       	subc	@r7,	r15	;
       e:	6f 72       	subc.b	#4,	r15	;r2 As==10
      10:	6b 2f       	jc	$-296    	;abs 0xfee8
      12:	4c 4f       	mov.b	r15,	r12	;
      14:	4b 41       	mov.b	r1,	r11	;
      16:	4c 45       	mov.b	r5,	r12	;
      18:	7e 31       	jn	$+766    	;abs 0x316
      1a:	2f 54       	add	@r4,	r15	;
      1c:	65 6d       	addc.b	@r13,	r5	;
      1e:	70 2f       	jc	$-286    	;abs 0xff00
      20:	63 63       	.word	0x6363;	????
      22:	32 6c       	addc	@r12+,	r2	;
      24:	59 5a 6a 58 	add.b	22634(r10),r9	;
      28:	2e 73       	subc	#2,	r14	;r3 As==10
      2a:	00 67       	addc	r7,	r0	;
      2c:	63 72       	.word	0x7263;	????
      2e:	74 30       	jn	$+234    	;abs 0x118
      30:	2e 53       	incd	r14		;
      32:	00 43       	clr	r0		;
      34:	3a 5c       	add	@r12+,	r10	;
      36:	6d 73       	subc.b	#2,	r13	;r3 As==10
      38:	70 67       	addc.b	@r7+,	r0	;
      3a:	63 63       	.word	0x6363;	????
      3c:	5c 50 72 6f 	add.b	0x6f72,	r12	;PC rel. 0x6fb0
      40:	6a 65       	addc.b	@r5,	r10	;
      42:	74 6f       	addc.b	@r15+,	r4	;
      44:	73 5c       	.word	0x5c73;	????
      46:	41 6e       	addc.b	r14,	r1	;
      48:	64 65       	addc.b	@r5,	r4	;
      4a:	72 73       	subc.b	#-1,	r2	;r3 As==11
      4c:	6f 6e       	addc.b	@r14,	r15	;
      4e:	2f 00       	.word	0x002f;	????
      50:	66 72       	subc.b	#4,	r6	;r2 As==10
      52:	61 6e       	addc.b	@r14,	r1	;
      54:	63 69       	.word	0x6963;	????
      56:	73 2e       	jc	$-792    	;abs 0xfd3e
      58:	63 00       	.word	0x0063;	????
      5a:	67 63       	addc.b	#2,	r7	;r3 As==10
      5c:	63 32       	jn	$-824    	;abs 0xfd24
      5e:	5f 63       	addc.b	#1,	r15	;r3 As==01
      60:	6f 6d       	addc.b	@r13,	r15	;
      62:	70 69       	addc.b	@r9+,	r0	;
      64:	6c 65       	addc.b	@r5,	r12	;
      66:	64 2e       	jc	$-822    	;abs 0xfd30
      68:	00 69       	addc	r9,	r0	;
      6a:	6e 74       	subc.b	@r4,	r14	;
      6c:	3a 74       	subc	@r4+,	r10	;
      6e:	28 30       	jn	$+82     	;abs 0xc0
      70:	2c 31       	jn	$+602    	;abs 0x2ca
      72:	29 3d       	jmp	$+596    	;abs 0x2c6
      74:	72 28       	jnc	$+230    	;abs 0x15a
      76:	30 2c       	jc	$+98     	;abs 0xd8
      78:	31 29       	jnc	$+612    	;abs 0x2dc
      7a:	3b 2d       	jc	$+632    	;abs 0x2f2
      7c:	33 32       	jn	$-920    	;abs 0xfce4
      7e:	37 36       	jge	$-912    	;abs 0xfcee
      80:	38 3b       	jl	$-398    	;abs 0xfef2
      82:	33 32       	jn	$-920    	;abs 0xfcea
      84:	37 36       	jge	$-912    	;abs 0xfcf4
      86:	37 3b       	jl	$-400    	;abs 0xfef6
      88:	00 63       	adc	r0		;
      8a:	68 61       	addc.b	@r1,	r8	;
      8c:	72 3a       	jl	$-794    	;abs 0xfd72
      8e:	74 28       	jnc	$+234    	;abs 0x178
      90:	30 2c       	jc	$+98     	;abs 0xf2
      92:	32 29       	jnc	$+614    	;abs 0x2f8
      94:	3d 72       	subc	#8,	r13	;r2 As==11
      96:	28 30       	jn	$+82     	;abs 0xe8
      98:	2c 32       	jn	$-934    	;abs 0xfcf2
      9a:	29 3b       	jl	$-428    	;abs 0xfeee
      9c:	30 3b       	jl	$-414    	;abs 0xfefe
      9e:	31 32       	jn	$-924    	;abs 0xfd02
      a0:	37 3b       	jl	$-400    	;abs 0xff10
      a2:	00 6c       	addc	r12,	r0	;
      a4:	6f 6e       	addc.b	@r14,	r15	;
      a6:	67 20       	jnz	$+208    	;abs 0x176
      a8:	69 6e       	addc.b	@r14,	r9	;
      aa:	74 3a       	jl	$-790    	;abs 0xfd94
      ac:	74 28       	jnc	$+234    	;abs 0x196
      ae:	30 2c       	jc	$+98     	;abs 0x110
      b0:	33 29       	jnc	$+616    	;abs 0x318
      b2:	3d 40 73 33 	mov	#13171,	r13	;#0x3373
      b6:	32 3b       	jl	$-410    	;abs 0xff1c
      b8:	72 28       	jnc	$+230    	;abs 0x19e
      ba:	30 2c       	jc	$+98     	;abs 0x11c
      bc:	33 29       	jnc	$+616    	;abs 0x324
      be:	3b 30       	jn	$+120    	;abs 0x136
      c0:	30 32       	jn	$-926    	;abs 0xfd22
      c2:	30 30       	jn	$+98     	;abs 0x124
      c4:	30 30       	jn	$+98     	;abs 0x126
      c6:	30 30       	jn	$+98     	;abs 0x128
      c8:	30 30       	jn	$+98     	;abs 0x12a
      ca:	30 30       	jn	$+98     	;abs 0x12c
      cc:	3b 30       	jn	$+120    	;abs 0x144
      ce:	30 31       	jn	$+610    	;abs 0x330
      d0:	37 37       	jge	$-400    	;abs 0xff40
      d2:	37 37       	jge	$-400    	;abs 0xff42
      d4:	37 37       	jge	$-400    	;abs 0xff44
      d6:	37 37       	jge	$-400    	;abs 0xff46
      d8:	37 37       	jge	$-400    	;abs 0xff48
      da:	3b 00       	.word	0x003b;	????
      dc:	75 6e       	addc.b	@r14+,	r5	;
      de:	73 69       	.word	0x6973;	????
      e0:	67 6e       	addc.b	@r14,	r7	;
      e2:	65 64       	addc.b	@r4,	r5	;
      e4:	20 69       	addc	@r9,	r0	;
      e6:	6e 74       	subc.b	@r4,	r14	;
      e8:	3a 74       	subc	@r4+,	r10	;
      ea:	28 30       	jn	$+82     	;abs 0x13c
      ec:	2c 34       	jge	$+90     	;abs 0x146
      ee:	29 3d       	jmp	$+596    	;abs 0x342
      f0:	72 28       	jnc	$+230    	;abs 0x1d6
      f2:	30 2c       	jc	$+98     	;abs 0x154
      f4:	34 29       	jnc	$+618    	;abs 0x35e
      f6:	3b 30       	jn	$+120    	;abs 0x16e
      f8:	30 30       	jn	$+98     	;abs 0x15a
      fa:	30 30       	jn	$+98     	;abs 0x15c
      fc:	30 30       	jn	$+98     	;abs 0x15e
      fe:	30 30       	jn	$+98     	;abs 0x160
     100:	30 30       	jn	$+98     	;abs 0x162
     102:	30 30       	jn	$+98     	;abs 0x164
     104:	3b 30       	jn	$+120    	;abs 0x17c
     106:	30 30       	jn	$+98     	;abs 0x168
     108:	30 30       	jn	$+98     	;abs 0x16a
     10a:	30 30       	jn	$+98     	;abs 0x16c
     10c:	31 37       	jge	$-412    	;abs 0xff70
     10e:	37 37       	jge	$-400    	;abs 0xff7e
     110:	37 37       	jge	$-400    	;abs 0xff80
     112:	3b 00       	.word	0x003b;	????
     114:	6c 6f       	addc.b	@r15,	r12	;
     116:	6e 67       	addc.b	@r7,	r14	;
     118:	20 75       	subc	@r5,	r0	;
     11a:	6e 73       	subc.b	#2,	r14	;r3 As==10
     11c:	69 67       	addc.b	@r7,	r9	;
     11e:	6e 65       	addc.b	@r5,	r14	;
     120:	64 20       	jnz	$+202    	;abs 0x1ea
     122:	69 6e       	addc.b	@r14,	r9	;
     124:	74 3a       	jl	$-790    	;abs 0xfe0e
     126:	74 28       	jnc	$+234    	;abs 0x210
     128:	30 2c       	jc	$+98     	;abs 0x18a
     12a:	35 29       	jnc	$+620    	;abs 0x396
     12c:	3d 40 73 33 	mov	#13171,	r13	;#0x3373
     130:	32 3b       	jl	$-410    	;abs 0xff96
     132:	72 28       	jnc	$+230    	;abs 0x218
     134:	30 2c       	jc	$+98     	;abs 0x196
     136:	35 29       	jnc	$+620    	;abs 0x3a2
     138:	3b 30       	jn	$+120    	;abs 0x1b0
     13a:	30 30       	jn	$+98     	;abs 0x19c
     13c:	30 30       	jn	$+98     	;abs 0x19e
     13e:	30 30       	jn	$+98     	;abs 0x1a0
     140:	30 30       	jn	$+98     	;abs 0x1a2
     142:	30 30       	jn	$+98     	;abs 0x1a4
     144:	30 30       	jn	$+98     	;abs 0x1a6
     146:	3b 30       	jn	$+120    	;abs 0x1be
     148:	30 33       	jn	$-414    	;abs 0xffaa
     14a:	37 37       	jge	$-400    	;abs 0xffba
     14c:	37 37       	jge	$-400    	;abs 0xffbc
     14e:	37 37       	jge	$-400    	;abs 0xffbe
     150:	37 37       	jge	$-400    	;abs 0xffc0
     152:	37 37       	jge	$-400    	;abs 0xffc2
     154:	3b 00       	.word	0x003b;	????
     156:	6c 6f       	addc.b	@r15,	r12	;
     158:	6e 67       	addc.b	@r7,	r14	;
     15a:	20 6c       	addc	@r12,	r0	;
     15c:	6f 6e       	addc.b	@r14,	r15	;
     15e:	67 20       	jnz	$+208    	;abs 0x22e
     160:	69 6e       	addc.b	@r14,	r9	;
     162:	74 3a       	jl	$-790    	;abs 0xfe4c
     164:	74 28       	jnc	$+234    	;abs 0x24e
     166:	30 2c       	jc	$+98     	;abs 0x1c8
     168:	36 29       	jnc	$+622    	;abs 0x3d6
     16a:	3d 40 73 36 	mov	#13939,	r13	;#0x3673
     16e:	34 3b       	jl	$-406    	;abs 0xffd8
     170:	72 28       	jnc	$+230    	;abs 0x256
     172:	30 2c       	jc	$+98     	;abs 0x1d4
     174:	36 29       	jnc	$+622    	;abs 0x3e2
     176:	3b 30       	jn	$+120    	;abs 0x1ee
     178:	31 30       	jn	$+100    	;abs 0x1dc
     17a:	30 30       	jn	$+98     	;abs 0x1dc
     17c:	30 30       	jn	$+98     	;abs 0x1de
     17e:	30 30       	jn	$+98     	;abs 0x1e0
     180:	30 30       	jn	$+98     	;abs 0x1e2
     182:	30 30       	jn	$+98     	;abs 0x1e4
     184:	30 30       	jn	$+98     	;abs 0x1e6
     186:	30 30       	jn	$+98     	;abs 0x1e8
     188:	30 30       	jn	$+98     	;abs 0x1ea
     18a:	30 30       	jn	$+98     	;abs 0x1ec
     18c:	30 30       	jn	$+98     	;abs 0x1ee
     18e:	3b 30       	jn	$+120    	;abs 0x206
     190:	37 37       	jge	$-400    	;abs 0x0
     192:	37 37       	jge	$-400    	;abs 0x2
     194:	37 37       	jge	$-400    	;abs 0x4
     196:	37 37       	jge	$-400    	;abs 0x6
     198:	37 37       	jge	$-400    	;abs 0x8
     19a:	37 37       	jge	$-400    	;abs 0xa
     19c:	37 37       	jge	$-400    	;abs 0xc
     19e:	37 37       	jge	$-400    	;abs 0xe
     1a0:	37 37       	jge	$-400    	;abs 0x10
     1a2:	37 37       	jge	$-400    	;abs 0x12
     1a4:	37 3b       	jl	$-400    	;abs 0x14
     1a6:	00 6c       	addc	r12,	r0	;
     1a8:	6f 6e       	addc.b	@r14,	r15	;
     1aa:	67 20       	jnz	$+208    	;abs 0x27a
     1ac:	6c 6f       	addc.b	@r15,	r12	;
     1ae:	6e 67       	addc.b	@r7,	r14	;
     1b0:	20 75       	subc	@r5,	r0	;
     1b2:	6e 73       	subc.b	#2,	r14	;r3 As==10
     1b4:	69 67       	addc.b	@r7,	r9	;
     1b6:	6e 65       	addc.b	@r5,	r14	;
     1b8:	64 20       	jnz	$+202    	;abs 0x282
     1ba:	69 6e       	addc.b	@r14,	r9	;
     1bc:	74 3a       	jl	$-790    	;abs 0xfea6
     1be:	74 28       	jnc	$+234    	;abs 0x2a8
     1c0:	30 2c       	jc	$+98     	;abs 0x222
     1c2:	37 29       	jnc	$+624    	;abs 0x432
     1c4:	3d 40 73 36 	mov	#13939,	r13	;#0x3673
     1c8:	34 3b       	jl	$-406    	;abs 0x32
     1ca:	72 28       	jnc	$+230    	;abs 0x2b0
     1cc:	30 2c       	jc	$+98     	;abs 0x22e
     1ce:	37 29       	jnc	$+624    	;abs 0x43e
     1d0:	3b 30       	jn	$+120    	;abs 0x248
     1d2:	30 30       	jn	$+98     	;abs 0x234
     1d4:	30 30       	jn	$+98     	;abs 0x236
     1d6:	30 30       	jn	$+98     	;abs 0x238
     1d8:	30 30       	jn	$+98     	;abs 0x23a
     1da:	30 30       	jn	$+98     	;abs 0x23c
     1dc:	30 30       	jn	$+98     	;abs 0x23e
     1de:	3b 30       	jn	$+120    	;abs 0x256
     1e0:	31 37       	jge	$-412    	;abs 0x44
     1e2:	37 37       	jge	$-400    	;abs 0x52
     1e4:	37 37       	jge	$-400    	;abs 0x54
     1e6:	37 37       	jge	$-400    	;abs 0x56
     1e8:	37 37       	jge	$-400    	;abs 0x58
     1ea:	37 37       	jge	$-400    	;abs 0x5a
     1ec:	37 37       	jge	$-400    	;abs 0x5c
     1ee:	37 37       	jge	$-400    	;abs 0x5e
     1f0:	37 37       	jge	$-400    	;abs 0x60
     1f2:	37 37       	jge	$-400    	;abs 0x62
     1f4:	37 37       	jge	$-400    	;abs 0x64
     1f6:	3b 00       	.word	0x003b;	????
     1f8:	73 68       	.word	0x6873;	????
     1fa:	6f 72       	subc.b	#4,	r15	;r2 As==10
     1fc:	74 20       	jnz	$+234    	;abs 0x2e6
     1fe:	69 6e       	addc.b	@r14,	r9	;
     200:	74 3a       	jl	$-790    	;abs 0xfeea
     202:	74 28       	jnc	$+234    	;abs 0x2ec
     204:	30 2c       	jc	$+98     	;abs 0x266
     206:	38 29       	jnc	$+626    	;abs 0x478
     208:	3d 72       	subc	#8,	r13	;r2 As==11
     20a:	28 30       	jn	$+82     	;abs 0x25c
     20c:	2c 38       	jl	$+90     	;abs 0x266
     20e:	29 3b       	jl	$-428    	;abs 0x62
     210:	2d 33       	jn	$-420    	;abs 0x6c
     212:	32 37       	jge	$-410    	;abs 0x78
     214:	36 38       	jl	$+110    	;abs 0x282
     216:	3b 33       	jn	$-392    	;abs 0x8e
     218:	32 37       	jge	$-410    	;abs 0x7e
     21a:	36 37       	jge	$-402    	;abs 0x88
     21c:	3b 00       	.word	0x003b;	????
     21e:	73 68       	.word	0x6873;	????
     220:	6f 72       	subc.b	#4,	r15	;r2 As==10
     222:	74 20       	jnz	$+234    	;abs 0x30c
     224:	75 6e       	addc.b	@r14+,	r5	;
     226:	73 69       	.word	0x6973;	????
     228:	67 6e       	addc.b	@r14,	r7	;
     22a:	65 64       	addc.b	@r4,	r5	;
     22c:	20 69       	addc	@r9,	r0	;
     22e:	6e 74       	subc.b	@r4,	r14	;
     230:	3a 74       	subc	@r4+,	r10	;
     232:	28 30       	jn	$+82     	;abs 0x284
     234:	2c 39       	jl	$+602    	;abs 0x48e
     236:	29 3d       	jmp	$+596    	;abs 0x48a
     238:	72 28       	jnc	$+230    	;abs 0x31e
     23a:	30 2c       	jc	$+98     	;abs 0x29c
     23c:	39 29       	jnc	$+628    	;abs 0x4b0
     23e:	3b 30       	jn	$+120    	;abs 0x2b6
     240:	30 30       	jn	$+98     	;abs 0x2a2
     242:	30 30       	jn	$+98     	;abs 0x2a4
     244:	30 30       	jn	$+98     	;abs 0x2a6
     246:	30 30       	jn	$+98     	;abs 0x2a8
     248:	30 30       	jn	$+98     	;abs 0x2aa
     24a:	30 30       	jn	$+98     	;abs 0x2ac
     24c:	3b 30       	jn	$+120    	;abs 0x2c4
     24e:	30 30       	jn	$+98     	;abs 0x2b0
     250:	30 30       	jn	$+98     	;abs 0x2b2
     252:	30 30       	jn	$+98     	;abs 0x2b4
     254:	31 37       	jge	$-412    	;abs 0xb8
     256:	37 37       	jge	$-400    	;abs 0xc6
     258:	37 37       	jge	$-400    	;abs 0xc8
     25a:	3b 00       	.word	0x003b;	????
     25c:	73 69       	.word	0x6973;	????
     25e:	67 6e       	addc.b	@r14,	r7	;
     260:	65 64       	addc.b	@r4,	r5	;
     262:	20 63       	addc	#2,	r0	;r3 As==10
     264:	68 61       	addc.b	@r1,	r8	;
     266:	72 3a       	jl	$-794    	;abs 0xff4c
     268:	74 28       	jnc	$+234    	;abs 0x352
     26a:	30 2c       	jc	$+98     	;abs 0x2cc
     26c:	31 30       	jn	$+100    	;abs 0x2d0
     26e:	29 3d       	jmp	$+596    	;abs 0x4c2
     270:	40 73       	sbc.b	r0		;
     272:	38 3b       	jl	$-398    	;abs 0xe4
     274:	72 28       	jnc	$+230    	;abs 0x35a
     276:	30 2c       	jc	$+98     	;abs 0x2d8
     278:	31 30       	jn	$+100    	;abs 0x2dc
     27a:	29 3b       	jl	$-428    	;abs 0xce
     27c:	2d 31       	jn	$+604    	;abs 0x4d8
     27e:	32 38       	jl	$+102    	;abs 0x2e4
     280:	3b 31       	jn	$+632    	;abs 0x4f8
     282:	32 37       	jge	$-410    	;abs 0xe8
     284:	3b 00       	.word	0x003b;	????
     286:	75 6e       	addc.b	@r14+,	r5	;
     288:	73 69       	.word	0x6973;	????
     28a:	67 6e       	addc.b	@r14,	r7	;
     28c:	65 64       	addc.b	@r4,	r5	;
     28e:	20 63       	addc	#2,	r0	;r3 As==10
     290:	68 61       	addc.b	@r1,	r8	;
     292:	72 3a       	jl	$-794    	;abs 0xff78
     294:	74 28       	jnc	$+234    	;abs 0x37e
     296:	30 2c       	jc	$+98     	;abs 0x2f8
     298:	31 31       	jn	$+612    	;abs 0x4fc
     29a:	29 3d       	jmp	$+596    	;abs 0x4ee
     29c:	40 73       	sbc.b	r0		;
     29e:	38 3b       	jl	$-398    	;abs 0x110
     2a0:	72 28       	jnc	$+230    	;abs 0x386
     2a2:	30 2c       	jc	$+98     	;abs 0x304
     2a4:	31 31       	jn	$+612    	;abs 0x508
     2a6:	29 3b       	jl	$-428    	;abs 0xfa
     2a8:	30 3b       	jl	$-414    	;abs 0x10a
     2aa:	32 35       	jge	$+614    	;abs 0x510
     2ac:	35 3b       	jl	$-404    	;abs 0x118
     2ae:	00 66       	addc	r6,	r0	;
     2b0:	6c 6f       	addc.b	@r15,	r12	;
     2b2:	61 74       	subc.b	@r4,	r1	;
     2b4:	3a 74       	subc	@r4+,	r10	;
     2b6:	28 30       	jn	$+82     	;abs 0x308
     2b8:	2c 31       	jn	$+602    	;abs 0x512
     2ba:	32 29       	jnc	$+614    	;abs 0x520
     2bc:	3d 72       	subc	#8,	r13	;r2 As==11
     2be:	28 30       	jn	$+82     	;abs 0x310
     2c0:	2c 31       	jn	$+602    	;abs 0x51a
     2c2:	29 3b       	jl	$-428    	;abs 0x116
     2c4:	34 3b       	jl	$-406    	;abs 0x12e
     2c6:	30 3b       	jl	$-414    	;abs 0x128
     2c8:	00 64       	addc	r4,	r0	;
     2ca:	6f 75       	subc.b	@r5,	r15	;
     2cc:	62 6c       	addc.b	@r12,	r2	;
     2ce:	65 3a       	jl	$-820    	;abs 0xff9a
     2d0:	74 28       	jnc	$+234    	;abs 0x3ba
     2d2:	30 2c       	jc	$+98     	;abs 0x334
     2d4:	31 33       	jn	$-412    	;abs 0x138
     2d6:	29 3d       	jmp	$+596    	;abs 0x52a
     2d8:	72 28       	jnc	$+230    	;abs 0x3be
     2da:	30 2c       	jc	$+98     	;abs 0x33c
     2dc:	31 29       	jnc	$+612    	;abs 0x540
     2de:	3b 34       	jge	$+120    	;abs 0x356
     2e0:	3b 30       	jn	$+120    	;abs 0x358
     2e2:	3b 00       	.word	0x003b;	????
     2e4:	6c 6f       	addc.b	@r15,	r12	;
     2e6:	6e 67       	addc.b	@r7,	r14	;
     2e8:	20 64       	addc	@r4,	r0	;
     2ea:	6f 75       	subc.b	@r5,	r15	;
     2ec:	62 6c       	addc.b	@r12,	r2	;
     2ee:	65 3a       	jl	$-820    	;abs 0xffba
     2f0:	74 28       	jnc	$+234    	;abs 0x3da
     2f2:	30 2c       	jc	$+98     	;abs 0x354
     2f4:	31 34       	jge	$+100    	;abs 0x358
     2f6:	29 3d       	jmp	$+596    	;abs 0x54a
     2f8:	72 28       	jnc	$+230    	;abs 0x3de
     2fa:	30 2c       	jc	$+98     	;abs 0x35c
     2fc:	31 29       	jnc	$+612    	;abs 0x560
     2fe:	3b 34       	jge	$+120    	;abs 0x376
     300:	3b 30       	jn	$+120    	;abs 0x378
     302:	3b 00       	.word	0x003b;	????
     304:	63 6f       	.word	0x6f63;	????
     306:	6d 70       	subc.b	@r0,	r13	;
     308:	6c 65       	addc.b	@r5,	r12	;
     30a:	78 20       	jnz	$+242    	;abs 0x3fc
     30c:	69 6e       	addc.b	@r14,	r9	;
     30e:	74 3a       	jl	$-790    	;abs 0xfff8
     310:	74 28       	jnc	$+234    	;abs 0x3fa
     312:	30 2c       	jc	$+98     	;abs 0x374
     314:	31 35       	jge	$+612    	;abs 0x578
     316:	29 3d       	jmp	$+596    	;abs 0x56a
     318:	73 34       	jge	$+232    	;abs 0x400
     31a:	72 65       	addc.b	@r5+,	r2	;
     31c:	61 6c       	addc.b	@r12,	r1	;
     31e:	3a 28       	jnc	$+118    	;abs 0x394
     320:	30 2c       	jc	$+98     	;abs 0x382
     322:	31 29       	jnc	$+612    	;abs 0x586
     324:	2c 30       	jn	$+90     	;abs 0x37e
     326:	2c 31       	jn	$+602    	;abs 0x580
     328:	36 3b       	jl	$-402    	;abs 0x196
     32a:	69 6d       	addc.b	@r13,	r9	;
     32c:	61 67       	addc.b	@r7,	r1	;
     32e:	3a 28       	jnc	$+118    	;abs 0x3a4
     330:	30 2c       	jc	$+98     	;abs 0x392
     332:	31 29       	jnc	$+612    	;abs 0x596
     334:	2c 31       	jn	$+602    	;abs 0x58e
     336:	36 2c       	jc	$+110    	;abs 0x3a4
     338:	31 36       	jge	$-924    	;abs 0xff9c
     33a:	3b 3b       	jl	$-392    	;abs 0x1b2
     33c:	00 63       	adc	r0		;
     33e:	6f 6d       	addc.b	@r13,	r15	;
     340:	70 6c       	addc.b	@r12+,	r0	;
     342:	65 78       	subc.b	@r8,	r5	;
     344:	20 66       	addc	@r6,	r0	;
     346:	6c 6f       	addc.b	@r15,	r12	;
     348:	61 74       	subc.b	@r4,	r1	;
     34a:	3a 74       	subc	@r4+,	r10	;
     34c:	28 30       	jn	$+82     	;abs 0x39e
     34e:	2c 31       	jn	$+602    	;abs 0x5a8
     350:	36 29       	jnc	$+622    	;abs 0x5be
     352:	3d 52       	add	#8,	r13	;r2 As==11
     354:	33 3b       	jl	$-408    	;abs 0x1bc
     356:	38 3b       	jl	$-398    	;abs 0x1c8
     358:	30 3b       	jl	$-414    	;abs 0x1ba
     35a:	00 63       	adc	r0		;
     35c:	6f 6d       	addc.b	@r13,	r15	;
     35e:	70 6c       	addc.b	@r12+,	r0	;
     360:	65 78       	subc.b	@r8,	r5	;
     362:	20 64       	addc	@r4,	r0	;
     364:	6f 75       	subc.b	@r5,	r15	;
     366:	62 6c       	addc.b	@r12,	r2	;
     368:	65 3a       	jl	$-820    	;abs 0x34
     36a:	74 28       	jnc	$+234    	;abs 0x454
     36c:	30 2c       	jc	$+98     	;abs 0x3ce
     36e:	31 37       	jge	$-412    	;abs 0x1d2
     370:	29 3d       	jmp	$+596    	;abs 0x5c4
     372:	52 33       	jn	$-346    	;abs 0x218
     374:	3b 38       	jl	$+120    	;abs 0x3ec
     376:	3b 30       	jn	$+120    	;abs 0x3ee
     378:	3b 00       	.word	0x003b;	????
     37a:	63 6f       	.word	0x6f63;	????
     37c:	6d 70       	subc.b	@r0,	r13	;
     37e:	6c 65       	addc.b	@r5,	r12	;
     380:	78 20       	jnz	$+242    	;abs 0x472
     382:	6c 6f       	addc.b	@r15,	r12	;
     384:	6e 67       	addc.b	@r7,	r14	;
     386:	20 64       	addc	@r4,	r0	;
     388:	6f 75       	subc.b	@r5,	r15	;
     38a:	62 6c       	addc.b	@r12,	r2	;
     38c:	65 3a       	jl	$-820    	;abs 0x58
     38e:	74 28       	jnc	$+234    	;abs 0x478
     390:	30 2c       	jc	$+98     	;abs 0x3f2
     392:	31 38       	jl	$+100    	;abs 0x3f6
     394:	29 3d       	jmp	$+596    	;abs 0x5e8
     396:	52 33       	jn	$-346    	;abs 0x23c
     398:	3b 38       	jl	$+120    	;abs 0x410
     39a:	3b 30       	jn	$+120    	;abs 0x412
     39c:	3b 00       	.word	0x003b;	????
     39e:	5f 5f 62 75 	add.b	30050(r15),r15	;
     3a2:	69 6c       	addc.b	@r12,	r9	;
     3a4:	74 69       	addc.b	@r9+,	r4	;
     3a6:	6e 5f       	add.b	@r15,	r14	;
     3a8:	76 61       	addc.b	@r1+,	r6	;
     3aa:	5f 6c 69 73 	addc.b	29545(r12),r15	;
     3ae:	74 3a       	jl	$-790    	;abs 0x98
     3b0:	74 28       	jnc	$+234    	;abs 0x49a
     3b2:	30 2c       	jc	$+98     	;abs 0x414
     3b4:	31 39       	jl	$+612    	;abs 0x618
     3b6:	29 3d       	jmp	$+596    	;abs 0x60a
     3b8:	2a 28       	jnc	$+86     	;abs 0x40e
     3ba:	30 2c       	jc	$+98     	;abs 0x41c
     3bc:	32 30       	jn	$+102    	;abs 0x422
     3be:	29 3d       	jmp	$+596    	;abs 0x612
     3c0:	28 30       	jn	$+82     	;abs 0x412
     3c2:	2c 32       	jn	$-934    	;abs 0x1c
     3c4:	30 29       	jnc	$+610    	;abs 0x626
     3c6:	00 5f       	add	r15,	r0	;
     3c8:	42 6f       	addc.b	r15,	r2	;
     3ca:	6f 6c       	addc.b	@r12,	r15	;
     3cc:	3a 74       	subc	@r4+,	r10	;
     3ce:	28 30       	jn	$+82     	;abs 0x420
     3d0:	2c 32       	jn	$-934    	;abs 0x2a
     3d2:	31 29       	jnc	$+612    	;abs 0x636
     3d4:	3d 40 73 38 	mov	#14451,	r13	;#0x3873
     3d8:	3b 2d       	jc	$+632    	;abs 0x650
     3da:	31 36       	jge	$-924    	;abs 0x3e
     3dc:	3b 00       	.word	0x003b;	????
     3de:	63 3a       	jl	$-824    	;abs 0xa6
     3e0:	2f 6d       	addc	@r13,	r15	;
     3e2:	73 70       	.word	0x7073;	????
     3e4:	67 63       	addc.b	#2,	r7	;r3 As==10
     3e6:	63 2f       	jc	$-312    	;abs 0x2ae
     3e8:	6d 73       	subc.b	#2,	r13	;r3 As==10
     3ea:	70 34       	jge	$+226    	;abs 0x4cc
     3ec:	33 30       	jn	$+104    	;abs 0x454
     3ee:	2f 69       	addc	@r9,	r15	;
     3f0:	6e 63       	addc.b	#2,	r14	;r3 As==10
     3f2:	6c 75       	subc.b	@r5,	r12	;
     3f4:	64 65       	addc.b	@r5,	r4	;
     3f6:	2f 6d       	addc	@r13,	r15	;
     3f8:	73 70       	.word	0x7073;	????
     3fa:	34 33       	jn	$-406    	;abs 0x264
     3fc:	30 78       	subc	@r8+,	r0	;
     3fe:	32 30       	jn	$+102    	;abs 0x464
     400:	78 33       	jn	$-270    	;abs 0x2f2
     402:	2e 68       	addc	@r8,	r14	;
     404:	00 63       	adc	r0		;
     406:	3a 2f       	jc	$-394    	;abs 0x27c
     408:	6d 73       	subc.b	#2,	r13	;r3 As==10
     40a:	70 67       	addc.b	@r7+,	r0	;
     40c:	63 63       	.word	0x6363;	????
     40e:	2f 6d       	addc	@r13,	r15	;
     410:	73 70       	.word	0x7073;	????
     412:	34 33       	jn	$-406    	;abs 0x27c
     414:	30 2f       	jc	$-414    	;abs 0x276
     416:	69 6e       	addc.b	@r14,	r9	;
     418:	63 6c       	.word	0x6c63;	????
     41a:	75 64       	addc.b	@r4+,	r5	;
     41c:	65 2f       	jc	$-308    	;abs 0x2e8
     41e:	69 6f       	addc.b	@r15,	r9	;
     420:	6d 61       	addc.b	@r1,	r13	;
     422:	63 72       	.word	0x7263;	????
     424:	6f 73       	subc.b	#2,	r15	;r3 As==10
     426:	2e 68       	addc	@r8,	r14	;
     428:	00 63       	adc	r0		;
     42a:	3a 2f       	jc	$-394    	;abs 0x2a0
     42c:	6d 73       	subc.b	#2,	r13	;r3 As==10
     42e:	70 67       	addc.b	@r7+,	r0	;
     430:	63 63       	.word	0x6363;	????
     432:	2f 6d       	addc	@r13,	r15	;
     434:	73 70       	.word	0x7073;	????
     436:	34 33       	jn	$-406    	;abs 0x2a0
     438:	30 2f       	jc	$-414    	;abs 0x29a
     43a:	69 6e       	addc.b	@r14,	r9	;
     43c:	63 6c       	.word	0x6c63;	????
     43e:	75 64       	addc.b	@r4+,	r5	;
     440:	65 2f       	jc	$-308    	;abs 0x30c
     442:	73 79       	.word	0x7973;	????
     444:	73 2f       	jc	$-280    	;abs 0x32c
     446:	69 6e       	addc.b	@r14,	r9	;
     448:	74 74       	subc.b	@r4+,	r4	;
     44a:	79 70 65 73 	subc.b	#29541,	r9	;#0x7365
     44e:	2e 68       	addc	@r8,	r14	;
     450:	00 69       	addc	r9,	r0	;
     452:	6e 74       	subc.b	@r4,	r14	;
     454:	38 5f       	add	@r15+,	r8	;
     456:	74 3a       	jl	$-790    	;abs 0x140
     458:	74 28       	jnc	$+234    	;abs 0x542
     45a:	34 2c       	jc	$+106    	;abs 0x4c4
     45c:	31 29       	jnc	$+612    	;abs 0x6c0
     45e:	3d 28       	jnc	$+124    	;abs 0x4da
     460:	30 2c       	jc	$+98     	;abs 0x4c2
     462:	31 30       	jn	$+100    	;abs 0x4c6
     464:	29 00       	.word	0x0029;	????
     466:	75 69       	addc.b	@r9+,	r5	;
     468:	6e 74       	subc.b	@r4,	r14	;
     46a:	38 5f       	add	@r15+,	r8	;
     46c:	74 3a       	jl	$-790    	;abs 0x156
     46e:	74 28       	jnc	$+234    	;abs 0x558
     470:	34 2c       	jc	$+106    	;abs 0x4da
     472:	32 29       	jnc	$+614    	;abs 0x6d8
     474:	3d 28       	jnc	$+124    	;abs 0x4f0
     476:	30 2c       	jc	$+98     	;abs 0x4d8
     478:	31 31       	jn	$+612    	;abs 0x6dc
     47a:	29 00       	.word	0x0029;	????
     47c:	69 6e       	addc.b	@r14,	r9	;
     47e:	74 31       	jn	$+746    	;abs 0x768
     480:	36 5f       	add	@r15+,	r6	;
     482:	74 3a       	jl	$-790    	;abs 0x16c
     484:	74 28       	jnc	$+234    	;abs 0x56e
     486:	34 2c       	jc	$+106    	;abs 0x4f0
     488:	33 29       	jnc	$+616    	;abs 0x6f0
     48a:	3d 28       	jnc	$+124    	;abs 0x506
     48c:	30 2c       	jc	$+98     	;abs 0x4ee
     48e:	31 29       	jnc	$+612    	;abs 0x6f2
     490:	00 75       	subc	r5,	r0	;
     492:	69 6e       	addc.b	@r14,	r9	;
     494:	74 31       	jn	$+746    	;abs 0x77e
     496:	36 5f       	add	@r15+,	r6	;
     498:	74 3a       	jl	$-790    	;abs 0x182
     49a:	74 28       	jnc	$+234    	;abs 0x584
     49c:	34 2c       	jc	$+106    	;abs 0x506
     49e:	34 29       	jnc	$+618    	;abs 0x708
     4a0:	3d 28       	jnc	$+124    	;abs 0x51c
     4a2:	30 2c       	jc	$+98     	;abs 0x504
     4a4:	34 29       	jnc	$+618    	;abs 0x70e
     4a6:	00 69       	addc	r9,	r0	;
     4a8:	6e 74       	subc.b	@r4,	r14	;
     4aa:	33 32       	jn	$-920    	;abs 0x112
     4ac:	5f 74 3a 74 	subc.b	29754(r4),r15	;
     4b0:	28 34       	jge	$+82     	;abs 0x502
     4b2:	2c 35       	jge	$+602    	;abs 0x70c
     4b4:	29 3d       	jmp	$+596    	;abs 0x708
     4b6:	28 30       	jn	$+82     	;abs 0x508
     4b8:	2c 33       	jn	$-422    	;abs 0x312
     4ba:	29 00       	.word	0x0029;	????
     4bc:	75 69       	addc.b	@r9+,	r5	;
     4be:	6e 74       	subc.b	@r4,	r14	;
     4c0:	33 32       	jn	$-920    	;abs 0x128
     4c2:	5f 74 3a 74 	subc.b	29754(r4),r15	;
     4c6:	28 34       	jge	$+82     	;abs 0x518
     4c8:	2c 36       	jge	$-934    	;abs 0x122
     4ca:	29 3d       	jmp	$+596    	;abs 0x71e
     4cc:	28 30       	jn	$+82     	;abs 0x51e
     4ce:	2c 35       	jge	$+602    	;abs 0x728
     4d0:	29 00       	.word	0x0029;	????
     4d2:	69 6e       	addc.b	@r14,	r9	;
     4d4:	74 36       	jge	$-790    	;abs 0x1be
     4d6:	34 5f       	add	@r15+,	r4	;
     4d8:	74 3a       	jl	$-790    	;abs 0x1c2
     4da:	74 28       	jnc	$+234    	;abs 0x5c4
     4dc:	34 2c       	jc	$+106    	;abs 0x546
     4de:	37 29       	jnc	$+624    	;abs 0x74e
     4e0:	3d 28       	jnc	$+124    	;abs 0x55c
     4e2:	30 2c       	jc	$+98     	;abs 0x544
     4e4:	36 29       	jnc	$+622    	;abs 0x752
     4e6:	00 75       	subc	r5,	r0	;
     4e8:	69 6e       	addc.b	@r14,	r9	;
     4ea:	74 36       	jge	$-790    	;abs 0x1d4
     4ec:	34 5f       	add	@r15+,	r4	;
     4ee:	74 3a       	jl	$-790    	;abs 0x1d8
     4f0:	74 28       	jnc	$+234    	;abs 0x5da
     4f2:	34 2c       	jc	$+106    	;abs 0x55c
     4f4:	38 29       	jnc	$+626    	;abs 0x766
     4f6:	3d 28       	jnc	$+124    	;abs 0x572
     4f8:	30 2c       	jc	$+98     	;abs 0x55a
     4fa:	37 29       	jnc	$+624    	;abs 0x76a
     4fc:	00 69       	addc	r9,	r0	;
     4fe:	6e 74       	subc.b	@r4,	r14	;
     500:	70 74       	subc.b	@r4+,	r0	;
     502:	72 5f       	add.b	@r15+,	r2	;
     504:	74 3a       	jl	$-790    	;abs 0x1ee
     506:	74 28       	jnc	$+234    	;abs 0x5f0
     508:	34 2c       	jc	$+106    	;abs 0x572
     50a:	39 29       	jnc	$+628    	;abs 0x77e
     50c:	3d 28       	jnc	$+124    	;abs 0x588
     50e:	34 2c       	jc	$+106    	;abs 0x578
     510:	33 29       	jnc	$+616    	;abs 0x778
     512:	00 75       	subc	r5,	r0	;
     514:	69 6e       	addc.b	@r14,	r9	;
     516:	74 70 74 72 	subc.b	#29300,	r4	;#0x7274
     51a:	5f 74 3a 74 	subc.b	29754(r4),r15	;
     51e:	28 34       	jge	$+82     	;abs 0x570
     520:	2c 31       	jn	$+602    	;abs 0x77a
     522:	30 29       	jnc	$+610    	;abs 0x784
     524:	3d 28       	jnc	$+124    	;abs 0x5a0
     526:	34 2c       	jc	$+106    	;abs 0x590
     528:	34 29       	jnc	$+618    	;abs 0x792
     52a:	00 63       	adc	r0		;
     52c:	3a 2f       	jc	$-394    	;abs 0x3a2
     52e:	6d 73       	subc.b	#2,	r13	;r3 As==10
     530:	70 67       	addc.b	@r7+,	r0	;
     532:	63 63       	.word	0x6363;	????
     534:	2f 6d       	addc	@r13,	r15	;
     536:	73 70       	.word	0x7073;	????
     538:	34 33       	jn	$-406    	;abs 0x3a2
     53a:	30 2f       	jc	$-414    	;abs 0x39c
     53c:	69 6e       	addc.b	@r14,	r9	;
     53e:	63 6c       	.word	0x6c63;	????
     540:	75 64       	addc.b	@r4+,	r5	;
     542:	65 2f       	jc	$-308    	;abs 0x40e
     544:	6d 73       	subc.b	#2,	r13	;r3 As==10
     546:	70 34       	jge	$+226    	;abs 0x628
     548:	33 30       	jn	$+104    	;abs 0x5b0
     54a:	2f 62       	addc	#4,	r15	;r2 As==10
     54c:	61 73       	subc.b	#2,	r1	;r3 As==10
     54e:	69 63       	addc.b	#2,	r9	;r3 As==10
     550:	5f 63       	addc.b	#1,	r15	;r3 As==01
     552:	6c 6f       	addc.b	@r15,	r12	;
     554:	63 6b       	.word	0x6b63;	????
     556:	2e 68       	addc	@r8,	r14	;
     558:	00 63       	adc	r0		;
     55a:	3a 2f       	jc	$-394    	;abs 0x3d0
     55c:	6d 73       	subc.b	#2,	r13	;r3 As==10
     55e:	70 67       	addc.b	@r7+,	r0	;
     560:	63 63       	.word	0x6363;	????
     562:	2f 6d       	addc	@r13,	r15	;
     564:	73 70       	.word	0x7073;	????
     566:	34 33       	jn	$-406    	;abs 0x3d0
     568:	30 2f       	jc	$-414    	;abs 0x3ca
     56a:	69 6e       	addc.b	@r14,	r9	;
     56c:	63 6c       	.word	0x6c63;	????
     56e:	75 64       	addc.b	@r4+,	r5	;
     570:	65 2f       	jc	$-308    	;abs 0x43c
     572:	6d 73       	subc.b	#2,	r13	;r3 As==10
     574:	70 34       	jge	$+226    	;abs 0x656
     576:	33 30       	jn	$+104    	;abs 0x5de
     578:	2f 66       	addc	@r6,	r15	;
     57a:	6c 61       	addc.b	@r1,	r12	;
     57c:	73 68       	.word	0x6873;	????
     57e:	2e 68       	addc	@r8,	r14	;
     580:	00 63       	adc	r0		;
     582:	3a 2f       	jc	$-394    	;abs 0x3f8
     584:	6d 73       	subc.b	#2,	r13	;r3 As==10
     586:	70 67       	addc.b	@r7+,	r0	;
     588:	63 63       	.word	0x6363;	????
     58a:	2f 6d       	addc	@r13,	r15	;
     58c:	73 70       	.word	0x7073;	????
     58e:	34 33       	jn	$-406    	;abs 0x3f8
     590:	30 2f       	jc	$-414    	;abs 0x3f2
     592:	69 6e       	addc.b	@r14,	r9	;
     594:	63 6c       	.word	0x6c63;	????
     596:	75 64       	addc.b	@r4+,	r5	;
     598:	65 2f       	jc	$-308    	;abs 0x464
     59a:	6d 73       	subc.b	#2,	r13	;r3 As==10
     59c:	70 34       	jge	$+226    	;abs 0x67e
     59e:	33 30       	jn	$+104    	;abs 0x606
     5a0:	2f 65       	addc	@r5,	r15	;
     5a2:	70 72       	subc.b	#8,	r0	;r2 As==11
     5a4:	6f 6d       	addc.b	@r13,	r15	;
     5a6:	2e 68       	addc	@r8,	r14	;
     5a8:	00 63       	adc	r0		;
     5aa:	3a 2f       	jc	$-394    	;abs 0x420
     5ac:	6d 73       	subc.b	#2,	r13	;r3 As==10
     5ae:	70 67       	addc.b	@r7+,	r0	;
     5b0:	63 63       	.word	0x6363;	????
     5b2:	2f 6d       	addc	@r13,	r15	;
     5b4:	73 70       	.word	0x7073;	????
     5b6:	34 33       	jn	$-406    	;abs 0x420
     5b8:	30 2f       	jc	$-414    	;abs 0x41a
     5ba:	69 6e       	addc.b	@r14,	r9	;
     5bc:	63 6c       	.word	0x6c63;	????
     5be:	75 64       	addc.b	@r4+,	r5	;
     5c0:	65 2f       	jc	$-308    	;abs 0x48c
     5c2:	6d 73       	subc.b	#2,	r13	;r3 As==10
     5c4:	70 34       	jge	$+226    	;abs 0x6a6
     5c6:	33 30       	jn	$+104    	;abs 0x62e
     5c8:	2f 74       	subc	@r4,	r15	;
     5ca:	69 6d       	addc.b	@r13,	r9	;
     5cc:	65 72       	subc.b	#4,	r5	;r2 As==10
     5ce:	61 2e       	jc	$-828    	;abs 0x292
     5d0:	68 00       	.word	0x0068;	????
     5d2:	74 61       	addc.b	@r1+,	r4	;
     5d4:	63 74       	.word	0x7463;	????
     5d6:	6c 5f       	add.b	@r15,	r12	;
     5d8:	74 3a       	jl	$-790    	;abs 0x2c2
     5da:	74 28       	jnc	$+234    	;abs 0x6c4
     5dc:	38 2c       	jc	$+114    	;abs 0x64e
     5de:	31 29       	jnc	$+612    	;abs 0x842
     5e0:	3d 28       	jnc	$+124    	;abs 0x65c
     5e2:	38 2c       	jc	$+114    	;abs 0x654
     5e4:	32 29       	jnc	$+614    	;abs 0x84a
     5e6:	3d 73       	subc	#-1,	r13	;r3 As==11
     5e8:	32 74       	subc	@r4+,	r2	;
     5ea:	61 69       	addc.b	@r9,	r1	;
     5ec:	66 67       	addc.b	@r7,	r6	;
     5ee:	3a 28       	jnc	$+118    	;abs 0x664
     5f0:	30 2c       	jc	$+98     	;abs 0x652
     5f2:	34 29       	jnc	$+618    	;abs 0x85c
     5f4:	2c 30       	jn	$+90     	;abs 0x64e
     5f6:	2c 31       	jn	$+602    	;abs 0x850
     5f8:	3b 74       	subc	@r4+,	r11	;
     5fa:	61 69       	addc.b	@r9,	r1	;
     5fc:	65 3a       	jl	$-820    	;abs 0x2c8
     5fe:	28 30       	jn	$+82     	;abs 0x650
     600:	2c 34       	jge	$+90     	;abs 0x65a
     602:	29 2c       	jc	$+84     	;abs 0x656
     604:	31 2c       	jc	$+100    	;abs 0x668
     606:	31 3b       	jl	$-412    	;abs 0x46a
     608:	74 61       	addc.b	@r1+,	r4	;
     60a:	63 6c       	.word	0x6c63;	????
     60c:	72 3a       	jl	$-794    	;abs 0x2f2
     60e:	28 30       	jn	$+82     	;abs 0x660
     610:	2c 34       	jge	$+90     	;abs 0x66a
     612:	29 2c       	jc	$+84     	;abs 0x666
     614:	32 2c       	jc	$+102    	;abs 0x67a
     616:	31 3b       	jl	$-412    	;abs 0x47a
     618:	64 75       	subc.b	@r5,	r4	;
     61a:	6d 6d       	addc.b	@r13,	r13	;
     61c:	79 3a       	jl	$-780    	;abs 0x310
     61e:	28 30       	jn	$+82     	;abs 0x670
     620:	2c 34       	jge	$+90     	;abs 0x67a
     622:	29 2c       	jc	$+84     	;abs 0x676
     624:	33 2c       	jc	$+104    	;abs 0x68c
     626:	31 3b       	jl	$-412    	;abs 0x48a
     628:	74 61       	addc.b	@r1+,	r4	;
     62a:	6d 63       	addc.b	#2,	r13	;r3 As==10
     62c:	3a 28       	jnc	$+118    	;abs 0x6a2
     62e:	30 2c       	jc	$+98     	;abs 0x690
     630:	34 29       	jnc	$+618    	;abs 0x89a
     632:	2c 34       	jge	$+90     	;abs 0x68c
     634:	2c 32       	jn	$-934    	;abs 0x28e
     636:	3b 74       	subc	@r4+,	r11	;
     638:	61 69       	addc.b	@r9,	r1	;
     63a:	64 3a       	jl	$-822    	;abs 0x304
     63c:	28 30       	jn	$+82     	;abs 0x68e
     63e:	2c 34       	jge	$+90     	;abs 0x698
     640:	29 2c       	jc	$+84     	;abs 0x694
     642:	36 2c       	jc	$+110    	;abs 0x6b0
     644:	32 3b       	jl	$-410    	;abs 0x4aa
     646:	74 61       	addc.b	@r1+,	r4	;
     648:	73 73       	.word	0x7373;	????
     64a:	65 6c       	addc.b	@r12,	r5	;
     64c:	3a 28       	jnc	$+118    	;abs 0x6c2
     64e:	30 2c       	jc	$+98     	;abs 0x6b0
     650:	34 29       	jnc	$+618    	;abs 0x8ba
     652:	2c 38       	jl	$+90     	;abs 0x6ac
     654:	2c 32       	jn	$-934    	;abs 0x2ae
     656:	3b 3b       	jl	$-392    	;abs 0x4ce
     658:	00 74       	subc	r4,	r0	;
     65a:	61 63       	addc.b	#2,	r1	;r3 As==10
     65c:	63 74       	.word	0x7463;	????
     65e:	6c 5f       	add.b	@r15,	r12	;
     660:	74 3a       	jl	$-790    	;abs 0x34a
     662:	74 28       	jnc	$+234    	;abs 0x74c
     664:	38 2c       	jc	$+114    	;abs 0x6d6
     666:	33 29       	jnc	$+616    	;abs 0x8ce
     668:	3d 28       	jnc	$+124    	;abs 0x6e4
     66a:	38 2c       	jc	$+114    	;abs 0x6dc
     66c:	34 29       	jnc	$+618    	;abs 0x8d6
     66e:	3d 73       	subc	#-1,	r13	;r3 As==11
     670:	32 63       	addc	#-1,	r2	;r3 As==11
     672:	63 69       	.word	0x6963;	????
     674:	66 67       	addc.b	@r7,	r6	;
     676:	3a 28       	jnc	$+118    	;abs 0x6ec
     678:	30 2c       	jc	$+98     	;abs 0x6da
     67a:	34 29       	jnc	$+618    	;abs 0x8e4
     67c:	2c 30       	jn	$+90     	;abs 0x6d6
     67e:	2c 31       	jn	$+602    	;abs 0x8d8
     680:	3b 63       	addc	#-1,	r11	;r3 As==11
     682:	6f 76       	subc.b	@r6,	r15	;
     684:	3a 28       	jnc	$+118    	;abs 0x6fa
     686:	30 2c       	jc	$+98     	;abs 0x6e8
     688:	34 29       	jnc	$+618    	;abs 0x8f2
     68a:	2c 31       	jn	$+602    	;abs 0x8e4
     68c:	2c 31       	jn	$+602    	;abs 0x8e6
     68e:	3b 6f       	addc	@r15+,	r11	;
     690:	75 74       	subc.b	@r4+,	r5	;
     692:	3a 28       	jnc	$+118    	;abs 0x708
     694:	30 2c       	jc	$+98     	;abs 0x6f6
     696:	34 29       	jnc	$+618    	;abs 0x900
     698:	2c 32       	jn	$-934    	;abs 0x2f2
     69a:	2c 31       	jn	$+602    	;abs 0x8f4
     69c:	3b 63       	addc	#-1,	r11	;r3 As==11
     69e:	63 69       	.word	0x6963;	????
     6a0:	3a 28       	jnc	$+118    	;abs 0x716
     6a2:	30 2c       	jc	$+98     	;abs 0x704
     6a4:	34 29       	jnc	$+618    	;abs 0x90e
     6a6:	2c 33       	jn	$-422    	;abs 0x500
     6a8:	2c 31       	jn	$+602    	;abs 0x902
     6aa:	3b 63       	addc	#-1,	r11	;r3 As==11
     6ac:	63 69       	.word	0x6963;	????
     6ae:	65 3a       	jl	$-820    	;abs 0x37a
     6b0:	28 30       	jn	$+82     	;abs 0x702
     6b2:	2c 34       	jge	$+90     	;abs 0x70c
     6b4:	29 2c       	jc	$+84     	;abs 0x708
     6b6:	34 2c       	jc	$+106    	;abs 0x720
     6b8:	31 3b       	jl	$-412    	;abs 0x51c
     6ba:	6f 75       	subc.b	@r5,	r15	;
     6bc:	74 6d       	addc.b	@r13+,	r4	;
     6be:	6f 64       	addc.b	@r4,	r15	;
     6c0:	3a 28       	jnc	$+118    	;abs 0x736
     6c2:	30 2c       	jc	$+98     	;abs 0x724
     6c4:	34 29       	jnc	$+618    	;abs 0x92e
     6c6:	2c 35       	jge	$+602    	;abs 0x920
     6c8:	2c 33       	jn	$-422    	;abs 0x522
     6ca:	3b 63       	addc	#-1,	r11	;r3 As==11
     6cc:	61 70       	subc.b	@r0,	r1	;
     6ce:	3a 28       	jnc	$+118    	;abs 0x744
     6d0:	30 2c       	jc	$+98     	;abs 0x732
     6d2:	34 29       	jnc	$+618    	;abs 0x93c
     6d4:	2c 38       	jl	$+90     	;abs 0x72e
     6d6:	2c 31       	jn	$+602    	;abs 0x930
     6d8:	3b 64       	addc	@r4+,	r11	;
     6da:	75 6d       	addc.b	@r13+,	r5	;
     6dc:	6d 79       	subc.b	@r9,	r13	;
     6de:	3a 28       	jnc	$+118    	;abs 0x754
     6e0:	30 2c       	jc	$+98     	;abs 0x742
     6e2:	34 29       	jnc	$+618    	;abs 0x94c
     6e4:	2c 39       	jl	$+602    	;abs 0x93e
     6e6:	2c 31       	jn	$+602    	;abs 0x940
     6e8:	3b 73       	subc	#-1,	r11	;r3 As==11
     6ea:	63 63       	.word	0x6363;	????
     6ec:	69 3a       	jl	$-812    	;abs 0x3c0
     6ee:	28 30       	jn	$+82     	;abs 0x740
     6f0:	2c 34       	jge	$+90     	;abs 0x74a
     6f2:	29 2c       	jc	$+84     	;abs 0x746
     6f4:	31 30       	jn	$+100    	;abs 0x758
     6f6:	2c 31       	jn	$+602    	;abs 0x950
     6f8:	3b 73       	subc	#-1,	r11	;r3 As==11
     6fa:	63 73       	.word	0x7363;	????
     6fc:	3a 28       	jnc	$+118    	;abs 0x772
     6fe:	30 2c       	jc	$+98     	;abs 0x760
     700:	34 29       	jnc	$+618    	;abs 0x96a
     702:	2c 31       	jn	$+602    	;abs 0x95c
     704:	31 2c       	jc	$+100    	;abs 0x768
     706:	31 3b       	jl	$-412    	;abs 0x56a
     708:	63 63       	.word	0x6363;	????
     70a:	69 73       	subc.b	#2,	r9	;r3 As==10
     70c:	3a 28       	jnc	$+118    	;abs 0x782
     70e:	30 2c       	jc	$+98     	;abs 0x770
     710:	34 29       	jnc	$+618    	;abs 0x97a
     712:	2c 31       	jn	$+602    	;abs 0x96c
     714:	32 2c       	jc	$+102    	;abs 0x77a
     716:	32 3b       	jl	$-410    	;abs 0x57c
     718:	63 6d       	.word	0x6d63;	????
     71a:	3a 28       	jnc	$+118    	;abs 0x790
     71c:	30 2c       	jc	$+98     	;abs 0x77e
     71e:	34 29       	jnc	$+618    	;abs 0x988
     720:	2c 31       	jn	$+602    	;abs 0x97a
     722:	34 2c       	jc	$+106    	;abs 0x78c
     724:	32 3b       	jl	$-410    	;abs 0x58a
     726:	3b 00       	.word	0x003b;	????
     728:	74 69       	addc.b	@r9+,	r4	;
     72a:	6d 65       	addc.b	@r5,	r13	;
     72c:	72 61       	addc.b	@r1+,	r2	;
     72e:	5f 74 3a 54 	subc.b	21562(r4),r15	;
     732:	28 38       	jl	$+82     	;abs 0x784
     734:	2c 35       	jge	$+602    	;abs 0x98e
     736:	29 3d       	jmp	$+596    	;abs 0x98a
     738:	73 32       	jn	$-792    	;abs 0x420
     73a:	34 63       	addc	#-1,	r4	;r3 As==11
     73c:	74 6c       	addc.b	@r12+,	r4	;
     73e:	3a 28       	jnc	$+118    	;abs 0x7b4
     740:	38 2c       	jc	$+114    	;abs 0x7b2
     742:	31 29       	jnc	$+612    	;abs 0x9a6
     744:	2c 30       	jn	$+90     	;abs 0x79e
     746:	2c 31       	jn	$+602    	;abs 0x9a0
     748:	36 3b       	jl	$-402    	;abs 0x5b6
     74a:	63 63       	.word	0x6363;	????
     74c:	74 6c       	addc.b	@r12+,	r4	;
     74e:	30 3a       	jl	$-926    	;abs 0x3b0
     750:	28 38       	jl	$+82     	;abs 0x7a2
     752:	2c 33       	jn	$-422    	;abs 0x5ac
     754:	29 2c       	jc	$+84     	;abs 0x7a8
     756:	31 36       	jge	$-924    	;abs 0x3ba
     758:	2c 31       	jn	$+602    	;abs 0x9b2
     75a:	36 3b       	jl	$-402    	;abs 0x5c8
     75c:	63 63       	.word	0x6363;	????
     75e:	74 6c       	addc.b	@r12+,	r4	;
     760:	31 3a       	jl	$-924    	;abs 0x3c4
     762:	28 38       	jl	$+82     	;abs 0x7b4
     764:	2c 33       	jn	$-422    	;abs 0x5be
     766:	29 2c       	jc	$+84     	;abs 0x7ba
     768:	33 32       	jn	$-920    	;abs 0x3d0
     76a:	2c 31       	jn	$+602    	;abs 0x9c4
     76c:	36 3b       	jl	$-402    	;abs 0x5da
     76e:	63 63       	.word	0x6363;	????
     770:	74 6c       	addc.b	@r12+,	r4	;
     772:	32 3a       	jl	$-922    	;abs 0x3d8
     774:	28 38       	jl	$+82     	;abs 0x7c6
     776:	2c 33       	jn	$-422    	;abs 0x5d0
     778:	29 2c       	jc	$+84     	;abs 0x7cc
     77a:	34 38       	jl	$+106    	;abs 0x7e4
     77c:	2c 31       	jn	$+602    	;abs 0x9d6
     77e:	36 3b       	jl	$-402    	;abs 0x5ec
     780:	64 75       	subc.b	@r5,	r4	;
     782:	6d 6d       	addc.b	@r13,	r13	;
     784:	79 3a       	jl	$-780    	;abs 0x478
     786:	28 38       	jl	$+82     	;abs 0x7d8
     788:	2c 36       	jge	$-934    	;abs 0x3e2
     78a:	29 3d       	jmp	$+596    	;abs 0x9de
     78c:	61 72       	subc.b	#4,	r1	;r2 As==10
     78e:	28 38       	jl	$+82     	;abs 0x7e0
     790:	2c 37       	jge	$-422    	;abs 0x5ea
     792:	29 3d       	jmp	$+596    	;abs 0x9e6
     794:	72 28       	jnc	$+230    	;abs 0x87a
     796:	38 2c       	jc	$+114    	;abs 0x808
     798:	37 29       	jnc	$+624    	;abs 0xa08
     79a:	3b 30       	jn	$+120    	;abs 0x812
     79c:	30 30       	jn	$+98     	;abs 0x7fe
     79e:	30 30       	jn	$+98     	;abs 0x800
     7a0:	30 30       	jn	$+98     	;abs 0x802
     7a2:	30 30       	jn	$+98     	;abs 0x804
     7a4:	30 30       	jn	$+98     	;abs 0x806
     7a6:	30 30       	jn	$+98     	;abs 0x808
     7a8:	3b 30       	jn	$+120    	;abs 0x820
     7aa:	30 30       	jn	$+98     	;abs 0x80c
     7ac:	30 30       	jn	$+98     	;abs 0x80e
     7ae:	30 30       	jn	$+98     	;abs 0x810
     7b0:	31 37       	jge	$-412    	;abs 0x614
     7b2:	37 37       	jge	$-400    	;abs 0x622
     7b4:	37 37       	jge	$-400    	;abs 0x624
     7b6:	3b 3b       	jl	$-392    	;abs 0x62e
     7b8:	30 3b       	jl	$-414    	;abs 0x61a
     7ba:	33 3b       	jl	$-408    	;abs 0x622
     7bc:	28 38       	jl	$+82     	;abs 0x80e
     7be:	2c 38       	jl	$+90     	;abs 0x818
     7c0:	29 3d       	jmp	$+596    	;abs 0xa14
     7c2:	42 28       	jnc	$+134    	;abs 0x848
     7c4:	30 2c       	jc	$+98     	;abs 0x826
     7c6:	34 29       	jnc	$+618    	;abs 0xa30
     7c8:	2c 36       	jge	$-934    	;abs 0x422
     7ca:	34 2c       	jc	$+106    	;abs 0x834
     7cc:	36 34       	jge	$+110    	;abs 0x83a
     7ce:	3b 74       	subc	@r4+,	r11	;
     7d0:	61 72       	subc.b	#4,	r1	;r2 As==10
     7d2:	3a 28       	jnc	$+118    	;abs 0x848
     7d4:	30 2c       	jc	$+98     	;abs 0x836
     7d6:	34 29       	jnc	$+618    	;abs 0xa40
     7d8:	2c 31       	jn	$+602    	;abs 0xa32
     7da:	32 38       	jl	$+102    	;abs 0x840
     7dc:	2c 31       	jn	$+602    	;abs 0xa36
     7de:	36 3b       	jl	$-402    	;abs 0x64c
     7e0:	74 61       	addc.b	@r1+,	r4	;
     7e2:	63 63       	.word	0x6363;	????
     7e4:	72 30       	jn	$+230    	;abs 0x8ca
     7e6:	3a 28       	jnc	$+118    	;abs 0x85c
     7e8:	30 2c       	jc	$+98     	;abs 0x84a
     7ea:	34 29       	jnc	$+618    	;abs 0xa54
     7ec:	2c 31       	jn	$+602    	;abs 0xa46
     7ee:	34 34       	jge	$+106    	;abs 0x858
     7f0:	2c 31       	jn	$+602    	;abs 0xa4a
     7f2:	36 3b       	jl	$-402    	;abs 0x660
     7f4:	74 61       	addc.b	@r1+,	r4	;
     7f6:	63 63       	.word	0x6363;	????
     7f8:	72 31       	jn	$+742    	;abs 0xade
     7fa:	3a 28       	jnc	$+118    	;abs 0x870
     7fc:	30 2c       	jc	$+98     	;abs 0x85e
     7fe:	34 29       	jnc	$+618    	;abs 0xa68
     800:	2c 31       	jn	$+602    	;abs 0xa5a
     802:	36 30       	jn	$+110    	;abs 0x870
     804:	2c 31       	jn	$+602    	;abs 0xa5e
     806:	36 3b       	jl	$-402    	;abs 0x674
     808:	74 61       	addc.b	@r1+,	r4	;
     80a:	63 63       	.word	0x6363;	????
     80c:	72 32       	jn	$-794    	;abs 0x4f2
     80e:	3a 28       	jnc	$+118    	;abs 0x884
     810:	30 2c       	jc	$+98     	;abs 0x872
     812:	34 29       	jnc	$+618    	;abs 0xa7c
     814:	2c 31       	jn	$+602    	;abs 0xa6e
     816:	37 36       	jge	$-912    	;abs 0x486
     818:	2c 31       	jn	$+602    	;abs 0xa72
     81a:	36 3b       	jl	$-402    	;abs 0x688
     81c:	3b 00       	.word	0x003b;	????
     81e:	63 3a       	jl	$-824    	;abs 0x4e6
     820:	2f 6d       	addc	@r13,	r15	;
     822:	73 70       	.word	0x7073;	????
     824:	67 63       	addc.b	#2,	r7	;r3 As==10
     826:	63 2f       	jc	$-312    	;abs 0x6ee
     828:	6d 73       	subc.b	#2,	r13	;r3 As==10
     82a:	70 34       	jge	$+226    	;abs 0x90c
     82c:	33 30       	jn	$+104    	;abs 0x894
     82e:	2f 69       	addc	@r9,	r15	;
     830:	6e 63       	addc.b	#2,	r14	;r3 As==10
     832:	6c 75       	subc.b	@r5,	r12	;
     834:	64 65       	addc.b	@r5,	r4	;
     836:	2f 6d       	addc	@r13,	r15	;
     838:	73 70       	.word	0x7073;	????
     83a:	34 33       	jn	$-406    	;abs 0x6a4
     83c:	30 2f       	jc	$-414    	;abs 0x69e
     83e:	67 70       	subc.b	@r0,	r7	;
     840:	69 6f       	addc.b	@r15,	r9	;
     842:	2e 68       	addc	@r8,	r14	;
     844:	00 63       	adc	r0		;
     846:	3a 2f       	jc	$-394    	;abs 0x6bc
     848:	6d 73       	subc.b	#2,	r13	;r3 As==10
     84a:	70 67       	addc.b	@r7+,	r0	;
     84c:	63 63       	.word	0x6363;	????
     84e:	2f 6d       	addc	@r13,	r15	;
     850:	73 70       	.word	0x7073;	????
     852:	34 33       	jn	$-406    	;abs 0x6bc
     854:	30 2f       	jc	$-414    	;abs 0x6b6
     856:	69 6e       	addc.b	@r14,	r9	;
     858:	63 6c       	.word	0x6c63;	????
     85a:	75 64       	addc.b	@r4+,	r5	;
     85c:	65 2f       	jc	$-308    	;abs 0x728
     85e:	6d 73       	subc.b	#2,	r13	;r3 As==10
     860:	70 34       	jge	$+226    	;abs 0x942
     862:	33 30       	jn	$+104    	;abs 0x8ca
     864:	2f 69       	addc	@r9,	r15	;
     866:	6f 73       	subc.b	#2,	r15	;r3 As==10
     868:	74 72       	subc.b	#8,	r4	;r2 As==11
     86a:	75 63       	addc.b	#-1,	r5	;r3 As==11
     86c:	74 75       	subc.b	@r5+,	r4	;
     86e:	72 65       	addc.b	@r5+,	r2	;
     870:	73 2e       	jc	$-792    	;abs 0x558
     872:	68 00       	.word	0x0068;	????
     874:	70 6f       	addc.b	@r15+,	r0	;
     876:	72 74       	subc.b	@r4+,	r2	;
     878:	3a 54       	add	@r4+,	r10	;
     87a:	28 31       	jn	$+594    	;abs 0xacc
     87c:	30 2c       	jc	$+98     	;abs 0x8de
     87e:	31 29       	jnc	$+612    	;abs 0xae2
     880:	3d 75       	subc	@r5+,	r13	;
     882:	31 72       	subc	#8,	r1	;r2 As==11
     884:	65 67       	addc.b	@r7,	r5	;
     886:	5f 70 3a 28 	subc.b	0x283a,	r15	;PC rel. 0x30c2
     88a:	30 2c       	jc	$+98     	;abs 0x8ec
     88c:	31 31       	jn	$+612    	;abs 0xaf0
     88e:	29 2c       	jc	$+84     	;abs 0x8e2
     890:	30 2c       	jc	$+98     	;abs 0x8f2
     892:	38 3b       	jl	$-398    	;abs 0x704
     894:	5f 5f 70 69 	add.b	26992(r15),r15	;
     898:	6e 3a       	jl	$-802    	;abs 0x576
     89a:	28 31       	jn	$+594    	;abs 0xaec
     89c:	30 2c       	jc	$+98     	;abs 0x8fe
     89e:	32 29       	jnc	$+614    	;abs 0xb04
     8a0:	3d 73       	subc	#-1,	r13	;r3 As==11
     8a2:	31 5f       	add	@r15+,	r1	;
     8a4:	5f 70 30 3a 	subc.b	0x3a30,	r15	;PC rel. 0x42d6
     8a8:	28 30       	jn	$+82     	;abs 0x8fa
     8aa:	2c 31       	jn	$+602    	;abs 0xb04
     8ac:	31 29       	jnc	$+612    	;abs 0xb10
     8ae:	2c 30       	jn	$+90     	;abs 0x908
     8b0:	2c 31       	jn	$+602    	;abs 0xb0a
     8b2:	3b 5f       	add	@r15+,	r11	;
     8b4:	5f 70 31 3a 	subc.b	0x3a31,	r15	;PC rel. 0x42e7
     8b8:	28 30       	jn	$+82     	;abs 0x90a
     8ba:	2c 31       	jn	$+602    	;abs 0xb14
     8bc:	31 29       	jnc	$+612    	;abs 0xb20
     8be:	2c 31       	jn	$+602    	;abs 0xb18
     8c0:	2c 31       	jn	$+602    	;abs 0xb1a
     8c2:	3b 5f       	add	@r15+,	r11	;
     8c4:	5f 70 32 3a 	subc.b	0x3a32,	r15	;PC rel. 0x42f8
     8c8:	28 30       	jn	$+82     	;abs 0x91a
     8ca:	2c 31       	jn	$+602    	;abs 0xb24
     8cc:	31 29       	jnc	$+612    	;abs 0xb30
     8ce:	2c 32       	jn	$-934    	;abs 0x528
     8d0:	2c 31       	jn	$+602    	;abs 0xb2a
     8d2:	3b 5f       	add	@r15+,	r11	;
     8d4:	5f 70 33 3a 	subc.b	0x3a33,	r15	;PC rel. 0x4309
     8d8:	28 30       	jn	$+82     	;abs 0x92a
     8da:	2c 31       	jn	$+602    	;abs 0xb34
     8dc:	31 29       	jnc	$+612    	;abs 0xb40
     8de:	2c 33       	jn	$-422    	;abs 0x738
     8e0:	2c 31       	jn	$+602    	;abs 0xb3a
     8e2:	3b 5f       	add	@r15+,	r11	;
     8e4:	5f 70 34 3a 	subc.b	0x3a34,	r15	;PC rel. 0x431a
     8e8:	28 30       	jn	$+82     	;abs 0x93a
     8ea:	2c 31       	jn	$+602    	;abs 0xb44
     8ec:	31 29       	jnc	$+612    	;abs 0xb50
     8ee:	2c 34       	jge	$+90     	;abs 0x948
     8f0:	2c 31       	jn	$+602    	;abs 0xb4a
     8f2:	3b 5f       	add	@r15+,	r11	;
     8f4:	5f 70 35 3a 	subc.b	0x3a35,	r15	;PC rel. 0x432b
     8f8:	28 30       	jn	$+82     	;abs 0x94a
     8fa:	2c 31       	jn	$+602    	;abs 0xb54
     8fc:	31 29       	jnc	$+612    	;abs 0xb60
     8fe:	2c 35       	jge	$+602    	;abs 0xb58
     900:	2c 31       	jn	$+602    	;abs 0xb5a
     902:	3b 5f       	add	@r15+,	r11	;
     904:	5f 70 36 3a 	subc.b	0x3a36,	r15	;PC rel. 0x433c
     908:	28 30       	jn	$+82     	;abs 0x95a
     90a:	2c 31       	jn	$+602    	;abs 0xb64
     90c:	31 29       	jnc	$+612    	;abs 0xb70
     90e:	2c 36       	jge	$-934    	;abs 0x568
     910:	2c 31       	jn	$+602    	;abs 0xb6a
     912:	3b 5f       	add	@r15+,	r11	;
     914:	5f 70 37 3a 	subc.b	0x3a37,	r15	;PC rel. 0x434d
     918:	28 30       	jn	$+82     	;abs 0x96a
     91a:	2c 31       	jn	$+602    	;abs 0xb74
     91c:	31 29       	jnc	$+612    	;abs 0xb80
     91e:	2c 37       	jge	$-422    	;abs 0x778
     920:	2c 31       	jn	$+602    	;abs 0xb7a
     922:	3b 3b       	jl	$-392    	;abs 0x79a
     924:	2c 30       	jn	$+90     	;abs 0x97e
     926:	2c 38       	jl	$+90     	;abs 0x980
     928:	3b 3b       	jl	$-392    	;abs 0x7a0
     92a:	00 69       	addc	r9,	r0	;
     92c:	6f 72       	subc.b	#4,	r15	;r2 As==10
     92e:	65 67       	addc.b	@r7,	r5	;
     930:	69 73       	subc.b	#2,	r9	;r3 As==10
     932:	74 65       	addc.b	@r5+,	r4	;
     934:	72 5f       	add.b	@r15+,	r2	;
     936:	74 3a       	jl	$-790    	;abs 0x620
     938:	74 28       	jnc	$+234    	;abs 0xa22
     93a:	31 30       	jn	$+100    	;abs 0x99e
     93c:	2c 33       	jn	$-422    	;abs 0x796
     93e:	29 3d       	jmp	$+596    	;abs 0xb92
     940:	28 31       	jn	$+594    	;abs 0xb92
     942:	30 2c       	jc	$+98     	;abs 0x9a4
     944:	31 29       	jnc	$+612    	;abs 0xba8
     946:	00 70       	subc	r0,	r0	;
     948:	6f 72       	subc.b	#4,	r15	;r2 As==10
     94a:	74 5f       	add.b	@r15+,	r4	;
     94c:	66 75       	subc.b	@r5,	r6	;
     94e:	6c 6c       	addc.b	@r12,	r12	;
     950:	5f 74 3a 54 	subc.b	21562(r4),r15	;
     954:	28 31       	jn	$+594    	;abs 0xba6
     956:	30 2c       	jc	$+98     	;abs 0x9b8
     958:	34 29       	jnc	$+618    	;abs 0xbc2
     95a:	3d 73       	subc	#-1,	r13	;r3 As==11
     95c:	38 69       	addc	@r9+,	r8	;
     95e:	6e 3a       	jl	$-802    	;abs 0x63c
     960:	28 31       	jn	$+594    	;abs 0xbb2
     962:	30 2c       	jc	$+98     	;abs 0x9c4
     964:	33 29       	jnc	$+616    	;abs 0xbcc
     966:	2c 30       	jn	$+90     	;abs 0x9c0
     968:	2c 38       	jl	$+90     	;abs 0x9c2
     96a:	3b 6f       	addc	@r15+,	r11	;
     96c:	75 74       	subc.b	@r4+,	r5	;
     96e:	3a 28       	jnc	$+118    	;abs 0x9e4
     970:	31 30       	jn	$+100    	;abs 0x9d4
     972:	2c 33       	jn	$-422    	;abs 0x7cc
     974:	29 2c       	jc	$+84     	;abs 0x9c8
     976:	38 2c       	jc	$+114    	;abs 0x9e8
     978:	38 3b       	jl	$-398    	;abs 0x7ea
     97a:	64 69       	addc.b	@r9,	r4	;
     97c:	72 3a       	jl	$-794    	;abs 0x662
     97e:	28 31       	jn	$+594    	;abs 0xbd0
     980:	30 2c       	jc	$+98     	;abs 0x9e2
     982:	33 29       	jnc	$+616    	;abs 0xbea
     984:	2c 31       	jn	$+602    	;abs 0xbde
     986:	36 2c       	jc	$+110    	;abs 0x9f4
     988:	38 3b       	jl	$-398    	;abs 0x7fa
     98a:	69 66       	addc.b	@r6,	r9	;
     98c:	67 3a       	jl	$-816    	;abs 0x65c
     98e:	28 31       	jn	$+594    	;abs 0xbe0
     990:	30 2c       	jc	$+98     	;abs 0x9f2
     992:	33 29       	jnc	$+616    	;abs 0xbfa
     994:	2c 32       	jn	$-934    	;abs 0x5ee
     996:	34 2c       	jc	$+106    	;abs 0xa00
     998:	38 3b       	jl	$-398    	;abs 0x80a
     99a:	69 65       	addc.b	@r5,	r9	;
     99c:	73 3a       	jl	$-792    	;abs 0x684
     99e:	28 31       	jn	$+594    	;abs 0xbf0
     9a0:	30 2c       	jc	$+98     	;abs 0xa02
     9a2:	33 29       	jnc	$+616    	;abs 0xc0a
     9a4:	2c 33       	jn	$-422    	;abs 0x7fe
     9a6:	32 2c       	jc	$+102    	;abs 0xa0c
     9a8:	38 3b       	jl	$-398    	;abs 0x81a
     9aa:	69 65       	addc.b	@r5,	r9	;
     9ac:	3a 28       	jnc	$+118    	;abs 0xa22
     9ae:	31 30       	jn	$+100    	;abs 0xa12
     9b0:	2c 33       	jn	$-422    	;abs 0x80a
     9b2:	29 2c       	jc	$+84     	;abs 0xa06
     9b4:	34 30       	jn	$+106    	;abs 0xa1e
     9b6:	2c 38       	jl	$+90     	;abs 0xa10
     9b8:	3b 73       	subc	#-1,	r11	;r3 As==11
     9ba:	65 6c       	addc.b	@r12,	r5	;
     9bc:	3a 28       	jnc	$+118    	;abs 0xa32
     9be:	31 30       	jn	$+100    	;abs 0xa22
     9c0:	2c 33       	jn	$-422    	;abs 0x81a
     9c2:	29 2c       	jc	$+84     	;abs 0xa16
     9c4:	34 38       	jl	$+106    	;abs 0xa2e
     9c6:	2c 38       	jl	$+90     	;abs 0xa20
     9c8:	3b 72       	subc	#8,	r11	;r2 As==11
     9ca:	65 6e       	addc.b	@r14,	r5	;
     9cc:	3a 28       	jnc	$+118    	;abs 0xa42
     9ce:	31 30       	jn	$+100    	;abs 0xa32
     9d0:	2c 33       	jn	$-422    	;abs 0x82a
     9d2:	29 2c       	jc	$+84     	;abs 0xa26
     9d4:	35 36       	jge	$-916    	;abs 0x640
     9d6:	2c 38       	jl	$+90     	;abs 0xa30
     9d8:	3b 3b       	jl	$-392    	;abs 0x850
     9da:	00 63       	adc	r0		;
     9dc:	3a 2f       	jc	$-394    	;abs 0x852
     9de:	6d 73       	subc.b	#2,	r13	;r3 As==10
     9e0:	70 67       	addc.b	@r7+,	r0	;
     9e2:	63 63       	.word	0x6363;	????
     9e4:	2f 6d       	addc	@r13,	r15	;
     9e6:	73 70       	.word	0x7073;	????
     9e8:	34 33       	jn	$-406    	;abs 0x852
     9ea:	30 2f       	jc	$-414    	;abs 0x84c
     9ec:	69 6e       	addc.b	@r14,	r9	;
     9ee:	63 6c       	.word	0x6c63;	????
     9f0:	75 64       	addc.b	@r4+,	r5	;
     9f2:	65 2f       	jc	$-308    	;abs 0x8be
     9f4:	6d 73       	subc.b	#2,	r13	;r3 As==10
     9f6:	70 34       	jge	$+226    	;abs 0xad8
     9f8:	33 30       	jn	$+104    	;abs 0xa60
     9fa:	2f 73       	subc	#2,	r15	;r3 As==10
     9fc:	64 31       	jn	$+714    	;abs 0xcc6
     9fe:	36 2e       	jc	$-914    	;abs 0x66c
     a00:	68 00       	.word	0x0068;	????
     a02:	63 3a       	jl	$-824    	;abs 0x6ca
     a04:	2f 6d       	addc	@r13,	r15	;
     a06:	73 70       	.word	0x7073;	????
     a08:	67 63       	addc.b	#2,	r7	;r3 As==10
     a0a:	63 2f       	jc	$-312    	;abs 0x8d2
     a0c:	6d 73       	subc.b	#2,	r13	;r3 As==10
     a0e:	70 34       	jge	$+226    	;abs 0xaf0
     a10:	33 30       	jn	$+104    	;abs 0xa78
     a12:	2f 69       	addc	@r9,	r15	;
     a14:	6e 63       	addc.b	#2,	r14	;r3 As==10
     a16:	6c 75       	subc.b	@r5,	r12	;
     a18:	64 65       	addc.b	@r5,	r4	;
     a1a:	2f 6d       	addc	@r13,	r15	;
     a1c:	73 70       	.word	0x7073;	????
     a1e:	34 33       	jn	$-406    	;abs 0x888
     a20:	30 2f       	jc	$-414    	;abs 0x882
     a22:	75 73       	subc.b	#-1,	r5	;r3 As==11
     a24:	69 2e       	jc	$-812    	;abs 0x6f8
     a26:	68 00       	.word	0x0068;	????
     a28:	63 3a       	jl	$-824    	;abs 0x6f0
     a2a:	2f 6d       	addc	@r13,	r15	;
     a2c:	73 70       	.word	0x7073;	????
     a2e:	67 63       	addc.b	#2,	r7	;r3 As==10
     a30:	63 2f       	jc	$-312    	;abs 0x8f8
     a32:	6d 73       	subc.b	#2,	r13	;r3 As==10
     a34:	70 34       	jge	$+226    	;abs 0xb16
     a36:	33 30       	jn	$+104    	;abs 0xa9e
     a38:	2f 69       	addc	@r9,	r15	;
     a3a:	6e 63       	addc.b	#2,	r14	;r3 As==10
     a3c:	6c 75       	subc.b	@r5,	r12	;
     a3e:	64 65       	addc.b	@r5,	r4	;
     a40:	2f 6d       	addc	@r13,	r15	;
     a42:	73 70       	.word	0x7073;	????
     a44:	34 33       	jn	$-406    	;abs 0x8ae
     a46:	30 2f       	jc	$-414    	;abs 0x8a8
     a48:	63 6f       	.word	0x6f63;	????
     a4a:	6d 6d       	addc.b	@r13,	r13	;
     a4c:	6f 6e       	addc.b	@r14,	r15	;
     a4e:	2e 68       	addc	@r8,	r14	;
     a50:	00 6d       	addc	r13,	r0	;
     a52:	61 69       	addc.b	@r9,	r1	;
     a54:	6e 3a       	jl	$-802    	;abs 0x732
     a56:	46 28       	jnc	$+142    	;abs 0xae4
     a58:	30 2c       	jc	$+98     	;abs 0xaba
     a5a:	31 29       	jnc	$+612    	;abs 0xcbe
     a5c:	00 69       	addc	r9,	r0	;
     a5e:	3a 72       	subc	#8,	r10	;r2 As==11
     a60:	28 30       	jn	$+82     	;abs 0xab2
     a62:	2c 31       	jn	$+602    	;abs 0xcbc
     a64:	29 00       	.word	0x0029;	????
     a66:	63 6f       	.word	0x6f63;	????
     a68:	6e 66       	addc.b	@r6,	r14	;
     a6a:	69 67       	addc.b	@r7,	r9	;
     a6c:	75 72       	subc.b	#8,	r5	;r2 As==11
     a6e:	61 5f       	add.b	@r15,	r1	;
     a70:	63 70       	.word	0x7063;	????
     a72:	75 3a       	jl	$-788    	;abs 0x75e
     a74:	46 28       	jnc	$+142    	;abs 0xb02
     a76:	30 2c       	jc	$+98     	;abs 0xad8
     a78:	32 30       	jn	$+102    	;abs 0xade
     a7a:	29 00       	.word	0x0029;	????
     a7c:	64 65       	addc.b	@r5,	r4	;
     a7e:	6c 61       	addc.b	@r1,	r12	;
     a80:	79 75       	subc.b	@r5+,	r9	;
     a82:	73 3a       	jl	$-792    	;abs 0x76a
     a84:	46 28       	jnc	$+142    	;abs 0xb12
     a86:	30 2c       	jc	$+98     	;abs 0xae8
     a88:	32 30       	jn	$+102    	;abs 0xaee
     a8a:	29 00       	.word	0x0029;	????
     a8c:	74 65       	addc.b	@r5+,	r4	;
     a8e:	6d 70       	subc.b	@r0,	r13	;
     a90:	6f 3a       	jl	$-800    	;abs 0x770
     a92:	50 28       	jnc	$+162    	;abs 0xb34
     a94:	30 2c       	jc	$+98     	;abs 0xaf6
     a96:	34 29       	jnc	$+618    	;abs 0xd00
     a98:	00 64       	addc	r4,	r0	;
     a9a:	65 6c       	addc.b	@r12,	r5	;
     a9c:	61 79       	subc.b	@r9,	r1	;
     a9e:	6d 73       	subc.b	#2,	r13	;r3 As==10
     aa0:	3a 46       	mov	@r6+,	r10	;
     aa2:	28 30       	jn	$+82     	;abs 0xaf4
     aa4:	2c 32       	jn	$-934    	;abs 0x6fe
     aa6:	30 29       	jnc	$+610    	;abs 0xd08
     aa8:	00 69       	addc	r9,	r0	;
     aaa:	6e 69       	addc.b	@r9,	r14	;
     aac:	74 5f       	add.b	@r15+,	r4	;
     aae:	69 32       	jn	$-812    	;abs 0x782
     ab0:	63 3a       	jl	$-824    	;abs 0x778
     ab2:	46 28       	jnc	$+142    	;abs 0xb40
     ab4:	30 2c       	jc	$+98     	;abs 0xb16
     ab6:	32 30       	jn	$+102    	;abs 0xb1c
     ab8:	29 00       	.word	0x0029;	????
     aba:	73 74       	.word	0x7473;	????
     abc:	61 72       	subc.b	#4,	r1	;r2 As==10
     abe:	74 5f       	add.b	@r15+,	r4	;
     ac0:	69 32       	jn	$-812    	;abs 0x794
     ac2:	63 3a       	jl	$-824    	;abs 0x78a
     ac4:	46 28       	jnc	$+142    	;abs 0xb52
     ac6:	30 2c       	jc	$+98     	;abs 0xb28
     ac8:	32 30       	jn	$+102    	;abs 0xb2e
     aca:	29 00       	.word	0x0029;	????
     acc:	73 74       	.word	0x7473;	????
     ace:	6f 70       	subc.b	@r0,	r15	;
     ad0:	5f 69 32 63 	addc.b	25394(r9),r15	;
     ad4:	3a 46       	mov	@r6+,	r10	;
     ad6:	28 30       	jn	$+82     	;abs 0xb28
     ad8:	2c 32       	jn	$-934    	;abs 0x732
     ada:	30 29       	jnc	$+610    	;abs 0xd3c
     adc:	00 73       	sbc	r0		;
     ade:	65 6e       	addc.b	@r14,	r5	;
     ae0:	64 5f       	add.b	@r15,	r4	;
     ae2:	30 3a       	jl	$-926    	;abs 0x744
     ae4:	46 28       	jnc	$+142    	;abs 0xb72
     ae6:	30 2c       	jc	$+98     	;abs 0xb48
     ae8:	32 30       	jn	$+102    	;abs 0xb4e
     aea:	29 00       	.word	0x0029;	????
     aec:	73 65       	.word	0x6573;	????
     aee:	6e 64       	addc.b	@r4,	r14	;
     af0:	5f 31       	jn	$+704    	;abs 0xdb0
     af2:	3a 46       	mov	@r6+,	r10	;
     af4:	28 30       	jn	$+82     	;abs 0xb46
     af6:	2c 32       	jn	$-934    	;abs 0x750
     af8:	30 29       	jnc	$+610    	;abs 0xd5a
     afa:	00 6c       	addc	r12,	r0	;
     afc:	65 62       	addc.b	#4,	r5	;r2 As==10
     afe:	69 74       	subc.b	@r4,	r9	;
     b00:	3a 46       	mov	@r6+,	r10	;
     b02:	28 30       	jn	$+82     	;abs 0xb54
     b04:	2c 31       	jn	$+602    	;abs 0xd5e
     b06:	31 29       	jnc	$+612    	;abs 0xd6a
     b08:	00 76       	subc	r6,	r0	;
     b0a:	3a 72       	subc	#8,	r10	;r2 As==11
     b0c:	28 30       	jn	$+82     	;abs 0xb5e
     b0e:	2c 31       	jn	$+602    	;abs 0xd68
     b10:	31 29       	jnc	$+612    	;abs 0xd74
     b12:	00 6c       	addc	r12,	r0	;
     b14:	65 5f       	add.b	@r15,	r5	;
     b16:	69 32       	jn	$-812    	;abs 0x7ea
     b18:	63 3a       	jl	$-824    	;abs 0x7e0
     b1a:	46 28       	jnc	$+142    	;abs 0xba8
     b1c:	30 2c       	jc	$+98     	;abs 0xb7e
     b1e:	31 31       	jn	$+612    	;abs 0xd82
     b20:	29 00       	.word	0x0029;	????
     b22:	61 63       	addc.b	#2,	r1	;r3 As==10
     b24:	6b 6e       	addc.b	@r14,	r11	;
     b26:	6f 77       	subc.b	@r7,	r15	;
     b28:	6c 65       	addc.b	@r5,	r12	;
     b2a:	64 67       	addc.b	@r7,	r4	;
     b2c:	65 3a       	jl	$-820    	;abs 0x7f8
     b2e:	50 28       	jnc	$+162    	;abs 0xbd0
     b30:	30 2c       	jc	$+98     	;abs 0xb92
     b32:	31 31       	jn	$+612    	;abs 0xd96
     b34:	29 00       	.word	0x0029;	????
     b36:	69 3a       	jl	$-812    	;abs 0x80a
     b38:	72 28       	jnc	$+230    	;abs 0xc1e
     b3a:	30 2c       	jc	$+98     	;abs 0xb9c
     b3c:	31 31       	jn	$+612    	;abs 0xda0
     b3e:	29 00       	.word	0x0029;	????
     b40:	78 3a       	jl	$-782    	;abs 0x832
     b42:	72 28       	jnc	$+230    	;abs 0xc28
     b44:	30 2c       	jc	$+98     	;abs 0xba6
     b46:	31 31       	jn	$+612    	;abs 0xdaa
     b48:	29 00       	.word	0x0029;	????
     b4a:	65 73       	subc.b	#2,	r5	;r3 As==10
     b4c:	63 72       	.word	0x7263;	????
     b4e:	65 76       	subc.b	@r6,	r5	;
     b50:	65 5f       	add.b	@r15,	r5	;
     b52:	69 32       	jn	$-812    	;abs 0x826
     b54:	63 3a       	jl	$-824    	;abs 0x81c
     b56:	46 28       	jnc	$+142    	;abs 0xbe4
     b58:	30 2c       	jc	$+98     	;abs 0xbba
     b5a:	31 31       	jn	$+612    	;abs 0xdbe
     b5c:	29 00       	.word	0x0029;	????
     b5e:	64 61       	addc.b	@r1,	r4	;
     b60:	64 6f       	addc.b	@r15,	r4	;
     b62:	3a 50 28 30 	add	#12328,	r10	;#0x3028
     b66:	2c 31       	jn	$+602    	;abs 0xdc0
     b68:	31 29       	jnc	$+612    	;abs 0xdcc
     b6a:	00 6d       	addc	r13,	r0	;
     b6c:	65 6d       	addc.b	@r13,	r5	;
     b6e:	5f 66 6f 75 	addc.b	30063(r6),r15	;
     b72:	6e 64       	addc.b	@r4,	r14	;
     b74:	3a 46       	mov	@r6+,	r10	;
     b76:	28 30       	jn	$+82     	;abs 0xbc8
     b78:	2c 31       	jn	$+602    	;abs 0xdd2
     b7a:	31 29       	jnc	$+612    	;abs 0xdde
     b7c:	00 61       	addc	r1,	r0	;
     b7e:	64 64       	addc.b	@r4,	r4	;
     b80:	72 65       	addc.b	@r5+,	r2	;
     b82:	73 73       	.word	0x7373;	????
     b84:	3a 50 28 30 	add	#12328,	r10	;#0x3028
     b88:	2c 31       	jn	$+602    	;abs 0xde2
     b8a:	31 29       	jnc	$+612    	;abs 0xdee
     b8c:	00 6e       	addc	r14,	r0	;
     b8e:	75 6e       	addc.b	@r14+,	r5	;
     b90:	63 68       	.word	0x6863;	????
     b92:	75 63       	addc.b	#-1,	r5	;r3 As==11
     b94:	6b 5f       	add.b	@r15,	r11	;
     b96:	69 6e       	addc.b	@r14,	r9	;
     b98:	69 74       	subc.b	@r4,	r9	;
     b9a:	3a 46       	mov	@r6+,	r10	;
     b9c:	28 30       	jn	$+82     	;abs 0xbee
     b9e:	2c 31       	jn	$+602    	;abs 0xdf8
     ba0:	31 29       	jnc	$+612    	;abs 0xe04
     ba2:	00 6e       	addc	r14,	r0	;
     ba4:	75 6e       	addc.b	@r14+,	r5	;
     ba6:	63 68       	.word	0x6863;	????
     ba8:	75 63       	addc.b	#-1,	r5	;r3 As==11
     baa:	6b 5f       	add.b	@r15,	r11	;
     bac:	67 65       	addc.b	@r5,	r7	;
     bae:	74 5f       	add.b	@r15+,	r4	;
     bb0:	64 61       	addc.b	@r1,	r4	;
     bb2:	74 61       	addc.b	@r1+,	r4	;
     bb4:	3a 46       	mov	@r6+,	r10	;
     bb6:	28 30       	jn	$+82     	;abs 0xc08
     bb8:	2c 31       	jn	$+602    	;abs 0xe12
     bba:	31 29       	jnc	$+612    	;abs 0xe1e
     bbc:	00 6e       	addc	r14,	r0	;
     bbe:	75 6e       	addc.b	@r14+,	r5	;
     bc0:	63 68       	.word	0x6863;	????
     bc2:	75 63       	addc.b	#-1,	r5	;r3 As==11
     bc4:	6b 5f       	add.b	@r15,	r11	;
     bc6:	73 65       	.word	0x6573;	????
     bc8:	6e 64       	addc.b	@r4,	r14	;
     bca:	5f 72 65 71 	subc.b	&0x7165,r15	;0x7165
     bce:	75 65       	addc.b	@r5+,	r5	;
     bd0:	73 74       	.word	0x7473;	????
     bd2:	3a 46       	mov	@r6+,	r10	;
     bd4:	28 30       	jn	$+82     	;abs 0xc26
     bd6:	2c 31       	jn	$+602    	;abs 0xe30
     bd8:	31 29       	jnc	$+612    	;abs 0xe3c
     bda:	00 6e       	addc	r14,	r0	;
     bdc:	75 6e       	addc.b	@r14+,	r5	;
     bde:	63 68       	.word	0x6863;	????
     be0:	75 6b       	addc.b	@r11+,	r5	;
     be2:	5f 64 65 63 	addc.b	25445(r4),r15	;
     be6:	6f 64       	addc.b	@r4,	r15	;
     be8:	65 5f       	add.b	@r15,	r5	;
     bea:	62 79       	subc.b	@r9,	r2	;
     bec:	74 65       	addc.b	@r5+,	r4	;
     bee:	3a 46       	mov	@r6+,	r10	;
     bf0:	28 30       	jn	$+82     	;abs 0xc42
     bf2:	2c 31       	jn	$+602    	;abs 0xe4c
     bf4:	31 29       	jnc	$+612    	;abs 0xe58
     bf6:	00 78       	subc	r8,	r0	;
     bf8:	3a 50 28 30 	add	#12328,	r10	;#0x3028
     bfc:	2c 31       	jn	$+602    	;abs 0xe56
     bfe:	31 29       	jnc	$+612    	;abs 0xe62
     c00:	00 69       	addc	r9,	r0	;
     c02:	6e 69       	addc.b	@r9,	r14	;
     c04:	63 69       	.word	0x6963;	????
     c06:	61 5f       	add.b	@r15,	r1	;
     c08:	6e 75       	subc.b	@r5,	r14	;
     c0a:	6e 63       	addc.b	#2,	r14	;r3 As==10
     c0c:	68 75       	subc.b	@r5,	r8	;
     c0e:	63 6b       	.word	0x6b63;	????
     c10:	3a 46       	mov	@r6+,	r10	;
     c12:	28 30       	jn	$+82     	;abs 0xc64
     c14:	2c 31       	jn	$+602    	;abs 0xe6e
     c16:	31 29       	jnc	$+612    	;abs 0xe7a
     c18:	00 6a       	addc	r10,	r0	;
     c1a:	3a 72       	subc	#8,	r10	;r2 As==11
     c1c:	28 30       	jn	$+82     	;abs 0xc6e
     c1e:	2c 31       	jn	$+602    	;abs 0xe78
     c20:	31 29       	jnc	$+612    	;abs 0xe84
     c22:	00 62       	addc	r2,	r0	;
     c24:	75 66       	addc.b	@r6+,	r5	;
     c26:	66 65       	addc.b	@r5,	r6	;
     c28:	72 3a       	jl	$-794    	;abs 0x90e
     c2a:	28 31       	jn	$+594    	;abs 0xe7c
     c2c:	2c 31       	jn	$+602    	;abs 0xe86
     c2e:	29 3d       	jmp	$+596    	;abs 0xe82
     c30:	61 72       	subc.b	#4,	r1	;r2 As==10
     c32:	28 38       	jl	$+82     	;abs 0xc84
     c34:	2c 37       	jge	$-422    	;abs 0xa8e
     c36:	29 3b       	jl	$-428    	;abs 0xa8a
     c38:	30 3b       	jl	$-414    	;abs 0xa9a
     c3a:	37 3b       	jl	$-400    	;abs 0xaaa
     c3c:	28 30       	jn	$+82     	;abs 0xc8e
     c3e:	2c 31       	jn	$+602    	;abs 0xe98
     c40:	31 29       	jnc	$+612    	;abs 0xea4
     c42:	00 44       	br	r4		;
     c44:	43 4f       	.word	0x4f43;	????
     c46:	43 54       	.word	0x5443;	????
     c48:	4c 3a       	jl	$-870    	;abs 0x8e2
     c4a:	47 28       	jnc	$+144    	;abs 0xcda
     c4c:	31 2c       	jc	$+100    	;abs 0xcb0
     c4e:	32 29       	jnc	$+614    	;abs 0xeb4
     c50:	3d 42       	mov	#8,	r13	;r2 As==11
     c52:	28 30       	jn	$+82     	;abs 0xca4
     c54:	2c 31       	jn	$+602    	;abs 0xeae
     c56:	31 29       	jnc	$+612    	;abs 0xeba
     c58:	00 42       	br	r2		;
     c5a:	43 53       	.word	0x5343;	????
     c5c:	43 54       	.word	0x5443;	????
     c5e:	4c 31       	jn	$+666    	;abs 0xef8
     c60:	3a 47       	mov	@r7+,	r10	;
     c62:	28 31       	jn	$+594    	;abs 0xeb4
     c64:	2c 32       	jn	$-934    	;abs 0x8be
     c66:	29 00       	.word	0x0029;	????
     c68:	42 43       	clr.b	r2		;
     c6a:	53 43       	.word	0x4353;	????
     c6c:	54 4c 32 3a 	mov.b	14898(r12),r4	;
     c70:	47 28       	jnc	$+144    	;abs 0xd00
     c72:	31 2c       	jc	$+100    	;abs 0xcd6
     c74:	32 29       	jnc	$+614    	;abs 0xeda
     c76:	00 42       	br	r2		;
     c78:	43 53       	.word	0x5343;	????
     c7a:	43 54       	.word	0x5443;	????
     c7c:	4c 33       	jn	$-358    	;abs 0xb16
     c7e:	3a 47       	mov	@r7+,	r10	;
     c80:	28 31       	jn	$+594    	;abs 0xed2
     c82:	2c 32       	jn	$-934    	;abs 0x8dc
     c84:	29 00       	.word	0x0029;	????
     c86:	46 43       	clr.b	r6		;
     c88:	54 4c 31 3a 	mov.b	14897(r12),r4	;
     c8c:	47 28       	jnc	$+144    	;abs 0xd1c
     c8e:	38 2c       	jc	$+114    	;abs 0xd00
     c90:	38 29       	jnc	$+626    	;abs 0xf02
     c92:	00 46       	br	r6		;
     c94:	43 54       	.word	0x5443;	????
     c96:	4c 32       	jn	$-870    	;abs 0x930
     c98:	3a 47       	mov	@r7+,	r10	;
     c9a:	28 38       	jl	$+82     	;abs 0xcec
     c9c:	2c 38       	jl	$+90     	;abs 0xcf6
     c9e:	29 00       	.word	0x0029;	????
     ca0:	46 43       	clr.b	r6		;
     ca2:	54 4c 33 3a 	mov.b	14899(r12),r4	;
     ca6:	47 28       	jnc	$+144    	;abs 0xd36
     ca8:	38 2c       	jc	$+114    	;abs 0xd1a
     caa:	38 29       	jnc	$+626    	;abs 0xf1c
     cac:	00 45       	br	r5		;
     cae:	50 43       	br	#1		;r3 As==01
     cb0:	54 4c 3a 47 	mov.b	18234(r12),r4	;
     cb4:	28 31       	jn	$+594    	;abs 0xf06
     cb6:	2c 32       	jn	$-934    	;abs 0x910
     cb8:	29 00       	.word	0x0029;	????
     cba:	54 41 30 49 	mov.b	18736(r1),r4	;
     cbe:	56 3a       	jl	$-850    	;abs 0x96c
     cc0:	47 28       	jnc	$+144    	;abs 0xd50
     cc2:	38 2c       	jc	$+114    	;abs 0xd34
     cc4:	38 29       	jnc	$+626    	;abs 0xf36
     cc6:	00 54       	add	r4,	r0	;
     cc8:	41 30       	jn	$+132    	;abs 0xd4c
     cca:	43 54       	.word	0x5443;	????
     ccc:	4c 3a       	jl	$-870    	;abs 0x966
     cce:	47 28       	jnc	$+144    	;abs 0xd5e
     cd0:	38 2c       	jc	$+114    	;abs 0xd42
     cd2:	38 29       	jnc	$+626    	;abs 0xf44
     cd4:	00 54       	add	r4,	r0	;
     cd6:	41 30       	jn	$+132    	;abs 0xd5a
     cd8:	52 3a       	jl	$-858    	;abs 0x97e
     cda:	47 28       	jnc	$+144    	;abs 0xd6a
     cdc:	38 2c       	jc	$+114    	;abs 0xd4e
     cde:	38 29       	jnc	$+626    	;abs 0xf50
     ce0:	00 54       	add	r4,	r0	;
     ce2:	41 30       	jn	$+132    	;abs 0xd66
     ce4:	43 43       	clr.b	r3		;
     ce6:	54 4c 30 3a 	mov.b	14896(r12),r4	;
     cea:	47 28       	jnc	$+144    	;abs 0xd7a
     cec:	38 2c       	jc	$+114    	;abs 0xd5e
     cee:	38 29       	jnc	$+626    	;abs 0xf60
     cf0:	00 54       	add	r4,	r0	;
     cf2:	41 30       	jn	$+132    	;abs 0xd76
     cf4:	43 43       	clr.b	r3		;
     cf6:	54 4c 31 3a 	mov.b	14897(r12),r4	;
     cfa:	47 28       	jnc	$+144    	;abs 0xd8a
     cfc:	38 2c       	jc	$+114    	;abs 0xd6e
     cfe:	38 29       	jnc	$+626    	;abs 0xf70
     d00:	00 54       	add	r4,	r0	;
     d02:	41 30       	jn	$+132    	;abs 0xd86
     d04:	43 43       	clr.b	r3		;
     d06:	52 30       	jn	$+166    	;abs 0xdac
     d08:	3a 47       	mov	@r7+,	r10	;
     d0a:	28 38       	jl	$+82     	;abs 0xd5c
     d0c:	2c 38       	jl	$+90     	;abs 0xd66
     d0e:	29 00       	.word	0x0029;	????
     d10:	54 41 30 43 	mov.b	17200(r1),r4	;
     d14:	43 52       	.word	0x5243;	????
     d16:	31 3a       	jl	$-924    	;abs 0x97a
     d18:	47 28       	jnc	$+144    	;abs 0xda8
     d1a:	38 2c       	jc	$+114    	;abs 0xd8c
     d1c:	38 29       	jnc	$+626    	;abs 0xf8e
     d1e:	00 74       	subc	r4,	r0	;
     d20:	69 6d       	addc.b	@r13,	r9	;
     d22:	65 72       	subc.b	#4,	r5	;r2 As==10
     d24:	61 3a       	jl	$-828    	;abs 0x9e8
     d26:	47 28       	jnc	$+144    	;abs 0xdb6
     d28:	38 2c       	jc	$+114    	;abs 0xd9a
     d2a:	35 29       	jnc	$+620    	;abs 0xf96
     d2c:	00 70       	subc	r0,	r0	;
     d2e:	6f 72       	subc.b	#4,	r15	;r2 As==10
     d30:	74 31       	jn	$+746    	;abs 0x101a
     d32:	3a 47       	mov	@r7+,	r10	;
     d34:	28 31       	jn	$+594    	;abs 0xf86
     d36:	30 2c       	jc	$+98     	;abs 0xd98
     d38:	34 29       	jnc	$+618    	;abs 0xfa2
     d3a:	00 70       	subc	r0,	r0	;
     d3c:	6f 72       	subc.b	#4,	r15	;r2 As==10
     d3e:	74 32       	jn	$-790    	;abs 0xa28
     d40:	3a 47       	mov	@r7+,	r10	;
     d42:	28 31       	jn	$+594    	;abs 0xf94
     d44:	30 2c       	jc	$+98     	;abs 0xda6
     d46:	34 29       	jnc	$+618    	;abs 0xfb0
     d48:	00 50       	rla	r0		;
     d4a:	31 49       	mov	@r9+,	r1	;
     d4c:	4e 3a       	jl	$-866    	;abs 0x9ea
     d4e:	47 28       	jnc	$+144    	;abs 0xdde
     d50:	31 2c       	jc	$+100    	;abs 0xdb4
     d52:	32 29       	jnc	$+614    	;abs 0xfb8
     d54:	00 50       	rla	r0		;
     d56:	31 4f       	mov	@r15+,	r1	;
     d58:	55 54 3a 47 	add.b	18234(r4),r5	;
     d5c:	28 31       	jn	$+594    	;abs 0xfae
     d5e:	2c 32       	jn	$-934    	;abs 0x9b8
     d60:	29 00       	.word	0x0029;	????
     d62:	50 31       	jn	$+674    	;abs 0x1004
     d64:	44 49       	mov.b	r9,	r4	;
     d66:	52 3a       	jl	$-858    	;abs 0xa0c
     d68:	47 28       	jnc	$+144    	;abs 0xdf8
     d6a:	31 2c       	jc	$+100    	;abs 0xdce
     d6c:	32 29       	jnc	$+614    	;abs 0xfd2
     d6e:	00 50       	rla	r0		;
     d70:	31 49       	mov	@r9+,	r1	;
     d72:	46 47       	mov.b	r7,	r6	;
     d74:	3a 47       	mov	@r7+,	r10	;
     d76:	28 31       	jn	$+594    	;abs 0xfc8
     d78:	2c 32       	jn	$-934    	;abs 0x9d2
     d7a:	29 00       	.word	0x0029;	????
     d7c:	50 31       	jn	$+674    	;abs 0x101e
     d7e:	49 45       	mov.b	r5,	r9	;
     d80:	53 3a       	jl	$-856    	;abs 0xa28
     d82:	47 28       	jnc	$+144    	;abs 0xe12
     d84:	31 2c       	jc	$+100    	;abs 0xde8
     d86:	32 29       	jnc	$+614    	;abs 0xfec
     d88:	00 50       	rla	r0		;
     d8a:	31 49       	mov	@r9+,	r1	;
     d8c:	45 3a       	jl	$-884    	;abs 0xa18
     d8e:	47 28       	jnc	$+144    	;abs 0xe1e
     d90:	31 2c       	jc	$+100    	;abs 0xdf4
     d92:	32 29       	jnc	$+614    	;abs 0xff8
     d94:	00 50       	rla	r0		;
     d96:	31 53       	add	#-1,	r1	;r3 As==11
     d98:	45 4c       	mov.b	r12,	r5	;
     d9a:	3a 47       	mov	@r7+,	r10	;
     d9c:	28 31       	jn	$+594    	;abs 0xfee
     d9e:	2c 32       	jn	$-934    	;abs 0x9f8
     da0:	29 00       	.word	0x0029;	????
     da2:	50 31       	jn	$+674    	;abs 0x1044
     da4:	52 45 4e 3a 	mov.b	14926(r5),r2	;
     da8:	47 28       	jnc	$+144    	;abs 0xe38
     daa:	31 2c       	jc	$+100    	;abs 0xe0e
     dac:	32 29       	jnc	$+614    	;abs 0x1012
     dae:	00 50       	rla	r0		;
     db0:	32 49       	mov	@r9+,	r2	;
     db2:	4e 3a       	jl	$-866    	;abs 0xa50
     db4:	47 28       	jnc	$+144    	;abs 0xe44
     db6:	31 2c       	jc	$+100    	;abs 0xe1a
     db8:	32 29       	jnc	$+614    	;abs 0x101e
     dba:	00 50       	rla	r0		;
     dbc:	32 4f       	mov	@r15+,	r2	;
     dbe:	55 54 3a 47 	add.b	18234(r4),r5	;
     dc2:	28 31       	jn	$+594    	;abs 0x1014
     dc4:	2c 32       	jn	$-934    	;abs 0xa1e
     dc6:	29 00       	.word	0x0029;	????
     dc8:	50 32       	jn	$-862    	;abs 0xa6a
     dca:	44 49       	mov.b	r9,	r4	;
     dcc:	52 3a       	jl	$-858    	;abs 0xa72
     dce:	47 28       	jnc	$+144    	;abs 0xe5e
     dd0:	31 2c       	jc	$+100    	;abs 0xe34
     dd2:	32 29       	jnc	$+614    	;abs 0x1038
     dd4:	00 50       	rla	r0		;
     dd6:	32 49       	mov	@r9+,	r2	;
     dd8:	46 47       	mov.b	r7,	r6	;
     dda:	3a 47       	mov	@r7+,	r10	;
     ddc:	28 31       	jn	$+594    	;abs 0x102e
     dde:	2c 32       	jn	$-934    	;abs 0xa38
     de0:	29 00       	.word	0x0029;	????
     de2:	50 32       	jn	$-862    	;abs 0xa84
     de4:	49 45       	mov.b	r5,	r9	;
     de6:	53 3a       	jl	$-856    	;abs 0xa8e
     de8:	47 28       	jnc	$+144    	;abs 0xe78
     dea:	31 2c       	jc	$+100    	;abs 0xe4e
     dec:	32 29       	jnc	$+614    	;abs 0x1052
     dee:	00 50       	rla	r0		;
     df0:	32 49       	mov	@r9+,	r2	;
     df2:	45 3a       	jl	$-884    	;abs 0xa7e
     df4:	47 28       	jnc	$+144    	;abs 0xe84
     df6:	31 2c       	jc	$+100    	;abs 0xe5a
     df8:	32 29       	jnc	$+614    	;abs 0x105e
     dfa:	00 50       	rla	r0		;
     dfc:	32 53       	add	#-1,	r2	;r3 As==11
     dfe:	45 4c       	mov.b	r12,	r5	;
     e00:	3a 47       	mov	@r7+,	r10	;
     e02:	28 31       	jn	$+594    	;abs 0x1054
     e04:	2c 32       	jn	$-934    	;abs 0xa5e
     e06:	29 00       	.word	0x0029;	????
     e08:	50 32       	jn	$-862    	;abs 0xaaa
     e0a:	52 45 4e 3a 	mov.b	14926(r5),r2	;
     e0e:	47 28       	jnc	$+144    	;abs 0xe9e
     e10:	31 2c       	jc	$+100    	;abs 0xe74
     e12:	32 29       	jnc	$+614    	;abs 0x1078
     e14:	00 53       	add	#0,	r0	;r3 As==00
     e16:	44 31       	jn	$+650    	;abs 0x10a0
     e18:	36 43       	mov	#-1,	r6	;r3 As==11
     e1a:	54 4c 3a 47 	mov.b	18234(r12),r4	;
     e1e:	28 38       	jl	$+82     	;abs 0xe70
     e20:	2c 38       	jl	$+90     	;abs 0xe7a
     e22:	29 00       	.word	0x0029;	????
     e24:	53 44       	.word	0x4453;	????
     e26:	31 36       	jge	$-924    	;abs 0xa8a
     e28:	49 56       	add.b	r6,	r9	;
     e2a:	3a 47       	mov	@r7+,	r10	;
     e2c:	28 38       	jl	$+82     	;abs 0xe7e
     e2e:	2c 38       	jl	$+90     	;abs 0xe88
     e30:	29 00       	.word	0x0029;	????
     e32:	53 44       	.word	0x4453;	????
     e34:	31 36       	jge	$-924    	;abs 0xa98
     e36:	41 45       	mov.b	r5,	r1	;
     e38:	3a 47       	mov	@r7+,	r10	;
     e3a:	28 31       	jn	$+594    	;abs 0x108c
     e3c:	2c 32       	jn	$-934    	;abs 0xa96
     e3e:	29 00       	.word	0x0029;	????
     e40:	53 44       	.word	0x4453;	????
     e42:	31 36       	jge	$-924    	;abs 0xaa6
     e44:	49 4e       	mov.b	r14,	r9	;
     e46:	43 54       	.word	0x5443;	????
     e48:	4c 30       	jn	$+154    	;abs 0xee2
     e4a:	3a 47       	mov	@r7+,	r10	;
     e4c:	28 31       	jn	$+594    	;abs 0x109e
     e4e:	2c 32       	jn	$-934    	;abs 0xaa8
     e50:	29 00       	.word	0x0029;	????
     e52:	53 44       	.word	0x4453;	????
     e54:	31 36       	jge	$-924    	;abs 0xab8
     e56:	50 52 45 30 	add.b	&0x3045,r0	;0x3045
     e5a:	3a 47       	mov	@r7+,	r10	;
     e5c:	28 31       	jn	$+594    	;abs 0x10ae
     e5e:	2c 32       	jn	$-934    	;abs 0xab8
     e60:	29 00       	.word	0x0029;	????
     e62:	53 44       	.word	0x4453;	????
     e64:	31 36       	jge	$-924    	;abs 0xac8
     e66:	43 43       	clr.b	r3		;
     e68:	54 4c 30 3a 	mov.b	14896(r12),r4	;
     e6c:	47 28       	jnc	$+144    	;abs 0xefc
     e6e:	38 2c       	jc	$+114    	;abs 0xee0
     e70:	38 29       	jnc	$+626    	;abs 0x10e2
     e72:	00 53       	add	#0,	r0	;r3 As==00
     e74:	44 31       	jn	$+650    	;abs 0x10fe
     e76:	36 4d       	mov	@r13+,	r6	;
     e78:	45 4d       	mov.b	r13,	r5	;
     e7a:	30 3a       	jl	$-926    	;abs 0xadc
     e7c:	47 28       	jnc	$+144    	;abs 0xf0c
     e7e:	38 2c       	jc	$+114    	;abs 0xef0
     e80:	38 29       	jnc	$+626    	;abs 0x10f2
     e82:	00 55       	add	r5,	r0	;
     e84:	53 49       	.word	0x4953;	????
     e86:	43 54       	.word	0x5443;	????
     e88:	4c 30       	jn	$+154    	;abs 0xf22
     e8a:	3a 47       	mov	@r7+,	r10	;
     e8c:	28 31       	jn	$+594    	;abs 0x10de
     e8e:	2c 32       	jn	$-934    	;abs 0xae8
     e90:	29 00       	.word	0x0029;	????
     e92:	55 53       	inc.b	r5		;
     e94:	49 43       	clr.b	r9		;
     e96:	54 4c 31 3a 	mov.b	14897(r12),r4	;
     e9a:	47 28       	jnc	$+144    	;abs 0xf2a
     e9c:	31 2c       	jc	$+100    	;abs 0xf00
     e9e:	32 29       	jnc	$+614    	;abs 0x1104
     ea0:	00 55       	add	r5,	r0	;
     ea2:	53 49       	.word	0x4953;	????
     ea4:	43 4b       	.word	0x4b43;	????
     ea6:	43 54       	.word	0x5443;	????
     ea8:	4c 3a       	jl	$-870    	;abs 0xb42
     eaa:	47 28       	jnc	$+144    	;abs 0xf3a
     eac:	31 2c       	jc	$+100    	;abs 0xf10
     eae:	32 29       	jnc	$+614    	;abs 0x1114
     eb0:	00 55       	add	r5,	r0	;
     eb2:	53 49       	.word	0x4953;	????
     eb4:	43 4e       	.word	0x4e43;	????
     eb6:	54 3a       	jl	$-854    	;abs 0xb60
     eb8:	47 28       	jnc	$+144    	;abs 0xf48
     eba:	31 2c       	jc	$+100    	;abs 0xf1e
     ebc:	32 29       	jnc	$+614    	;abs 0x1122
     ebe:	00 55       	add	r5,	r0	;
     ec0:	53 49       	.word	0x4953;	????
     ec2:	53 52       	.word	0x5253;	????
     ec4:	4c 3a       	jl	$-870    	;abs 0xb5e
     ec6:	47 28       	jnc	$+144    	;abs 0xf56
     ec8:	31 2c       	jc	$+100    	;abs 0xf2c
     eca:	32 29       	jnc	$+614    	;abs 0x1130
     ecc:	00 55       	add	r5,	r0	;
     ece:	53 49       	.word	0x4953;	????
     ed0:	53 52       	.word	0x5253;	????
     ed2:	48 3a       	jl	$-878    	;abs 0xb64
     ed4:	47 28       	jnc	$+144    	;abs 0xf64
     ed6:	31 2c       	jc	$+100    	;abs 0xf3a
     ed8:	32 29       	jnc	$+614    	;abs 0x113e
     eda:	00 55       	add	r5,	r0	;
     edc:	53 49       	.word	0x4953;	????
     ede:	43 54       	.word	0x5443;	????
     ee0:	4c 3a       	jl	$-870    	;abs 0xb7a
     ee2:	47 28       	jnc	$+144    	;abs 0xf72
     ee4:	38 2c       	jc	$+114    	;abs 0xf56
     ee6:	38 29       	jnc	$+626    	;abs 0x1158
     ee8:	00 55       	add	r5,	r0	;
     eea:	53 49       	.word	0x4953;	????
     eec:	43 43       	clr.b	r3		;
     eee:	54 4c 3a 47 	mov.b	18234(r12),r4	;
     ef2:	28 38       	jl	$+82     	;abs 0xf44
     ef4:	2c 38       	jl	$+90     	;abs 0xf4e
     ef6:	29 00       	.word	0x0029;	????
     ef8:	55 53       	inc.b	r5		;
     efa:	49 53       	add.b	#0,	r9	;r3 As==00
     efc:	52 3a       	jl	$-858    	;abs 0xba2
     efe:	47 28       	jnc	$+144    	;abs 0xf8e
     f00:	38 2c       	jc	$+114    	;abs 0xf72
     f02:	38 29       	jnc	$+626    	;abs 0x1174
     f04:	00 57       	add	r7,	r0	;
     f06:	44 54       	rla.b	r4		;
     f08:	43 54       	.word	0x5443;	????
     f0a:	4c 3a       	jl	$-870    	;abs 0xba4
     f0c:	47 28       	jnc	$+144    	;abs 0xf9c
     f0e:	38 2c       	jc	$+114    	;abs 0xf80
     f10:	38 29       	jnc	$+626    	;abs 0x1182
     f12:	00 49       	br	r9		;
     f14:	45 31       	jn	$+652    	;abs 0x11a0
     f16:	3a 47       	mov	@r7+,	r10	;
     f18:	28 31       	jn	$+594    	;abs 0x116a
     f1a:	2c 32       	jn	$-934    	;abs 0xb74
     f1c:	29 00       	.word	0x0029;	????
     f1e:	49 46       	mov.b	r6,	r9	;
     f20:	47 31       	jn	$+656    	;abs 0x11b0
     f22:	3a 47       	mov	@r7+,	r10	;
     f24:	28 31       	jn	$+594    	;abs 0x1176
     f26:	2c 32       	jn	$-934    	;abs 0xb80
     f28:	29 00       	.word	0x0029;	????
     f2a:	43 41       	.word	0x4143;	????
     f2c:	4c 44       	mov.b	r4,	r12	;
     f2e:	43 4f       	.word	0x4f43;	????
     f30:	5f 31       	jn	$+704    	;abs 0x11f0
     f32:	36 4d       	mov	@r13+,	r6	;
     f34:	48 5a       	add.b	r10,	r8	;
     f36:	3a 47       	mov	@r7+,	r10	;
     f38:	28 31       	jn	$+594    	;abs 0x118a
     f3a:	2c 32       	jn	$-934    	;abs 0xb94
     f3c:	29 00       	.word	0x0029;	????
     f3e:	43 41       	.word	0x4143;	????
     f40:	4c 42       	mov.b	r2,	r12	;
     f42:	43 31       	jn	$+648    	;abs 0x11ca
     f44:	5f 31       	jn	$+704    	;abs 0x1204
     f46:	36 4d       	mov	@r13+,	r6	;
     f48:	48 5a       	add.b	r10,	r8	;
     f4a:	3a 47       	mov	@r7+,	r10	;
     f4c:	28 31       	jn	$+594    	;abs 0x119e
     f4e:	2c 32       	jn	$-934    	;abs 0xba8
     f50:	29 00       	.word	0x0029;	????
     f52:	43 41       	.word	0x4143;	????
     f54:	4c 44       	mov.b	r4,	r12	;
     f56:	43 4f       	.word	0x4f43;	????
     f58:	5f 31       	jn	$+704    	;abs 0x1218
     f5a:	32 4d       	mov	@r13+,	r2	;
     f5c:	48 5a       	add.b	r10,	r8	;
     f5e:	3a 47       	mov	@r7+,	r10	;
     f60:	28 31       	jn	$+594    	;abs 0x11b2
     f62:	2c 32       	jn	$-934    	;abs 0xbbc
     f64:	29 00       	.word	0x0029;	????
     f66:	43 41       	.word	0x4143;	????
     f68:	4c 42       	mov.b	r2,	r12	;
     f6a:	43 31       	jn	$+648    	;abs 0x11f2
     f6c:	5f 31       	jn	$+704    	;abs 0x122c
     f6e:	32 4d       	mov	@r13+,	r2	;
     f70:	48 5a       	add.b	r10,	r8	;
     f72:	3a 47       	mov	@r7+,	r10	;
     f74:	28 31       	jn	$+594    	;abs 0x11c6
     f76:	2c 32       	jn	$-934    	;abs 0xbd0
     f78:	29 00       	.word	0x0029;	????
     f7a:	43 41       	.word	0x4143;	????
     f7c:	4c 44       	mov.b	r4,	r12	;
     f7e:	43 4f       	.word	0x4f43;	????
     f80:	5f 38       	jl	$+192    	;abs 0x1040
     f82:	4d 48       	mov.b	r8,	r13	;
     f84:	5a 3a       	jl	$-842    	;abs 0xc3a
     f86:	47 28       	jnc	$+144    	;abs 0x1016
     f88:	31 2c       	jc	$+100    	;abs 0xfec
     f8a:	32 29       	jnc	$+614    	;abs 0x11f0
     f8c:	00 43       	clr	r0		;
     f8e:	41 4c       	mov.b	r12,	r1	;
     f90:	42 43       	clr.b	r2		;
     f92:	31 5f       	add	@r15+,	r1	;
     f94:	38 4d       	mov	@r13+,	r8	;
     f96:	48 5a       	add.b	r10,	r8	;
     f98:	3a 47       	mov	@r7+,	r10	;
     f9a:	28 31       	jn	$+594    	;abs 0x11ec
     f9c:	2c 32       	jn	$-934    	;abs 0xbf6
     f9e:	29 00       	.word	0x0029;	????
     fa0:	43 41       	.word	0x4143;	????
     fa2:	4c 44       	mov.b	r4,	r12	;
     fa4:	43 4f       	.word	0x4f43;	????
     fa6:	5f 31       	jn	$+704    	;abs 0x1266
     fa8:	4d 48       	mov.b	r8,	r13	;
     faa:	5a 3a       	jl	$-842    	;abs 0xc60
     fac:	47 28       	jnc	$+144    	;abs 0x103c
     fae:	31 2c       	jc	$+100    	;abs 0x1012
     fb0:	32 29       	jnc	$+614    	;abs 0x1216
     fb2:	00 43       	clr	r0		;
     fb4:	41 4c       	mov.b	r12,	r1	;
     fb6:	42 43       	clr.b	r2		;
     fb8:	31 5f       	add	@r15+,	r1	;
     fba:	31 4d       	mov	@r13+,	r1	;
     fbc:	48 5a       	add.b	r10,	r8	;
     fbe:	3a 47       	mov	@r7+,	r10	;
     fc0:	28 31       	jn	$+594    	;abs 0x1212
     fc2:	2c 32       	jn	$-934    	;abs 0xc1c
     fc4:	29 00       	.word	0x0029;	????
     fc6:	6d 61       	addc.b	@r1,	r13	;
     fc8:	73 6b       	.word	0x6b73;	????
     fca:	3a 47       	mov	@r7+,	r10	;
     fcc:	28 31       	jn	$+594    	;abs 0x121e
     fce:	2c 33       	jn	$-422    	;abs 0xe28
     fd0:	29 3d       	jmp	$+596    	;abs 0x1224
     fd2:	61 72       	subc.b	#4,	r1	;r2 As==10
     fd4:	28 38       	jl	$+82     	;abs 0x1026
     fd6:	2c 37       	jge	$-422    	;abs 0xe30
     fd8:	29 3b       	jl	$-428    	;abs 0xe2c
     fda:	30 3b       	jl	$-414    	;abs 0xe3c
     fdc:	37 3b       	jl	$-400    	;abs 0xe4c
     fde:	28 31       	jn	$+594    	;abs 0x1230
     fe0:	2c 34       	jge	$+90     	;abs 0x103a
     fe2:	29 3d       	jmp	$+596    	;abs 0x1236
     fe4:	6b 28       	jnc	$+216    	;abs 0x10bc
     fe6:	30 2c       	jc	$+98     	;abs 0x1048
     fe8:	31 31       	jn	$+612    	;abs 0x124c
     fea:	29 00       	.word	0x0029;	????
     fec:	6e 75       	subc.b	@r5,	r14	;
     fee:	6e 63       	addc.b	#2,	r14	;r3 As==10
     ff0:	68 75       	subc.b	@r5,	r8	;
     ff2:	63 6b       	.word	0x6b63;	????
     ff4:	5f 62 75 66 	addc.b	&0x6675,r15	;0x6675
     ff8:	3a 47       	mov	@r7+,	r10	;
     ffa:	28 31       	jn	$+594    	;abs 0x124c
     ffc:	2c 35       	jge	$+602    	;abs 0x1256
     ffe:	29 3d       	jmp	$+596    	;abs 0x1252
    1000:	61 72       	subc.b	#4,	r1	;r2 As==10
    1002:	28 38       	jl	$+82     	;abs 0x1054
    1004:	2c 37       	jge	$-422    	;abs 0xe5e
    1006:	29 3b       	jl	$-428    	;abs 0xe5a
    1008:	30 3b       	jl	$-414    	;abs 0xe6a
    100a:	35 3b       	jl	$-404    	;abs 0xe76
    100c:	28 30       	jn	$+82     	;abs 0x105e
    100e:	2c 31       	jn	$+602    	;abs 0x1268
    1010:	31 29       	jnc	$+612    	;abs 0x1274
	...
