
nunchuck_8.o:     file format elf32-msp430

Disassembly of section .text:

00002100 <__low_level_init>:
    2100:	b2 40 80 5a 	mov	#23168,	&0x0120	;#0x5a80
    2104:	20 01 

00002106 <__do_copy_data>:
    2106:	3f 40 04 00 	mov	#4,	r15	;#0x0004
    210a:	0f 93       	cmp	#0,	r15	;r3 As==00
    210c:	05 24       	jz	$+12     	;abs 0x2118
    210e:	2f 83       	decd	r15		;
    2110:	9f 4f e2 34 	mov	13538(r15),4352(r15);
    2114:	00 11 
    2116:	fb 23       	jnz	$-8      	;abs 0x210e

00002118 <__do_clear_bss>:
    2118:	3f 40 04 00 	mov	#4,	r15	;#0x0004
    211c:	0f 93       	cmp	#0,	r15	;r3 As==00
    211e:	04 24       	jz	$+10     	;abs 0x2128
    2120:	1f 83       	dec	r15		;
    2122:	cf 43 04 11 	mov.b	#0,	4356(r15);r3 As==00
    2126:	fc 23       	jnz	$-6      	;abs 0x2120

00002128 <__jump_to_main>:
    2128:	30 40 68 21 	br	#0x2168		;

0000212c <__ctors_end>:
    212c:	30 40 30 21 	br	#0x2130		;

00002130 <_unexpected_>:
    2130:	00 13       	reti			
    2132:	4e 55       	add.b	r5,	r14	;
    2134:	4e 43       	clr.b	r14		;
    2136:	48 55       	add.b	r5,	r8	;
    2138:	43 4b       	.word	0x4b43;	????
    213a:	20 64       	addc	@r4,	r0	;
    213c:	72 69       	addc.b	@r9+,	r2	;
    213e:	76 65       	addc.b	@r5+,	r6	;
    2140:	72 0d       	.word	0x0d72;	????
    2142:	00 41       	br	r1		;
    2144:	63 68       	.word	0x6863;	????
    2146:	65 69       	addc.b	@r9,	r5	;
    2148:	20 6f       	addc	@r15,	r0	;
    214a:	20 4e       	br	@r14		;
    214c:	55 4e 43 48 	mov.b	18499(r14),r5	;
    2150:	55 43       	mov.b	#1,	r5	;r3 As==01
    2152:	4b 0d       	.word	0x0d4b;	????
    2154:	00 4e       	br	r14		;
    2156:	61 6f       	addc.b	@r15,	r1	;
    2158:	20 41       	br	@r1		;
    215a:	63 68       	.word	0x6863;	????
    215c:	65 69       	addc.b	@r9,	r5	;
    215e:	2e 2e       	jc	$-930    	;abs 0x1dbc
    2160:	2e 20       	jnz	$+94     	;abs 0x21be
    2162:	20 20       	jnz	$+66     	;abs 0x21a4
    2164:	20 0d       	.word	0x0d20;	????
	...

00002168 <main>:
    2168:	31 40 60 20 	mov	#8288,	r1	;#0x2060
    216c:	b2 40 80 5a 	mov	#23168,	&0x0120	;#0x5a80
    2170:	20 01 
    2172:	b0 12 f6 21 	call	#8694		;#0x21f6
    2176:	4f 43       	clr.b	r15		;
    2178:	b0 12 e8 2b 	call	#11240		;#0x2be8
    217c:	7e 40 3b 00 	mov.b	#59,	r14	;#0x003b
    2180:	7f 42       	mov.b	#8,	r15	;r2 As==11
    2182:	b0 12 f4 2d 	call	#11764		;#0x2df4
    2186:	7e 40 a0 ff 	mov.b	#-96,	r14	;#0xffa0
    218a:	7f 40 a4 ff 	mov.b	#-92,	r15	;#0xffa4
    218e:	b0 12 ee 22 	call	#8942		;#0x22ee
    2192:	3f 40 32 21 	mov	#8498,	r15	;#0x2132
    2196:	b0 12 64 34 	call	#13412		;#0x3464
    219a:	3f 40 e8 03 	mov	#1000,	r15	;#0x03e8
    219e:	b0 12 48 22 	call	#8776		;#0x2248
    21a2:	4e 43       	clr.b	r14		;
    21a4:	4f 43       	clr.b	r15		;
    21a6:	b0 12 fe 2c 	call	#11518		;#0x2cfe
    21aa:	7f 40 a4 ff 	mov.b	#-92,	r15	;#0xffa4
    21ae:	b0 12 26 27 	call	#10022		;#0x2726
    21b2:	4f 93       	cmp.b	#0,	r15	;r3 As==00
    21b4:	0d 20       	jnz	$+28     	;abs 0x21d0
    21b6:	3f 40 43 21 	mov	#8515,	r15	;#0x2143
    21ba:	b0 12 64 34 	call	#13412		;#0x3464
    21be:	b0 12 50 27 	call	#10064		;#0x2750
    21c2:	b0 12 e4 27 	call	#10212		;#0x27e4
    21c6:	3f 40 f4 01 	mov	#500,	r15	;#0x01f4
    21ca:	b0 12 48 22 	call	#8776		;#0x2248
    21ce:	f9 3f       	jmp	$-12     	;abs 0x21c2
    21d0:	3f 40 55 21 	mov	#8533,	r15	;#0x2155
    21d4:	b0 12 64 34 	call	#13412		;#0x3464
    21d8:	f4 3f       	jmp	$-22     	;abs 0x21c2
    21da:	31 50 a0 00 	add	#160,	r1	;#0x00a0
    21de:	30 40 e0 34 	br	#0x34e0		;

000021e2 <putchar>:
    21e2:	c2 93 00 11 	cmp.b	#0,	&0x1100	;r3 As==00
    21e6:	03 20       	jnz	$+8      	;abs 0x21ee
    21e8:	b0 12 84 2d 	call	#11652		;#0x2d84
    21ec:	02 3c       	jmp	$+6      	;abs 0x21f2
    21ee:	b0 12 20 2e 	call	#11808		;#0x2e20
    21f2:	0f 43       	clr	r15		;
    21f4:	30 41       	ret			

000021f6 <cpu_config>:
    21f6:	f2 40 77 00 	mov.b	#119,	&0x0056	;#0x0077
    21fa:	56 00 
    21fc:	f2 40 0f 00 	mov.b	#15,	&0x0057	;#0x000f
    2200:	57 00 
    2202:	f2 42 58 00 	mov.b	#8,	&0x0058	;r2 As==11
    2206:	f2 40 8c ff 	mov.b	#-116,	&0x0053	;#0xff8c
    220a:	53 00 
    220c:	f2 40 f0 ff 	mov.b	#-16,	&0x0022	;#0xfff0
    2210:	22 00 
    2212:	c2 43 2a 00 	mov.b	#0,	&0x002a	;r3 As==00
    2216:	f2 40 d5 ff 	mov.b	#-43,	&0x001a	;#0xffd5
    221a:	1a 00 
    221c:	f2 40 36 00 	mov.b	#54,	&0x001b	;#0x0036
    2220:	1b 00 
    2222:	f2 43 1e 00 	mov.b	#-1,	&0x001e	;r3 As==11
    2226:	f2 40 70 00 	mov.b	#112,	&0x0032	;#0x0070
    222a:	32 00 
    222c:	f2 40 70 00 	mov.b	#112,	&0x0033	;#0x0070
    2230:	33 00 
    2232:	d2 d3 19 00 	bis.b	#1,	&0x0019	;r3 As==01
    2236:	30 41       	ret			

00002238 <delayus>:
    2238:	0e 43       	clr	r14		;
    223a:	0e 9f       	cmp	r15,	r14	;
    223c:	04 2c       	jc	$+10     	;abs 0x2246
    223e:	03 43       	nop			
    2240:	1e 53       	inc	r14		;
    2242:	0e 9f       	cmp	r15,	r14	;
    2244:	fc 2b       	jnc	$-6      	;abs 0x223e
    2246:	30 41       	ret			

00002248 <delayms>:
    2248:	0b 12       	push	r11		;
    224a:	0a 12       	push	r10		;
    224c:	0a 4f       	mov	r15,	r10	;
    224e:	0b 43       	clr	r11		;
    2250:	0b 9f       	cmp	r15,	r11	;
    2252:	07 2c       	jc	$+16     	;abs 0x2262
    2254:	3f 40 5c 0d 	mov	#3420,	r15	;#0x0d5c
    2258:	b0 12 38 22 	call	#8760		;#0x2238
    225c:	1b 53       	inc	r11		;
    225e:	0b 9a       	cmp	r10,	r11	;
    2260:	f9 2b       	jnc	$-12     	;abs 0x2254
    2262:	3a 41       	pop	r10		;
    2264:	3b 41       	pop	r11		;
    2266:	30 41       	ret			

00002268 <readkeyboard>:
    2268:	4e 43       	clr.b	r14		;
    226a:	d2 b3 20 00 	bit.b	#1,	&0x0020	;r3 As==01
    226e:	02 20       	jnz	$+6      	;abs 0x2274
    2270:	7e 40 31 00 	mov.b	#49,	r14	;#0x0031
    2274:	e2 b3 20 00 	bit.b	#2,	&0x0020	;r3 As==10
    2278:	02 20       	jnz	$+6      	;abs 0x227e
    227a:	7e 40 32 00 	mov.b	#50,	r14	;#0x0032
    227e:	e2 b2 20 00 	bit.b	#4,	&0x0020	;r2 As==10
    2282:	02 20       	jnz	$+6      	;abs 0x2288
    2284:	7e 40 33 00 	mov.b	#51,	r14	;#0x0033
    2288:	f2 b2 20 00 	bit.b	#8,	&0x0020	;r2 As==11
    228c:	02 20       	jnz	$+6      	;abs 0x2292
    228e:	7e 40 34 00 	mov.b	#52,	r14	;#0x0034
    2292:	4f 4e       	mov.b	r14,	r15	;
    2294:	30 41       	ret			

00002296 <waitpress>:
    2296:	0b 12       	push	r11		;
    2298:	b0 12 68 22 	call	#8808		;#0x2268
    229c:	4b 4f       	mov.b	r15,	r11	;
    229e:	1f 43       	mov	#1,	r15	;r3 As==01
    22a0:	b0 12 48 22 	call	#8776		;#0x2248
    22a4:	4b 93       	cmp.b	#0,	r11	;r3 As==00
    22a6:	f8 27       	jz	$-14     	;abs 0x2298
    22a8:	4f 4b       	mov.b	r11,	r15	;
    22aa:	3b 41       	pop	r11		;
    22ac:	30 41       	ret			

000022ae <waitrelease>:
    22ae:	03 3c       	jmp	$+8      	;abs 0x22b6
    22b0:	1f 43       	mov	#1,	r15	;r3 As==01
    22b2:	b0 12 48 22 	call	#8776		;#0x2248
    22b6:	b0 12 68 22 	call	#8808		;#0x2268
    22ba:	4f 93       	cmp.b	#0,	r15	;r3 As==00
    22bc:	f9 23       	jnz	$-12     	;abs 0x22b0
    22be:	30 41       	ret			

000022c0 <waitkey>:
    22c0:	0b 12       	push	r11		;
    22c2:	4b 4f       	mov.b	r15,	r11	;
    22c4:	b0 12 68 22 	call	#8808		;#0x2268
    22c8:	4f 9b       	cmp.b	r11,	r15	;
    22ca:	04 24       	jz	$+10     	;abs 0x22d4
    22cc:	1f 43       	mov	#1,	r15	;r3 As==01
    22ce:	b0 12 48 22 	call	#8776		;#0x2248
    22d2:	f8 3f       	jmp	$-14     	;abs 0x22c4
    22d4:	b0 12 ae 22 	call	#8878		;#0x22ae
    22d8:	3b 41       	pop	r11		;
    22da:	30 41       	ret			

000022dc <waitanykey>:
    22dc:	0b 12       	push	r11		;
    22de:	b0 12 96 22 	call	#8854		;#0x2296
    22e2:	4b 4f       	mov.b	r15,	r11	;
    22e4:	b0 12 ae 22 	call	#8878		;#0x22ae
    22e8:	4f 4b       	mov.b	r11,	r15	;
    22ea:	3b 41       	pop	r11		;
    22ec:	30 41       	ret			

000022ee <i2c_config>:
    22ee:	f2 40 c1 ff 	mov.b	#-63,	&0x0069	;#0xffc1
    22f2:	69 00 
    22f4:	f2 40 0f 00 	mov.b	#15,	&0x0068	;#0x000f
    22f8:	68 00 
    22fa:	c2 4e 6a 00 	mov.b	r14,	&0x006a	;
    22fe:	c2 43 6b 00 	mov.b	#0,	&0x006b	;r3 As==00
    2302:	12 c3       	clrc			
    2304:	4f 10       	rrc.b	r15		;
    2306:	0e 4f       	mov	r15,	r14	;
    2308:	3e f0 7f 00 	and	#127,	r14	;#0x007f
    230c:	82 4e 1a 01 	mov	r14,	&0x011a	;
    2310:	f2 40 c0 ff 	mov.b	#-64,	&0x0069	;#0xffc0
    2314:	69 00 
    2316:	f2 d0 14 00 	bis.b	#20,	&0x0069	;#0x0014
    231a:	69 00 
    231c:	e2 b2 69 00 	bit.b	#4,	&0x0069	;r2 As==10
    2320:	fd 27       	jz	$-4      	;abs 0x231c
    2322:	30 41       	ret			

00002324 <i2c_change_slaveaddress>:
    2324:	12 c3       	clrc			
    2326:	4f 10       	rrc.b	r15		;
    2328:	0e 4f       	mov	r15,	r14	;
    232a:	3e f0 7f 00 	and	#127,	r14	;#0x007f
    232e:	82 4e 1a 01 	mov	r14,	&0x011a	;
    2332:	30 41       	ret			

00002334 <i2c_start_tx>:
    2334:	f2 d0 12 00 	bis.b	#18,	&0x0069	;#0x0012
    2338:	69 00 
    233a:	e2 b3 69 00 	bit.b	#2,	&0x0069	;r3 As==10
    233e:	fd 27       	jz	$-4      	;abs 0x233a
    2340:	30 41       	ret			

00002342 <i2c_start_rx>:
    2342:	f2 f0 ef ff 	and.b	#-17,	&0x0069	;#0xffef
    2346:	69 00 
    2348:	e2 d3 69 00 	bis.b	#2,	&0x0069	;r3 As==10
    234c:	e2 b3 69 00 	bit.b	#2,	&0x0069	;r3 As==10
    2350:	fd 27       	jz	$-4      	;abs 0x234c
    2352:	30 41       	ret			

00002354 <i2c_stop_tx>:
    2354:	f2 d0 14 00 	bis.b	#20,	&0x0069	;#0x0014
    2358:	69 00 
    235a:	e2 b2 69 00 	bit.b	#4,	&0x0069	;r2 As==10
    235e:	fd 27       	jz	$-4      	;abs 0x235a
    2360:	30 41       	ret			

00002362 <i2c_stop_rx>:
    2362:	f2 f0 ef ff 	and.b	#-17,	&0x0069	;#0xffef
    2366:	69 00 
    2368:	e2 d2 69 00 	bis.b	#4,	&0x0069	;r2 As==10
    236c:	e2 b2 69 00 	bit.b	#4,	&0x0069	;r2 As==10
    2370:	fd 27       	jz	$-4      	;abs 0x236c
    2372:	30 41       	ret			

00002374 <i2c_test>:
    2374:	f2 b0 10 00 	bit.b	#16,	&0x006d	;#0x0010
    2378:	6d 00 
    237a:	fc 23       	jnz	$-6      	;abs 0x2374
    237c:	5f 42 6d 00 	mov.b	&0x006d,r15	;0x006d
    2380:	7f f2       	and.b	#8,	r15	;r2 As==11
    2382:	7f f3       	and.b	#-1,	r15	;r3 As==11
    2384:	30 41       	ret			

00002386 <i2c_send>:
    2386:	c2 4f 6f 00 	mov.b	r15,	&0x006f	;
    238a:	f2 b2 03 00 	bit.b	#8,	&0x0003	;r2 As==11
    238e:	fd 27       	jz	$-4      	;abs 0x238a
    2390:	5f 42 6d 00 	mov.b	&0x006d,r15	;0x006d
    2394:	7f f2       	and.b	#8,	r15	;r2 As==11
    2396:	7f f3       	and.b	#-1,	r15	;r3 As==11
    2398:	30 41       	ret			

0000239a <i2c_write_dummy>:
    239a:	b0 12 34 23 	call	#9012		;#0x2334
    239e:	b0 12 54 23 	call	#9044		;#0x2354
    23a2:	b0 12 74 23 	call	#9076		;#0x2374
    23a6:	7f f3       	and.b	#-1,	r15	;r3 As==11
    23a8:	30 41       	ret			

000023aa <i2c_write_one>:
    23aa:	0b 12       	push	r11		;
    23ac:	4b 4f       	mov.b	r15,	r11	;
    23ae:	b0 12 34 23 	call	#9012		;#0x2334
    23b2:	4f 4b       	mov.b	r11,	r15	;
    23b4:	b0 12 86 23 	call	#9094		;#0x2386
    23b8:	4b 4f       	mov.b	r15,	r11	;
    23ba:	b0 12 54 23 	call	#9044		;#0x2354
    23be:	b0 12 74 23 	call	#9076		;#0x2374
    23c2:	4b 5f       	add.b	r15,	r11	;
    23c4:	4f 4b       	mov.b	r11,	r15	;
    23c6:	3b 41       	pop	r11		;
    23c8:	30 41       	ret			

000023ca <i2c_write_one_data>:
    23ca:	0b 12       	push	r11		;
    23cc:	0a 12       	push	r10		;
    23ce:	4b 4f       	mov.b	r15,	r11	;
    23d0:	4a 4e       	mov.b	r14,	r10	;
    23d2:	b0 12 34 23 	call	#9012		;#0x2334
    23d6:	4f 4b       	mov.b	r11,	r15	;
    23d8:	b0 12 86 23 	call	#9094		;#0x2386
    23dc:	4b 4f       	mov.b	r15,	r11	;
    23de:	4f 4a       	mov.b	r10,	r15	;
    23e0:	b0 12 86 23 	call	#9094		;#0x2386
    23e4:	4b 5f       	add.b	r15,	r11	;
    23e6:	b0 12 54 23 	call	#9044		;#0x2354
    23ea:	b0 12 74 23 	call	#9076		;#0x2374
    23ee:	4b 5f       	add.b	r15,	r11	;
    23f0:	4f 4b       	mov.b	r11,	r15	;
    23f2:	3a 41       	pop	r10		;
    23f4:	3b 41       	pop	r11		;
    23f6:	30 41       	ret			

000023f8 <i2c_write_one_buffer>:
    23f8:	0b 12       	push	r11		;
    23fa:	0a 12       	push	r10		;
    23fc:	09 12       	push	r9		;
    23fe:	08 12       	push	r8		;
    2400:	4b 4f       	mov.b	r15,	r11	;
    2402:	08 4e       	mov	r14,	r8	;
    2404:	49 4d       	mov.b	r13,	r9	;
    2406:	4a 43       	clr.b	r10		;
    2408:	b0 12 34 23 	call	#9012		;#0x2334
    240c:	4f 4b       	mov.b	r11,	r15	;
    240e:	b0 12 86 23 	call	#9094		;#0x2386
    2412:	4b 4f       	mov.b	r15,	r11	;
    2414:	4f 93       	cmp.b	#0,	r15	;r3 As==00
    2416:	0c 20       	jnz	$+26     	;abs 0x2430
    2418:	4f 99       	cmp.b	r9,	r15	;
    241a:	0a 2c       	jc	$+22     	;abs 0x2430
    241c:	4f 4a       	mov.b	r10,	r15	;
    241e:	0f 58       	add	r8,	r15	;
    2420:	5a 53       	inc.b	r10		;
    2422:	6f 4f       	mov.b	@r15,	r15	;
    2424:	b0 12 86 23 	call	#9094		;#0x2386
    2428:	4b 5f       	add.b	r15,	r11	;
    242a:	02 20       	jnz	$+6      	;abs 0x2430
    242c:	4a 99       	cmp.b	r9,	r10	;
    242e:	f6 2b       	jnc	$-18     	;abs 0x241c
    2430:	b0 12 54 23 	call	#9044		;#0x2354
    2434:	b0 12 74 23 	call	#9076		;#0x2374
    2438:	4b 5f       	add.b	r15,	r11	;
    243a:	4f 4b       	mov.b	r11,	r15	;
    243c:	38 41       	pop	r8		;
    243e:	39 41       	pop	r9		;
    2440:	3a 41       	pop	r10		;
    2442:	3b 41       	pop	r11		;
    2444:	30 41       	ret			

00002446 <i2c_write_two>:
    2446:	0b 12       	push	r11		;
    2448:	0a 12       	push	r10		;
    244a:	4b 4f       	mov.b	r15,	r11	;
    244c:	4a 4e       	mov.b	r14,	r10	;
    244e:	b0 12 34 23 	call	#9012		;#0x2334
    2452:	4f 4b       	mov.b	r11,	r15	;
    2454:	b0 12 86 23 	call	#9094		;#0x2386
    2458:	4b 4f       	mov.b	r15,	r11	;
    245a:	4f 4a       	mov.b	r10,	r15	;
    245c:	b0 12 86 23 	call	#9094		;#0x2386
    2460:	4b 5f       	add.b	r15,	r11	;
    2462:	b0 12 54 23 	call	#9044		;#0x2354
    2466:	b0 12 74 23 	call	#9076		;#0x2374
    246a:	4b 5f       	add.b	r15,	r11	;
    246c:	4f 4b       	mov.b	r11,	r15	;
    246e:	3a 41       	pop	r10		;
    2470:	3b 41       	pop	r11		;
    2472:	30 41       	ret			

00002474 <i2c_write_two_data>:
    2474:	0b 12       	push	r11		;
    2476:	0a 12       	push	r10		;
    2478:	09 12       	push	r9		;
    247a:	4b 4f       	mov.b	r15,	r11	;
    247c:	4a 4e       	mov.b	r14,	r10	;
    247e:	49 4d       	mov.b	r13,	r9	;
    2480:	b0 12 34 23 	call	#9012		;#0x2334
    2484:	4f 4b       	mov.b	r11,	r15	;
    2486:	b0 12 86 23 	call	#9094		;#0x2386
    248a:	4b 4f       	mov.b	r15,	r11	;
    248c:	4f 4a       	mov.b	r10,	r15	;
    248e:	b0 12 86 23 	call	#9094		;#0x2386
    2492:	4b 5f       	add.b	r15,	r11	;
    2494:	4f 49       	mov.b	r9,	r15	;
    2496:	b0 12 86 23 	call	#9094		;#0x2386
    249a:	4b 5f       	add.b	r15,	r11	;
    249c:	b0 12 54 23 	call	#9044		;#0x2354
    24a0:	b0 12 74 23 	call	#9076		;#0x2374
    24a4:	4b 5f       	add.b	r15,	r11	;
    24a6:	4f 4b       	mov.b	r11,	r15	;
    24a8:	39 41       	pop	r9		;
    24aa:	3a 41       	pop	r10		;
    24ac:	3b 41       	pop	r11		;
    24ae:	30 41       	ret			

000024b0 <i2c_write_two_buffer>:
    24b0:	0b 12       	push	r11		;
    24b2:	0a 12       	push	r10		;
    24b4:	09 12       	push	r9		;
    24b6:	08 12       	push	r8		;
    24b8:	07 12       	push	r7		;
    24ba:	4b 4f       	mov.b	r15,	r11	;
    24bc:	4a 4e       	mov.b	r14,	r10	;
    24be:	07 4d       	mov	r13,	r7	;
    24c0:	48 4c       	mov.b	r12,	r8	;
    24c2:	49 43       	clr.b	r9		;
    24c4:	b0 12 34 23 	call	#9012		;#0x2334
    24c8:	4f 4b       	mov.b	r11,	r15	;
    24ca:	b0 12 86 23 	call	#9094		;#0x2386
    24ce:	4b 4f       	mov.b	r15,	r11	;
    24d0:	4f 4a       	mov.b	r10,	r15	;
    24d2:	b0 12 86 23 	call	#9094		;#0x2386
    24d6:	4b 5f       	add.b	r15,	r11	;
    24d8:	0c 20       	jnz	$+26     	;abs 0x24f2
    24da:	4b 98       	cmp.b	r8,	r11	;
    24dc:	0a 2c       	jc	$+22     	;abs 0x24f2
    24de:	4f 49       	mov.b	r9,	r15	;
    24e0:	0f 57       	add	r7,	r15	;
    24e2:	59 53       	inc.b	r9		;
    24e4:	6f 4f       	mov.b	@r15,	r15	;
    24e6:	b0 12 86 23 	call	#9094		;#0x2386
    24ea:	4b 5f       	add.b	r15,	r11	;
    24ec:	02 20       	jnz	$+6      	;abs 0x24f2
    24ee:	49 98       	cmp.b	r8,	r9	;
    24f0:	f6 2b       	jnc	$-18     	;abs 0x24de
    24f2:	b0 12 54 23 	call	#9044		;#0x2354
    24f6:	b0 12 74 23 	call	#9076		;#0x2374
    24fa:	4b 5f       	add.b	r15,	r11	;
    24fc:	4f 4b       	mov.b	r11,	r15	;
    24fe:	37 41       	pop	r7		;
    2500:	38 41       	pop	r8		;
    2502:	39 41       	pop	r9		;
    2504:	3a 41       	pop	r10		;
    2506:	3b 41       	pop	r11		;
    2508:	30 41       	ret			

0000250a <i2c_write_buffer>:
    250a:	0b 12       	push	r11		;
    250c:	0a 12       	push	r10		;
    250e:	09 12       	push	r9		;
    2510:	08 12       	push	r8		;
    2512:	08 4f       	mov	r15,	r8	;
    2514:	49 4e       	mov.b	r14,	r9	;
    2516:	4a 43       	clr.b	r10		;
    2518:	4b 43       	clr.b	r11		;
    251a:	b0 12 34 23 	call	#9012		;#0x2334
    251e:	4b 99       	cmp.b	r9,	r11	;
    2520:	0a 2c       	jc	$+22     	;abs 0x2536
    2522:	4f 4a       	mov.b	r10,	r15	;
    2524:	0f 58       	add	r8,	r15	;
    2526:	5a 53       	inc.b	r10		;
    2528:	6f 4f       	mov.b	@r15,	r15	;
    252a:	b0 12 86 23 	call	#9094		;#0x2386
    252e:	4b 5f       	add.b	r15,	r11	;
    2530:	02 20       	jnz	$+6      	;abs 0x2536
    2532:	4a 99       	cmp.b	r9,	r10	;
    2534:	f6 2b       	jnc	$-18     	;abs 0x2522
    2536:	b0 12 54 23 	call	#9044		;#0x2354
    253a:	b0 12 74 23 	call	#9076		;#0x2374
    253e:	4b 5f       	add.b	r15,	r11	;
    2540:	4f 4b       	mov.b	r11,	r15	;
    2542:	38 41       	pop	r8		;
    2544:	39 41       	pop	r9		;
    2546:	3a 41       	pop	r10		;
    2548:	3b 41       	pop	r11		;
    254a:	30 41       	ret			

0000254c <i2c_read_data>:
    254c:	0b 12       	push	r11		;
    254e:	0a 12       	push	r10		;
    2550:	0a 4f       	mov	r15,	r10	;
    2552:	4b 43       	clr.b	r11		;
    2554:	b0 12 42 23 	call	#9026		;#0x2342
    2558:	f2 b2 6d 00 	bit.b	#8,	&0x006d	;r2 As==11
    255c:	01 24       	jz	$+4      	;abs 0x2560
    255e:	5b 43       	mov.b	#1,	r11	;r3 As==01
    2560:	e2 b2 03 00 	bit.b	#4,	&0x0003	;r2 As==10
    2564:	fd 27       	jz	$-4      	;abs 0x2560
    2566:	da 42 6e 00 	mov.b	&0x006e,0(r10)	;0x006e
    256a:	00 00 
    256c:	b0 12 62 23 	call	#9058		;#0x2362
    2570:	b0 12 74 23 	call	#9076		;#0x2374
    2574:	4b 5f       	add.b	r15,	r11	;
    2576:	4f 4b       	mov.b	r11,	r15	;
    2578:	3a 41       	pop	r10		;
    257a:	3b 41       	pop	r11		;
    257c:	30 41       	ret			

0000257e <i2c_read_buffer>:
    257e:	0b 12       	push	r11		;
    2580:	0a 12       	push	r10		;
    2582:	09 12       	push	r9		;
    2584:	08 12       	push	r8		;
    2586:	08 4f       	mov	r15,	r8	;
    2588:	49 4e       	mov.b	r14,	r9	;
    258a:	4b 43       	clr.b	r11		;
    258c:	4a 43       	clr.b	r10		;
    258e:	b0 12 42 23 	call	#9026		;#0x2342
    2592:	4a 99       	cmp.b	r9,	r10	;
    2594:	11 2c       	jc	$+36     	;abs 0x25b8
    2596:	f2 b2 6d 00 	bit.b	#8,	&0x006d	;r2 As==11
    259a:	01 24       	jz	$+4      	;abs 0x259e
    259c:	5a 53       	inc.b	r10		;
    259e:	e2 b2 03 00 	bit.b	#4,	&0x0003	;r2 As==10
    25a2:	fd 27       	jz	$-4      	;abs 0x259e
    25a4:	4f 4b       	mov.b	r11,	r15	;
    25a6:	0f 58       	add	r8,	r15	;
    25a8:	df 42 6e 00 	mov.b	&0x006e,0(r15)	;0x006e
    25ac:	00 00 
    25ae:	5b 53       	inc.b	r11		;
    25b0:	4a 93       	cmp.b	#0,	r10	;r3 As==00
    25b2:	02 20       	jnz	$+6      	;abs 0x25b8
    25b4:	4b 99       	cmp.b	r9,	r11	;
    25b6:	ef 2b       	jnc	$-32     	;abs 0x2596
    25b8:	b0 12 62 23 	call	#9058		;#0x2362
    25bc:	b0 12 74 23 	call	#9076		;#0x2374
    25c0:	4a 5f       	add.b	r15,	r10	;
    25c2:	4f 4a       	mov.b	r10,	r15	;
    25c4:	38 41       	pop	r8		;
    25c6:	39 41       	pop	r9		;
    25c8:	3a 41       	pop	r10		;
    25ca:	3b 41       	pop	r11		;
    25cc:	30 41       	ret			

000025ce <i2c_wread_one_data>:
    25ce:	0b 12       	push	r11		;
    25d0:	0a 12       	push	r10		;
    25d2:	4b 4f       	mov.b	r15,	r11	;
    25d4:	0a 4e       	mov	r14,	r10	;
    25d6:	b0 12 34 23 	call	#9012		;#0x2334
    25da:	4f 4b       	mov.b	r11,	r15	;
    25dc:	b0 12 86 23 	call	#9094		;#0x2386
    25e0:	4b 4f       	mov.b	r15,	r11	;
    25e2:	b0 12 42 23 	call	#9026		;#0x2342
    25e6:	f2 b2 6d 00 	bit.b	#8,	&0x006d	;r2 As==11
    25ea:	01 24       	jz	$+4      	;abs 0x25ee
    25ec:	5b 53       	inc.b	r11		;
    25ee:	e2 b2 03 00 	bit.b	#4,	&0x0003	;r2 As==10
    25f2:	fd 27       	jz	$-4      	;abs 0x25ee
    25f4:	da 42 6e 00 	mov.b	&0x006e,0(r10)	;0x006e
    25f8:	00 00 
    25fa:	b0 12 62 23 	call	#9058		;#0x2362
    25fe:	b0 12 74 23 	call	#9076		;#0x2374
    2602:	4b 5f       	add.b	r15,	r11	;
    2604:	4f 4b       	mov.b	r11,	r15	;
    2606:	3a 41       	pop	r10		;
    2608:	3b 41       	pop	r11		;
    260a:	30 41       	ret			

0000260c <i2c_wread_one_buffer>:
    260c:	0b 12       	push	r11		;
    260e:	0a 12       	push	r10		;
    2610:	09 12       	push	r9		;
    2612:	08 12       	push	r8		;
    2614:	4b 4f       	mov.b	r15,	r11	;
    2616:	08 4e       	mov	r14,	r8	;
    2618:	49 4d       	mov.b	r13,	r9	;
    261a:	4a 43       	clr.b	r10		;
    261c:	b0 12 34 23 	call	#9012		;#0x2334
    2620:	4f 4b       	mov.b	r11,	r15	;
    2622:	b0 12 86 23 	call	#9094		;#0x2386
    2626:	4b 4f       	mov.b	r15,	r11	;
    2628:	b0 12 42 23 	call	#9026		;#0x2342
    262c:	4b 93       	cmp.b	#0,	r11	;r3 As==00
    262e:	13 20       	jnz	$+40     	;abs 0x2656
    2630:	4b 99       	cmp.b	r9,	r11	;
    2632:	11 2c       	jc	$+36     	;abs 0x2656
    2634:	f2 b2 6d 00 	bit.b	#8,	&0x006d	;r2 As==11
    2638:	01 24       	jz	$+4      	;abs 0x263c
    263a:	5b 53       	inc.b	r11		;
    263c:	e2 b2 03 00 	bit.b	#4,	&0x0003	;r2 As==10
    2640:	fd 27       	jz	$-4      	;abs 0x263c
    2642:	4f 4a       	mov.b	r10,	r15	;
    2644:	0f 58       	add	r8,	r15	;
    2646:	df 42 6e 00 	mov.b	&0x006e,0(r15)	;0x006e
    264a:	00 00 
    264c:	5a 53       	inc.b	r10		;
    264e:	4b 93       	cmp.b	#0,	r11	;r3 As==00
    2650:	02 20       	jnz	$+6      	;abs 0x2656
    2652:	4a 99       	cmp.b	r9,	r10	;
    2654:	ef 2b       	jnc	$-32     	;abs 0x2634
    2656:	b0 12 62 23 	call	#9058		;#0x2362
    265a:	b0 12 74 23 	call	#9076		;#0x2374
    265e:	4b 5f       	add.b	r15,	r11	;
    2660:	4f 4b       	mov.b	r11,	r15	;
    2662:	38 41       	pop	r8		;
    2664:	39 41       	pop	r9		;
    2666:	3a 41       	pop	r10		;
    2668:	3b 41       	pop	r11		;
    266a:	30 41       	ret			

0000266c <i2c_wread_two_data>:
    266c:	0b 12       	push	r11		;
    266e:	0a 12       	push	r10		;
    2670:	09 12       	push	r9		;
    2672:	4b 4f       	mov.b	r15,	r11	;
    2674:	4a 4e       	mov.b	r14,	r10	;
    2676:	09 4d       	mov	r13,	r9	;
    2678:	b0 12 34 23 	call	#9012		;#0x2334
    267c:	4f 4b       	mov.b	r11,	r15	;
    267e:	b0 12 86 23 	call	#9094		;#0x2386
    2682:	4b 4f       	mov.b	r15,	r11	;
    2684:	4f 4a       	mov.b	r10,	r15	;
    2686:	b0 12 86 23 	call	#9094		;#0x2386
    268a:	4b 5f       	add.b	r15,	r11	;
    268c:	b0 12 42 23 	call	#9026		;#0x2342
    2690:	f2 b2 6d 00 	bit.b	#8,	&0x006d	;r2 As==11
    2694:	01 24       	jz	$+4      	;abs 0x2698
    2696:	5b 53       	inc.b	r11		;
    2698:	e2 b2 03 00 	bit.b	#4,	&0x0003	;r2 As==10
    269c:	fd 27       	jz	$-4      	;abs 0x2698
    269e:	d9 42 6e 00 	mov.b	&0x006e,0(r9)	;0x006e
    26a2:	00 00 
    26a4:	b0 12 62 23 	call	#9058		;#0x2362
    26a8:	b0 12 74 23 	call	#9076		;#0x2374
    26ac:	4b 5f       	add.b	r15,	r11	;
    26ae:	4f 4b       	mov.b	r11,	r15	;
    26b0:	39 41       	pop	r9		;
    26b2:	3a 41       	pop	r10		;
    26b4:	3b 41       	pop	r11		;
    26b6:	30 41       	ret			

000026b8 <i2c_wread_two_buffer>:
    26b8:	0b 12       	push	r11		;
    26ba:	0a 12       	push	r10		;
    26bc:	09 12       	push	r9		;
    26be:	08 12       	push	r8		;
    26c0:	07 12       	push	r7		;
    26c2:	4b 4f       	mov.b	r15,	r11	;
    26c4:	4a 4e       	mov.b	r14,	r10	;
    26c6:	07 4d       	mov	r13,	r7	;
    26c8:	48 4c       	mov.b	r12,	r8	;
    26ca:	49 43       	clr.b	r9		;
    26cc:	b0 12 34 23 	call	#9012		;#0x2334
    26d0:	4f 4b       	mov.b	r11,	r15	;
    26d2:	b0 12 86 23 	call	#9094		;#0x2386
    26d6:	4b 4f       	mov.b	r15,	r11	;
    26d8:	4f 4a       	mov.b	r10,	r15	;
    26da:	b0 12 86 23 	call	#9094		;#0x2386
    26de:	4b 5f       	add.b	r15,	r11	;
    26e0:	b0 12 42 23 	call	#9026		;#0x2342
    26e4:	4b 93       	cmp.b	#0,	r11	;r3 As==00
    26e6:	13 20       	jnz	$+40     	;abs 0x270e
    26e8:	4b 98       	cmp.b	r8,	r11	;
    26ea:	11 2c       	jc	$+36     	;abs 0x270e
    26ec:	f2 b2 6d 00 	bit.b	#8,	&0x006d	;r2 As==11
    26f0:	01 24       	jz	$+4      	;abs 0x26f4
    26f2:	5b 53       	inc.b	r11		;
    26f4:	e2 b2 03 00 	bit.b	#4,	&0x0003	;r2 As==10
    26f8:	fd 27       	jz	$-4      	;abs 0x26f4
    26fa:	4f 49       	mov.b	r9,	r15	;
    26fc:	0f 57       	add	r7,	r15	;
    26fe:	df 42 6e 00 	mov.b	&0x006e,0(r15)	;0x006e
    2702:	00 00 
    2704:	59 53       	inc.b	r9		;
    2706:	4b 93       	cmp.b	#0,	r11	;r3 As==00
    2708:	02 20       	jnz	$+6      	;abs 0x270e
    270a:	49 98       	cmp.b	r8,	r9	;
    270c:	ef 2b       	jnc	$-32     	;abs 0x26ec
    270e:	b0 12 62 23 	call	#9058		;#0x2362
    2712:	b0 12 74 23 	call	#9076		;#0x2374
    2716:	4b 5f       	add.b	r15,	r11	;
    2718:	4f 4b       	mov.b	r11,	r15	;
    271a:	37 41       	pop	r7		;
    271c:	38 41       	pop	r8		;
    271e:	39 41       	pop	r9		;
    2720:	3a 41       	pop	r10		;
    2722:	3b 41       	pop	r11		;
    2724:	30 41       	ret			

00002726 <find_device>:
    2726:	b0 12 24 23 	call	#8996		;#0x2324
    272a:	b0 12 9a 23 	call	#9114		;#0x239a
    272e:	7f f3       	and.b	#-1,	r15	;r3 As==11
    2730:	30 41       	ret			

00002732 <nunchuck_decode>:
    2732:	4d 43       	clr.b	r13		;
    2734:	0e 4f       	mov	r15,	r14	;
    2736:	6f 4e       	mov.b	@r14,	r15	;
    2738:	7f e0 17 00 	xor.b	#23,	r15	;#0x0017
    273c:	7f 50 17 00 	add.b	#23,	r15	;#0x0017
    2740:	ce 4f 00 00 	mov.b	r15,	0(r14)	;
    2744:	1e 53       	inc	r14		;
    2746:	5d 53       	inc.b	r13		;
    2748:	7d 90 06 00 	cmp.b	#6,	r13	;#0x0006
    274c:	f4 2b       	jnc	$-22     	;abs 0x2736
    274e:	30 41       	ret			

00002750 <nunchuck_init>:
    2750:	0b 12       	push	r11		;
    2752:	31 80 18 00 	sub	#24,	r1	;#0x0018
    2756:	7e 40 55 00 	mov.b	#85,	r14	;#0x0055
    275a:	7f 40 f0 ff 	mov.b	#-16,	r15	;#0xfff0
    275e:	b0 12 ca 23 	call	#9162		;#0x23ca
    2762:	4e 43       	clr.b	r14		;
    2764:	7f 40 fb ff 	mov.b	#-5,	r15	;#0xfffb
    2768:	b0 12 ca 23 	call	#9162		;#0x23ca
    276c:	7f 40 fa ff 	mov.b	#-6,	r15	;#0xfffa
    2770:	b0 12 aa 23 	call	#9130		;#0x23aa
    2774:	7e 40 06 00 	mov.b	#6,	r14	;#0x0006
    2778:	0f 41       	mov	r1,	r15	;
    277a:	b0 12 7e 25 	call	#9598		;#0x257e
    277e:	7e 40 aa ff 	mov.b	#-86,	r14	;#0xffaa
    2782:	7f 40 f0 ff 	mov.b	#-16,	r15	;#0xfff0
    2786:	b0 12 ca 23 	call	#9162		;#0x23ca
    278a:	7f 40 20 00 	mov.b	#32,	r15	;#0x0020
    278e:	b0 12 aa 23 	call	#9130		;#0x23aa
    2792:	0b 41       	mov	r1,	r11	;
    2794:	3b 52       	add	#8,	r11	;r2 As==11
    2796:	7e 42       	mov.b	#8,	r14	;r2 As==11
    2798:	0f 4b       	mov	r11,	r15	;
    279a:	b0 12 7e 25 	call	#9598		;#0x257e
    279e:	7e 40 06 00 	mov.b	#6,	r14	;#0x0006
    27a2:	0f 4b       	mov	r11,	r15	;
    27a4:	b0 12 7e 25 	call	#9598		;#0x257e
    27a8:	7f 40 30 00 	mov.b	#48,	r15	;#0x0030
    27ac:	b0 12 aa 23 	call	#9130		;#0x23aa
    27b0:	7e 42       	mov.b	#8,	r14	;r2 As==11
    27b2:	0f 41       	mov	r1,	r15	;
    27b4:	b0 12 7e 25 	call	#9598		;#0x257e
    27b8:	7e 40 06 00 	mov.b	#6,	r14	;#0x0006
    27bc:	0f 41       	mov	r1,	r15	;
    27be:	b0 12 7e 25 	call	#9598		;#0x257e
    27c2:	0f 43       	clr	r15		;
    27c4:	31 50 18 00 	add	#24,	r1	;#0x0018
    27c8:	3b 41       	pop	r11		;
    27ca:	30 41       	ret			
    27cc:	25 30       	jn	$+76     	;abs 0x2818
    27ce:	32 58       	add	@r8+,	r2	;
    27d0:	0d 0a       	.word	0x0a0d;	????
    27d2:	00 25       	jz	$+514    	;abs 0x29d4
    27d4:	64 3a       	jl	$-822    	;abs 0x249e
    27d6:	20 20       	jnz	$+66     	;abs 0x2818
    27d8:	25 64       	addc	@r4,	r5	;
    27da:	20 2d       	jc	$+578    	;abs 0x2a1c
    27dc:	20 25       	jz	$+578    	;abs 0x2a1e
    27de:	64 20       	jnz	$+202    	;abs 0x28a8
    27e0:	0d 0a       	.word	0x0a0d;	????
	...

000027e4 <nunchuck_getdata>:
    27e4:	0b 12       	push	r11		;
    27e6:	0a 12       	push	r10		;
    27e8:	09 12       	push	r9		;
    27ea:	31 82       	sub	#8,	r1	;r2 As==11
    27ec:	4f 43       	clr.b	r15		;
    27ee:	b0 12 aa 23 	call	#9130		;#0x23aa
    27f2:	7e 40 07 00 	mov.b	#7,	r14	;#0x0007
    27f6:	0f 41       	mov	r1,	r15	;
    27f8:	b0 12 7e 25 	call	#9598		;#0x257e
    27fc:	5f 41 06 00 	mov.b	6(r1),	r15	;
    2800:	49 4f       	mov.b	r15,	r9	;
    2802:	79 f0 03 00 	and.b	#3,	r9	;#0x0003
    2806:	4a 4f       	mov.b	r15,	r10	;
    2808:	5a f3       	and.b	#1,	r10	;r3 As==01
    280a:	6f b3       	bit.b	#2,	r15	;r3 As==10
    280c:	4b 43       	clr.b	r11		;
    280e:	4b 63       	adc.b	r11		;
    2810:	5e 43       	mov.b	#1,	r14	;r3 As==01
    2812:	4f 43       	clr.b	r15		;
    2814:	b0 12 fe 2c 	call	#11518		;#0x2cfe
    2818:	5f 41 01 00 	mov.b	1(r1),	r15	;
    281c:	0f 12       	push	r15		;
    281e:	30 12 cc 27 	push	#10188		;#0x27cc
    2822:	b0 12 2e 2e 	call	#11822		;#0x2e2e
    2826:	5f 41 06 00 	mov.b	6(r1),	r15	;
    282a:	0f 12       	push	r15		;
    282c:	30 12 cc 27 	push	#10188		;#0x27cc
    2830:	b0 12 2e 2e 	call	#11822		;#0x2e2e
    2834:	5f 41 0b 00 	mov.b	11(r1),	r15	;
    2838:	0f 12       	push	r15		;
    283a:	30 12 cc 27 	push	#10188		;#0x27cc
    283e:	b0 12 2e 2e 	call	#11822		;#0x2e2e
    2842:	5f 41 10 00 	mov.b	16(r1),	r15	;
    2846:	0f 12       	push	r15		;
    2848:	30 12 cc 27 	push	#10188		;#0x27cc
    284c:	b0 12 2e 2e 	call	#11822		;#0x2e2e
    2850:	5f 41 15 00 	mov.b	21(r1),	r15	;
    2854:	0f 12       	push	r15		;
    2856:	30 12 cc 27 	push	#10188		;#0x27cc
    285a:	b0 12 2e 2e 	call	#11822		;#0x2e2e
    285e:	5f 41 1a 00 	mov.b	26(r1),	r15	;
    2862:	0f 12       	push	r15		;
    2864:	30 12 cc 27 	push	#10188		;#0x27cc
    2868:	b0 12 2e 2e 	call	#11822		;#0x2e2e
    286c:	4f 4b       	mov.b	r11,	r15	;
    286e:	0f 12       	push	r15		;
    2870:	4f 4a       	mov.b	r10,	r15	;
    2872:	0f 12       	push	r15		;
    2874:	4f 49       	mov.b	r9,	r15	;
    2876:	0f 12       	push	r15		;
    2878:	30 12 d3 27 	push	#10195		;#0x27d3
    287c:	b0 12 2e 2e 	call	#11822		;#0x2e2e
    2880:	31 50 20 00 	add	#32,	r1	;#0x0020
    2884:	0f 43       	clr	r15		;
    2886:	31 52       	add	#8,	r1	;r2 As==11
    2888:	39 41       	pop	r9		;
    288a:	3a 41       	pop	r10		;
    288c:	3b 41       	pop	r11		;
    288e:	30 41       	ret			

00002890 <asciitable>:
    2890:	00 00       	beq			
    2892:	00 00       	beq			
    2894:	00 3e       	.word	0x3e00;	????
    2896:	0a 34       	jge	$+22     	;abs 0x28ac
    2898:	00 3e       	.word	0x3e00;	????
    289a:	18 3e       	jmp	$-974    	;abs 0x24cc
    289c:	00 3e       	.word	0x3e00;	????
    289e:	22 00       	.word	0x0022;	????
    28a0:	3e 20       	jnz	$+126    	;abs 0x291e
    28a2:	20 00       	.word	0x0020;	????
    28a4:	22 1c       	.word	0x1c22;	????
    28a6:	00 24       	jz	$+2      	;abs 0x28a8
    28a8:	2a 00       	.word	0x002a;	????
    28aa:	08 38       	jl	$+18     	;abs 0x28bc
    28ac:	38 08       	.word	0x0838;	????
    28ae:	1c 22       	jnz	$-966    	;abs 0x24e8
    28b0:	22 22       	jnz	$-954    	;abs 0x24f6
    28b2:	1c 00       	.word	0x001c;	????
    28b4:	38 38       	jl	$+114    	;abs 0x2926
    28b6:	44 82       	sub.b	r2,	r4	;
    28b8:	1c 3e       	jmp	$-966    	;abs 0x24f2
    28ba:	62 62       	addc.b	#4,	r2	;r2 As==10
    28bc:	32 2e       	jc	$-922    	;abs 0x2522
    28be:	26 23       	jnz	$-434    	;abs 0x270c
    28c0:	23 22       	jnz	$-952    	;abs 0x2508
    28c2:	00 00       	beq			
    28c4:	00 00       	beq			
    28c6:	00 1c       	.word	0x1c00;	????
    28c8:	3e 36       	jge	$-898    	;abs 0x2546
    28ca:	22 36       	jge	$-954    	;abs 0x2510
    28cc:	3e 3e       	jmp	$-898    	;abs 0x254a
    28ce:	36 36       	jge	$-914    	;abs 0x253c
    28d0:	36 00       	.word	0x0036;	????
    28d2:	00 00       	beq			
    28d4:	00 00       	beq			
    28d6:	18 08       	.word	0x0818;	????
    28d8:	1c 22       	jnz	$-966    	;abs 0x2512
    28da:	22 63       	addc	#2,	r2	;r3 As==10
    28dc:	55 4d 55 6b 	mov.b	27477(r13),r5	;
    28e0:	00 3e       	.word	0x3e00;	????
    28e2:	0a 04       	.word	0x040a;	????
    28e4:	78 00       	.word	0x0078;	????
    28e6:	3e 0a       	.word	0x0a3e;	????
    28e8:	04 78       	subc	r8,	r4	;
    28ea:	00 38       	jl	$+2      	;abs 0x28ec
    28ec:	44 5f       	add.b	r15,	r4	;
    28ee:	4e 00       	.word	0x004e;	????
    28f0:	38 44       	mov	@r4+,	r8	;
    28f2:	44 5f       	add.b	r15,	r4	;
    28f4:	00 3c       	jmp	$+2      	;abs 0x28f6
    28f6:	3c 3c       	jmp	$+122    	;abs 0x2970
    28f8:	3c 00       	.word	0x003c;	????
    28fa:	3e 0a       	.word	0x0a3e;	????
    28fc:	04 78       	subc	r8,	r4	;
    28fe:	00 3e       	.word	0x3e00;	????
    2900:	0a 04       	.word	0x040a;	????
    2902:	78 44       	mov.b	@r4+,	r8	;
    2904:	40 38       	jl	$+130    	;abs 0x2986
    2906:	00 04       	.word	0x0400;	????
    2908:	00 7f       	subc	r15,	r0	;
    290a:	3e 1c       	.word	0x1c3e;	????
    290c:	08 08       	.word	0x0808;	????
    290e:	08 2a       	jnc	$-1006   	;abs 0x2520
    2910:	1c 08       	.word	0x081c;	????
    2912:	08 1c       	.word	0x1c08;	????
    2914:	2a 08       	.word	0x082a;	????
    2916:	08 08       	.word	0x0808;	????
    2918:	08 2a       	jnc	$-1006   	;abs 0x252a
    291a:	08 08       	.word	0x0808;	????
    291c:	00 3c       	jmp	$+2      	;abs 0x291e
    291e:	20 00       	.word	0x0020;	????
    2920:	00 08       	.word	0x0800;	????
    2922:	14 00       	.word	0x0014;	????
    2924:	14 08       	.word	0x0814;	????
    2926:	08 0c       	.word	0x0c08;	????
    2928:	0e 0c       	.word	0x0c0e;	????
    292a:	08 08       	.word	0x0808;	????
    292c:	18 38       	jl	$+50     	;abs 0x295e
    292e:	18 08       	.word	0x0818;	????
    2930:	00 00       	beq			
    2932:	00 00       	beq			
    2934:	00 00       	beq			
    2936:	00 5f       	add	r15,	r0	;
    2938:	00 00       	beq			
    293a:	00 07       	.word	0x0700;	????
    293c:	00 07       	.word	0x0700;	????
    293e:	00 14       	.word	0x1400;	????
    2940:	7f 14       	.word	0x147f;	????
    2942:	7f 14       	.word	0x147f;	????
    2944:	24 2a       	jnc	$-950    	;abs 0x258e
    2946:	7f 2a       	jnc	$-768    	;abs 0x2646
    2948:	12 23       	jnz	$-474    	;abs 0x276e
    294a:	13 08       	.word	0x0813;	????
    294c:	64 62       	addc.b	#4,	r4	;r2 As==10
    294e:	36 49       	mov	@r9+,	r6	;
    2950:	55 22       	jnz	$-852    	;abs 0x25fc
    2952:	50 00       	.word	0x0050;	????
    2954:	05 03       	.word	0x0305;	????
    2956:	00 00       	beq			
    2958:	00 1c       	.word	0x1c00;	????
    295a:	22 41       	mov	@r1,	r2	;
    295c:	00 00       	beq			
    295e:	41 22       	jnz	$-892    	;abs 0x25e2
    2960:	1c 00       	.word	0x001c;	????
    2962:	14 08       	.word	0x0814;	????
    2964:	3e 08       	.word	0x083e;	????
    2966:	14 08       	.word	0x0814;	????
    2968:	08 3e       	jmp	$-1006   	;abs 0x257a
    296a:	08 08       	.word	0x0808;	????
    296c:	00 50       	rla	r0		;
    296e:	30 00       	.word	0x0030;	????
    2970:	00 08       	.word	0x0800;	????
    2972:	08 08       	.word	0x0808;	????
    2974:	08 08       	.word	0x0808;	????
    2976:	00 60       	rlc	r0		;
    2978:	60 00       	.word	0x0060;	????
    297a:	00 20       	jnz	$+2      	;abs 0x297c
    297c:	10 08       	.word	0x0810;	????
    297e:	04 02       	.word	0x0204;	????
    2980:	3e 51       	add	@r1+,	r14	;
    2982:	49 45       	mov.b	r5,	r9	;
    2984:	3e 00       	.word	0x003e;	????
    2986:	42 7f       	subc.b	r15,	r2	;
    2988:	40 00       	.word	0x0040;	????
    298a:	42 61       	addc.b	r1,	r2	;
    298c:	51 49 46 21 	mov.b	8518(r9),r1	;
    2990:	41 45       	mov.b	r5,	r1	;
    2992:	4b 31       	jn	$+664    	;abs 0x2c2a
    2994:	18 14       	.word	0x1418;	????
    2996:	12 7f 10 27 	subc	10000(r15),r2	;
    299a:	45 45       	mov.b	r5,	r5	;
    299c:	45 39       	jl	$+652    	;abs 0x2c28
    299e:	3c 4a       	mov	@r10+,	r12	;
    29a0:	49 49       	mov.b	r9,	r9	;
    29a2:	30 01       	.word	0x0130;	????
    29a4:	71 09       	.word	0x0971;	????
    29a6:	05 03       	.word	0x0305;	????
    29a8:	36 49       	mov	@r9+,	r6	;
    29aa:	49 49       	mov.b	r9,	r9	;
    29ac:	36 06       	.word	0x0636;	????
    29ae:	49 49       	mov.b	r9,	r9	;
    29b0:	29 1e       	.word	0x1e29;	????
    29b2:	00 36       	.word	0x3600;	????
    29b4:	36 00       	.word	0x0036;	????
    29b6:	00 00       	beq			
    29b8:	56 36       	jge	$-850    	;abs 0x2666
    29ba:	00 00       	beq			
    29bc:	08 14       	.word	0x1408;	????
    29be:	22 41       	mov	@r1,	r2	;
    29c0:	00 14       	.word	0x1400;	????
    29c2:	14 14       	.word	0x1414;	????
    29c4:	14 14       	.word	0x1414;	????
    29c6:	00 41       	br	r1		;
    29c8:	22 14       	.word	0x1422;	????
    29ca:	08 02       	.word	0x0208;	????
    29cc:	01 51       	rla	r1		;
    29ce:	09 06       	.word	0x0609;	????
    29d0:	32 49       	mov	@r9+,	r2	;
    29d2:	79 41       	pop.b	r9		;
    29d4:	3e 7e       	subc	@r14+,	r14	;
    29d6:	11 11 11 7e 	rra	32273(r1)		;
    29da:	7f 49       	mov.b	@r9+,	r15	;
    29dc:	49 49       	mov.b	r9,	r9	;
    29de:	36 3e       	jmp	$-914    	;abs 0x264c
    29e0:	41 41       	mov.b	r1,	r1	;
    29e2:	41 22       	jnz	$-892    	;abs 0x2666
    29e4:	7f 41       	pop.b	r15		;
    29e6:	41 22       	jnz	$-892    	;abs 0x266a
    29e8:	1c 7f 49 49 	subc	18761(r15),r12	;
    29ec:	49 41       	mov.b	r1,	r9	;
    29ee:	7f 09       	.word	0x097f;	????
    29f0:	09 09       	.word	0x0909;	????
    29f2:	01 3e       	jmp	$-1020   	;abs 0x25f6
    29f4:	41 49       	mov.b	r9,	r1	;
    29f6:	49 7a       	subc.b	r10,	r9	;
    29f8:	7f 08       	.word	0x087f;	????
    29fa:	08 08       	.word	0x0808;	????
    29fc:	7f 00       	.word	0x007f;	????
    29fe:	41 7f       	subc.b	r15,	r1	;
    2a00:	41 00       	.word	0x0041;	????
    2a02:	20 40       	br	@r0		;
    2a04:	41 3f       	jmp	$-380    	;abs 0x2888
    2a06:	01 7f       	subc	r15,	r1	;
    2a08:	08 14       	.word	0x1408;	????
    2a0a:	22 41       	mov	@r1,	r2	;
    2a0c:	7f 40 40 40 	mov.b	#16448,	r15	;#0x4040
    2a10:	40 7f       	subc.b	r15,	r0	;
    2a12:	02 0c       	.word	0x0c02;	????
    2a14:	02 7f       	subc	r15,	r2	;
    2a16:	7f 04       	.word	0x047f;	????
    2a18:	08 10       	rrc	r8		;
    2a1a:	7f 3e       	jmp	$-768    	;abs 0x271a
    2a1c:	41 41       	mov.b	r1,	r1	;
    2a1e:	41 3e       	jmp	$-892    	;abs 0x26a2
    2a20:	7f 09       	.word	0x097f;	????
    2a22:	09 09       	.word	0x0909;	????
    2a24:	06 3e       	jmp	$-1010   	;abs 0x2632
    2a26:	41 51       	rla.b	r1		;
    2a28:	21 5e       	add	@r14,	r1	;
    2a2a:	7f 09       	.word	0x097f;	????
    2a2c:	19 29       	jnc	$+564    	;abs 0x2c60
    2a2e:	46 46       	mov.b	r6,	r6	;
    2a30:	49 49       	mov.b	r9,	r9	;
    2a32:	49 31       	jn	$+660    	;abs 0x2cc6
    2a34:	01 01       	.word	0x0101;	????
    2a36:	7f 01       	.word	0x017f;	????
    2a38:	01 3f       	jmp	$-508    	;abs 0x283c
    2a3a:	40 40       	br	r0		;
    2a3c:	40 3f       	jmp	$-382    	;abs 0x28be
    2a3e:	1f 20       	jnz	$+64     	;abs 0x2a7e
    2a40:	40 20       	jnz	$+130    	;abs 0x2ac2
    2a42:	1f 3f       	jmp	$-448    	;abs 0x2882
    2a44:	40 38       	jl	$+130    	;abs 0x2ac6
    2a46:	40 3f       	jmp	$-382    	;abs 0x28c8
    2a48:	63 14       	.word	0x1463;	????
    2a4a:	08 14       	.word	0x1408;	????
    2a4c:	63 07       	.word	0x0763;	????
    2a4e:	08 70       	subc	r0,	r8	;
    2a50:	08 07       	.word	0x0708;	????
    2a52:	61 51       	add.b	@r1,	r1	;
    2a54:	49 45       	mov.b	r5,	r9	;
    2a56:	43 00       	.word	0x0043;	????
    2a58:	7f 41       	pop.b	r15		;
    2a5a:	41 00       	.word	0x0041;	????
    2a5c:	02 04       	.word	0x0402;	????
    2a5e:	08 10       	rrc	r8		;
    2a60:	20 00       	.word	0x0020;	????
    2a62:	41 41       	mov.b	r1,	r1	;
    2a64:	7f 00       	.word	0x007f;	????
    2a66:	04 02       	.word	0x0204;	????
    2a68:	01 02       	.word	0x0201;	????
    2a6a:	04 40       	mov	r0,	r4	;
    2a6c:	40 40       	br	r0		;
    2a6e:	40 40       	br	r0		;
    2a70:	00 01       	.word	0x0100;	????
    2a72:	02 04       	.word	0x0402;	????
    2a74:	00 20       	jnz	$+2      	;abs 0x2a76
    2a76:	54 54 54 78 	add.b	30804(r4),r4	;
    2a7a:	7f 48       	mov.b	@r8+,	r15	;
    2a7c:	44 44       	mov.b	r4,	r4	;
    2a7e:	38 38       	jl	$+114    	;abs 0x2af0
    2a80:	44 44       	mov.b	r4,	r4	;
    2a82:	44 20       	jnz	$+138    	;abs 0x2b0c
    2a84:	38 44       	mov	@r4+,	r8	;
    2a86:	44 48       	mov.b	r8,	r4	;
    2a88:	7f 38       	jl	$+256    	;abs 0x2b88
    2a8a:	54 54 54 18 	add.b	6228(r4),r4	;
    2a8e:	08 7e       	subc	r14,	r8	;
    2a90:	09 01       	.word	0x0109;	????
    2a92:	02 0c       	.word	0x0c02;	????
    2a94:	52 52 52 3e 	add.b	&0x3e52,r2	;0x3e52
    2a98:	7f 08       	.word	0x087f;	????
    2a9a:	04 04       	.word	0x0404;	????
    2a9c:	78 00       	.word	0x0078;	????
    2a9e:	44 7d       	subc.b	r13,	r4	;
    2aa0:	40 00       	.word	0x0040;	????
    2aa2:	20 40       	br	@r0		;
    2aa4:	44 3d       	jmp	$+650    	;abs 0x2d2e
    2aa6:	00 7f       	subc	r15,	r0	;
    2aa8:	10 28       	jnc	$+34     	;abs 0x2aca
    2aaa:	44 00       	.word	0x0044;	????
    2aac:	00 41       	br	r1		;
    2aae:	7f 40 00 7c 	mov.b	#31744,	r15	;#0x7c00
    2ab2:	04 18       	.word	0x1804;	????
    2ab4:	04 78       	subc	r8,	r4	;
    2ab6:	7c 08       	.word	0x087c;	????
    2ab8:	04 04       	.word	0x0404;	????
    2aba:	78 38       	jl	$+242    	;abs 0x2bac
    2abc:	44 44       	mov.b	r4,	r4	;
    2abe:	44 38       	jl	$+138    	;abs 0x2b48
    2ac0:	7c 14       	.word	0x147c;	????
    2ac2:	14 14       	.word	0x1414;	????
    2ac4:	08 08       	.word	0x0808;	????
    2ac6:	14 14       	.word	0x1414;	????
    2ac8:	18 7c 7c 08 	subc	2172(r12),r8	;
    2acc:	04 04       	.word	0x0404;	????
    2ace:	08 48       	mov	r8,	r8	;
    2ad0:	54 54 54 20 	add.b	8276(r4),r4	;
    2ad4:	04 3f       	jmp	$-502    	;abs 0x28de
    2ad6:	44 40       	mov.b	r0,	r4	;
    2ad8:	20 3c       	jmp	$+66     	;abs 0x2b1a
    2ada:	40 40       	br	r0		;
    2adc:	20 7c       	subc	@r12,	r0	;
    2ade:	1c 20       	jnz	$+58     	;abs 0x2b18
    2ae0:	40 20       	jnz	$+130    	;abs 0x2b62
    2ae2:	1c 3c       	jmp	$+58     	;abs 0x2b1c
    2ae4:	40 30       	jn	$+130    	;abs 0x2b66
    2ae6:	40 3c       	jmp	$+130    	;abs 0x2b68
    2ae8:	44 28       	jnc	$+138    	;abs 0x2b72
    2aea:	10 28       	jnc	$+34     	;abs 0x2b0c
    2aec:	44 0c       	.word	0x0c44;	????
    2aee:	50 50 50 3c 	add.b	0x3c50,	r0	;PC rel. 0x6740
    2af2:	44 64       	rlc.b	r4		;
    2af4:	54 4c 44 00 	mov.b	68(r12),r4	;
    2af8:	00 36       	.word	0x3600;	????
    2afa:	41 00       	.word	0x0041;	????
    2afc:	00 00       	beq			
    2afe:	7f 00       	.word	0x007f;	????
    2b00:	00 00       	beq			
    2b02:	41 36       	jge	$-892    	;abs 0x2786
    2b04:	08 00       	.word	0x0008;	????
    2b06:	10 08       	.word	0x0810;	????
    2b08:	08 10       	rrc	r8		;
    2b0a:	08 78       	subc	r8,	r8	;
    2b0c:	46 41       	mov.b	r1,	r6	;
    2b0e:	46 78       	subc.b	r8,	r6	;

00002b10 <mask>:
    2b10:	80 40 20 10 	mov	r0,	0x1020	; PC rel. 0x3b32
    2b14:	08 04       	.word	0x0408;	????
    2b16:	02 01       	.word	0x0102;	????

00002b18 <lcd_wrcommand>:
    2b18:	0b 12       	push	r11		;
    2b1a:	0a 12       	push	r10		;
    2b1c:	09 12       	push	r9		;
    2b1e:	4b 4f       	mov.b	r15,	r11	;
    2b20:	3f 40 21 00 	mov	#33,	r15	;#0x0021
    2b24:	ff f0 7f 00 	and.b	#127,	0(r15)	;#0x007f
    2b28:	00 00 
    2b2a:	ff f0 df ff 	and.b	#-33,	0(r15)	;#0xffdf
    2b2e:	00 00 
    2b30:	ff d0 40 00 	bis.b	#64,	0(r15)	;#0x0040
    2b34:	00 00 
    2b36:	ff f0 bf ff 	and.b	#-65,	0(r15)	;#0xffbf
    2b3a:	00 00 
    2b3c:	4c 43       	clr.b	r12		;
    2b3e:	09 4f       	mov	r15,	r9	;
    2b40:	0a 4f       	mov	r15,	r10	;
    2b42:	0e 4f       	mov	r15,	r14	;
    2b44:	3d 40 10 2b 	mov	#11024,	r13	;#0x2b10
    2b48:	6f 4d       	mov.b	@r13,	r15	;
    2b4a:	1d 53       	inc	r13		;
    2b4c:	4f fb       	and.b	r11,	r15	;
    2b4e:	0d 24       	jz	$+28     	;abs 0x2b6a
    2b50:	f9 d0 20 00 	bis.b	#32,	0(r9)	;#0x0020
    2b54:	00 00 
    2b56:	fe d0 40 00 	bis.b	#64,	0(r14)	;#0x0040
    2b5a:	00 00 
    2b5c:	fe f0 bf ff 	and.b	#-65,	0(r14)	;#0xffbf
    2b60:	00 00 
    2b62:	5c 53       	inc.b	r12		;
    2b64:	7c 92       	cmp.b	#8,	r12	;r2 As==11
    2b66:	f0 2b       	jnc	$-30     	;abs 0x2b48
    2b68:	04 3c       	jmp	$+10     	;abs 0x2b72
    2b6a:	fa f0 df ff 	and.b	#-33,	0(r10)	;#0xffdf
    2b6e:	00 00 
    2b70:	f2 3f       	jmp	$-26     	;abs 0x2b56
    2b72:	f2 d0 80 ff 	bis.b	#-128,	&0x0021	;#0xff80
    2b76:	21 00 
    2b78:	39 41       	pop	r9		;
    2b7a:	3a 41       	pop	r10		;
    2b7c:	3b 41       	pop	r11		;
    2b7e:	30 41       	ret			

00002b80 <lcd_wrdata>:
    2b80:	0b 12       	push	r11		;
    2b82:	0a 12       	push	r10		;
    2b84:	09 12       	push	r9		;
    2b86:	4b 4f       	mov.b	r15,	r11	;
    2b88:	3f 40 21 00 	mov	#33,	r15	;#0x0021
    2b8c:	ff f0 7f 00 	and.b	#127,	0(r15)	;#0x007f
    2b90:	00 00 
    2b92:	ff d0 20 00 	bis.b	#32,	0(r15)	;#0x0020
    2b96:	00 00 
    2b98:	ff d0 40 00 	bis.b	#64,	0(r15)	;#0x0040
    2b9c:	00 00 
    2b9e:	ff f0 bf ff 	and.b	#-65,	0(r15)	;#0xffbf
    2ba2:	00 00 
    2ba4:	4c 43       	clr.b	r12		;
    2ba6:	09 4f       	mov	r15,	r9	;
    2ba8:	0a 4f       	mov	r15,	r10	;
    2baa:	0e 4f       	mov	r15,	r14	;
    2bac:	3d 40 10 2b 	mov	#11024,	r13	;#0x2b10
    2bb0:	6f 4d       	mov.b	@r13,	r15	;
    2bb2:	1d 53       	inc	r13		;
    2bb4:	4f fb       	and.b	r11,	r15	;
    2bb6:	0d 24       	jz	$+28     	;abs 0x2bd2
    2bb8:	f9 d0 20 00 	bis.b	#32,	0(r9)	;#0x0020
    2bbc:	00 00 
    2bbe:	fe d0 40 00 	bis.b	#64,	0(r14)	;#0x0040
    2bc2:	00 00 
    2bc4:	fe f0 bf ff 	and.b	#-65,	0(r14)	;#0xffbf
    2bc8:	00 00 
    2bca:	5c 53       	inc.b	r12		;
    2bcc:	7c 92       	cmp.b	#8,	r12	;r2 As==11
    2bce:	f0 2b       	jnc	$-30     	;abs 0x2bb0
    2bd0:	04 3c       	jmp	$+10     	;abs 0x2bda
    2bd2:	fa f0 df ff 	and.b	#-33,	0(r10)	;#0xffdf
    2bd6:	00 00 
    2bd8:	f2 3f       	jmp	$-26     	;abs 0x2bbe
    2bda:	f2 d0 80 ff 	bis.b	#-128,	&0x0021	;#0xff80
    2bde:	21 00 
    2be0:	39 41       	pop	r9		;
    2be2:	3a 41       	pop	r10		;
    2be4:	3b 41       	pop	r11		;
    2be6:	30 41       	ret			

00002be8 <lcd_initmodule>:
    2be8:	0b 12       	push	r11		;
    2bea:	0a 12       	push	r10		;
    2bec:	4a 4f       	mov.b	r15,	r10	;
    2bee:	7f 40 24 00 	mov.b	#36,	r15	;#0x0024
    2bf2:	b0 12 18 2b 	call	#11032		;#0x2b18
    2bf6:	7f 40 90 ff 	mov.b	#-112,	r15	;#0xff90
    2bfa:	b0 12 18 2b 	call	#11032		;#0x2b18
    2bfe:	7f 40 a4 ff 	mov.b	#-92,	r15	;#0xffa4
    2c02:	b0 12 18 2b 	call	#11032		;#0x2b18
    2c06:	7f 40 2f 00 	mov.b	#47,	r15	;#0x002f
    2c0a:	b0 12 18 2b 	call	#11032		;#0x2b18
    2c0e:	7f 40 b0 ff 	mov.b	#-80,	r15	;#0xffb0
    2c12:	b0 12 18 2b 	call	#11032		;#0x2b18
    2c16:	7f 40 10 00 	mov.b	#16,	r15	;#0x0010
    2c1a:	b0 12 18 2b 	call	#11032		;#0x2b18
    2c1e:	4f 43       	clr.b	r15		;
    2c20:	b0 12 18 2b 	call	#11032		;#0x2b18
    2c24:	0b 43       	clr	r11		;
    2c26:	4f 43       	clr.b	r15		;
    2c28:	b0 12 80 2b 	call	#11136		;#0x2b80
    2c2c:	1b 53       	inc	r11		;
    2c2e:	3b 90 60 03 	cmp	#864,	r11	;#0x0360
    2c32:	f9 2b       	jnc	$-12     	;abs 0x2c26
    2c34:	5a 93       	cmp.b	#1,	r10	;r3 As==01
    2c36:	03 24       	jz	$+8      	;abs 0x2c3e
    2c38:	7f 40 a1 ff 	mov.b	#-95,	r15	;#0xffa1
    2c3c:	02 3c       	jmp	$+6      	;abs 0x2c42
    2c3e:	7f 40 c8 ff 	mov.b	#-56,	r15	;#0xffc8
    2c42:	b0 12 18 2b 	call	#11032		;#0x2b18
    2c46:	7f 40 af ff 	mov.b	#-81,	r15	;#0xffaf
    2c4a:	b0 12 18 2b 	call	#11032		;#0x2b18
    2c4e:	c2 43 06 11 	mov.b	#0,	&0x1106	;r3 As==00
    2c52:	c2 43 07 11 	mov.b	#0,	&0x1107	;r3 As==00
    2c56:	3a 41       	pop	r10		;
    2c58:	3b 41       	pop	r11		;
    2c5a:	30 41       	ret			

00002c5c <lcd_setcontraste>:
    2c5c:	0b 12       	push	r11		;
    2c5e:	4b 4f       	mov.b	r15,	r11	;
    2c60:	7f 40 e1 ff 	mov.b	#-31,	r15	;#0xffe1
    2c64:	b0 12 18 2b 	call	#11032		;#0x2b18
    2c68:	4f 4b       	mov.b	r11,	r15	;
    2c6a:	b0 12 18 2b 	call	#11032		;#0x2b18
    2c6e:	3b 41       	pop	r11		;
    2c70:	30 41       	ret			

00002c72 <lcd_clrscr>:
    2c72:	0b 12       	push	r11		;
    2c74:	7f 40 b0 ff 	mov.b	#-80,	r15	;#0xffb0
    2c78:	b0 12 18 2b 	call	#11032		;#0x2b18
    2c7c:	7f 40 10 00 	mov.b	#16,	r15	;#0x0010
    2c80:	b0 12 18 2b 	call	#11032		;#0x2b18
    2c84:	4f 43       	clr.b	r15		;
    2c86:	b0 12 18 2b 	call	#11032		;#0x2b18
    2c8a:	0b 43       	clr	r11		;
    2c8c:	4f 43       	clr.b	r15		;
    2c8e:	b0 12 80 2b 	call	#11136		;#0x2b80
    2c92:	1b 53       	inc	r11		;
    2c94:	3b 90 60 03 	cmp	#864,	r11	;#0x0360
    2c98:	f9 2b       	jnc	$-12     	;abs 0x2c8c
    2c9a:	c2 43 06 11 	mov.b	#0,	&0x1106	;r3 As==00
    2c9e:	c2 43 07 11 	mov.b	#0,	&0x1107	;r3 As==00
    2ca2:	3b 41       	pop	r11		;
    2ca4:	30 41       	ret			

00002ca6 <lcd_on>:
    2ca6:	7f 40 af ff 	mov.b	#-81,	r15	;#0xffaf
    2caa:	b0 12 18 2b 	call	#11032		;#0x2b18
    2cae:	30 41       	ret			

00002cb0 <lcd_off>:
    2cb0:	7f 40 ae ff 	mov.b	#-82,	r15	;#0xffae
    2cb4:	b0 12 18 2b 	call	#11032		;#0x2b18
    2cb8:	30 41       	ret			

00002cba <lcd_reverse>:
    2cba:	7f 40 a7 ff 	mov.b	#-89,	r15	;#0xffa7
    2cbe:	b0 12 18 2b 	call	#11032		;#0x2b18
    2cc2:	30 41       	ret			

00002cc4 <lcd_normal>:
    2cc4:	7f 40 a6 ff 	mov.b	#-90,	r15	;#0xffa6
    2cc8:	b0 12 18 2b 	call	#11032		;#0x2b18
    2ccc:	30 41       	ret			

00002cce <lcd_newline>:
    2cce:	5f 42 06 11 	mov.b	&0x1106,r15	;0x1106
    2cd2:	5f 53       	inc.b	r15		;
    2cd4:	c2 4f 06 11 	mov.b	r15,	&0x1106	;
    2cd8:	7f 92       	cmp.b	#8,	r15	;r2 As==11
    2cda:	03 20       	jnz	$+8      	;abs 0x2ce2
    2cdc:	4f 43       	clr.b	r15		;
    2cde:	c2 43 06 11 	mov.b	#0,	&0x1106	;r3 As==00
    2ce2:	c2 43 07 11 	mov.b	#0,	&0x1107	;r3 As==00
    2ce6:	7f 50 b0 ff 	add.b	#-80,	r15	;#0xffb0
    2cea:	b0 12 18 2b 	call	#11032		;#0x2b18
    2cee:	7f 40 10 00 	mov.b	#16,	r15	;#0x0010
    2cf2:	b0 12 18 2b 	call	#11032		;#0x2b18
    2cf6:	4f 43       	clr.b	r15		;
    2cf8:	b0 12 18 2b 	call	#11032		;#0x2b18
    2cfc:	30 41       	ret			

00002cfe <lcd_goto>:
    2cfe:	0b 12       	push	r11		;
    2d00:	7f 90 10 00 	cmp.b	#16,	r15	;#0x0010
    2d04:	01 28       	jnc	$+4      	;abs 0x2d08
    2d06:	4f 43       	clr.b	r15		;
    2d08:	7e 92       	cmp.b	#8,	r14	;r2 As==11
    2d0a:	01 28       	jnc	$+4      	;abs 0x2d0e
    2d0c:	4e 43       	clr.b	r14		;
    2d0e:	c2 4f 07 11 	mov.b	r15,	&0x1107	;
    2d12:	c2 4e 06 11 	mov.b	r14,	&0x1106	;
    2d16:	7e 50 b0 ff 	add.b	#-80,	r14	;#0xffb0
    2d1a:	4f 4e       	mov.b	r14,	r15	;
    2d1c:	b0 12 18 2b 	call	#11032		;#0x2b18
    2d20:	5f 42 07 11 	mov.b	&0x1107,r15	;0x1107
    2d24:	4e 4f       	mov.b	r15,	r14	;
    2d26:	0e 5e       	rla	r14		;
    2d28:	0e 5e       	rla	r14		;
    2d2a:	0f 5f       	rla	r15		;
    2d2c:	4b 4e       	mov.b	r14,	r11	;
    2d2e:	4b 5f       	add.b	r15,	r11	;
    2d30:	4f 4b       	mov.b	r11,	r15	;
    2d32:	12 c3       	clrc			
    2d34:	4f 10       	rrc.b	r15		;
    2d36:	4f 11       	rra.b	r15		;
    2d38:	4f 11       	rra.b	r15		;
    2d3a:	4f 11       	rra.b	r15		;
    2d3c:	7f 50 10 00 	add.b	#16,	r15	;#0x0010
    2d40:	b0 12 18 2b 	call	#11032		;#0x2b18
    2d44:	7b f0 0f 00 	and.b	#15,	r11	;#0x000f
    2d48:	4f 4b       	mov.b	r11,	r15	;
    2d4a:	b0 12 18 2b 	call	#11032		;#0x2b18
    2d4e:	3b 41       	pop	r11		;
    2d50:	30 41       	ret			

00002d52 <lcd_wrchar>:
    2d52:	0b 12       	push	r11		;
    2d54:	0a 12       	push	r10		;
    2d56:	4b 4f       	mov.b	r15,	r11	;
    2d58:	0b 5b       	rla	r11		;
    2d5a:	7f f3       	and.b	#-1,	r15	;r3 As==11
    2d5c:	0b 5f       	add	r15,	r11	;
    2d5e:	0b 5f       	add	r15,	r11	;
    2d60:	0b 5f       	add	r15,	r11	;
    2d62:	4a 43       	clr.b	r10		;
    2d64:	3b 50 90 28 	add	#10384,	r11	;#0x2890
    2d68:	6f 4b       	mov.b	@r11,	r15	;
    2d6a:	1b 53       	inc	r11		;
    2d6c:	b0 12 80 2b 	call	#11136		;#0x2b80
    2d70:	5a 53       	inc.b	r10		;
    2d72:	7a 90 05 00 	cmp.b	#5,	r10	;#0x0005
    2d76:	f8 2b       	jnc	$-14     	;abs 0x2d68
    2d78:	4f 43       	clr.b	r15		;
    2d7a:	b0 12 80 2b 	call	#11136		;#0x2b80
    2d7e:	3a 41       	pop	r10		;
    2d80:	3b 41       	pop	r11		;
    2d82:	30 41       	ret			

00002d84 <lcd_putchar>:
    2d84:	0b 12       	push	r11		;
    2d86:	4b 4f       	mov.b	r15,	r11	;
    2d88:	7f f3       	and.b	#-1,	r15	;r3 As==11
    2d8a:	3f 90 0a 00 	cmp	#10,	r15	;#0x000a
    2d8e:	19 24       	jz	$+52     	;abs 0x2dc2
    2d90:	3f 90 0d 00 	cmp	#13,	r15	;#0x000d
    2d94:	13 24       	jz	$+40     	;abs 0x2dbc
    2d96:	5f 42 07 11 	mov.b	&0x1107,r15	;0x1107
    2d9a:	d2 53 07 11 	inc.b	&0x1107		;
    2d9e:	7f 90 10 00 	cmp.b	#16,	r15	;#0x0010
    2da2:	04 2c       	jc	$+10     	;abs 0x2dac
    2da4:	4f 4b       	mov.b	r11,	r15	;
    2da6:	b0 12 52 2d 	call	#11602		;#0x2d52
    2daa:	12 3c       	jmp	$+38     	;abs 0x2dd0
    2dac:	b0 12 ce 2c 	call	#11470		;#0x2cce
    2db0:	4f 4b       	mov.b	r11,	r15	;
    2db2:	b0 12 52 2d 	call	#11602		;#0x2d52
    2db6:	d2 53 07 11 	inc.b	&0x1107		;
    2dba:	0a 3c       	jmp	$+22     	;abs 0x2dd0
    2dbc:	b0 12 ce 2c 	call	#11470		;#0x2cce
    2dc0:	07 3c       	jmp	$+16     	;abs 0x2dd0
    2dc2:	c2 43 07 11 	mov.b	#0,	&0x1107	;r3 As==00
    2dc6:	5e 42 06 11 	mov.b	&0x1106,r14	;0x1106
    2dca:	4f 43       	clr.b	r15		;
    2dcc:	b0 12 fe 2c 	call	#11518		;#0x2cfe
    2dd0:	3b 41       	pop	r11		;
    2dd2:	30 41       	ret			

00002dd4 <lcd_putlogo>:
    2dd4:	0b 12       	push	r11		;
    2dd6:	0a 12       	push	r10		;
    2dd8:	0a 4f       	mov	r15,	r10	;
    2dda:	0b 43       	clr	r11		;
    2ddc:	0f 4a       	mov	r10,	r15	;
    2dde:	0f 5b       	add	r11,	r15	;
    2de0:	6f 4f       	mov.b	@r15,	r15	;
    2de2:	b0 12 80 2b 	call	#11136		;#0x2b80
    2de6:	1b 53       	inc	r11		;
    2de8:	3b 90 60 03 	cmp	#864,	r11	;#0x0360
    2dec:	f7 2b       	jnc	$-16     	;abs 0x2ddc
    2dee:	3a 41       	pop	r10		;
    2df0:	3b 41       	pop	r11		;
    2df2:	30 41       	ret			

00002df4 <config_serial>:
    2df4:	f2 40 81 ff 	mov.b	#-127,	&0x0061	;#0xff81
    2df8:	61 00 
    2dfa:	f2 42 60 00 	mov.b	#8,	&0x0060	;r2 As==11
    2dfe:	c2 4f 62 00 	mov.b	r15,	&0x0062	;
    2e02:	c2 43 63 00 	mov.b	#0,	&0x0063	;r3 As==00
    2e06:	c2 4e 64 00 	mov.b	r14,	&0x0064	;
    2e0a:	f2 40 80 ff 	mov.b	#-128,	&0x0061	;#0xff80
    2e0e:	61 00 
    2e10:	30 41       	ret			

00002e12 <receive_serial>:
    2e12:	d2 b3 03 00 	bit.b	#1,	&0x0003	;r3 As==01
    2e16:	fd 27       	jz	$-4      	;abs 0x2e12
    2e18:	5f 42 66 00 	mov.b	&0x0066,r15	;0x0066
    2e1c:	7f f3       	and.b	#-1,	r15	;r3 As==11
    2e1e:	30 41       	ret			

00002e20 <send_serial>:
    2e20:	4e 4f       	mov.b	r15,	r14	;
    2e22:	e2 b3 03 00 	bit.b	#2,	&0x0003	;r3 As==10
    2e26:	fd 27       	jz	$-4      	;abs 0x2e22
    2e28:	c2 4e 67 00 	mov.b	r14,	&0x0067	;
    2e2c:	30 41       	ret			

00002e2e <printf>:
    2e2e:	2f 43       	mov	#2,	r15	;r3 As==10
    2e30:	0f 51       	add	r1,	r15	;
    2e32:	3e 4f       	mov	@r15+,	r14	;
    2e34:	0d 4f       	mov	r15,	r13	;
    2e36:	3f 40 e2 21 	mov	#8674,	r15	;#0x21e2
    2e3a:	b0 12 a4 2e 	call	#11940		;#0x2ea4
    2e3e:	30 41       	ret			

00002e40 <PRINT>:
    2e40:	0b 12       	push	r11		;
    2e42:	0a 12       	push	r10		;
    2e44:	0a 4f       	mov	r15,	r10	;
    2e46:	0b 4e       	mov	r14,	r11	;
    2e48:	0e 93       	cmp	#0,	r14	;r3 As==00
    2e4a:	02 20       	jnz	$+6      	;abs 0x2e50
    2e4c:	1f 43       	mov	#1,	r15	;r3 As==01
    2e4e:	0d 3c       	jmp	$+28     	;abs 0x2e6a
    2e50:	6f 4a       	mov.b	@r10,	r15	;
    2e52:	8f 11       	sxt	r15		;
    2e54:	1a 53       	inc	r10		;
    2e56:	92 12 04 11 	call	&0x1104		;
    2e5a:	0f 93       	cmp	#0,	r15	;r3 As==00
    2e5c:	05 38       	jl	$+12     	;abs 0x2e68
    2e5e:	92 53 02 11 	inc	&0x1102		;
    2e62:	3b 53       	add	#-1,	r11	;r3 As==11
    2e64:	f5 23       	jnz	$-20     	;abs 0x2e50
    2e66:	f2 3f       	jmp	$-26     	;abs 0x2e4c
    2e68:	3f 43       	mov	#-1,	r15	;r3 As==11
    2e6a:	3a 41       	pop	r10		;
    2e6c:	3b 41       	pop	r11		;
    2e6e:	30 41       	ret			

00002e70 <__write_pad>:
    2e70:	0b 12       	push	r11		;
    2e72:	0a 12       	push	r10		;
    2e74:	09 12       	push	r9		;
    2e76:	49 4f       	mov.b	r15,	r9	;
    2e78:	4b 4e       	mov.b	r14,	r11	;
    2e7a:	5e 93       	cmp.b	#1,	r14	;r3 As==01
    2e7c:	0c 38       	jl	$+26     	;abs 0x2e96
    2e7e:	4a 4f       	mov.b	r15,	r10	;
    2e80:	8a 11       	sxt	r10		;
    2e82:	0f 4a       	mov	r10,	r15	;
    2e84:	92 12 04 11 	call	&0x1104		;
    2e88:	0f 93       	cmp	#0,	r15	;r3 As==00
    2e8a:	07 38       	jl	$+16     	;abs 0x2e9a
    2e8c:	92 53 02 11 	inc	&0x1102		;
    2e90:	7b 53       	add.b	#-1,	r11	;r3 As==11
    2e92:	5b 93       	cmp.b	#1,	r11	;r3 As==01
    2e94:	f6 37       	jge	$-18     	;abs 0x2e82
    2e96:	4f 49       	mov.b	r9,	r15	;
    2e98:	01 3c       	jmp	$+4      	;abs 0x2e9c
    2e9a:	3f 43       	mov	#-1,	r15	;r3 As==11
    2e9c:	39 41       	pop	r9		;
    2e9e:	3a 41       	pop	r10		;
    2ea0:	3b 41       	pop	r11		;
    2ea2:	30 41       	ret			

00002ea4 <vuprintf>:
    2ea4:	0b 12       	push	r11		;
    2ea6:	0a 12       	push	r10		;
    2ea8:	09 12       	push	r9		;
    2eaa:	08 12       	push	r8		;
    2eac:	07 12       	push	r7		;
    2eae:	06 12       	push	r6		;
    2eb0:	05 12       	push	r5		;
    2eb2:	04 12       	push	r4		;
    2eb4:	31 80 3c 00 	sub	#60,	r1	;#0x003c
    2eb8:	05 4d       	mov	r13,	r5	;
    2eba:	81 43 30 00 	mov	#0,	48(r1)	;r3 As==00
    2ebe:	81 43 32 00 	mov	#0,	50(r1)	;r3 As==00
    2ec2:	82 43 02 11 	mov	#0,	&0x1102	;r3 As==00
    2ec6:	82 4f 04 11 	mov	r15,	&0x1104	;
    2eca:	06 4e       	mov	r14,	r6	;
    2ecc:	0f 46       	mov	r6,	r15	;
    2ece:	67 46       	mov.b	@r6,	r7	;
    2ed0:	47 93       	cmp.b	#0,	r7	;r3 As==00
    2ed2:	0a 24       	jz	$+22     	;abs 0x2ee8
    2ed4:	77 90 25 00 	cmp.b	#37,	r7	;#0x0025
    2ed8:	07 24       	jz	$+16     	;abs 0x2ee8
    2eda:	16 53       	inc	r6		;
    2edc:	67 46       	mov.b	@r6,	r7	;
    2ede:	47 93       	cmp.b	#0,	r7	;r3 As==00
    2ee0:	03 24       	jz	$+8      	;abs 0x2ee8
    2ee2:	77 90 25 00 	cmp.b	#37,	r7	;#0x0025
    2ee6:	f9 23       	jnz	$-12     	;abs 0x2eda
    2ee8:	0d 46       	mov	r6,	r13	;
    2eea:	0d 8f       	sub	r15,	r13	;
    2eec:	02 24       	jz	$+6      	;abs 0x2ef2
    2eee:	30 40 3c 34 	br	#0x343c		;
    2ef2:	47 93       	cmp.b	#0,	r7	;r3 As==00
    2ef4:	02 20       	jnz	$+6      	;abs 0x2efa
    2ef6:	30 40 4a 34 	br	#0x344a		;
    2efa:	16 53       	inc	r6		;
    2efc:	c1 43 2e 00 	mov.b	#0,	46(r1)	;r3 As==00
    2f00:	c1 43 35 00 	mov.b	#0,	53(r1)	;r3 As==00
    2f04:	c1 43 2f 00 	mov.b	#0,	47(r1)	;r3 As==00
    2f08:	7b 43       	mov.b	#-1,	r11	;r3 As==11
    2f0a:	c1 43 28 00 	mov.b	#0,	40(r1)	;r3 As==00
    2f0e:	67 46       	mov.b	@r6,	r7	;
    2f10:	16 53       	inc	r6		;
    2f12:	77 90 75 00 	cmp.b	#117,	r7	;#0x0075
    2f16:	02 20       	jnz	$+6      	;abs 0x2f1c
    2f18:	30 40 16 34 	br	#0x3416		;
    2f1c:	4f 47       	mov.b	r7,	r15	;
    2f1e:	7f d0 20 00 	bis.b	#32,	r15	;#0x0020
    2f22:	7f 90 78 00 	cmp.b	#120,	r15	;#0x0078
    2f26:	02 20       	jnz	$+6      	;abs 0x2f2c
    2f28:	30 40 16 34 	br	#0x3416		;
    2f2c:	77 90 20 00 	cmp.b	#32,	r7	;#0x0020
    2f30:	02 20       	jnz	$+6      	;abs 0x2f36
    2f32:	30 40 02 34 	br	#0x3402		;
    2f36:	77 90 23 00 	cmp.b	#35,	r7	;#0x0023
    2f3a:	02 20       	jnz	$+6      	;abs 0x2f40
    2f3c:	30 40 fa 33 	br	#0x33fa		;
    2f40:	77 90 2a 00 	cmp.b	#42,	r7	;#0x002a
    2f44:	02 20       	jnz	$+6      	;abs 0x2f4a
    2f46:	30 40 de 33 	br	#0x33de		;
    2f4a:	77 90 2d 00 	cmp.b	#45,	r7	;#0x002d
    2f4e:	02 20       	jnz	$+6      	;abs 0x2f54
    2f50:	30 40 ce 33 	br	#0x33ce		;
    2f54:	77 90 2b 00 	cmp.b	#43,	r7	;#0x002b
    2f58:	02 20       	jnz	$+6      	;abs 0x2f5e
    2f5a:	30 40 c4 33 	br	#0x33c4		;
    2f5e:	77 90 2e 00 	cmp.b	#46,	r7	;#0x002e
    2f62:	02 20       	jnz	$+6      	;abs 0x2f68
    2f64:	30 40 5e 33 	br	#0x335e		;
    2f68:	77 90 30 00 	cmp.b	#48,	r7	;#0x0030
    2f6c:	02 20       	jnz	$+6      	;abs 0x2f72
    2f6e:	30 40 48 33 	br	#0x3348		;
    2f72:	4f 47       	mov.b	r7,	r15	;
    2f74:	7f 50 cf ff 	add.b	#-49,	r15	;#0xffcf
    2f78:	7f 90 09 00 	cmp.b	#9,	r15	;#0x0009
    2f7c:	1a 2c       	jc	$+54     	;abs 0x2fb2
    2f7e:	0d 43       	clr	r13		;
    2f80:	0f 4d       	mov	r13,	r15	;
    2f82:	0f 5f       	rla	r15		;
    2f84:	0f 5f       	rla	r15		;
    2f86:	0e 4d       	mov	r13,	r14	;
    2f88:	0e 5e       	rla	r14		;
    2f8a:	0d 4f       	mov	r15,	r13	;
    2f8c:	0d 5e       	add	r14,	r13	;
    2f8e:	0d 5e       	add	r14,	r13	;
    2f90:	0d 5e       	add	r14,	r13	;
    2f92:	4f 47       	mov.b	r7,	r15	;
    2f94:	8f 11       	sxt	r15		;
    2f96:	0d 5f       	add	r15,	r13	;
    2f98:	3d 50 d0 ff 	add	#-48,	r13	;#0xffd0
    2f9c:	67 46       	mov.b	@r6,	r7	;
    2f9e:	16 53       	inc	r6		;
    2fa0:	4f 47       	mov.b	r7,	r15	;
    2fa2:	7f 50 d0 ff 	add.b	#-48,	r15	;#0xffd0
    2fa6:	7f 90 0a 00 	cmp.b	#10,	r15	;#0x000a
    2faa:	ea 2b       	jnc	$-42     	;abs 0x2f80
    2fac:	c1 4d 2f 00 	mov.b	r13,	47(r1)	;
    2fb0:	b0 3f       	jmp	$-158    	;abs 0x2f12
    2fb2:	77 90 68 00 	cmp.b	#104,	r7	;#0x0068
    2fb6:	c4 25       	jz	$+906    	;abs 0x3340
    2fb8:	77 90 6c 00 	cmp.b	#108,	r7	;#0x006c
    2fbc:	03 20       	jnz	$+8      	;abs 0x2fc4
    2fbe:	d1 d3 2e 00 	bis.b	#1,	46(r1)	;r3 As==01
    2fc2:	a5 3f       	jmp	$-180    	;abs 0x2f0e
    2fc4:	77 90 63 00 	cmp.b	#99,	r7	;#0x0063
    2fc8:	b4 25       	jz	$+874    	;abs 0x3332
    2fca:	77 90 44 00 	cmp.b	#68,	r7	;#0x0044
    2fce:	ae 25       	jz	$+862    	;abs 0x332c
    2fd0:	77 90 64 00 	cmp.b	#100,	r7	;#0x0064
    2fd4:	7f 25       	jz	$+768    	;abs 0x32d4
    2fd6:	77 90 69 00 	cmp.b	#105,	r7	;#0x0069
    2fda:	7c 25       	jz	$+762    	;abs 0x32d4
    2fdc:	77 90 4f 00 	cmp.b	#79,	r7	;#0x004f
    2fe0:	76 25       	jz	$+750    	;abs 0x32ce
    2fe2:	77 90 6f 00 	cmp.b	#111,	r7	;#0x006f
    2fe6:	70 25       	jz	$+738    	;abs 0x32c8
    2fe8:	77 90 70 00 	cmp.b	#112,	r7	;#0x0070
    2fec:	5e 25       	jz	$+702    	;abs 0x32aa
    2fee:	77 90 73 00 	cmp.b	#115,	r7	;#0x0073
    2ff2:	1f 25       	jz	$+576    	;abs 0x3232
    2ff4:	77 90 55 00 	cmp.b	#85,	r7	;#0x0055
    2ff8:	19 25       	jz	$+564    	;abs 0x322c
    2ffa:	77 90 75 00 	cmp.b	#117,	r7	;#0x0075
    2ffe:	12 25       	jz	$+550    	;abs 0x3224
    3000:	77 90 58 00 	cmp.b	#88,	r7	;#0x0058
    3004:	8f 24       	jz	$+288    	;abs 0x3124
    3006:	77 90 78 00 	cmp.b	#120,	r7	;#0x0078
    300a:	8c 24       	jz	$+282    	;abs 0x3124
    300c:	47 93       	cmp.b	#0,	r7	;r3 As==00
    300e:	02 20       	jnz	$+6      	;abs 0x3014
    3010:	30 40 4a 34 	br	#0x344a		;
    3014:	81 41 2c 00 	mov	r1,	44(r1)	;
    3018:	c1 47 00 00 	mov.b	r7,	0(r1)	;
    301c:	59 43       	mov.b	#1,	r9	;r3 As==01
    301e:	c1 43 28 00 	mov.b	#0,	40(r1)	;r3 As==00
    3022:	4b 49       	mov.b	r9,	r11	;
    3024:	5a 41 35 00 	mov.b	53(r1),	r10	;
    3028:	4a 89       	sub.b	r9,	r10	;
    302a:	7a 30       	jn	$+246    	;abs 0x3120
    302c:	5e 41 28 00 	mov.b	40(r1),	r14	;
    3030:	4e 93       	cmp.b	#0,	r14	;r3 As==00
    3032:	70 24       	jz	$+226    	;abs 0x3114
    3034:	5b 53       	inc.b	r11		;
    3036:	4b 5a       	add.b	r10,	r11	;
    3038:	58 41 2e 00 	mov.b	46(r1),	r8	;
    303c:	78 f0 30 00 	and.b	#48,	r8	;#0x0030
    3040:	13 20       	jnz	$+40     	;abs 0x3068
    3042:	5d 41 2f 00 	mov.b	47(r1),	r13	;
    3046:	8d 11       	sxt	r13		;
    3048:	4f 4b       	mov.b	r11,	r15	;
    304a:	8f 11       	sxt	r15		;
    304c:	0d 8f       	sub	r15,	r13	;
    304e:	1d 93       	cmp	#1,	r13	;r3 As==01
    3050:	0b 38       	jl	$+24     	;abs 0x3068
    3052:	4e 4d       	mov.b	r13,	r14	;
    3054:	7f 40 20 00 	mov.b	#32,	r15	;#0x0020
    3058:	b0 12 70 2e 	call	#11888		;#0x2e70
    305c:	0f 93       	cmp	#0,	r15	;r3 As==00
    305e:	02 34       	jge	$+6      	;abs 0x3064
    3060:	30 40 4a 34 	br	#0x344a		;
    3064:	5e 41 28 00 	mov.b	40(r1),	r14	;
    3068:	4e 93       	cmp.b	#0,	r14	;r3 As==00
    306a:	4f 20       	jnz	$+160    	;abs 0x310a
    306c:	f1 b0 40 00 	bit.b	#64,	46(r1)	;#0x0040
    3070:	2e 00 
    3072:	14 24       	jz	$+42     	;abs 0x309c
    3074:	1f 41 2a 00 	mov	42(r1),	r15	;
    3078:	3f f0 00 ff 	and	#-256,	r15	;#0xff00
    307c:	3f d0 30 00 	bis	#48,	r15	;#0x0030
    3080:	81 4f 2a 00 	mov	r15,	42(r1)	;
    3084:	c1 47 2b 00 	mov.b	r7,	43(r1)	;
    3088:	2e 43       	mov	#2,	r14	;r3 As==10
    308a:	0f 41       	mov	r1,	r15	;
    308c:	3f 50 2a 00 	add	#42,	r15	;#0x002a
    3090:	b0 12 40 2e 	call	#11840		;#0x2e40
    3094:	0f 93       	cmp	#0,	r15	;r3 As==00
    3096:	02 34       	jge	$+6      	;abs 0x309c
    3098:	30 40 4a 34 	br	#0x344a		;
    309c:	78 90 20 00 	cmp.b	#32,	r8	;#0x0020
    30a0:	24 24       	jz	$+74     	;abs 0x30ea
    30a2:	4e 4a       	mov.b	r10,	r14	;
    30a4:	7f 40 30 00 	mov.b	#48,	r15	;#0x0030
    30a8:	b0 12 70 2e 	call	#11888		;#0x2e70
    30ac:	0f 93       	cmp	#0,	r15	;r3 As==00
    30ae:	cd 39       	jl	$+924    	;abs 0x344a
    30b0:	4f 49       	mov.b	r9,	r15	;
    30b2:	8f 11       	sxt	r15		;
    30b4:	0e 4f       	mov	r15,	r14	;
    30b6:	1f 41 2c 00 	mov	44(r1),	r15	;
    30ba:	b0 12 40 2e 	call	#11840		;#0x2e40
    30be:	0f 93       	cmp	#0,	r15	;r3 As==00
    30c0:	c4 39       	jl	$+906    	;abs 0x344a
    30c2:	f1 b0 10 00 	bit.b	#16,	46(r1)	;#0x0010
    30c6:	2e 00 
    30c8:	01 27       	jz	$-508    	;abs 0x2ecc
    30ca:	5d 41 2f 00 	mov.b	47(r1),	r13	;
    30ce:	8d 11       	sxt	r13		;
    30d0:	4f 4b       	mov.b	r11,	r15	;
    30d2:	8f 11       	sxt	r15		;
    30d4:	0d 8f       	sub	r15,	r13	;
    30d6:	1d 93       	cmp	#1,	r13	;r3 As==01
    30d8:	f9 3a       	jl	$-524    	;abs 0x2ecc
    30da:	4e 4d       	mov.b	r13,	r14	;
    30dc:	7f 40 20 00 	mov.b	#32,	r15	;#0x0020
    30e0:	b0 12 70 2e 	call	#11888		;#0x2e70
    30e4:	0f 93       	cmp	#0,	r15	;r3 As==00
    30e6:	f2 36       	jge	$-538    	;abs 0x2ecc
    30e8:	b0 3d       	jmp	$+866    	;abs 0x344a
    30ea:	5d 41 2f 00 	mov.b	47(r1),	r13	;
    30ee:	8d 11       	sxt	r13		;
    30f0:	4f 4b       	mov.b	r11,	r15	;
    30f2:	8f 11       	sxt	r15		;
    30f4:	0d 8f       	sub	r15,	r13	;
    30f6:	1d 93       	cmp	#1,	r13	;r3 As==01
    30f8:	d4 3b       	jl	$-86     	;abs 0x30a2
    30fa:	4e 4d       	mov.b	r13,	r14	;
    30fc:	7f 40 30 00 	mov.b	#48,	r15	;#0x0030
    3100:	b0 12 70 2e 	call	#11888		;#0x2e70
    3104:	0f 93       	cmp	#0,	r15	;r3 As==00
    3106:	cd 37       	jge	$-100    	;abs 0x30a2
    3108:	a0 3d       	jmp	$+834    	;abs 0x344a
    310a:	1e 43       	mov	#1,	r14	;r3 As==01
    310c:	0f 41       	mov	r1,	r15	;
    310e:	3f 50 28 00 	add	#40,	r15	;#0x0028
    3112:	be 3f       	jmp	$-130    	;abs 0x3090
    3114:	f1 b0 40 00 	bit.b	#64,	46(r1)	;#0x0040
    3118:	2e 00 
    311a:	8d 27       	jz	$-228    	;abs 0x3036
    311c:	6b 53       	incd.b	r11		;
    311e:	8b 3f       	jmp	$-232    	;abs 0x3036
    3120:	4a 43       	clr.b	r10		;
    3122:	84 3f       	jmp	$-246    	;abs 0x302c
    3124:	f1 40 10 00 	mov.b	#16,	52(r1)	;#0x0010
    3128:	34 00 
    312a:	f1 b2 2e 00 	bit.b	#8,	46(r1)	;r2 As==11
    312e:	09 24       	jz	$+20     	;abs 0x3142
    3130:	81 93 30 00 	cmp	#0,	48(r1)	;r3 As==00
    3134:	03 20       	jnz	$+8      	;abs 0x313c
    3136:	81 93 32 00 	cmp	#0,	50(r1)	;r3 As==00
    313a:	03 24       	jz	$+8      	;abs 0x3142
    313c:	f1 d0 40 00 	bis.b	#64,	46(r1)	;#0x0040
    3140:	2e 00 
    3142:	c1 43 28 00 	mov.b	#0,	40(r1)	;r3 As==00
    3146:	c1 4b 35 00 	mov.b	r11,	53(r1)	;
    314a:	4b 93       	cmp.b	#0,	r11	;r3 As==00
    314c:	03 38       	jl	$+8      	;abs 0x3154
    314e:	f1 f0 df ff 	and.b	#-33,	46(r1)	;#0xffdf
    3152:	2e 00 
    3154:	0f 41       	mov	r1,	r15	;
    3156:	3f 50 28 00 	add	#40,	r15	;#0x0028
    315a:	81 4f 2c 00 	mov	r15,	44(r1)	;
    315e:	81 93 30 00 	cmp	#0,	48(r1)	;r3 As==00
    3162:	06 20       	jnz	$+14     	;abs 0x3170
    3164:	81 93 32 00 	cmp	#0,	50(r1)	;r3 As==00
    3168:	03 20       	jnz	$+8      	;abs 0x3170
    316a:	c1 93 35 00 	cmp.b	#0,	53(r1)	;r3 As==00
    316e:	3e 24       	jz	$+126    	;abs 0x31ec
    3170:	d1 41 34 00 	mov.b	52(r1),	56(r1)	;
    3174:	38 00 
    3176:	c1 43 39 00 	mov.b	#0,	57(r1)	;r3 As==00
    317a:	81 43 3a 00 	mov	#0,	58(r1)	;r3 As==00
    317e:	c1 43 36 00 	mov.b	#0,	54(r1)	;r3 As==00
    3182:	1e 41 30 00 	mov	48(r1),	r14	;
    3186:	1f 41 32 00 	mov	50(r1),	r15	;
    318a:	1e 81 38 00 	sub	56(r1),	r14	;
    318e:	1f 71 3a 00 	subc	58(r1),	r15	;
    3192:	02 28       	jnc	$+6      	;abs 0x3198
    3194:	d1 43 36 00 	mov.b	#1,	54(r1)	;r3 As==01
    3198:	1c 41 30 00 	mov	48(r1),	r12	;
    319c:	1d 41 32 00 	mov	50(r1),	r13	;
    31a0:	1a 41 38 00 	mov	56(r1),	r10	;
    31a4:	1b 41 3a 00 	mov	58(r1),	r11	;
    31a8:	b0 12 b6 34 	call	#13494		;#0x34b6
    31ac:	44 4e       	mov.b	r14,	r4	;
    31ae:	7e 90 0a 00 	cmp.b	#10,	r14	;#0x000a
    31b2:	30 2c       	jc	$+98     	;abs 0x3214
    31b4:	74 50 30 00 	add.b	#48,	r4	;#0x0030
    31b8:	b1 53 2c 00 	add	#-1,	44(r1)	;r3 As==11
    31bc:	1f 41 2c 00 	mov	44(r1),	r15	;
    31c0:	cf 44 00 00 	mov.b	r4,	0(r15)	;
    31c4:	1c 41 30 00 	mov	48(r1),	r12	;
    31c8:	1d 41 32 00 	mov	50(r1),	r13	;
    31cc:	1a 41 38 00 	mov	56(r1),	r10	;
    31d0:	1b 41 3a 00 	mov	58(r1),	r11	;
    31d4:	b0 12 b6 34 	call	#13494		;#0x34b6
    31d8:	81 4c 30 00 	mov	r12,	48(r1)	;
    31dc:	81 4d 32 00 	mov	r13,	50(r1)	;
    31e0:	c1 93 36 00 	cmp.b	#0,	54(r1)	;r3 As==00
    31e4:	cc 23       	jnz	$-102    	;abs 0x317e
    31e6:	f1 92 34 00 	cmp.b	#8,	52(r1)	;r2 As==11
    31ea:	06 24       	jz	$+14     	;abs 0x31f8
    31ec:	49 41       	mov.b	r1,	r9	;
    31ee:	59 81 2c 00 	sub.b	44(r1),	r9	;
    31f2:	79 50 28 00 	add.b	#40,	r9	;#0x0028
    31f6:	15 3f       	jmp	$-468    	;abs 0x3022
    31f8:	f1 b2 2e 00 	bit.b	#8,	46(r1)	;r2 As==11
    31fc:	f7 27       	jz	$-16     	;abs 0x31ec
    31fe:	74 90 30 00 	cmp.b	#48,	r4	;#0x0030
    3202:	f4 27       	jz	$-22     	;abs 0x31ec
    3204:	b1 53 2c 00 	add	#-1,	44(r1)	;r3 As==11
    3208:	1f 41 2c 00 	mov	44(r1),	r15	;
    320c:	ff 40 30 00 	mov.b	#48,	0(r15)	;#0x0030
    3210:	00 00 
    3212:	ec 3f       	jmp	$-38     	;abs 0x31ec
    3214:	74 50 57 00 	add.b	#87,	r4	;#0x0057
    3218:	77 90 58 00 	cmp.b	#88,	r7	;#0x0058
    321c:	cd 23       	jnz	$-100    	;abs 0x31b8
    321e:	74 f0 df ff 	and.b	#-33,	r4	;#0xffdf
    3222:	ca 3f       	jmp	$-106    	;abs 0x31b8
    3224:	f1 40 0a 00 	mov.b	#10,	52(r1)	;#0x000a
    3228:	34 00 
    322a:	8b 3f       	jmp	$-232    	;abs 0x3142
    322c:	d1 d3 2e 00 	bis.b	#1,	46(r1)	;r3 As==01
    3230:	f9 3f       	jmp	$-12     	;abs 0x3224
    3232:	0f 45       	mov	r5,	r15	;
    3234:	25 53       	incd	r5		;
    3236:	a1 4f 2c 00 	mov	@r15,	44(r1)	;
    323a:	81 93 2c 00 	cmp	#0,	44(r1)	;r3 As==00
    323e:	1e 24       	jz	$+62     	;abs 0x327c
    3240:	4b 93       	cmp.b	#0,	r11	;r3 As==00
    3242:	11 38       	jl	$+36     	;abs 0x3266
    3244:	4f 4b       	mov.b	r11,	r15	;
    3246:	8f 11       	sxt	r15		;
    3248:	0d 4f       	mov	r15,	r13	;
    324a:	0e 43       	clr	r14		;
    324c:	1f 41 2c 00 	mov	44(r1),	r15	;
    3250:	b0 12 92 34 	call	#13458		;#0x3492
    3254:	0f 93       	cmp	#0,	r15	;r3 As==00
    3256:	05 24       	jz	$+12     	;abs 0x3262
    3258:	49 4f       	mov.b	r15,	r9	;
    325a:	59 81 2c 00 	sub.b	44(r1),	r9	;
    325e:	4b 99       	cmp.b	r9,	r11	;
    3260:	de 36       	jge	$-578    	;abs 0x301e
    3262:	49 4b       	mov.b	r11,	r9	;
    3264:	dc 3e       	jmp	$-582    	;abs 0x301e
    3266:	1f 41 2c 00 	mov	44(r1),	r15	;
    326a:	1f 83       	dec	r15		;
    326c:	1f 53       	inc	r15		;
    326e:	cf 93 00 00 	cmp.b	#0,	0(r15)	;r3 As==00
    3272:	fc 23       	jnz	$-6      	;abs 0x326c
    3274:	49 4f       	mov.b	r15,	r9	;
    3276:	59 81 2c 00 	sub.b	44(r1),	r9	;
    327a:	d1 3e       	jmp	$-604    	;abs 0x301e
    327c:	81 41 2c 00 	mov	r1,	44(r1)	;
    3280:	f1 40 28 00 	mov.b	#40,	0(r1)	;#0x0028
    3284:	00 00 
    3286:	f1 40 6e 00 	mov.b	#110,	1(r1)	;#0x006e
    328a:	01 00 
    328c:	f1 40 75 00 	mov.b	#117,	2(r1)	;#0x0075
    3290:	02 00 
    3292:	f1 40 6c 00 	mov.b	#108,	3(r1)	;#0x006c
    3296:	03 00 
    3298:	f1 40 6c 00 	mov.b	#108,	4(r1)	;#0x006c
    329c:	04 00 
    329e:	f1 40 29 00 	mov.b	#41,	5(r1)	;#0x0029
    32a2:	05 00 
    32a4:	c1 43 06 00 	mov.b	#0,	6(r1)	;r3 As==00
    32a8:	cb 3f       	jmp	$-104    	;abs 0x3240
    32aa:	0f 45       	mov	r5,	r15	;
    32ac:	25 53       	incd	r5		;
    32ae:	a1 4f 30 00 	mov	@r15,	48(r1)	;
    32b2:	81 43 32 00 	mov	#0,	50(r1)	;r3 As==00
    32b6:	f1 40 10 00 	mov.b	#16,	52(r1)	;#0x0010
    32ba:	34 00 
    32bc:	f1 d0 40 00 	bis.b	#64,	46(r1)	;#0x0040
    32c0:	2e 00 
    32c2:	77 40 78 00 	mov.b	#120,	r7	;#0x0078
    32c6:	3d 3f       	jmp	$-388    	;abs 0x3142
    32c8:	f1 42 34 00 	mov.b	#8,	52(r1)	;r2 As==11
    32cc:	3a 3f       	jmp	$-394    	;abs 0x3142
    32ce:	d1 d3 2e 00 	bis.b	#1,	46(r1)	;r3 As==01
    32d2:	fa 3f       	jmp	$-10     	;abs 0x32c8
    32d4:	d1 b3 2e 00 	bit.b	#1,	46(r1)	;r3 As==01
    32d8:	19 24       	jz	$+52     	;abs 0x330c
    32da:	0f 45       	mov	r5,	r15	;
    32dc:	25 52       	add	#4,	r5	;r2 As==10
    32de:	b1 4f 30 00 	mov	@r15+,	48(r1)	;
    32e2:	b1 4f 32 00 	mov	@r15+,	50(r1)	;
    32e6:	81 93 32 00 	cmp	#0,	50(r1)	;r3 As==00
    32ea:	04 38       	jl	$+10     	;abs 0x32f4
    32ec:	f1 40 0a 00 	mov.b	#10,	52(r1)	;#0x000a
    32f0:	34 00 
    32f2:	29 3f       	jmp	$-428    	;abs 0x3146
    32f4:	b1 e3 30 00 	xor	#-1,	48(r1)	;r3 As==11
    32f8:	b1 e3 32 00 	xor	#-1,	50(r1)	;r3 As==11
    32fc:	91 53 30 00 	inc	48(r1)		;
    3300:	81 63 32 00 	adc	50(r1)		;
    3304:	f1 40 2d 00 	mov.b	#45,	40(r1)	;#0x002d
    3308:	28 00 
    330a:	f0 3f       	jmp	$-30     	;abs 0x32ec
    330c:	0f 45       	mov	r5,	r15	;
    330e:	25 53       	incd	r5		;
    3310:	a1 4f 30 00 	mov	@r15,	48(r1)	;
    3314:	91 41 30 00 	mov	48(r1),	50(r1)	;
    3318:	32 00 
    331a:	91 51 32 00 	rla	50(r1)		;
    331e:	32 00 
    3320:	91 71 32 00 	subc	50(r1),	50(r1)	;
    3324:	32 00 
    3326:	b1 e3 32 00 	xor	#-1,	50(r1)	;r3 As==11
    332a:	dd 3f       	jmp	$-68     	;abs 0x32e6
    332c:	d1 d3 2e 00 	bis.b	#1,	46(r1)	;r3 As==01
    3330:	d1 3f       	jmp	$-92     	;abs 0x32d4
    3332:	81 41 2c 00 	mov	r1,	44(r1)	;
    3336:	0f 45       	mov	r5,	r15	;
    3338:	25 53       	incd	r5		;
    333a:	e1 4f 00 00 	mov.b	@r15,	0(r1)	;
    333e:	6e 3e       	jmp	$-802    	;abs 0x301c
    3340:	e1 d2 2e 00 	bis.b	#4,	46(r1)	;r2 As==10
    3344:	30 40 0e 2f 	br	#0x2f0e		;
    3348:	f1 b0 10 00 	bit.b	#16,	46(r1)	;#0x0010
    334c:	2e 00 
    334e:	02 24       	jz	$+6      	;abs 0x3354
    3350:	30 40 0e 2f 	br	#0x2f0e		;
    3354:	f1 d0 20 00 	bis.b	#32,	46(r1)	;#0x0020
    3358:	2e 00 
    335a:	30 40 0e 2f 	br	#0x2f0e		;
    335e:	67 46       	mov.b	@r6,	r7	;
    3360:	16 53       	inc	r6		;
    3362:	77 90 2a 00 	cmp.b	#42,	r7	;#0x002a
    3366:	24 24       	jz	$+74     	;abs 0x33b0
    3368:	0d 43       	clr	r13		;
    336a:	4f 47       	mov.b	r7,	r15	;
    336c:	7f 50 d0 ff 	add.b	#-48,	r15	;#0xffd0
    3370:	7f 90 0a 00 	cmp.b	#10,	r15	;#0x000a
    3374:	16 2c       	jc	$+46     	;abs 0x33a2
    3376:	0f 4d       	mov	r13,	r15	;
    3378:	0f 5f       	rla	r15		;
    337a:	0f 5f       	rla	r15		;
    337c:	0e 4d       	mov	r13,	r14	;
    337e:	0e 5e       	rla	r14		;
    3380:	0d 4f       	mov	r15,	r13	;
    3382:	0d 5e       	add	r14,	r13	;
    3384:	0d 5e       	add	r14,	r13	;
    3386:	0d 5e       	add	r14,	r13	;
    3388:	4f 47       	mov.b	r7,	r15	;
    338a:	8f 11       	sxt	r15		;
    338c:	0d 5f       	add	r15,	r13	;
    338e:	3d 50 d0 ff 	add	#-48,	r13	;#0xffd0
    3392:	67 46       	mov.b	@r6,	r7	;
    3394:	16 53       	inc	r6		;
    3396:	4f 47       	mov.b	r7,	r15	;
    3398:	7f 50 d0 ff 	add.b	#-48,	r15	;#0xffd0
    339c:	7f 90 0a 00 	cmp.b	#10,	r15	;#0x000a
    33a0:	ea 2b       	jnc	$-42     	;abs 0x3376
    33a2:	0f 4d       	mov	r13,	r15	;
    33a4:	3d 93       	cmp	#-1,	r13	;r3 As==11
    33a6:	01 34       	jge	$+4      	;abs 0x33aa
    33a8:	3f 43       	mov	#-1,	r15	;r3 As==11
    33aa:	4b 4f       	mov.b	r15,	r11	;
    33ac:	30 40 12 2f 	br	#0x2f12		;
    33b0:	0f 45       	mov	r5,	r15	;
    33b2:	25 53       	incd	r5		;
    33b4:	2d 4f       	mov	@r15,	r13	;
    33b6:	0f 4d       	mov	r13,	r15	;
    33b8:	3d 93       	cmp	#-1,	r13	;r3 As==11
    33ba:	01 34       	jge	$+4      	;abs 0x33be
    33bc:	3f 43       	mov	#-1,	r15	;r3 As==11
    33be:	4b 4f       	mov.b	r15,	r11	;
    33c0:	30 40 0e 2f 	br	#0x2f0e		;
    33c4:	f1 40 2b 00 	mov.b	#43,	40(r1)	;#0x002b
    33c8:	28 00 
    33ca:	30 40 0e 2f 	br	#0x2f0e		;
    33ce:	f1 d0 10 00 	bis.b	#16,	46(r1)	;#0x0010
    33d2:	2e 00 
    33d4:	f1 f0 df ff 	and.b	#-33,	46(r1)	;#0xffdf
    33d8:	2e 00 
    33da:	30 40 0e 2f 	br	#0x2f0e		;
    33de:	0f 45       	mov	r5,	r15	;
    33e0:	25 53       	incd	r5		;
    33e2:	e1 4f 2f 00 	mov.b	@r15,	47(r1)	;
    33e6:	c1 93 2f 00 	cmp.b	#0,	47(r1)	;r3 As==00
    33ea:	02 38       	jl	$+6      	;abs 0x33f0
    33ec:	30 40 0e 2f 	br	#0x2f0e		;
    33f0:	f1 e3 2f 00 	xor.b	#-1,	47(r1)	;r3 As==11
    33f4:	d1 53 2f 00 	inc.b	47(r1)		;
    33f8:	ea 3f       	jmp	$-42     	;abs 0x33ce
    33fa:	f1 d2 2e 00 	bis.b	#8,	46(r1)	;r2 As==11
    33fe:	30 40 0e 2f 	br	#0x2f0e		;
    3402:	c1 93 28 00 	cmp.b	#0,	40(r1)	;r3 As==00
    3406:	02 24       	jz	$+6      	;abs 0x340c
    3408:	30 40 0e 2f 	br	#0x2f0e		;
    340c:	f1 40 20 00 	mov.b	#32,	40(r1)	;#0x0020
    3410:	28 00 
    3412:	30 40 0e 2f 	br	#0x2f0e		;
    3416:	d1 b3 2e 00 	bit.b	#1,	46(r1)	;r3 As==01
    341a:	08 24       	jz	$+18     	;abs 0x342c
    341c:	0f 45       	mov	r5,	r15	;
    341e:	25 52       	add	#4,	r5	;r2 As==10
    3420:	b1 4f 30 00 	mov	@r15+,	48(r1)	;
    3424:	b1 4f 32 00 	mov	@r15+,	50(r1)	;
    3428:	30 40 2c 2f 	br	#0x2f2c		;
    342c:	0f 45       	mov	r5,	r15	;
    342e:	25 53       	incd	r5		;
    3430:	a1 4f 30 00 	mov	@r15,	48(r1)	;
    3434:	81 43 32 00 	mov	#0,	50(r1)	;r3 As==00
    3438:	30 40 2c 2f 	br	#0x2f2c		;
    343c:	0e 4d       	mov	r13,	r14	;
    343e:	b0 12 40 2e 	call	#11840		;#0x2e40
    3442:	0f 93       	cmp	#0,	r15	;r3 As==00
    3444:	02 38       	jl	$+6      	;abs 0x344a
    3446:	30 40 f2 2e 	br	#0x2ef2		;
    344a:	1f 42 02 11 	mov	&0x1102,r15	;0x1102
    344e:	31 50 3c 00 	add	#60,	r1	;#0x003c
    3452:	34 41       	pop	r4		;
    3454:	35 41       	pop	r5		;
    3456:	36 41       	pop	r6		;
    3458:	37 41       	pop	r7		;
    345a:	38 41       	pop	r8		;
    345c:	39 41       	pop	r9		;
    345e:	3a 41       	pop	r10		;
    3460:	3b 41       	pop	r11		;
    3462:	30 41       	ret			

00003464 <puts>:
    3464:	0b 12       	push	r11		;
    3466:	0b 4f       	mov	r15,	r11	;
    3468:	0e 43       	clr	r14		;
    346a:	6f 4b       	mov.b	@r11,	r15	;
    346c:	4f 93       	cmp.b	#0,	r15	;r3 As==00
    346e:	09 24       	jz	$+20     	;abs 0x3482
    3470:	8f 11       	sxt	r15		;
    3472:	1b 53       	inc	r11		;
    3474:	b0 12 e2 21 	call	#8674		;#0x21e2
    3478:	0e 4f       	mov	r15,	r14	;
    347a:	0f 93       	cmp	#0,	r15	;r3 As==00
    347c:	f6 37       	jge	$-18     	;abs 0x346a
    347e:	0f 4e       	mov	r14,	r15	;
    3480:	06 3c       	jmp	$+14     	;abs 0x348e
    3482:	0e 93       	cmp	#0,	r14	;r3 As==00
    3484:	fc 3b       	jl	$-6      	;abs 0x347e
    3486:	3f 40 0a 00 	mov	#10,	r15	;#0x000a
    348a:	b0 12 e2 21 	call	#8674		;#0x21e2
    348e:	3b 41       	pop	r11		;
    3490:	30 41       	ret			

00003492 <memchr>:
    3492:	0b 12       	push	r11		;
    3494:	0b 4f       	mov	r15,	r11	;
    3496:	4c 4e       	mov.b	r14,	r12	;
    3498:	0d 93       	cmp	#0,	r13	;r3 As==00
    349a:	07 24       	jz	$+16     	;abs 0x34aa
    349c:	0e 4b       	mov	r11,	r14	;
    349e:	6f 4e       	mov.b	@r14,	r15	;
    34a0:	1e 53       	inc	r14		;
    34a2:	4f 9c       	cmp.b	r12,	r15	;
    34a4:	04 24       	jz	$+10     	;abs 0x34ae
    34a6:	3d 53       	add	#-1,	r13	;r3 As==11
    34a8:	fa 23       	jnz	$-10     	;abs 0x349e
    34aa:	0f 43       	clr	r15		;
    34ac:	02 3c       	jmp	$+6      	;abs 0x34b2
    34ae:	0f 4e       	mov	r14,	r15	;
    34b0:	3f 53       	add	#-1,	r15	;r3 As==11
    34b2:	3b 41       	pop	r11		;
    34b4:	30 41       	ret			

000034b6 <__udivmodsi4>:
    34b6:	0f ef       	xor	r15,	r15	;
    34b8:	0e ee       	xor	r14,	r14	;
    34ba:	39 40 21 00 	mov	#33,	r9	;#0x0021
    34be:	0a 3c       	jmp	$+22     	;abs 0x34d4
    34c0:	08 10       	rrc	r8		;
    34c2:	0e 6e       	rlc	r14		;
    34c4:	0f 6f       	rlc	r15		;
    34c6:	0f 9b       	cmp	r11,	r15	;
    34c8:	05 28       	jnc	$+12     	;abs 0x34d4
    34ca:	02 20       	jnz	$+6      	;abs 0x34d0
    34cc:	0e 9a       	cmp	r10,	r14	;
    34ce:	02 28       	jnc	$+6      	;abs 0x34d4
    34d0:	0e 8a       	sub	r10,	r14	;
    34d2:	0f 7b       	subc	r11,	r15	;
    34d4:	0c 6c       	rlc	r12		;
    34d6:	0d 6d       	rlc	r13		;
    34d8:	08 68       	rlc	r8		;
    34da:	19 83       	dec	r9		;
    34dc:	f1 23       	jnz	$-28     	;abs 0x34c0
    34de:	30 41       	ret			

000034e0 <__stop_progExec__>:
    34e0:	ff 3f       	jmp	$+0      	;abs 0x34e0
Disassembly of section .data:

00001100 <__data_start>:
	...

00001102 <total_len>:
	...
Disassembly of section .bss:

00001104 <__bss_start>:
	...

00001106 <LCD_linecount>:
	...

00001107 <LCD_charcount>:
	...
Disassembly of section .vectors:

0000ffc0 <InterruptVectors>:
    ffc0:	2c 21       	interrupt service routine at 0x212c
    ffc2:	2c 21       	interrupt service routine at 0x212c
    ffc4:	2c 21       	interrupt service routine at 0x212c
    ffc6:	2c 21       	interrupt service routine at 0x212c
    ffc8:	2c 21       	interrupt service routine at 0x212c
    ffca:	2c 21       	interrupt service routine at 0x212c
    ffcc:	2c 21       	interrupt service routine at 0x212c
    ffce:	2c 21       	interrupt service routine at 0x212c
    ffd0:	2c 21       	interrupt service routine at 0x212c
    ffd2:	2c 21       	interrupt service routine at 0x212c
    ffd4:	2c 21       	interrupt service routine at 0x212c
    ffd6:	2c 21       	interrupt service routine at 0x212c
    ffd8:	2c 21       	interrupt service routine at 0x212c
    ffda:	2c 21       	interrupt service routine at 0x212c
    ffdc:	2c 21       	interrupt service routine at 0x212c
    ffde:	2c 21       	interrupt service routine at 0x212c
    ffe0:	2c 21       	interrupt service routine at 0x212c
    ffe2:	2c 21       	interrupt service routine at 0x212c
    ffe4:	2c 21       	interrupt service routine at 0x212c
    ffe6:	2c 21       	interrupt service routine at 0x212c
    ffe8:	2c 21       	interrupt service routine at 0x212c
    ffea:	2c 21       	interrupt service routine at 0x212c
    ffec:	2c 21       	interrupt service routine at 0x212c
    ffee:	2c 21       	interrupt service routine at 0x212c
    fff0:	2c 21       	interrupt service routine at 0x212c
    fff2:	2c 21       	interrupt service routine at 0x212c
    fff4:	2c 21       	interrupt service routine at 0x212c
    fff6:	2c 21       	interrupt service routine at 0x212c
    fff8:	2c 21       	interrupt service routine at 0x212c
    fffa:	2c 21       	interrupt service routine at 0x212c
    fffc:	2c 21       	interrupt service routine at 0x212c
    fffe:	00 21       	interrupt service routine at 0x2100
Disassembly of section .stab:

00000000 <.stab>:
       0:	01 00       	.word	0x0001;	????
       2:	00 00       	beq			
       4:	00 00       	beq			
       6:	dc 07       	.word	0x07dc;	????
       8:	4a 48       	mov.b	r8,	r10	;
       a:	00 00       	beq			
       c:	01 00       	.word	0x0001;	????
       e:	00 00       	beq			
      10:	64 00       	.word	0x0064;	????
      12:	00 00       	beq			
      14:	2c 21       	jnz	$+602    	;abs 0x26e
      16:	00 00       	beq			
      18:	2b 00       	.word	0x002b;	????
      1a:	00 00       	beq			
      1c:	84 00       	.word	0x0084;	????
      1e:	00 00       	beq			
      20:	2c 21       	jnz	$+602    	;abs 0x27a
      22:	00 00       	beq			
      24:	00 00       	beq			
      26:	00 00       	beq			
      28:	44 00       	.word	0x0044;	????
      2a:	28 00       	.word	0x0028;	????
      2c:	2c 21       	jnz	$+602    	;abs 0x286
      2e:	00 00       	beq			
      30:	00 00       	beq			
      32:	00 00       	beq			
      34:	44 00       	.word	0x0044;	????
      36:	2a 00       	.word	0x002a;	????
      38:	30 21       	jnz	$+610    	;abs 0x29a
      3a:	00 00       	beq			
      3c:	00 00       	beq			
      3e:	00 00       	beq			
      40:	44 00       	.word	0x0044;	????
      42:	3a 00       	.word	0x003a;	????
      44:	c0 ff 00 00 	and.b	r15,	0x0000	; PC rel. 0x0046
      48:	00 00       	beq			
      4a:	00 00       	beq			
      4c:	44 00       	.word	0x0044;	????
      4e:	3b 00       	.word	0x003b;	????
      50:	c2 ff 00 00 	and.b	r15,	&0x0000	;
      54:	00 00       	beq			
      56:	00 00       	beq			
      58:	44 00       	.word	0x0044;	????
      5a:	3c 00       	.word	0x003c;	????
      5c:	c4 ff 00 00 	and.b	r15,	0(r4)	;
      60:	00 00       	beq			
      62:	00 00       	beq			
      64:	44 00       	.word	0x0044;	????
      66:	3d 00       	.word	0x003d;	????
      68:	c6 ff 00 00 	and.b	r15,	0(r6)	;
      6c:	00 00       	beq			
      6e:	00 00       	beq			
      70:	44 00       	.word	0x0044;	????
      72:	3e 00       	.word	0x003e;	????
      74:	c8 ff 00 00 	and.b	r15,	0(r8)	;
      78:	00 00       	beq			
      7a:	00 00       	beq			
      7c:	44 00       	.word	0x0044;	????
      7e:	3f 00       	.word	0x003f;	????
      80:	ca ff 00 00 	and.b	r15,	0(r10)	;
      84:	00 00       	beq			
      86:	00 00       	beq			
      88:	44 00       	.word	0x0044;	????
      8a:	40 00       	.word	0x0040;	????
      8c:	cc ff 00 00 	and.b	r15,	0(r12)	;
      90:	00 00       	beq			
      92:	00 00       	beq			
      94:	44 00       	.word	0x0044;	????
      96:	41 00       	.word	0x0041;	????
      98:	ce ff 00 00 	and.b	r15,	0(r14)	;
      9c:	00 00       	beq			
      9e:	00 00       	beq			
      a0:	44 00       	.word	0x0044;	????
      a2:	42 00       	.word	0x0042;	????
      a4:	d0 ff 00 00 	and.b	0(r15),	0x0000	; PC rel. 0x00a8
      a8:	00 00 
      aa:	00 00       	beq			
      ac:	44 00       	.word	0x0044;	????
      ae:	43 00       	.word	0x0043;	????
      b0:	d2 ff 00 00 	and.b	0(r15),	&0x0000	;
      b4:	00 00 
      b6:	00 00       	beq			
      b8:	44 00       	.word	0x0044;	????
      ba:	44 00       	.word	0x0044;	????
      bc:	d4 ff 00 00 	and.b	0(r15),	0(r4)	;
      c0:	00 00 
      c2:	00 00       	beq			
      c4:	44 00       	.word	0x0044;	????
      c6:	45 00       	.word	0x0045;	????
      c8:	d6 ff 00 00 	and.b	0(r15),	0(r6)	;
      cc:	00 00 
      ce:	00 00       	beq			
      d0:	44 00       	.word	0x0044;	????
      d2:	46 00       	.word	0x0046;	????
      d4:	d8 ff 00 00 	and.b	0(r15),	0(r8)	;
      d8:	00 00 
      da:	00 00       	beq			
      dc:	44 00       	.word	0x0044;	????
      de:	47 00       	.word	0x0047;	????
      e0:	da ff 00 00 	and.b	0(r15),	0(r10)	;
      e4:	00 00 
      e6:	00 00       	beq			
      e8:	44 00       	.word	0x0044;	????
      ea:	48 00       	.word	0x0048;	????
      ec:	dc ff 00 00 	and.b	0(r15),	0(r12)	;
      f0:	00 00 
      f2:	00 00       	beq			
      f4:	44 00       	.word	0x0044;	????
      f6:	49 00       	.word	0x0049;	????
      f8:	de ff 00 00 	and.b	0(r15),	0(r14)	;
      fc:	00 00 
      fe:	00 00       	beq			
     100:	44 00       	.word	0x0044;	????
     102:	4e 00       	.word	0x004e;	????
     104:	e0 ff 00 00 	and.b	@r15,	0x0000	; PC rel. 0x0106
     108:	00 00       	beq			
     10a:	00 00       	beq			
     10c:	44 00       	.word	0x0044;	????
     10e:	4f 00       	.word	0x004f;	????
     110:	e2 ff 00 00 	and.b	@r15,	&0x0000	;
     114:	00 00       	beq			
     116:	00 00       	beq			
     118:	44 00       	.word	0x0044;	????
     11a:	50 00       	.word	0x0050;	????
     11c:	e4 ff 00 00 	and.b	@r15,	0(r4)	;
     120:	00 00       	beq			
     122:	00 00       	beq			
     124:	44 00       	.word	0x0044;	????
     126:	51 00       	.word	0x0051;	????
     128:	e6 ff 00 00 	and.b	@r15,	0(r6)	;
     12c:	00 00       	beq			
     12e:	00 00       	beq			
     130:	44 00       	.word	0x0044;	????
     132:	52 00       	.word	0x0052;	????
     134:	e8 ff 00 00 	and.b	@r15,	0(r8)	;
     138:	00 00       	beq			
     13a:	00 00       	beq			
     13c:	44 00       	.word	0x0044;	????
     13e:	53 00       	.word	0x0053;	????
     140:	ea ff 00 00 	and.b	@r15,	0(r10)	;
     144:	00 00       	beq			
     146:	00 00       	beq			
     148:	44 00       	.word	0x0044;	????
     14a:	54 00       	.word	0x0054;	????
     14c:	ec ff 00 00 	and.b	@r15,	0(r12)	;
     150:	00 00       	beq			
     152:	00 00       	beq			
     154:	44 00       	.word	0x0044;	????
     156:	55 00       	.word	0x0055;	????
     158:	ee ff 00 00 	and.b	@r15,	0(r14)	;
     15c:	00 00       	beq			
     15e:	00 00       	beq			
     160:	44 00       	.word	0x0044;	????
     162:	56 00       	.word	0x0056;	????
     164:	f0 ff 00 00 	and.b	@r15+,	0x0000	; PC rel. 0x0166
     168:	00 00       	beq			
     16a:	00 00       	beq			
     16c:	44 00       	.word	0x0044;	????
     16e:	57 00       	.word	0x0057;	????
     170:	f2 ff 00 00 	and.b	@r15+,	&0x0000	;
     174:	00 00       	beq			
     176:	00 00       	beq			
     178:	44 00       	.word	0x0044;	????
     17a:	58 00       	.word	0x0058;	????
     17c:	f4 ff 00 00 	and.b	@r15+,	0(r4)	;
     180:	00 00       	beq			
     182:	00 00       	beq			
     184:	44 00       	.word	0x0044;	????
     186:	59 00       	.word	0x0059;	????
     188:	f6 ff 00 00 	and.b	@r15+,	0(r6)	;
     18c:	00 00       	beq			
     18e:	00 00       	beq			
     190:	44 00       	.word	0x0044;	????
     192:	5a 00       	.word	0x005a;	????
     194:	f8 ff 00 00 	and.b	@r15+,	0(r8)	;
     198:	00 00       	beq			
     19a:	00 00       	beq			
     19c:	44 00       	.word	0x0044;	????
     19e:	5b 00       	.word	0x005b;	????
     1a0:	fa ff 00 00 	and.b	@r15+,	0(r10)	;
     1a4:	00 00       	beq			
     1a6:	00 00       	beq			
     1a8:	44 00       	.word	0x0044;	????
     1aa:	5c 00       	.word	0x005c;	????
     1ac:	fc ff 00 00 	and.b	@r15+,	0(r12)	;
     1b0:	33 00       	.word	0x0033;	????
     1b2:	00 00       	beq			
     1b4:	64 00       	.word	0x0064;	????
     1b6:	00 00       	beq			
     1b8:	32 21       	jnz	$+614    	;abs 0x41e
     1ba:	00 00       	beq			
     1bc:	4d 00       	.word	0x004d;	????
     1be:	00 00       	beq			
     1c0:	64 00       	.word	0x0064;	????
     1c2:	00 00       	beq			
     1c4:	32 21       	jnz	$+614    	;abs 0x42a
     1c6:	00 00       	beq			
     1c8:	5a 00       	.word	0x005a;	????
     1ca:	00 00       	beq			
     1cc:	3c 00       	.word	0x003c;	????
     1ce:	00 00       	beq			
     1d0:	00 00       	beq			
     1d2:	00 00       	beq			
     1d4:	69 00       	.word	0x0069;	????
     1d6:	00 00       	beq			
     1d8:	80 00       	.word	0x0080;	????
     1da:	00 00       	beq			
     1dc:	00 00       	beq			
     1de:	00 00       	beq			
     1e0:	89 00       	.word	0x0089;	????
     1e2:	00 00       	beq			
     1e4:	80 00       	.word	0x0080;	????
     1e6:	00 00       	beq			
     1e8:	00 00       	beq			
     1ea:	00 00       	beq			
     1ec:	a3 00       	.word	0x00a3;	????
     1ee:	00 00       	beq			
     1f0:	80 00       	.word	0x0080;	????
     1f2:	00 00       	beq			
     1f4:	00 00       	beq			
     1f6:	00 00       	beq			
     1f8:	dc 00       	.word	0x00dc;	????
     1fa:	00 00       	beq			
     1fc:	80 00       	.word	0x0080;	????
     1fe:	00 00       	beq			
     200:	00 00       	beq			
     202:	00 00       	beq			
     204:	14 01       	.word	0x0114;	????
     206:	00 00       	beq			
     208:	80 00       	.word	0x0080;	????
     20a:	00 00       	beq			
     20c:	00 00       	beq			
     20e:	00 00       	beq			
     210:	56 01       	.word	0x0156;	????
     212:	00 00       	beq			
     214:	80 00       	.word	0x0080;	????
     216:	00 00       	beq			
     218:	00 00       	beq			
     21a:	00 00       	beq			
     21c:	a7 01       	.word	0x01a7;	????
     21e:	00 00       	beq			
     220:	80 00       	.word	0x0080;	????
     222:	00 00       	beq			
     224:	00 00       	beq			
     226:	00 00       	beq			
     228:	f8 01       	.word	0x01f8;	????
     22a:	00 00       	beq			
     22c:	80 00       	.word	0x0080;	????
     22e:	00 00       	beq			
     230:	00 00       	beq			
     232:	00 00       	beq			
     234:	1e 02       	.word	0x021e;	????
     236:	00 00       	beq			
     238:	80 00       	.word	0x0080;	????
     23a:	00 00       	beq			
     23c:	00 00       	beq			
     23e:	00 00       	beq			
     240:	5c 02       	.word	0x025c;	????
     242:	00 00       	beq			
     244:	80 00       	.word	0x0080;	????
     246:	00 00       	beq			
     248:	00 00       	beq			
     24a:	00 00       	beq			
     24c:	86 02       	.word	0x0286;	????
     24e:	00 00       	beq			
     250:	80 00       	.word	0x0080;	????
     252:	00 00       	beq			
     254:	00 00       	beq			
     256:	00 00       	beq			
     258:	af 02       	.word	0x02af;	????
     25a:	00 00       	beq			
     25c:	80 00       	.word	0x0080;	????
     25e:	00 00       	beq			
     260:	00 00       	beq			
     262:	00 00       	beq			
     264:	c9 02       	.word	0x02c9;	????
     266:	00 00       	beq			
     268:	80 00       	.word	0x0080;	????
     26a:	00 00       	beq			
     26c:	00 00       	beq			
     26e:	00 00       	beq			
     270:	e4 02       	.word	0x02e4;	????
     272:	00 00       	beq			
     274:	80 00       	.word	0x0080;	????
     276:	00 00       	beq			
     278:	00 00       	beq			
     27a:	00 00       	beq			
     27c:	04 03       	.word	0x0304;	????
     27e:	00 00       	beq			
     280:	80 00       	.word	0x0080;	????
     282:	00 00       	beq			
     284:	00 00       	beq			
     286:	00 00       	beq			
     288:	3d 03       	.word	0x033d;	????
     28a:	00 00       	beq			
     28c:	80 00       	.word	0x0080;	????
     28e:	00 00       	beq			
     290:	00 00       	beq			
     292:	00 00       	beq			
     294:	5b 03       	.word	0x035b;	????
     296:	00 00       	beq			
     298:	80 00       	.word	0x0080;	????
     29a:	00 00       	beq			
     29c:	00 00       	beq			
     29e:	00 00       	beq			
     2a0:	7a 03       	.word	0x037a;	????
     2a2:	00 00       	beq			
     2a4:	80 00       	.word	0x0080;	????
     2a6:	00 00       	beq			
     2a8:	00 00       	beq			
     2aa:	00 00       	beq			
     2ac:	9e 03       	.word	0x039e;	????
     2ae:	00 00       	beq			
     2b0:	80 00       	.word	0x0080;	????
     2b2:	00 00       	beq			
     2b4:	00 00       	beq			
     2b6:	00 00       	beq			
     2b8:	c7 03       	.word	0x03c7;	????
     2ba:	00 00       	beq			
     2bc:	80 00       	.word	0x0080;	????
     2be:	00 00       	beq			
     2c0:	00 00       	beq			
     2c2:	00 00       	beq			
     2c4:	4d 00       	.word	0x004d;	????
     2c6:	00 00       	beq			
     2c8:	82 00       	.word	0x0082;	????
     2ca:	00 00       	beq			
     2cc:	f3 71 04 00 	subc.b	@r1+,	4(r3)	;
     2d0:	de 03       	.word	0x03de;	????
     2d2:	00 00       	beq			
     2d4:	82 00       	.word	0x0082;	????
     2d6:	00 00       	beq			
     2d8:	00 00       	beq			
     2da:	00 00       	beq			
     2dc:	ff 03       	.word	0x03ff;	????
     2de:	00 00       	beq			
     2e0:	82 00       	.word	0x0082;	????
     2e2:	00 00       	beq			
     2e4:	13 10       	rrc	#1		;r3 As==01
     2e6:	00 00       	beq			
     2e8:	33 04       	.word	0x0433;	????
     2ea:	00 00       	beq			
     2ec:	80 00       	.word	0x0080;	????
     2ee:	97 00       	.word	0x0097;	????
     2f0:	00 00       	beq			
     2f2:	00 00       	beq			
     2f4:	4a 04       	.word	0x044a;	????
     2f6:	00 00       	beq			
     2f8:	80 00       	.word	0x0080;	????
     2fa:	d5 00       	.word	0x00d5;	????
     2fc:	00 00       	beq			
     2fe:	00 00       	beq			
     300:	5e 04       	.word	0x045e;	????
     302:	00 00       	beq			
     304:	80 00       	.word	0x0080;	????
     306:	45 01       	.word	0x0145;	????
	...
     310:	a2 00       	.word	0x00a2;	????
     312:	00 00       	beq			
     314:	00 00       	beq			
     316:	00 00       	beq			
     318:	73 04       	.word	0x0473;	????
     31a:	00 00       	beq			
     31c:	82 00       	.word	0x0082;	????
     31e:	00 00       	beq			
     320:	ea a9 00 00 	dadd.b	@r9,	0(r10)	;
     324:	98 04       	.word	0x0498;	????
     326:	00 00       	beq			
     328:	82 00       	.word	0x0082;	????
	...
     332:	00 00       	beq			
     334:	a2 00       	.word	0x00a2;	????
     336:	00 00       	beq			
     338:	00 00       	beq			
     33a:	00 00       	beq			
     33c:	bd 04       	.word	0x04bd;	????
     33e:	00 00       	beq			
     340:	82 00       	.word	0x0082;	????
     342:	00 00       	beq			
     344:	91 34       	jge	$+292    	;abs 0x468
     346:	00 00       	beq			
     348:	e5 04       	.word	0x04e5;	????
     34a:	00 00       	beq			
     34c:	80 00       	.word	0x0080;	????
     34e:	26 00       	.word	0x0026;	????
     350:	00 00       	beq			
     352:	00 00       	beq			
     354:	fa 04       	.word	0x04fa;	????
     356:	00 00       	beq			
     358:	80 00       	.word	0x0080;	????
     35a:	27 00       	.word	0x0027;	????
     35c:	00 00       	beq			
     35e:	00 00       	beq			
     360:	10 05       	.word	0x0510;	????
     362:	00 00       	beq			
     364:	80 00       	.word	0x0080;	????
     366:	29 00       	.word	0x0029;	????
     368:	00 00       	beq			
     36a:	00 00       	beq			
     36c:	25 05       	.word	0x0525;	????
     36e:	00 00       	beq			
     370:	80 00       	.word	0x0080;	????
     372:	2a 00       	.word	0x002a;	????
     374:	00 00       	beq			
     376:	00 00       	beq			
     378:	3b 05       	.word	0x053b;	????
     37a:	00 00       	beq			
     37c:	80 00       	.word	0x0080;	????
     37e:	2c 00       	.word	0x002c;	????
     380:	00 00       	beq			
     382:	00 00       	beq			
     384:	50 05       	.word	0x0550;	????
     386:	00 00       	beq			
     388:	80 00       	.word	0x0080;	????
     38a:	2d 00       	.word	0x002d;	????
     38c:	00 00       	beq			
     38e:	00 00       	beq			
     390:	66 05       	.word	0x0566;	????
     392:	00 00       	beq			
     394:	80 00       	.word	0x0080;	????
     396:	2f 00       	.word	0x002f;	????
     398:	00 00       	beq			
     39a:	00 00       	beq			
     39c:	7b 05       	.word	0x057b;	????
     39e:	00 00       	beq			
     3a0:	80 00       	.word	0x0080;	????
     3a2:	30 00       	.word	0x0030;	????
     3a4:	00 00       	beq			
     3a6:	00 00       	beq			
     3a8:	91 05       	.word	0x0591;	????
     3aa:	00 00       	beq			
     3ac:	80 00       	.word	0x0080;	????
     3ae:	35 00       	.word	0x0035;	????
     3b0:	00 00       	beq			
     3b2:	00 00       	beq			
     3b4:	a7 05       	.word	0x05a7;	????
     3b6:	00 00       	beq			
     3b8:	80 00       	.word	0x0080;	????
     3ba:	36 00       	.word	0x0036;	????
	...
     3c4:	a2 00       	.word	0x00a2;	????
     3c6:	00 00       	beq			
     3c8:	00 00       	beq			
     3ca:	00 00       	beq			
     3cc:	bf 05       	.word	0x05bf;	????
     3ce:	00 00       	beq			
     3d0:	80 00       	.word	0x0080;	????
     3d2:	29 00       	.word	0x0029;	????
     3d4:	00 00       	beq			
     3d6:	00 00       	beq			
     3d8:	d4 05       	.word	0x05d4;	????
     3da:	00 00       	beq			
     3dc:	80 00       	.word	0x0080;	????
     3de:	2a 00       	.word	0x002a;	????
     3e0:	00 00       	beq			
     3e2:	00 00       	beq			
     3e4:	e9 05       	.word	0x05e9;	????
     3e6:	00 00       	beq			
     3e8:	80 00       	.word	0x0080;	????
     3ea:	2b 00       	.word	0x002b;	????
     3ec:	00 00       	beq			
     3ee:	00 00       	beq			
     3f0:	fc 05       	.word	0x05fc;	????
     3f2:	00 00       	beq			
     3f4:	80 00       	.word	0x0080;	????
     3f6:	2c 00       	.word	0x002c;	????
     3f8:	00 00       	beq			
     3fa:	00 00       	beq			
     3fc:	10 06       	.word	0x0610;	????
     3fe:	00 00       	beq			
     400:	80 00       	.word	0x0080;	????
     402:	2d 00       	.word	0x002d;	????
     404:	00 00       	beq			
     406:	00 00       	beq			
     408:	24 06       	.word	0x0624;	????
     40a:	00 00       	beq			
     40c:	80 00       	.word	0x0080;	????
     40e:	2e 00       	.word	0x002e;	????
     410:	00 00       	beq			
     412:	00 00       	beq			
     414:	36 06       	.word	0x0636;	????
     416:	00 00       	beq			
     418:	80 00       	.word	0x0080;	????
     41a:	30 00       	.word	0x0030;	????
     41c:	00 00       	beq			
     41e:	00 00       	beq			
     420:	4c 06       	.word	0x064c;	????
     422:	00 00       	beq			
     424:	80 00       	.word	0x0080;	????
     426:	31 00       	.word	0x0031;	????
     428:	00 00       	beq			
     42a:	00 00       	beq			
     42c:	63 06       	.word	0x0663;	????
     42e:	00 00       	beq			
     430:	80 00       	.word	0x0080;	????
     432:	32 00       	.word	0x0032;	????
     434:	00 00       	beq			
     436:	00 00       	beq			
     438:	7a 06       	.word	0x067a;	????
     43a:	00 00       	beq			
     43c:	80 00       	.word	0x0080;	????
     43e:	33 00       	.word	0x0033;	????
     440:	00 00       	beq			
     442:	00 00       	beq			
     444:	92 06       	.word	0x0692;	????
     446:	00 00       	beq			
     448:	80 00       	.word	0x0080;	????
     44a:	35 00       	.word	0x0035;	????
     44c:	00 00       	beq			
     44e:	00 00       	beq			
     450:	aa 06       	.word	0x06aa;	????
     452:	00 00       	beq			
     454:	80 00       	.word	0x0080;	????
     456:	36 00       	.word	0x0036;	????
     458:	00 00       	beq			
     45a:	00 00       	beq			
     45c:	bf 06       	.word	0x06bf;	????
     45e:	00 00       	beq			
     460:	80 00       	.word	0x0080;	????
     462:	37 00       	.word	0x0037;	????
     464:	00 00       	beq			
     466:	00 00       	beq			
     468:	de 06       	.word	0x06de;	????
     46a:	00 00       	beq			
     46c:	80 00       	.word	0x0080;	????
     46e:	39 00       	.word	0x0039;	????
     470:	00 00       	beq			
     472:	00 00       	beq			
     474:	fc 06       	.word	0x06fc;	????
     476:	00 00       	beq			
     478:	80 00       	.word	0x0080;	????
     47a:	3a 00       	.word	0x003a;	????
     47c:	00 00       	beq			
     47e:	00 00       	beq			
     480:	24 07       	.word	0x0724;	????
     482:	00 00       	beq			
     484:	80 00       	.word	0x0080;	????
     486:	3b 00       	.word	0x003b;	????
     488:	00 00       	beq			
     48a:	00 00       	beq			
     48c:	4c 07       	.word	0x074c;	????
     48e:	00 00       	beq			
     490:	80 00       	.word	0x0080;	????
     492:	3c 00       	.word	0x003c;	????
     494:	00 00       	beq			
     496:	00 00       	beq			
     498:	62 07       	.word	0x0762;	????
     49a:	00 00       	beq			
     49c:	80 00       	.word	0x0080;	????
     49e:	3d 00       	.word	0x003d;	????
     4a0:	00 00       	beq			
     4a2:	00 00       	beq			
     4a4:	76 07       	.word	0x0776;	????
     4a6:	00 00       	beq			
     4a8:	80 00       	.word	0x0080;	????
     4aa:	3e 00       	.word	0x003e;	????
     4ac:	00 00       	beq			
     4ae:	00 00       	beq			
     4b0:	8e 07       	.word	0x078e;	????
     4b2:	00 00       	beq			
     4b4:	80 00       	.word	0x0080;	????
     4b6:	3f 00       	.word	0x003f;	????
     4b8:	00 00       	beq			
     4ba:	00 00       	beq			
     4bc:	a6 07       	.word	0x07a6;	????
     4be:	00 00       	beq			
     4c0:	80 00       	.word	0x0080;	????
     4c2:	40 00       	.word	0x0040;	????
     4c4:	00 00       	beq			
     4c6:	00 00       	beq			
     4c8:	ba 07       	.word	0x07ba;	????
     4ca:	00 00       	beq			
     4cc:	80 00       	.word	0x0080;	????
     4ce:	41 00       	.word	0x0041;	????
     4d0:	00 00       	beq			
     4d2:	00 00       	beq			
     4d4:	ce 07       	.word	0x07ce;	????
     4d6:	00 00       	beq			
     4d8:	80 00       	.word	0x0080;	????
     4da:	42 00       	.word	0x0042;	????
     4dc:	00 00       	beq			
     4de:	00 00       	beq			
     4e0:	e3 07       	.word	0x07e3;	????
     4e2:	00 00       	beq			
     4e4:	80 00       	.word	0x0080;	????
     4e6:	43 00       	.word	0x0043;	????
     4e8:	00 00       	beq			
     4ea:	00 00       	beq			
     4ec:	f9 07       	.word	0x07f9;	????
     4ee:	00 00       	beq			
     4f0:	80 00       	.word	0x0080;	????
     4f2:	44 00       	.word	0x0044;	????
     4f4:	00 00       	beq			
     4f6:	00 00       	beq			
     4f8:	0f 08       	.word	0x080f;	????
     4fa:	00 00       	beq			
     4fc:	80 00       	.word	0x0080;	????
     4fe:	45 00       	.word	0x0045;	????
     500:	00 00       	beq			
     502:	00 00       	beq			
     504:	25 08       	.word	0x0825;	????
     506:	00 00       	beq			
     508:	80 00       	.word	0x0080;	????
     50a:	46 00       	.word	0x0046;	????
     50c:	00 00       	beq			
     50e:	00 00       	beq			
     510:	3b 08       	.word	0x083b;	????
     512:	00 00       	beq			
     514:	80 00       	.word	0x0080;	????
     516:	47 00       	.word	0x0047;	????
     518:	00 00       	beq			
     51a:	00 00       	beq			
     51c:	55 08       	.word	0x0855;	????
     51e:	00 00       	beq			
     520:	80 00       	.word	0x0080;	????
     522:	48 00       	.word	0x0048;	????
     524:	00 00       	beq			
     526:	00 00       	beq			
     528:	6e 08       	.word	0x086e;	????
     52a:	00 00       	beq			
     52c:	80 00       	.word	0x0080;	????
     52e:	49 00       	.word	0x0049;	????
	...
     538:	a2 00       	.word	0x00a2;	????
     53a:	00 00       	beq			
     53c:	00 00       	beq			
     53e:	00 00       	beq			
     540:	82 08       	.word	0x0882;	????
     542:	00 00       	beq			
     544:	82 00       	.word	0x0082;	????
     546:	00 00       	beq			
     548:	76 0d       	.word	0x0d76;	????
     54a:	00 00       	beq			
     54c:	b6 08       	.word	0x08b6;	????
     54e:	00 00       	beq			
     550:	80 00       	.word	0x0080;	????
     552:	2b 00       	.word	0x002b;	????
     554:	00 00       	beq			
     556:	00 00       	beq			
     558:	d3 08       	.word	0x08d3;	????
     55a:	00 00       	beq			
     55c:	80 00       	.word	0x0080;	????
     55e:	6e 00       	.word	0x006e;	????
	...
     568:	a2 00       	.word	0x00a2;	????
	...
     572:	00 00       	beq			
     574:	a2 00       	.word	0x00a2;	????
     576:	00 00       	beq			
     578:	00 00       	beq			
     57a:	00 00       	beq			
     57c:	e8 08       	.word	0x08e8;	????
     57e:	00 00       	beq			
     580:	82 00       	.word	0x0082;	????
     582:	00 00       	beq			
     584:	3c 1a       	.word	0x1a3c;	????
     586:	00 00       	beq			
     588:	ff 03       	.word	0x03ff;	????
     58a:	00 00       	beq			
     58c:	82 00       	.word	0x0082;	????
	...
     596:	00 00       	beq			
     598:	a2 00       	.word	0x00a2;	????
     59a:	00 00       	beq			
     59c:	00 00       	beq			
     59e:	00 00       	beq			
     5a0:	0a 09       	.word	0x090a;	????
     5a2:	00 00       	beq			
     5a4:	80 00       	.word	0x0080;	????
     5a6:	3b 00       	.word	0x003b;	????
     5a8:	00 00       	beq			
     5aa:	00 00       	beq			
     5ac:	41 09       	.word	0x0941;	????
     5ae:	00 00       	beq			
     5b0:	80 00       	.word	0x0080;	????
     5b2:	43 00       	.word	0x0043;	????
	...
     5bc:	a2 00       	.word	0x00a2;	????
     5be:	00 00       	beq			
     5c0:	00 00       	beq			
     5c2:	00 00       	beq			
     5c4:	79 09       	.word	0x0979;	????
     5c6:	00 00       	beq			
     5c8:	82 00       	.word	0x0082;	????
     5ca:	00 00       	beq			
     5cc:	00 00       	beq			
     5ce:	00 00       	beq			
     5d0:	ff 03       	.word	0x03ff;	????
     5d2:	00 00       	beq			
     5d4:	c2 00       	.word	0x00c2;	????
	...
     5de:	00 00       	beq			
     5e0:	a2 00       	.word	0x00a2;	????
     5e2:	00 00       	beq			
     5e4:	00 00       	beq			
     5e6:	00 00       	beq			
     5e8:	9b 09       	.word	0x099b;	????
     5ea:	00 00       	beq			
     5ec:	82 00       	.word	0x0082;	????
     5ee:	00 00       	beq			
     5f0:	00 00       	beq			
     5f2:	00 00       	beq			
     5f4:	c2 09       	.word	0x09c2;	????
     5f6:	00 00       	beq			
     5f8:	82 00       	.word	0x0082;	????
	...
     602:	00 00       	beq			
     604:	a2 00       	.word	0x00a2;	????
     606:	00 00       	beq			
     608:	00 00       	beq			
     60a:	00 00       	beq			
     60c:	e6 09       	.word	0x09e6;	????
     60e:	00 00       	beq			
     610:	82 00       	.word	0x0082;	????
	...
     61a:	00 00       	beq			
     61c:	a2 00       	.word	0x00a2;	????
     61e:	00 00       	beq			
     620:	00 00       	beq			
     622:	00 00       	beq			
     624:	0c 0a       	.word	0x0a0c;	????
     626:	00 00       	beq			
     628:	82 00       	.word	0x0082;	????
     62a:	00 00       	beq			
     62c:	00 00       	beq			
     62e:	00 00       	beq			
     630:	33 0a       	.word	0x0a33;	????
     632:	00 00       	beq			
     634:	82 00       	.word	0x0082;	????
     636:	00 00       	beq			
     638:	8e 65 00 00 	addc	r5,	0(r14)	;
     63c:	62 0a       	.word	0x0a62;	????
     63e:	00 00       	beq			
     640:	80 00       	.word	0x0080;	????
     642:	00 00       	beq			
     644:	00 00       	beq			
     646:	00 00       	beq			
     648:	19 0b       	.word	0x0b19;	????
     64a:	00 00       	beq			
     64c:	80 00       	.word	0x0080;	????
     64e:	27 00       	.word	0x0027;	????
     650:	00 00       	beq			
     652:	00 00       	beq			
     654:	35 0b       	.word	0x0b35;	????
     656:	00 00       	beq			
     658:	80 00       	.word	0x0080;	????
     65a:	00 00       	beq			
     65c:	00 00       	beq			
     65e:	00 00       	beq			
     660:	c9 0b       	.word	0x0bc9;	????
     662:	00 00       	beq			
     664:	80 00       	.word	0x0080;	????
	...
     66e:	00 00       	beq			
     670:	a2 00       	.word	0x00a2;	????
	...
     67a:	00 00       	beq			
     67c:	a2 00       	.word	0x00a2;	????
     67e:	00 00       	beq			
     680:	00 00       	beq			
     682:	00 00       	beq			
     684:	20 0c       	.word	0x0c20;	????
     686:	00 00       	beq			
     688:	82 00       	.word	0x0082;	????
	...
     692:	00 00       	beq			
     694:	a2 00       	.word	0x00a2;	????
     696:	00 00       	beq			
     698:	00 00       	beq			
     69a:	00 00       	beq			
     69c:	47 0c       	.word	0x0c47;	????
     69e:	00 00       	beq			
     6a0:	82 00       	.word	0x0082;	????
     6a2:	00 00       	beq			
     6a4:	0c 8a       	sub	r10,	r12	;
     6a6:	00 00       	beq			
     6a8:	70 0c       	.word	0x0c70;	????
     6aa:	00 00       	beq			
     6ac:	80 00       	.word	0x0080;	????
     6ae:	7f 00       	.word	0x007f;	????
     6b0:	00 00       	beq			
     6b2:	00 00       	beq			
     6b4:	f9 0c       	.word	0x0cf9;	????
     6b6:	00 00       	beq			
     6b8:	80 00       	.word	0x0080;	????
     6ba:	8f 00       	.word	0x008f;	????
     6bc:	00 00       	beq			
     6be:	00 00       	beq			
     6c0:	ca 0d       	.word	0x0dca;	????
     6c2:	00 00       	beq			
     6c4:	80 00       	.word	0x0080;	????
	...
     6ce:	00 00       	beq			
     6d0:	a2 00       	.word	0x00a2;	????
     6d2:	00 00       	beq			
     6d4:	00 00       	beq			
     6d6:	00 00       	beq			
     6d8:	c9 0e       	.word	0x0ec9;	????
     6da:	00 00       	beq			
     6dc:	82 00       	.word	0x0082;	????
     6de:	00 00       	beq			
     6e0:	90 a7 00 00 	dadd	0(r7),	0x0ef2	; PC rel. 0x15d6
     6e4:	f2 0e 
     6e6:	00 00       	beq			
     6e8:	80 00       	.word	0x0080;	????
     6ea:	4c 00       	.word	0x004c;	????
     6ec:	00 00       	beq			
     6ee:	00 00       	beq			
     6f0:	b3 0f       	.word	0x0fb3;	????
     6f2:	00 00       	beq			
     6f4:	80 00       	.word	0x0080;	????
     6f6:	5b 00       	.word	0x005b;	????
     6f8:	00 00       	beq			
     6fa:	00 00       	beq			
     6fc:	73 10       	rrc.b	#-1		;r3 As==11
     6fe:	00 00       	beq			
     700:	80 00       	.word	0x0080;	????
	...
     70a:	00 00       	beq			
     70c:	a2 00       	.word	0x00a2;	????
     70e:	00 00       	beq			
     710:	00 00       	beq			
     712:	00 00       	beq			
     714:	bc 11       	sxt	@r12+		;
     716:	00 00       	beq			
     718:	82 00       	.word	0x0082;	????
	...
     722:	00 00       	beq			
     724:	a2 00       	.word	0x00a2;	????
     726:	00 00       	beq			
     728:	00 00       	beq			
     72a:	00 00       	beq			
     72c:	ea 11       	.word	0x11ea;	????
     72e:	00 00       	beq			
     730:	82 00       	.word	0x0082;	????
	...
     73a:	00 00       	beq			
     73c:	a2 00       	.word	0x00a2;	????
     73e:	00 00       	beq			
     740:	00 00       	beq			
     742:	00 00       	beq			
     744:	12 12 00 00 	push	&0x0000		;
     748:	82 00       	.word	0x0082;	????
	...
     752:	00 00       	beq			
     754:	a2 00       	.word	0x00a2;	????
     756:	00 00       	beq			
     758:	00 00       	beq			
     75a:	00 00       	beq			
     75c:	3a 12       	push	@r10+		;
     75e:	00 00       	beq			
     760:	82 00       	.word	0x0082;	????
     762:	00 00       	beq			
     764:	0c af       	dadd	r15,	r12	;
     766:	00 00       	beq			
     768:	62 12       	push.b	#4		;r2 As==10
     76a:	00 00       	beq			
     76c:	80 00       	.word	0x0080;	????
     76e:	2a 00       	.word	0x002a;	????
     770:	00 00       	beq			
     772:	00 00       	beq			
     774:	29 13       	reti			;return from interupt
     776:	00 00       	beq			
     778:	80 00       	.word	0x0080;	????
     77a:	36 00       	.word	0x0036;	????
     77c:	00 00       	beq			
     77e:	00 00       	beq			
     780:	d5 13       	.word	0x13d5;	????
     782:	00 00       	beq			
     784:	80 00       	.word	0x0080;	????
     786:	4a 00       	.word	0x004a;	????
     788:	00 00       	beq			
     78a:	00 00       	beq			
     78c:	f0 14       	.word	0x14f0;	????
     78e:	00 00       	beq			
     790:	80 00       	.word	0x0080;	????
	...
     79a:	00 00       	beq			
     79c:	a2 00       	.word	0x00a2;	????
     79e:	00 00       	beq			
     7a0:	00 00       	beq			
     7a2:	00 00       	beq			
     7a4:	59 15       	.word	0x1559;	????
     7a6:	00 00       	beq			
     7a8:	82 00       	.word	0x0082;	????
	...
     7b2:	00 00       	beq			
     7b4:	a2 00       	.word	0x00a2;	????
     7b6:	00 00       	beq			
     7b8:	00 00       	beq			
     7ba:	00 00       	beq			
     7bc:	81 15       	.word	0x1581;	????
     7be:	00 00       	beq			
     7c0:	82 00       	.word	0x0082;	????
	...
     7ca:	00 00       	beq			
     7cc:	a2 00       	.word	0x00a2;	????
     7ce:	00 00       	beq			
     7d0:	00 00       	beq			
     7d2:	00 00       	beq			
     7d4:	a7 15       	.word	0x15a7;	????
     7d6:	00 00       	beq			
     7d8:	82 00       	.word	0x0082;	????
	...
     7e2:	00 00       	beq			
     7e4:	a2 00       	.word	0x00a2;	????
	...
     7ee:	00 00       	beq			
     7f0:	a2 00       	.word	0x00a2;	????
     7f2:	00 00       	beq			
     7f4:	00 00       	beq			
     7f6:	00 00       	beq			
     7f8:	d0 15       	.word	0x15d0;	????
     7fa:	00 00       	beq			
     7fc:	82 00       	.word	0x0082;	????
	...
     806:	00 00       	beq			
     808:	a2 00       	.word	0x00a2;	????
     80a:	00 00       	beq			
     80c:	00 00       	beq			
     80e:	00 00       	beq			
     810:	da 15       	.word	0x15da;	????
     812:	00 00       	beq			
     814:	82 00       	.word	0x0082;	????
	...
     81e:	00 00       	beq			
     820:	a2 00       	.word	0x00a2;	????
     822:	00 00       	beq			
     824:	00 00       	beq			
     826:	00 00       	beq			
     828:	e2 15       	.word	0x15e2;	????
     82a:	00 00       	beq			
     82c:	24 00       	.word	0x0024;	????
     82e:	67 00       	.word	0x0067;	????
     830:	68 21       	jnz	$+722    	;abs 0xb02
     832:	00 00       	beq			
     834:	00 00       	beq			
     836:	00 00       	beq			
     838:	44 00       	.word	0x0044;	????
     83a:	67 00       	.word	0x0067;	????
	...
     844:	44 00       	.word	0x0044;	????
     846:	6a 00       	.word	0x006a;	????
     848:	04 00       	.word	0x0004;	????
     84a:	00 00       	beq			
     84c:	00 00       	beq			
     84e:	00 00       	beq			
     850:	44 00       	.word	0x0044;	????
     852:	6b 00       	.word	0x006b;	????
     854:	0a 00       	.word	0x000a;	????
     856:	00 00       	beq			
     858:	00 00       	beq			
     85a:	00 00       	beq			
     85c:	44 00       	.word	0x0044;	????
     85e:	6c 00       	.word	0x006c;	????
     860:	0e 00       	.word	0x000e;	????
     862:	00 00       	beq			
     864:	00 00       	beq			
     866:	00 00       	beq			
     868:	44 00       	.word	0x0044;	????
     86a:	6d 00       	.word	0x006d;	????
     86c:	14 00       	.word	0x0014;	????
     86e:	00 00       	beq			
     870:	00 00       	beq			
     872:	00 00       	beq			
     874:	44 00       	.word	0x0044;	????
     876:	6e 00       	.word	0x006e;	????
     878:	1e 00       	.word	0x001e;	????
     87a:	00 00       	beq			
     87c:	00 00       	beq			
     87e:	00 00       	beq			
     880:	44 00       	.word	0x0044;	????
     882:	7f 00       	.word	0x007f;	????
     884:	2a 00       	.word	0x002a;	????
     886:	00 00       	beq			
     888:	00 00       	beq			
     88a:	00 00       	beq			
     88c:	44 00       	.word	0x0044;	????
     88e:	80 00       	.word	0x0080;	????
     890:	32 00       	.word	0x0032;	????
     892:	00 00       	beq			
     894:	00 00       	beq			
     896:	00 00       	beq			
     898:	44 00       	.word	0x0044;	????
     89a:	81 00       	.word	0x0081;	????
     89c:	3a 00       	.word	0x003a;	????
     89e:	00 00       	beq			
     8a0:	00 00       	beq			
     8a2:	00 00       	beq			
     8a4:	44 00       	.word	0x0044;	????
     8a6:	82 00       	.word	0x0082;	????
     8a8:	42 00       	.word	0x0042;	????
     8aa:	00 00       	beq			
     8ac:	00 00       	beq			
     8ae:	00 00       	beq			
     8b0:	44 00       	.word	0x0044;	????
     8b2:	84 00       	.word	0x0084;	????
     8b4:	4e 00       	.word	0x004e;	????
     8b6:	00 00       	beq			
     8b8:	00 00       	beq			
     8ba:	00 00       	beq			
     8bc:	44 00       	.word	0x0044;	????
     8be:	85 00       	.word	0x0085;	????
     8c0:	56 00       	.word	0x0056;	????
     8c2:	00 00       	beq			
     8c4:	00 00       	beq			
     8c6:	00 00       	beq			
     8c8:	44 00       	.word	0x0044;	????
     8ca:	8a 00       	.word	0x008a;	????
     8cc:	5a 00       	.word	0x005a;	????
     8ce:	00 00       	beq			
     8d0:	00 00       	beq			
     8d2:	00 00       	beq			
     8d4:	44 00       	.word	0x0044;	????
     8d6:	8b 00       	.word	0x008b;	????
     8d8:	5e 00       	.word	0x005e;	????
     8da:	00 00       	beq			
     8dc:	00 00       	beq			
     8de:	00 00       	beq			
     8e0:	44 00       	.word	0x0044;	????
     8e2:	86 00       	.word	0x0086;	????
     8e4:	68 00       	.word	0x0068;	????
     8e6:	00 00       	beq			
     8e8:	00 00       	beq			
     8ea:	00 00       	beq			
     8ec:	44 00       	.word	0x0044;	????
     8ee:	8f 00       	.word	0x008f;	????
     8f0:	72 00       	.word	0x0072;	????
     8f2:	00 00       	beq			
     8f4:	ee 15       	.word	0x15ee;	????
     8f6:	00 00       	beq			
     8f8:	80 00       	.word	0x0080;	????
     8fa:	68 00       	.word	0x0068;	????
     8fc:	00 00       	beq			
     8fe:	00 00       	beq			
     900:	0e 16       	.word	0x160e;	????
     902:	00 00       	beq			
     904:	80 00       	.word	0x0080;	????
     906:	68 00       	.word	0x0068;	????
     908:	50 00       	.word	0x0050;	????
     90a:	00 00       	beq			
     90c:	00 00       	beq			
     90e:	00 00       	beq			
     910:	c0 00       	.word	0x00c0;	????
     912:	00 00       	beq			
     914:	04 00       	.word	0x0004;	????
     916:	00 00       	beq			
     918:	00 00       	beq			
     91a:	00 00       	beq			
     91c:	e0 00       	.word	0x00e0;	????
     91e:	00 00       	beq			
     920:	72 00       	.word	0x0072;	????
     922:	00 00       	beq			
     924:	00 00       	beq			
     926:	00 00       	beq			
     928:	24 00       	.word	0x0024;	????
     92a:	00 00       	beq			
     92c:	7a 00       	.word	0x007a;	????
     92e:	00 00       	beq			
     930:	1c 16       	.word	0x161c;	????
     932:	00 00       	beq			
     934:	24 00       	.word	0x0024;	????
     936:	94 00       	.word	0x0094;	????
     938:	e2 21       	jnz	$+966    	;abs 0xcfe
     93a:	00 00       	beq			
     93c:	2b 16       	.word	0x162b;	????
     93e:	00 00       	beq			
     940:	40 00       	.word	0x0040;	????
     942:	93 00       	.word	0x0093;	????
     944:	0f 00       	.word	0x000f;	????
     946:	00 00       	beq			
     948:	00 00       	beq			
     94a:	00 00       	beq			
     94c:	44 00       	.word	0x0044;	????
     94e:	94 00       	.word	0x0094;	????
	...
     958:	44 00       	.word	0x0044;	????
     95a:	95 00       	.word	0x0095;	????
	...
     964:	44 00       	.word	0x0044;	????
     966:	97 00       	.word	0x0097;	????
     968:	10 00       	.word	0x0010;	????
     96a:	00 00       	beq			
     96c:	00 00       	beq			
     96e:	00 00       	beq			
     970:	24 00       	.word	0x0024;	????
     972:	00 00       	beq			
     974:	14 00       	.word	0x0014;	????
     976:	00 00       	beq			
     978:	34 16       	.word	0x1634;	????
     97a:	00 00       	beq			
     97c:	24 00       	.word	0x0024;	????
     97e:	9c 00       	.word	0x009c;	????
     980:	f6 21       	jnz	$+1006   	;abs 0xd6e
     982:	00 00       	beq			
     984:	00 00       	beq			
     986:	00 00       	beq			
     988:	44 00       	.word	0x0044;	????
     98a:	9c 00       	.word	0x009c;	????
	...
     994:	44 00       	.word	0x0044;	????
     996:	9e 00       	.word	0x009e;	????
	...
     9a0:	44 00       	.word	0x0044;	????
     9a2:	9f 00       	.word	0x009f;	????
     9a4:	06 00       	.word	0x0006;	????
     9a6:	00 00       	beq			
     9a8:	00 00       	beq			
     9aa:	00 00       	beq			
     9ac:	44 00       	.word	0x0044;	????
     9ae:	a0 00       	.word	0x00a0;	????
     9b0:	0c 00       	.word	0x000c;	????
     9b2:	00 00       	beq			
     9b4:	00 00       	beq			
     9b6:	00 00       	beq			
     9b8:	44 00       	.word	0x0044;	????
     9ba:	a1 00       	.word	0x00a1;	????
     9bc:	10 00       	.word	0x0010;	????
     9be:	00 00       	beq			
     9c0:	00 00       	beq			
     9c2:	00 00       	beq			
     9c4:	44 00       	.word	0x0044;	????
     9c6:	a4 00       	.word	0x00a4;	????
     9c8:	16 00       	.word	0x0016;	????
     9ca:	00 00       	beq			
     9cc:	00 00       	beq			
     9ce:	00 00       	beq			
     9d0:	44 00       	.word	0x0044;	????
     9d2:	a5 00       	.word	0x00a5;	????
     9d4:	1c 00       	.word	0x001c;	????
     9d6:	00 00       	beq			
     9d8:	00 00       	beq			
     9da:	00 00       	beq			
     9dc:	44 00       	.word	0x0044;	????
     9de:	a6 00       	.word	0x00a6;	????
     9e0:	20 00       	.word	0x0020;	????
     9e2:	00 00       	beq			
     9e4:	00 00       	beq			
     9e6:	00 00       	beq			
     9e8:	44 00       	.word	0x0044;	????
     9ea:	a7 00       	.word	0x00a7;	????
     9ec:	26 00       	.word	0x0026;	????
     9ee:	00 00       	beq			
     9f0:	00 00       	beq			
     9f2:	00 00       	beq			
     9f4:	44 00       	.word	0x0044;	????
     9f6:	a8 00       	.word	0x00a8;	????
     9f8:	2c 00       	.word	0x002c;	????
     9fa:	00 00       	beq			
     9fc:	00 00       	beq			
     9fe:	00 00       	beq			
     a00:	44 00       	.word	0x0044;	????
     a02:	a9 00       	.word	0x00a9;	????
     a04:	30 00       	.word	0x0030;	????
     a06:	00 00       	beq			
     a08:	00 00       	beq			
     a0a:	00 00       	beq			
     a0c:	44 00       	.word	0x0044;	????
     a0e:	aa 00       	.word	0x00aa;	????
     a10:	36 00       	.word	0x0036;	????
     a12:	00 00       	beq			
     a14:	00 00       	beq			
     a16:	00 00       	beq			
     a18:	44 00       	.word	0x0044;	????
     a1a:	ad 00       	.word	0x00ad;	????
     a1c:	3c 00       	.word	0x003c;	????
     a1e:	00 00       	beq			
     a20:	00 00       	beq			
     a22:	00 00       	beq			
     a24:	44 00       	.word	0x0044;	????
     a26:	ae 00       	.word	0x00ae;	????
     a28:	40 00       	.word	0x0040;	????
     a2a:	00 00       	beq			
     a2c:	00 00       	beq			
     a2e:	00 00       	beq			
     a30:	24 00       	.word	0x0024;	????
     a32:	00 00       	beq			
     a34:	42 00       	.word	0x0042;	????
     a36:	00 00       	beq			
     a38:	47 16       	.word	0x1647;	????
     a3a:	00 00       	beq			
     a3c:	24 00       	.word	0x0024;	????
     a3e:	b3 00       	.word	0x00b3;	????
     a40:	38 22       	jnz	$-910    	;abs 0x6b2
     a42:	00 00       	beq			
     a44:	57 16       	.word	0x1657;	????
     a46:	00 00       	beq			
     a48:	40 00       	.word	0x0040;	????
     a4a:	b2 00       	.word	0x00b2;	????
     a4c:	0f 00       	.word	0x000f;	????
     a4e:	00 00       	beq			
     a50:	00 00       	beq			
     a52:	00 00       	beq			
     a54:	44 00       	.word	0x0044;	????
     a56:	b3 00       	.word	0x00b3;	????
	...
     a60:	44 00       	.word	0x0044;	????
     a62:	b6 00       	.word	0x00b6;	????
	...
     a6c:	44 00       	.word	0x0044;	????
     a6e:	b7 00       	.word	0x00b7;	????
     a70:	0e 00       	.word	0x000e;	????
     a72:	00 00       	beq			
     a74:	64 16       	.word	0x1664;	????
     a76:	00 00       	beq			
     a78:	40 00       	.word	0x0040;	????
     a7a:	b4 00       	.word	0x00b4;	????
     a7c:	0e 00       	.word	0x000e;	????
     a7e:	00 00       	beq			
     a80:	00 00       	beq			
     a82:	00 00       	beq			
     a84:	c0 00       	.word	0x00c0;	????
	...
     a8e:	00 00       	beq			
     a90:	e0 00       	.word	0x00e0;	????
     a92:	00 00       	beq			
     a94:	10 00       	.word	0x0010;	????
     a96:	00 00       	beq			
     a98:	00 00       	beq			
     a9a:	00 00       	beq			
     a9c:	24 00       	.word	0x0024;	????
     a9e:	00 00       	beq			
     aa0:	10 00       	.word	0x0010;	????
     aa2:	00 00       	beq			
     aa4:	6d 16       	.word	0x166d;	????
     aa6:	00 00       	beq			
     aa8:	24 00       	.word	0x0024;	????
     aaa:	bc 00       	.word	0x00bc;	????
     aac:	48 22       	jnz	$-878    	;abs 0x73e
     aae:	00 00       	beq			
     ab0:	57 16       	.word	0x1657;	????
     ab2:	00 00       	beq			
     ab4:	40 00       	.word	0x0040;	????
     ab6:	bb 00       	.word	0x00bb;	????
     ab8:	0a 00       	.word	0x000a;	????
     aba:	00 00       	beq			
     abc:	00 00       	beq			
     abe:	00 00       	beq			
     ac0:	44 00       	.word	0x0044;	????
     ac2:	bc 00       	.word	0x00bc;	????
	...
     acc:	44 00       	.word	0x0044;	????
     ace:	bf 00       	.word	0x00bf;	????
     ad0:	06 00       	.word	0x0006;	????
     ad2:	00 00       	beq			
     ad4:	00 00       	beq			
     ad6:	00 00       	beq			
     ad8:	44 00       	.word	0x0044;	????
     ada:	c0 00       	.word	0x00c0;	????
     adc:	1a 00       	.word	0x001a;	????
     ade:	00 00       	beq			
     ae0:	64 16       	.word	0x1664;	????
     ae2:	00 00       	beq			
     ae4:	40 00       	.word	0x0040;	????
     ae6:	bd 00       	.word	0x00bd;	????
     ae8:	0b 00       	.word	0x000b;	????
     aea:	00 00       	beq			
     aec:	00 00       	beq			
     aee:	00 00       	beq			
     af0:	c0 00       	.word	0x00c0;	????
     af2:	00 00       	beq			
     af4:	06 00       	.word	0x0006;	????
     af6:	00 00       	beq			
     af8:	00 00       	beq			
     afa:	00 00       	beq			
     afc:	e0 00       	.word	0x00e0;	????
     afe:	00 00       	beq			
     b00:	1a 00       	.word	0x001a;	????
     b02:	00 00       	beq			
     b04:	00 00       	beq			
     b06:	00 00       	beq			
     b08:	24 00       	.word	0x0024;	????
     b0a:	00 00       	beq			
     b0c:	20 00       	.word	0x0020;	????
     b0e:	00 00       	beq			
     b10:	7d 16       	.word	0x167d;	????
     b12:	00 00       	beq			
     b14:	24 00       	.word	0x0024;	????
     b16:	c5 00       	.word	0x00c5;	????
     b18:	68 22       	jnz	$-814    	;abs 0x7ea
     b1a:	00 00       	beq			
     b1c:	00 00       	beq			
     b1e:	00 00       	beq			
     b20:	44 00       	.word	0x0044;	????
     b22:	c5 00       	.word	0x00c5;	????
	...
     b2c:	44 00       	.word	0x0044;	????
     b2e:	c6 00       	.word	0x00c6;	????
	...
     b38:	44 00       	.word	0x0044;	????
     b3a:	c7 00       	.word	0x00c7;	????
     b3c:	02 00       	.word	0x0002;	????
     b3e:	00 00       	beq			
     b40:	00 00       	beq			
     b42:	00 00       	beq			
     b44:	44 00       	.word	0x0044;	????
     b46:	c8 00       	.word	0x00c8;	????
     b48:	0c 00       	.word	0x000c;	????
     b4a:	00 00       	beq			
     b4c:	00 00       	beq			
     b4e:	00 00       	beq			
     b50:	44 00       	.word	0x0044;	????
     b52:	c9 00       	.word	0x00c9;	????
     b54:	16 00       	.word	0x0016;	????
     b56:	00 00       	beq			
     b58:	00 00       	beq			
     b5a:	00 00       	beq			
     b5c:	44 00       	.word	0x0044;	????
     b5e:	ca 00       	.word	0x00ca;	????
     b60:	20 00       	.word	0x0020;	????
     b62:	00 00       	beq			
     b64:	00 00       	beq			
     b66:	00 00       	beq			
     b68:	44 00       	.word	0x0044;	????
     b6a:	cc 00       	.word	0x00cc;	????
     b6c:	2a 00       	.word	0x002a;	????
     b6e:	00 00       	beq			
     b70:	00 00       	beq			
     b72:	00 00       	beq			
     b74:	44 00       	.word	0x0044;	????
     b76:	cd 00       	.word	0x00cd;	????
     b78:	2c 00       	.word	0x002c;	????
     b7a:	00 00       	beq			
     b7c:	92 16       	.word	0x1692;	????
     b7e:	00 00       	beq			
     b80:	40 00       	.word	0x0040;	????
     b82:	c6 00       	.word	0x00c6;	????
     b84:	0e 00       	.word	0x000e;	????
     b86:	00 00       	beq			
     b88:	00 00       	beq			
     b8a:	00 00       	beq			
     b8c:	c0 00       	.word	0x00c0;	????
	...
     b96:	00 00       	beq			
     b98:	e0 00       	.word	0x00e0;	????
     b9a:	00 00       	beq			
     b9c:	2c 00       	.word	0x002c;	????
     b9e:	00 00       	beq			
     ba0:	00 00       	beq			
     ba2:	00 00       	beq			
     ba4:	24 00       	.word	0x0024;	????
     ba6:	00 00       	beq			
     ba8:	2e 00       	.word	0x002e;	????
     baa:	00 00       	beq			
     bac:	a0 16       	.word	0x16a0;	????
     bae:	00 00       	beq			
     bb0:	24 00       	.word	0x0024;	????
     bb2:	d0 00       	.word	0x00d0;	????
     bb4:	96 22       	jnz	$-722    	;abs 0x8e2
     bb6:	00 00       	beq			
     bb8:	00 00       	beq			
     bba:	00 00       	beq			
     bbc:	44 00       	.word	0x0044;	????
     bbe:	d0 00       	.word	0x00d0;	????
	...
     bc8:	44 00       	.word	0x0044;	????
     bca:	d4 00       	.word	0x00d4;	????
     bcc:	02 00       	.word	0x0002;	????
     bce:	00 00       	beq			
     bd0:	00 00       	beq			
     bd2:	00 00       	beq			
     bd4:	44 00       	.word	0x0044;	????
     bd6:	d5 00       	.word	0x00d5;	????
     bd8:	08 00       	.word	0x0008;	????
     bda:	00 00       	beq			
     bdc:	00 00       	beq			
     bde:	00 00       	beq			
     be0:	44 00       	.word	0x0044;	????
     be2:	d8 00       	.word	0x00d8;	????
     be4:	12 00       	.word	0x0012;	????
     be6:	00 00       	beq			
     be8:	00 00       	beq			
     bea:	00 00       	beq			
     bec:	44 00       	.word	0x0044;	????
     bee:	d9 00       	.word	0x00d9;	????
     bf0:	14 00       	.word	0x0014;	????
     bf2:	00 00       	beq			
     bf4:	b2 16       	.word	0x16b2;	????
     bf6:	00 00       	beq			
     bf8:	40 00       	.word	0x0040;	????
     bfa:	d1 00       	.word	0x00d1;	????
     bfc:	0b 00       	.word	0x000b;	????
     bfe:	00 00       	beq			
     c00:	00 00       	beq			
     c02:	00 00       	beq			
     c04:	c0 00       	.word	0x00c0;	????
     c06:	00 00       	beq			
     c08:	02 00       	.word	0x0002;	????
     c0a:	00 00       	beq			
     c0c:	00 00       	beq			
     c0e:	00 00       	beq			
     c10:	e0 00       	.word	0x00e0;	????
     c12:	00 00       	beq			
     c14:	14 00       	.word	0x0014;	????
     c16:	00 00       	beq			
     c18:	00 00       	beq			
     c1a:	00 00       	beq			
     c1c:	24 00       	.word	0x0024;	????
     c1e:	00 00       	beq			
     c20:	18 00       	.word	0x0018;	????
     c22:	00 00       	beq			
     c24:	bc 16       	.word	0x16bc;	????
     c26:	00 00       	beq			
     c28:	24 00       	.word	0x0024;	????
     c2a:	dc 00       	.word	0x00dc;	????
     c2c:	ae 22       	jnz	$-674    	;abs 0x98a
     c2e:	00 00       	beq			
     c30:	00 00       	beq			
     c32:	00 00       	beq			
     c34:	44 00       	.word	0x0044;	????
     c36:	dc 00       	.word	0x00dc;	????
	...
     c40:	44 00       	.word	0x0044;	????
     c42:	dd 00       	.word	0x00dd;	????
	...
     c4c:	44 00       	.word	0x0044;	????
     c4e:	de 00       	.word	0x00de;	????
     c50:	10 00       	.word	0x0010;	????
     c52:	00 00       	beq			
     c54:	00 00       	beq			
     c56:	00 00       	beq			
     c58:	24 00       	.word	0x0024;	????
     c5a:	00 00       	beq			
     c5c:	12 00       	.word	0x0012;	????
     c5e:	00 00       	beq			
     c60:	d0 16       	.word	0x16d0;	????
     c62:	00 00       	beq			
     c64:	24 00       	.word	0x0024;	????
     c66:	e1 00       	.word	0x00e1;	????
     c68:	c0 22       	jnz	$-638    	;abs 0x9ea
     c6a:	00 00       	beq			
     c6c:	e0 16       	.word	0x16e0;	????
     c6e:	00 00       	beq			
     c70:	40 00       	.word	0x0040;	????
     c72:	e0 00       	.word	0x00e0;	????
     c74:	0b 00       	.word	0x000b;	????
     c76:	00 00       	beq			
     c78:	00 00       	beq			
     c7a:	00 00       	beq			
     c7c:	44 00       	.word	0x0044;	????
     c7e:	e1 00       	.word	0x00e1;	????
	...
     c88:	44 00       	.word	0x0044;	????
     c8a:	e2 00       	.word	0x00e2;	????
     c8c:	04 00       	.word	0x0004;	????
     c8e:	00 00       	beq			
     c90:	00 00       	beq			
     c92:	00 00       	beq			
     c94:	44 00       	.word	0x0044;	????
     c96:	e3 00       	.word	0x00e3;	????
     c98:	14 00       	.word	0x0014;	????
     c9a:	00 00       	beq			
     c9c:	00 00       	beq			
     c9e:	00 00       	beq			
     ca0:	44 00       	.word	0x0044;	????
     ca2:	e4 00       	.word	0x00e4;	????
     ca4:	18 00       	.word	0x0018;	????
     ca6:	00 00       	beq			
     ca8:	00 00       	beq			
     caa:	00 00       	beq			
     cac:	24 00       	.word	0x0024;	????
     cae:	00 00       	beq			
     cb0:	1c 00       	.word	0x001c;	????
     cb2:	00 00       	beq			
     cb4:	ec 16       	.word	0x16ec;	????
     cb6:	00 00       	beq			
     cb8:	24 00       	.word	0x0024;	????
     cba:	e7 00       	.word	0x00e7;	????
     cbc:	dc 22       	jnz	$-582    	;abs 0xa76
     cbe:	00 00       	beq			
     cc0:	00 00       	beq			
     cc2:	00 00       	beq			
     cc4:	44 00       	.word	0x0044;	????
     cc6:	e7 00       	.word	0x00e7;	????
	...
     cd0:	44 00       	.word	0x0044;	????
     cd2:	ea 00       	.word	0x00ea;	????
     cd4:	02 00       	.word	0x0002;	????
     cd6:	00 00       	beq			
     cd8:	00 00       	beq			
     cda:	00 00       	beq			
     cdc:	44 00       	.word	0x0044;	????
     cde:	eb 00       	.word	0x00eb;	????
     ce0:	08 00       	.word	0x0008;	????
     ce2:	00 00       	beq			
     ce4:	00 00       	beq			
     ce6:	00 00       	beq			
     ce8:	44 00       	.word	0x0044;	????
     cea:	ed 00       	.word	0x00ed;	????
     cec:	0c 00       	.word	0x000c;	????
     cee:	00 00       	beq			
     cf0:	00 00       	beq			
     cf2:	00 00       	beq			
     cf4:	44 00       	.word	0x0044;	????
     cf6:	ee 00       	.word	0x00ee;	????
     cf8:	0e 00       	.word	0x000e;	????
     cfa:	00 00       	beq			
     cfc:	b2 16       	.word	0x16b2;	????
     cfe:	00 00       	beq			
     d00:	40 00       	.word	0x0040;	????
     d02:	e8 00       	.word	0x00e8;	????
     d04:	0b 00       	.word	0x000b;	????
     d06:	00 00       	beq			
     d08:	00 00       	beq			
     d0a:	00 00       	beq			
     d0c:	c0 00       	.word	0x00c0;	????
     d0e:	00 00       	beq			
     d10:	02 00       	.word	0x0002;	????
     d12:	00 00       	beq			
     d14:	00 00       	beq			
     d16:	00 00       	beq			
     d18:	e0 00       	.word	0x00e0;	????
     d1a:	00 00       	beq			
     d1c:	0e 00       	.word	0x000e;	????
     d1e:	00 00       	beq			
     d20:	00 00       	beq			
     d22:	00 00       	beq			
     d24:	24 00       	.word	0x0024;	????
     d26:	00 00       	beq			
     d28:	12 00       	.word	0x0012;	????
     d2a:	00 00       	beq			
     d2c:	ff 16       	.word	0x16ff;	????
     d2e:	00 00       	beq			
     d30:	24 00       	.word	0x0024;	????
     d32:	f9 00       	.word	0x00f9;	????
     d34:	ee 22       	jnz	$-546    	;abs 0xb12
     d36:	00 00       	beq			
     d38:	12 17       	.word	0x1712;	????
     d3a:	00 00       	beq			
     d3c:	40 00       	.word	0x0040;	????
     d3e:	f8 00       	.word	0x00f8;	????
     d40:	0f 00       	.word	0x000f;	????
     d42:	00 00       	beq			
     d44:	24 17       	.word	0x1724;	????
     d46:	00 00       	beq			
     d48:	40 00       	.word	0x0040;	????
     d4a:	f8 00       	.word	0x00f8;	????
     d4c:	0e 00       	.word	0x000e;	????
     d4e:	00 00       	beq			
     d50:	00 00       	beq			
     d52:	00 00       	beq			
     d54:	44 00       	.word	0x0044;	????
     d56:	f9 00       	.word	0x00f9;	????
	...
     d60:	44 00       	.word	0x0044;	????
     d62:	fb 00       	.word	0x00fb;	????
	...
     d6c:	44 00       	.word	0x0044;	????
     d6e:	fc 00       	.word	0x00fc;	????
     d70:	06 00       	.word	0x0006;	????
     d72:	00 00       	beq			
     d74:	00 00       	beq			
     d76:	00 00       	beq			
     d78:	44 00       	.word	0x0044;	????
     d7a:	ff 00       	.word	0x00ff;	????
     d7c:	0c 00       	.word	0x000c;	????
     d7e:	00 00       	beq			
     d80:	00 00       	beq			
     d82:	00 00       	beq			
     d84:	44 00       	.word	0x0044;	????
     d86:	00 01       	.word	0x0100;	????
     d88:	10 00       	.word	0x0010;	????
     d8a:	00 00       	beq			
     d8c:	00 00       	beq			
     d8e:	00 00       	beq			
     d90:	44 00       	.word	0x0044;	????
     d92:	03 01       	.word	0x0103;	????
     d94:	14 00       	.word	0x0014;	????
     d96:	00 00       	beq			
     d98:	00 00       	beq			
     d9a:	00 00       	beq			
     d9c:	44 00       	.word	0x0044;	????
     d9e:	04 01       	.word	0x0104;	????
     da0:	22 00       	.word	0x0022;	????
     da2:	00 00       	beq			
     da4:	00 00       	beq			
     da6:	00 00       	beq			
     da8:	44 00       	.word	0x0044;	????
     daa:	07 01       	.word	0x0107;	????
     dac:	28 00       	.word	0x0028;	????
     dae:	00 00       	beq			
     db0:	00 00       	beq			
     db2:	00 00       	beq			
     db4:	44 00       	.word	0x0044;	????
     db6:	08 01       	.word	0x0108;	????
     db8:	2e 00       	.word	0x002e;	????
     dba:	00 00       	beq			
     dbc:	00 00       	beq			
     dbe:	00 00       	beq			
     dc0:	44 00       	.word	0x0044;	????
     dc2:	09 01       	.word	0x0109;	????
     dc4:	34 00       	.word	0x0034;	????
     dc6:	00 00       	beq			
     dc8:	00 00       	beq			
     dca:	00 00       	beq			
     dcc:	24 00       	.word	0x0024;	????
     dce:	00 00       	beq			
     dd0:	36 00       	.word	0x0036;	????
     dd2:	00 00       	beq			
     dd4:	32 17       	.word	0x1732;	????
     dd6:	00 00       	beq			
     dd8:	24 00       	.word	0x0024;	????
     dda:	0c 01       	.word	0x010c;	????
     ddc:	24 23       	jnz	$-438    	;abs 0xc26
     dde:	00 00       	beq			
     de0:	12 17       	.word	0x1712;	????
     de2:	00 00       	beq			
     de4:	40 00       	.word	0x0040;	????
     de6:	0b 01       	.word	0x010b;	????
     de8:	0f 00       	.word	0x000f;	????
     dea:	00 00       	beq			
     dec:	00 00       	beq			
     dee:	00 00       	beq			
     df0:	44 00       	.word	0x0044;	????
     df2:	0c 01       	.word	0x010c;	????
	...
     dfc:	44 00       	.word	0x0044;	????
     dfe:	0d 01       	.word	0x010d;	????
	...
     e08:	44 00       	.word	0x0044;	????
     e0a:	0e 01       	.word	0x010e;	????
     e0c:	0e 00       	.word	0x000e;	????
     e0e:	00 00       	beq			
     e10:	00 00       	beq			
     e12:	00 00       	beq			
     e14:	24 00       	.word	0x0024;	????
     e16:	00 00       	beq			
     e18:	10 00       	.word	0x0010;	????
     e1a:	00 00       	beq			
     e1c:	52 17       	.word	0x1752;	????
     e1e:	00 00       	beq			
     e20:	24 00       	.word	0x0024;	????
     e22:	14 01       	.word	0x0114;	????
     e24:	34 23       	jnz	$-406    	;abs 0xc8e
     e26:	00 00       	beq			
     e28:	00 00       	beq			
     e2a:	00 00       	beq			
     e2c:	44 00       	.word	0x0044;	????
     e2e:	14 01       	.word	0x0114;	????
	...
     e38:	44 00       	.word	0x0044;	????
     e3a:	15 01       	.word	0x0115;	????
	...
     e44:	44 00       	.word	0x0044;	????
     e46:	16 01       	.word	0x0116;	????
     e48:	06 00       	.word	0x0006;	????
     e4a:	00 00       	beq			
     e4c:	00 00       	beq			
     e4e:	00 00       	beq			
     e50:	44 00       	.word	0x0044;	????
     e52:	17 01       	.word	0x0117;	????
     e54:	0c 00       	.word	0x000c;	????
     e56:	00 00       	beq			
     e58:	00 00       	beq			
     e5a:	00 00       	beq			
     e5c:	24 00       	.word	0x0024;	????
     e5e:	00 00       	beq			
     e60:	0e 00       	.word	0x000e;	????
     e62:	00 00       	beq			
     e64:	67 17       	.word	0x1767;	????
     e66:	00 00       	beq			
     e68:	24 00       	.word	0x0024;	????
     e6a:	1d 01       	.word	0x011d;	????
     e6c:	42 23       	jnz	$-378    	;abs 0xcf2
     e6e:	00 00       	beq			
     e70:	00 00       	beq			
     e72:	00 00       	beq			
     e74:	44 00       	.word	0x0044;	????
     e76:	1d 01       	.word	0x011d;	????
	...
     e80:	44 00       	.word	0x0044;	????
     e82:	1e 01       	.word	0x011e;	????
	...
     e8c:	44 00       	.word	0x0044;	????
     e8e:	1f 01       	.word	0x011f;	????
     e90:	06 00       	.word	0x0006;	????
     e92:	00 00       	beq			
     e94:	00 00       	beq			
     e96:	00 00       	beq			
     e98:	44 00       	.word	0x0044;	????
     e9a:	20 01       	.word	0x0120;	????
     e9c:	0a 00       	.word	0x000a;	????
     e9e:	00 00       	beq			
     ea0:	00 00       	beq			
     ea2:	00 00       	beq			
     ea4:	44 00       	.word	0x0044;	????
     ea6:	21 01       	.word	0x0121;	????
     ea8:	10 00       	.word	0x0010;	????
     eaa:	00 00       	beq			
     eac:	00 00       	beq			
     eae:	00 00       	beq			
     eb0:	24 00       	.word	0x0024;	????
     eb2:	00 00       	beq			
     eb4:	12 00       	.word	0x0012;	????
     eb6:	00 00       	beq			
     eb8:	7c 17       	.word	0x177c;	????
     eba:	00 00       	beq			
     ebc:	24 00       	.word	0x0024;	????
     ebe:	26 01       	.word	0x0126;	????
     ec0:	54 23       	jnz	$-342    	;abs 0xd6a
     ec2:	00 00       	beq			
     ec4:	00 00       	beq			
     ec6:	00 00       	beq			
     ec8:	44 00       	.word	0x0044;	????
     eca:	26 01       	.word	0x0126;	????
	...
     ed4:	44 00       	.word	0x0044;	????
     ed6:	27 01       	.word	0x0127;	????
	...
     ee0:	44 00       	.word	0x0044;	????
     ee2:	28 01       	.word	0x0128;	????
     ee4:	06 00       	.word	0x0006;	????
     ee6:	00 00       	beq			
     ee8:	00 00       	beq			
     eea:	00 00       	beq			
     eec:	44 00       	.word	0x0044;	????
     eee:	29 01       	.word	0x0129;	????
     ef0:	0c 00       	.word	0x000c;	????
     ef2:	00 00       	beq			
     ef4:	00 00       	beq			
     ef6:	00 00       	beq			
     ef8:	24 00       	.word	0x0024;	????
     efa:	00 00       	beq			
     efc:	0e 00       	.word	0x000e;	????
     efe:	00 00       	beq			
     f00:	90 17       	.word	0x1790;	????
     f02:	00 00       	beq			
     f04:	24 00       	.word	0x0024;	????
     f06:	2e 01       	.word	0x012e;	????
     f08:	62 23       	jnz	$-314    	;abs 0xdce
     f0a:	00 00       	beq			
     f0c:	00 00       	beq			
     f0e:	00 00       	beq			
     f10:	44 00       	.word	0x0044;	????
     f12:	2e 01       	.word	0x012e;	????
	...
     f1c:	44 00       	.word	0x0044;	????
     f1e:	2f 01       	.word	0x012f;	????
	...
     f28:	44 00       	.word	0x0044;	????
     f2a:	30 01       	.word	0x0130;	????
     f2c:	06 00       	.word	0x0006;	????
     f2e:	00 00       	beq			
     f30:	00 00       	beq			
     f32:	00 00       	beq			
     f34:	44 00       	.word	0x0044;	????
     f36:	31 01       	.word	0x0131;	????
     f38:	0a 00       	.word	0x000a;	????
     f3a:	00 00       	beq			
     f3c:	00 00       	beq			
     f3e:	00 00       	beq			
     f40:	44 00       	.word	0x0044;	????
     f42:	32 01       	.word	0x0132;	????
     f44:	10 00       	.word	0x0010;	????
     f46:	00 00       	beq			
     f48:	00 00       	beq			
     f4a:	00 00       	beq			
     f4c:	24 00       	.word	0x0024;	????
     f4e:	00 00       	beq			
     f50:	12 00       	.word	0x0012;	????
     f52:	00 00       	beq			
     f54:	a4 17       	.word	0x17a4;	????
     f56:	00 00       	beq			
     f58:	24 00       	.word	0x0024;	????
     f5a:	37 01       	.word	0x0137;	????
     f5c:	74 23       	jnz	$-278    	;abs 0xe46
     f5e:	00 00       	beq			
     f60:	00 00       	beq			
     f62:	00 00       	beq			
     f64:	44 00       	.word	0x0044;	????
     f66:	37 01       	.word	0x0137;	????
	...
     f70:	44 00       	.word	0x0044;	????
     f72:	38 01       	.word	0x0138;	????
	...
     f7c:	44 00       	.word	0x0044;	????
     f7e:	39 01       	.word	0x0139;	????
     f80:	08 00       	.word	0x0008;	????
     f82:	00 00       	beq			
     f84:	00 00       	beq			
     f86:	00 00       	beq			
     f88:	44 00       	.word	0x0044;	????
     f8a:	3a 01       	.word	0x013a;	????
     f8c:	10 00       	.word	0x0010;	????
     f8e:	00 00       	beq			
     f90:	00 00       	beq			
     f92:	00 00       	beq			
     f94:	24 00       	.word	0x0024;	????
     f96:	00 00       	beq			
     f98:	12 00       	.word	0x0012;	????
     f9a:	00 00       	beq			
     f9c:	b5 17       	.word	0x17b5;	????
     f9e:	00 00       	beq			
     fa0:	24 00       	.word	0x0024;	????
     fa2:	3f 01       	.word	0x013f;	????
     fa4:	86 23       	jnz	$-242    	;abs 0xeb2
     fa6:	00 00       	beq			
     fa8:	c6 17       	.word	0x17c6;	????
     faa:	00 00       	beq			
     fac:	40 00       	.word	0x0040;	????
     fae:	3e 01       	.word	0x013e;	????
     fb0:	0f 00       	.word	0x000f;	????
     fb2:	00 00       	beq			
     fb4:	00 00       	beq			
     fb6:	00 00       	beq			
     fb8:	44 00       	.word	0x0044;	????
     fba:	3f 01       	.word	0x013f;	????
	...
     fc4:	44 00       	.word	0x0044;	????
     fc6:	40 01       	.word	0x0140;	????
	...
     fd0:	44 00       	.word	0x0044;	????
     fd2:	42 01       	.word	0x0142;	????
     fd4:	04 00       	.word	0x0004;	????
     fd6:	00 00       	beq			
     fd8:	00 00       	beq			
     fda:	00 00       	beq			
     fdc:	44 00       	.word	0x0044;	????
     fde:	44 01       	.word	0x0144;	????
     fe0:	0a 00       	.word	0x000a;	????
     fe2:	00 00       	beq			
     fe4:	00 00       	beq			
     fe6:	00 00       	beq			
     fe8:	44 00       	.word	0x0044;	????
     fea:	45 01       	.word	0x0145;	????
     fec:	12 00       	.word	0x0012;	????
     fee:	00 00       	beq			
     ff0:	00 00       	beq			
     ff2:	00 00       	beq			
     ff4:	24 00       	.word	0x0024;	????
     ff6:	00 00       	beq			
     ff8:	14 00       	.word	0x0014;	????
     ffa:	00 00       	beq			
     ffc:	d0 17       	.word	0x17d0;	????
     ffe:	00 00       	beq			
    1000:	24 00       	.word	0x0024;	????
    1002:	48 01       	.word	0x0148;	????
    1004:	9a 23       	jnz	$-202    	;abs 0xf3a
    1006:	00 00       	beq			
    1008:	00 00       	beq			
    100a:	00 00       	beq			
    100c:	44 00       	.word	0x0044;	????
    100e:	48 01       	.word	0x0148;	????
	...
    1018:	44 00       	.word	0x0044;	????
    101a:	4b 01       	.word	0x014b;	????
	...
    1024:	44 00       	.word	0x0044;	????
    1026:	4c 01       	.word	0x014c;	????
    1028:	04 00       	.word	0x0004;	????
    102a:	00 00       	beq			
    102c:	00 00       	beq			
    102e:	00 00       	beq			
    1030:	44 00       	.word	0x0044;	????
    1032:	4d 01       	.word	0x014d;	????
    1034:	08 00       	.word	0x0008;	????
    1036:	00 00       	beq			
    1038:	00 00       	beq			
    103a:	00 00       	beq			
    103c:	44 00       	.word	0x0044;	????
    103e:	4f 01       	.word	0x014f;	????
    1040:	0c 00       	.word	0x000c;	????
    1042:	00 00       	beq			
    1044:	00 00       	beq			
    1046:	00 00       	beq			
    1048:	44 00       	.word	0x0044;	????
    104a:	50 01       	.word	0x0150;	????
    104c:	0e 00       	.word	0x000e;	????
    104e:	00 00       	beq			
    1050:	00 00       	beq			
    1052:	00 00       	beq			
    1054:	24 00       	.word	0x0024;	????
    1056:	00 00       	beq			
    1058:	10 00       	.word	0x0010;	????
    105a:	00 00       	beq			
    105c:	e8 17       	.word	0x17e8;	????
    105e:	00 00       	beq			
    1060:	24 00       	.word	0x0024;	????
    1062:	53 01       	.word	0x0153;	????
    1064:	aa 23       	jnz	$-170    	;abs 0xfba
    1066:	00 00       	beq			
    1068:	fe 17       	.word	0x17fe;	????
    106a:	00 00       	beq			
    106c:	40 00       	.word	0x0040;	????
    106e:	52 01       	.word	0x0152;	????
    1070:	0b 00       	.word	0x000b;	????
    1072:	00 00       	beq			
    1074:	00 00       	beq			
    1076:	00 00       	beq			
    1078:	44 00       	.word	0x0044;	????
    107a:	53 01       	.word	0x0153;	????
	...
    1084:	44 00       	.word	0x0044;	????
    1086:	56 01       	.word	0x0156;	????
    1088:	04 00       	.word	0x0004;	????
    108a:	00 00       	beq			
    108c:	00 00       	beq			
    108e:	00 00       	beq			
    1090:	44 00       	.word	0x0044;	????
    1092:	57 01       	.word	0x0157;	????
    1094:	08 00       	.word	0x0008;	????
    1096:	00 00       	beq			
    1098:	00 00       	beq			
    109a:	00 00       	beq			
    109c:	44 00       	.word	0x0044;	????
    109e:	58 01       	.word	0x0158;	????
    10a0:	10 00       	.word	0x0010;	????
    10a2:	00 00       	beq			
    10a4:	00 00       	beq			
    10a6:	00 00       	beq			
    10a8:	44 00       	.word	0x0044;	????
    10aa:	59 01       	.word	0x0159;	????
    10ac:	14 00       	.word	0x0014;	????
    10ae:	00 00       	beq			
    10b0:	00 00       	beq			
    10b2:	00 00       	beq			
    10b4:	44 00       	.word	0x0044;	????
    10b6:	5b 01       	.word	0x015b;	????
    10b8:	1a 00       	.word	0x001a;	????
    10ba:	00 00       	beq			
    10bc:	00 00       	beq			
    10be:	00 00       	beq			
    10c0:	44 00       	.word	0x0044;	????
    10c2:	5c 01       	.word	0x015c;	????
    10c4:	1c 00       	.word	0x001c;	????
    10c6:	00 00       	beq			
    10c8:	00 00       	beq			
    10ca:	00 00       	beq			
    10cc:	24 00       	.word	0x0024;	????
    10ce:	00 00       	beq			
    10d0:	20 00       	.word	0x0020;	????
    10d2:	00 00       	beq			
    10d4:	09 18       	.word	0x1809;	????
    10d6:	00 00       	beq			
    10d8:	24 00       	.word	0x0024;	????
    10da:	5f 01       	.word	0x015f;	????
    10dc:	ca 23       	jnz	$-106    	;abs 0x1072
    10de:	00 00       	beq			
    10e0:	fe 17       	.word	0x17fe;	????
    10e2:	00 00       	beq			
    10e4:	40 00       	.word	0x0040;	????
    10e6:	5e 01       	.word	0x015e;	????
    10e8:	0b 00       	.word	0x000b;	????
    10ea:	00 00       	beq			
    10ec:	24 18       	.word	0x1824;	????
    10ee:	00 00       	beq			
    10f0:	40 00       	.word	0x0040;	????
    10f2:	5e 01       	.word	0x015e;	????
    10f4:	0a 00       	.word	0x000a;	????
    10f6:	00 00       	beq			
    10f8:	00 00       	beq			
    10fa:	00 00       	beq			
    10fc:	44 00       	.word	0x0044;	????
    10fe:	5f 01       	.word	0x015f;	????
	...
    1108:	44 00       	.word	0x0044;	????
    110a:	62 01       	.word	0x0162;	????
    110c:	08 00       	.word	0x0008;	????
    110e:	00 00       	beq			
    1110:	00 00       	beq			
    1112:	00 00       	beq			
    1114:	44 00       	.word	0x0044;	????
    1116:	63 01       	.word	0x0163;	????
    1118:	0c 00       	.word	0x000c;	????
    111a:	00 00       	beq			
    111c:	00 00       	beq			
    111e:	00 00       	beq			
    1120:	44 00       	.word	0x0044;	????
    1122:	64 01       	.word	0x0164;	????
    1124:	14 00       	.word	0x0014;	????
    1126:	00 00       	beq			
    1128:	00 00       	beq			
    112a:	00 00       	beq			
    112c:	44 00       	.word	0x0044;	????
    112e:	65 01       	.word	0x0165;	????
    1130:	1c 00       	.word	0x001c;	????
    1132:	00 00       	beq			
    1134:	00 00       	beq			
    1136:	00 00       	beq			
    1138:	44 00       	.word	0x0044;	????
    113a:	66 01       	.word	0x0166;	????
    113c:	20 00       	.word	0x0020;	????
    113e:	00 00       	beq			
    1140:	00 00       	beq			
    1142:	00 00       	beq			
    1144:	44 00       	.word	0x0044;	????
    1146:	68 01       	.word	0x0168;	????
    1148:	26 00       	.word	0x0026;	????
    114a:	00 00       	beq			
    114c:	00 00       	beq			
    114e:	00 00       	beq			
    1150:	44 00       	.word	0x0044;	????
    1152:	69 01       	.word	0x0169;	????
    1154:	28 00       	.word	0x0028;	????
    1156:	00 00       	beq			
    1158:	30 18       	.word	0x1830;	????
    115a:	00 00       	beq			
    115c:	40 00       	.word	0x0040;	????
    115e:	60 01       	.word	0x0160;	????
    1160:	0b 00       	.word	0x000b;	????
    1162:	00 00       	beq			
    1164:	00 00       	beq			
    1166:	00 00       	beq			
    1168:	c0 00       	.word	0x00c0;	????
    116a:	00 00       	beq			
    116c:	08 00       	.word	0x0008;	????
    116e:	00 00       	beq			
    1170:	00 00       	beq			
    1172:	00 00       	beq			
    1174:	e0 00       	.word	0x00e0;	????
    1176:	00 00       	beq			
    1178:	28 00       	.word	0x0028;	????
    117a:	00 00       	beq			
    117c:	00 00       	beq			
    117e:	00 00       	beq			
    1180:	24 00       	.word	0x0024;	????
    1182:	00 00       	beq			
    1184:	2e 00       	.word	0x002e;	????
    1186:	00 00       	beq			
    1188:	3f 18       	.word	0x183f;	????
    118a:	00 00       	beq			
    118c:	24 00       	.word	0x0024;	????
    118e:	6c 01       	.word	0x016c;	????
    1190:	f8 23       	jnz	$-14     	;abs 0x1182
    1192:	00 00       	beq			
    1194:	fe 17       	.word	0x17fe;	????
    1196:	00 00       	beq			
    1198:	40 00       	.word	0x0040;	????
    119a:	6b 01       	.word	0x016b;	????
    119c:	0b 00       	.word	0x000b;	????
    119e:	00 00       	beq			
    11a0:	5c 18       	.word	0x185c;	????
    11a2:	00 00       	beq			
    11a4:	40 00       	.word	0x0040;	????
    11a6:	6b 01       	.word	0x016b;	????
    11a8:	08 00       	.word	0x0008;	????
    11aa:	00 00       	beq			
    11ac:	6f 18       	.word	0x186f;	????
    11ae:	00 00       	beq			
    11b0:	40 00       	.word	0x0040;	????
    11b2:	6b 01       	.word	0x016b;	????
    11b4:	09 00       	.word	0x0009;	????
    11b6:	00 00       	beq			
    11b8:	00 00       	beq			
    11ba:	00 00       	beq			
    11bc:	44 00       	.word	0x0044;	????
    11be:	6c 01       	.word	0x016c;	????
	...
    11c8:	44 00       	.word	0x0044;	????
    11ca:	6d 01       	.word	0x016d;	????
    11cc:	0e 00       	.word	0x000e;	????
    11ce:	00 00       	beq			
    11d0:	00 00       	beq			
    11d2:	00 00       	beq			
    11d4:	44 00       	.word	0x0044;	????
    11d6:	6f 01       	.word	0x016f;	????
    11d8:	10 00       	.word	0x0010;	????
    11da:	00 00       	beq			
    11dc:	00 00       	beq			
    11de:	00 00       	beq			
    11e0:	44 00       	.word	0x0044;	????
    11e2:	70 01       	.word	0x0170;	????
    11e4:	14 00       	.word	0x0014;	????
    11e6:	00 00       	beq			
    11e8:	00 00       	beq			
    11ea:	00 00       	beq			
    11ec:	44 00       	.word	0x0044;	????
    11ee:	71 01       	.word	0x0171;	????
    11f0:	1c 00       	.word	0x001c;	????
    11f2:	00 00       	beq			
    11f4:	00 00       	beq			
    11f6:	00 00       	beq			
    11f8:	44 00       	.word	0x0044;	????
    11fa:	72 01       	.word	0x0172;	????
    11fc:	38 00       	.word	0x0038;	????
    11fe:	00 00       	beq			
    1200:	00 00       	beq			
    1202:	00 00       	beq			
    1204:	44 00       	.word	0x0044;	????
    1206:	73 01       	.word	0x0173;	????
    1208:	3c 00       	.word	0x003c;	????
    120a:	00 00       	beq			
    120c:	00 00       	beq			
    120e:	00 00       	beq			
    1210:	44 00       	.word	0x0044;	????
    1212:	75 01       	.word	0x0175;	????
    1214:	42 00       	.word	0x0042;	????
    1216:	00 00       	beq			
    1218:	00 00       	beq			
    121a:	00 00       	beq			
    121c:	44 00       	.word	0x0044;	????
    121e:	76 01       	.word	0x0176;	????
    1220:	44 00       	.word	0x0044;	????
    1222:	00 00       	beq			
    1224:	7b 18       	.word	0x187b;	????
    1226:	00 00       	beq			
    1228:	40 00       	.word	0x0040;	????
    122a:	6d 01       	.word	0x016d;	????
    122c:	0a 00       	.word	0x000a;	????
    122e:	00 00       	beq			
    1230:	30 18       	.word	0x1830;	????
    1232:	00 00       	beq			
    1234:	40 00       	.word	0x0040;	????
    1236:	6d 01       	.word	0x016d;	????
    1238:	0b 00       	.word	0x000b;	????
    123a:	00 00       	beq			
    123c:	00 00       	beq			
    123e:	00 00       	beq			
    1240:	c0 00       	.word	0x00c0;	????
    1242:	00 00       	beq			
    1244:	0e 00       	.word	0x000e;	????
    1246:	00 00       	beq			
    1248:	00 00       	beq			
    124a:	00 00       	beq			
    124c:	e0 00       	.word	0x00e0;	????
    124e:	00 00       	beq			
    1250:	44 00       	.word	0x0044;	????
    1252:	00 00       	beq			
    1254:	00 00       	beq			
    1256:	00 00       	beq			
    1258:	24 00       	.word	0x0024;	????
    125a:	00 00       	beq			
    125c:	4e 00       	.word	0x004e;	????
    125e:	00 00       	beq			
    1260:	85 18       	.word	0x1885;	????
    1262:	00 00       	beq			
    1264:	24 00       	.word	0x0024;	????
    1266:	79 01       	.word	0x0179;	????
    1268:	46 24       	jz	$+142    	;abs 0x12f6
    126a:	00 00       	beq			
    126c:	fe 17       	.word	0x17fe;	????
    126e:	00 00       	beq			
    1270:	40 00       	.word	0x0040;	????
    1272:	78 01       	.word	0x0178;	????
    1274:	0b 00       	.word	0x000b;	????
    1276:	00 00       	beq			
    1278:	9b 18       	.word	0x189b;	????
    127a:	00 00       	beq			
    127c:	40 00       	.word	0x0040;	????
    127e:	78 01       	.word	0x0178;	????
    1280:	0a 00       	.word	0x000a;	????
    1282:	00 00       	beq			
    1284:	00 00       	beq			
    1286:	00 00       	beq			
    1288:	44 00       	.word	0x0044;	????
    128a:	79 01       	.word	0x0179;	????
	...
    1294:	44 00       	.word	0x0044;	????
    1296:	7c 01       	.word	0x017c;	????
    1298:	08 00       	.word	0x0008;	????
    129a:	00 00       	beq			
    129c:	00 00       	beq			
    129e:	00 00       	beq			
    12a0:	44 00       	.word	0x0044;	????
    12a2:	7d 01       	.word	0x017d;	????
    12a4:	0c 00       	.word	0x000c;	????
    12a6:	00 00       	beq			
    12a8:	00 00       	beq			
    12aa:	00 00       	beq			
    12ac:	44 00       	.word	0x0044;	????
    12ae:	7e 01       	.word	0x017e;	????
    12b0:	14 00       	.word	0x0014;	????
    12b2:	00 00       	beq			
    12b4:	00 00       	beq			
    12b6:	00 00       	beq			
    12b8:	44 00       	.word	0x0044;	????
    12ba:	7f 01       	.word	0x017f;	????
    12bc:	1c 00       	.word	0x001c;	????
    12be:	00 00       	beq			
    12c0:	00 00       	beq			
    12c2:	00 00       	beq			
    12c4:	44 00       	.word	0x0044;	????
    12c6:	80 01       	.word	0x0180;	????
    12c8:	20 00       	.word	0x0020;	????
    12ca:	00 00       	beq			
    12cc:	00 00       	beq			
    12ce:	00 00       	beq			
    12d0:	44 00       	.word	0x0044;	????
    12d2:	82 01       	.word	0x0182;	????
    12d4:	26 00       	.word	0x0026;	????
    12d6:	00 00       	beq			
    12d8:	00 00       	beq			
    12da:	00 00       	beq			
    12dc:	44 00       	.word	0x0044;	????
    12de:	83 01       	.word	0x0183;	????
    12e0:	28 00       	.word	0x0028;	????
    12e2:	00 00       	beq			
    12e4:	30 18       	.word	0x1830;	????
    12e6:	00 00       	beq			
    12e8:	40 00       	.word	0x0040;	????
    12ea:	7a 01       	.word	0x017a;	????
    12ec:	0b 00       	.word	0x000b;	????
    12ee:	00 00       	beq			
    12f0:	00 00       	beq			
    12f2:	00 00       	beq			
    12f4:	c0 00       	.word	0x00c0;	????
    12f6:	00 00       	beq			
    12f8:	08 00       	.word	0x0008;	????
    12fa:	00 00       	beq			
    12fc:	00 00       	beq			
    12fe:	00 00       	beq			
    1300:	e0 00       	.word	0x00e0;	????
    1302:	00 00       	beq			
    1304:	28 00       	.word	0x0028;	????
    1306:	00 00       	beq			
    1308:	00 00       	beq			
    130a:	00 00       	beq			
    130c:	24 00       	.word	0x0024;	????
    130e:	00 00       	beq			
    1310:	2e 00       	.word	0x002e;	????
    1312:	00 00       	beq			
    1314:	a6 18       	.word	0x18a6;	????
    1316:	00 00       	beq			
    1318:	24 00       	.word	0x0024;	????
    131a:	86 01       	.word	0x0186;	????
    131c:	74 24       	jz	$+234    	;abs 0x1406
    131e:	00 00       	beq			
    1320:	fe 17       	.word	0x17fe;	????
    1322:	00 00       	beq			
    1324:	40 00       	.word	0x0040;	????
    1326:	85 01       	.word	0x0185;	????
    1328:	0b 00       	.word	0x000b;	????
    132a:	00 00       	beq			
    132c:	9b 18       	.word	0x189b;	????
    132e:	00 00       	beq			
    1330:	40 00       	.word	0x0040;	????
    1332:	85 01       	.word	0x0185;	????
    1334:	0a 00       	.word	0x000a;	????
    1336:	00 00       	beq			
    1338:	24 18       	.word	0x1824;	????
    133a:	00 00       	beq			
    133c:	40 00       	.word	0x0040;	????
    133e:	85 01       	.word	0x0185;	????
    1340:	09 00       	.word	0x0009;	????
    1342:	00 00       	beq			
    1344:	00 00       	beq			
    1346:	00 00       	beq			
    1348:	44 00       	.word	0x0044;	????
    134a:	86 01       	.word	0x0186;	????
	...
    1354:	44 00       	.word	0x0044;	????
    1356:	89 01       	.word	0x0189;	????
    1358:	0c 00       	.word	0x000c;	????
    135a:	00 00       	beq			
    135c:	00 00       	beq			
    135e:	00 00       	beq			
    1360:	44 00       	.word	0x0044;	????
    1362:	8a 01       	.word	0x018a;	????
    1364:	10 00       	.word	0x0010;	????
    1366:	00 00       	beq			
    1368:	00 00       	beq			
    136a:	00 00       	beq			
    136c:	44 00       	.word	0x0044;	????
    136e:	8b 01       	.word	0x018b;	????
    1370:	18 00       	.word	0x0018;	????
    1372:	00 00       	beq			
    1374:	00 00       	beq			
    1376:	00 00       	beq			
    1378:	44 00       	.word	0x0044;	????
    137a:	8c 01       	.word	0x018c;	????
    137c:	20 00       	.word	0x0020;	????
    137e:	00 00       	beq			
    1380:	00 00       	beq			
    1382:	00 00       	beq			
    1384:	44 00       	.word	0x0044;	????
    1386:	8d 01       	.word	0x018d;	????
    1388:	28 00       	.word	0x0028;	????
    138a:	00 00       	beq			
    138c:	00 00       	beq			
    138e:	00 00       	beq			
    1390:	44 00       	.word	0x0044;	????
    1392:	8e 01       	.word	0x018e;	????
    1394:	2c 00       	.word	0x002c;	????
    1396:	00 00       	beq			
    1398:	00 00       	beq			
    139a:	00 00       	beq			
    139c:	44 00       	.word	0x0044;	????
    139e:	90 01       	.word	0x0190;	????
    13a0:	32 00       	.word	0x0032;	????
    13a2:	00 00       	beq			
    13a4:	00 00       	beq			
    13a6:	00 00       	beq			
    13a8:	44 00       	.word	0x0044;	????
    13aa:	91 01       	.word	0x0191;	????
    13ac:	34 00       	.word	0x0034;	????
    13ae:	00 00       	beq			
    13b0:	30 18       	.word	0x1830;	????
    13b2:	00 00       	beq			
    13b4:	40 00       	.word	0x0040;	????
    13b6:	87 01       	.word	0x0187;	????
    13b8:	0b 00       	.word	0x000b;	????
    13ba:	00 00       	beq			
    13bc:	00 00       	beq			
    13be:	00 00       	beq			
    13c0:	c0 00       	.word	0x00c0;	????
    13c2:	00 00       	beq			
    13c4:	0c 00       	.word	0x000c;	????
    13c6:	00 00       	beq			
    13c8:	00 00       	beq			
    13ca:	00 00       	beq			
    13cc:	e0 00       	.word	0x00e0;	????
    13ce:	00 00       	beq			
    13d0:	34 00       	.word	0x0034;	????
    13d2:	00 00       	beq			
    13d4:	00 00       	beq			
    13d6:	00 00       	beq			
    13d8:	24 00       	.word	0x0024;	????
    13da:	00 00       	beq			
    13dc:	3c 00       	.word	0x003c;	????
    13de:	00 00       	beq			
    13e0:	c1 18       	.word	0x18c1;	????
    13e2:	00 00       	beq			
    13e4:	24 00       	.word	0x0024;	????
    13e6:	94 01       	.word	0x0194;	????
    13e8:	b0 24       	jz	$+354    	;abs 0x154a
    13ea:	00 00       	beq			
    13ec:	fe 17       	.word	0x17fe;	????
    13ee:	00 00       	beq			
    13f0:	40 00       	.word	0x0040;	????
    13f2:	93 01       	.word	0x0193;	????
    13f4:	0b 00       	.word	0x000b;	????
    13f6:	00 00       	beq			
    13f8:	9b 18       	.word	0x189b;	????
    13fa:	00 00       	beq			
    13fc:	40 00       	.word	0x0040;	????
    13fe:	93 01       	.word	0x0193;	????
    1400:	0a 00       	.word	0x000a;	????
    1402:	00 00       	beq			
    1404:	de 18       	.word	0x18de;	????
    1406:	00 00       	beq			
    1408:	40 00       	.word	0x0040;	????
    140a:	93 01       	.word	0x0193;	????
    140c:	07 00       	.word	0x0007;	????
    140e:	00 00       	beq			
    1410:	6f 18       	.word	0x186f;	????
    1412:	00 00       	beq			
    1414:	40 00       	.word	0x0040;	????
    1416:	93 01       	.word	0x0193;	????
    1418:	08 00       	.word	0x0008;	????
    141a:	00 00       	beq			
    141c:	00 00       	beq			
    141e:	00 00       	beq			
    1420:	44 00       	.word	0x0044;	????
    1422:	94 01       	.word	0x0194;	????
	...
    142c:	44 00       	.word	0x0044;	????
    142e:	95 01       	.word	0x0195;	????
    1430:	12 00       	.word	0x0012;	????
    1432:	00 00       	beq			
    1434:	00 00       	beq			
    1436:	00 00       	beq			
    1438:	44 00       	.word	0x0044;	????
    143a:	97 01       	.word	0x0197;	????
    143c:	14 00       	.word	0x0014;	????
    143e:	00 00       	beq			
    1440:	00 00       	beq			
    1442:	00 00       	beq			
    1444:	44 00       	.word	0x0044;	????
    1446:	98 01       	.word	0x0198;	????
    1448:	18 00       	.word	0x0018;	????
    144a:	00 00       	beq			
    144c:	00 00       	beq			
    144e:	00 00       	beq			
    1450:	44 00       	.word	0x0044;	????
    1452:	99 01       	.word	0x0199;	????
    1454:	20 00       	.word	0x0020;	????
    1456:	00 00       	beq			
    1458:	00 00       	beq			
    145a:	00 00       	beq			
    145c:	44 00       	.word	0x0044;	????
    145e:	9a 01       	.word	0x019a;	????
    1460:	28 00       	.word	0x0028;	????
    1462:	00 00       	beq			
    1464:	00 00       	beq			
    1466:	00 00       	beq			
    1468:	44 00       	.word	0x0044;	????
    146a:	9b 01       	.word	0x019b;	????
    146c:	42 00       	.word	0x0042;	????
    146e:	00 00       	beq			
    1470:	00 00       	beq			
    1472:	00 00       	beq			
    1474:	44 00       	.word	0x0044;	????
    1476:	9c 01       	.word	0x019c;	????
    1478:	46 00       	.word	0x0046;	????
    147a:	00 00       	beq			
    147c:	00 00       	beq			
    147e:	00 00       	beq			
    1480:	44 00       	.word	0x0044;	????
    1482:	9e 01       	.word	0x019e;	????
    1484:	4c 00       	.word	0x004c;	????
    1486:	00 00       	beq			
    1488:	00 00       	beq			
    148a:	00 00       	beq			
    148c:	44 00       	.word	0x0044;	????
    148e:	9f 01       	.word	0x019f;	????
    1490:	4e 00       	.word	0x004e;	????
    1492:	00 00       	beq			
    1494:	7b 18       	.word	0x187b;	????
    1496:	00 00       	beq			
    1498:	40 00       	.word	0x0040;	????
    149a:	95 01       	.word	0x0195;	????
    149c:	09 00       	.word	0x0009;	????
    149e:	00 00       	beq			
    14a0:	30 18       	.word	0x1830;	????
    14a2:	00 00       	beq			
    14a4:	40 00       	.word	0x0040;	????
    14a6:	95 01       	.word	0x0195;	????
    14a8:	0b 00       	.word	0x000b;	????
    14aa:	00 00       	beq			
    14ac:	00 00       	beq			
    14ae:	00 00       	beq			
    14b0:	c0 00       	.word	0x00c0;	????
    14b2:	00 00       	beq			
    14b4:	12 00       	.word	0x0012;	????
    14b6:	00 00       	beq			
    14b8:	00 00       	beq			
    14ba:	00 00       	beq			
    14bc:	e0 00       	.word	0x00e0;	????
    14be:	00 00       	beq			
    14c0:	4e 00       	.word	0x004e;	????
    14c2:	00 00       	beq			
    14c4:	00 00       	beq			
    14c6:	00 00       	beq			
    14c8:	24 00       	.word	0x0024;	????
    14ca:	00 00       	beq			
    14cc:	5a 00       	.word	0x005a;	????
    14ce:	00 00       	beq			
    14d0:	e9 18       	.word	0x18e9;	????
    14d2:	00 00       	beq			
    14d4:	24 00       	.word	0x0024;	????
    14d6:	a2 01       	.word	0x01a2;	????
    14d8:	0a 25       	jz	$+534    	;abs 0x16ee
    14da:	00 00       	beq			
    14dc:	de 18       	.word	0x18de;	????
    14de:	00 00       	beq			
    14e0:	40 00       	.word	0x0040;	????
    14e2:	a1 01       	.word	0x01a1;	????
    14e4:	08 00       	.word	0x0008;	????
    14e6:	00 00       	beq			
    14e8:	6f 18       	.word	0x186f;	????
    14ea:	00 00       	beq			
    14ec:	40 00       	.word	0x0040;	????
    14ee:	a1 01       	.word	0x01a1;	????
    14f0:	09 00       	.word	0x0009;	????
    14f2:	00 00       	beq			
    14f4:	00 00       	beq			
    14f6:	00 00       	beq			
    14f8:	44 00       	.word	0x0044;	????
    14fa:	a2 01       	.word	0x01a2;	????
	...
    1504:	44 00       	.word	0x0044;	????
    1506:	a3 01       	.word	0x01a3;	????
    1508:	0c 00       	.word	0x000c;	????
    150a:	00 00       	beq			
    150c:	00 00       	beq			
    150e:	00 00       	beq			
    1510:	44 00       	.word	0x0044;	????
    1512:	a5 01       	.word	0x01a5;	????
    1514:	10 00       	.word	0x0010;	????
    1516:	00 00       	beq			
    1518:	00 00       	beq			
    151a:	00 00       	beq			
    151c:	44 00       	.word	0x0044;	????
    151e:	a6 01       	.word	0x01a6;	????
    1520:	14 00       	.word	0x0014;	????
    1522:	00 00       	beq			
    1524:	00 00       	beq			
    1526:	00 00       	beq			
    1528:	44 00       	.word	0x0044;	????
    152a:	a7 01       	.word	0x01a7;	????
    152c:	2c 00       	.word	0x002c;	????
    152e:	00 00       	beq			
    1530:	00 00       	beq			
    1532:	00 00       	beq			
    1534:	44 00       	.word	0x0044;	????
    1536:	a8 01       	.word	0x01a8;	????
    1538:	30 00       	.word	0x0030;	????
    153a:	00 00       	beq			
    153c:	00 00       	beq			
    153e:	00 00       	beq			
    1540:	44 00       	.word	0x0044;	????
    1542:	aa 01       	.word	0x01aa;	????
    1544:	36 00       	.word	0x0036;	????
    1546:	00 00       	beq			
    1548:	00 00       	beq			
    154a:	00 00       	beq			
    154c:	44 00       	.word	0x0044;	????
    154e:	ab 01       	.word	0x01ab;	????
    1550:	38 00       	.word	0x0038;	????
    1552:	00 00       	beq			
    1554:	7b 18       	.word	0x187b;	????
    1556:	00 00       	beq			
    1558:	40 00       	.word	0x0040;	????
    155a:	a3 01       	.word	0x01a3;	????
    155c:	0a 00       	.word	0x000a;	????
    155e:	00 00       	beq			
    1560:	30 18       	.word	0x1830;	????
    1562:	00 00       	beq			
    1564:	40 00       	.word	0x0040;	????
    1566:	a3 01       	.word	0x01a3;	????
    1568:	0b 00       	.word	0x000b;	????
    156a:	00 00       	beq			
    156c:	00 00       	beq			
    156e:	00 00       	beq			
    1570:	c0 00       	.word	0x00c0;	????
    1572:	00 00       	beq			
    1574:	0c 00       	.word	0x000c;	????
    1576:	00 00       	beq			
    1578:	00 00       	beq			
    157a:	00 00       	beq			
    157c:	e0 00       	.word	0x00e0;	????
    157e:	00 00       	beq			
    1580:	38 00       	.word	0x0038;	????
    1582:	00 00       	beq			
    1584:	00 00       	beq			
    1586:	00 00       	beq			
    1588:	24 00       	.word	0x0024;	????
    158a:	00 00       	beq			
    158c:	42 00       	.word	0x0042;	????
    158e:	00 00       	beq			
    1590:	02 19       	.word	0x1902;	????
    1592:	00 00       	beq			
    1594:	24 00       	.word	0x0024;	????
    1596:	ae 01       	.word	0x01ae;	????
    1598:	4c 25       	jz	$+666    	;abs 0x1832
    159a:	00 00       	beq			
    159c:	de 18       	.word	0x18de;	????
    159e:	00 00       	beq			
    15a0:	40 00       	.word	0x0040;	????
    15a2:	ad 01       	.word	0x01ad;	????
    15a4:	0a 00       	.word	0x000a;	????
    15a6:	00 00       	beq			
    15a8:	00 00       	beq			
    15aa:	00 00       	beq			
    15ac:	44 00       	.word	0x0044;	????
    15ae:	ae 01       	.word	0x01ae;	????
	...
    15b8:	44 00       	.word	0x0044;	????
    15ba:	af 01       	.word	0x01af;	????
    15bc:	06 00       	.word	0x0006;	????
    15be:	00 00       	beq			
    15c0:	00 00       	beq			
    15c2:	00 00       	beq			
    15c4:	44 00       	.word	0x0044;	????
    15c6:	b1 01       	.word	0x01b1;	????
    15c8:	08 00       	.word	0x0008;	????
    15ca:	00 00       	beq			
    15cc:	00 00       	beq			
    15ce:	00 00       	beq			
    15d0:	44 00       	.word	0x0044;	????
    15d2:	b3 01       	.word	0x01b3;	????
    15d4:	0c 00       	.word	0x000c;	????
    15d6:	00 00       	beq			
    15d8:	00 00       	beq			
    15da:	00 00       	beq			
    15dc:	44 00       	.word	0x0044;	????
    15de:	b4 01       	.word	0x01b4;	????
    15e0:	14 00       	.word	0x0014;	????
    15e2:	00 00       	beq			
    15e4:	00 00       	beq			
    15e6:	00 00       	beq			
    15e8:	44 00       	.word	0x0044;	????
    15ea:	b5 01       	.word	0x01b5;	????
    15ec:	1a 00       	.word	0x001a;	????
    15ee:	00 00       	beq			
    15f0:	00 00       	beq			
    15f2:	00 00       	beq			
    15f4:	44 00       	.word	0x0044;	????
    15f6:	b7 01       	.word	0x01b7;	????
    15f8:	20 00       	.word	0x0020;	????
    15fa:	00 00       	beq			
    15fc:	00 00       	beq			
    15fe:	00 00       	beq			
    1600:	44 00       	.word	0x0044;	????
    1602:	b8 01       	.word	0x01b8;	????
    1604:	24 00       	.word	0x0024;	????
    1606:	00 00       	beq			
    1608:	00 00       	beq			
    160a:	00 00       	beq			
    160c:	44 00       	.word	0x0044;	????
    160e:	ba 01       	.word	0x01ba;	????
    1610:	2a 00       	.word	0x002a;	????
    1612:	00 00       	beq			
    1614:	00 00       	beq			
    1616:	00 00       	beq			
    1618:	44 00       	.word	0x0044;	????
    161a:	bb 01       	.word	0x01bb;	????
    161c:	2c 00       	.word	0x002c;	????
    161e:	00 00       	beq			
    1620:	30 18       	.word	0x1830;	????
    1622:	00 00       	beq			
    1624:	40 00       	.word	0x0040;	????
    1626:	af 01       	.word	0x01af;	????
    1628:	0b 00       	.word	0x000b;	????
    162a:	00 00       	beq			
    162c:	00 00       	beq			
    162e:	00 00       	beq			
    1630:	c0 00       	.word	0x00c0;	????
    1632:	00 00       	beq			
    1634:	06 00       	.word	0x0006;	????
    1636:	00 00       	beq			
    1638:	00 00       	beq			
    163a:	00 00       	beq			
    163c:	e0 00       	.word	0x00e0;	????
    163e:	00 00       	beq			
    1640:	2c 00       	.word	0x002c;	????
    1642:	00 00       	beq			
    1644:	00 00       	beq			
    1646:	00 00       	beq			
    1648:	24 00       	.word	0x0024;	????
    164a:	00 00       	beq			
    164c:	32 00       	.word	0x0032;	????
    164e:	00 00       	beq			
    1650:	18 19       	.word	0x1918;	????
    1652:	00 00       	beq			
    1654:	24 00       	.word	0x0024;	????
    1656:	be 01       	.word	0x01be;	????
    1658:	7e 25       	jz	$+766    	;abs 0x1956
    165a:	00 00       	beq			
    165c:	de 18       	.word	0x18de;	????
    165e:	00 00       	beq			
    1660:	40 00       	.word	0x0040;	????
    1662:	bd 01       	.word	0x01bd;	????
    1664:	08 00       	.word	0x0008;	????
    1666:	00 00       	beq			
    1668:	6f 18       	.word	0x186f;	????
    166a:	00 00       	beq			
    166c:	40 00       	.word	0x0040;	????
    166e:	bd 01       	.word	0x01bd;	????
    1670:	09 00       	.word	0x0009;	????
    1672:	00 00       	beq			
    1674:	00 00       	beq			
    1676:	00 00       	beq			
    1678:	44 00       	.word	0x0044;	????
    167a:	be 01       	.word	0x01be;	????
	...
    1684:	44 00       	.word	0x0044;	????
    1686:	bf 01       	.word	0x01bf;	????
    1688:	0c 00       	.word	0x000c;	????
    168a:	00 00       	beq			
    168c:	00 00       	beq			
    168e:	00 00       	beq			
    1690:	44 00       	.word	0x0044;	????
    1692:	c1 01       	.word	0x01c1;	????
    1694:	10 00       	.word	0x0010;	????
    1696:	00 00       	beq			
    1698:	00 00       	beq			
    169a:	00 00       	beq			
    169c:	44 00       	.word	0x0044;	????
    169e:	c5 01       	.word	0x01c5;	????
    16a0:	14 00       	.word	0x0014;	????
    16a2:	00 00       	beq			
    16a4:	00 00       	beq			
    16a6:	00 00       	beq			
    16a8:	44 00       	.word	0x0044;	????
    16aa:	c8 01       	.word	0x01c8;	????
    16ac:	18 00       	.word	0x0018;	????
    16ae:	00 00       	beq			
    16b0:	00 00       	beq			
    16b2:	00 00       	beq			
    16b4:	44 00       	.word	0x0044;	????
    16b6:	ca 01       	.word	0x01ca;	????
    16b8:	20 00       	.word	0x0020;	????
    16ba:	00 00       	beq			
    16bc:	00 00       	beq			
    16be:	00 00       	beq			
    16c0:	44 00       	.word	0x0044;	????
    16c2:	cc 01       	.word	0x01cc;	????
    16c4:	26 00       	.word	0x0026;	????
    16c6:	00 00       	beq			
    16c8:	00 00       	beq			
    16ca:	00 00       	beq			
    16cc:	44 00       	.word	0x0044;	????
    16ce:	cd 01       	.word	0x01cd;	????
    16d0:	30 00       	.word	0x0030;	????
    16d2:	00 00       	beq			
    16d4:	00 00       	beq			
    16d6:	00 00       	beq			
    16d8:	44 00       	.word	0x0044;	????
    16da:	d0 01       	.word	0x01d0;	????
    16dc:	3a 00       	.word	0x003a;	????
    16de:	00 00       	beq			
    16e0:	00 00       	beq			
    16e2:	00 00       	beq			
    16e4:	44 00       	.word	0x0044;	????
    16e6:	d1 01       	.word	0x01d1;	????
    16e8:	3e 00       	.word	0x003e;	????
    16ea:	00 00       	beq			
    16ec:	00 00       	beq			
    16ee:	00 00       	beq			
    16f0:	44 00       	.word	0x0044;	????
    16f2:	d3 01       	.word	0x01d3;	????
    16f4:	44 00       	.word	0x0044;	????
    16f6:	00 00       	beq			
    16f8:	00 00       	beq			
    16fa:	00 00       	beq			
    16fc:	44 00       	.word	0x0044;	????
    16fe:	d4 01       	.word	0x01d4;	????
    1700:	46 00       	.word	0x0046;	????
    1702:	00 00       	beq			
    1704:	7b 18       	.word	0x187b;	????
    1706:	00 00       	beq			
    1708:	40 00       	.word	0x0040;	????
    170a:	bf 01       	.word	0x01bf;	????
    170c:	0b 00       	.word	0x000b;	????
    170e:	00 00       	beq			
    1710:	30 18       	.word	0x1830;	????
    1712:	00 00       	beq			
    1714:	40 00       	.word	0x0040;	????
    1716:	bf 01       	.word	0x01bf;	????
    1718:	0a 00       	.word	0x000a;	????
    171a:	00 00       	beq			
    171c:	00 00       	beq			
    171e:	00 00       	beq			
    1720:	c0 00       	.word	0x00c0;	????
    1722:	00 00       	beq			
    1724:	0c 00       	.word	0x000c;	????
    1726:	00 00       	beq			
    1728:	00 00       	beq			
    172a:	00 00       	beq			
    172c:	e0 00       	.word	0x00e0;	????
    172e:	00 00       	beq			
    1730:	46 00       	.word	0x0046;	????
    1732:	00 00       	beq			
    1734:	00 00       	beq			
    1736:	00 00       	beq			
    1738:	24 00       	.word	0x0024;	????
    173a:	00 00       	beq			
    173c:	50 00       	.word	0x0050;	????
    173e:	00 00       	beq			
    1740:	30 19       	.word	0x1930;	????
    1742:	00 00       	beq			
    1744:	24 00       	.word	0x0024;	????
    1746:	d8 01       	.word	0x01d8;	????
    1748:	ce 25       	jz	$+926    	;abs 0x1ae6
    174a:	00 00       	beq			
    174c:	fe 17       	.word	0x17fe;	????
    174e:	00 00       	beq			
    1750:	40 00       	.word	0x0040;	????
    1752:	d7 01       	.word	0x01d7;	????
    1754:	0b 00       	.word	0x000b;	????
    1756:	00 00       	beq			
    1758:	de 18       	.word	0x18de;	????
    175a:	00 00       	beq			
    175c:	40 00       	.word	0x0040;	????
    175e:	d7 01       	.word	0x01d7;	????
    1760:	0a 00       	.word	0x000a;	????
    1762:	00 00       	beq			
    1764:	00 00       	beq			
    1766:	00 00       	beq			
    1768:	44 00       	.word	0x0044;	????
    176a:	d8 01       	.word	0x01d8;	????
	...
    1774:	44 00       	.word	0x0044;	????
    1776:	db 01       	.word	0x01db;	????
    1778:	08 00       	.word	0x0008;	????
    177a:	00 00       	beq			
    177c:	00 00       	beq			
    177e:	00 00       	beq			
    1780:	44 00       	.word	0x0044;	????
    1782:	dc 01       	.word	0x01dc;	????
    1784:	0c 00       	.word	0x000c;	????
    1786:	00 00       	beq			
    1788:	00 00       	beq			
    178a:	00 00       	beq			
    178c:	44 00       	.word	0x0044;	????
    178e:	dd 01       	.word	0x01dd;	????
    1790:	14 00       	.word	0x0014;	????
    1792:	00 00       	beq			
    1794:	00 00       	beq			
    1796:	00 00       	beq			
    1798:	44 00       	.word	0x0044;	????
    179a:	df 01       	.word	0x01df;	????
    179c:	18 00       	.word	0x0018;	????
    179e:	00 00       	beq			
    17a0:	00 00       	beq			
    17a2:	00 00       	beq			
    17a4:	44 00       	.word	0x0044;	????
    17a6:	e0 01       	.word	0x01e0;	????
    17a8:	20 00       	.word	0x0020;	????
    17aa:	00 00       	beq			
    17ac:	00 00       	beq			
    17ae:	00 00       	beq			
    17b0:	44 00       	.word	0x0044;	????
    17b2:	e1 01       	.word	0x01e1;	????
    17b4:	26 00       	.word	0x0026;	????
    17b6:	00 00       	beq			
    17b8:	00 00       	beq			
    17ba:	00 00       	beq			
    17bc:	44 00       	.word	0x0044;	????
    17be:	e3 01       	.word	0x01e3;	????
    17c0:	2c 00       	.word	0x002c;	????
    17c2:	00 00       	beq			
    17c4:	00 00       	beq			
    17c6:	00 00       	beq			
    17c8:	44 00       	.word	0x0044;	????
    17ca:	e4 01       	.word	0x01e4;	????
    17cc:	30 00       	.word	0x0030;	????
    17ce:	00 00       	beq			
    17d0:	00 00       	beq			
    17d2:	00 00       	beq			
    17d4:	44 00       	.word	0x0044;	????
    17d6:	e6 01       	.word	0x01e6;	????
    17d8:	36 00       	.word	0x0036;	????
    17da:	00 00       	beq			
    17dc:	00 00       	beq			
    17de:	00 00       	beq			
    17e0:	44 00       	.word	0x0044;	????
    17e2:	e7 01       	.word	0x01e7;	????
    17e4:	38 00       	.word	0x0038;	????
    17e6:	00 00       	beq			
    17e8:	30 18       	.word	0x1830;	????
    17ea:	00 00       	beq			
    17ec:	40 00       	.word	0x0040;	????
    17ee:	d9 01       	.word	0x01d9;	????
    17f0:	0b 00       	.word	0x000b;	????
    17f2:	00 00       	beq			
    17f4:	00 00       	beq			
    17f6:	00 00       	beq			
    17f8:	c0 00       	.word	0x00c0;	????
    17fa:	00 00       	beq			
    17fc:	08 00       	.word	0x0008;	????
    17fe:	00 00       	beq			
    1800:	00 00       	beq			
    1802:	00 00       	beq			
    1804:	e0 00       	.word	0x00e0;	????
    1806:	00 00       	beq			
    1808:	38 00       	.word	0x0038;	????
    180a:	00 00       	beq			
    180c:	00 00       	beq			
    180e:	00 00       	beq			
    1810:	24 00       	.word	0x0024;	????
    1812:	00 00       	beq			
    1814:	3e 00       	.word	0x003e;	????
    1816:	00 00       	beq			
    1818:	4b 19       	.word	0x194b;	????
    181a:	00 00       	beq			
    181c:	24 00       	.word	0x0024;	????
    181e:	ea 01       	.word	0x01ea;	????
    1820:	0c 26       	jz	$-998    	;abs 0x143a
    1822:	00 00       	beq			
    1824:	fe 17       	.word	0x17fe;	????
    1826:	00 00       	beq			
    1828:	40 00       	.word	0x0040;	????
    182a:	e9 01       	.word	0x01e9;	????
    182c:	0b 00       	.word	0x000b;	????
    182e:	00 00       	beq			
    1830:	de 18       	.word	0x18de;	????
    1832:	00 00       	beq			
    1834:	40 00       	.word	0x0040;	????
    1836:	e9 01       	.word	0x01e9;	????
    1838:	08 00       	.word	0x0008;	????
    183a:	00 00       	beq			
    183c:	6f 18       	.word	0x186f;	????
    183e:	00 00       	beq			
    1840:	40 00       	.word	0x0040;	????
    1842:	e9 01       	.word	0x01e9;	????
    1844:	09 00       	.word	0x0009;	????
    1846:	00 00       	beq			
    1848:	00 00       	beq			
    184a:	00 00       	beq			
    184c:	44 00       	.word	0x0044;	????
    184e:	ea 01       	.word	0x01ea;	????
	...
    1858:	44 00       	.word	0x0044;	????
    185a:	eb 01       	.word	0x01eb;	????
    185c:	0e 00       	.word	0x000e;	????
    185e:	00 00       	beq			
    1860:	00 00       	beq			
    1862:	00 00       	beq			
    1864:	44 00       	.word	0x0044;	????
    1866:	ed 01       	.word	0x01ed;	????
    1868:	10 00       	.word	0x0010;	????
    186a:	00 00       	beq			
    186c:	00 00       	beq			
    186e:	00 00       	beq			
    1870:	44 00       	.word	0x0044;	????
    1872:	ee 01       	.word	0x01ee;	????
    1874:	14 00       	.word	0x0014;	????
    1876:	00 00       	beq			
    1878:	00 00       	beq			
    187a:	00 00       	beq			
    187c:	44 00       	.word	0x0044;	????
    187e:	ef 01       	.word	0x01ef;	????
    1880:	1c 00       	.word	0x001c;	????
    1882:	00 00       	beq			
    1884:	00 00       	beq			
    1886:	00 00       	beq			
    1888:	44 00       	.word	0x0044;	????
    188a:	f3 01       	.word	0x01f3;	????
    188c:	20 00       	.word	0x0020;	????
    188e:	00 00       	beq			
    1890:	00 00       	beq			
    1892:	00 00       	beq			
    1894:	44 00       	.word	0x0044;	????
    1896:	f6 01       	.word	0x01f6;	????
    1898:	28 00       	.word	0x0028;	????
    189a:	00 00       	beq			
    189c:	00 00       	beq			
    189e:	00 00       	beq			
    18a0:	44 00       	.word	0x0044;	????
    18a2:	f8 01       	.word	0x01f8;	????
    18a4:	30 00       	.word	0x0030;	????
    18a6:	00 00       	beq			
    18a8:	00 00       	beq			
    18aa:	00 00       	beq			
    18ac:	44 00       	.word	0x0044;	????
    18ae:	fa 01       	.word	0x01fa;	????
    18b0:	36 00       	.word	0x0036;	????
    18b2:	00 00       	beq			
    18b4:	00 00       	beq			
    18b6:	00 00       	beq			
    18b8:	44 00       	.word	0x0044;	????
    18ba:	fb 01       	.word	0x01fb;	????
    18bc:	40 00       	.word	0x0040;	????
    18be:	00 00       	beq			
    18c0:	00 00       	beq			
    18c2:	00 00       	beq			
    18c4:	44 00       	.word	0x0044;	????
    18c6:	fe 01       	.word	0x01fe;	????
    18c8:	4a 00       	.word	0x004a;	????
    18ca:	00 00       	beq			
    18cc:	00 00       	beq			
    18ce:	00 00       	beq			
    18d0:	44 00       	.word	0x0044;	????
    18d2:	ff 01       	.word	0x01ff;	????
    18d4:	4e 00       	.word	0x004e;	????
    18d6:	00 00       	beq			
    18d8:	00 00       	beq			
    18da:	00 00       	beq			
    18dc:	44 00       	.word	0x0044;	????
    18de:	01 02       	.word	0x0201;	????
    18e0:	54 00       	.word	0x0054;	????
    18e2:	00 00       	beq			
    18e4:	00 00       	beq			
    18e6:	00 00       	beq			
    18e8:	44 00       	.word	0x0044;	????
    18ea:	02 02       	.word	0x0202;	????
    18ec:	56 00       	.word	0x0056;	????
    18ee:	00 00       	beq			
    18f0:	7b 18       	.word	0x187b;	????
    18f2:	00 00       	beq			
    18f4:	40 00       	.word	0x0040;	????
    18f6:	eb 01       	.word	0x01eb;	????
    18f8:	0a 00       	.word	0x000a;	????
    18fa:	00 00       	beq			
    18fc:	30 18       	.word	0x1830;	????
    18fe:	00 00       	beq			
    1900:	40 00       	.word	0x0040;	????
    1902:	eb 01       	.word	0x01eb;	????
    1904:	0b 00       	.word	0x000b;	????
    1906:	00 00       	beq			
    1908:	00 00       	beq			
    190a:	00 00       	beq			
    190c:	c0 00       	.word	0x00c0;	????
    190e:	00 00       	beq			
    1910:	0e 00       	.word	0x000e;	????
    1912:	00 00       	beq			
    1914:	00 00       	beq			
    1916:	00 00       	beq			
    1918:	e0 00       	.word	0x00e0;	????
    191a:	00 00       	beq			
    191c:	56 00       	.word	0x0056;	????
    191e:	00 00       	beq			
    1920:	00 00       	beq			
    1922:	00 00       	beq			
    1924:	24 00       	.word	0x0024;	????
    1926:	00 00       	beq			
    1928:	60 00       	.word	0x0060;	????
    192a:	00 00       	beq			
    192c:	68 19       	.word	0x1968;	????
    192e:	00 00       	beq			
    1930:	24 00       	.word	0x0024;	????
    1932:	05 02       	.word	0x0205;	????
    1934:	6c 26       	jz	$-806    	;abs 0x160e
    1936:	00 00       	beq			
    1938:	fe 17       	.word	0x17fe;	????
    193a:	00 00       	beq			
    193c:	40 00       	.word	0x0040;	????
    193e:	04 02       	.word	0x0204;	????
    1940:	0b 00       	.word	0x000b;	????
    1942:	00 00       	beq			
    1944:	9b 18       	.word	0x189b;	????
    1946:	00 00       	beq			
    1948:	40 00       	.word	0x0040;	????
    194a:	04 02       	.word	0x0204;	????
    194c:	0a 00       	.word	0x000a;	????
    194e:	00 00       	beq			
    1950:	de 18       	.word	0x18de;	????
    1952:	00 00       	beq			
    1954:	40 00       	.word	0x0040;	????
    1956:	04 02       	.word	0x0204;	????
    1958:	09 00       	.word	0x0009;	????
    195a:	00 00       	beq			
    195c:	00 00       	beq			
    195e:	00 00       	beq			
    1960:	44 00       	.word	0x0044;	????
    1962:	05 02       	.word	0x0205;	????
	...
    196c:	44 00       	.word	0x0044;	????
    196e:	08 02       	.word	0x0208;	????
    1970:	0c 00       	.word	0x000c;	????
    1972:	00 00       	beq			
    1974:	00 00       	beq			
    1976:	00 00       	beq			
    1978:	44 00       	.word	0x0044;	????
    197a:	09 02       	.word	0x0209;	????
    197c:	10 00       	.word	0x0010;	????
    197e:	00 00       	beq			
    1980:	00 00       	beq			
    1982:	00 00       	beq			
    1984:	44 00       	.word	0x0044;	????
    1986:	0a 02       	.word	0x020a;	????
    1988:	18 00       	.word	0x0018;	????
    198a:	00 00       	beq			
    198c:	00 00       	beq			
    198e:	00 00       	beq			
    1990:	44 00       	.word	0x0044;	????
    1992:	0b 02       	.word	0x020b;	????
    1994:	20 00       	.word	0x0020;	????
    1996:	00 00       	beq			
    1998:	00 00       	beq			
    199a:	00 00       	beq			
    199c:	44 00       	.word	0x0044;	????
    199e:	0d 02       	.word	0x020d;	????
    19a0:	24 00       	.word	0x0024;	????
    19a2:	00 00       	beq			
    19a4:	00 00       	beq			
    19a6:	00 00       	beq			
    19a8:	44 00       	.word	0x0044;	????
    19aa:	0e 02       	.word	0x020e;	????
    19ac:	2c 00       	.word	0x002c;	????
    19ae:	00 00       	beq			
    19b0:	00 00       	beq			
    19b2:	00 00       	beq			
    19b4:	44 00       	.word	0x0044;	????
    19b6:	0f 02       	.word	0x020f;	????
    19b8:	32 00       	.word	0x0032;	????
    19ba:	00 00       	beq			
    19bc:	00 00       	beq			
    19be:	00 00       	beq			
    19c0:	44 00       	.word	0x0044;	????
    19c2:	11 02       	.word	0x0211;	????
    19c4:	38 00       	.word	0x0038;	????
    19c6:	00 00       	beq			
    19c8:	00 00       	beq			
    19ca:	00 00       	beq			
    19cc:	44 00       	.word	0x0044;	????
    19ce:	12 02       	.word	0x0212;	????
    19d0:	3c 00       	.word	0x003c;	????
    19d2:	00 00       	beq			
    19d4:	00 00       	beq			
    19d6:	00 00       	beq			
    19d8:	44 00       	.word	0x0044;	????
    19da:	14 02       	.word	0x0214;	????
    19dc:	42 00       	.word	0x0042;	????
    19de:	00 00       	beq			
    19e0:	00 00       	beq			
    19e2:	00 00       	beq			
    19e4:	44 00       	.word	0x0044;	????
    19e6:	15 02       	.word	0x0215;	????
    19e8:	44 00       	.word	0x0044;	????
    19ea:	00 00       	beq			
    19ec:	30 18       	.word	0x1830;	????
    19ee:	00 00       	beq			
    19f0:	40 00       	.word	0x0040;	????
    19f2:	06 02       	.word	0x0206;	????
    19f4:	0b 00       	.word	0x000b;	????
    19f6:	00 00       	beq			
    19f8:	00 00       	beq			
    19fa:	00 00       	beq			
    19fc:	c0 00       	.word	0x00c0;	????
    19fe:	00 00       	beq			
    1a00:	0c 00       	.word	0x000c;	????
    1a02:	00 00       	beq			
    1a04:	00 00       	beq			
    1a06:	00 00       	beq			
    1a08:	e0 00       	.word	0x00e0;	????
    1a0a:	00 00       	beq			
    1a0c:	44 00       	.word	0x0044;	????
    1a0e:	00 00       	beq			
    1a10:	00 00       	beq			
    1a12:	00 00       	beq			
    1a14:	24 00       	.word	0x0024;	????
    1a16:	00 00       	beq			
    1a18:	4c 00       	.word	0x004c;	????
    1a1a:	00 00       	beq			
    1a1c:	83 19       	.word	0x1983;	????
    1a1e:	00 00       	beq			
    1a20:	24 00       	.word	0x0024;	????
    1a22:	18 02       	.word	0x0218;	????
    1a24:	b8 26       	jz	$-654    	;abs 0x1796
    1a26:	00 00       	beq			
    1a28:	fe 17       	.word	0x17fe;	????
    1a2a:	00 00       	beq			
    1a2c:	40 00       	.word	0x0040;	????
    1a2e:	17 02       	.word	0x0217;	????
    1a30:	0b 00       	.word	0x000b;	????
    1a32:	00 00       	beq			
    1a34:	9b 18       	.word	0x189b;	????
    1a36:	00 00       	beq			
    1a38:	40 00       	.word	0x0040;	????
    1a3a:	17 02       	.word	0x0217;	????
    1a3c:	0a 00       	.word	0x000a;	????
    1a3e:	00 00       	beq			
    1a40:	de 18       	.word	0x18de;	????
    1a42:	00 00       	beq			
    1a44:	40 00       	.word	0x0040;	????
    1a46:	17 02       	.word	0x0217;	????
    1a48:	07 00       	.word	0x0007;	????
    1a4a:	00 00       	beq			
    1a4c:	6f 18       	.word	0x186f;	????
    1a4e:	00 00       	beq			
    1a50:	40 00       	.word	0x0040;	????
    1a52:	17 02       	.word	0x0217;	????
    1a54:	08 00       	.word	0x0008;	????
    1a56:	00 00       	beq			
    1a58:	00 00       	beq			
    1a5a:	00 00       	beq			
    1a5c:	44 00       	.word	0x0044;	????
    1a5e:	18 02       	.word	0x0218;	????
	...
    1a68:	44 00       	.word	0x0044;	????
    1a6a:	19 02       	.word	0x0219;	????
    1a6c:	12 00       	.word	0x0012;	????
    1a6e:	00 00       	beq			
    1a70:	00 00       	beq			
    1a72:	00 00       	beq			
    1a74:	44 00       	.word	0x0044;	????
    1a76:	1b 02       	.word	0x021b;	????
    1a78:	14 00       	.word	0x0014;	????
    1a7a:	00 00       	beq			
    1a7c:	00 00       	beq			
    1a7e:	00 00       	beq			
    1a80:	44 00       	.word	0x0044;	????
    1a82:	1c 02       	.word	0x021c;	????
    1a84:	18 00       	.word	0x0018;	????
    1a86:	00 00       	beq			
    1a88:	00 00       	beq			
    1a8a:	00 00       	beq			
    1a8c:	44 00       	.word	0x0044;	????
    1a8e:	1d 02       	.word	0x021d;	????
    1a90:	20 00       	.word	0x0020;	????
    1a92:	00 00       	beq			
    1a94:	00 00       	beq			
    1a96:	00 00       	beq			
    1a98:	44 00       	.word	0x0044;	????
    1a9a:	1e 02       	.word	0x021e;	????
    1a9c:	28 00       	.word	0x0028;	????
    1a9e:	00 00       	beq			
    1aa0:	00 00       	beq			
    1aa2:	00 00       	beq			
    1aa4:	44 00       	.word	0x0044;	????
    1aa6:	22 02       	.word	0x0222;	????
    1aa8:	2c 00       	.word	0x002c;	????
    1aaa:	00 00       	beq			
    1aac:	00 00       	beq			
    1aae:	00 00       	beq			
    1ab0:	44 00       	.word	0x0044;	????
    1ab2:	25 02       	.word	0x0225;	????
    1ab4:	34 00       	.word	0x0034;	????
    1ab6:	00 00       	beq			
    1ab8:	00 00       	beq			
    1aba:	00 00       	beq			
    1abc:	44 00       	.word	0x0044;	????
    1abe:	27 02       	.word	0x0227;	????
    1ac0:	3c 00       	.word	0x003c;	????
    1ac2:	00 00       	beq			
    1ac4:	00 00       	beq			
    1ac6:	00 00       	beq			
    1ac8:	44 00       	.word	0x0044;	????
    1aca:	29 02       	.word	0x0229;	????
    1acc:	42 00       	.word	0x0042;	????
    1ace:	00 00       	beq			
    1ad0:	00 00       	beq			
    1ad2:	00 00       	beq			
    1ad4:	44 00       	.word	0x0044;	????
    1ad6:	2a 02       	.word	0x022a;	????
    1ad8:	4c 00       	.word	0x004c;	????
    1ada:	00 00       	beq			
    1adc:	00 00       	beq			
    1ade:	00 00       	beq			
    1ae0:	44 00       	.word	0x0044;	????
    1ae2:	2d 02       	.word	0x022d;	????
    1ae4:	56 00       	.word	0x0056;	????
    1ae6:	00 00       	beq			
    1ae8:	00 00       	beq			
    1aea:	00 00       	beq			
    1aec:	44 00       	.word	0x0044;	????
    1aee:	2e 02       	.word	0x022e;	????
    1af0:	5a 00       	.word	0x005a;	????
    1af2:	00 00       	beq			
    1af4:	00 00       	beq			
    1af6:	00 00       	beq			
    1af8:	44 00       	.word	0x0044;	????
    1afa:	30 02       	.word	0x0230;	????
    1afc:	60 00       	.word	0x0060;	????
    1afe:	00 00       	beq			
    1b00:	00 00       	beq			
    1b02:	00 00       	beq			
    1b04:	44 00       	.word	0x0044;	????
    1b06:	31 02       	.word	0x0231;	????
    1b08:	62 00       	.word	0x0062;	????
    1b0a:	00 00       	beq			
    1b0c:	7b 18       	.word	0x187b;	????
    1b0e:	00 00       	beq			
    1b10:	40 00       	.word	0x0040;	????
    1b12:	19 02       	.word	0x0219;	????
    1b14:	09 00       	.word	0x0009;	????
    1b16:	00 00       	beq			
    1b18:	30 18       	.word	0x1830;	????
    1b1a:	00 00       	beq			
    1b1c:	40 00       	.word	0x0040;	????
    1b1e:	19 02       	.word	0x0219;	????
    1b20:	0b 00       	.word	0x000b;	????
    1b22:	00 00       	beq			
    1b24:	00 00       	beq			
    1b26:	00 00       	beq			
    1b28:	c0 00       	.word	0x00c0;	????
    1b2a:	00 00       	beq			
    1b2c:	12 00       	.word	0x0012;	????
    1b2e:	00 00       	beq			
    1b30:	00 00       	beq			
    1b32:	00 00       	beq			
    1b34:	e0 00       	.word	0x00e0;	????
    1b36:	00 00       	beq			
    1b38:	62 00       	.word	0x0062;	????
    1b3a:	00 00       	beq			
    1b3c:	00 00       	beq			
    1b3e:	00 00       	beq			
    1b40:	24 00       	.word	0x0024;	????
    1b42:	00 00       	beq			
    1b44:	6e 00       	.word	0x006e;	????
    1b46:	00 00       	beq			
    1b48:	a0 19       	.word	0x19a0;	????
    1b4a:	00 00       	beq			
    1b4c:	24 00       	.word	0x0024;	????
    1b4e:	37 02       	.word	0x0237;	????
    1b50:	26 27       	jz	$-434    	;abs 0x199e
    1b52:	00 00       	beq			
    1b54:	b4 19       	.word	0x19b4;	????
    1b56:	00 00       	beq			
    1b58:	40 00       	.word	0x0040;	????
    1b5a:	36 02       	.word	0x0236;	????
    1b5c:	0f 00       	.word	0x000f;	????
    1b5e:	00 00       	beq			
    1b60:	00 00       	beq			
    1b62:	00 00       	beq			
    1b64:	44 00       	.word	0x0044;	????
    1b66:	37 02       	.word	0x0237;	????
	...
    1b70:	44 00       	.word	0x0044;	????
    1b72:	38 02       	.word	0x0238;	????
	...
    1b7c:	44 00       	.word	0x0044;	????
    1b7e:	39 02       	.word	0x0239;	????
    1b80:	04 00       	.word	0x0004;	????
    1b82:	00 00       	beq			
    1b84:	00 00       	beq			
    1b86:	00 00       	beq			
    1b88:	44 00       	.word	0x0044;	????
    1b8a:	3a 02       	.word	0x023a;	????
    1b8c:	0a 00       	.word	0x000a;	????
    1b8e:	00 00       	beq			
    1b90:	00 00       	beq			
    1b92:	00 00       	beq			
    1b94:	24 00       	.word	0x0024;	????
    1b96:	00 00       	beq			
    1b98:	0c 00       	.word	0x000c;	????
    1b9a:	00 00       	beq			
    1b9c:	c4 19       	.word	0x19c4;	????
    1b9e:	00 00       	beq			
    1ba0:	24 00       	.word	0x0024;	????
    1ba2:	3e 02       	.word	0x023e;	????
    1ba4:	32 27       	jz	$-410    	;abs 0x1a0a
    1ba6:	00 00       	beq			
    1ba8:	de 18       	.word	0x18de;	????
    1baa:	00 00       	beq			
    1bac:	40 00       	.word	0x0040;	????
    1bae:	3d 02       	.word	0x023d;	????
    1bb0:	0f 00       	.word	0x000f;	????
    1bb2:	00 00       	beq			
    1bb4:	00 00       	beq			
    1bb6:	00 00       	beq			
    1bb8:	44 00       	.word	0x0044;	????
    1bba:	3e 02       	.word	0x023e;	????
	...
    1bc4:	44 00       	.word	0x0044;	????
    1bc6:	41 02       	.word	0x0241;	????
	...
    1bd0:	44 00       	.word	0x0044;	????
    1bd2:	42 02       	.word	0x0242;	????
    1bd4:	1c 00       	.word	0x001c;	????
    1bd6:	00 00       	beq			
    1bd8:	7b 18       	.word	0x187b;	????
    1bda:	00 00       	beq			
    1bdc:	40 00       	.word	0x0040;	????
    1bde:	3f 02       	.word	0x023f;	????
    1be0:	0d 00       	.word	0x000d;	????
    1be2:	00 00       	beq			
    1be4:	00 00       	beq			
    1be6:	00 00       	beq			
    1be8:	c0 00       	.word	0x00c0;	????
	...
    1bf2:	00 00       	beq			
    1bf4:	e0 00       	.word	0x00e0;	????
    1bf6:	00 00       	beq			
    1bf8:	1c 00       	.word	0x001c;	????
    1bfa:	00 00       	beq			
    1bfc:	00 00       	beq			
    1bfe:	00 00       	beq			
    1c00:	24 00       	.word	0x0024;	????
    1c02:	00 00       	beq			
    1c04:	1e 00       	.word	0x001e;	????
    1c06:	00 00       	beq			
    1c08:	dc 19       	.word	0x19dc;	????
    1c0a:	00 00       	beq			
    1c0c:	24 00       	.word	0x0024;	????
    1c0e:	4f 02       	.word	0x024f;	????
    1c10:	50 27       	jz	$-350    	;abs 0x1ab2
    1c12:	00 00       	beq			
    1c14:	00 00       	beq			
    1c16:	00 00       	beq			
    1c18:	44 00       	.word	0x0044;	????
    1c1a:	4f 02       	.word	0x024f;	????
	...
    1c24:	44 00       	.word	0x0044;	????
    1c26:	52 02       	.word	0x0252;	????
    1c28:	06 00       	.word	0x0006;	????
    1c2a:	00 00       	beq			
    1c2c:	00 00       	beq			
    1c2e:	00 00       	beq			
    1c30:	44 00       	.word	0x0044;	????
    1c32:	54 02       	.word	0x0254;	????
    1c34:	12 00       	.word	0x0012;	????
    1c36:	00 00       	beq			
    1c38:	00 00       	beq			
    1c3a:	00 00       	beq			
    1c3c:	44 00       	.word	0x0044;	????
    1c3e:	56 02       	.word	0x0256;	????
    1c40:	1c 00       	.word	0x001c;	????
    1c42:	00 00       	beq			
    1c44:	00 00       	beq			
    1c46:	00 00       	beq			
    1c48:	44 00       	.word	0x0044;	????
    1c4a:	5a 02       	.word	0x025a;	????
    1c4c:	24 00       	.word	0x0024;	????
    1c4e:	00 00       	beq			
    1c50:	00 00       	beq			
    1c52:	00 00       	beq			
    1c54:	44 00       	.word	0x0044;	????
    1c56:	5c 02       	.word	0x025c;	????
    1c58:	2e 00       	.word	0x002e;	????
    1c5a:	00 00       	beq			
    1c5c:	00 00       	beq			
    1c5e:	00 00       	beq			
    1c60:	44 00       	.word	0x0044;	????
    1c62:	5e 02       	.word	0x025e;	????
    1c64:	3a 00       	.word	0x003a;	????
    1c66:	00 00       	beq			
    1c68:	00 00       	beq			
    1c6a:	00 00       	beq			
    1c6c:	44 00       	.word	0x0044;	????
    1c6e:	60 02       	.word	0x0260;	????
    1c70:	42 00       	.word	0x0042;	????
    1c72:	00 00       	beq			
    1c74:	00 00       	beq			
    1c76:	00 00       	beq			
    1c78:	44 00       	.word	0x0044;	????
    1c7a:	61 02       	.word	0x0261;	????
    1c7c:	4e 00       	.word	0x004e;	????
    1c7e:	00 00       	beq			
    1c80:	00 00       	beq			
    1c82:	00 00       	beq			
    1c84:	44 00       	.word	0x0044;	????
    1c86:	64 02       	.word	0x0264;	????
    1c88:	58 00       	.word	0x0058;	????
    1c8a:	00 00       	beq			
    1c8c:	00 00       	beq			
    1c8e:	00 00       	beq			
    1c90:	44 00       	.word	0x0044;	????
    1c92:	66 02       	.word	0x0266;	????
    1c94:	60 00       	.word	0x0060;	????
    1c96:	00 00       	beq			
    1c98:	00 00       	beq			
    1c9a:	00 00       	beq			
    1c9c:	44 00       	.word	0x0044;	????
    1c9e:	67 02       	.word	0x0267;	????
    1ca0:	68 00       	.word	0x0068;	????
    1ca2:	00 00       	beq			
    1ca4:	00 00       	beq			
    1ca6:	00 00       	beq			
    1ca8:	44 00       	.word	0x0044;	????
    1caa:	6a 02       	.word	0x026a;	????
    1cac:	72 00       	.word	0x0072;	????
    1cae:	00 00       	beq			
    1cb0:	00 00       	beq			
    1cb2:	00 00       	beq			
    1cb4:	44 00       	.word	0x0044;	????
    1cb6:	6b 02       	.word	0x026b;	????
    1cb8:	72 00       	.word	0x0072;	????
    1cba:	00 00       	beq			
    1cbc:	f2 19       	.word	0x19f2;	????
    1cbe:	00 00       	beq			
    1cc0:	80 00       	.word	0x0080;	????
    1cc2:	50 02       	.word	0x0250;	????
    1cc4:	00 00       	beq			
    1cc6:	00 00       	beq			
    1cc8:	13 1a       	.word	0x1a13;	????
    1cca:	00 00       	beq			
    1ccc:	80 00       	.word	0x0080;	????
    1cce:	50 02       	.word	0x0250;	????
    1cd0:	08 00       	.word	0x0008;	????
    1cd2:	00 00       	beq			
    1cd4:	00 00       	beq			
    1cd6:	00 00       	beq			
    1cd8:	c0 00       	.word	0x00c0;	????
    1cda:	00 00       	beq			
    1cdc:	06 00       	.word	0x0006;	????
    1cde:	00 00       	beq			
    1ce0:	00 00       	beq			
    1ce2:	00 00       	beq			
    1ce4:	e0 00       	.word	0x00e0;	????
    1ce6:	00 00       	beq			
    1ce8:	72 00       	.word	0x0072;	????
    1cea:	00 00       	beq			
    1cec:	00 00       	beq			
    1cee:	00 00       	beq			
    1cf0:	24 00       	.word	0x0024;	????
    1cf2:	00 00       	beq			
    1cf4:	7c 00       	.word	0x007c;	????
    1cf6:	00 00       	beq			
    1cf8:	34 1a       	.word	0x1a34;	????
    1cfa:	00 00       	beq			
    1cfc:	24 00       	.word	0x0024;	????
    1cfe:	6f 02       	.word	0x026f;	????
    1d00:	e4 27       	jz	$-54     	;abs 0x1cca
    1d02:	00 00       	beq			
    1d04:	00 00       	beq			
    1d06:	00 00       	beq			
    1d08:	44 00       	.word	0x0044;	????
    1d0a:	6f 02       	.word	0x026f;	????
	...
    1d14:	44 00       	.word	0x0044;	????
    1d16:	72 02       	.word	0x0272;	????
    1d18:	08 00       	.word	0x0008;	????
    1d1a:	00 00       	beq			
    1d1c:	00 00       	beq			
    1d1e:	00 00       	beq			
    1d20:	44 00       	.word	0x0044;	????
    1d22:	73 02       	.word	0x0273;	????
    1d24:	0e 00       	.word	0x000e;	????
    1d26:	00 00       	beq			
    1d28:	00 00       	beq			
    1d2a:	00 00       	beq			
    1d2c:	44 00       	.word	0x0044;	????
    1d2e:	76 02       	.word	0x0276;	????
    1d30:	18 00       	.word	0x0018;	????
    1d32:	00 00       	beq			
    1d34:	00 00       	beq			
    1d36:	00 00       	beq			
    1d38:	44 00       	.word	0x0044;	????
    1d3a:	77 02       	.word	0x0277;	????
    1d3c:	22 00       	.word	0x0022;	????
    1d3e:	00 00       	beq			
    1d40:	00 00       	beq			
    1d42:	00 00       	beq			
    1d44:	44 00       	.word	0x0044;	????
    1d46:	78 02       	.word	0x0278;	????
    1d48:	26 00       	.word	0x0026;	????
    1d4a:	00 00       	beq			
    1d4c:	00 00       	beq			
    1d4e:	00 00       	beq			
    1d50:	44 00       	.word	0x0044;	????
    1d52:	7a 02       	.word	0x027a;	????
    1d54:	2c 00       	.word	0x002c;	????
    1d56:	00 00       	beq			
    1d58:	00 00       	beq			
    1d5a:	00 00       	beq			
    1d5c:	44 00       	.word	0x0044;	????
    1d5e:	7b 02       	.word	0x027b;	????
    1d60:	34 00       	.word	0x0034;	????
    1d62:	00 00       	beq			
    1d64:	00 00       	beq			
    1d66:	00 00       	beq			
    1d68:	44 00       	.word	0x0044;	????
    1d6a:	7c 02       	.word	0x027c;	????
    1d6c:	42 00       	.word	0x0042;	????
    1d6e:	00 00       	beq			
    1d70:	00 00       	beq			
    1d72:	00 00       	beq			
    1d74:	44 00       	.word	0x0044;	????
    1d76:	7d 02       	.word	0x027d;	????
    1d78:	50 00       	.word	0x0050;	????
    1d7a:	00 00       	beq			
    1d7c:	00 00       	beq			
    1d7e:	00 00       	beq			
    1d80:	44 00       	.word	0x0044;	????
    1d82:	7e 02       	.word	0x027e;	????
    1d84:	5e 00       	.word	0x005e;	????
    1d86:	00 00       	beq			
    1d88:	00 00       	beq			
    1d8a:	00 00       	beq			
    1d8c:	44 00       	.word	0x0044;	????
    1d8e:	7f 02       	.word	0x027f;	????
    1d90:	6c 00       	.word	0x006c;	????
    1d92:	00 00       	beq			
    1d94:	00 00       	beq			
    1d96:	00 00       	beq			
    1d98:	44 00       	.word	0x0044;	????
    1d9a:	80 02       	.word	0x0280;	????
    1d9c:	7a 00       	.word	0x007a;	????
    1d9e:	00 00       	beq			
    1da0:	00 00       	beq			
    1da2:	00 00       	beq			
    1da4:	44 00       	.word	0x0044;	????
    1da6:	81 02       	.word	0x0281;	????
    1da8:	88 00       	.word	0x0088;	????
    1daa:	00 00       	beq			
    1dac:	00 00       	beq			
    1dae:	00 00       	beq			
    1db0:	44 00       	.word	0x0044;	????
    1db2:	83 02       	.word	0x0283;	????
    1db4:	9c 00       	.word	0x009c;	????
    1db6:	00 00       	beq			
    1db8:	00 00       	beq			
    1dba:	00 00       	beq			
    1dbc:	44 00       	.word	0x0044;	????
    1dbe:	84 02       	.word	0x0284;	????
    1dc0:	a0 00       	.word	0x00a0;	????
    1dc2:	00 00       	beq			
    1dc4:	4d 1a       	.word	0x1a4d;	????
    1dc6:	00 00       	beq			
    1dc8:	40 00       	.word	0x0040;	????
    1dca:	70 02       	.word	0x0270;	????
    1dcc:	0a 00       	.word	0x000a;	????
    1dce:	00 00       	beq			
    1dd0:	58 1a       	.word	0x1a58;	????
    1dd2:	00 00       	beq			
    1dd4:	40 00       	.word	0x0040;	????
    1dd6:	70 02       	.word	0x0270;	????
    1dd8:	0b 00       	.word	0x000b;	????
    1dda:	00 00       	beq			
    1ddc:	63 1a       	.word	0x1a63;	????
    1dde:	00 00       	beq			
    1de0:	40 00       	.word	0x0040;	????
    1de2:	70 02       	.word	0x0270;	????
    1de4:	09 00       	.word	0x0009;	????
    1de6:	00 00       	beq			
    1de8:	6e 1a       	.word	0x1a6e;	????
    1dea:	00 00       	beq			
    1dec:	80 00       	.word	0x0080;	????
    1dee:	70 02       	.word	0x0270;	????
	...
    1df8:	c0 00       	.word	0x00c0;	????
    1dfa:	00 00       	beq			
    1dfc:	08 00       	.word	0x0008;	????
    1dfe:	00 00       	beq			
    1e00:	00 00       	beq			
    1e02:	00 00       	beq			
    1e04:	e0 00       	.word	0x00e0;	????
    1e06:	00 00       	beq			
    1e08:	a0 00       	.word	0x00a0;	????
    1e0a:	00 00       	beq			
    1e0c:	00 00       	beq			
    1e0e:	00 00       	beq			
    1e10:	24 00       	.word	0x0024;	????
    1e12:	00 00       	beq			
    1e14:	ac 00       	.word	0x00ac;	????
    1e16:	00 00       	beq			
    1e18:	7b 1a       	.word	0x1a7b;	????
    1e1a:	00 00       	beq			
    1e1c:	20 00       	.word	0x0020;	????
    1e1e:	12 00       	.word	0x0012;	????
    1e20:	00 00       	beq			
    1e22:	00 00       	beq			
    1e24:	87 1a       	.word	0x1a87;	????
    1e26:	00 00       	beq			
    1e28:	20 00       	.word	0x0020;	????
    1e2a:	14 00       	.word	0x0014;	????
    1e2c:	00 00       	beq			
    1e2e:	00 00       	beq			
    1e30:	94 1a       	.word	0x1a94;	????
    1e32:	00 00       	beq			
    1e34:	20 00       	.word	0x0020;	????
    1e36:	16 00       	.word	0x0016;	????
    1e38:	00 00       	beq			
    1e3a:	00 00       	beq			
    1e3c:	a0 1a       	.word	0x1aa0;	????
    1e3e:	00 00       	beq			
    1e40:	20 00       	.word	0x0020;	????
    1e42:	18 00       	.word	0x0018;	????
    1e44:	00 00       	beq			
    1e46:	00 00       	beq			
    1e48:	ad 1a       	.word	0x1aad;	????
    1e4a:	00 00       	beq			
    1e4c:	20 00       	.word	0x0020;	????
    1e4e:	1a 00       	.word	0x001a;	????
    1e50:	00 00       	beq			
    1e52:	00 00       	beq			
    1e54:	b9 1a       	.word	0x1ab9;	????
    1e56:	00 00       	beq			
    1e58:	20 00       	.word	0x0020;	????
    1e5a:	1c 00       	.word	0x001c;	????
    1e5c:	00 00       	beq			
    1e5e:	00 00       	beq			
    1e60:	c7 1a       	.word	0x1ac7;	????
    1e62:	00 00       	beq			
    1e64:	20 00       	.word	0x0020;	????
    1e66:	1e 00       	.word	0x001e;	????
    1e68:	00 00       	beq			
    1e6a:	00 00       	beq			
    1e6c:	d5 1a       	.word	0x1ad5;	????
    1e6e:	00 00       	beq			
    1e70:	20 00       	.word	0x0020;	????
    1e72:	20 00       	.word	0x0020;	????
    1e74:	00 00       	beq			
    1e76:	00 00       	beq			
    1e78:	e4 1a       	.word	0x1ae4;	????
    1e7a:	00 00       	beq			
    1e7c:	20 00       	.word	0x0020;	????
    1e7e:	88 00       	.word	0x0088;	????
    1e80:	00 00       	beq			
    1e82:	00 00       	beq			
    1e84:	f2 1a       	.word	0x1af2;	????
    1e86:	00 00       	beq			
    1e88:	20 00       	.word	0x0020;	????
    1e8a:	8c 00       	.word	0x008c;	????
    1e8c:	00 00       	beq			
    1e8e:	00 00       	beq			
    1e90:	00 1b       	.word	0x1b00;	????
    1e92:	00 00       	beq			
    1e94:	20 00       	.word	0x0020;	????
    1e96:	90 00       	.word	0x0090;	????
    1e98:	00 00       	beq			
    1e9a:	00 00       	beq			
    1e9c:	0e 1b       	.word	0x1b0e;	????
    1e9e:	00 00       	beq			
    1ea0:	20 00       	.word	0x0020;	????
    1ea2:	94 00       	.word	0x0094;	????
    1ea4:	00 00       	beq			
    1ea6:	00 00       	beq			
    1ea8:	1c 1b       	.word	0x1b1c;	????
    1eaa:	00 00       	beq			
    1eac:	20 00       	.word	0x0020;	????
    1eae:	98 00       	.word	0x0098;	????
    1eb0:	00 00       	beq			
    1eb2:	00 00       	beq			
    1eb4:	2a 1b       	.word	0x1b2a;	????
    1eb6:	00 00       	beq			
    1eb8:	20 00       	.word	0x0020;	????
    1eba:	9c 00       	.word	0x009c;	????
    1ebc:	00 00       	beq			
    1ebe:	00 00       	beq			
    1ec0:	38 1b       	.word	0x1b38;	????
    1ec2:	00 00       	beq			
    1ec4:	20 00       	.word	0x0020;	????
    1ec6:	72 00       	.word	0x0072;	????
    1ec8:	00 00       	beq			
    1eca:	00 00       	beq			
    1ecc:	4c 1b       	.word	0x1b4c;	????
    1ece:	00 00       	beq			
    1ed0:	20 00       	.word	0x0020;	????
    1ed2:	74 00       	.word	0x0074;	????
    1ed4:	00 00       	beq			
    1ed6:	00 00       	beq			
    1ed8:	59 1b       	.word	0x1b59;	????
    1eda:	00 00       	beq			
    1edc:	20 00       	.word	0x0020;	????
    1ede:	76 00       	.word	0x0076;	????
    1ee0:	00 00       	beq			
    1ee2:	00 00       	beq			
    1ee4:	66 1b       	.word	0x1b66;	????
    1ee6:	00 00       	beq			
    1ee8:	20 00       	.word	0x0020;	????
    1eea:	78 00       	.word	0x0078;	????
    1eec:	00 00       	beq			
    1eee:	00 00       	beq			
    1ef0:	73 1b       	.word	0x1b73;	????
    1ef2:	00 00       	beq			
    1ef4:	20 00       	.word	0x0020;	????
    1ef6:	7a 00       	.word	0x007a;	????
    1ef8:	00 00       	beq			
    1efa:	00 00       	beq			
    1efc:	80 1b       	.word	0x1b80;	????
    1efe:	00 00       	beq			
    1f00:	20 00       	.word	0x0020;	????
    1f02:	7c 00       	.word	0x007c;	????
    1f04:	00 00       	beq			
    1f06:	00 00       	beq			
    1f08:	8c 1b       	.word	0x1b8c;	????
    1f0a:	00 00       	beq			
    1f0c:	20 00       	.word	0x0020;	????
    1f0e:	7e 00       	.word	0x007e;	????
    1f10:	00 00       	beq			
    1f12:	00 00       	beq			
    1f14:	99 1b       	.word	0x1b99;	????
    1f16:	00 00       	beq			
    1f18:	20 00       	.word	0x0020;	????
    1f1a:	81 00       	.word	0x0081;	????
    1f1c:	00 00       	beq			
    1f1e:	00 00       	beq			
    1f20:	a6 1b       	.word	0x1ba6;	????
    1f22:	00 00       	beq			
    1f24:	20 00       	.word	0x0020;	????
    1f26:	87 00       	.word	0x0087;	????
    1f28:	00 00       	beq			
    1f2a:	00 00       	beq			
    1f2c:	b2 1b       	.word	0x1bb2;	????
    1f2e:	00 00       	beq			
    1f30:	20 00       	.word	0x0020;	????
    1f32:	89 00       	.word	0x0089;	????
    1f34:	00 00       	beq			
    1f36:	00 00       	beq			
    1f38:	bf 1b       	.word	0x1bbf;	????
    1f3a:	00 00       	beq			
    1f3c:	20 00       	.word	0x0020;	????
    1f3e:	8b 00       	.word	0x008b;	????
    1f40:	00 00       	beq			
    1f42:	00 00       	beq			
    1f44:	cc 1b       	.word	0x1bcc;	????
    1f46:	00 00       	beq			
    1f48:	20 00       	.word	0x0020;	????
    1f4a:	8d 00       	.word	0x008d;	????
    1f4c:	00 00       	beq			
    1f4e:	00 00       	beq			
    1f50:	d9 1b       	.word	0x1bd9;	????
    1f52:	00 00       	beq			
    1f54:	20 00       	.word	0x0020;	????
    1f56:	8f 00       	.word	0x008f;	????
    1f58:	00 00       	beq			
    1f5a:	00 00       	beq			
    1f5c:	e6 1b       	.word	0x1be6;	????
    1f5e:	00 00       	beq			
    1f60:	20 00       	.word	0x0020;	????
    1f62:	91 00       	.word	0x0091;	????
    1f64:	00 00       	beq			
    1f66:	00 00       	beq			
    1f68:	f2 1b       	.word	0x1bf2;	????
    1f6a:	00 00       	beq			
    1f6c:	20 00       	.word	0x0020;	????
    1f6e:	93 00       	.word	0x0093;	????
    1f70:	00 00       	beq			
    1f72:	00 00       	beq			
    1f74:	ff 1b       	.word	0x1bff;	????
    1f76:	00 00       	beq			
    1f78:	20 00       	.word	0x0020;	????
    1f7a:	96 00       	.word	0x0096;	????
    1f7c:	00 00       	beq			
    1f7e:	00 00       	beq			
    1f80:	0c 1c       	.word	0x1c0c;	????
    1f82:	00 00       	beq			
    1f84:	20 00       	.word	0x0020;	????
    1f86:	9c 00       	.word	0x009c;	????
    1f88:	00 00       	beq			
    1f8a:	00 00       	beq			
    1f8c:	18 1c       	.word	0x1c18;	????
    1f8e:	00 00       	beq			
    1f90:	20 00       	.word	0x0020;	????
    1f92:	9e 00       	.word	0x009e;	????
    1f94:	00 00       	beq			
    1f96:	00 00       	beq			
    1f98:	25 1c       	.word	0x1c25;	????
    1f9a:	00 00       	beq			
    1f9c:	20 00       	.word	0x0020;	????
    1f9e:	a0 00       	.word	0x00a0;	????
    1fa0:	00 00       	beq			
    1fa2:	00 00       	beq			
    1fa4:	32 1c       	.word	0x1c32;	????
    1fa6:	00 00       	beq			
    1fa8:	20 00       	.word	0x0020;	????
    1faa:	a2 00       	.word	0x00a2;	????
    1fac:	00 00       	beq			
    1fae:	00 00       	beq			
    1fb0:	3f 1c       	.word	0x1c3f;	????
    1fb2:	00 00       	beq			
    1fb4:	20 00       	.word	0x0020;	????
    1fb6:	a5 00       	.word	0x00a5;	????
    1fb8:	00 00       	beq			
    1fba:	00 00       	beq			
    1fbc:	4c 1c       	.word	0x1c4c;	????
    1fbe:	00 00       	beq			
    1fc0:	20 00       	.word	0x0020;	????
    1fc2:	ab 00       	.word	0x00ab;	????
    1fc4:	00 00       	beq			
    1fc6:	00 00       	beq			
    1fc8:	58 1c       	.word	0x1c58;	????
    1fca:	00 00       	beq			
    1fcc:	20 00       	.word	0x0020;	????
    1fce:	ad 00       	.word	0x00ad;	????
    1fd0:	00 00       	beq			
    1fd2:	00 00       	beq			
    1fd4:	65 1c       	.word	0x1c65;	????
    1fd6:	00 00       	beq			
    1fd8:	20 00       	.word	0x0020;	????
    1fda:	af 00       	.word	0x00af;	????
    1fdc:	00 00       	beq			
    1fde:	00 00       	beq			
    1fe0:	72 1c       	.word	0x1c72;	????
    1fe2:	00 00       	beq			
    1fe4:	20 00       	.word	0x0020;	????
    1fe6:	b1 00       	.word	0x00b1;	????
    1fe8:	00 00       	beq			
    1fea:	00 00       	beq			
    1fec:	7f 1c       	.word	0x1c7f;	????
    1fee:	00 00       	beq			
    1ff0:	20 00       	.word	0x0020;	????
    1ff2:	b4 00       	.word	0x00b4;	????
    1ff4:	00 00       	beq			
    1ff6:	00 00       	beq			
    1ff8:	8c 1c       	.word	0x1c8c;	????
    1ffa:	00 00       	beq			
    1ffc:	20 00       	.word	0x0020;	????
    1ffe:	ba 00       	.word	0x00ba;	????
    2000:	00 00       	beq			
    2002:	00 00       	beq			
    2004:	98 1c       	.word	0x1c98;	????
    2006:	00 00       	beq			
    2008:	20 00       	.word	0x0020;	????
    200a:	bc 00       	.word	0x00bc;	????
    200c:	00 00       	beq			
    200e:	00 00       	beq			
    2010:	a5 1c       	.word	0x1ca5;	????
    2012:	00 00       	beq			
    2014:	20 00       	.word	0x0020;	????
    2016:	be 00       	.word	0x00be;	????
    2018:	00 00       	beq			
    201a:	00 00       	beq			
    201c:	b2 1c       	.word	0x1cb2;	????
    201e:	00 00       	beq			
    2020:	20 00       	.word	0x0020;	????
    2022:	c0 00       	.word	0x00c0;	????
    2024:	00 00       	beq			
    2026:	00 00       	beq			
    2028:	bf 1c       	.word	0x1cbf;	????
    202a:	00 00       	beq			
    202c:	20 00       	.word	0x0020;	????
    202e:	c3 00       	.word	0x00c3;	????
    2030:	00 00       	beq			
    2032:	00 00       	beq			
    2034:	cc 1c       	.word	0x1ccc;	????
    2036:	00 00       	beq			
    2038:	20 00       	.word	0x0020;	????
    203a:	c9 00       	.word	0x00c9;	????
    203c:	00 00       	beq			
    203e:	00 00       	beq			
    2040:	d8 1c       	.word	0x1cd8;	????
    2042:	00 00       	beq			
    2044:	20 00       	.word	0x0020;	????
    2046:	cb 00       	.word	0x00cb;	????
    2048:	00 00       	beq			
    204a:	00 00       	beq			
    204c:	e5 1c       	.word	0x1ce5;	????
    204e:	00 00       	beq			
    2050:	20 00       	.word	0x0020;	????
    2052:	cd 00       	.word	0x00cd;	????
    2054:	00 00       	beq			
    2056:	00 00       	beq			
    2058:	f2 1c       	.word	0x1cf2;	????
    205a:	00 00       	beq			
    205c:	20 00       	.word	0x0020;	????
    205e:	cf 00       	.word	0x00cf;	????
    2060:	00 00       	beq			
    2062:	00 00       	beq			
    2064:	ff 1c       	.word	0x1cff;	????
    2066:	00 00       	beq			
    2068:	20 00       	.word	0x0020;	????
    206a:	d2 00       	.word	0x00d2;	????
    206c:	00 00       	beq			
    206e:	00 00       	beq			
    2070:	0c 1d       	.word	0x1d0c;	????
    2072:	00 00       	beq			
    2074:	20 00       	.word	0x0020;	????
    2076:	f8 00       	.word	0x00f8;	????
    2078:	00 00       	beq			
    207a:	00 00       	beq			
    207c:	1c 1d       	.word	0x1d1c;	????
    207e:	00 00       	beq			
    2080:	20 00       	.word	0x0020;	????
    2082:	fa 00       	.word	0x00fa;	????
    2084:	00 00       	beq			
    2086:	00 00       	beq			
    2088:	2c 1d       	.word	0x1d2c;	????
    208a:	00 00       	beq			
    208c:	20 00       	.word	0x0020;	????
    208e:	fc 00       	.word	0x00fc;	????
    2090:	00 00       	beq			
    2092:	00 00       	beq			
    2094:	3b 1d       	.word	0x1d3b;	????
    2096:	00 00       	beq			
    2098:	20 00       	.word	0x0020;	????
    209a:	fe 00       	.word	0x00fe;	????
    209c:	00 00       	beq			
    209e:	00 00       	beq			
    20a0:	4a 1d       	.word	0x1d4a;	????
    20a2:	00 00       	beq			
    20a4:	20 00       	.word	0x0020;	????
    20a6:	00 01       	.word	0x0100;	????
    20a8:	00 00       	beq			
    20aa:	00 00       	beq			
    20ac:	5a 1d       	.word	0x1d5a;	????
    20ae:	00 00       	beq			
    20b0:	20 00       	.word	0x0020;	????
    20b2:	02 01       	.word	0x0102;	????
    20b4:	00 00       	beq			
    20b6:	00 00       	beq			
    20b8:	6a 1d       	.word	0x1d6a;	????
    20ba:	00 00       	beq			
    20bc:	20 00       	.word	0x0020;	????
    20be:	04 01       	.word	0x0104;	????
    20c0:	00 00       	beq			
    20c2:	00 00       	beq			
    20c4:	7b 1d       	.word	0x1d7b;	????
    20c6:	00 00       	beq			
    20c8:	20 00       	.word	0x0020;	????
    20ca:	06 01       	.word	0x0106;	????
    20cc:	00 00       	beq			
    20ce:	00 00       	beq			
    20d0:	8c 1d       	.word	0x1d8c;	????
    20d2:	00 00       	beq			
    20d4:	20 00       	.word	0x0020;	????
    20d6:	08 01       	.word	0x0108;	????
    20d8:	00 00       	beq			
    20da:	00 00       	beq			
    20dc:	9d 1d       	.word	0x1d9d;	????
    20de:	00 00       	beq			
    20e0:	20 00       	.word	0x0020;	????
    20e2:	0a 01       	.word	0x010a;	????
    20e4:	00 00       	beq			
    20e6:	00 00       	beq			
    20e8:	af 1d       	.word	0x1daf;	????
    20ea:	00 00       	beq			
    20ec:	20 00       	.word	0x0020;	????
    20ee:	0c 01       	.word	0x010c;	????
    20f0:	00 00       	beq			
    20f2:	00 00       	beq			
    20f4:	c1 1d       	.word	0x1dc1;	????
    20f6:	00 00       	beq			
    20f8:	20 00       	.word	0x0020;	????
    20fa:	0f 01       	.word	0x010f;	????
    20fc:	00 00       	beq			
    20fe:	00 00       	beq			
    2100:	d1 1d       	.word	0x1dd1;	????
    2102:	00 00       	beq			
    2104:	20 00       	.word	0x0020;	????
    2106:	11 01       	.word	0x0111;	????
    2108:	00 00       	beq			
    210a:	00 00       	beq			
    210c:	e1 1d       	.word	0x1de1;	????
    210e:	00 00       	beq			
    2110:	20 00       	.word	0x0020;	????
    2112:	13 01       	.word	0x0113;	????
    2114:	00 00       	beq			
    2116:	00 00       	beq			
    2118:	f0 1d       	.word	0x1df0;	????
    211a:	00 00       	beq			
    211c:	20 00       	.word	0x0020;	????
    211e:	15 01       	.word	0x0115;	????
    2120:	00 00       	beq			
    2122:	00 00       	beq			
    2124:	ff 1d       	.word	0x1dff;	????
    2126:	00 00       	beq			
    2128:	20 00       	.word	0x0020;	????
    212a:	17 01       	.word	0x0117;	????
    212c:	00 00       	beq			
    212e:	00 00       	beq			
    2130:	10 1e       	.word	0x1e10;	????
    2132:	00 00       	beq			
    2134:	20 00       	.word	0x0020;	????
    2136:	19 01       	.word	0x0119;	????
    2138:	00 00       	beq			
    213a:	00 00       	beq			
    213c:	20 1e       	.word	0x1e20;	????
    213e:	00 00       	beq			
    2140:	20 00       	.word	0x0020;	????
    2142:	1b 01       	.word	0x011b;	????
    2144:	00 00       	beq			
    2146:	00 00       	beq			
    2148:	31 1e       	.word	0x1e31;	????
    214a:	00 00       	beq			
    214c:	20 00       	.word	0x0020;	????
    214e:	1d 01       	.word	0x011d;	????
    2150:	00 00       	beq			
    2152:	00 00       	beq			
    2154:	42 1e       	.word	0x1e42;	????
    2156:	00 00       	beq			
    2158:	20 00       	.word	0x0020;	????
    215a:	1f 01       	.word	0x011f;	????
    215c:	00 00       	beq			
    215e:	00 00       	beq			
    2160:	54 1e       	.word	0x1e54;	????
    2162:	00 00       	beq			
    2164:	20 00       	.word	0x0020;	????
    2166:	21 01       	.word	0x0121;	????
    2168:	00 00       	beq			
    216a:	00 00       	beq			
    216c:	66 1e       	.word	0x1e66;	????
    216e:	00 00       	beq			
    2170:	20 00       	.word	0x0020;	????
    2172:	28 01       	.word	0x0128;	????
    2174:	00 00       	beq			
    2176:	00 00       	beq			
    2178:	76 1e       	.word	0x1e76;	????
    217a:	00 00       	beq			
    217c:	20 00       	.word	0x0020;	????
    217e:	2a 01       	.word	0x012a;	????
    2180:	00 00       	beq			
    2182:	00 00       	beq			
    2184:	86 1e       	.word	0x1e86;	????
    2186:	00 00       	beq			
    2188:	20 00       	.word	0x0020;	????
    218a:	2c 01       	.word	0x012c;	????
    218c:	00 00       	beq			
    218e:	00 00       	beq			
    2190:	95 1e       	.word	0x1e95;	????
    2192:	00 00       	beq			
    2194:	20 00       	.word	0x0020;	????
    2196:	2e 01       	.word	0x012e;	????
    2198:	00 00       	beq			
    219a:	00 00       	beq			
    219c:	a4 1e       	.word	0x1ea4;	????
    219e:	00 00       	beq			
    21a0:	20 00       	.word	0x0020;	????
    21a2:	30 01       	.word	0x0130;	????
    21a4:	00 00       	beq			
    21a6:	00 00       	beq			
    21a8:	b4 1e       	.word	0x1eb4;	????
    21aa:	00 00       	beq			
    21ac:	20 00       	.word	0x0020;	????
    21ae:	32 01       	.word	0x0132;	????
    21b0:	00 00       	beq			
    21b2:	00 00       	beq			
    21b4:	c4 1e       	.word	0x1ec4;	????
    21b6:	00 00       	beq			
    21b8:	20 00       	.word	0x0020;	????
    21ba:	34 01       	.word	0x0134;	????
    21bc:	00 00       	beq			
    21be:	00 00       	beq			
    21c0:	d5 1e       	.word	0x1ed5;	????
    21c2:	00 00       	beq			
    21c4:	20 00       	.word	0x0020;	????
    21c6:	36 01       	.word	0x0136;	????
    21c8:	00 00       	beq			
    21ca:	00 00       	beq			
    21cc:	e6 1e       	.word	0x1ee6;	????
    21ce:	00 00       	beq			
    21d0:	20 00       	.word	0x0020;	????
    21d2:	38 01       	.word	0x0138;	????
    21d4:	00 00       	beq			
    21d6:	00 00       	beq			
    21d8:	f7 1e       	.word	0x1ef7;	????
    21da:	00 00       	beq			
    21dc:	20 00       	.word	0x0020;	????
    21de:	3a 01       	.word	0x013a;	????
    21e0:	00 00       	beq			
    21e2:	00 00       	beq			
    21e4:	09 1f       	.word	0x1f09;	????
    21e6:	00 00       	beq			
    21e8:	20 00       	.word	0x0020;	????
    21ea:	3c 01       	.word	0x013c;	????
    21ec:	00 00       	beq			
    21ee:	00 00       	beq			
    21f0:	1b 1f       	.word	0x1f1b;	????
    21f2:	00 00       	beq			
    21f4:	20 00       	.word	0x0020;	????
    21f6:	3f 01       	.word	0x013f;	????
    21f8:	00 00       	beq			
    21fa:	00 00       	beq			
    21fc:	2b 1f       	.word	0x1f2b;	????
    21fe:	00 00       	beq			
    2200:	20 00       	.word	0x0020;	????
    2202:	41 01       	.word	0x0141;	????
    2204:	00 00       	beq			
    2206:	00 00       	beq			
    2208:	3b 1f       	.word	0x1f3b;	????
    220a:	00 00       	beq			
    220c:	20 00       	.word	0x0020;	????
    220e:	43 01       	.word	0x0143;	????
    2210:	00 00       	beq			
    2212:	00 00       	beq			
    2214:	4a 1f       	.word	0x1f4a;	????
    2216:	00 00       	beq			
    2218:	20 00       	.word	0x0020;	????
    221a:	45 01       	.word	0x0145;	????
    221c:	00 00       	beq			
    221e:	00 00       	beq			
    2220:	59 1f       	.word	0x1f59;	????
    2222:	00 00       	beq			
    2224:	20 00       	.word	0x0020;	????
    2226:	47 01       	.word	0x0147;	????
    2228:	00 00       	beq			
    222a:	00 00       	beq			
    222c:	6a 1f       	.word	0x1f6a;	????
    222e:	00 00       	beq			
    2230:	20 00       	.word	0x0020;	????
    2232:	49 01       	.word	0x0149;	????
    2234:	00 00       	beq			
    2236:	00 00       	beq			
    2238:	7a 1f       	.word	0x1f7a;	????
    223a:	00 00       	beq			
    223c:	20 00       	.word	0x0020;	????
    223e:	4b 01       	.word	0x014b;	????
    2240:	00 00       	beq			
    2242:	00 00       	beq			
    2244:	8b 1f       	.word	0x1f8b;	????
    2246:	00 00       	beq			
    2248:	20 00       	.word	0x0020;	????
    224a:	4d 01       	.word	0x014d;	????
    224c:	00 00       	beq			
    224e:	00 00       	beq			
    2250:	9c 1f       	.word	0x1f9c;	????
    2252:	00 00       	beq			
    2254:	20 00       	.word	0x0020;	????
    2256:	4f 01       	.word	0x014f;	????
    2258:	00 00       	beq			
    225a:	00 00       	beq			
    225c:	ae 1f       	.word	0x1fae;	????
    225e:	00 00       	beq			
    2260:	20 00       	.word	0x0020;	????
    2262:	51 01       	.word	0x0151;	????
    2264:	00 00       	beq			
    2266:	00 00       	beq			
    2268:	c0 1f       	.word	0x1fc0;	????
    226a:	00 00       	beq			
    226c:	20 00       	.word	0x0020;	????
    226e:	54 01       	.word	0x0154;	????
    2270:	00 00       	beq			
    2272:	00 00       	beq			
    2274:	cd 1f       	.word	0x1fcd;	????
    2276:	00 00       	beq			
    2278:	20 00       	.word	0x0020;	????
    227a:	56 01       	.word	0x0156;	????
    227c:	00 00       	beq			
    227e:	00 00       	beq			
    2280:	db 1f       	.word	0x1fdb;	????
    2282:	00 00       	beq			
    2284:	20 00       	.word	0x0020;	????
    2286:	19 00       	.word	0x0019;	????
    2288:	00 00       	beq			
    228a:	00 00       	beq			
    228c:	e9 1f       	.word	0x1fe9;	????
    228e:	00 00       	beq			
    2290:	20 00       	.word	0x0020;	????
    2292:	1b 00       	.word	0x001b;	????
    2294:	00 00       	beq			
    2296:	00 00       	beq			
    2298:	f8 1f       	.word	0x1ff8;	????
    229a:	00 00       	beq			
    229c:	20 00       	.word	0x0020;	????
    229e:	1d 00       	.word	0x001d;	????
    22a0:	00 00       	beq			
    22a2:	00 00       	beq			
    22a4:	05 20       	jnz	$+12     	;abs 0x22b0
    22a6:	00 00       	beq			
    22a8:	20 00       	.word	0x0020;	????
    22aa:	20 00       	.word	0x0020;	????
    22ac:	00 00       	beq			
    22ae:	00 00       	beq			
    22b0:	16 20       	jnz	$+46     	;abs 0x22de
    22b2:	00 00       	beq			
    22b4:	20 00       	.word	0x0020;	????
    22b6:	22 00       	.word	0x0022;	????
    22b8:	00 00       	beq			
    22ba:	00 00       	beq			
    22bc:	27 20       	jnz	$+80     	;abs 0x230c
    22be:	00 00       	beq			
    22c0:	20 00       	.word	0x0020;	????
    22c2:	24 00       	.word	0x0024;	????
    22c4:	00 00       	beq			
    22c6:	00 00       	beq			
    22c8:	37 20       	jnz	$+112    	;abs 0x2338
    22ca:	00 00       	beq			
    22cc:	20 00       	.word	0x0020;	????
    22ce:	26 00       	.word	0x0026;	????
    22d0:	00 00       	beq			
    22d2:	00 00       	beq			
    22d4:	47 20       	jnz	$+144    	;abs 0x2364
    22d6:	00 00       	beq			
    22d8:	20 00       	.word	0x0020;	????
    22da:	46 00       	.word	0x0046;	????
    22dc:	00 00       	beq			
    22de:	00 00       	beq			
    22e0:	58 20       	jnz	$+178    	;abs 0x2392
    22e2:	00 00       	beq			
    22e4:	20 00       	.word	0x0020;	????
    22e6:	48 00       	.word	0x0048;	????
    22e8:	00 00       	beq			
    22ea:	00 00       	beq			
    22ec:	68 20       	jnz	$+210    	;abs 0x23be
    22ee:	00 00       	beq			
    22f0:	20 00       	.word	0x0020;	????
    22f2:	a0 00       	.word	0x00a0;	????
    22f4:	00 00       	beq			
    22f6:	00 00       	beq			
    22f8:	77 20       	jnz	$+240    	;abs 0x23e8
    22fa:	00 00       	beq			
    22fc:	20 00       	.word	0x0020;	????
    22fe:	16 00       	.word	0x0016;	????
    2300:	00 00       	beq			
    2302:	00 00       	beq			
    2304:	84 20       	jnz	$+266    	;abs 0x240e
    2306:	00 00       	beq			
    2308:	20 00       	.word	0x0020;	????
    230a:	18 00       	.word	0x0018;	????
    230c:	00 00       	beq			
    230e:	00 00       	beq			
    2310:	92 20       	jnz	$+294    	;abs 0x2436
    2312:	00 00       	beq			
    2314:	20 00       	.word	0x0020;	????
    2316:	1a 00       	.word	0x001a;	????
    2318:	00 00       	beq			
    231a:	00 00       	beq			
    231c:	9e 20       	jnz	$+318    	;abs 0x245a
    231e:	00 00       	beq			
    2320:	20 00       	.word	0x0020;	????
    2322:	1d 00       	.word	0x001d;	????
    2324:	00 00       	beq			
    2326:	00 00       	beq			
    2328:	ae 20       	jnz	$+350    	;abs 0x2486
    232a:	00 00       	beq			
    232c:	20 00       	.word	0x0020;	????
    232e:	1f 00       	.word	0x001f;	????
    2330:	00 00       	beq			
    2332:	00 00       	beq			
    2334:	be 20       	jnz	$+382    	;abs 0x24b2
    2336:	00 00       	beq			
    2338:	20 00       	.word	0x0020;	????
    233a:	21 00       	.word	0x0021;	????
    233c:	00 00       	beq			
    233e:	00 00       	beq			
    2340:	ce 20       	jnz	$+414    	;abs 0x24de
    2342:	00 00       	beq			
    2344:	20 00       	.word	0x0020;	????
    2346:	23 00       	.word	0x0023;	????
    2348:	00 00       	beq			
    234a:	00 00       	beq			
    234c:	dd 20       	jnz	$+444    	;abs 0x2508
    234e:	00 00       	beq			
    2350:	20 00       	.word	0x0020;	????
    2352:	25 00       	.word	0x0025;	????
    2354:	00 00       	beq			
    2356:	00 00       	beq			
    2358:	ec 20       	jnz	$+474    	;abs 0x2532
    235a:	00 00       	beq			
    235c:	20 00       	.word	0x0020;	????
    235e:	27 00       	.word	0x0027;	????
    2360:	00 00       	beq			
    2362:	00 00       	beq			
    2364:	fb 20       	jnz	$+504    	;abs 0x255c
    2366:	00 00       	beq			
    2368:	20 00       	.word	0x0020;	????
    236a:	2c 00       	.word	0x002c;	????
    236c:	00 00       	beq			
    236e:	00 00       	beq			
    2370:	0b 21       	jnz	$+536    	;abs 0x2588
    2372:	00 00       	beq			
    2374:	20 00       	.word	0x0020;	????
    2376:	2e 00       	.word	0x002e;	????
    2378:	00 00       	beq			
    237a:	00 00       	beq			
    237c:	1b 21       	jnz	$+568    	;abs 0x25b4
    237e:	00 00       	beq			
    2380:	20 00       	.word	0x0020;	????
    2382:	30 00       	.word	0x0030;	????
    2384:	00 00       	beq			
    2386:	00 00       	beq			
    2388:	2b 21       	jnz	$+600    	;abs 0x25e0
    238a:	00 00       	beq			
    238c:	20 00       	.word	0x0020;	????
    238e:	32 00       	.word	0x0032;	????
    2390:	00 00       	beq			
    2392:	00 00       	beq			
    2394:	3b 21       	jnz	$+632    	;abs 0x260c
    2396:	00 00       	beq			
    2398:	20 00       	.word	0x0020;	????
    239a:	34 00       	.word	0x0034;	????
    239c:	00 00       	beq			
    239e:	00 00       	beq			
    23a0:	4a 21       	jnz	$+662    	;abs 0x2636
    23a2:	00 00       	beq			
    23a4:	20 00       	.word	0x0020;	????
    23a6:	36 00       	.word	0x0036;	????
    23a8:	00 00       	beq			
    23aa:	00 00       	beq			
    23ac:	59 21       	jnz	$+692    	;abs 0x2660
    23ae:	00 00       	beq			
    23b0:	20 00       	.word	0x0020;	????
    23b2:	38 00       	.word	0x0038;	????
    23b4:	00 00       	beq			
    23b6:	00 00       	beq			
    23b8:	68 21       	jnz	$+722    	;abs 0x268a
    23ba:	00 00       	beq			
    23bc:	20 00       	.word	0x0020;	????
    23be:	3a 00       	.word	0x003a;	????
    23c0:	00 00       	beq			
    23c2:	00 00       	beq			
    23c4:	77 21       	jnz	$+752    	;abs 0x26b4
    23c6:	00 00       	beq			
    23c8:	20 00       	.word	0x0020;	????
    23ca:	7a 00       	.word	0x007a;	????
    23cc:	00 00       	beq			
    23ce:	00 00       	beq			
    23d0:	86 21       	jnz	$+782    	;abs 0x26de
    23d2:	00 00       	beq			
    23d4:	20 00       	.word	0x0020;	????
    23d6:	14 00       	.word	0x0014;	????
    23d8:	00 00       	beq			
    23da:	00 00       	beq			
    23dc:	94 21       	jnz	$+810    	;abs 0x2706
    23de:	00 00       	beq			
    23e0:	20 00       	.word	0x0020;	????
    23e2:	16 00       	.word	0x0016;	????
    23e4:	00 00       	beq			
    23e6:	00 00       	beq			
    23e8:	a3 21       	jnz	$+840    	;abs 0x2730
    23ea:	00 00       	beq			
    23ec:	20 00       	.word	0x0020;	????
    23ee:	18 00       	.word	0x0018;	????
    23f0:	00 00       	beq			
    23f2:	00 00       	beq			
    23f4:	b2 21       	jnz	$+870    	;abs 0x275a
    23f6:	00 00       	beq			
    23f8:	20 00       	.word	0x0020;	????
    23fa:	1b 00       	.word	0x001b;	????
    23fc:	00 00       	beq			
    23fe:	00 00       	beq			
    2400:	c1 21       	jnz	$+900    	;abs 0x2784
    2402:	00 00       	beq			
    2404:	20 00       	.word	0x0020;	????
    2406:	14 00       	.word	0x0014;	????
    2408:	00 00       	beq			
    240a:	00 00       	beq			
    240c:	cf 21       	jnz	$+928    	;abs 0x27ac
    240e:	00 00       	beq			
    2410:	20 00       	.word	0x0020;	????
    2412:	16 00       	.word	0x0016;	????
    2414:	00 00       	beq			
    2416:	00 00       	beq			
    2418:	dd 21       	jnz	$+956    	;abs 0x27d4
    241a:	00 00       	beq			
    241c:	20 00       	.word	0x0020;	????
    241e:	18 00       	.word	0x0018;	????
    2420:	00 00       	beq			
    2422:	00 00       	beq			
    2424:	eb 21       	jnz	$+984    	;abs 0x27fc
    2426:	00 00       	beq			
    2428:	20 00       	.word	0x0020;	????
    242a:	14 00       	.word	0x0014;	????
    242c:	00 00       	beq			
    242e:	00 00       	beq			
    2430:	f9 21       	jnz	$+1012   	;abs 0x2824
    2432:	00 00       	beq			
    2434:	20 00       	.word	0x0020;	????
    2436:	16 00       	.word	0x0016;	????
    2438:	00 00       	beq			
    243a:	00 00       	beq			
    243c:	07 22       	jnz	$-1008   	;abs 0x204c
    243e:	00 00       	beq			
    2440:	20 00       	.word	0x0020;	????
    2442:	18 00       	.word	0x0018;	????
    2444:	00 00       	beq			
    2446:	00 00       	beq			
    2448:	13 22       	jnz	$-984    	;abs 0x2070
    244a:	00 00       	beq			
    244c:	20 00       	.word	0x0020;	????
    244e:	12 00       	.word	0x0012;	????
    2450:	00 00       	beq			
    2452:	00 00       	beq			
    2454:	25 22       	jnz	$-948    	;abs 0x20a0
    2456:	00 00       	beq			
    2458:	20 00       	.word	0x0020;	????
    245a:	14 00       	.word	0x0014;	????
    245c:	00 00       	beq			
    245e:	00 00       	beq			
    2460:	37 22       	jnz	$-912    	;abs 0x20d0
    2462:	00 00       	beq			
    2464:	20 00       	.word	0x0020;	????
    2466:	16 00       	.word	0x0016;	????
    2468:	00 00       	beq			
    246a:	00 00       	beq			
    246c:	48 22       	jnz	$-878    	;abs 0x20fe
    246e:	00 00       	beq			
    2470:	20 00       	.word	0x0020;	????
    2472:	18 00       	.word	0x0018;	????
    2474:	00 00       	beq			
    2476:	00 00       	beq			
    2478:	58 22       	jnz	$-846    	;abs 0x212a
    247a:	00 00       	beq			
    247c:	20 00       	.word	0x0020;	????
    247e:	1a 00       	.word	0x001a;	????
    2480:	00 00       	beq			
    2482:	00 00       	beq			
    2484:	68 22       	jnz	$-814    	;abs 0x2156
    2486:	00 00       	beq			
    2488:	20 00       	.word	0x0020;	????
    248a:	58 00       	.word	0x0058;	????
    248c:	00 00       	beq			
    248e:	00 00       	beq			
    2490:	76 22       	jnz	$-786    	;abs 0x217e
    2492:	00 00       	beq			
    2494:	20 00       	.word	0x0020;	????
    2496:	64 00       	.word	0x0064;	????
    2498:	00 00       	beq			
    249a:	00 00       	beq			
    249c:	88 22       	jnz	$-750    	;abs 0x21ae
    249e:	00 00       	beq			
    24a0:	20 00       	.word	0x0020;	????
    24a2:	66 00       	.word	0x0066;	????
    24a4:	00 00       	beq			
    24a6:	00 00       	beq			
    24a8:	9a 22       	jnz	$-714    	;abs 0x21de
    24aa:	00 00       	beq			
    24ac:	20 00       	.word	0x0020;	????
    24ae:	68 00       	.word	0x0068;	????
    24b0:	00 00       	beq			
    24b2:	00 00       	beq			
    24b4:	ac 22       	jnz	$-678    	;abs 0x220e
    24b6:	00 00       	beq			
    24b8:	20 00       	.word	0x0020;	????
    24ba:	6a 00       	.word	0x006a;	????
    24bc:	00 00       	beq			
    24be:	00 00       	beq			
    24c0:	be 22       	jnz	$-642    	;abs 0x223e
    24c2:	00 00       	beq			
    24c4:	20 00       	.word	0x0020;	????
    24c6:	6c 00       	.word	0x006c;	????
    24c8:	00 00       	beq			
    24ca:	00 00       	beq			
    24cc:	d0 22       	jnz	$-606    	;abs 0x226e
    24ce:	00 00       	beq			
    24d0:	20 00       	.word	0x0020;	????
    24d2:	6e 00       	.word	0x006e;	????
    24d4:	00 00       	beq			
    24d6:	00 00       	beq			
    24d8:	e2 22       	jnz	$-570    	;abs 0x229e
    24da:	00 00       	beq			
    24dc:	20 00       	.word	0x0020;	????
    24de:	70 00       	.word	0x0070;	????
    24e0:	00 00       	beq			
    24e2:	00 00       	beq			
    24e4:	f4 22       	jnz	$-534    	;abs 0x22ce
    24e6:	00 00       	beq			
    24e8:	20 00       	.word	0x0020;	????
    24ea:	72 00       	.word	0x0072;	????
    24ec:	00 00       	beq			
    24ee:	00 00       	beq			
    24f0:	06 23       	jnz	$-498    	;abs 0x22fe
    24f2:	00 00       	beq			
    24f4:	20 00       	.word	0x0020;	????
    24f6:	74 00       	.word	0x0074;	????
    24f8:	00 00       	beq			
    24fa:	00 00       	beq			
    24fc:	18 23       	jnz	$-462    	;abs 0x232e
    24fe:	00 00       	beq			
    2500:	20 00       	.word	0x0020;	????
    2502:	76 00       	.word	0x0076;	????
    2504:	00 00       	beq			
    2506:	00 00       	beq			
    2508:	2a 23       	jnz	$-426    	;abs 0x235e
    250a:	00 00       	beq			
    250c:	20 00       	.word	0x0020;	????
    250e:	78 00       	.word	0x0078;	????
    2510:	00 00       	beq			
    2512:	00 00       	beq			
    2514:	3d 23       	jnz	$-388    	;abs 0x2390
    2516:	00 00       	beq			
    2518:	20 00       	.word	0x0020;	????
    251a:	7a 00       	.word	0x007a;	????
    251c:	00 00       	beq			
    251e:	00 00       	beq			
    2520:	50 23       	jnz	$-350    	;abs 0x23c2
    2522:	00 00       	beq			
    2524:	20 00       	.word	0x0020;	????
    2526:	7c 00       	.word	0x007c;	????
    2528:	00 00       	beq			
    252a:	00 00       	beq			
    252c:	63 23       	jnz	$-312    	;abs 0x23f4
    252e:	00 00       	beq			
    2530:	20 00       	.word	0x0020;	????
    2532:	7e 00       	.word	0x007e;	????
    2534:	00 00       	beq			
    2536:	00 00       	beq			
    2538:	76 23       	jnz	$-274    	;abs 0x2426
    253a:	00 00       	beq			
    253c:	20 00       	.word	0x0020;	????
    253e:	80 00       	.word	0x0080;	????
    2540:	00 00       	beq			
    2542:	00 00       	beq			
    2544:	89 23       	jnz	$-236    	;abs 0x2458
    2546:	00 00       	beq			
    2548:	20 00       	.word	0x0020;	????
    254a:	82 00       	.word	0x0082;	????
    254c:	00 00       	beq			
    254e:	00 00       	beq			
    2550:	9c 23       	jnz	$-198    	;abs 0x248a
    2552:	00 00       	beq			
    2554:	20 00       	.word	0x0020;	????
    2556:	8b 00       	.word	0x008b;	????
    2558:	00 00       	beq			
    255a:	00 00       	beq			
    255c:	ae 23       	jnz	$-162    	;abs 0x24ba
    255e:	00 00       	beq			
    2560:	20 00       	.word	0x0020;	????
    2562:	8d 00       	.word	0x008d;	????
    2564:	00 00       	beq			
    2566:	00 00       	beq			
    2568:	c0 23       	jnz	$-126    	;abs 0x24ea
    256a:	00 00       	beq			
    256c:	20 00       	.word	0x0020;	????
    256e:	8f 00       	.word	0x008f;	????
    2570:	00 00       	beq			
    2572:	00 00       	beq			
    2574:	d2 23       	jnz	$-90     	;abs 0x251a
    2576:	00 00       	beq			
    2578:	20 00       	.word	0x0020;	????
    257a:	91 00       	.word	0x0091;	????
    257c:	00 00       	beq			
    257e:	00 00       	beq			
    2580:	e4 23       	jnz	$-54     	;abs 0x254a
    2582:	00 00       	beq			
    2584:	20 00       	.word	0x0020;	????
    2586:	93 00       	.word	0x0093;	????
    2588:	00 00       	beq			
    258a:	00 00       	beq			
    258c:	f6 23       	jnz	$-18     	;abs 0x257a
    258e:	00 00       	beq			
    2590:	20 00       	.word	0x0020;	????
    2592:	95 00       	.word	0x0095;	????
    2594:	00 00       	beq			
    2596:	00 00       	beq			
    2598:	08 24       	jz	$+18     	;abs 0x25aa
    259a:	00 00       	beq			
    259c:	20 00       	.word	0x0020;	????
    259e:	97 00       	.word	0x0097;	????
    25a0:	00 00       	beq			
    25a2:	00 00       	beq			
    25a4:	1a 24       	jz	$+54     	;abs 0x25da
    25a6:	00 00       	beq			
    25a8:	20 00       	.word	0x0020;	????
    25aa:	99 00       	.word	0x0099;	????
    25ac:	00 00       	beq			
    25ae:	00 00       	beq			
    25b0:	2c 24       	jz	$+90     	;abs 0x260a
    25b2:	00 00       	beq			
    25b4:	20 00       	.word	0x0020;	????
    25b6:	9b 00       	.word	0x009b;	????
    25b8:	00 00       	beq			
    25ba:	00 00       	beq			
    25bc:	3e 24       	jz	$+126    	;abs 0x263a
    25be:	00 00       	beq			
    25c0:	20 00       	.word	0x0020;	????
    25c2:	9d 00       	.word	0x009d;	????
    25c4:	00 00       	beq			
    25c6:	00 00       	beq			
    25c8:	50 24       	jz	$+162    	;abs 0x266a
    25ca:	00 00       	beq			
    25cc:	20 00       	.word	0x0020;	????
    25ce:	9f 00       	.word	0x009f;	????
    25d0:	00 00       	beq			
    25d2:	00 00       	beq			
    25d4:	63 24       	jz	$+200    	;abs 0x269c
    25d6:	00 00       	beq			
    25d8:	20 00       	.word	0x0020;	????
    25da:	a1 00       	.word	0x00a1;	????
    25dc:	00 00       	beq			
    25de:	00 00       	beq			
    25e0:	76 24       	jz	$+238    	;abs 0x26ce
    25e2:	00 00       	beq			
    25e4:	20 00       	.word	0x0020;	????
    25e6:	a3 00       	.word	0x00a3;	????
    25e8:	00 00       	beq			
    25ea:	00 00       	beq			
    25ec:	89 24       	jz	$+276    	;abs 0x2700
    25ee:	00 00       	beq			
    25f0:	20 00       	.word	0x0020;	????
    25f2:	a5 00       	.word	0x00a5;	????
    25f4:	00 00       	beq			
    25f6:	00 00       	beq			
    25f8:	9c 24       	jz	$+314    	;abs 0x2732
    25fa:	00 00       	beq			
    25fc:	20 00       	.word	0x0020;	????
    25fe:	a7 00       	.word	0x00a7;	????
    2600:	00 00       	beq			
    2602:	00 00       	beq			
    2604:	af 24       	jz	$+352    	;abs 0x2764
    2606:	00 00       	beq			
    2608:	20 00       	.word	0x0020;	????
    260a:	a9 00       	.word	0x00a9;	????
    260c:	00 00       	beq			
    260e:	00 00       	beq			
    2610:	c2 24       	jz	$+390    	;abs 0x2796
    2612:	00 00       	beq			
    2614:	20 00       	.word	0x0020;	????
    2616:	12 00       	.word	0x0012;	????
    2618:	00 00       	beq			
    261a:	00 00       	beq			
    261c:	d5 24       	jz	$+428    	;abs 0x27c8
    261e:	00 00       	beq			
    2620:	20 00       	.word	0x0020;	????
    2622:	14 00       	.word	0x0014;	????
    2624:	00 00       	beq			
    2626:	00 00       	beq			
    2628:	e8 24       	jz	$+466    	;abs 0x27fa
    262a:	00 00       	beq			
    262c:	20 00       	.word	0x0020;	????
    262e:	16 00       	.word	0x0016;	????
    2630:	00 00       	beq			
    2632:	00 00       	beq			
    2634:	fb 24       	jz	$+504    	;abs 0x282c
    2636:	00 00       	beq			
    2638:	20 00       	.word	0x0020;	????
    263a:	18 00       	.word	0x0018;	????
    263c:	00 00       	beq			
    263e:	00 00       	beq			
    2640:	0e 25       	jz	$+542    	;abs 0x285e
    2642:	00 00       	beq			
    2644:	20 00       	.word	0x0020;	????
    2646:	12 00       	.word	0x0012;	????
    2648:	00 00       	beq			
    264a:	00 00       	beq			
    264c:	1e 25       	jz	$+574    	;abs 0x288a
    264e:	00 00       	beq			
    2650:	20 00       	.word	0x0020;	????
    2652:	14 00       	.word	0x0014;	????
    2654:	00 00       	beq			
    2656:	00 00       	beq			
    2658:	2e 25       	jz	$+606    	;abs 0x28b6
    265a:	00 00       	beq			
    265c:	20 00       	.word	0x0020;	????
    265e:	35 00       	.word	0x0035;	????
    2660:	00 00       	beq			
    2662:	00 00       	beq			
    2664:	3e 25       	jz	$+638    	;abs 0x28e2
    2666:	00 00       	beq			
    2668:	20 00       	.word	0x0020;	????
    266a:	37 00       	.word	0x0037;	????
    266c:	00 00       	beq			
    266e:	00 00       	beq			
    2670:	53 25       	jz	$+680    	;abs 0x2918
    2672:	00 00       	beq			
    2674:	20 00       	.word	0x0020;	????
    2676:	39 00       	.word	0x0039;	????
    2678:	00 00       	beq			
    267a:	00 00       	beq			
    267c:	63 25       	jz	$+712    	;abs 0x2944
    267e:	00 00       	beq			
    2680:	20 00       	.word	0x0020;	????
    2682:	3b 00       	.word	0x003b;	????
    2684:	00 00       	beq			
    2686:	00 00       	beq			
    2688:	71 25       	jz	$+740    	;abs 0x296c
    268a:	00 00       	beq			
    268c:	20 00       	.word	0x0020;	????
    268e:	3d 00       	.word	0x003d;	????
    2690:	00 00       	beq			
    2692:	00 00       	beq			
    2694:	81 25       	jz	$+772    	;abs 0x2998
    2696:	00 00       	beq			
    2698:	20 00       	.word	0x0020;	????
    269a:	3f 00       	.word	0x003f;	????
    269c:	00 00       	beq			
    269e:	00 00       	beq			
    26a0:	90 25       	jz	$+802    	;abs 0x29c2
    26a2:	00 00       	beq			
    26a4:	20 00       	.word	0x0020;	????
    26a6:	42 00       	.word	0x0042;	????
    26a8:	00 00       	beq			
    26aa:	00 00       	beq			
    26ac:	a0 25       	jz	$+834    	;abs 0x29ee
    26ae:	00 00       	beq			
    26b0:	20 00       	.word	0x0020;	????
    26b2:	44 00       	.word	0x0044;	????
    26b4:	00 00       	beq			
    26b6:	00 00       	beq			
    26b8:	ae 25       	jz	$+862    	;abs 0x2a16
    26ba:	00 00       	beq			
    26bc:	20 00       	.word	0x0020;	????
    26be:	46 00       	.word	0x0046;	????
    26c0:	00 00       	beq			
    26c2:	00 00       	beq			
    26c4:	be 25       	jz	$+894    	;abs 0x2a42
    26c6:	00 00       	beq			
    26c8:	20 00       	.word	0x0020;	????
    26ca:	48 00       	.word	0x0048;	????
    26cc:	00 00       	beq			
    26ce:	00 00       	beq			
    26d0:	cd 25       	jz	$+924    	;abs 0x2a6c
    26d2:	00 00       	beq			
    26d4:	20 00       	.word	0x0020;	????
    26d6:	4a 00       	.word	0x004a;	????
    26d8:	00 00       	beq			
    26da:	00 00       	beq			
    26dc:	dd 25       	jz	$+956    	;abs 0x2a98
    26de:	00 00       	beq			
    26e0:	20 00       	.word	0x0020;	????
    26e2:	4c 00       	.word	0x004c;	????
    26e4:	00 00       	beq			
    26e6:	00 00       	beq			
    26e8:	ec 25       	jz	$+986    	;abs 0x2ac2
    26ea:	00 00       	beq			
    26ec:	20 00       	.word	0x0020;	????
    26ee:	4f 00       	.word	0x004f;	????
    26f0:	00 00       	beq			
    26f2:	00 00       	beq			
    26f4:	fc 25       	jz	$+1018   	;abs 0x2aee
    26f6:	00 00       	beq			
    26f8:	20 00       	.word	0x0020;	????
    26fa:	51 00       	.word	0x0051;	????
    26fc:	00 00       	beq			
    26fe:	00 00       	beq			
    2700:	0a 26       	jz	$-1002   	;abs 0x2316
    2702:	00 00       	beq			
    2704:	20 00       	.word	0x0020;	????
    2706:	53 00       	.word	0x0053;	????
    2708:	00 00       	beq			
    270a:	00 00       	beq			
    270c:	1a 26       	jz	$-970    	;abs 0x2342
    270e:	00 00       	beq			
    2710:	20 00       	.word	0x0020;	????
    2712:	55 00       	.word	0x0055;	????
    2714:	00 00       	beq			
    2716:	00 00       	beq			
    2718:	28 26       	jz	$-942    	;abs 0x236a
    271a:	00 00       	beq			
    271c:	20 00       	.word	0x0020;	????
    271e:	57 00       	.word	0x0057;	????
    2720:	00 00       	beq			
    2722:	00 00       	beq			
    2724:	38 26       	jz	$-910    	;abs 0x2396
    2726:	00 00       	beq			
    2728:	20 00       	.word	0x0020;	????
    272a:	59 00       	.word	0x0059;	????
    272c:	00 00       	beq			
    272e:	00 00       	beq			
    2730:	47 26       	jz	$-880    	;abs 0x23c0
    2732:	00 00       	beq			
    2734:	20 00       	.word	0x0020;	????
    2736:	47 00       	.word	0x0047;	????
    2738:	00 00       	beq			
    273a:	00 00       	beq			
    273c:	56 26       	jz	$-850    	;abs 0x23ea
    273e:	00 00       	beq			
    2740:	20 00       	.word	0x0020;	????
    2742:	40 00       	.word	0x0040;	????
    2744:	00 00       	beq			
    2746:	00 00       	beq			
    2748:	61 26       	jz	$-828    	;abs 0x240c
    274a:	00 00       	beq			
    274c:	20 00       	.word	0x0020;	????
    274e:	47 00       	.word	0x0047;	????
    2750:	00 00       	beq			
    2752:	00 00       	beq			
    2754:	6d 26       	jz	$-804    	;abs 0x2430
    2756:	00 00       	beq			
    2758:	20 00       	.word	0x0020;	????
    275a:	4f 00       	.word	0x004f;	????
    275c:	00 00       	beq			
    275e:	00 00       	beq			
    2760:	78 26       	jz	$-782    	;abs 0x2452
    2762:	00 00       	beq			
    2764:	20 00       	.word	0x0020;	????
    2766:	57 00       	.word	0x0057;	????
    2768:	00 00       	beq			
    276a:	00 00       	beq			
    276c:	84 26       	jz	$-758    	;abs 0x2476
    276e:	00 00       	beq			
    2770:	20 00       	.word	0x0020;	????
    2772:	69 00       	.word	0x0069;	????
    2774:	00 00       	beq			
    2776:	00 00       	beq			
    2778:	99 26       	jz	$-716    	;abs 0x24ac
    277a:	00 00       	beq			
    277c:	20 00       	.word	0x0020;	????
    277e:	6b 00       	.word	0x006b;	????
    2780:	00 00       	beq			
    2782:	00 00       	beq			
    2784:	af 26       	jz	$-672    	;abs 0x24e4
    2786:	00 00       	beq			
    2788:	20 00       	.word	0x0020;	????
    278a:	6d 00       	.word	0x006d;	????
    278c:	00 00       	beq			
    278e:	00 00       	beq			
    2790:	c5 26       	jz	$-628    	;abs 0x251c
    2792:	00 00       	beq			
    2794:	20 00       	.word	0x0020;	????
    2796:	6f 00       	.word	0x006f;	????
    2798:	00 00       	beq			
    279a:	00 00       	beq			
    279c:	dc 26       	jz	$-582    	;abs 0x2556
    279e:	00 00       	beq			
    27a0:	20 00       	.word	0x0020;	????
    27a2:	71 00       	.word	0x0071;	????
    27a4:	00 00       	beq			
    27a6:	00 00       	beq			
    27a8:	f3 26       	jz	$-536    	;abs 0x2590
    27aa:	00 00       	beq			
    27ac:	20 00       	.word	0x0020;	????
    27ae:	8e 00       	.word	0x008e;	????
    27b0:	00 00       	beq			
    27b2:	00 00       	beq			
    27b4:	07 27       	jz	$-496    	;abs 0x25c4
    27b6:	00 00       	beq			
    27b8:	20 00       	.word	0x0020;	????
    27ba:	90 00       	.word	0x0090;	????
    27bc:	00 00       	beq			
    27be:	00 00       	beq			
    27c0:	1b 27       	jz	$-456    	;abs 0x25f8
    27c2:	00 00       	beq			
    27c4:	20 00       	.word	0x0020;	????
    27c6:	92 00       	.word	0x0092;	????
    27c8:	00 00       	beq			
    27ca:	00 00       	beq			
    27cc:	2f 27       	jz	$-416    	;abs 0x262c
    27ce:	00 00       	beq			
    27d0:	20 00       	.word	0x0020;	????
    27d2:	94 00       	.word	0x0094;	????
    27d4:	00 00       	beq			
    27d6:	00 00       	beq			
    27d8:	43 27       	jz	$-376    	;abs 0x2660
    27da:	00 00       	beq			
    27dc:	20 00       	.word	0x0020;	????
    27de:	96 00       	.word	0x0096;	????
    27e0:	00 00       	beq			
    27e2:	00 00       	beq			
    27e4:	56 27       	jz	$-338    	;abs 0x2692
    27e6:	00 00       	beq			
    27e8:	20 00       	.word	0x0020;	????
    27ea:	98 00       	.word	0x0098;	????
    27ec:	00 00       	beq			
    27ee:	00 00       	beq			
    27f0:	69 27       	jz	$-300    	;abs 0x26c4
    27f2:	00 00       	beq			
    27f4:	20 00       	.word	0x0020;	????
    27f6:	9a 00       	.word	0x009a;	????
    27f8:	00 00       	beq			
    27fa:	00 00       	beq			
    27fc:	7c 27       	jz	$-262    	;abs 0x26f6
    27fe:	00 00       	beq			
    2800:	20 00       	.word	0x0020;	????
    2802:	9c 00       	.word	0x009c;	????
    2804:	00 00       	beq			
    2806:	00 00       	beq			
    2808:	8f 27       	jz	$-224    	;abs 0x2728
    280a:	00 00       	beq			
    280c:	20 00       	.word	0x0020;	????
    280e:	32 00       	.word	0x0032;	????
	...
    2818:	64 00       	.word	0x0064;	????
    281a:	00 00       	beq			
    281c:	90 28       	jnc	$+290    	;abs 0x293e
    281e:	00 00       	beq			
    2820:	9d 27       	jz	$-196    	;abs 0x275c
    2822:	00 00       	beq			
    2824:	64 00       	.word	0x0064;	????
    2826:	00 00       	beq			
    2828:	90 28       	jnc	$+290    	;abs 0x294a
    282a:	00 00       	beq			
    282c:	ba 27       	jz	$-138    	;abs 0x27a2
    282e:	00 00       	beq			
    2830:	64 00       	.word	0x0064;	????
    2832:	00 00       	beq			
    2834:	90 28       	jnc	$+290    	;abs 0x2956
    2836:	00 00       	beq			
    2838:	5a 00       	.word	0x005a;	????
    283a:	00 00       	beq			
    283c:	3c 00       	.word	0x003c;	????
    283e:	00 00       	beq			
    2840:	00 00       	beq			
    2842:	00 00       	beq			
    2844:	69 00       	.word	0x0069;	????
    2846:	00 00       	beq			
    2848:	80 00       	.word	0x0080;	????
    284a:	00 00       	beq			
    284c:	00 00       	beq			
    284e:	00 00       	beq			
    2850:	89 00       	.word	0x0089;	????
    2852:	00 00       	beq			
    2854:	80 00       	.word	0x0080;	????
    2856:	00 00       	beq			
    2858:	00 00       	beq			
    285a:	00 00       	beq			
    285c:	a3 00       	.word	0x00a3;	????
    285e:	00 00       	beq			
    2860:	80 00       	.word	0x0080;	????
    2862:	00 00       	beq			
    2864:	00 00       	beq			
    2866:	00 00       	beq			
    2868:	dc 00       	.word	0x00dc;	????
    286a:	00 00       	beq			
    286c:	80 00       	.word	0x0080;	????
    286e:	00 00       	beq			
    2870:	00 00       	beq			
    2872:	00 00       	beq			
    2874:	14 01       	.word	0x0114;	????
    2876:	00 00       	beq			
    2878:	80 00       	.word	0x0080;	????
    287a:	00 00       	beq			
    287c:	00 00       	beq			
    287e:	00 00       	beq			
    2880:	56 01       	.word	0x0156;	????
    2882:	00 00       	beq			
    2884:	80 00       	.word	0x0080;	????
    2886:	00 00       	beq			
    2888:	00 00       	beq			
    288a:	00 00       	beq			
    288c:	a7 01       	.word	0x01a7;	????
    288e:	00 00       	beq			
    2890:	80 00       	.word	0x0080;	????
    2892:	00 00       	beq			
    2894:	00 00       	beq			
    2896:	00 00       	beq			
    2898:	f8 01       	.word	0x01f8;	????
    289a:	00 00       	beq			
    289c:	80 00       	.word	0x0080;	????
    289e:	00 00       	beq			
    28a0:	00 00       	beq			
    28a2:	00 00       	beq			
    28a4:	1e 02       	.word	0x021e;	????
    28a6:	00 00       	beq			
    28a8:	80 00       	.word	0x0080;	????
    28aa:	00 00       	beq			
    28ac:	00 00       	beq			
    28ae:	00 00       	beq			
    28b0:	5c 02       	.word	0x025c;	????
    28b2:	00 00       	beq			
    28b4:	80 00       	.word	0x0080;	????
    28b6:	00 00       	beq			
    28b8:	00 00       	beq			
    28ba:	00 00       	beq			
    28bc:	86 02       	.word	0x0286;	????
    28be:	00 00       	beq			
    28c0:	80 00       	.word	0x0080;	????
    28c2:	00 00       	beq			
    28c4:	00 00       	beq			
    28c6:	00 00       	beq			
    28c8:	af 02       	.word	0x02af;	????
    28ca:	00 00       	beq			
    28cc:	80 00       	.word	0x0080;	????
    28ce:	00 00       	beq			
    28d0:	00 00       	beq			
    28d2:	00 00       	beq			
    28d4:	c9 02       	.word	0x02c9;	????
    28d6:	00 00       	beq			
    28d8:	80 00       	.word	0x0080;	????
    28da:	00 00       	beq			
    28dc:	00 00       	beq			
    28de:	00 00       	beq			
    28e0:	e4 02       	.word	0x02e4;	????
    28e2:	00 00       	beq			
    28e4:	80 00       	.word	0x0080;	????
    28e6:	00 00       	beq			
    28e8:	00 00       	beq			
    28ea:	00 00       	beq			
    28ec:	04 03       	.word	0x0304;	????
    28ee:	00 00       	beq			
    28f0:	80 00       	.word	0x0080;	????
    28f2:	00 00       	beq			
    28f4:	00 00       	beq			
    28f6:	00 00       	beq			
    28f8:	3d 03       	.word	0x033d;	????
    28fa:	00 00       	beq			
    28fc:	80 00       	.word	0x0080;	????
    28fe:	00 00       	beq			
    2900:	00 00       	beq			
    2902:	00 00       	beq			
    2904:	5b 03       	.word	0x035b;	????
    2906:	00 00       	beq			
    2908:	80 00       	.word	0x0080;	????
    290a:	00 00       	beq			
    290c:	00 00       	beq			
    290e:	00 00       	beq			
    2910:	7a 03       	.word	0x037a;	????
    2912:	00 00       	beq			
    2914:	80 00       	.word	0x0080;	????
    2916:	00 00       	beq			
    2918:	00 00       	beq			
    291a:	00 00       	beq			
    291c:	9e 03       	.word	0x039e;	????
    291e:	00 00       	beq			
    2920:	80 00       	.word	0x0080;	????
    2922:	00 00       	beq			
    2924:	00 00       	beq			
    2926:	00 00       	beq			
    2928:	c7 03       	.word	0x03c7;	????
    292a:	00 00       	beq			
    292c:	80 00       	.word	0x0080;	????
    292e:	00 00       	beq			
    2930:	00 00       	beq			
    2932:	00 00       	beq			
    2934:	ba 27       	jz	$-138    	;abs 0x28aa
    2936:	00 00       	beq			
    2938:	82 00       	.word	0x0082;	????
    293a:	00 00       	beq			
    293c:	b0 38       	jl	$+354    	;abs 0x2a9e
    293e:	03 00       	.word	0x0003;	????
    2940:	de 03       	.word	0x03de;	????
    2942:	00 00       	beq			
    2944:	c2 00       	.word	0x00c2;	????
    2946:	00 00       	beq			
    2948:	00 00       	beq			
    294a:	00 00       	beq			
    294c:	ff 03       	.word	0x03ff;	????
    294e:	00 00       	beq			
    2950:	c2 00       	.word	0x00c2;	????
    2952:	00 00       	beq			
    2954:	13 10       	rrc	#1		;r3 As==01
    2956:	00 00       	beq			
    2958:	73 04       	.word	0x0473;	????
    295a:	00 00       	beq			
    295c:	c2 00       	.word	0x00c2;	????
    295e:	00 00       	beq			
    2960:	ea a9 00 00 	dadd.b	@r9,	0(r10)	;
    2964:	98 04       	.word	0x0498;	????
    2966:	00 00       	beq			
    2968:	c2 00       	.word	0x00c2;	????
    296a:	00 00       	beq			
    296c:	00 00       	beq			
    296e:	00 00       	beq			
    2970:	bd 04       	.word	0x04bd;	????
    2972:	00 00       	beq			
    2974:	c2 00       	.word	0x00c2;	????
    2976:	00 00       	beq			
    2978:	91 34       	jge	$+292    	;abs 0x2a9c
    297a:	00 00       	beq			
    297c:	82 08       	.word	0x0882;	????
    297e:	00 00       	beq			
    2980:	c2 00       	.word	0x00c2;	????
    2982:	00 00       	beq			
    2984:	76 0d       	.word	0x0d76;	????
    2986:	00 00       	beq			
    2988:	e8 08       	.word	0x08e8;	????
    298a:	00 00       	beq			
    298c:	c2 00       	.word	0x00c2;	????
    298e:	00 00       	beq			
    2990:	3c 1a       	.word	0x1a3c;	????
    2992:	00 00       	beq			
    2994:	ff 03       	.word	0x03ff;	????
    2996:	00 00       	beq			
    2998:	c2 00       	.word	0x00c2;	????
    299a:	00 00       	beq			
    299c:	00 00       	beq			
    299e:	00 00       	beq			
    29a0:	c4 27       	jz	$-118    	;abs 0x292a
    29a2:	00 00       	beq			
    29a4:	82 00       	.word	0x0082;	????
    29a6:	00 00       	beq			
    29a8:	00 00       	beq			
    29aa:	00 00       	beq			
    29ac:	c2 09       	.word	0x09c2;	????
    29ae:	00 00       	beq			
    29b0:	c2 00       	.word	0x00c2;	????
	...
    29ba:	00 00       	beq			
    29bc:	a2 00       	.word	0x00a2;	????
    29be:	00 00       	beq			
    29c0:	00 00       	beq			
    29c2:	00 00       	beq			
    29c4:	9b 09       	.word	0x099b;	????
    29c6:	00 00       	beq			
    29c8:	c2 00       	.word	0x00c2;	????
    29ca:	00 00       	beq			
    29cc:	00 00       	beq			
    29ce:	00 00       	beq			
    29d0:	e6 09       	.word	0x09e6;	????
    29d2:	00 00       	beq			
    29d4:	c2 00       	.word	0x00c2;	????
    29d6:	00 00       	beq			
    29d8:	00 00       	beq			
    29da:	00 00       	beq			
    29dc:	0c 0a       	.word	0x0a0c;	????
    29de:	00 00       	beq			
    29e0:	c2 00       	.word	0x00c2;	????
    29e2:	00 00       	beq			
    29e4:	00 00       	beq			
    29e6:	00 00       	beq			
    29e8:	33 0a       	.word	0x0a33;	????
    29ea:	00 00       	beq			
    29ec:	c2 00       	.word	0x00c2;	????
    29ee:	00 00       	beq			
    29f0:	8e 65 00 00 	addc	r5,	0(r14)	;
    29f4:	20 0c       	.word	0x0c20;	????
    29f6:	00 00       	beq			
    29f8:	c2 00       	.word	0x00c2;	????
    29fa:	00 00       	beq			
    29fc:	00 00       	beq			
    29fe:	00 00       	beq			
    2a00:	47 0c       	.word	0x0c47;	????
    2a02:	00 00       	beq			
    2a04:	c2 00       	.word	0x00c2;	????
    2a06:	00 00       	beq			
    2a08:	0c 8a       	sub	r10,	r12	;
    2a0a:	00 00       	beq			
    2a0c:	c9 0e       	.word	0x0ec9;	????
    2a0e:	00 00       	beq			
    2a10:	c2 00       	.word	0x00c2;	????
    2a12:	00 00       	beq			
    2a14:	90 a7 00 00 	dadd	0(r7),	0x11bc	; PC rel. 0x3bd4
    2a18:	bc 11 
    2a1a:	00 00       	beq			
    2a1c:	c2 00       	.word	0x00c2;	????
    2a1e:	00 00       	beq			
    2a20:	00 00       	beq			
    2a22:	00 00       	beq			
    2a24:	ea 11       	.word	0x11ea;	????
    2a26:	00 00       	beq			
    2a28:	c2 00       	.word	0x00c2;	????
    2a2a:	00 00       	beq			
    2a2c:	00 00       	beq			
    2a2e:	00 00       	beq			
    2a30:	12 12 00 00 	push	&0x0000		;
    2a34:	c2 00       	.word	0x00c2;	????
    2a36:	00 00       	beq			
    2a38:	00 00       	beq			
    2a3a:	00 00       	beq			
    2a3c:	3a 12       	push	@r10+		;
    2a3e:	00 00       	beq			
    2a40:	c2 00       	.word	0x00c2;	????
    2a42:	00 00       	beq			
    2a44:	0c af       	dadd	r15,	r12	;
    2a46:	00 00       	beq			
    2a48:	59 15       	.word	0x1559;	????
    2a4a:	00 00       	beq			
    2a4c:	c2 00       	.word	0x00c2;	????
    2a4e:	00 00       	beq			
    2a50:	00 00       	beq			
    2a52:	00 00       	beq			
    2a54:	81 15       	.word	0x1581;	????
    2a56:	00 00       	beq			
    2a58:	c2 00       	.word	0x00c2;	????
    2a5a:	00 00       	beq			
    2a5c:	00 00       	beq			
    2a5e:	00 00       	beq			
    2a60:	a7 15       	.word	0x15a7;	????
    2a62:	00 00       	beq			
    2a64:	c2 00       	.word	0x00c2;	????
    2a66:	00 00       	beq			
    2a68:	00 00       	beq			
    2a6a:	00 00       	beq			
    2a6c:	d0 15       	.word	0x15d0;	????
    2a6e:	00 00       	beq			
    2a70:	c2 00       	.word	0x00c2;	????
    2a72:	00 00       	beq			
    2a74:	00 00       	beq			
    2a76:	00 00       	beq			
    2a78:	e6 27       	jz	$-50     	;abs 0x2a46
    2a7a:	00 00       	beq			
    2a7c:	82 00       	.word	0x0082;	????
	...
    2a86:	00 00       	beq			
    2a88:	a2 00       	.word	0x00a2;	????
    2a8a:	00 00       	beq			
    2a8c:	00 00       	beq			
    2a8e:	00 00       	beq			
    2a90:	f5 27       	jz	$-20     	;abs 0x2a7c
    2a92:	00 00       	beq			
    2a94:	24 00       	.word	0x0024;	????
    2a96:	34 00       	.word	0x0034;	????
    2a98:	18 2b       	jnc	$-462    	;abs 0x28ca
    2a9a:	00 00       	beq			
    2a9c:	0b 28       	jnc	$+24     	;abs 0x2ab4
    2a9e:	00 00       	beq			
    2aa0:	40 00       	.word	0x0040;	????
    2aa2:	33 00       	.word	0x0033;	????
    2aa4:	0b 00       	.word	0x000b;	????
    2aa6:	00 00       	beq			
    2aa8:	00 00       	beq			
    2aaa:	00 00       	beq			
    2aac:	44 00       	.word	0x0044;	????
    2aae:	34 00       	.word	0x0034;	????
	...
    2ab8:	44 00       	.word	0x0044;	????
    2aba:	37 00       	.word	0x0037;	????
    2abc:	08 00       	.word	0x0008;	????
    2abe:	00 00       	beq			
    2ac0:	00 00       	beq			
    2ac2:	00 00       	beq			
    2ac4:	44 00       	.word	0x0044;	????
    2ac6:	38 00       	.word	0x0038;	????
    2ac8:	12 00       	.word	0x0012;	????
    2aca:	00 00       	beq			
    2acc:	00 00       	beq			
    2ace:	00 00       	beq			
    2ad0:	44 00       	.word	0x0044;	????
    2ad2:	39 00       	.word	0x0039;	????
    2ad4:	18 00       	.word	0x0018;	????
    2ad6:	00 00       	beq			
    2ad8:	00 00       	beq			
    2ada:	00 00       	beq			
    2adc:	44 00       	.word	0x0044;	????
    2ade:	3a 00       	.word	0x003a;	????
    2ae0:	1e 00       	.word	0x001e;	????
    2ae2:	00 00       	beq			
    2ae4:	00 00       	beq			
    2ae6:	00 00       	beq			
    2ae8:	44 00       	.word	0x0044;	????
    2aea:	3c 00       	.word	0x003c;	????
    2aec:	24 00       	.word	0x0024;	????
    2aee:	00 00       	beq			
    2af0:	00 00       	beq			
    2af2:	00 00       	beq			
    2af4:	44 00       	.word	0x0044;	????
    2af6:	3e 00       	.word	0x003e;	????
    2af8:	30 00       	.word	0x0030;	????
    2afa:	00 00       	beq			
    2afc:	00 00       	beq			
    2afe:	00 00       	beq			
    2b00:	44 00       	.word	0x0044;	????
    2b02:	3f 00       	.word	0x003f;	????
    2b04:	3e 00       	.word	0x003e;	????
    2b06:	00 00       	beq			
    2b08:	00 00       	beq			
    2b0a:	00 00       	beq			
    2b0c:	44 00       	.word	0x0044;	????
    2b0e:	40 00       	.word	0x0040;	????
    2b10:	44 00       	.word	0x0044;	????
    2b12:	00 00       	beq			
    2b14:	00 00       	beq			
    2b16:	00 00       	beq			
    2b18:	44 00       	.word	0x0044;	????
    2b1a:	3c 00       	.word	0x003c;	????
    2b1c:	4a 00       	.word	0x004a;	????
    2b1e:	00 00       	beq			
    2b20:	00 00       	beq			
    2b22:	00 00       	beq			
    2b24:	44 00       	.word	0x0044;	????
    2b26:	43 00       	.word	0x0043;	????
    2b28:	5a 00       	.word	0x005a;	????
    2b2a:	00 00       	beq			
    2b2c:	00 00       	beq			
    2b2e:	00 00       	beq			
    2b30:	44 00       	.word	0x0044;	????
    2b32:	44 00       	.word	0x0044;	????
    2b34:	60 00       	.word	0x0060;	????
    2b36:	00 00       	beq			
    2b38:	7b 18       	.word	0x187b;	????
    2b3a:	00 00       	beq			
    2b3c:	40 00       	.word	0x0040;	????
    2b3e:	35 00       	.word	0x0035;	????
    2b40:	0c 00       	.word	0x000c;	????
    2b42:	00 00       	beq			
    2b44:	00 00       	beq			
    2b46:	00 00       	beq			
    2b48:	c0 00       	.word	0x00c0;	????
    2b4a:	00 00       	beq			
    2b4c:	08 00       	.word	0x0008;	????
    2b4e:	00 00       	beq			
    2b50:	00 00       	beq			
    2b52:	00 00       	beq			
    2b54:	e0 00       	.word	0x00e0;	????
    2b56:	00 00       	beq			
    2b58:	60 00       	.word	0x0060;	????
    2b5a:	00 00       	beq			
    2b5c:	00 00       	beq			
    2b5e:	00 00       	beq			
    2b60:	24 00       	.word	0x0024;	????
    2b62:	00 00       	beq			
    2b64:	68 00       	.word	0x0068;	????
    2b66:	00 00       	beq			
    2b68:	17 28       	jnc	$+48     	;abs 0x2b98
    2b6a:	00 00       	beq			
    2b6c:	24 00       	.word	0x0024;	????
    2b6e:	4b 00       	.word	0x004b;	????
    2b70:	80 2b       	jnc	$-254    	;abs 0x2a72
    2b72:	00 00       	beq			
    2b74:	24 18       	.word	0x1824;	????
    2b76:	00 00       	beq			
    2b78:	40 00       	.word	0x0040;	????
    2b7a:	4a 00       	.word	0x004a;	????
    2b7c:	0b 00       	.word	0x000b;	????
    2b7e:	00 00       	beq			
    2b80:	00 00       	beq			
    2b82:	00 00       	beq			
    2b84:	44 00       	.word	0x0044;	????
    2b86:	4b 00       	.word	0x004b;	????
	...
    2b90:	44 00       	.word	0x0044;	????
    2b92:	4e 00       	.word	0x004e;	????
    2b94:	08 00       	.word	0x0008;	????
    2b96:	00 00       	beq			
    2b98:	00 00       	beq			
    2b9a:	00 00       	beq			
    2b9c:	44 00       	.word	0x0044;	????
    2b9e:	4f 00       	.word	0x004f;	????
    2ba0:	12 00       	.word	0x0012;	????
    2ba2:	00 00       	beq			
    2ba4:	00 00       	beq			
    2ba6:	00 00       	beq			
    2ba8:	44 00       	.word	0x0044;	????
    2baa:	50 00       	.word	0x0050;	????
    2bac:	18 00       	.word	0x0018;	????
    2bae:	00 00       	beq			
    2bb0:	00 00       	beq			
    2bb2:	00 00       	beq			
    2bb4:	44 00       	.word	0x0044;	????
    2bb6:	51 00       	.word	0x0051;	????
    2bb8:	1e 00       	.word	0x001e;	????
    2bba:	00 00       	beq			
    2bbc:	00 00       	beq			
    2bbe:	00 00       	beq			
    2bc0:	44 00       	.word	0x0044;	????
    2bc2:	53 00       	.word	0x0053;	????
    2bc4:	24 00       	.word	0x0024;	????
    2bc6:	00 00       	beq			
    2bc8:	00 00       	beq			
    2bca:	00 00       	beq			
    2bcc:	44 00       	.word	0x0044;	????
    2bce:	55 00       	.word	0x0055;	????
    2bd0:	30 00       	.word	0x0030;	????
    2bd2:	00 00       	beq			
    2bd4:	00 00       	beq			
    2bd6:	00 00       	beq			
    2bd8:	44 00       	.word	0x0044;	????
    2bda:	56 00       	.word	0x0056;	????
    2bdc:	3e 00       	.word	0x003e;	????
    2bde:	00 00       	beq			
    2be0:	00 00       	beq			
    2be2:	00 00       	beq			
    2be4:	44 00       	.word	0x0044;	????
    2be6:	57 00       	.word	0x0057;	????
    2be8:	44 00       	.word	0x0044;	????
    2bea:	00 00       	beq			
    2bec:	00 00       	beq			
    2bee:	00 00       	beq			
    2bf0:	44 00       	.word	0x0044;	????
    2bf2:	53 00       	.word	0x0053;	????
    2bf4:	4a 00       	.word	0x004a;	????
    2bf6:	00 00       	beq			
    2bf8:	00 00       	beq			
    2bfa:	00 00       	beq			
    2bfc:	44 00       	.word	0x0044;	????
    2bfe:	5a 00       	.word	0x005a;	????
    2c00:	5a 00       	.word	0x005a;	????
    2c02:	00 00       	beq			
    2c04:	00 00       	beq			
    2c06:	00 00       	beq			
    2c08:	44 00       	.word	0x0044;	????
    2c0a:	5b 00       	.word	0x005b;	????
    2c0c:	60 00       	.word	0x0060;	????
    2c0e:	00 00       	beq			
    2c10:	7b 18       	.word	0x187b;	????
    2c12:	00 00       	beq			
    2c14:	40 00       	.word	0x0040;	????
    2c16:	4c 00       	.word	0x004c;	????
    2c18:	0c 00       	.word	0x000c;	????
    2c1a:	00 00       	beq			
    2c1c:	00 00       	beq			
    2c1e:	00 00       	beq			
    2c20:	c0 00       	.word	0x00c0;	????
    2c22:	00 00       	beq			
    2c24:	08 00       	.word	0x0008;	????
    2c26:	00 00       	beq			
    2c28:	00 00       	beq			
    2c2a:	00 00       	beq			
    2c2c:	e0 00       	.word	0x00e0;	????
    2c2e:	00 00       	beq			
    2c30:	60 00       	.word	0x0060;	????
    2c32:	00 00       	beq			
    2c34:	00 00       	beq			
    2c36:	00 00       	beq			
    2c38:	24 00       	.word	0x0024;	????
    2c3a:	00 00       	beq			
    2c3c:	68 00       	.word	0x0068;	????
    2c3e:	00 00       	beq			
    2c40:	2a 28       	jnc	$+86     	;abs 0x2c96
    2c42:	00 00       	beq			
    2c44:	24 00       	.word	0x0024;	????
    2c46:	60 00       	.word	0x0060;	????
    2c48:	e8 2b       	jnc	$-46     	;abs 0x2c1a
    2c4a:	00 00       	beq			
    2c4c:	41 28       	jnc	$+132    	;abs 0x2cd0
    2c4e:	00 00       	beq			
    2c50:	40 00       	.word	0x0040;	????
    2c52:	5f 00       	.word	0x005f;	????
    2c54:	0a 00       	.word	0x000a;	????
    2c56:	00 00       	beq			
    2c58:	00 00       	beq			
    2c5a:	00 00       	beq			
    2c5c:	44 00       	.word	0x0044;	????
    2c5e:	60 00       	.word	0x0060;	????
	...
    2c68:	44 00       	.word	0x0044;	????
    2c6a:	63 00       	.word	0x0063;	????
    2c6c:	06 00       	.word	0x0006;	????
    2c6e:	00 00       	beq			
    2c70:	00 00       	beq			
    2c72:	00 00       	beq			
    2c74:	44 00       	.word	0x0044;	????
    2c76:	64 00       	.word	0x0064;	????
    2c78:	0e 00       	.word	0x000e;	????
    2c7a:	00 00       	beq			
    2c7c:	00 00       	beq			
    2c7e:	00 00       	beq			
    2c80:	44 00       	.word	0x0044;	????
    2c82:	65 00       	.word	0x0065;	????
    2c84:	16 00       	.word	0x0016;	????
    2c86:	00 00       	beq			
    2c88:	00 00       	beq			
    2c8a:	00 00       	beq			
    2c8c:	44 00       	.word	0x0044;	????
    2c8e:	66 00       	.word	0x0066;	????
    2c90:	1e 00       	.word	0x001e;	????
    2c92:	00 00       	beq			
    2c94:	00 00       	beq			
    2c96:	00 00       	beq			
    2c98:	44 00       	.word	0x0044;	????
    2c9a:	67 00       	.word	0x0067;	????
    2c9c:	26 00       	.word	0x0026;	????
    2c9e:	00 00       	beq			
    2ca0:	00 00       	beq			
    2ca2:	00 00       	beq			
    2ca4:	44 00       	.word	0x0044;	????
    2ca6:	68 00       	.word	0x0068;	????
    2ca8:	2e 00       	.word	0x002e;	????
    2caa:	00 00       	beq			
    2cac:	00 00       	beq			
    2cae:	00 00       	beq			
    2cb0:	44 00       	.word	0x0044;	????
    2cb2:	69 00       	.word	0x0069;	????
    2cb4:	36 00       	.word	0x0036;	????
    2cb6:	00 00       	beq			
    2cb8:	00 00       	beq			
    2cba:	00 00       	beq			
    2cbc:	44 00       	.word	0x0044;	????
    2cbe:	6c 00       	.word	0x006c;	????
    2cc0:	3c 00       	.word	0x003c;	????
    2cc2:	00 00       	beq			
    2cc4:	00 00       	beq			
    2cc6:	00 00       	beq			
    2cc8:	44 00       	.word	0x0044;	????
    2cca:	6e 00       	.word	0x006e;	????
    2ccc:	4c 00       	.word	0x004c;	????
    2cce:	00 00       	beq			
    2cd0:	00 00       	beq			
    2cd2:	00 00       	beq			
    2cd4:	44 00       	.word	0x0044;	????
    2cd6:	70 00       	.word	0x0070;	????
    2cd8:	5e 00       	.word	0x005e;	????
    2cda:	00 00       	beq			
    2cdc:	00 00       	beq			
    2cde:	00 00       	beq			
    2ce0:	44 00       	.word	0x0044;	????
    2ce2:	72 00       	.word	0x0072;	????
    2ce4:	66 00       	.word	0x0066;	????
    2ce6:	00 00       	beq			
    2ce8:	00 00       	beq			
    2cea:	00 00       	beq			
    2cec:	44 00       	.word	0x0044;	????
    2cee:	73 00       	.word	0x0073;	????
    2cf0:	6a 00       	.word	0x006a;	????
    2cf2:	00 00       	beq			
    2cf4:	00 00       	beq			
    2cf6:	00 00       	beq			
    2cf8:	44 00       	.word	0x0044;	????
    2cfa:	74 00       	.word	0x0074;	????
    2cfc:	6e 00       	.word	0x006e;	????
    2cfe:	00 00       	beq			
    2d00:	4f 28       	jnc	$+160    	;abs 0x2da0
    2d02:	00 00       	beq			
    2d04:	40 00       	.word	0x0040;	????
    2d06:	61 00       	.word	0x0061;	????
    2d08:	0b 00       	.word	0x000b;	????
    2d0a:	00 00       	beq			
    2d0c:	00 00       	beq			
    2d0e:	00 00       	beq			
    2d10:	c0 00       	.word	0x00c0;	????
    2d12:	00 00       	beq			
    2d14:	06 00       	.word	0x0006;	????
    2d16:	00 00       	beq			
    2d18:	00 00       	beq			
    2d1a:	00 00       	beq			
    2d1c:	e0 00       	.word	0x00e0;	????
    2d1e:	00 00       	beq			
    2d20:	6e 00       	.word	0x006e;	????
    2d22:	00 00       	beq			
    2d24:	00 00       	beq			
    2d26:	00 00       	beq			
    2d28:	24 00       	.word	0x0024;	????
    2d2a:	00 00       	beq			
    2d2c:	74 00       	.word	0x0074;	????
    2d2e:	00 00       	beq			
    2d30:	58 28       	jnc	$+178    	;abs 0x2de2
    2d32:	00 00       	beq			
    2d34:	24 00       	.word	0x0024;	????
    2d36:	77 00       	.word	0x0077;	????
    2d38:	5c 2c       	jc	$+186    	;abs 0x2df2
    2d3a:	00 00       	beq			
    2d3c:	71 28       	jnc	$+228    	;abs 0x2e20
    2d3e:	00 00       	beq			
    2d40:	40 00       	.word	0x0040;	????
    2d42:	76 00       	.word	0x0076;	????
    2d44:	0b 00       	.word	0x000b;	????
    2d46:	00 00       	beq			
    2d48:	00 00       	beq			
    2d4a:	00 00       	beq			
    2d4c:	44 00       	.word	0x0044;	????
    2d4e:	77 00       	.word	0x0077;	????
	...
    2d58:	44 00       	.word	0x0044;	????
    2d5a:	78 00       	.word	0x0078;	????
    2d5c:	04 00       	.word	0x0004;	????
    2d5e:	00 00       	beq			
    2d60:	00 00       	beq			
    2d62:	00 00       	beq			
    2d64:	44 00       	.word	0x0044;	????
    2d66:	79 00       	.word	0x0079;	????
    2d68:	0c 00       	.word	0x000c;	????
    2d6a:	00 00       	beq			
    2d6c:	00 00       	beq			
    2d6e:	00 00       	beq			
    2d70:	44 00       	.word	0x0044;	????
    2d72:	7a 00       	.word	0x007a;	????
    2d74:	12 00       	.word	0x0012;	????
    2d76:	00 00       	beq			
    2d78:	00 00       	beq			
    2d7a:	00 00       	beq			
    2d7c:	24 00       	.word	0x0024;	????
    2d7e:	00 00       	beq			
    2d80:	16 00       	.word	0x0016;	????
    2d82:	00 00       	beq			
    2d84:	7b 28       	jnc	$+248    	;abs 0x2e7c
    2d86:	00 00       	beq			
    2d88:	24 00       	.word	0x0024;	????
    2d8a:	7d 00       	.word	0x007d;	????
    2d8c:	72 2c       	jc	$+230    	;abs 0x2e72
    2d8e:	00 00       	beq			
    2d90:	00 00       	beq			
    2d92:	00 00       	beq			
    2d94:	44 00       	.word	0x0044;	????
    2d96:	7d 00       	.word	0x007d;	????
	...
    2da0:	44 00       	.word	0x0044;	????
    2da2:	80 00       	.word	0x0080;	????
    2da4:	02 00       	.word	0x0002;	????
    2da6:	00 00       	beq			
    2da8:	00 00       	beq			
    2daa:	00 00       	beq			
    2dac:	44 00       	.word	0x0044;	????
    2dae:	81 00       	.word	0x0081;	????
    2db0:	0a 00       	.word	0x000a;	????
    2db2:	00 00       	beq			
    2db4:	00 00       	beq			
    2db6:	00 00       	beq			
    2db8:	44 00       	.word	0x0044;	????
    2dba:	82 00       	.word	0x0082;	????
    2dbc:	12 00       	.word	0x0012;	????
    2dbe:	00 00       	beq			
    2dc0:	00 00       	beq			
    2dc2:	00 00       	beq			
    2dc4:	44 00       	.word	0x0044;	????
    2dc6:	85 00       	.word	0x0085;	????
    2dc8:	18 00       	.word	0x0018;	????
    2dca:	00 00       	beq			
    2dcc:	00 00       	beq			
    2dce:	00 00       	beq			
    2dd0:	44 00       	.word	0x0044;	????
    2dd2:	87 00       	.word	0x0087;	????
    2dd4:	28 00       	.word	0x0028;	????
    2dd6:	00 00       	beq			
    2dd8:	00 00       	beq			
    2dda:	00 00       	beq			
    2ddc:	44 00       	.word	0x0044;	????
    2dde:	88 00       	.word	0x0088;	????
    2de0:	2c 00       	.word	0x002c;	????
    2de2:	00 00       	beq			
    2de4:	00 00       	beq			
    2de6:	00 00       	beq			
    2de8:	44 00       	.word	0x0044;	????
    2dea:	89 00       	.word	0x0089;	????
    2dec:	30 00       	.word	0x0030;	????
    2dee:	00 00       	beq			
    2df0:	4f 28       	jnc	$+160    	;abs 0x2e90
    2df2:	00 00       	beq			
    2df4:	40 00       	.word	0x0040;	????
    2df6:	7e 00       	.word	0x007e;	????
    2df8:	0b 00       	.word	0x000b;	????
    2dfa:	00 00       	beq			
    2dfc:	00 00       	beq			
    2dfe:	00 00       	beq			
    2e00:	c0 00       	.word	0x00c0;	????
    2e02:	00 00       	beq			
    2e04:	02 00       	.word	0x0002;	????
    2e06:	00 00       	beq			
    2e08:	00 00       	beq			
    2e0a:	00 00       	beq			
    2e0c:	e0 00       	.word	0x00e0;	????
    2e0e:	00 00       	beq			
    2e10:	30 00       	.word	0x0030;	????
    2e12:	00 00       	beq			
    2e14:	00 00       	beq			
    2e16:	00 00       	beq			
    2e18:	24 00       	.word	0x0024;	????
    2e1a:	00 00       	beq			
    2e1c:	34 00       	.word	0x0034;	????
    2e1e:	00 00       	beq			
    2e20:	8e 28       	jnc	$+286    	;abs 0x2f3e
    2e22:	00 00       	beq			
    2e24:	24 00       	.word	0x0024;	????
    2e26:	8c 00       	.word	0x008c;	????
    2e28:	a6 2c       	jc	$+334    	;abs 0x2f76
    2e2a:	00 00       	beq			
    2e2c:	00 00       	beq			
    2e2e:	00 00       	beq			
    2e30:	44 00       	.word	0x0044;	????
    2e32:	8c 00       	.word	0x008c;	????
	...
    2e3c:	44 00       	.word	0x0044;	????
    2e3e:	8d 00       	.word	0x008d;	????
	...
    2e48:	44 00       	.word	0x0044;	????
    2e4a:	8e 00       	.word	0x008e;	????
    2e4c:	08 00       	.word	0x0008;	????
    2e4e:	00 00       	beq			
    2e50:	00 00       	beq			
    2e52:	00 00       	beq			
    2e54:	24 00       	.word	0x0024;	????
    2e56:	00 00       	beq			
    2e58:	0a 00       	.word	0x000a;	????
    2e5a:	00 00       	beq			
    2e5c:	9d 28       	jnc	$+316    	;abs 0x2f98
    2e5e:	00 00       	beq			
    2e60:	24 00       	.word	0x0024;	????
    2e62:	91 00       	.word	0x0091;	????
    2e64:	b0 2c       	jc	$+354    	;abs 0x2fc6
    2e66:	00 00       	beq			
    2e68:	00 00       	beq			
    2e6a:	00 00       	beq			
    2e6c:	44 00       	.word	0x0044;	????
    2e6e:	91 00       	.word	0x0091;	????
	...
    2e78:	44 00       	.word	0x0044;	????
    2e7a:	92 00       	.word	0x0092;	????
	...
    2e84:	44 00       	.word	0x0044;	????
    2e86:	93 00       	.word	0x0093;	????
    2e88:	08 00       	.word	0x0008;	????
    2e8a:	00 00       	beq			
    2e8c:	00 00       	beq			
    2e8e:	00 00       	beq			
    2e90:	24 00       	.word	0x0024;	????
    2e92:	00 00       	beq			
    2e94:	0a 00       	.word	0x000a;	????
    2e96:	00 00       	beq			
    2e98:	ad 28       	jnc	$+348    	;abs 0x2ff4
    2e9a:	00 00       	beq			
    2e9c:	24 00       	.word	0x0024;	????
    2e9e:	96 00       	.word	0x0096;	????
    2ea0:	ba 2c       	jc	$+374    	;abs 0x3016
    2ea2:	00 00       	beq			
    2ea4:	00 00       	beq			
    2ea6:	00 00       	beq			
    2ea8:	44 00       	.word	0x0044;	????
    2eaa:	96 00       	.word	0x0096;	????
	...
    2eb4:	44 00       	.word	0x0044;	????
    2eb6:	97 00       	.word	0x0097;	????
	...
    2ec0:	44 00       	.word	0x0044;	????
    2ec2:	98 00       	.word	0x0098;	????
    2ec4:	08 00       	.word	0x0008;	????
    2ec6:	00 00       	beq			
    2ec8:	00 00       	beq			
    2eca:	00 00       	beq			
    2ecc:	24 00       	.word	0x0024;	????
    2ece:	00 00       	beq			
    2ed0:	0a 00       	.word	0x000a;	????
    2ed2:	00 00       	beq			
    2ed4:	c1 28       	jnc	$+388    	;abs 0x3058
    2ed6:	00 00       	beq			
    2ed8:	24 00       	.word	0x0024;	????
    2eda:	9b 00       	.word	0x009b;	????
    2edc:	c4 2c       	jc	$+394    	;abs 0x3066
    2ede:	00 00       	beq			
    2ee0:	00 00       	beq			
    2ee2:	00 00       	beq			
    2ee4:	44 00       	.word	0x0044;	????
    2ee6:	9b 00       	.word	0x009b;	????
	...
    2ef0:	44 00       	.word	0x0044;	????
    2ef2:	9c 00       	.word	0x009c;	????
	...
    2efc:	44 00       	.word	0x0044;	????
    2efe:	9d 00       	.word	0x009d;	????
    2f00:	08 00       	.word	0x0008;	????
    2f02:	00 00       	beq			
    2f04:	00 00       	beq			
    2f06:	00 00       	beq			
    2f08:	24 00       	.word	0x0024;	????
    2f0a:	00 00       	beq			
    2f0c:	0a 00       	.word	0x000a;	????
    2f0e:	00 00       	beq			
    2f10:	d4 28       	jnc	$+426    	;abs 0x30ba
    2f12:	00 00       	beq			
    2f14:	24 00       	.word	0x0024;	????
    2f16:	a0 00       	.word	0x00a0;	????
    2f18:	ce 2c       	jc	$+414    	;abs 0x30b6
    2f1a:	00 00       	beq			
    2f1c:	00 00       	beq			
    2f1e:	00 00       	beq			
    2f20:	44 00       	.word	0x0044;	????
    2f22:	a0 00       	.word	0x00a0;	????
	...
    2f2c:	44 00       	.word	0x0044;	????
    2f2e:	a1 00       	.word	0x00a1;	????
	...
    2f38:	44 00       	.word	0x0044;	????
    2f3a:	a2 00       	.word	0x00a2;	????
    2f3c:	14 00       	.word	0x0014;	????
    2f3e:	00 00       	beq			
    2f40:	00 00       	beq			
    2f42:	00 00       	beq			
    2f44:	44 00       	.word	0x0044;	????
    2f46:	a3 00       	.word	0x00a3;	????
    2f48:	18 00       	.word	0x0018;	????
    2f4a:	00 00       	beq			
    2f4c:	00 00       	beq			
    2f4e:	00 00       	beq			
    2f50:	44 00       	.word	0x0044;	????
    2f52:	a4 00       	.word	0x00a4;	????
    2f54:	20 00       	.word	0x0020;	????
    2f56:	00 00       	beq			
    2f58:	00 00       	beq			
    2f5a:	00 00       	beq			
    2f5c:	44 00       	.word	0x0044;	????
    2f5e:	a5 00       	.word	0x00a5;	????
    2f60:	28 00       	.word	0x0028;	????
    2f62:	00 00       	beq			
    2f64:	00 00       	beq			
    2f66:	00 00       	beq			
    2f68:	44 00       	.word	0x0044;	????
    2f6a:	a6 00       	.word	0x00a6;	????
    2f6c:	2e 00       	.word	0x002e;	????
    2f6e:	00 00       	beq			
    2f70:	00 00       	beq			
    2f72:	00 00       	beq			
    2f74:	24 00       	.word	0x0024;	????
    2f76:	00 00       	beq			
    2f78:	30 00       	.word	0x0030;	????
    2f7a:	00 00       	beq			
    2f7c:	e8 28       	jnc	$+466    	;abs 0x314e
    2f7e:	00 00       	beq			
    2f80:	24 00       	.word	0x0024;	????
    2f82:	a9 00       	.word	0x00a9;	????
    2f84:	fe 2c       	jc	$+510    	;abs 0x3182
    2f86:	00 00       	beq			
    2f88:	f9 28       	jnc	$+500    	;abs 0x317c
    2f8a:	00 00       	beq			
    2f8c:	40 00       	.word	0x0040;	????
    2f8e:	a8 00       	.word	0x00a8;	????
    2f90:	0f 00       	.word	0x000f;	????
    2f92:	00 00       	beq			
    2f94:	03 29       	jnc	$+520    	;abs 0x319c
    2f96:	00 00       	beq			
    2f98:	40 00       	.word	0x0040;	????
    2f9a:	a8 00       	.word	0x00a8;	????
    2f9c:	0e 00       	.word	0x000e;	????
    2f9e:	00 00       	beq			
    2fa0:	00 00       	beq			
    2fa2:	00 00       	beq			
    2fa4:	44 00       	.word	0x0044;	????
    2fa6:	a9 00       	.word	0x00a9;	????
	...
    2fb0:	44 00       	.word	0x0044;	????
    2fb2:	ac 00       	.word	0x00ac;	????
    2fb4:	02 00       	.word	0x0002;	????
    2fb6:	00 00       	beq			
    2fb8:	00 00       	beq			
    2fba:	00 00       	beq			
    2fbc:	44 00       	.word	0x0044;	????
    2fbe:	ad 00       	.word	0x00ad;	????
    2fc0:	0a 00       	.word	0x000a;	????
    2fc2:	00 00       	beq			
    2fc4:	00 00       	beq			
    2fc6:	00 00       	beq			
    2fc8:	44 00       	.word	0x0044;	????
    2fca:	af 00       	.word	0x00af;	????
    2fcc:	10 00       	.word	0x0010;	????
    2fce:	00 00       	beq			
    2fd0:	00 00       	beq			
    2fd2:	00 00       	beq			
    2fd4:	44 00       	.word	0x0044;	????
    2fd6:	b0 00       	.word	0x00b0;	????
    2fd8:	14 00       	.word	0x0014;	????
    2fda:	00 00       	beq			
    2fdc:	00 00       	beq			
    2fde:	00 00       	beq			
    2fe0:	44 00       	.word	0x0044;	????
    2fe2:	b2 00       	.word	0x00b2;	????
    2fe4:	18 00       	.word	0x0018;	????
    2fe6:	00 00       	beq			
    2fe8:	00 00       	beq			
    2fea:	00 00       	beq			
    2fec:	44 00       	.word	0x0044;	????
    2fee:	b3 00       	.word	0x00b3;	????
    2ff0:	22 00       	.word	0x0022;	????
    2ff2:	00 00       	beq			
    2ff4:	00 00       	beq			
    2ff6:	00 00       	beq			
    2ff8:	44 00       	.word	0x0044;	????
    2ffa:	b4 00       	.word	0x00b4;	????
    2ffc:	32 00       	.word	0x0032;	????
    2ffe:	00 00       	beq			
    3000:	00 00       	beq			
    3002:	00 00       	beq			
    3004:	44 00       	.word	0x0044;	????
    3006:	b5 00       	.word	0x00b5;	????
    3008:	46 00       	.word	0x0046;	????
    300a:	00 00       	beq			
    300c:	00 00       	beq			
    300e:	00 00       	beq			
    3010:	44 00       	.word	0x0044;	????
    3012:	b6 00       	.word	0x00b6;	????
    3014:	50 00       	.word	0x0050;	????
    3016:	00 00       	beq			
    3018:	0d 29       	jnc	$+540    	;abs 0x3234
    301a:	00 00       	beq			
    301c:	40 00       	.word	0x0040;	????
    301e:	aa 00       	.word	0x00aa;	????
    3020:	0b 00       	.word	0x000b;	????
    3022:	00 00       	beq			
    3024:	00 00       	beq			
    3026:	00 00       	beq			
    3028:	c0 00       	.word	0x00c0;	????
    302a:	00 00       	beq			
    302c:	02 00       	.word	0x0002;	????
    302e:	00 00       	beq			
    3030:	00 00       	beq			
    3032:	00 00       	beq			
    3034:	e0 00       	.word	0x00e0;	????
    3036:	00 00       	beq			
    3038:	50 00       	.word	0x0050;	????
    303a:	00 00       	beq			
    303c:	00 00       	beq			
    303e:	00 00       	beq			
    3040:	24 00       	.word	0x0024;	????
    3042:	00 00       	beq			
    3044:	54 00       	.word	0x0054;	????
    3046:	00 00       	beq			
    3048:	17 29       	jnc	$+560    	;abs 0x3278
    304a:	00 00       	beq			
    304c:	24 00       	.word	0x0024;	????
    304e:	b9 00       	.word	0x00b9;	????
    3050:	52 2d       	jc	$+678    	;abs 0x32f6
    3052:	00 00       	beq			
    3054:	2a 29       	jnc	$+598    	;abs 0x32aa
    3056:	00 00       	beq			
    3058:	40 00       	.word	0x0040;	????
    305a:	b8 00       	.word	0x00b8;	????
    305c:	0f 00       	.word	0x000f;	????
    305e:	00 00       	beq			
    3060:	00 00       	beq			
    3062:	00 00       	beq			
    3064:	44 00       	.word	0x0044;	????
    3066:	b9 00       	.word	0x00b9;	????
	...
    3070:	44 00       	.word	0x0044;	????
    3072:	bd 00       	.word	0x00bd;	????
    3074:	04 00       	.word	0x0004;	????
    3076:	00 00       	beq			
    3078:	00 00       	beq			
    307a:	00 00       	beq			
    307c:	44 00       	.word	0x0044;	????
    307e:	be 00       	.word	0x00be;	????
    3080:	10 00       	.word	0x0010;	????
    3082:	00 00       	beq			
    3084:	00 00       	beq			
    3086:	00 00       	beq			
    3088:	44 00       	.word	0x0044;	????
    308a:	c0 00       	.word	0x00c0;	????
    308c:	16 00       	.word	0x0016;	????
    308e:	00 00       	beq			
    3090:	00 00       	beq			
    3092:	00 00       	beq			
    3094:	44 00       	.word	0x0044;	????
    3096:	c1 00       	.word	0x00c1;	????
    3098:	1a 00       	.word	0x001a;	????
    309a:	00 00       	beq			
    309c:	00 00       	beq			
    309e:	00 00       	beq			
    30a0:	44 00       	.word	0x0044;	????
    30a2:	be 00       	.word	0x00be;	????
    30a4:	1e 00       	.word	0x001e;	????
    30a6:	00 00       	beq			
    30a8:	00 00       	beq			
    30aa:	00 00       	beq			
    30ac:	44 00       	.word	0x0044;	????
    30ae:	c4 00       	.word	0x00c4;	????
    30b0:	26 00       	.word	0x0026;	????
    30b2:	00 00       	beq			
    30b4:	00 00       	beq			
    30b6:	00 00       	beq			
    30b8:	44 00       	.word	0x0044;	????
    30ba:	c5 00       	.word	0x00c5;	????
    30bc:	2c 00       	.word	0x002c;	????
    30be:	00 00       	beq			
    30c0:	7b 18       	.word	0x187b;	????
    30c2:	00 00       	beq			
    30c4:	40 00       	.word	0x0040;	????
    30c6:	bb 00       	.word	0x00bb;	????
    30c8:	0a 00       	.word	0x000a;	????
    30ca:	00 00       	beq			
    30cc:	b2 16       	.word	0x16b2;	????
    30ce:	00 00       	beq			
    30d0:	40 00       	.word	0x0040;	????
    30d2:	bb 00       	.word	0x00bb;	????
    30d4:	0f 00       	.word	0x000f;	????
    30d6:	00 00       	beq			
    30d8:	00 00       	beq			
    30da:	00 00       	beq			
    30dc:	c0 00       	.word	0x00c0;	????
    30de:	00 00       	beq			
    30e0:	04 00       	.word	0x0004;	????
    30e2:	00 00       	beq			
    30e4:	00 00       	beq			
    30e6:	00 00       	beq			
    30e8:	e0 00       	.word	0x00e0;	????
    30ea:	00 00       	beq			
    30ec:	2c 00       	.word	0x002c;	????
    30ee:	00 00       	beq			
    30f0:	00 00       	beq			
    30f2:	00 00       	beq			
    30f4:	24 00       	.word	0x0024;	????
    30f6:	00 00       	beq			
    30f8:	32 00       	.word	0x0032;	????
    30fa:	00 00       	beq			
    30fc:	34 29       	jnc	$+618    	;abs 0x3366
    30fe:	00 00       	beq			
    3100:	24 00       	.word	0x0024;	????
    3102:	c8 00       	.word	0x00c8;	????
    3104:	84 2d       	jc	$+778    	;abs 0x340e
    3106:	00 00       	beq			
    3108:	2a 29       	jnc	$+598    	;abs 0x335e
    310a:	00 00       	beq			
    310c:	40 00       	.word	0x0040;	????
    310e:	c7 00       	.word	0x00c7;	????
    3110:	0b 00       	.word	0x000b;	????
    3112:	00 00       	beq			
    3114:	00 00       	beq			
    3116:	00 00       	beq			
    3118:	44 00       	.word	0x0044;	????
    311a:	c8 00       	.word	0x00c8;	????
	...
    3124:	44 00       	.word	0x0044;	????
    3126:	c9 00       	.word	0x00c9;	????
    3128:	04 00       	.word	0x0004;	????
    312a:	00 00       	beq			
    312c:	00 00       	beq			
    312e:	00 00       	beq			
    3130:	44 00       	.word	0x0044;	????
    3132:	d0 00       	.word	0x00d0;	????
    3134:	12 00       	.word	0x0012;	????
    3136:	00 00       	beq			
    3138:	00 00       	beq			
    313a:	00 00       	beq			
    313c:	44 00       	.word	0x0044;	????
    313e:	d3 00       	.word	0x00d3;	????
    3140:	28 00       	.word	0x0028;	????
    3142:	00 00       	beq			
    3144:	00 00       	beq			
    3146:	00 00       	beq			
    3148:	44 00       	.word	0x0044;	????
    314a:	d4 00       	.word	0x00d4;	????
    314c:	2c 00       	.word	0x002c;	????
    314e:	00 00       	beq			
    3150:	00 00       	beq			
    3152:	00 00       	beq			
    3154:	44 00       	.word	0x0044;	????
    3156:	d5 00       	.word	0x00d5;	????
    3158:	32 00       	.word	0x0032;	????
    315a:	00 00       	beq			
    315c:	00 00       	beq			
    315e:	00 00       	beq			
    3160:	44 00       	.word	0x0044;	????
    3162:	cb 00       	.word	0x00cb;	????
    3164:	38 00       	.word	0x0038;	????
    3166:	00 00       	beq			
    3168:	00 00       	beq			
    316a:	00 00       	beq			
    316c:	44 00       	.word	0x0044;	????
    316e:	cc 00       	.word	0x00cc;	????
    3170:	3c 00       	.word	0x003c;	????
    3172:	00 00       	beq			
    3174:	00 00       	beq			
    3176:	00 00       	beq			
    3178:	44 00       	.word	0x0044;	????
    317a:	cd 00       	.word	0x00cd;	????
    317c:	3e 00       	.word	0x003e;	????
    317e:	00 00       	beq			
    3180:	00 00       	beq			
    3182:	00 00       	beq			
    3184:	44 00       	.word	0x0044;	????
    3186:	ce 00       	.word	0x00ce;	????
    3188:	42 00       	.word	0x0042;	????
    318a:	00 00       	beq			
    318c:	00 00       	beq			
    318e:	00 00       	beq			
    3190:	44 00       	.word	0x0044;	????
    3192:	d8 00       	.word	0x00d8;	????
    3194:	4c 00       	.word	0x004c;	????
    3196:	00 00       	beq			
    3198:	00 00       	beq			
    319a:	00 00       	beq			
    319c:	24 00       	.word	0x0024;	????
    319e:	00 00       	beq			
    31a0:	50 00       	.word	0x0050;	????
    31a2:	00 00       	beq			
    31a4:	48 29       	jnc	$+658    	;abs 0x3436
    31a6:	00 00       	beq			
    31a8:	24 00       	.word	0x0024;	????
    31aa:	db 00       	.word	0x00db;	????
    31ac:	d4 2d       	jc	$+938    	;abs 0x3556
    31ae:	00 00       	beq			
    31b0:	5c 29       	jnc	$+698    	;abs 0x346a
    31b2:	00 00       	beq			
    31b4:	40 00       	.word	0x0040;	????
    31b6:	da 00       	.word	0x00da;	????
    31b8:	0a 00       	.word	0x000a;	????
    31ba:	00 00       	beq			
    31bc:	00 00       	beq			
    31be:	00 00       	beq			
    31c0:	44 00       	.word	0x0044;	????
    31c2:	db 00       	.word	0x00db;	????
	...
    31cc:	44 00       	.word	0x0044;	????
    31ce:	de 00       	.word	0x00de;	????
    31d0:	06 00       	.word	0x0006;	????
    31d2:	00 00       	beq			
    31d4:	00 00       	beq			
    31d6:	00 00       	beq			
    31d8:	44 00       	.word	0x0044;	????
    31da:	df 00       	.word	0x00df;	????
    31dc:	1a 00       	.word	0x001a;	????
    31de:	00 00       	beq			
    31e0:	4f 28       	jnc	$+160    	;abs 0x3280
    31e2:	00 00       	beq			
    31e4:	40 00       	.word	0x0040;	????
    31e6:	dc 00       	.word	0x00dc;	????
    31e8:	0b 00       	.word	0x000b;	????
    31ea:	00 00       	beq			
    31ec:	00 00       	beq			
    31ee:	00 00       	beq			
    31f0:	c0 00       	.word	0x00c0;	????
    31f2:	00 00       	beq			
    31f4:	06 00       	.word	0x0006;	????
    31f6:	00 00       	beq			
    31f8:	00 00       	beq			
    31fa:	00 00       	beq			
    31fc:	e0 00       	.word	0x00e0;	????
    31fe:	00 00       	beq			
    3200:	1a 00       	.word	0x001a;	????
    3202:	00 00       	beq			
    3204:	00 00       	beq			
    3206:	00 00       	beq			
    3208:	24 00       	.word	0x0024;	????
    320a:	00 00       	beq			
    320c:	20 00       	.word	0x0020;	????
    320e:	00 00       	beq			
    3210:	74 29       	jnc	$+746    	;abs 0x34fa
    3212:	00 00       	beq			
    3214:	20 00       	.word	0x0020;	????
    3216:	12 00       	.word	0x0012;	????
    3218:	00 00       	beq			
    321a:	00 00       	beq			
    321c:	80 29       	jnc	$+770    	;abs 0x351e
    321e:	00 00       	beq			
    3220:	20 00       	.word	0x0020;	????
    3222:	14 00       	.word	0x0014;	????
    3224:	00 00       	beq			
    3226:	00 00       	beq			
    3228:	8d 29       	jnc	$+796    	;abs 0x3544
    322a:	00 00       	beq			
    322c:	20 00       	.word	0x0020;	????
    322e:	16 00       	.word	0x0016;	????
    3230:	00 00       	beq			
    3232:	00 00       	beq			
    3234:	99 29       	jnc	$+820    	;abs 0x3568
    3236:	00 00       	beq			
    3238:	20 00       	.word	0x0020;	????
    323a:	18 00       	.word	0x0018;	????
    323c:	00 00       	beq			
    323e:	00 00       	beq			
    3240:	a6 29       	jnc	$+846    	;abs 0x358e
    3242:	00 00       	beq			
    3244:	20 00       	.word	0x0020;	????
    3246:	1a 00       	.word	0x001a;	????
    3248:	00 00       	beq			
    324a:	00 00       	beq			
    324c:	b2 29       	jnc	$+870    	;abs 0x35b2
    324e:	00 00       	beq			
    3250:	20 00       	.word	0x0020;	????
    3252:	1c 00       	.word	0x001c;	????
    3254:	00 00       	beq			
    3256:	00 00       	beq			
    3258:	c0 29       	jnc	$+898    	;abs 0x35da
    325a:	00 00       	beq			
    325c:	20 00       	.word	0x0020;	????
    325e:	1e 00       	.word	0x001e;	????
    3260:	00 00       	beq			
    3262:	00 00       	beq			
    3264:	ce 29       	jnc	$+926    	;abs 0x3602
    3266:	00 00       	beq			
    3268:	20 00       	.word	0x0020;	????
    326a:	20 00       	.word	0x0020;	????
    326c:	00 00       	beq			
    326e:	00 00       	beq			
    3270:	dd 29       	jnc	$+956    	;abs 0x362c
    3272:	00 00       	beq			
    3274:	20 00       	.word	0x0020;	????
    3276:	88 00       	.word	0x0088;	????
    3278:	00 00       	beq			
    327a:	00 00       	beq			
    327c:	eb 29       	jnc	$+984    	;abs 0x3654
    327e:	00 00       	beq			
    3280:	20 00       	.word	0x0020;	????
    3282:	8c 00       	.word	0x008c;	????
    3284:	00 00       	beq			
    3286:	00 00       	beq			
    3288:	f9 29       	jnc	$+1012   	;abs 0x367c
    328a:	00 00       	beq			
    328c:	20 00       	.word	0x0020;	????
    328e:	90 00       	.word	0x0090;	????
    3290:	00 00       	beq			
    3292:	00 00       	beq			
    3294:	07 2a       	jnc	$-1008   	;abs 0x2ea4
    3296:	00 00       	beq			
    3298:	20 00       	.word	0x0020;	????
    329a:	94 00       	.word	0x0094;	????
    329c:	00 00       	beq			
    329e:	00 00       	beq			
    32a0:	15 2a       	jnc	$-980    	;abs 0x2ecc
    32a2:	00 00       	beq			
    32a4:	20 00       	.word	0x0020;	????
    32a6:	98 00       	.word	0x0098;	????
    32a8:	00 00       	beq			
    32aa:	00 00       	beq			
    32ac:	23 2a       	jnc	$-952    	;abs 0x2ef4
    32ae:	00 00       	beq			
    32b0:	20 00       	.word	0x0020;	????
    32b2:	9c 00       	.word	0x009c;	????
    32b4:	00 00       	beq			
    32b6:	00 00       	beq			
    32b8:	31 2a       	jnc	$-924    	;abs 0x2f1c
    32ba:	00 00       	beq			
    32bc:	20 00       	.word	0x0020;	????
    32be:	72 00       	.word	0x0072;	????
    32c0:	00 00       	beq			
    32c2:	00 00       	beq			
    32c4:	45 2a       	jnc	$-884    	;abs 0x2f50
    32c6:	00 00       	beq			
    32c8:	20 00       	.word	0x0020;	????
    32ca:	74 00       	.word	0x0074;	????
    32cc:	00 00       	beq			
    32ce:	00 00       	beq			
    32d0:	52 2a       	jnc	$-858    	;abs 0x2f76
    32d2:	00 00       	beq			
    32d4:	20 00       	.word	0x0020;	????
    32d6:	76 00       	.word	0x0076;	????
    32d8:	00 00       	beq			
    32da:	00 00       	beq			
    32dc:	5f 2a       	jnc	$-832    	;abs 0x2f9c
    32de:	00 00       	beq			
    32e0:	20 00       	.word	0x0020;	????
    32e2:	78 00       	.word	0x0078;	????
    32e4:	00 00       	beq			
    32e6:	00 00       	beq			
    32e8:	6c 2a       	jnc	$-806    	;abs 0x2fc2
    32ea:	00 00       	beq			
    32ec:	20 00       	.word	0x0020;	????
    32ee:	7a 00       	.word	0x007a;	????
    32f0:	00 00       	beq			
    32f2:	00 00       	beq			
    32f4:	79 2a       	jnc	$-780    	;abs 0x2fe8
    32f6:	00 00       	beq			
    32f8:	20 00       	.word	0x0020;	????
    32fa:	7c 00       	.word	0x007c;	????
    32fc:	00 00       	beq			
    32fe:	00 00       	beq			
    3300:	85 2a       	jnc	$-756    	;abs 0x300c
    3302:	00 00       	beq			
    3304:	20 00       	.word	0x0020;	????
    3306:	7e 00       	.word	0x007e;	????
    3308:	00 00       	beq			
    330a:	00 00       	beq			
    330c:	92 2a       	jnc	$-730    	;abs 0x3032
    330e:	00 00       	beq			
    3310:	20 00       	.word	0x0020;	????
    3312:	81 00       	.word	0x0081;	????
    3314:	00 00       	beq			
    3316:	00 00       	beq			
    3318:	9f 2a       	jnc	$-704    	;abs 0x3058
    331a:	00 00       	beq			
    331c:	20 00       	.word	0x0020;	????
    331e:	87 00       	.word	0x0087;	????
    3320:	00 00       	beq			
    3322:	00 00       	beq			
    3324:	ab 2a       	jnc	$-680    	;abs 0x307c
    3326:	00 00       	beq			
    3328:	20 00       	.word	0x0020;	????
    332a:	89 00       	.word	0x0089;	????
    332c:	00 00       	beq			
    332e:	00 00       	beq			
    3330:	b8 2a       	jnc	$-654    	;abs 0x30a2
    3332:	00 00       	beq			
    3334:	20 00       	.word	0x0020;	????
    3336:	8b 00       	.word	0x008b;	????
    3338:	00 00       	beq			
    333a:	00 00       	beq			
    333c:	c5 2a       	jnc	$-628    	;abs 0x30c8
    333e:	00 00       	beq			
    3340:	20 00       	.word	0x0020;	????
    3342:	8d 00       	.word	0x008d;	????
    3344:	00 00       	beq			
    3346:	00 00       	beq			
    3348:	d2 2a       	jnc	$-602    	;abs 0x30ee
    334a:	00 00       	beq			
    334c:	20 00       	.word	0x0020;	????
    334e:	8f 00       	.word	0x008f;	????
    3350:	00 00       	beq			
    3352:	00 00       	beq			
    3354:	df 2a       	jnc	$-576    	;abs 0x3114
    3356:	00 00       	beq			
    3358:	20 00       	.word	0x0020;	????
    335a:	91 00       	.word	0x0091;	????
    335c:	00 00       	beq			
    335e:	00 00       	beq			
    3360:	eb 2a       	jnc	$-552    	;abs 0x3138
    3362:	00 00       	beq			
    3364:	20 00       	.word	0x0020;	????
    3366:	93 00       	.word	0x0093;	????
    3368:	00 00       	beq			
    336a:	00 00       	beq			
    336c:	f8 2a       	jnc	$-526    	;abs 0x315e
    336e:	00 00       	beq			
    3370:	20 00       	.word	0x0020;	????
    3372:	96 00       	.word	0x0096;	????
    3374:	00 00       	beq			
    3376:	00 00       	beq			
    3378:	05 2b       	jnc	$-500    	;abs 0x3184
    337a:	00 00       	beq			
    337c:	20 00       	.word	0x0020;	????
    337e:	9c 00       	.word	0x009c;	????
    3380:	00 00       	beq			
    3382:	00 00       	beq			
    3384:	11 2b       	jnc	$-476    	;abs 0x31a8
    3386:	00 00       	beq			
    3388:	20 00       	.word	0x0020;	????
    338a:	9e 00       	.word	0x009e;	????
    338c:	00 00       	beq			
    338e:	00 00       	beq			
    3390:	1e 2b       	jnc	$-450    	;abs 0x31ce
    3392:	00 00       	beq			
    3394:	20 00       	.word	0x0020;	????
    3396:	a0 00       	.word	0x00a0;	????
    3398:	00 00       	beq			
    339a:	00 00       	beq			
    339c:	2b 2b       	jnc	$-424    	;abs 0x31f4
    339e:	00 00       	beq			
    33a0:	20 00       	.word	0x0020;	????
    33a2:	a2 00       	.word	0x00a2;	????
    33a4:	00 00       	beq			
    33a6:	00 00       	beq			
    33a8:	38 2b       	jnc	$-398    	;abs 0x321a
    33aa:	00 00       	beq			
    33ac:	20 00       	.word	0x0020;	????
    33ae:	a5 00       	.word	0x00a5;	????
    33b0:	00 00       	beq			
    33b2:	00 00       	beq			
    33b4:	45 2b       	jnc	$-372    	;abs 0x3240
    33b6:	00 00       	beq			
    33b8:	20 00       	.word	0x0020;	????
    33ba:	ab 00       	.word	0x00ab;	????
    33bc:	00 00       	beq			
    33be:	00 00       	beq			
    33c0:	51 2b       	jnc	$-348    	;abs 0x3264
    33c2:	00 00       	beq			
    33c4:	20 00       	.word	0x0020;	????
    33c6:	ad 00       	.word	0x00ad;	????
    33c8:	00 00       	beq			
    33ca:	00 00       	beq			
    33cc:	5e 2b       	jnc	$-322    	;abs 0x328a
    33ce:	00 00       	beq			
    33d0:	20 00       	.word	0x0020;	????
    33d2:	af 00       	.word	0x00af;	????
    33d4:	00 00       	beq			
    33d6:	00 00       	beq			
    33d8:	6b 2b       	jnc	$-296    	;abs 0x32b0
    33da:	00 00       	beq			
    33dc:	20 00       	.word	0x0020;	????
    33de:	b1 00       	.word	0x00b1;	????
    33e0:	00 00       	beq			
    33e2:	00 00       	beq			
    33e4:	78 2b       	jnc	$-270    	;abs 0x32d6
    33e6:	00 00       	beq			
    33e8:	20 00       	.word	0x0020;	????
    33ea:	b4 00       	.word	0x00b4;	????
    33ec:	00 00       	beq			
    33ee:	00 00       	beq			
    33f0:	85 2b       	jnc	$-244    	;abs 0x32fc
    33f2:	00 00       	beq			
    33f4:	20 00       	.word	0x0020;	????
    33f6:	ba 00       	.word	0x00ba;	????
    33f8:	00 00       	beq			
    33fa:	00 00       	beq			
    33fc:	91 2b       	jnc	$-220    	;abs 0x3320
    33fe:	00 00       	beq			
    3400:	20 00       	.word	0x0020;	????
    3402:	bc 00       	.word	0x00bc;	????
    3404:	00 00       	beq			
    3406:	00 00       	beq			
    3408:	9e 2b       	jnc	$-194    	;abs 0x3346
    340a:	00 00       	beq			
    340c:	20 00       	.word	0x0020;	????
    340e:	be 00       	.word	0x00be;	????
    3410:	00 00       	beq			
    3412:	00 00       	beq			
    3414:	ab 2b       	jnc	$-168    	;abs 0x336c
    3416:	00 00       	beq			
    3418:	20 00       	.word	0x0020;	????
    341a:	c0 00       	.word	0x00c0;	????
    341c:	00 00       	beq			
    341e:	00 00       	beq			
    3420:	b8 2b       	jnc	$-142    	;abs 0x3392
    3422:	00 00       	beq			
    3424:	20 00       	.word	0x0020;	????
    3426:	c3 00       	.word	0x00c3;	????
    3428:	00 00       	beq			
    342a:	00 00       	beq			
    342c:	c5 2b       	jnc	$-116    	;abs 0x33b8
    342e:	00 00       	beq			
    3430:	20 00       	.word	0x0020;	????
    3432:	c9 00       	.word	0x00c9;	????
    3434:	00 00       	beq			
    3436:	00 00       	beq			
    3438:	d1 2b       	jnc	$-92     	;abs 0x33dc
    343a:	00 00       	beq			
    343c:	20 00       	.word	0x0020;	????
    343e:	cb 00       	.word	0x00cb;	????
    3440:	00 00       	beq			
    3442:	00 00       	beq			
    3444:	de 2b       	jnc	$-66     	;abs 0x3402
    3446:	00 00       	beq			
    3448:	20 00       	.word	0x0020;	????
    344a:	cd 00       	.word	0x00cd;	????
    344c:	00 00       	beq			
    344e:	00 00       	beq			
    3450:	eb 2b       	jnc	$-40     	;abs 0x3428
    3452:	00 00       	beq			
    3454:	20 00       	.word	0x0020;	????
    3456:	cf 00       	.word	0x00cf;	????
    3458:	00 00       	beq			
    345a:	00 00       	beq			
    345c:	f8 2b       	jnc	$-14     	;abs 0x344e
    345e:	00 00       	beq			
    3460:	20 00       	.word	0x0020;	????
    3462:	d2 00       	.word	0x00d2;	????
    3464:	00 00       	beq			
    3466:	00 00       	beq			
    3468:	05 2c       	jc	$+12     	;abs 0x3474
    346a:	00 00       	beq			
    346c:	20 00       	.word	0x0020;	????
    346e:	f8 00       	.word	0x00f8;	????
    3470:	00 00       	beq			
    3472:	00 00       	beq			
    3474:	15 2c       	jc	$+44     	;abs 0x34a0
    3476:	00 00       	beq			
    3478:	20 00       	.word	0x0020;	????
    347a:	fa 00       	.word	0x00fa;	????
    347c:	00 00       	beq			
    347e:	00 00       	beq			
    3480:	25 2c       	jc	$+76     	;abs 0x34cc
    3482:	00 00       	beq			
    3484:	20 00       	.word	0x0020;	????
    3486:	fc 00       	.word	0x00fc;	????
    3488:	00 00       	beq			
    348a:	00 00       	beq			
    348c:	34 2c       	jc	$+106    	;abs 0x34f6
    348e:	00 00       	beq			
    3490:	20 00       	.word	0x0020;	????
    3492:	fe 00       	.word	0x00fe;	????
    3494:	00 00       	beq			
    3496:	00 00       	beq			
    3498:	43 2c       	jc	$+136    	;abs 0x3520
    349a:	00 00       	beq			
    349c:	20 00       	.word	0x0020;	????
    349e:	00 01       	.word	0x0100;	????
    34a0:	00 00       	beq			
    34a2:	00 00       	beq			
    34a4:	53 2c       	jc	$+168    	;abs 0x354c
    34a6:	00 00       	beq			
    34a8:	20 00       	.word	0x0020;	????
    34aa:	02 01       	.word	0x0102;	????
    34ac:	00 00       	beq			
    34ae:	00 00       	beq			
    34b0:	63 2c       	jc	$+200    	;abs 0x3578
    34b2:	00 00       	beq			
    34b4:	20 00       	.word	0x0020;	????
    34b6:	04 01       	.word	0x0104;	????
    34b8:	00 00       	beq			
    34ba:	00 00       	beq			
    34bc:	74 2c       	jc	$+234    	;abs 0x35a6
    34be:	00 00       	beq			
    34c0:	20 00       	.word	0x0020;	????
    34c2:	06 01       	.word	0x0106;	????
    34c4:	00 00       	beq			
    34c6:	00 00       	beq			
    34c8:	85 2c       	jc	$+268    	;abs 0x35d4
    34ca:	00 00       	beq			
    34cc:	20 00       	.word	0x0020;	????
    34ce:	08 01       	.word	0x0108;	????
    34d0:	00 00       	beq			
    34d2:	00 00       	beq			
    34d4:	96 2c       	jc	$+302    	;abs 0x3602
    34d6:	00 00       	beq			
    34d8:	20 00       	.word	0x0020;	????
    34da:	0a 01       	.word	0x010a;	????
    34dc:	00 00       	beq			
    34de:	00 00       	beq			
    34e0:	a8 2c       	jc	$+338    	;abs 0x3632
    34e2:	00 00       	beq			
    34e4:	20 00       	.word	0x0020;	????
    34e6:	0c 01       	.word	0x010c;	????
    34e8:	00 00       	beq			
    34ea:	00 00       	beq			
    34ec:	ba 2c       	jc	$+374    	;abs 0x3662
    34ee:	00 00       	beq			
    34f0:	20 00       	.word	0x0020;	????
    34f2:	0f 01       	.word	0x010f;	????
    34f4:	00 00       	beq			
    34f6:	00 00       	beq			
    34f8:	ca 2c       	jc	$+406    	;abs 0x368e
    34fa:	00 00       	beq			
    34fc:	20 00       	.word	0x0020;	????
    34fe:	11 01       	.word	0x0111;	????
    3500:	00 00       	beq			
    3502:	00 00       	beq			
    3504:	da 2c       	jc	$+438    	;abs 0x36ba
    3506:	00 00       	beq			
    3508:	20 00       	.word	0x0020;	????
    350a:	13 01       	.word	0x0113;	????
    350c:	00 00       	beq			
    350e:	00 00       	beq			
    3510:	e9 2c       	jc	$+468    	;abs 0x36e4
    3512:	00 00       	beq			
    3514:	20 00       	.word	0x0020;	????
    3516:	15 01       	.word	0x0115;	????
    3518:	00 00       	beq			
    351a:	00 00       	beq			
    351c:	f8 2c       	jc	$+498    	;abs 0x370e
    351e:	00 00       	beq			
    3520:	20 00       	.word	0x0020;	????
    3522:	17 01       	.word	0x0117;	????
    3524:	00 00       	beq			
    3526:	00 00       	beq			
    3528:	09 2d       	jc	$+532    	;abs 0x373c
    352a:	00 00       	beq			
    352c:	20 00       	.word	0x0020;	????
    352e:	19 01       	.word	0x0119;	????
    3530:	00 00       	beq			
    3532:	00 00       	beq			
    3534:	19 2d       	jc	$+564    	;abs 0x3768
    3536:	00 00       	beq			
    3538:	20 00       	.word	0x0020;	????
    353a:	1b 01       	.word	0x011b;	????
    353c:	00 00       	beq			
    353e:	00 00       	beq			
    3540:	2a 2d       	jc	$+598    	;abs 0x3796
    3542:	00 00       	beq			
    3544:	20 00       	.word	0x0020;	????
    3546:	1d 01       	.word	0x011d;	????
    3548:	00 00       	beq			
    354a:	00 00       	beq			
    354c:	3b 2d       	jc	$+632    	;abs 0x37c4
    354e:	00 00       	beq			
    3550:	20 00       	.word	0x0020;	????
    3552:	1f 01       	.word	0x011f;	????
    3554:	00 00       	beq			
    3556:	00 00       	beq			
    3558:	4d 2d       	jc	$+668    	;abs 0x37f4
    355a:	00 00       	beq			
    355c:	20 00       	.word	0x0020;	????
    355e:	21 01       	.word	0x0121;	????
    3560:	00 00       	beq			
    3562:	00 00       	beq			
    3564:	5f 2d       	jc	$+704    	;abs 0x3824
    3566:	00 00       	beq			
    3568:	20 00       	.word	0x0020;	????
    356a:	28 01       	.word	0x0128;	????
    356c:	00 00       	beq			
    356e:	00 00       	beq			
    3570:	6f 2d       	jc	$+736    	;abs 0x3850
    3572:	00 00       	beq			
    3574:	20 00       	.word	0x0020;	????
    3576:	2a 01       	.word	0x012a;	????
    3578:	00 00       	beq			
    357a:	00 00       	beq			
    357c:	7f 2d       	jc	$+768    	;abs 0x387c
    357e:	00 00       	beq			
    3580:	20 00       	.word	0x0020;	????
    3582:	2c 01       	.word	0x012c;	????
    3584:	00 00       	beq			
    3586:	00 00       	beq			
    3588:	8e 2d       	jc	$+798    	;abs 0x38a6
    358a:	00 00       	beq			
    358c:	20 00       	.word	0x0020;	????
    358e:	2e 01       	.word	0x012e;	????
    3590:	00 00       	beq			
    3592:	00 00       	beq			
    3594:	9d 2d       	jc	$+828    	;abs 0x38d0
    3596:	00 00       	beq			
    3598:	20 00       	.word	0x0020;	????
    359a:	30 01       	.word	0x0130;	????
    359c:	00 00       	beq			
    359e:	00 00       	beq			
    35a0:	ad 2d       	jc	$+860    	;abs 0x38fc
    35a2:	00 00       	beq			
    35a4:	20 00       	.word	0x0020;	????
    35a6:	32 01       	.word	0x0132;	????
    35a8:	00 00       	beq			
    35aa:	00 00       	beq			
    35ac:	bd 2d       	jc	$+892    	;abs 0x3928
    35ae:	00 00       	beq			
    35b0:	20 00       	.word	0x0020;	????
    35b2:	34 01       	.word	0x0134;	????
    35b4:	00 00       	beq			
    35b6:	00 00       	beq			
    35b8:	ce 2d       	jc	$+926    	;abs 0x3956
    35ba:	00 00       	beq			
    35bc:	20 00       	.word	0x0020;	????
    35be:	36 01       	.word	0x0136;	????
    35c0:	00 00       	beq			
    35c2:	00 00       	beq			
    35c4:	df 2d       	jc	$+960    	;abs 0x3984
    35c6:	00 00       	beq			
    35c8:	20 00       	.word	0x0020;	????
    35ca:	38 01       	.word	0x0138;	????
    35cc:	00 00       	beq			
    35ce:	00 00       	beq			
    35d0:	f0 2d       	jc	$+994    	;abs 0x39b2
    35d2:	00 00       	beq			
    35d4:	20 00       	.word	0x0020;	????
    35d6:	3a 01       	.word	0x013a;	????
    35d8:	00 00       	beq			
    35da:	00 00       	beq			
    35dc:	02 2e       	jc	$-1018   	;abs 0x31e2
    35de:	00 00       	beq			
    35e0:	20 00       	.word	0x0020;	????
    35e2:	3c 01       	.word	0x013c;	????
    35e4:	00 00       	beq			
    35e6:	00 00       	beq			
    35e8:	14 2e       	jc	$-982    	;abs 0x3212
    35ea:	00 00       	beq			
    35ec:	20 00       	.word	0x0020;	????
    35ee:	3f 01       	.word	0x013f;	????
    35f0:	00 00       	beq			
    35f2:	00 00       	beq			
    35f4:	24 2e       	jc	$-950    	;abs 0x323e
    35f6:	00 00       	beq			
    35f8:	20 00       	.word	0x0020;	????
    35fa:	41 01       	.word	0x0141;	????
    35fc:	00 00       	beq			
    35fe:	00 00       	beq			
    3600:	34 2e       	jc	$-918    	;abs 0x326a
    3602:	00 00       	beq			
    3604:	20 00       	.word	0x0020;	????
    3606:	43 01       	.word	0x0143;	????
    3608:	00 00       	beq			
    360a:	00 00       	beq			
    360c:	43 2e       	jc	$-888    	;abs 0x3294
    360e:	00 00       	beq			
    3610:	20 00       	.word	0x0020;	????
    3612:	45 01       	.word	0x0145;	????
    3614:	00 00       	beq			
    3616:	00 00       	beq			
    3618:	52 2e       	jc	$-858    	;abs 0x32be
    361a:	00 00       	beq			
    361c:	20 00       	.word	0x0020;	????
    361e:	47 01       	.word	0x0147;	????
    3620:	00 00       	beq			
    3622:	00 00       	beq			
    3624:	63 2e       	jc	$-824    	;abs 0x32ec
    3626:	00 00       	beq			
    3628:	20 00       	.word	0x0020;	????
    362a:	49 01       	.word	0x0149;	????
    362c:	00 00       	beq			
    362e:	00 00       	beq			
    3630:	73 2e       	jc	$-792    	;abs 0x3318
    3632:	00 00       	beq			
    3634:	20 00       	.word	0x0020;	????
    3636:	4b 01       	.word	0x014b;	????
    3638:	00 00       	beq			
    363a:	00 00       	beq			
    363c:	84 2e       	jc	$-758    	;abs 0x3346
    363e:	00 00       	beq			
    3640:	20 00       	.word	0x0020;	????
    3642:	4d 01       	.word	0x014d;	????
    3644:	00 00       	beq			
    3646:	00 00       	beq			
    3648:	95 2e       	jc	$-724    	;abs 0x3374
    364a:	00 00       	beq			
    364c:	20 00       	.word	0x0020;	????
    364e:	4f 01       	.word	0x014f;	????
    3650:	00 00       	beq			
    3652:	00 00       	beq			
    3654:	a7 2e       	jc	$-688    	;abs 0x33a4
    3656:	00 00       	beq			
    3658:	20 00       	.word	0x0020;	????
    365a:	51 01       	.word	0x0151;	????
    365c:	00 00       	beq			
    365e:	00 00       	beq			
    3660:	b9 2e       	jc	$-652    	;abs 0x33d4
    3662:	00 00       	beq			
    3664:	20 00       	.word	0x0020;	????
    3666:	54 01       	.word	0x0154;	????
    3668:	00 00       	beq			
    366a:	00 00       	beq			
    366c:	c6 2e       	jc	$-626    	;abs 0x33fa
    366e:	00 00       	beq			
    3670:	20 00       	.word	0x0020;	????
    3672:	56 01       	.word	0x0156;	????
    3674:	00 00       	beq			
    3676:	00 00       	beq			
    3678:	d4 2e       	jc	$-598    	;abs 0x3422
    367a:	00 00       	beq			
    367c:	20 00       	.word	0x0020;	????
    367e:	19 00       	.word	0x0019;	????
    3680:	00 00       	beq			
    3682:	00 00       	beq			
    3684:	e2 2e       	jc	$-570    	;abs 0x344a
    3686:	00 00       	beq			
    3688:	20 00       	.word	0x0020;	????
    368a:	1b 00       	.word	0x001b;	????
    368c:	00 00       	beq			
    368e:	00 00       	beq			
    3690:	f1 2e       	jc	$-540    	;abs 0x3474
    3692:	00 00       	beq			
    3694:	20 00       	.word	0x0020;	????
    3696:	1d 00       	.word	0x001d;	????
    3698:	00 00       	beq			
    369a:	00 00       	beq			
    369c:	fe 2e       	jc	$-514    	;abs 0x349a
    369e:	00 00       	beq			
    36a0:	20 00       	.word	0x0020;	????
    36a2:	20 00       	.word	0x0020;	????
    36a4:	00 00       	beq			
    36a6:	00 00       	beq			
    36a8:	0f 2f       	jc	$-480    	;abs 0x34c8
    36aa:	00 00       	beq			
    36ac:	20 00       	.word	0x0020;	????
    36ae:	22 00       	.word	0x0022;	????
    36b0:	00 00       	beq			
    36b2:	00 00       	beq			
    36b4:	20 2f       	jc	$-446    	;abs 0x34f6
    36b6:	00 00       	beq			
    36b8:	20 00       	.word	0x0020;	????
    36ba:	24 00       	.word	0x0024;	????
    36bc:	00 00       	beq			
    36be:	00 00       	beq			
    36c0:	30 2f       	jc	$-414    	;abs 0x3522
    36c2:	00 00       	beq			
    36c4:	20 00       	.word	0x0020;	????
    36c6:	26 00       	.word	0x0026;	????
    36c8:	00 00       	beq			
    36ca:	00 00       	beq			
    36cc:	40 2f       	jc	$-382    	;abs 0x354e
    36ce:	00 00       	beq			
    36d0:	20 00       	.word	0x0020;	????
    36d2:	46 00       	.word	0x0046;	????
    36d4:	00 00       	beq			
    36d6:	00 00       	beq			
    36d8:	51 2f       	jc	$-348    	;abs 0x357c
    36da:	00 00       	beq			
    36dc:	20 00       	.word	0x0020;	????
    36de:	48 00       	.word	0x0048;	????
    36e0:	00 00       	beq			
    36e2:	00 00       	beq			
    36e4:	61 2f       	jc	$-316    	;abs 0x35a8
    36e6:	00 00       	beq			
    36e8:	20 00       	.word	0x0020;	????
    36ea:	a0 00       	.word	0x00a0;	????
    36ec:	00 00       	beq			
    36ee:	00 00       	beq			
    36f0:	70 2f       	jc	$-286    	;abs 0x35d2
    36f2:	00 00       	beq			
    36f4:	20 00       	.word	0x0020;	????
    36f6:	16 00       	.word	0x0016;	????
    36f8:	00 00       	beq			
    36fa:	00 00       	beq			
    36fc:	7d 2f       	jc	$-260    	;abs 0x35f8
    36fe:	00 00       	beq			
    3700:	20 00       	.word	0x0020;	????
    3702:	18 00       	.word	0x0018;	????
    3704:	00 00       	beq			
    3706:	00 00       	beq			
    3708:	8b 2f       	jc	$-232    	;abs 0x3620
    370a:	00 00       	beq			
    370c:	20 00       	.word	0x0020;	????
    370e:	1a 00       	.word	0x001a;	????
    3710:	00 00       	beq			
    3712:	00 00       	beq			
    3714:	97 2f       	jc	$-208    	;abs 0x3644
    3716:	00 00       	beq			
    3718:	20 00       	.word	0x0020;	????
    371a:	1d 00       	.word	0x001d;	????
    371c:	00 00       	beq			
    371e:	00 00       	beq			
    3720:	a7 2f       	jc	$-176    	;abs 0x3670
    3722:	00 00       	beq			
    3724:	20 00       	.word	0x0020;	????
    3726:	1f 00       	.word	0x001f;	????
    3728:	00 00       	beq			
    372a:	00 00       	beq			
    372c:	b7 2f       	jc	$-144    	;abs 0x369c
    372e:	00 00       	beq			
    3730:	20 00       	.word	0x0020;	????
    3732:	21 00       	.word	0x0021;	????
    3734:	00 00       	beq			
    3736:	00 00       	beq			
    3738:	c7 2f       	jc	$-112    	;abs 0x36c8
    373a:	00 00       	beq			
    373c:	20 00       	.word	0x0020;	????
    373e:	23 00       	.word	0x0023;	????
    3740:	00 00       	beq			
    3742:	00 00       	beq			
    3744:	d6 2f       	jc	$-82     	;abs 0x36f2
    3746:	00 00       	beq			
    3748:	20 00       	.word	0x0020;	????
    374a:	25 00       	.word	0x0025;	????
    374c:	00 00       	beq			
    374e:	00 00       	beq			
    3750:	e5 2f       	jc	$-52     	;abs 0x371c
    3752:	00 00       	beq			
    3754:	20 00       	.word	0x0020;	????
    3756:	27 00       	.word	0x0027;	????
    3758:	00 00       	beq			
    375a:	00 00       	beq			
    375c:	f4 2f       	jc	$-22     	;abs 0x3746
    375e:	00 00       	beq			
    3760:	20 00       	.word	0x0020;	????
    3762:	2c 00       	.word	0x002c;	????
    3764:	00 00       	beq			
    3766:	00 00       	beq			
    3768:	04 30       	jn	$+10     	;abs 0x3772
    376a:	00 00       	beq			
    376c:	20 00       	.word	0x0020;	????
    376e:	2e 00       	.word	0x002e;	????
    3770:	00 00       	beq			
    3772:	00 00       	beq			
    3774:	14 30       	jn	$+42     	;abs 0x379e
    3776:	00 00       	beq			
    3778:	20 00       	.word	0x0020;	????
    377a:	30 00       	.word	0x0030;	????
    377c:	00 00       	beq			
    377e:	00 00       	beq			
    3780:	24 30       	jn	$+74     	;abs 0x37ca
    3782:	00 00       	beq			
    3784:	20 00       	.word	0x0020;	????
    3786:	32 00       	.word	0x0032;	????
    3788:	00 00       	beq			
    378a:	00 00       	beq			
    378c:	34 30       	jn	$+106    	;abs 0x37f6
    378e:	00 00       	beq			
    3790:	20 00       	.word	0x0020;	????
    3792:	34 00       	.word	0x0034;	????
    3794:	00 00       	beq			
    3796:	00 00       	beq			
    3798:	43 30       	jn	$+136    	;abs 0x3820
    379a:	00 00       	beq			
    379c:	20 00       	.word	0x0020;	????
    379e:	36 00       	.word	0x0036;	????
    37a0:	00 00       	beq			
    37a2:	00 00       	beq			
    37a4:	52 30       	jn	$+166    	;abs 0x384a
    37a6:	00 00       	beq			
    37a8:	20 00       	.word	0x0020;	????
    37aa:	38 00       	.word	0x0038;	????
    37ac:	00 00       	beq			
    37ae:	00 00       	beq			
    37b0:	61 30       	jn	$+196    	;abs 0x3874
    37b2:	00 00       	beq			
    37b4:	20 00       	.word	0x0020;	????
    37b6:	3a 00       	.word	0x003a;	????
    37b8:	00 00       	beq			
    37ba:	00 00       	beq			
    37bc:	70 30       	jn	$+226    	;abs 0x389e
    37be:	00 00       	beq			
    37c0:	20 00       	.word	0x0020;	????
    37c2:	7a 00       	.word	0x007a;	????
    37c4:	00 00       	beq			
    37c6:	00 00       	beq			
    37c8:	7f 30       	jn	$+256    	;abs 0x38c8
    37ca:	00 00       	beq			
    37cc:	20 00       	.word	0x0020;	????
    37ce:	14 00       	.word	0x0014;	????
    37d0:	00 00       	beq			
    37d2:	00 00       	beq			
    37d4:	8d 30       	jn	$+284    	;abs 0x38f0
    37d6:	00 00       	beq			
    37d8:	20 00       	.word	0x0020;	????
    37da:	16 00       	.word	0x0016;	????
    37dc:	00 00       	beq			
    37de:	00 00       	beq			
    37e0:	9c 30       	jn	$+314    	;abs 0x391a
    37e2:	00 00       	beq			
    37e4:	20 00       	.word	0x0020;	????
    37e6:	18 00       	.word	0x0018;	????
    37e8:	00 00       	beq			
    37ea:	00 00       	beq			
    37ec:	ab 30       	jn	$+344    	;abs 0x3944
    37ee:	00 00       	beq			
    37f0:	20 00       	.word	0x0020;	????
    37f2:	1b 00       	.word	0x001b;	????
    37f4:	00 00       	beq			
    37f6:	00 00       	beq			
    37f8:	ba 30       	jn	$+374    	;abs 0x396e
    37fa:	00 00       	beq			
    37fc:	20 00       	.word	0x0020;	????
    37fe:	14 00       	.word	0x0014;	????
    3800:	00 00       	beq			
    3802:	00 00       	beq			
    3804:	c8 30       	jn	$+402    	;abs 0x3996
    3806:	00 00       	beq			
    3808:	20 00       	.word	0x0020;	????
    380a:	16 00       	.word	0x0016;	????
    380c:	00 00       	beq			
    380e:	00 00       	beq			
    3810:	d6 30       	jn	$+430    	;abs 0x39be
    3812:	00 00       	beq			
    3814:	20 00       	.word	0x0020;	????
    3816:	18 00       	.word	0x0018;	????
    3818:	00 00       	beq			
    381a:	00 00       	beq			
    381c:	e4 30       	jn	$+458    	;abs 0x39e6
    381e:	00 00       	beq			
    3820:	20 00       	.word	0x0020;	????
    3822:	14 00       	.word	0x0014;	????
    3824:	00 00       	beq			
    3826:	00 00       	beq			
    3828:	f2 30       	jn	$+486    	;abs 0x3a0e
    382a:	00 00       	beq			
    382c:	20 00       	.word	0x0020;	????
    382e:	16 00       	.word	0x0016;	????
    3830:	00 00       	beq			
    3832:	00 00       	beq			
    3834:	00 31       	jn	$+514    	;abs 0x3a36
    3836:	00 00       	beq			
    3838:	20 00       	.word	0x0020;	????
    383a:	18 00       	.word	0x0018;	????
    383c:	00 00       	beq			
    383e:	00 00       	beq			
    3840:	0c 31       	jn	$+538    	;abs 0x3a5a
    3842:	00 00       	beq			
    3844:	20 00       	.word	0x0020;	????
    3846:	12 00       	.word	0x0012;	????
    3848:	00 00       	beq			
    384a:	00 00       	beq			
    384c:	1e 31       	jn	$+574    	;abs 0x3a8a
    384e:	00 00       	beq			
    3850:	20 00       	.word	0x0020;	????
    3852:	14 00       	.word	0x0014;	????
    3854:	00 00       	beq			
    3856:	00 00       	beq			
    3858:	30 31       	jn	$+610    	;abs 0x3aba
    385a:	00 00       	beq			
    385c:	20 00       	.word	0x0020;	????
    385e:	16 00       	.word	0x0016;	????
    3860:	00 00       	beq			
    3862:	00 00       	beq			
    3864:	41 31       	jn	$+644    	;abs 0x3ae8
    3866:	00 00       	beq			
    3868:	20 00       	.word	0x0020;	????
    386a:	18 00       	.word	0x0018;	????
    386c:	00 00       	beq			
    386e:	00 00       	beq			
    3870:	51 31       	jn	$+676    	;abs 0x3b14
    3872:	00 00       	beq			
    3874:	20 00       	.word	0x0020;	????
    3876:	1a 00       	.word	0x001a;	????
    3878:	00 00       	beq			
    387a:	00 00       	beq			
    387c:	61 31       	jn	$+708    	;abs 0x3b40
    387e:	00 00       	beq			
    3880:	20 00       	.word	0x0020;	????
    3882:	58 00       	.word	0x0058;	????
    3884:	00 00       	beq			
    3886:	00 00       	beq			
    3888:	6f 31       	jn	$+736    	;abs 0x3b68
    388a:	00 00       	beq			
    388c:	20 00       	.word	0x0020;	????
    388e:	64 00       	.word	0x0064;	????
    3890:	00 00       	beq			
    3892:	00 00       	beq			
    3894:	81 31       	jn	$+772    	;abs 0x3b98
    3896:	00 00       	beq			
    3898:	20 00       	.word	0x0020;	????
    389a:	66 00       	.word	0x0066;	????
    389c:	00 00       	beq			
    389e:	00 00       	beq			
    38a0:	93 31       	jn	$+808    	;abs 0x3bc8
    38a2:	00 00       	beq			
    38a4:	20 00       	.word	0x0020;	????
    38a6:	68 00       	.word	0x0068;	????
    38a8:	00 00       	beq			
    38aa:	00 00       	beq			
    38ac:	a5 31       	jn	$+844    	;abs 0x3bf8
    38ae:	00 00       	beq			
    38b0:	20 00       	.word	0x0020;	????
    38b2:	6a 00       	.word	0x006a;	????
    38b4:	00 00       	beq			
    38b6:	00 00       	beq			
    38b8:	b7 31       	jn	$+880    	;abs 0x3c28
    38ba:	00 00       	beq			
    38bc:	20 00       	.word	0x0020;	????
    38be:	6c 00       	.word	0x006c;	????
    38c0:	00 00       	beq			
    38c2:	00 00       	beq			
    38c4:	c9 31       	jn	$+916    	;abs 0x3c58
    38c6:	00 00       	beq			
    38c8:	20 00       	.word	0x0020;	????
    38ca:	6e 00       	.word	0x006e;	????
    38cc:	00 00       	beq			
    38ce:	00 00       	beq			
    38d0:	db 31       	jn	$+952    	;abs 0x3c88
    38d2:	00 00       	beq			
    38d4:	20 00       	.word	0x0020;	????
    38d6:	70 00       	.word	0x0070;	????
    38d8:	00 00       	beq			
    38da:	00 00       	beq			
    38dc:	ed 31       	jn	$+988    	;abs 0x3cb8
    38de:	00 00       	beq			
    38e0:	20 00       	.word	0x0020;	????
    38e2:	72 00       	.word	0x0072;	????
    38e4:	00 00       	beq			
    38e6:	00 00       	beq			
    38e8:	ff 31       	jn	$+1024   	;abs 0x3ce8
    38ea:	00 00       	beq			
    38ec:	20 00       	.word	0x0020;	????
    38ee:	74 00       	.word	0x0074;	????
    38f0:	00 00       	beq			
    38f2:	00 00       	beq			
    38f4:	11 32       	jn	$-988    	;abs 0x3518
    38f6:	00 00       	beq			
    38f8:	20 00       	.word	0x0020;	????
    38fa:	76 00       	.word	0x0076;	????
    38fc:	00 00       	beq			
    38fe:	00 00       	beq			
    3900:	23 32       	jn	$-952    	;abs 0x3548
    3902:	00 00       	beq			
    3904:	20 00       	.word	0x0020;	????
    3906:	78 00       	.word	0x0078;	????
    3908:	00 00       	beq			
    390a:	00 00       	beq			
    390c:	36 32       	jn	$-914    	;abs 0x357a
    390e:	00 00       	beq			
    3910:	20 00       	.word	0x0020;	????
    3912:	7a 00       	.word	0x007a;	????
    3914:	00 00       	beq			
    3916:	00 00       	beq			
    3918:	49 32       	jn	$-876    	;abs 0x35ac
    391a:	00 00       	beq			
    391c:	20 00       	.word	0x0020;	????
    391e:	7c 00       	.word	0x007c;	????
    3920:	00 00       	beq			
    3922:	00 00       	beq			
    3924:	5c 32       	jn	$-838    	;abs 0x35de
    3926:	00 00       	beq			
    3928:	20 00       	.word	0x0020;	????
    392a:	7e 00       	.word	0x007e;	????
    392c:	00 00       	beq			
    392e:	00 00       	beq			
    3930:	6f 32       	jn	$-800    	;abs 0x3610
    3932:	00 00       	beq			
    3934:	20 00       	.word	0x0020;	????
    3936:	80 00       	.word	0x0080;	????
    3938:	00 00       	beq			
    393a:	00 00       	beq			
    393c:	82 32       	jn	$-762    	;abs 0x3642
    393e:	00 00       	beq			
    3940:	20 00       	.word	0x0020;	????
    3942:	82 00       	.word	0x0082;	????
    3944:	00 00       	beq			
    3946:	00 00       	beq			
    3948:	95 32       	jn	$-724    	;abs 0x3674
    394a:	00 00       	beq			
    394c:	20 00       	.word	0x0020;	????
    394e:	8b 00       	.word	0x008b;	????
    3950:	00 00       	beq			
    3952:	00 00       	beq			
    3954:	a7 32       	jn	$-688    	;abs 0x36a4
    3956:	00 00       	beq			
    3958:	20 00       	.word	0x0020;	????
    395a:	8d 00       	.word	0x008d;	????
    395c:	00 00       	beq			
    395e:	00 00       	beq			
    3960:	b9 32       	jn	$-652    	;abs 0x36d4
    3962:	00 00       	beq			
    3964:	20 00       	.word	0x0020;	????
    3966:	8f 00       	.word	0x008f;	????
    3968:	00 00       	beq			
    396a:	00 00       	beq			
    396c:	cb 32       	jn	$-616    	;abs 0x3704
    396e:	00 00       	beq			
    3970:	20 00       	.word	0x0020;	????
    3972:	91 00       	.word	0x0091;	????
    3974:	00 00       	beq			
    3976:	00 00       	beq			
    3978:	dd 32       	jn	$-580    	;abs 0x3734
    397a:	00 00       	beq			
    397c:	20 00       	.word	0x0020;	????
    397e:	93 00       	.word	0x0093;	????
    3980:	00 00       	beq			
    3982:	00 00       	beq			
    3984:	ef 32       	jn	$-544    	;abs 0x3764
    3986:	00 00       	beq			
    3988:	20 00       	.word	0x0020;	????
    398a:	95 00       	.word	0x0095;	????
    398c:	00 00       	beq			
    398e:	00 00       	beq			
    3990:	01 33       	jn	$-508    	;abs 0x3794
    3992:	00 00       	beq			
    3994:	20 00       	.word	0x0020;	????
    3996:	97 00       	.word	0x0097;	????
    3998:	00 00       	beq			
    399a:	00 00       	beq			
    399c:	13 33       	jn	$-472    	;abs 0x37c4
    399e:	00 00       	beq			
    39a0:	20 00       	.word	0x0020;	????
    39a2:	99 00       	.word	0x0099;	????
    39a4:	00 00       	beq			
    39a6:	00 00       	beq			
    39a8:	25 33       	jn	$-436    	;abs 0x37f4
    39aa:	00 00       	beq			
    39ac:	20 00       	.word	0x0020;	????
    39ae:	9b 00       	.word	0x009b;	????
    39b0:	00 00       	beq			
    39b2:	00 00       	beq			
    39b4:	37 33       	jn	$-400    	;abs 0x3824
    39b6:	00 00       	beq			
    39b8:	20 00       	.word	0x0020;	????
    39ba:	9d 00       	.word	0x009d;	????
    39bc:	00 00       	beq			
    39be:	00 00       	beq			
    39c0:	49 33       	jn	$-364    	;abs 0x3854
    39c2:	00 00       	beq			
    39c4:	20 00       	.word	0x0020;	????
    39c6:	9f 00       	.word	0x009f;	????
    39c8:	00 00       	beq			
    39ca:	00 00       	beq			
    39cc:	5c 33       	jn	$-326    	;abs 0x3886
    39ce:	00 00       	beq			
    39d0:	20 00       	.word	0x0020;	????
    39d2:	a1 00       	.word	0x00a1;	????
    39d4:	00 00       	beq			
    39d6:	00 00       	beq			
    39d8:	6f 33       	jn	$-288    	;abs 0x38b8
    39da:	00 00       	beq			
    39dc:	20 00       	.word	0x0020;	????
    39de:	a3 00       	.word	0x00a3;	????
    39e0:	00 00       	beq			
    39e2:	00 00       	beq			
    39e4:	82 33       	jn	$-250    	;abs 0x38ea
    39e6:	00 00       	beq			
    39e8:	20 00       	.word	0x0020;	????
    39ea:	a5 00       	.word	0x00a5;	????
    39ec:	00 00       	beq			
    39ee:	00 00       	beq			
    39f0:	95 33       	jn	$-212    	;abs 0x391c
    39f2:	00 00       	beq			
    39f4:	20 00       	.word	0x0020;	????
    39f6:	a7 00       	.word	0x00a7;	????
    39f8:	00 00       	beq			
    39fa:	00 00       	beq			
    39fc:	a8 33       	jn	$-174    	;abs 0x394e
    39fe:	00 00       	beq			
    3a00:	20 00       	.word	0x0020;	????
    3a02:	a9 00       	.word	0x00a9;	????
    3a04:	00 00       	beq			
    3a06:	00 00       	beq			
    3a08:	bb 33       	jn	$-136    	;abs 0x3980
    3a0a:	00 00       	beq			
    3a0c:	20 00       	.word	0x0020;	????
    3a0e:	12 00       	.word	0x0012;	????
    3a10:	00 00       	beq			
    3a12:	00 00       	beq			
    3a14:	ce 33       	jn	$-98     	;abs 0x39b2
    3a16:	00 00       	beq			
    3a18:	20 00       	.word	0x0020;	????
    3a1a:	14 00       	.word	0x0014;	????
    3a1c:	00 00       	beq			
    3a1e:	00 00       	beq			
    3a20:	e1 33       	jn	$-60     	;abs 0x39e4
    3a22:	00 00       	beq			
    3a24:	20 00       	.word	0x0020;	????
    3a26:	16 00       	.word	0x0016;	????
    3a28:	00 00       	beq			
    3a2a:	00 00       	beq			
    3a2c:	f4 33       	jn	$-22     	;abs 0x3a16
    3a2e:	00 00       	beq			
    3a30:	20 00       	.word	0x0020;	????
    3a32:	18 00       	.word	0x0018;	????
    3a34:	00 00       	beq			
    3a36:	00 00       	beq			
    3a38:	07 34       	jge	$+16     	;abs 0x3a48
    3a3a:	00 00       	beq			
    3a3c:	20 00       	.word	0x0020;	????
    3a3e:	12 00       	.word	0x0012;	????
    3a40:	00 00       	beq			
    3a42:	00 00       	beq			
    3a44:	17 34       	jge	$+48     	;abs 0x3a74
    3a46:	00 00       	beq			
    3a48:	20 00       	.word	0x0020;	????
    3a4a:	14 00       	.word	0x0014;	????
    3a4c:	00 00       	beq			
    3a4e:	00 00       	beq			
    3a50:	27 34       	jge	$+80     	;abs 0x3aa0
    3a52:	00 00       	beq			
    3a54:	20 00       	.word	0x0020;	????
    3a56:	35 00       	.word	0x0035;	????
    3a58:	00 00       	beq			
    3a5a:	00 00       	beq			
    3a5c:	37 34       	jge	$+112    	;abs 0x3acc
    3a5e:	00 00       	beq			
    3a60:	20 00       	.word	0x0020;	????
    3a62:	37 00       	.word	0x0037;	????
    3a64:	00 00       	beq			
    3a66:	00 00       	beq			
    3a68:	4c 34       	jge	$+154    	;abs 0x3b02
    3a6a:	00 00       	beq			
    3a6c:	20 00       	.word	0x0020;	????
    3a6e:	39 00       	.word	0x0039;	????
    3a70:	00 00       	beq			
    3a72:	00 00       	beq			
    3a74:	5c 34       	jge	$+186    	;abs 0x3b2e
    3a76:	00 00       	beq			
    3a78:	20 00       	.word	0x0020;	????
    3a7a:	3b 00       	.word	0x003b;	????
    3a7c:	00 00       	beq			
    3a7e:	00 00       	beq			
    3a80:	6a 34       	jge	$+214    	;abs 0x3b56
    3a82:	00 00       	beq			
    3a84:	20 00       	.word	0x0020;	????
    3a86:	3d 00       	.word	0x003d;	????
    3a88:	00 00       	beq			
    3a8a:	00 00       	beq			
    3a8c:	7a 34       	jge	$+246    	;abs 0x3b82
    3a8e:	00 00       	beq			
    3a90:	20 00       	.word	0x0020;	????
    3a92:	3f 00       	.word	0x003f;	????
    3a94:	00 00       	beq			
    3a96:	00 00       	beq			
    3a98:	89 34       	jge	$+276    	;abs 0x3bac
    3a9a:	00 00       	beq			
    3a9c:	20 00       	.word	0x0020;	????
    3a9e:	42 00       	.word	0x0042;	????
    3aa0:	00 00       	beq			
    3aa2:	00 00       	beq			
    3aa4:	99 34       	jge	$+308    	;abs 0x3bd8
    3aa6:	00 00       	beq			
    3aa8:	20 00       	.word	0x0020;	????
    3aaa:	44 00       	.word	0x0044;	????
    3aac:	00 00       	beq			
    3aae:	00 00       	beq			
    3ab0:	a7 34       	jge	$+336    	;abs 0x3c00
    3ab2:	00 00       	beq			
    3ab4:	20 00       	.word	0x0020;	????
    3ab6:	46 00       	.word	0x0046;	????
    3ab8:	00 00       	beq			
    3aba:	00 00       	beq			
    3abc:	b7 34       	jge	$+368    	;abs 0x3c2c
    3abe:	00 00       	beq			
    3ac0:	20 00       	.word	0x0020;	????
    3ac2:	48 00       	.word	0x0048;	????
    3ac4:	00 00       	beq			
    3ac6:	00 00       	beq			
    3ac8:	c6 34       	jge	$+398    	;abs 0x3c56
    3aca:	00 00       	beq			
    3acc:	20 00       	.word	0x0020;	????
    3ace:	4a 00       	.word	0x004a;	????
    3ad0:	00 00       	beq			
    3ad2:	00 00       	beq			
    3ad4:	d6 34       	jge	$+430    	;abs 0x3c82
    3ad6:	00 00       	beq			
    3ad8:	20 00       	.word	0x0020;	????
    3ada:	4c 00       	.word	0x004c;	????
    3adc:	00 00       	beq			
    3ade:	00 00       	beq			
    3ae0:	e5 34       	jge	$+460    	;abs 0x3cac
    3ae2:	00 00       	beq			
    3ae4:	20 00       	.word	0x0020;	????
    3ae6:	4f 00       	.word	0x004f;	????
    3ae8:	00 00       	beq			
    3aea:	00 00       	beq			
    3aec:	f5 34       	jge	$+492    	;abs 0x3cd8
    3aee:	00 00       	beq			
    3af0:	20 00       	.word	0x0020;	????
    3af2:	51 00       	.word	0x0051;	????
    3af4:	00 00       	beq			
    3af6:	00 00       	beq			
    3af8:	03 35       	jge	$+520    	;abs 0x3d00
    3afa:	00 00       	beq			
    3afc:	20 00       	.word	0x0020;	????
    3afe:	53 00       	.word	0x0053;	????
    3b00:	00 00       	beq			
    3b02:	00 00       	beq			
    3b04:	13 35       	jge	$+552    	;abs 0x3d2c
    3b06:	00 00       	beq			
    3b08:	20 00       	.word	0x0020;	????
    3b0a:	55 00       	.word	0x0055;	????
    3b0c:	00 00       	beq			
    3b0e:	00 00       	beq			
    3b10:	21 35       	jge	$+580    	;abs 0x3d54
    3b12:	00 00       	beq			
    3b14:	20 00       	.word	0x0020;	????
    3b16:	57 00       	.word	0x0057;	????
    3b18:	00 00       	beq			
    3b1a:	00 00       	beq			
    3b1c:	31 35       	jge	$+612    	;abs 0x3d80
    3b1e:	00 00       	beq			
    3b20:	20 00       	.word	0x0020;	????
    3b22:	59 00       	.word	0x0059;	????
    3b24:	00 00       	beq			
    3b26:	00 00       	beq			
    3b28:	40 35       	jge	$+642    	;abs 0x3daa
    3b2a:	00 00       	beq			
    3b2c:	20 00       	.word	0x0020;	????
    3b2e:	47 00       	.word	0x0047;	????
    3b30:	00 00       	beq			
    3b32:	00 00       	beq			
    3b34:	4f 35       	jge	$+672    	;abs 0x3dd4
    3b36:	00 00       	beq			
    3b38:	20 00       	.word	0x0020;	????
    3b3a:	40 00       	.word	0x0040;	????
    3b3c:	00 00       	beq			
    3b3e:	00 00       	beq			
    3b40:	5a 35       	jge	$+694    	;abs 0x3df6
    3b42:	00 00       	beq			
    3b44:	20 00       	.word	0x0020;	????
    3b46:	47 00       	.word	0x0047;	????
    3b48:	00 00       	beq			
    3b4a:	00 00       	beq			
    3b4c:	66 35       	jge	$+718    	;abs 0x3e1a
    3b4e:	00 00       	beq			
    3b50:	20 00       	.word	0x0020;	????
    3b52:	4f 00       	.word	0x004f;	????
    3b54:	00 00       	beq			
    3b56:	00 00       	beq			
    3b58:	71 35       	jge	$+740    	;abs 0x3e3c
    3b5a:	00 00       	beq			
    3b5c:	20 00       	.word	0x0020;	????
    3b5e:	57 00       	.word	0x0057;	????
    3b60:	00 00       	beq			
    3b62:	00 00       	beq			
    3b64:	7d 35       	jge	$+764    	;abs 0x3e60
    3b66:	00 00       	beq			
    3b68:	20 00       	.word	0x0020;	????
    3b6a:	69 00       	.word	0x0069;	????
    3b6c:	00 00       	beq			
    3b6e:	00 00       	beq			
    3b70:	92 35       	jge	$+806    	;abs 0x3e96
    3b72:	00 00       	beq			
    3b74:	20 00       	.word	0x0020;	????
    3b76:	6b 00       	.word	0x006b;	????
    3b78:	00 00       	beq			
    3b7a:	00 00       	beq			
    3b7c:	a8 35       	jge	$+850    	;abs 0x3ece
    3b7e:	00 00       	beq			
    3b80:	20 00       	.word	0x0020;	????
    3b82:	6d 00       	.word	0x006d;	????
    3b84:	00 00       	beq			
    3b86:	00 00       	beq			
    3b88:	be 35       	jge	$+894    	;abs 0x3f06
    3b8a:	00 00       	beq			
    3b8c:	20 00       	.word	0x0020;	????
    3b8e:	6f 00       	.word	0x006f;	????
    3b90:	00 00       	beq			
    3b92:	00 00       	beq			
    3b94:	d5 35       	jge	$+940    	;abs 0x3f40
    3b96:	00 00       	beq			
    3b98:	20 00       	.word	0x0020;	????
    3b9a:	71 00       	.word	0x0071;	????
    3b9c:	00 00       	beq			
    3b9e:	00 00       	beq			
    3ba0:	ec 35       	jge	$+986    	;abs 0x3f7a
    3ba2:	00 00       	beq			
    3ba4:	20 00       	.word	0x0020;	????
    3ba6:	8e 00       	.word	0x008e;	????
    3ba8:	00 00       	beq			
    3baa:	00 00       	beq			
    3bac:	00 36       	.word	0x3600;	????
    3bae:	00 00       	beq			
    3bb0:	20 00       	.word	0x0020;	????
    3bb2:	90 00       	.word	0x0090;	????
    3bb4:	00 00       	beq			
    3bb6:	00 00       	beq			
    3bb8:	14 36       	jge	$-982    	;abs 0x37e2
    3bba:	00 00       	beq			
    3bbc:	20 00       	.word	0x0020;	????
    3bbe:	92 00       	.word	0x0092;	????
    3bc0:	00 00       	beq			
    3bc2:	00 00       	beq			
    3bc4:	28 36       	jge	$-942    	;abs 0x3816
    3bc6:	00 00       	beq			
    3bc8:	20 00       	.word	0x0020;	????
    3bca:	94 00       	.word	0x0094;	????
    3bcc:	00 00       	beq			
    3bce:	00 00       	beq			
    3bd0:	3c 36       	jge	$-902    	;abs 0x384a
    3bd2:	00 00       	beq			
    3bd4:	20 00       	.word	0x0020;	????
    3bd6:	96 00       	.word	0x0096;	????
    3bd8:	00 00       	beq			
    3bda:	00 00       	beq			
    3bdc:	4f 36       	jge	$-864    	;abs 0x387c
    3bde:	00 00       	beq			
    3be0:	20 00       	.word	0x0020;	????
    3be2:	98 00       	.word	0x0098;	????
    3be4:	00 00       	beq			
    3be6:	00 00       	beq			
    3be8:	62 36       	jge	$-826    	;abs 0x38ae
    3bea:	00 00       	beq			
    3bec:	20 00       	.word	0x0020;	????
    3bee:	9a 00       	.word	0x009a;	????
    3bf0:	00 00       	beq			
    3bf2:	00 00       	beq			
    3bf4:	75 36       	jge	$-788    	;abs 0x38e0
    3bf6:	00 00       	beq			
    3bf8:	20 00       	.word	0x0020;	????
    3bfa:	9c 00       	.word	0x009c;	????
    3bfc:	00 00       	beq			
    3bfe:	00 00       	beq			
    3c00:	88 36       	jge	$-750    	;abs 0x3912
    3c02:	00 00       	beq			
    3c04:	20 00       	.word	0x0020;	????
    3c06:	0c 00       	.word	0x000c;	????
    3c08:	00 00       	beq			
    3c0a:	00 00       	beq			
    3c0c:	b0 36       	jge	$-670    	;abs 0x396e
    3c0e:	00 00       	beq			
    3c10:	20 00       	.word	0x0020;	????
    3c12:	1f 00       	.word	0x001f;	????
    3c14:	00 00       	beq			
    3c16:	00 00       	beq			
    3c18:	cf 36       	jge	$-608    	;abs 0x39b8
    3c1a:	00 00       	beq			
    3c1c:	20 00       	.word	0x0020;	????
    3c1e:	26 00       	.word	0x0026;	????
    3c20:	00 00       	beq			
    3c22:	00 00       	beq			
    3c24:	e5 36       	jge	$-564    	;abs 0x39f0
    3c26:	00 00       	beq			
    3c28:	20 00       	.word	0x0020;	????
    3c2a:	27 00       	.word	0x0027;	????
	...
    3c34:	64 00       	.word	0x0064;	????
    3c36:	00 00       	beq			
    3c38:	f4 2d       	jc	$+1002   	;abs 0x4022
    3c3a:	00 00       	beq			
    3c3c:	9d 27       	jz	$-196    	;abs 0x3b78
    3c3e:	00 00       	beq			
    3c40:	64 00       	.word	0x0064;	????
    3c42:	00 00       	beq			
    3c44:	f4 2d       	jc	$+1002   	;abs 0x402e
    3c46:	00 00       	beq			
    3c48:	fb 36       	jge	$-520    	;abs 0x3a40
    3c4a:	00 00       	beq			
    3c4c:	64 00       	.word	0x0064;	????
    3c4e:	00 00       	beq			
    3c50:	f4 2d       	jc	$+1002   	;abs 0x403a
    3c52:	00 00       	beq			
    3c54:	5a 00       	.word	0x005a;	????
    3c56:	00 00       	beq			
    3c58:	3c 00       	.word	0x003c;	????
    3c5a:	00 00       	beq			
    3c5c:	00 00       	beq			
    3c5e:	00 00       	beq			
    3c60:	69 00       	.word	0x0069;	????
    3c62:	00 00       	beq			
    3c64:	80 00       	.word	0x0080;	????
    3c66:	00 00       	beq			
    3c68:	00 00       	beq			
    3c6a:	00 00       	beq			
    3c6c:	89 00       	.word	0x0089;	????
    3c6e:	00 00       	beq			
    3c70:	80 00       	.word	0x0080;	????
    3c72:	00 00       	beq			
    3c74:	00 00       	beq			
    3c76:	00 00       	beq			
    3c78:	a3 00       	.word	0x00a3;	????
    3c7a:	00 00       	beq			
    3c7c:	80 00       	.word	0x0080;	????
    3c7e:	00 00       	beq			
    3c80:	00 00       	beq			
    3c82:	00 00       	beq			
    3c84:	dc 00       	.word	0x00dc;	????
    3c86:	00 00       	beq			
    3c88:	80 00       	.word	0x0080;	????
    3c8a:	00 00       	beq			
    3c8c:	00 00       	beq			
    3c8e:	00 00       	beq			
    3c90:	14 01       	.word	0x0114;	????
    3c92:	00 00       	beq			
    3c94:	80 00       	.word	0x0080;	????
    3c96:	00 00       	beq			
    3c98:	00 00       	beq			
    3c9a:	00 00       	beq			
    3c9c:	56 01       	.word	0x0156;	????
    3c9e:	00 00       	beq			
    3ca0:	80 00       	.word	0x0080;	????
    3ca2:	00 00       	beq			
    3ca4:	00 00       	beq			
    3ca6:	00 00       	beq			
    3ca8:	a7 01       	.word	0x01a7;	????
    3caa:	00 00       	beq			
    3cac:	80 00       	.word	0x0080;	????
    3cae:	00 00       	beq			
    3cb0:	00 00       	beq			
    3cb2:	00 00       	beq			
    3cb4:	f8 01       	.word	0x01f8;	????
    3cb6:	00 00       	beq			
    3cb8:	80 00       	.word	0x0080;	????
    3cba:	00 00       	beq			
    3cbc:	00 00       	beq			
    3cbe:	00 00       	beq			
    3cc0:	1e 02       	.word	0x021e;	????
    3cc2:	00 00       	beq			
    3cc4:	80 00       	.word	0x0080;	????
    3cc6:	00 00       	beq			
    3cc8:	00 00       	beq			
    3cca:	00 00       	beq			
    3ccc:	5c 02       	.word	0x025c;	????
    3cce:	00 00       	beq			
    3cd0:	80 00       	.word	0x0080;	????
    3cd2:	00 00       	beq			
    3cd4:	00 00       	beq			
    3cd6:	00 00       	beq			
    3cd8:	86 02       	.word	0x0286;	????
    3cda:	00 00       	beq			
    3cdc:	80 00       	.word	0x0080;	????
    3cde:	00 00       	beq			
    3ce0:	00 00       	beq			
    3ce2:	00 00       	beq			
    3ce4:	af 02       	.word	0x02af;	????
    3ce6:	00 00       	beq			
    3ce8:	80 00       	.word	0x0080;	????
    3cea:	00 00       	beq			
    3cec:	00 00       	beq			
    3cee:	00 00       	beq			
    3cf0:	c9 02       	.word	0x02c9;	????
    3cf2:	00 00       	beq			
    3cf4:	80 00       	.word	0x0080;	????
    3cf6:	00 00       	beq			
    3cf8:	00 00       	beq			
    3cfa:	00 00       	beq			
    3cfc:	e4 02       	.word	0x02e4;	????
    3cfe:	00 00       	beq			
    3d00:	80 00       	.word	0x0080;	????
    3d02:	00 00       	beq			
    3d04:	00 00       	beq			
    3d06:	00 00       	beq			
    3d08:	04 03       	.word	0x0304;	????
    3d0a:	00 00       	beq			
    3d0c:	80 00       	.word	0x0080;	????
    3d0e:	00 00       	beq			
    3d10:	00 00       	beq			
    3d12:	00 00       	beq			
    3d14:	3d 03       	.word	0x033d;	????
    3d16:	00 00       	beq			
    3d18:	80 00       	.word	0x0080;	????
    3d1a:	00 00       	beq			
    3d1c:	00 00       	beq			
    3d1e:	00 00       	beq			
    3d20:	5b 03       	.word	0x035b;	????
    3d22:	00 00       	beq			
    3d24:	80 00       	.word	0x0080;	????
    3d26:	00 00       	beq			
    3d28:	00 00       	beq			
    3d2a:	00 00       	beq			
    3d2c:	7a 03       	.word	0x037a;	????
    3d2e:	00 00       	beq			
    3d30:	80 00       	.word	0x0080;	????
    3d32:	00 00       	beq			
    3d34:	00 00       	beq			
    3d36:	00 00       	beq			
    3d38:	9e 03       	.word	0x039e;	????
    3d3a:	00 00       	beq			
    3d3c:	80 00       	.word	0x0080;	????
    3d3e:	00 00       	beq			
    3d40:	00 00       	beq			
    3d42:	00 00       	beq			
    3d44:	c7 03       	.word	0x03c7;	????
    3d46:	00 00       	beq			
    3d48:	80 00       	.word	0x0080;	????
    3d4a:	00 00       	beq			
    3d4c:	00 00       	beq			
    3d4e:	00 00       	beq			
    3d50:	fb 36       	jge	$-520    	;abs 0x3b48
    3d52:	00 00       	beq			
    3d54:	82 00       	.word	0x0082;	????
    3d56:	00 00       	beq			
    3d58:	a7 c1 02 00 	bic	@r1,	2(r7)	;
    3d5c:	9b 09       	.word	0x099b;	????
    3d5e:	00 00       	beq			
    3d60:	c2 00       	.word	0x00c2;	????
    3d62:	00 00       	beq			
    3d64:	00 00       	beq			
    3d66:	00 00       	beq			
    3d68:	c2 09       	.word	0x09c2;	????
    3d6a:	00 00       	beq			
    3d6c:	c2 00       	.word	0x00c2;	????
    3d6e:	00 00       	beq			
    3d70:	00 00       	beq			
    3d72:	00 00       	beq			
    3d74:	bd 04       	.word	0x04bd;	????
    3d76:	00 00       	beq			
    3d78:	c2 00       	.word	0x00c2;	????
    3d7a:	00 00       	beq			
    3d7c:	91 34       	jge	$+292    	;abs 0x3ea0
    3d7e:	00 00       	beq			
    3d80:	e6 09       	.word	0x09e6;	????
    3d82:	00 00       	beq			
    3d84:	c2 00       	.word	0x00c2;	????
    3d86:	00 00       	beq			
    3d88:	00 00       	beq			
    3d8a:	00 00       	beq			
    3d8c:	0c 0a       	.word	0x0a0c;	????
    3d8e:	00 00       	beq			
    3d90:	c2 00       	.word	0x00c2;	????
    3d92:	00 00       	beq			
    3d94:	00 00       	beq			
    3d96:	00 00       	beq			
    3d98:	33 0a       	.word	0x0a33;	????
    3d9a:	00 00       	beq			
    3d9c:	c2 00       	.word	0x00c2;	????
    3d9e:	00 00       	beq			
    3da0:	8e 65 00 00 	addc	r5,	0(r14)	;
    3da4:	20 0c       	.word	0x0c20;	????
    3da6:	00 00       	beq			
    3da8:	c2 00       	.word	0x00c2;	????
    3daa:	00 00       	beq			
    3dac:	00 00       	beq			
    3dae:	00 00       	beq			
    3db0:	47 0c       	.word	0x0c47;	????
    3db2:	00 00       	beq			
    3db4:	c2 00       	.word	0x00c2;	????
    3db6:	00 00       	beq			
    3db8:	0c 8a       	sub	r10,	r12	;
    3dba:	00 00       	beq			
    3dbc:	c9 0e       	.word	0x0ec9;	????
    3dbe:	00 00       	beq			
    3dc0:	c2 00       	.word	0x00c2;	????
    3dc2:	00 00       	beq			
    3dc4:	90 a7 00 00 	dadd	0(r7),	0x11bc	; PC rel. 0x4f84
    3dc8:	bc 11 
    3dca:	00 00       	beq			
    3dcc:	c2 00       	.word	0x00c2;	????
    3dce:	00 00       	beq			
    3dd0:	00 00       	beq			
    3dd2:	00 00       	beq			
    3dd4:	ea 11       	.word	0x11ea;	????
    3dd6:	00 00       	beq			
    3dd8:	c2 00       	.word	0x00c2;	????
    3dda:	00 00       	beq			
    3ddc:	00 00       	beq			
    3dde:	00 00       	beq			
    3de0:	12 12 00 00 	push	&0x0000		;
    3de4:	c2 00       	.word	0x00c2;	????
    3de6:	00 00       	beq			
    3de8:	00 00       	beq			
    3dea:	00 00       	beq			
    3dec:	3a 12       	push	@r10+		;
    3dee:	00 00       	beq			
    3df0:	c2 00       	.word	0x00c2;	????
    3df2:	00 00       	beq			
    3df4:	0c af       	dadd	r15,	r12	;
    3df6:	00 00       	beq			
    3df8:	59 15       	.word	0x1559;	????
    3dfa:	00 00       	beq			
    3dfc:	c2 00       	.word	0x00c2;	????
    3dfe:	00 00       	beq			
    3e00:	00 00       	beq			
    3e02:	00 00       	beq			
    3e04:	81 15       	.word	0x1581;	????
    3e06:	00 00       	beq			
    3e08:	c2 00       	.word	0x00c2;	????
    3e0a:	00 00       	beq			
    3e0c:	00 00       	beq			
    3e0e:	00 00       	beq			
    3e10:	a7 15       	.word	0x15a7;	????
    3e12:	00 00       	beq			
    3e14:	c2 00       	.word	0x00c2;	????
    3e16:	00 00       	beq			
    3e18:	00 00       	beq			
    3e1a:	00 00       	beq			
    3e1c:	03 37       	jge	$-504    	;abs 0x3c24
    3e1e:	00 00       	beq			
    3e20:	24 00       	.word	0x0024;	????
    3e22:	05 00       	.word	0x0005;	????
    3e24:	f4 2d       	jc	$+1002   	;abs 0x420e
    3e26:	00 00       	beq			
    3e28:	19 37       	jge	$-460    	;abs 0x3c5c
    3e2a:	00 00       	beq			
    3e2c:	40 00       	.word	0x0040;	????
    3e2e:	04 00       	.word	0x0004;	????
    3e30:	0f 00       	.word	0x000f;	????
    3e32:	00 00       	beq			
    3e34:	26 37       	jge	$-434    	;abs 0x3c82
    3e36:	00 00       	beq			
    3e38:	40 00       	.word	0x0040;	????
    3e3a:	04 00       	.word	0x0004;	????
    3e3c:	0e 00       	.word	0x000e;	????
    3e3e:	00 00       	beq			
    3e40:	00 00       	beq			
    3e42:	00 00       	beq			
    3e44:	44 00       	.word	0x0044;	????
    3e46:	05 00       	.word	0x0005;	????
	...
    3e50:	44 00       	.word	0x0044;	????
    3e52:	06 00       	.word	0x0006;	????
	...
    3e5c:	44 00       	.word	0x0044;	????
    3e5e:	07 00       	.word	0x0007;	????
    3e60:	06 00       	.word	0x0006;	????
    3e62:	00 00       	beq			
    3e64:	00 00       	beq			
    3e66:	00 00       	beq			
    3e68:	44 00       	.word	0x0044;	????
    3e6a:	08 00       	.word	0x0008;	????
    3e6c:	0a 00       	.word	0x000a;	????
    3e6e:	00 00       	beq			
    3e70:	00 00       	beq			
    3e72:	00 00       	beq			
    3e74:	44 00       	.word	0x0044;	????
    3e76:	09 00       	.word	0x0009;	????
    3e78:	0e 00       	.word	0x000e;	????
    3e7a:	00 00       	beq			
    3e7c:	00 00       	beq			
    3e7e:	00 00       	beq			
    3e80:	44 00       	.word	0x0044;	????
    3e82:	0a 00       	.word	0x000a;	????
    3e84:	12 00       	.word	0x0012;	????
    3e86:	00 00       	beq			
    3e88:	00 00       	beq			
    3e8a:	00 00       	beq			
    3e8c:	44 00       	.word	0x0044;	????
    3e8e:	0b 00       	.word	0x000b;	????
    3e90:	16 00       	.word	0x0016;	????
    3e92:	00 00       	beq			
    3e94:	00 00       	beq			
    3e96:	00 00       	beq			
    3e98:	44 00       	.word	0x0044;	????
    3e9a:	0c 00       	.word	0x000c;	????
    3e9c:	1c 00       	.word	0x001c;	????
    3e9e:	00 00       	beq			
    3ea0:	00 00       	beq			
    3ea2:	00 00       	beq			
    3ea4:	24 00       	.word	0x0024;	????
    3ea6:	00 00       	beq			
    3ea8:	1e 00       	.word	0x001e;	????
    3eaa:	00 00       	beq			
    3eac:	34 37       	jge	$-406    	;abs 0x3d16
    3eae:	00 00       	beq			
    3eb0:	24 00       	.word	0x0024;	????
    3eb2:	0f 00       	.word	0x000f;	????
    3eb4:	12 2e       	jc	$-986    	;abs 0x3ada
    3eb6:	00 00       	beq			
    3eb8:	00 00       	beq			
    3eba:	00 00       	beq			
    3ebc:	44 00       	.word	0x0044;	????
    3ebe:	0f 00       	.word	0x000f;	????
	...
    3ec8:	44 00       	.word	0x0044;	????
    3eca:	10 00       	.word	0x0010;	????
	...
    3ed4:	44 00       	.word	0x0044;	????
    3ed6:	11 00       	.word	0x0011;	????
    3ed8:	06 00       	.word	0x0006;	????
    3eda:	00 00       	beq			
    3edc:	00 00       	beq			
    3ede:	00 00       	beq			
    3ee0:	44 00       	.word	0x0044;	????
    3ee2:	12 00       	.word	0x0012;	????
    3ee4:	0c 00       	.word	0x000c;	????
    3ee6:	00 00       	beq			
    3ee8:	00 00       	beq			
    3eea:	00 00       	beq			
    3eec:	24 00       	.word	0x0024;	????
    3eee:	00 00       	beq			
    3ef0:	0e 00       	.word	0x000e;	????
    3ef2:	00 00       	beq			
    3ef4:	4b 37       	jge	$-360    	;abs 0x3d8c
    3ef6:	00 00       	beq			
    3ef8:	24 00       	.word	0x0024;	????
    3efa:	15 00       	.word	0x0015;	????
    3efc:	20 2e       	jc	$-958    	;abs 0x3b3e
    3efe:	00 00       	beq			
    3f00:	2a 29       	jnc	$+598    	;abs 0x4156
    3f02:	00 00       	beq			
    3f04:	40 00       	.word	0x0040;	????
    3f06:	14 00       	.word	0x0014;	????
    3f08:	0e 00       	.word	0x000e;	????
    3f0a:	00 00       	beq			
    3f0c:	00 00       	beq			
    3f0e:	00 00       	beq			
    3f10:	44 00       	.word	0x0044;	????
    3f12:	15 00       	.word	0x0015;	????
	...
    3f1c:	44 00       	.word	0x0044;	????
    3f1e:	16 00       	.word	0x0016;	????
    3f20:	02 00       	.word	0x0002;	????
    3f22:	00 00       	beq			
    3f24:	00 00       	beq			
    3f26:	00 00       	beq			
    3f28:	44 00       	.word	0x0044;	????
    3f2a:	17 00       	.word	0x0017;	????
    3f2c:	08 00       	.word	0x0008;	????
    3f2e:	00 00       	beq			
    3f30:	00 00       	beq			
    3f32:	00 00       	beq			
    3f34:	44 00       	.word	0x0044;	????
    3f36:	18 00       	.word	0x0018;	????
    3f38:	0c 00       	.word	0x000c;	????
    3f3a:	00 00       	beq			
    3f3c:	00 00       	beq			
    3f3e:	00 00       	beq			
    3f40:	24 00       	.word	0x0024;	????
    3f42:	00 00       	beq			
    3f44:	0e 00       	.word	0x000e;	????
    3f46:	00 00       	beq			
    3f48:	5f 37       	jge	$-320    	;abs 0x3e08
    3f4a:	00 00       	beq			
    3f4c:	20 00       	.word	0x0020;	????
    3f4e:	12 00       	.word	0x0012;	????
    3f50:	00 00       	beq			
    3f52:	00 00       	beq			
    3f54:	6a 37       	jge	$-298    	;abs 0x3e2a
    3f56:	00 00       	beq			
    3f58:	20 00       	.word	0x0020;	????
    3f5a:	14 00       	.word	0x0014;	????
    3f5c:	00 00       	beq			
    3f5e:	00 00       	beq			
    3f60:	76 37       	jge	$-274    	;abs 0x3e4e
    3f62:	00 00       	beq			
    3f64:	20 00       	.word	0x0020;	????
    3f66:	16 00       	.word	0x0016;	????
    3f68:	00 00       	beq			
    3f6a:	00 00       	beq			
    3f6c:	81 37       	jge	$-252    	;abs 0x3e70
    3f6e:	00 00       	beq			
    3f70:	20 00       	.word	0x0020;	????
    3f72:	18 00       	.word	0x0018;	????
    3f74:	00 00       	beq			
    3f76:	00 00       	beq			
    3f78:	8d 37       	jge	$-228    	;abs 0x3e94
    3f7a:	00 00       	beq			
    3f7c:	20 00       	.word	0x0020;	????
    3f7e:	1a 00       	.word	0x001a;	????
    3f80:	00 00       	beq			
    3f82:	00 00       	beq			
    3f84:	98 37       	jge	$-206    	;abs 0x3eb6
    3f86:	00 00       	beq			
    3f88:	20 00       	.word	0x0020;	????
    3f8a:	1c 00       	.word	0x001c;	????
    3f8c:	00 00       	beq			
    3f8e:	00 00       	beq			
    3f90:	a5 37       	jge	$-180    	;abs 0x3edc
    3f92:	00 00       	beq			
    3f94:	20 00       	.word	0x0020;	????
    3f96:	1e 00       	.word	0x001e;	????
    3f98:	00 00       	beq			
    3f9a:	00 00       	beq			
    3f9c:	b2 37       	jge	$-154    	;abs 0x3f02
    3f9e:	00 00       	beq			
    3fa0:	20 00       	.word	0x0020;	????
    3fa2:	20 00       	.word	0x0020;	????
    3fa4:	00 00       	beq			
    3fa6:	00 00       	beq			
    3fa8:	c0 37       	jge	$-126    	;abs 0x3f2a
    3faa:	00 00       	beq			
    3fac:	20 00       	.word	0x0020;	????
    3fae:	88 00       	.word	0x0088;	????
    3fb0:	00 00       	beq			
    3fb2:	00 00       	beq			
    3fb4:	cd 37       	jge	$-100    	;abs 0x3f50
    3fb6:	00 00       	beq			
    3fb8:	20 00       	.word	0x0020;	????
    3fba:	8c 00       	.word	0x008c;	????
    3fbc:	00 00       	beq			
    3fbe:	00 00       	beq			
    3fc0:	da 37       	jge	$-74     	;abs 0x3f76
    3fc2:	00 00       	beq			
    3fc4:	20 00       	.word	0x0020;	????
    3fc6:	90 00       	.word	0x0090;	????
    3fc8:	00 00       	beq			
    3fca:	00 00       	beq			
    3fcc:	e7 37       	jge	$-48     	;abs 0x3f9c
    3fce:	00 00       	beq			
    3fd0:	20 00       	.word	0x0020;	????
    3fd2:	94 00       	.word	0x0094;	????
    3fd4:	00 00       	beq			
    3fd6:	00 00       	beq			
    3fd8:	f4 37       	jge	$-22     	;abs 0x3fc2
    3fda:	00 00       	beq			
    3fdc:	20 00       	.word	0x0020;	????
    3fde:	98 00       	.word	0x0098;	????
    3fe0:	00 00       	beq			
    3fe2:	00 00       	beq			
    3fe4:	01 38       	jl	$+4      	;abs 0x3fe8
    3fe6:	00 00       	beq			
    3fe8:	20 00       	.word	0x0020;	????
    3fea:	9c 00       	.word	0x009c;	????
    3fec:	00 00       	beq			
    3fee:	00 00       	beq			
    3ff0:	0e 38       	jl	$+30     	;abs 0x400e
    3ff2:	00 00       	beq			
    3ff4:	20 00       	.word	0x0020;	????
    3ff6:	72 00       	.word	0x0072;	????
    3ff8:	00 00       	beq			
    3ffa:	00 00       	beq			
    3ffc:	22 38       	jl	$+70     	;abs 0x4042
    3ffe:	00 00       	beq			
    4000:	20 00       	.word	0x0020;	????
    4002:	74 00       	.word	0x0074;	????
    4004:	00 00       	beq			
    4006:	00 00       	beq			
    4008:	2f 38       	jl	$+96     	;abs 0x4068
    400a:	00 00       	beq			
    400c:	20 00       	.word	0x0020;	????
    400e:	76 00       	.word	0x0076;	????
    4010:	00 00       	beq			
    4012:	00 00       	beq			
    4014:	3c 38       	jl	$+122    	;abs 0x408e
    4016:	00 00       	beq			
    4018:	20 00       	.word	0x0020;	????
    401a:	78 00       	.word	0x0078;	????
    401c:	00 00       	beq			
    401e:	00 00       	beq			
    4020:	49 38       	jl	$+148    	;abs 0x40b4
    4022:	00 00       	beq			
    4024:	20 00       	.word	0x0020;	????
    4026:	7a 00       	.word	0x007a;	????
    4028:	00 00       	beq			
    402a:	00 00       	beq			
    402c:	56 38       	jl	$+174    	;abs 0x40da
    402e:	00 00       	beq			
    4030:	20 00       	.word	0x0020;	????
    4032:	7c 00       	.word	0x007c;	????
    4034:	00 00       	beq			
    4036:	00 00       	beq			
    4038:	62 38       	jl	$+198    	;abs 0x40fe
    403a:	00 00       	beq			
    403c:	20 00       	.word	0x0020;	????
    403e:	7e 00       	.word	0x007e;	????
    4040:	00 00       	beq			
    4042:	00 00       	beq			
    4044:	6f 38       	jl	$+224    	;abs 0x4124
    4046:	00 00       	beq			
    4048:	20 00       	.word	0x0020;	????
    404a:	81 00       	.word	0x0081;	????
    404c:	00 00       	beq			
    404e:	00 00       	beq			
    4050:	7c 38       	jl	$+250    	;abs 0x414a
    4052:	00 00       	beq			
    4054:	20 00       	.word	0x0020;	????
    4056:	87 00       	.word	0x0087;	????
    4058:	00 00       	beq			
    405a:	00 00       	beq			
    405c:	88 38       	jl	$+274    	;abs 0x416e
    405e:	00 00       	beq			
    4060:	20 00       	.word	0x0020;	????
    4062:	89 00       	.word	0x0089;	????
    4064:	00 00       	beq			
    4066:	00 00       	beq			
    4068:	95 38       	jl	$+300    	;abs 0x4194
    406a:	00 00       	beq			
    406c:	20 00       	.word	0x0020;	????
    406e:	8b 00       	.word	0x008b;	????
    4070:	00 00       	beq			
    4072:	00 00       	beq			
    4074:	a2 38       	jl	$+326    	;abs 0x41ba
    4076:	00 00       	beq			
    4078:	20 00       	.word	0x0020;	????
    407a:	8d 00       	.word	0x008d;	????
    407c:	00 00       	beq			
    407e:	00 00       	beq			
    4080:	af 38       	jl	$+352    	;abs 0x41e0
    4082:	00 00       	beq			
    4084:	20 00       	.word	0x0020;	????
    4086:	8f 00       	.word	0x008f;	????
    4088:	00 00       	beq			
    408a:	00 00       	beq			
    408c:	bc 38       	jl	$+378    	;abs 0x4206
    408e:	00 00       	beq			
    4090:	20 00       	.word	0x0020;	????
    4092:	91 00       	.word	0x0091;	????
    4094:	00 00       	beq			
    4096:	00 00       	beq			
    4098:	c8 38       	jl	$+402    	;abs 0x422a
    409a:	00 00       	beq			
    409c:	20 00       	.word	0x0020;	????
    409e:	93 00       	.word	0x0093;	????
    40a0:	00 00       	beq			
    40a2:	00 00       	beq			
    40a4:	d5 38       	jl	$+428    	;abs 0x4250
    40a6:	00 00       	beq			
    40a8:	20 00       	.word	0x0020;	????
    40aa:	96 00       	.word	0x0096;	????
    40ac:	00 00       	beq			
    40ae:	00 00       	beq			
    40b0:	e2 38       	jl	$+454    	;abs 0x4276
    40b2:	00 00       	beq			
    40b4:	20 00       	.word	0x0020;	????
    40b6:	9c 00       	.word	0x009c;	????
    40b8:	00 00       	beq			
    40ba:	00 00       	beq			
    40bc:	ee 38       	jl	$+478    	;abs 0x429a
    40be:	00 00       	beq			
    40c0:	20 00       	.word	0x0020;	????
    40c2:	9e 00       	.word	0x009e;	????
    40c4:	00 00       	beq			
    40c6:	00 00       	beq			
    40c8:	fb 38       	jl	$+504    	;abs 0x42c0
    40ca:	00 00       	beq			
    40cc:	20 00       	.word	0x0020;	????
    40ce:	a0 00       	.word	0x00a0;	????
    40d0:	00 00       	beq			
    40d2:	00 00       	beq			
    40d4:	08 39       	jl	$+530    	;abs 0x42e6
    40d6:	00 00       	beq			
    40d8:	20 00       	.word	0x0020;	????
    40da:	a2 00       	.word	0x00a2;	????
    40dc:	00 00       	beq			
    40de:	00 00       	beq			
    40e0:	15 39       	jl	$+556    	;abs 0x430c
    40e2:	00 00       	beq			
    40e4:	20 00       	.word	0x0020;	????
    40e6:	a5 00       	.word	0x00a5;	????
    40e8:	00 00       	beq			
    40ea:	00 00       	beq			
    40ec:	22 39       	jl	$+582    	;abs 0x4332
    40ee:	00 00       	beq			
    40f0:	20 00       	.word	0x0020;	????
    40f2:	ab 00       	.word	0x00ab;	????
    40f4:	00 00       	beq			
    40f6:	00 00       	beq			
    40f8:	2e 39       	jl	$+606    	;abs 0x4356
    40fa:	00 00       	beq			
    40fc:	20 00       	.word	0x0020;	????
    40fe:	ad 00       	.word	0x00ad;	????
    4100:	00 00       	beq			
    4102:	00 00       	beq			
    4104:	3b 39       	jl	$+632    	;abs 0x437c
    4106:	00 00       	beq			
    4108:	20 00       	.word	0x0020;	????
    410a:	af 00       	.word	0x00af;	????
    410c:	00 00       	beq			
    410e:	00 00       	beq			
    4110:	48 39       	jl	$+658    	;abs 0x43a2
    4112:	00 00       	beq			
    4114:	20 00       	.word	0x0020;	????
    4116:	b1 00       	.word	0x00b1;	????
    4118:	00 00       	beq			
    411a:	00 00       	beq			
    411c:	55 39       	jl	$+684    	;abs 0x43c8
    411e:	00 00       	beq			
    4120:	20 00       	.word	0x0020;	????
    4122:	b4 00       	.word	0x00b4;	????
    4124:	00 00       	beq			
    4126:	00 00       	beq			
    4128:	62 39       	jl	$+710    	;abs 0x43ee
    412a:	00 00       	beq			
    412c:	20 00       	.word	0x0020;	????
    412e:	ba 00       	.word	0x00ba;	????
    4130:	00 00       	beq			
    4132:	00 00       	beq			
    4134:	6e 39       	jl	$+734    	;abs 0x4412
    4136:	00 00       	beq			
    4138:	20 00       	.word	0x0020;	????
    413a:	bc 00       	.word	0x00bc;	????
    413c:	00 00       	beq			
    413e:	00 00       	beq			
    4140:	7b 39       	jl	$+760    	;abs 0x4438
    4142:	00 00       	beq			
    4144:	20 00       	.word	0x0020;	????
    4146:	be 00       	.word	0x00be;	????
    4148:	00 00       	beq			
    414a:	00 00       	beq			
    414c:	88 39       	jl	$+786    	;abs 0x445e
    414e:	00 00       	beq			
    4150:	20 00       	.word	0x0020;	????
    4152:	c0 00       	.word	0x00c0;	????
    4154:	00 00       	beq			
    4156:	00 00       	beq			
    4158:	95 39       	jl	$+812    	;abs 0x4484
    415a:	00 00       	beq			
    415c:	20 00       	.word	0x0020;	????
    415e:	c3 00       	.word	0x00c3;	????
    4160:	00 00       	beq			
    4162:	00 00       	beq			
    4164:	a2 39       	jl	$+838    	;abs 0x44aa
    4166:	00 00       	beq			
    4168:	20 00       	.word	0x0020;	????
    416a:	c9 00       	.word	0x00c9;	????
    416c:	00 00       	beq			
    416e:	00 00       	beq			
    4170:	ae 39       	jl	$+862    	;abs 0x44ce
    4172:	00 00       	beq			
    4174:	20 00       	.word	0x0020;	????
    4176:	cb 00       	.word	0x00cb;	????
    4178:	00 00       	beq			
    417a:	00 00       	beq			
    417c:	bb 39       	jl	$+888    	;abs 0x44f4
    417e:	00 00       	beq			
    4180:	20 00       	.word	0x0020;	????
    4182:	cd 00       	.word	0x00cd;	????
    4184:	00 00       	beq			
    4186:	00 00       	beq			
    4188:	c8 39       	jl	$+914    	;abs 0x451a
    418a:	00 00       	beq			
    418c:	20 00       	.word	0x0020;	????
    418e:	cf 00       	.word	0x00cf;	????
    4190:	00 00       	beq			
    4192:	00 00       	beq			
    4194:	d5 39       	jl	$+940    	;abs 0x4540
    4196:	00 00       	beq			
    4198:	20 00       	.word	0x0020;	????
    419a:	d2 00       	.word	0x00d2;	????
    419c:	00 00       	beq			
    419e:	00 00       	beq			
    41a0:	e2 39       	jl	$+966    	;abs 0x4566
    41a2:	00 00       	beq			
    41a4:	20 00       	.word	0x0020;	????
    41a6:	f8 00       	.word	0x00f8;	????
    41a8:	00 00       	beq			
    41aa:	00 00       	beq			
    41ac:	f2 39       	jl	$+998    	;abs 0x4592
    41ae:	00 00       	beq			
    41b0:	20 00       	.word	0x0020;	????
    41b2:	fa 00       	.word	0x00fa;	????
    41b4:	00 00       	beq			
    41b6:	00 00       	beq			
    41b8:	02 3a       	jl	$-1018   	;abs 0x3dbe
    41ba:	00 00       	beq			
    41bc:	20 00       	.word	0x0020;	????
    41be:	fc 00       	.word	0x00fc;	????
    41c0:	00 00       	beq			
    41c2:	00 00       	beq			
    41c4:	11 3a       	jl	$-988    	;abs 0x3de8
    41c6:	00 00       	beq			
    41c8:	20 00       	.word	0x0020;	????
    41ca:	fe 00       	.word	0x00fe;	????
    41cc:	00 00       	beq			
    41ce:	00 00       	beq			
    41d0:	20 3a       	jl	$-958    	;abs 0x3e12
    41d2:	00 00       	beq			
    41d4:	20 00       	.word	0x0020;	????
    41d6:	00 01       	.word	0x0100;	????
    41d8:	00 00       	beq			
    41da:	00 00       	beq			
    41dc:	30 3a       	jl	$-926    	;abs 0x3e3e
    41de:	00 00       	beq			
    41e0:	20 00       	.word	0x0020;	????
    41e2:	02 01       	.word	0x0102;	????
    41e4:	00 00       	beq			
    41e6:	00 00       	beq			
    41e8:	40 3a       	jl	$-894    	;abs 0x3e6a
    41ea:	00 00       	beq			
    41ec:	20 00       	.word	0x0020;	????
    41ee:	04 01       	.word	0x0104;	????
    41f0:	00 00       	beq			
    41f2:	00 00       	beq			
    41f4:	51 3a       	jl	$-860    	;abs 0x3e98
    41f6:	00 00       	beq			
    41f8:	20 00       	.word	0x0020;	????
    41fa:	06 01       	.word	0x0106;	????
    41fc:	00 00       	beq			
    41fe:	00 00       	beq			
    4200:	62 3a       	jl	$-826    	;abs 0x3ec6
    4202:	00 00       	beq			
    4204:	20 00       	.word	0x0020;	????
    4206:	08 01       	.word	0x0108;	????
    4208:	00 00       	beq			
    420a:	00 00       	beq			
    420c:	73 3a       	jl	$-792    	;abs 0x3ef4
    420e:	00 00       	beq			
    4210:	20 00       	.word	0x0020;	????
    4212:	0a 01       	.word	0x010a;	????
    4214:	00 00       	beq			
    4216:	00 00       	beq			
    4218:	85 3a       	jl	$-756    	;abs 0x3f24
    421a:	00 00       	beq			
    421c:	20 00       	.word	0x0020;	????
    421e:	0c 01       	.word	0x010c;	????
    4220:	00 00       	beq			
    4222:	00 00       	beq			
    4224:	97 3a       	jl	$-720    	;abs 0x3f54
    4226:	00 00       	beq			
    4228:	20 00       	.word	0x0020;	????
    422a:	0f 01       	.word	0x010f;	????
    422c:	00 00       	beq			
    422e:	00 00       	beq			
    4230:	a7 3a       	jl	$-688    	;abs 0x3f80
    4232:	00 00       	beq			
    4234:	20 00       	.word	0x0020;	????
    4236:	11 01       	.word	0x0111;	????
    4238:	00 00       	beq			
    423a:	00 00       	beq			
    423c:	b7 3a       	jl	$-656    	;abs 0x3fac
    423e:	00 00       	beq			
    4240:	20 00       	.word	0x0020;	????
    4242:	13 01       	.word	0x0113;	????
    4244:	00 00       	beq			
    4246:	00 00       	beq			
    4248:	c6 3a       	jl	$-626    	;abs 0x3fd6
    424a:	00 00       	beq			
    424c:	20 00       	.word	0x0020;	????
    424e:	15 01       	.word	0x0115;	????
    4250:	00 00       	beq			
    4252:	00 00       	beq			
    4254:	d5 3a       	jl	$-596    	;abs 0x4000
    4256:	00 00       	beq			
    4258:	20 00       	.word	0x0020;	????
    425a:	17 01       	.word	0x0117;	????
    425c:	00 00       	beq			
    425e:	00 00       	beq			
    4260:	e6 3a       	jl	$-562    	;abs 0x402e
    4262:	00 00       	beq			
    4264:	20 00       	.word	0x0020;	????
    4266:	19 01       	.word	0x0119;	????
    4268:	00 00       	beq			
    426a:	00 00       	beq			
    426c:	f6 3a       	jl	$-530    	;abs 0x405a
    426e:	00 00       	beq			
    4270:	20 00       	.word	0x0020;	????
    4272:	1b 01       	.word	0x011b;	????
    4274:	00 00       	beq			
    4276:	00 00       	beq			
    4278:	07 3b       	jl	$-496    	;abs 0x4088
    427a:	00 00       	beq			
    427c:	20 00       	.word	0x0020;	????
    427e:	1d 01       	.word	0x011d;	????
    4280:	00 00       	beq			
    4282:	00 00       	beq			
    4284:	18 3b       	jl	$-462    	;abs 0x40b6
    4286:	00 00       	beq			
    4288:	20 00       	.word	0x0020;	????
    428a:	1f 01       	.word	0x011f;	????
    428c:	00 00       	beq			
    428e:	00 00       	beq			
    4290:	29 3b       	jl	$-428    	;abs 0x40e4
    4292:	00 00       	beq			
    4294:	20 00       	.word	0x0020;	????
    4296:	21 01       	.word	0x0121;	????
    4298:	00 00       	beq			
    429a:	00 00       	beq			
    429c:	3a 3b       	jl	$-394    	;abs 0x4112
    429e:	00 00       	beq			
    42a0:	20 00       	.word	0x0020;	????
    42a2:	28 01       	.word	0x0128;	????
    42a4:	00 00       	beq			
    42a6:	00 00       	beq			
    42a8:	4a 3b       	jl	$-362    	;abs 0x413e
    42aa:	00 00       	beq			
    42ac:	20 00       	.word	0x0020;	????
    42ae:	2a 01       	.word	0x012a;	????
    42b0:	00 00       	beq			
    42b2:	00 00       	beq			
    42b4:	5a 3b       	jl	$-330    	;abs 0x416a
    42b6:	00 00       	beq			
    42b8:	20 00       	.word	0x0020;	????
    42ba:	2c 01       	.word	0x012c;	????
    42bc:	00 00       	beq			
    42be:	00 00       	beq			
    42c0:	69 3b       	jl	$-300    	;abs 0x4194
    42c2:	00 00       	beq			
    42c4:	20 00       	.word	0x0020;	????
    42c6:	2e 01       	.word	0x012e;	????
    42c8:	00 00       	beq			
    42ca:	00 00       	beq			
    42cc:	78 3b       	jl	$-270    	;abs 0x41be
    42ce:	00 00       	beq			
    42d0:	20 00       	.word	0x0020;	????
    42d2:	30 01       	.word	0x0130;	????
    42d4:	00 00       	beq			
    42d6:	00 00       	beq			
    42d8:	88 3b       	jl	$-238    	;abs 0x41ea
    42da:	00 00       	beq			
    42dc:	20 00       	.word	0x0020;	????
    42de:	32 01       	.word	0x0132;	????
    42e0:	00 00       	beq			
    42e2:	00 00       	beq			
    42e4:	98 3b       	jl	$-206    	;abs 0x4216
    42e6:	00 00       	beq			
    42e8:	20 00       	.word	0x0020;	????
    42ea:	34 01       	.word	0x0134;	????
    42ec:	00 00       	beq			
    42ee:	00 00       	beq			
    42f0:	a9 3b       	jl	$-172    	;abs 0x4244
    42f2:	00 00       	beq			
    42f4:	20 00       	.word	0x0020;	????
    42f6:	36 01       	.word	0x0136;	????
    42f8:	00 00       	beq			
    42fa:	00 00       	beq			
    42fc:	ba 3b       	jl	$-138    	;abs 0x4272
    42fe:	00 00       	beq			
    4300:	20 00       	.word	0x0020;	????
    4302:	38 01       	.word	0x0138;	????
    4304:	00 00       	beq			
    4306:	00 00       	beq			
    4308:	cb 3b       	jl	$-104    	;abs 0x42a0
    430a:	00 00       	beq			
    430c:	20 00       	.word	0x0020;	????
    430e:	3a 01       	.word	0x013a;	????
    4310:	00 00       	beq			
    4312:	00 00       	beq			
    4314:	dd 3b       	jl	$-68     	;abs 0x42d0
    4316:	00 00       	beq			
    4318:	20 00       	.word	0x0020;	????
    431a:	3c 01       	.word	0x013c;	????
    431c:	00 00       	beq			
    431e:	00 00       	beq			
    4320:	ef 3b       	jl	$-32     	;abs 0x4300
    4322:	00 00       	beq			
    4324:	20 00       	.word	0x0020;	????
    4326:	3f 01       	.word	0x013f;	????
    4328:	00 00       	beq			
    432a:	00 00       	beq			
    432c:	ff 3b       	jl	$+0      	;abs 0x432c
    432e:	00 00       	beq			
    4330:	20 00       	.word	0x0020;	????
    4332:	41 01       	.word	0x0141;	????
    4334:	00 00       	beq			
    4336:	00 00       	beq			
    4338:	0f 3c       	jmp	$+32     	;abs 0x4358
    433a:	00 00       	beq			
    433c:	20 00       	.word	0x0020;	????
    433e:	43 01       	.word	0x0143;	????
    4340:	00 00       	beq			
    4342:	00 00       	beq			
    4344:	1e 3c       	jmp	$+62     	;abs 0x4382
    4346:	00 00       	beq			
    4348:	20 00       	.word	0x0020;	????
    434a:	45 01       	.word	0x0145;	????
    434c:	00 00       	beq			
    434e:	00 00       	beq			
    4350:	2d 3c       	jmp	$+92     	;abs 0x43ac
    4352:	00 00       	beq			
    4354:	20 00       	.word	0x0020;	????
    4356:	47 01       	.word	0x0147;	????
    4358:	00 00       	beq			
    435a:	00 00       	beq			
    435c:	3e 3c       	jmp	$+126    	;abs 0x43da
    435e:	00 00       	beq			
    4360:	20 00       	.word	0x0020;	????
    4362:	49 01       	.word	0x0149;	????
    4364:	00 00       	beq			
    4366:	00 00       	beq			
    4368:	4e 3c       	jmp	$+158    	;abs 0x4406
    436a:	00 00       	beq			
    436c:	20 00       	.word	0x0020;	????
    436e:	4b 01       	.word	0x014b;	????
    4370:	00 00       	beq			
    4372:	00 00       	beq			
    4374:	5f 3c       	jmp	$+192    	;abs 0x4434
    4376:	00 00       	beq			
    4378:	20 00       	.word	0x0020;	????
    437a:	4d 01       	.word	0x014d;	????
    437c:	00 00       	beq			
    437e:	00 00       	beq			
    4380:	70 3c       	jmp	$+226    	;abs 0x4462
    4382:	00 00       	beq			
    4384:	20 00       	.word	0x0020;	????
    4386:	4f 01       	.word	0x014f;	????
    4388:	00 00       	beq			
    438a:	00 00       	beq			
    438c:	81 3c       	jmp	$+260    	;abs 0x4490
    438e:	00 00       	beq			
    4390:	20 00       	.word	0x0020;	????
    4392:	51 01       	.word	0x0151;	????
    4394:	00 00       	beq			
    4396:	00 00       	beq			
    4398:	92 3c       	jmp	$+294    	;abs 0x44be
    439a:	00 00       	beq			
    439c:	20 00       	.word	0x0020;	????
    439e:	54 01       	.word	0x0154;	????
    43a0:	00 00       	beq			
    43a2:	00 00       	beq			
    43a4:	9f 3c       	jmp	$+320    	;abs 0x44e4
    43a6:	00 00       	beq			
    43a8:	20 00       	.word	0x0020;	????
    43aa:	56 01       	.word	0x0156;	????
    43ac:	00 00       	beq			
    43ae:	00 00       	beq			
    43b0:	ad 3c       	jmp	$+348    	;abs 0x450c
    43b2:	00 00       	beq			
    43b4:	20 00       	.word	0x0020;	????
    43b6:	19 00       	.word	0x0019;	????
    43b8:	00 00       	beq			
    43ba:	00 00       	beq			
    43bc:	ba 3c       	jmp	$+374    	;abs 0x4532
    43be:	00 00       	beq			
    43c0:	20 00       	.word	0x0020;	????
    43c2:	1b 00       	.word	0x001b;	????
    43c4:	00 00       	beq			
    43c6:	00 00       	beq			
    43c8:	c8 3c       	jmp	$+402    	;abs 0x455a
    43ca:	00 00       	beq			
    43cc:	20 00       	.word	0x0020;	????
    43ce:	1d 00       	.word	0x001d;	????
    43d0:	00 00       	beq			
    43d2:	00 00       	beq			
    43d4:	d4 3c       	jmp	$+426    	;abs 0x457e
    43d6:	00 00       	beq			
    43d8:	20 00       	.word	0x0020;	????
    43da:	20 00       	.word	0x0020;	????
    43dc:	00 00       	beq			
    43de:	00 00       	beq			
    43e0:	e4 3c       	jmp	$+458    	;abs 0x45aa
    43e2:	00 00       	beq			
    43e4:	20 00       	.word	0x0020;	????
    43e6:	22 00       	.word	0x0022;	????
    43e8:	00 00       	beq			
    43ea:	00 00       	beq			
    43ec:	f4 3c       	jmp	$+490    	;abs 0x45d6
    43ee:	00 00       	beq			
    43f0:	20 00       	.word	0x0020;	????
    43f2:	24 00       	.word	0x0024;	????
    43f4:	00 00       	beq			
    43f6:	00 00       	beq			
    43f8:	03 3d       	jmp	$+520    	;abs 0x4600
    43fa:	00 00       	beq			
    43fc:	20 00       	.word	0x0020;	????
    43fe:	26 00       	.word	0x0026;	????
    4400:	00 00       	beq			
    4402:	00 00       	beq			
    4404:	12 3d       	jmp	$+550    	;abs 0x462a
    4406:	00 00       	beq			
    4408:	20 00       	.word	0x0020;	????
    440a:	46 00       	.word	0x0046;	????
    440c:	00 00       	beq			
    440e:	00 00       	beq			
    4410:	22 3d       	jmp	$+582    	;abs 0x4656
    4412:	00 00       	beq			
    4414:	20 00       	.word	0x0020;	????
    4416:	48 00       	.word	0x0048;	????
    4418:	00 00       	beq			
    441a:	00 00       	beq			
    441c:	31 3d       	jmp	$+612    	;abs 0x4680
    441e:	00 00       	beq			
    4420:	20 00       	.word	0x0020;	????
    4422:	a0 00       	.word	0x00a0;	????
    4424:	00 00       	beq			
    4426:	00 00       	beq			
    4428:	3f 3d       	jmp	$+640    	;abs 0x46a8
    442a:	00 00       	beq			
    442c:	20 00       	.word	0x0020;	????
    442e:	16 00       	.word	0x0016;	????
    4430:	00 00       	beq			
    4432:	00 00       	beq			
    4434:	4b 3d       	jmp	$+664    	;abs 0x46cc
    4436:	00 00       	beq			
    4438:	20 00       	.word	0x0020;	????
    443a:	18 00       	.word	0x0018;	????
    443c:	00 00       	beq			
    443e:	00 00       	beq			
    4440:	58 3d       	jmp	$+690    	;abs 0x46f2
    4442:	00 00       	beq			
    4444:	20 00       	.word	0x0020;	????
    4446:	1a 00       	.word	0x001a;	????
    4448:	00 00       	beq			
    444a:	00 00       	beq			
    444c:	63 3d       	jmp	$+712    	;abs 0x4714
    444e:	00 00       	beq			
    4450:	20 00       	.word	0x0020;	????
    4452:	1d 00       	.word	0x001d;	????
    4454:	00 00       	beq			
    4456:	00 00       	beq			
    4458:	72 3d       	jmp	$+742    	;abs 0x473e
    445a:	00 00       	beq			
    445c:	20 00       	.word	0x0020;	????
    445e:	1f 00       	.word	0x001f;	????
    4460:	00 00       	beq			
    4462:	00 00       	beq			
    4464:	81 3d       	jmp	$+772    	;abs 0x4768
    4466:	00 00       	beq			
    4468:	20 00       	.word	0x0020;	????
    446a:	21 00       	.word	0x0021;	????
    446c:	00 00       	beq			
    446e:	00 00       	beq			
    4470:	90 3d       	jmp	$+802    	;abs 0x4792
    4472:	00 00       	beq			
    4474:	20 00       	.word	0x0020;	????
    4476:	23 00       	.word	0x0023;	????
    4478:	00 00       	beq			
    447a:	00 00       	beq			
    447c:	9e 3d       	jmp	$+830    	;abs 0x47ba
    447e:	00 00       	beq			
    4480:	20 00       	.word	0x0020;	????
    4482:	25 00       	.word	0x0025;	????
    4484:	00 00       	beq			
    4486:	00 00       	beq			
    4488:	ac 3d       	jmp	$+858    	;abs 0x47e2
    448a:	00 00       	beq			
    448c:	20 00       	.word	0x0020;	????
    448e:	27 00       	.word	0x0027;	????
    4490:	00 00       	beq			
    4492:	00 00       	beq			
    4494:	ba 3d       	jmp	$+886    	;abs 0x480a
    4496:	00 00       	beq			
    4498:	20 00       	.word	0x0020;	????
    449a:	2c 00       	.word	0x002c;	????
    449c:	00 00       	beq			
    449e:	00 00       	beq			
    44a0:	c9 3d       	jmp	$+916    	;abs 0x4834
    44a2:	00 00       	beq			
    44a4:	20 00       	.word	0x0020;	????
    44a6:	2e 00       	.word	0x002e;	????
    44a8:	00 00       	beq			
    44aa:	00 00       	beq			
    44ac:	d8 3d       	jmp	$+946    	;abs 0x485e
    44ae:	00 00       	beq			
    44b0:	20 00       	.word	0x0020;	????
    44b2:	30 00       	.word	0x0030;	????
    44b4:	00 00       	beq			
    44b6:	00 00       	beq			
    44b8:	e7 3d       	jmp	$+976    	;abs 0x4888
    44ba:	00 00       	beq			
    44bc:	20 00       	.word	0x0020;	????
    44be:	32 00       	.word	0x0032;	????
    44c0:	00 00       	beq			
    44c2:	00 00       	beq			
    44c4:	f6 3d       	jmp	$+1006   	;abs 0x48b2
    44c6:	00 00       	beq			
    44c8:	20 00       	.word	0x0020;	????
    44ca:	34 00       	.word	0x0034;	????
    44cc:	00 00       	beq			
    44ce:	00 00       	beq			
    44d0:	04 3e       	jmp	$-1014   	;abs 0x40da
    44d2:	00 00       	beq			
    44d4:	20 00       	.word	0x0020;	????
    44d6:	36 00       	.word	0x0036;	????
    44d8:	00 00       	beq			
    44da:	00 00       	beq			
    44dc:	12 3e       	jmp	$-986    	;abs 0x4102
    44de:	00 00       	beq			
    44e0:	20 00       	.word	0x0020;	????
    44e2:	38 00       	.word	0x0038;	????
    44e4:	00 00       	beq			
    44e6:	00 00       	beq			
    44e8:	20 3e       	jmp	$-958    	;abs 0x412a
    44ea:	00 00       	beq			
    44ec:	20 00       	.word	0x0020;	????
    44ee:	3a 00       	.word	0x003a;	????
    44f0:	00 00       	beq			
    44f2:	00 00       	beq			
    44f4:	2e 3e       	jmp	$-930    	;abs 0x4152
    44f6:	00 00       	beq			
    44f8:	20 00       	.word	0x0020;	????
    44fa:	7a 00       	.word	0x007a;	????
    44fc:	00 00       	beq			
    44fe:	00 00       	beq			
    4500:	3d 3e       	jmp	$-900    	;abs 0x417c
    4502:	00 00       	beq			
    4504:	20 00       	.word	0x0020;	????
    4506:	14 00       	.word	0x0014;	????
    4508:	00 00       	beq			
    450a:	00 00       	beq			
    450c:	4b 3e       	jmp	$-872    	;abs 0x41a4
    450e:	00 00       	beq			
    4510:	20 00       	.word	0x0020;	????
    4512:	16 00       	.word	0x0016;	????
    4514:	00 00       	beq			
    4516:	00 00       	beq			
    4518:	5a 3e       	jmp	$-842    	;abs 0x41ce
    451a:	00 00       	beq			
    451c:	20 00       	.word	0x0020;	????
    451e:	18 00       	.word	0x0018;	????
    4520:	00 00       	beq			
    4522:	00 00       	beq			
    4524:	69 3e       	jmp	$-812    	;abs 0x41f8
    4526:	00 00       	beq			
    4528:	20 00       	.word	0x0020;	????
    452a:	1b 00       	.word	0x001b;	????
    452c:	00 00       	beq			
    452e:	00 00       	beq			
    4530:	78 3e       	jmp	$-782    	;abs 0x4222
    4532:	00 00       	beq			
    4534:	20 00       	.word	0x0020;	????
    4536:	14 00       	.word	0x0014;	????
    4538:	00 00       	beq			
    453a:	00 00       	beq			
    453c:	85 3e       	jmp	$-756    	;abs 0x4248
    453e:	00 00       	beq			
    4540:	20 00       	.word	0x0020;	????
    4542:	16 00       	.word	0x0016;	????
    4544:	00 00       	beq			
    4546:	00 00       	beq			
    4548:	92 3e       	jmp	$-730    	;abs 0x426e
    454a:	00 00       	beq			
    454c:	20 00       	.word	0x0020;	????
    454e:	18 00       	.word	0x0018;	????
    4550:	00 00       	beq			
    4552:	00 00       	beq			
    4554:	9f 3e       	jmp	$-704    	;abs 0x4294
    4556:	00 00       	beq			
    4558:	20 00       	.word	0x0020;	????
    455a:	14 00       	.word	0x0014;	????
    455c:	00 00       	beq			
    455e:	00 00       	beq			
    4560:	ad 3e       	jmp	$-676    	;abs 0x42bc
    4562:	00 00       	beq			
    4564:	20 00       	.word	0x0020;	????
    4566:	16 00       	.word	0x0016;	????
    4568:	00 00       	beq			
    456a:	00 00       	beq			
    456c:	bb 3e       	jmp	$-648    	;abs 0x42e4
    456e:	00 00       	beq			
    4570:	20 00       	.word	0x0020;	????
    4572:	18 00       	.word	0x0018;	????
    4574:	00 00       	beq			
    4576:	00 00       	beq			
    4578:	c7 3e       	jmp	$-624    	;abs 0x4308
    457a:	00 00       	beq			
    457c:	20 00       	.word	0x0020;	????
    457e:	12 00       	.word	0x0012;	????
    4580:	00 00       	beq			
    4582:	00 00       	beq			
    4584:	d8 3e       	jmp	$-590    	;abs 0x4336
    4586:	00 00       	beq			
    4588:	20 00       	.word	0x0020;	????
    458a:	14 00       	.word	0x0014;	????
    458c:	00 00       	beq			
    458e:	00 00       	beq			
    4590:	e9 3e       	jmp	$-556    	;abs 0x4364
    4592:	00 00       	beq			
    4594:	20 00       	.word	0x0020;	????
    4596:	16 00       	.word	0x0016;	????
    4598:	00 00       	beq			
    459a:	00 00       	beq			
    459c:	f9 3e       	jmp	$-524    	;abs 0x4390
    459e:	00 00       	beq			
    45a0:	20 00       	.word	0x0020;	????
    45a2:	18 00       	.word	0x0018;	????
    45a4:	00 00       	beq			
    45a6:	00 00       	beq			
    45a8:	08 3f       	jmp	$-494    	;abs 0x43ba
    45aa:	00 00       	beq			
    45ac:	20 00       	.word	0x0020;	????
    45ae:	1a 00       	.word	0x001a;	????
    45b0:	00 00       	beq			
    45b2:	00 00       	beq			
    45b4:	17 3f       	jmp	$-464    	;abs 0x43e4
    45b6:	00 00       	beq			
    45b8:	20 00       	.word	0x0020;	????
    45ba:	58 00       	.word	0x0058;	????
    45bc:	00 00       	beq			
    45be:	00 00       	beq			
    45c0:	25 3f       	jmp	$-436    	;abs 0x440c
    45c2:	00 00       	beq			
    45c4:	20 00       	.word	0x0020;	????
    45c6:	64 00       	.word	0x0064;	????
    45c8:	00 00       	beq			
    45ca:	00 00       	beq			
    45cc:	36 3f       	jmp	$-402    	;abs 0x443a
    45ce:	00 00       	beq			
    45d0:	20 00       	.word	0x0020;	????
    45d2:	66 00       	.word	0x0066;	????
    45d4:	00 00       	beq			
    45d6:	00 00       	beq			
    45d8:	47 3f       	jmp	$-368    	;abs 0x4468
    45da:	00 00       	beq			
    45dc:	20 00       	.word	0x0020;	????
    45de:	68 00       	.word	0x0068;	????
    45e0:	00 00       	beq			
    45e2:	00 00       	beq			
    45e4:	58 3f       	jmp	$-334    	;abs 0x4496
    45e6:	00 00       	beq			
    45e8:	20 00       	.word	0x0020;	????
    45ea:	6a 00       	.word	0x006a;	????
    45ec:	00 00       	beq			
    45ee:	00 00       	beq			
    45f0:	69 3f       	jmp	$-300    	;abs 0x44c4
    45f2:	00 00       	beq			
    45f4:	20 00       	.word	0x0020;	????
    45f6:	6c 00       	.word	0x006c;	????
    45f8:	00 00       	beq			
    45fa:	00 00       	beq			
    45fc:	7a 3f       	jmp	$-266    	;abs 0x44f2
    45fe:	00 00       	beq			
    4600:	20 00       	.word	0x0020;	????
    4602:	6e 00       	.word	0x006e;	????
    4604:	00 00       	beq			
    4606:	00 00       	beq			
    4608:	8b 3f       	jmp	$-232    	;abs 0x4520
    460a:	00 00       	beq			
    460c:	20 00       	.word	0x0020;	????
    460e:	70 00       	.word	0x0070;	????
    4610:	00 00       	beq			
    4612:	00 00       	beq			
    4614:	9c 3f       	jmp	$-198    	;abs 0x454e
    4616:	00 00       	beq			
    4618:	20 00       	.word	0x0020;	????
    461a:	72 00       	.word	0x0072;	????
    461c:	00 00       	beq			
    461e:	00 00       	beq			
    4620:	ad 3f       	jmp	$-164    	;abs 0x457c
    4622:	00 00       	beq			
    4624:	20 00       	.word	0x0020;	????
    4626:	74 00       	.word	0x0074;	????
    4628:	00 00       	beq			
    462a:	00 00       	beq			
    462c:	be 3f       	jmp	$-130    	;abs 0x45aa
    462e:	00 00       	beq			
    4630:	20 00       	.word	0x0020;	????
    4632:	76 00       	.word	0x0076;	????
    4634:	00 00       	beq			
    4636:	00 00       	beq			
    4638:	cf 3f       	jmp	$-96     	;abs 0x45d8
    463a:	00 00       	beq			
    463c:	20 00       	.word	0x0020;	????
    463e:	78 00       	.word	0x0078;	????
    4640:	00 00       	beq			
    4642:	00 00       	beq			
    4644:	e1 3f       	jmp	$-60     	;abs 0x4608
    4646:	00 00       	beq			
    4648:	20 00       	.word	0x0020;	????
    464a:	7a 00       	.word	0x007a;	????
    464c:	00 00       	beq			
    464e:	00 00       	beq			
    4650:	f3 3f       	jmp	$-24     	;abs 0x4638
    4652:	00 00       	beq			
    4654:	20 00       	.word	0x0020;	????
    4656:	7c 00       	.word	0x007c;	????
    4658:	00 00       	beq			
    465a:	00 00       	beq			
    465c:	05 40       	mov	r0,	r5	;
    465e:	00 00       	beq			
    4660:	20 00       	.word	0x0020;	????
    4662:	7e 00       	.word	0x007e;	????
    4664:	00 00       	beq			
    4666:	00 00       	beq			
    4668:	17 40 00 00 	mov	0x0000,	r7	;PC rel. 0x466a
    466c:	20 00       	.word	0x0020;	????
    466e:	80 00       	.word	0x0080;	????
    4670:	00 00       	beq			
    4672:	00 00       	beq			
    4674:	29 40       	mov	@r0,	r9	;
    4676:	00 00       	beq			
    4678:	20 00       	.word	0x0020;	????
    467a:	82 00       	.word	0x0082;	????
    467c:	00 00       	beq			
    467e:	00 00       	beq			
    4680:	3b 40 00 00 	mov	#0,	r11	;#0x0000
    4684:	20 00       	.word	0x0020;	????
    4686:	8b 00       	.word	0x008b;	????
    4688:	00 00       	beq			
    468a:	00 00       	beq			
    468c:	4d 40       	mov.b	r0,	r13	;
    468e:	00 00       	beq			
    4690:	20 00       	.word	0x0020;	????
    4692:	8d 00       	.word	0x008d;	????
    4694:	00 00       	beq			
    4696:	00 00       	beq			
    4698:	5f 40 00 00 	mov.b	0x0000,	r15	;PC rel. 0x469a
    469c:	20 00       	.word	0x0020;	????
    469e:	8f 00       	.word	0x008f;	????
    46a0:	00 00       	beq			
    46a2:	00 00       	beq			
    46a4:	71 40 00 00 	mov.b	#0,	r1	;#0x0000
    46a8:	20 00       	.word	0x0020;	????
    46aa:	91 00       	.word	0x0091;	????
    46ac:	00 00       	beq			
    46ae:	00 00       	beq			
    46b0:	83 40 00 00 	mov	r0,	0(r3)	;
    46b4:	20 00       	.word	0x0020;	????
    46b6:	93 00       	.word	0x0093;	????
    46b8:	00 00       	beq			
    46ba:	00 00       	beq			
    46bc:	95 40 00 00 	mov	0x0000,	32(r5)	;PC rel. 0x46be
    46c0:	20 00 
    46c2:	95 00       	.word	0x0095;	????
    46c4:	00 00       	beq			
    46c6:	00 00       	beq			
    46c8:	a7 40 00 00 	mov	@r0,	0(r7)	;
    46cc:	20 00       	.word	0x0020;	????
    46ce:	97 00       	.word	0x0097;	????
    46d0:	00 00       	beq			
    46d2:	00 00       	beq			
    46d4:	b9 40 00 00 	mov	#0,	32(r9)	;#0x0000
    46d8:	20 00 
    46da:	99 00       	.word	0x0099;	????
    46dc:	00 00       	beq			
    46de:	00 00       	beq			
    46e0:	cb 40 00 00 	mov.b	r0,	0(r11)	;
    46e4:	20 00       	.word	0x0020;	????
    46e6:	9b 00       	.word	0x009b;	????
    46e8:	00 00       	beq			
    46ea:	00 00       	beq			
    46ec:	dd 40 00 00 	mov.b	0x0000,	32(r13)	;PC rel. 0x46ee
    46f0:	20 00 
    46f2:	9d 00       	.word	0x009d;	????
    46f4:	00 00       	beq			
    46f6:	00 00       	beq			
    46f8:	ef 40 00 00 	mov.b	@r0,	0(r15)	;
    46fc:	20 00       	.word	0x0020;	????
    46fe:	9f 00       	.word	0x009f;	????
    4700:	00 00       	beq			
    4702:	00 00       	beq			
    4704:	02 41       	mov	r1,	r2	;
    4706:	00 00       	beq			
    4708:	20 00       	.word	0x0020;	????
    470a:	a1 00       	.word	0x00a1;	????
    470c:	00 00       	beq			
    470e:	00 00       	beq			
    4710:	15 41 00 00 	mov	0(r1),	r5	;
    4714:	20 00       	.word	0x0020;	????
    4716:	a3 00       	.word	0x00a3;	????
    4718:	00 00       	beq			
    471a:	00 00       	beq			
    471c:	28 41       	mov	@r1,	r8	;
    471e:	00 00       	beq			
    4720:	20 00       	.word	0x0020;	????
    4722:	a5 00       	.word	0x00a5;	????
    4724:	00 00       	beq			
    4726:	00 00       	beq			
    4728:	3b 41       	pop	r11		;
    472a:	00 00       	beq			
    472c:	20 00       	.word	0x0020;	????
    472e:	a7 00       	.word	0x00a7;	????
    4730:	00 00       	beq			
    4732:	00 00       	beq			
    4734:	4e 41       	mov.b	r1,	r14	;
    4736:	00 00       	beq			
    4738:	20 00       	.word	0x0020;	????
    473a:	a9 00       	.word	0x00a9;	????
    473c:	00 00       	beq			
    473e:	00 00       	beq			
    4740:	61 41       	mov.b	@r1,	r1	;
    4742:	00 00       	beq			
    4744:	20 00       	.word	0x0020;	????
    4746:	12 00       	.word	0x0012;	????
    4748:	00 00       	beq			
    474a:	00 00       	beq			
    474c:	73 41       	pop.b	r3		;
    474e:	00 00       	beq			
    4750:	20 00       	.word	0x0020;	????
    4752:	14 00       	.word	0x0014;	????
    4754:	00 00       	beq			
    4756:	00 00       	beq			
    4758:	85 41 00 00 	mov	r1,	0(r5)	;
    475c:	20 00       	.word	0x0020;	????
    475e:	16 00       	.word	0x0016;	????
    4760:	00 00       	beq			
    4762:	00 00       	beq			
    4764:	97 41 00 00 	mov	0(r1),	32(r7)	;
    4768:	20 00 
    476a:	18 00       	.word	0x0018;	????
    476c:	00 00       	beq			
    476e:	00 00       	beq			
    4770:	a9 41 00 00 	mov	@r1,	0(r9)	;
    4774:	20 00       	.word	0x0020;	????
    4776:	12 00       	.word	0x0012;	????
    4778:	00 00       	beq			
    477a:	00 00       	beq			
    477c:	b8 41 00 00 	pop	0(r8)		;
    4780:	20 00       	.word	0x0020;	????
    4782:	14 00       	.word	0x0014;	????
    4784:	00 00       	beq			
    4786:	00 00       	beq			
    4788:	c7 41 00 00 	mov.b	r1,	0(r7)	;
    478c:	20 00       	.word	0x0020;	????
    478e:	35 00       	.word	0x0035;	????
    4790:	00 00       	beq			
    4792:	00 00       	beq			
    4794:	d6 41 00 00 	mov.b	0(r1),	32(r6)	;
    4798:	20 00 
    479a:	37 00       	.word	0x0037;	????
    479c:	00 00       	beq			
    479e:	00 00       	beq			
    47a0:	eb 41 00 00 	mov.b	@r1,	0(r11)	;
    47a4:	20 00       	.word	0x0020;	????
    47a6:	39 00       	.word	0x0039;	????
    47a8:	00 00       	beq			
    47aa:	00 00       	beq			
    47ac:	fa 41 00 00 	pop.b	0(r10)		;
    47b0:	20 00       	.word	0x0020;	????
    47b2:	3b 00       	.word	0x003b;	????
    47b4:	00 00       	beq			
    47b6:	00 00       	beq			
    47b8:	08 42       	mov	r2,	r8	;
    47ba:	00 00       	beq			
    47bc:	20 00       	.word	0x0020;	????
    47be:	3d 00       	.word	0x003d;	????
    47c0:	00 00       	beq			
    47c2:	00 00       	beq			
    47c4:	17 42 00 00 	mov	&0x0000,r7	;0x0000
    47c8:	20 00       	.word	0x0020;	????
    47ca:	3f 00       	.word	0x003f;	????
    47cc:	00 00       	beq			
    47ce:	00 00       	beq			
    47d0:	25 42       	mov	#4,	r5	;r2 As==10
    47d2:	00 00       	beq			
    47d4:	20 00       	.word	0x0020;	????
    47d6:	42 00       	.word	0x0042;	????
    47d8:	00 00       	beq			
    47da:	00 00       	beq			
    47dc:	34 42       	mov	#8,	r4	;r2 As==11
    47de:	00 00       	beq			
    47e0:	20 00       	.word	0x0020;	????
    47e2:	44 00       	.word	0x0044;	????
    47e4:	00 00       	beq			
    47e6:	00 00       	beq			
    47e8:	42 42       	mov.b	r2,	r2	;
    47ea:	00 00       	beq			
    47ec:	20 00       	.word	0x0020;	????
    47ee:	46 00       	.word	0x0046;	????
    47f0:	00 00       	beq			
    47f2:	00 00       	beq			
    47f4:	51 42 00 00 	mov.b	&0x0000,r1	;0x0000
    47f8:	20 00       	.word	0x0020;	????
    47fa:	48 00       	.word	0x0048;	????
    47fc:	00 00       	beq			
    47fe:	00 00       	beq			
    4800:	5f 42 00 00 	mov.b	&0x0000,r15	;0x0000
    4804:	20 00       	.word	0x0020;	????
    4806:	4a 00       	.word	0x004a;	????
    4808:	00 00       	beq			
    480a:	00 00       	beq			
    480c:	6e 42       	mov.b	#4,	r14	;r2 As==10
    480e:	00 00       	beq			
    4810:	20 00       	.word	0x0020;	????
    4812:	4c 00       	.word	0x004c;	????
    4814:	00 00       	beq			
    4816:	00 00       	beq			
    4818:	7c 42       	mov.b	#8,	r12	;r2 As==11
    481a:	00 00       	beq			
    481c:	20 00       	.word	0x0020;	????
    481e:	4f 00       	.word	0x004f;	????
    4820:	00 00       	beq			
    4822:	00 00       	beq			
    4824:	8b 42 00 00 	mov	r2,	0(r11)	;
    4828:	20 00       	.word	0x0020;	????
    482a:	51 00       	.word	0x0051;	????
    482c:	00 00       	beq			
    482e:	00 00       	beq			
    4830:	99 42 00 00 	mov	&0x0000,32(r9)	;0x0000
    4834:	20 00 
    4836:	53 00       	.word	0x0053;	????
    4838:	00 00       	beq			
    483a:	00 00       	beq			
    483c:	a8 42 00 00 	mov	#4,	0(r8)	;r2 As==10
    4840:	20 00       	.word	0x0020;	????
    4842:	55 00       	.word	0x0055;	????
    4844:	00 00       	beq			
    4846:	00 00       	beq			
    4848:	b6 42 00 00 	mov	#8,	0(r6)	;r2 As==11
    484c:	20 00       	.word	0x0020;	????
    484e:	57 00       	.word	0x0057;	????
    4850:	00 00       	beq			
    4852:	00 00       	beq			
    4854:	c5 42 00 00 	mov.b	r2,	0(r5)	;
    4858:	20 00       	.word	0x0020;	????
    485a:	59 00       	.word	0x0059;	????
    485c:	00 00       	beq			
    485e:	00 00       	beq			
    4860:	d3 42 00 00 	mov.b	&0x0000,32(r3)	;0x0000
    4864:	20 00 
    4866:	47 00       	.word	0x0047;	????
    4868:	00 00       	beq			
    486a:	00 00       	beq			
    486c:	e1 42 00 00 	mov.b	#4,	0(r1)	;r2 As==10
    4870:	20 00       	.word	0x0020;	????
    4872:	40 00       	.word	0x0040;	????
    4874:	00 00       	beq			
    4876:	00 00       	beq			
    4878:	ec 42 00 00 	mov.b	#4,	0(r12)	;r2 As==10
    487c:	20 00       	.word	0x0020;	????
    487e:	47 00       	.word	0x0047;	????
    4880:	00 00       	beq			
    4882:	00 00       	beq			
    4884:	f8 42 00 00 	mov.b	#8,	0(r8)	;r2 As==11
    4888:	20 00       	.word	0x0020;	????
    488a:	4f 00       	.word	0x004f;	????
    488c:	00 00       	beq			
    488e:	00 00       	beq			
    4890:	03 43       	nop			
    4892:	00 00       	beq			
    4894:	20 00       	.word	0x0020;	????
    4896:	57 00       	.word	0x0057;	????
    4898:	00 00       	beq			
    489a:	00 00       	beq			
    489c:	0f 43       	clr	r15		;
    489e:	00 00       	beq			
    48a0:	20 00       	.word	0x0020;	????
    48a2:	69 00       	.word	0x0069;	????
    48a4:	00 00       	beq			
    48a6:	00 00       	beq			
    48a8:	23 43       	.word	0x4323;	????
    48aa:	00 00       	beq			
    48ac:	20 00       	.word	0x0020;	????
    48ae:	6b 00       	.word	0x006b;	????
    48b0:	00 00       	beq			
    48b2:	00 00       	beq			
    48b4:	39 43       	mov	#-1,	r9	;r3 As==11
    48b6:	00 00       	beq			
    48b8:	20 00       	.word	0x0020;	????
    48ba:	6d 00       	.word	0x006d;	????
    48bc:	00 00       	beq			
    48be:	00 00       	beq			
    48c0:	4f 43       	clr.b	r15		;
    48c2:	00 00       	beq			
    48c4:	20 00       	.word	0x0020;	????
    48c6:	6f 00       	.word	0x006f;	????
    48c8:	00 00       	beq			
    48ca:	00 00       	beq			
    48cc:	66 43       	mov.b	#2,	r6	;r3 As==10
    48ce:	00 00       	beq			
    48d0:	20 00       	.word	0x0020;	????
    48d2:	71 00       	.word	0x0071;	????
    48d4:	00 00       	beq			
    48d6:	00 00       	beq			
    48d8:	7d 43       	mov.b	#-1,	r13	;r3 As==11
    48da:	00 00       	beq			
    48dc:	20 00       	.word	0x0020;	????
    48de:	8e 00       	.word	0x008e;	????
    48e0:	00 00       	beq			
    48e2:	00 00       	beq			
    48e4:	91 43 00 00 	mov	#1,	0(r1)	;r3 As==01
    48e8:	20 00       	.word	0x0020;	????
    48ea:	90 00       	.word	0x0090;	????
    48ec:	00 00       	beq			
    48ee:	00 00       	beq			
    48f0:	a5 43 00 00 	mov	#2,	0(r5)	;r3 As==10
    48f4:	20 00       	.word	0x0020;	????
    48f6:	92 00       	.word	0x0092;	????
    48f8:	00 00       	beq			
    48fa:	00 00       	beq			
    48fc:	b9 43 00 00 	mov	#-1,	0(r9)	;r3 As==11
    4900:	20 00       	.word	0x0020;	????
    4902:	94 00       	.word	0x0094;	????
    4904:	00 00       	beq			
    4906:	00 00       	beq			
    4908:	cd 43 00 00 	mov.b	#0,	0(r13)	;r3 As==00
    490c:	20 00       	.word	0x0020;	????
    490e:	96 00       	.word	0x0096;	????
    4910:	00 00       	beq			
    4912:	00 00       	beq			
    4914:	e0 43 00 00 	mov.b	#2,	0x0000	;r3 As==10, PC rel. 0x4916
    4918:	20 00       	.word	0x0020;	????
    491a:	98 00       	.word	0x0098;	????
    491c:	00 00       	beq			
    491e:	00 00       	beq			
    4920:	f3 43 00 00 	mov.b	#-1,	0(r3)	;r3 As==11
    4924:	20 00       	.word	0x0020;	????
    4926:	9a 00       	.word	0x009a;	????
    4928:	00 00       	beq			
    492a:	00 00       	beq			
    492c:	06 44       	mov	r4,	r6	;
    492e:	00 00       	beq			
    4930:	20 00       	.word	0x0020;	????
    4932:	9c 00       	.word	0x009c;	????
	...
    493c:	64 00       	.word	0x0064;	????
    493e:	00 00       	beq			
    4940:	2e 2e       	jc	$-930    	;abs 0x459e
    4942:	00 00       	beq			
    4944:	19 44 00 00 	mov	0(r4),	r9	;
    4948:	64 00       	.word	0x0064;	????
    494a:	00 00       	beq			
    494c:	2e 2e       	jc	$-930    	;abs 0x45aa
    494e:	00 00       	beq			
    4950:	4c 44       	mov.b	r4,	r12	;
    4952:	00 00       	beq			
    4954:	64 00       	.word	0x0064;	????
    4956:	00 00       	beq			
    4958:	2e 2e       	jc	$-930    	;abs 0x45b6
    495a:	00 00       	beq			
    495c:	5a 00       	.word	0x005a;	????
    495e:	00 00       	beq			
    4960:	3c 00       	.word	0x003c;	????
    4962:	00 00       	beq			
    4964:	00 00       	beq			
    4966:	00 00       	beq			
    4968:	69 00       	.word	0x0069;	????
    496a:	00 00       	beq			
    496c:	80 00       	.word	0x0080;	????
    496e:	00 00       	beq			
    4970:	00 00       	beq			
    4972:	00 00       	beq			
    4974:	89 00       	.word	0x0089;	????
    4976:	00 00       	beq			
    4978:	80 00       	.word	0x0080;	????
    497a:	00 00       	beq			
    497c:	00 00       	beq			
    497e:	00 00       	beq			
    4980:	a3 00       	.word	0x00a3;	????
    4982:	00 00       	beq			
    4984:	80 00       	.word	0x0080;	????
    4986:	00 00       	beq			
    4988:	00 00       	beq			
    498a:	00 00       	beq			
    498c:	dc 00       	.word	0x00dc;	????
    498e:	00 00       	beq			
    4990:	80 00       	.word	0x0080;	????
    4992:	00 00       	beq			
    4994:	00 00       	beq			
    4996:	00 00       	beq			
    4998:	14 01       	.word	0x0114;	????
    499a:	00 00       	beq			
    499c:	80 00       	.word	0x0080;	????
    499e:	00 00       	beq			
    49a0:	00 00       	beq			
    49a2:	00 00       	beq			
    49a4:	56 01       	.word	0x0156;	????
    49a6:	00 00       	beq			
    49a8:	80 00       	.word	0x0080;	????
    49aa:	00 00       	beq			
    49ac:	00 00       	beq			
    49ae:	00 00       	beq			
    49b0:	a7 01       	.word	0x01a7;	????
    49b2:	00 00       	beq			
    49b4:	80 00       	.word	0x0080;	????
    49b6:	00 00       	beq			
    49b8:	00 00       	beq			
    49ba:	00 00       	beq			
    49bc:	f8 01       	.word	0x01f8;	????
    49be:	00 00       	beq			
    49c0:	80 00       	.word	0x0080;	????
    49c2:	00 00       	beq			
    49c4:	00 00       	beq			
    49c6:	00 00       	beq			
    49c8:	1e 02       	.word	0x021e;	????
    49ca:	00 00       	beq			
    49cc:	80 00       	.word	0x0080;	????
    49ce:	00 00       	beq			
    49d0:	00 00       	beq			
    49d2:	00 00       	beq			
    49d4:	5c 02       	.word	0x025c;	????
    49d6:	00 00       	beq			
    49d8:	80 00       	.word	0x0080;	????
    49da:	00 00       	beq			
    49dc:	00 00       	beq			
    49de:	00 00       	beq			
    49e0:	86 02       	.word	0x0286;	????
    49e2:	00 00       	beq			
    49e4:	80 00       	.word	0x0080;	????
    49e6:	00 00       	beq			
    49e8:	00 00       	beq			
    49ea:	00 00       	beq			
    49ec:	af 02       	.word	0x02af;	????
    49ee:	00 00       	beq			
    49f0:	80 00       	.word	0x0080;	????
    49f2:	00 00       	beq			
    49f4:	00 00       	beq			
    49f6:	00 00       	beq			
    49f8:	c9 02       	.word	0x02c9;	????
    49fa:	00 00       	beq			
    49fc:	80 00       	.word	0x0080;	????
    49fe:	00 00       	beq			
    4a00:	00 00       	beq			
    4a02:	00 00       	beq			
    4a04:	e4 02       	.word	0x02e4;	????
    4a06:	00 00       	beq			
    4a08:	80 00       	.word	0x0080;	????
    4a0a:	00 00       	beq			
    4a0c:	00 00       	beq			
    4a0e:	00 00       	beq			
    4a10:	04 03       	.word	0x0304;	????
    4a12:	00 00       	beq			
    4a14:	80 00       	.word	0x0080;	????
    4a16:	00 00       	beq			
    4a18:	00 00       	beq			
    4a1a:	00 00       	beq			
    4a1c:	3d 03       	.word	0x033d;	????
    4a1e:	00 00       	beq			
    4a20:	80 00       	.word	0x0080;	????
    4a22:	00 00       	beq			
    4a24:	00 00       	beq			
    4a26:	00 00       	beq			
    4a28:	5b 03       	.word	0x035b;	????
    4a2a:	00 00       	beq			
    4a2c:	80 00       	.word	0x0080;	????
    4a2e:	00 00       	beq			
    4a30:	00 00       	beq			
    4a32:	00 00       	beq			
    4a34:	7a 03       	.word	0x037a;	????
    4a36:	00 00       	beq			
    4a38:	80 00       	.word	0x0080;	????
    4a3a:	00 00       	beq			
    4a3c:	00 00       	beq			
    4a3e:	00 00       	beq			
    4a40:	9e 03       	.word	0x039e;	????
    4a42:	00 00       	beq			
    4a44:	80 00       	.word	0x0080;	????
    4a46:	00 00       	beq			
    4a48:	00 00       	beq			
    4a4a:	00 00       	beq			
    4a4c:	c7 03       	.word	0x03c7;	????
    4a4e:	00 00       	beq			
    4a50:	80 00       	.word	0x0080;	????
    4a52:	00 00       	beq			
    4a54:	00 00       	beq			
    4a56:	00 00       	beq			
    4a58:	4c 44       	mov.b	r4,	r12	;
    4a5a:	00 00       	beq			
    4a5c:	82 00       	.word	0x0082;	????
    4a5e:	00 00       	beq			
    4a60:	aa 0e       	.word	0x0eaa;	????
    4a62:	00 00       	beq			
    4a64:	5c 44 00 00 	mov.b	0(r4),	r12	;
    4a68:	82 00       	.word	0x0082;	????
    4a6a:	00 00       	beq			
    4a6c:	00 00       	beq			
    4a6e:	00 00       	beq			
    4a70:	6f 44       	mov.b	@r4,	r15	;
    4a72:	00 00       	beq			
    4a74:	82 00       	.word	0x0082;	????
    4a76:	00 00       	beq			
    4a78:	13 10       	rrc	#1		;r3 As==01
    4a7a:	00 00       	beq			
    4a7c:	33 04       	.word	0x0433;	????
    4a7e:	00 00       	beq			
    4a80:	80 00       	.word	0x0080;	????
    4a82:	97 00       	.word	0x0097;	????
    4a84:	00 00       	beq			
    4a86:	00 00       	beq			
    4a88:	4a 04       	.word	0x044a;	????
    4a8a:	00 00       	beq			
    4a8c:	80 00       	.word	0x0080;	????
    4a8e:	d5 00       	.word	0x00d5;	????
    4a90:	00 00       	beq			
    4a92:	00 00       	beq			
    4a94:	5e 04       	.word	0x045e;	????
    4a96:	00 00       	beq			
    4a98:	80 00       	.word	0x0080;	????
    4a9a:	45 01       	.word	0x0145;	????
	...
    4aa4:	a2 00       	.word	0x00a2;	????
    4aa6:	00 00       	beq			
    4aa8:	00 00       	beq			
    4aaa:	00 00       	beq			
    4aac:	c5 44 00 00 	mov.b	r4,	0(r5)	;
    4ab0:	82 00       	.word	0x0082;	????
    4ab2:	00 00       	beq			
    4ab4:	ea a9 00 00 	dadd.b	@r9,	0(r10)	;
    4ab8:	dc 44 00 00 	mov.b	0(r4),	130(r12);
    4abc:	82 00 
	...
    4ac6:	00 00       	beq			
    4ac8:	a2 00       	.word	0x00a2;	????
    4aca:	00 00       	beq			
    4acc:	00 00       	beq			
    4ace:	00 00       	beq			
    4ad0:	f3 44 00 00 	mov.b	@r4+,	0(r3)	;
    4ad4:	82 00       	.word	0x0082;	????
    4ad6:	00 00       	beq			
    4ad8:	91 34       	jge	$+292    	;abs 0x4bfc
    4ada:	00 00       	beq			
    4adc:	e5 04       	.word	0x04e5;	????
    4ade:	00 00       	beq			
    4ae0:	80 00       	.word	0x0080;	????
    4ae2:	26 00       	.word	0x0026;	????
    4ae4:	00 00       	beq			
    4ae6:	00 00       	beq			
    4ae8:	fa 04       	.word	0x04fa;	????
    4aea:	00 00       	beq			
    4aec:	80 00       	.word	0x0080;	????
    4aee:	27 00       	.word	0x0027;	????
    4af0:	00 00       	beq			
    4af2:	00 00       	beq			
    4af4:	10 05       	.word	0x0510;	????
    4af6:	00 00       	beq			
    4af8:	80 00       	.word	0x0080;	????
    4afa:	29 00       	.word	0x0029;	????
    4afc:	00 00       	beq			
    4afe:	00 00       	beq			
    4b00:	25 05       	.word	0x0525;	????
    4b02:	00 00       	beq			
    4b04:	80 00       	.word	0x0080;	????
    4b06:	2a 00       	.word	0x002a;	????
    4b08:	00 00       	beq			
    4b0a:	00 00       	beq			
    4b0c:	3b 05       	.word	0x053b;	????
    4b0e:	00 00       	beq			
    4b10:	80 00       	.word	0x0080;	????
    4b12:	2c 00       	.word	0x002c;	????
    4b14:	00 00       	beq			
    4b16:	00 00       	beq			
    4b18:	50 05       	.word	0x0550;	????
    4b1a:	00 00       	beq			
    4b1c:	80 00       	.word	0x0080;	????
    4b1e:	2d 00       	.word	0x002d;	????
    4b20:	00 00       	beq			
    4b22:	00 00       	beq			
    4b24:	66 05       	.word	0x0566;	????
    4b26:	00 00       	beq			
    4b28:	80 00       	.word	0x0080;	????
    4b2a:	2f 00       	.word	0x002f;	????
    4b2c:	00 00       	beq			
    4b2e:	00 00       	beq			
    4b30:	7b 05       	.word	0x057b;	????
    4b32:	00 00       	beq			
    4b34:	80 00       	.word	0x0080;	????
    4b36:	30 00       	.word	0x0030;	????
    4b38:	00 00       	beq			
    4b3a:	00 00       	beq			
    4b3c:	91 05       	.word	0x0591;	????
    4b3e:	00 00       	beq			
    4b40:	80 00       	.word	0x0080;	????
    4b42:	35 00       	.word	0x0035;	????
    4b44:	00 00       	beq			
    4b46:	00 00       	beq			
    4b48:	a7 05       	.word	0x05a7;	????
    4b4a:	00 00       	beq			
    4b4c:	80 00       	.word	0x0080;	????
    4b4e:	36 00       	.word	0x0036;	????
	...
    4b58:	a2 00       	.word	0x00a2;	????
    4b5a:	00 00       	beq			
    4b5c:	00 00       	beq			
    4b5e:	00 00       	beq			
    4b60:	bf 05       	.word	0x05bf;	????
    4b62:	00 00       	beq			
    4b64:	80 00       	.word	0x0080;	????
    4b66:	29 00       	.word	0x0029;	????
    4b68:	00 00       	beq			
    4b6a:	00 00       	beq			
    4b6c:	d4 05       	.word	0x05d4;	????
    4b6e:	00 00       	beq			
    4b70:	80 00       	.word	0x0080;	????
    4b72:	2a 00       	.word	0x002a;	????
    4b74:	00 00       	beq			
    4b76:	00 00       	beq			
    4b78:	e9 05       	.word	0x05e9;	????
    4b7a:	00 00       	beq			
    4b7c:	80 00       	.word	0x0080;	????
    4b7e:	2b 00       	.word	0x002b;	????
    4b80:	00 00       	beq			
    4b82:	00 00       	beq			
    4b84:	fc 05       	.word	0x05fc;	????
    4b86:	00 00       	beq			
    4b88:	80 00       	.word	0x0080;	????
    4b8a:	2c 00       	.word	0x002c;	????
    4b8c:	00 00       	beq			
    4b8e:	00 00       	beq			
    4b90:	10 06       	.word	0x0610;	????
    4b92:	00 00       	beq			
    4b94:	80 00       	.word	0x0080;	????
    4b96:	2d 00       	.word	0x002d;	????
    4b98:	00 00       	beq			
    4b9a:	00 00       	beq			
    4b9c:	24 06       	.word	0x0624;	????
    4b9e:	00 00       	beq			
    4ba0:	80 00       	.word	0x0080;	????
    4ba2:	2e 00       	.word	0x002e;	????
    4ba4:	00 00       	beq			
    4ba6:	00 00       	beq			
    4ba8:	36 06       	.word	0x0636;	????
    4baa:	00 00       	beq			
    4bac:	80 00       	.word	0x0080;	????
    4bae:	30 00       	.word	0x0030;	????
    4bb0:	00 00       	beq			
    4bb2:	00 00       	beq			
    4bb4:	4c 06       	.word	0x064c;	????
    4bb6:	00 00       	beq			
    4bb8:	80 00       	.word	0x0080;	????
    4bba:	31 00       	.word	0x0031;	????
    4bbc:	00 00       	beq			
    4bbe:	00 00       	beq			
    4bc0:	63 06       	.word	0x0663;	????
    4bc2:	00 00       	beq			
    4bc4:	80 00       	.word	0x0080;	????
    4bc6:	32 00       	.word	0x0032;	????
    4bc8:	00 00       	beq			
    4bca:	00 00       	beq			
    4bcc:	7a 06       	.word	0x067a;	????
    4bce:	00 00       	beq			
    4bd0:	80 00       	.word	0x0080;	????
    4bd2:	33 00       	.word	0x0033;	????
    4bd4:	00 00       	beq			
    4bd6:	00 00       	beq			
    4bd8:	92 06       	.word	0x0692;	????
    4bda:	00 00       	beq			
    4bdc:	80 00       	.word	0x0080;	????
    4bde:	35 00       	.word	0x0035;	????
    4be0:	00 00       	beq			
    4be2:	00 00       	beq			
    4be4:	aa 06       	.word	0x06aa;	????
    4be6:	00 00       	beq			
    4be8:	80 00       	.word	0x0080;	????
    4bea:	36 00       	.word	0x0036;	????
    4bec:	00 00       	beq			
    4bee:	00 00       	beq			
    4bf0:	bf 06       	.word	0x06bf;	????
    4bf2:	00 00       	beq			
    4bf4:	80 00       	.word	0x0080;	????
    4bf6:	37 00       	.word	0x0037;	????
    4bf8:	00 00       	beq			
    4bfa:	00 00       	beq			
    4bfc:	de 06       	.word	0x06de;	????
    4bfe:	00 00       	beq			
    4c00:	80 00       	.word	0x0080;	????
    4c02:	39 00       	.word	0x0039;	????
    4c04:	00 00       	beq			
    4c06:	00 00       	beq			
    4c08:	fc 06       	.word	0x06fc;	????
    4c0a:	00 00       	beq			
    4c0c:	80 00       	.word	0x0080;	????
    4c0e:	3a 00       	.word	0x003a;	????
    4c10:	00 00       	beq			
    4c12:	00 00       	beq			
    4c14:	24 07       	.word	0x0724;	????
    4c16:	00 00       	beq			
    4c18:	80 00       	.word	0x0080;	????
    4c1a:	3b 00       	.word	0x003b;	????
    4c1c:	00 00       	beq			
    4c1e:	00 00       	beq			
    4c20:	4c 07       	.word	0x074c;	????
    4c22:	00 00       	beq			
    4c24:	80 00       	.word	0x0080;	????
    4c26:	3c 00       	.word	0x003c;	????
    4c28:	00 00       	beq			
    4c2a:	00 00       	beq			
    4c2c:	62 07       	.word	0x0762;	????
    4c2e:	00 00       	beq			
    4c30:	80 00       	.word	0x0080;	????
    4c32:	3d 00       	.word	0x003d;	????
    4c34:	00 00       	beq			
    4c36:	00 00       	beq			
    4c38:	76 07       	.word	0x0776;	????
    4c3a:	00 00       	beq			
    4c3c:	80 00       	.word	0x0080;	????
    4c3e:	3e 00       	.word	0x003e;	????
    4c40:	00 00       	beq			
    4c42:	00 00       	beq			
    4c44:	8e 07       	.word	0x078e;	????
    4c46:	00 00       	beq			
    4c48:	80 00       	.word	0x0080;	????
    4c4a:	3f 00       	.word	0x003f;	????
    4c4c:	00 00       	beq			
    4c4e:	00 00       	beq			
    4c50:	a6 07       	.word	0x07a6;	????
    4c52:	00 00       	beq			
    4c54:	80 00       	.word	0x0080;	????
    4c56:	40 00       	.word	0x0040;	????
    4c58:	00 00       	beq			
    4c5a:	00 00       	beq			
    4c5c:	ba 07       	.word	0x07ba;	????
    4c5e:	00 00       	beq			
    4c60:	80 00       	.word	0x0080;	????
    4c62:	41 00       	.word	0x0041;	????
    4c64:	00 00       	beq			
    4c66:	00 00       	beq			
    4c68:	ce 07       	.word	0x07ce;	????
    4c6a:	00 00       	beq			
    4c6c:	80 00       	.word	0x0080;	????
    4c6e:	42 00       	.word	0x0042;	????
    4c70:	00 00       	beq			
    4c72:	00 00       	beq			
    4c74:	e3 07       	.word	0x07e3;	????
    4c76:	00 00       	beq			
    4c78:	80 00       	.word	0x0080;	????
    4c7a:	43 00       	.word	0x0043;	????
    4c7c:	00 00       	beq			
    4c7e:	00 00       	beq			
    4c80:	f9 07       	.word	0x07f9;	????
    4c82:	00 00       	beq			
    4c84:	80 00       	.word	0x0080;	????
    4c86:	44 00       	.word	0x0044;	????
    4c88:	00 00       	beq			
    4c8a:	00 00       	beq			
    4c8c:	0f 08       	.word	0x080f;	????
    4c8e:	00 00       	beq			
    4c90:	80 00       	.word	0x0080;	????
    4c92:	45 00       	.word	0x0045;	????
    4c94:	00 00       	beq			
    4c96:	00 00       	beq			
    4c98:	25 08       	.word	0x0825;	????
    4c9a:	00 00       	beq			
    4c9c:	80 00       	.word	0x0080;	????
    4c9e:	46 00       	.word	0x0046;	????
    4ca0:	00 00       	beq			
    4ca2:	00 00       	beq			
    4ca4:	3b 08       	.word	0x083b;	????
    4ca6:	00 00       	beq			
    4ca8:	80 00       	.word	0x0080;	????
    4caa:	47 00       	.word	0x0047;	????
    4cac:	00 00       	beq			
    4cae:	00 00       	beq			
    4cb0:	55 08       	.word	0x0855;	????
    4cb2:	00 00       	beq			
    4cb4:	80 00       	.word	0x0080;	????
    4cb6:	48 00       	.word	0x0048;	????
    4cb8:	00 00       	beq			
    4cba:	00 00       	beq			
    4cbc:	6e 08       	.word	0x086e;	????
    4cbe:	00 00       	beq			
    4cc0:	80 00       	.word	0x0080;	????
    4cc2:	49 00       	.word	0x0049;	????
	...
    4ccc:	a2 00       	.word	0x00a2;	????
    4cce:	00 00       	beq			
    4cd0:	00 00       	beq			
    4cd2:	00 00       	beq			
    4cd4:	0d 45       	mov	r5,	r13	;
    4cd6:	00 00       	beq			
    4cd8:	82 00       	.word	0x0082;	????
    4cda:	00 00       	beq			
    4cdc:	76 0d       	.word	0x0d76;	????
    4cde:	00 00       	beq			
    4ce0:	b6 08       	.word	0x08b6;	????
    4ce2:	00 00       	beq			
    4ce4:	80 00       	.word	0x0080;	????
    4ce6:	2b 00       	.word	0x002b;	????
    4ce8:	00 00       	beq			
    4cea:	00 00       	beq			
    4cec:	d3 08       	.word	0x08d3;	????
    4cee:	00 00       	beq			
    4cf0:	80 00       	.word	0x0080;	????
    4cf2:	6e 00       	.word	0x006e;	????
	...
    4cfc:	a2 00       	.word	0x00a2;	????
	...
    4d06:	00 00       	beq			
    4d08:	a2 00       	.word	0x00a2;	????
    4d0a:	00 00       	beq			
    4d0c:	00 00       	beq			
    4d0e:	00 00       	beq			
    4d10:	63 45       	.word	0x4563;	????
    4d12:	00 00       	beq			
    4d14:	24 00       	.word	0x0024;	????
    4d16:	23 00       	.word	0x0023;	????
    4d18:	2e 2e       	jc	$-930    	;abs 0x4976
    4d1a:	00 00       	beq			
    4d1c:	71 45       	mov.b	@r5+,	r1	;
    4d1e:	00 00       	beq			
    4d20:	a0 00       	.word	0x00a0;	????
    4d22:	22 00       	.word	0x0022;	????
	...
    4d2c:	44 00       	.word	0x0044;	????
    4d2e:	23 00       	.word	0x0023;	????
	...
    4d38:	44 00       	.word	0x0044;	????
    4d3a:	27 00       	.word	0x0027;	????
    4d3c:	06 00       	.word	0x0006;	????
    4d3e:	00 00       	beq			
    4d40:	00 00       	beq			
    4d42:	00 00       	beq			
    4d44:	44 00       	.word	0x0044;	????
    4d46:	29 00       	.word	0x0029;	????
    4d48:	10 00       	.word	0x0010;	????
    4d4a:	00 00       	beq			
    4d4c:	00 00       	beq			
    4d4e:	00 00       	beq			
    4d50:	44 00       	.word	0x0044;	????
    4d52:	2a 00       	.word	0x002a;	????
    4d54:	10 00       	.word	0x0010;	????
    4d56:	00 00       	beq			
    4d58:	80 45 00 00 	mov	r5,	0x0000	; PC rel. 0x4d5a
    4d5c:	40 00       	.word	0x0040;	????
    4d5e:	22 00       	.word	0x0022;	????
    4d60:	0e 00       	.word	0x000e;	????
    4d62:	00 00       	beq			
    4d64:	8f 45 00 00 	mov	r5,	0(r15)	;
    4d68:	40 00       	.word	0x0040;	????
    4d6a:	24 00       	.word	0x0024;	????
    4d6c:	0f 00       	.word	0x000f;	????
    4d6e:	00 00       	beq			
    4d70:	00 00       	beq			
    4d72:	00 00       	beq			
    4d74:	c0 00       	.word	0x00c0;	????
    4d76:	00 00       	beq			
    4d78:	06 00       	.word	0x0006;	????
    4d7a:	00 00       	beq			
    4d7c:	00 00       	beq			
    4d7e:	00 00       	beq			
    4d80:	e0 00       	.word	0x00e0;	????
    4d82:	00 00       	beq			
    4d84:	10 00       	.word	0x0010;	????
    4d86:	00 00       	beq			
    4d88:	00 00       	beq			
    4d8a:	00 00       	beq			
    4d8c:	24 00       	.word	0x0024;	????
    4d8e:	00 00       	beq			
    4d90:	12 00       	.word	0x0012;	????
    4d92:	00 00       	beq			
    4d94:	00 00       	beq			
    4d96:	00 00       	beq			
    4d98:	64 00       	.word	0x0064;	????
    4d9a:	00 00       	beq			
    4d9c:	40 2e       	jc	$-894    	;abs 0x4a1e
    4d9e:	00 00       	beq			
    4da0:	19 44 00 00 	mov	0(r4),	r9	;
    4da4:	64 00       	.word	0x0064;	????
    4da6:	00 00       	beq			
    4da8:	40 2e       	jc	$-894    	;abs 0x4a2a
    4daa:	00 00       	beq			
    4dac:	9a 45 00 00 	mov	0(r5),	100(r10);
    4db0:	64 00 
    4db2:	00 00       	beq			
    4db4:	40 2e       	jc	$-894    	;abs 0x4a36
    4db6:	00 00       	beq			
    4db8:	5a 00       	.word	0x005a;	????
    4dba:	00 00       	beq			
    4dbc:	3c 00       	.word	0x003c;	????
    4dbe:	00 00       	beq			
    4dc0:	00 00       	beq			
    4dc2:	00 00       	beq			
    4dc4:	69 00       	.word	0x0069;	????
    4dc6:	00 00       	beq			
    4dc8:	80 00       	.word	0x0080;	????
    4dca:	00 00       	beq			
    4dcc:	00 00       	beq			
    4dce:	00 00       	beq			
    4dd0:	89 00       	.word	0x0089;	????
    4dd2:	00 00       	beq			
    4dd4:	80 00       	.word	0x0080;	????
    4dd6:	00 00       	beq			
    4dd8:	00 00       	beq			
    4dda:	00 00       	beq			
    4ddc:	a3 00       	.word	0x00a3;	????
    4dde:	00 00       	beq			
    4de0:	80 00       	.word	0x0080;	????
    4de2:	00 00       	beq			
    4de4:	00 00       	beq			
    4de6:	00 00       	beq			
    4de8:	dc 00       	.word	0x00dc;	????
    4dea:	00 00       	beq			
    4dec:	80 00       	.word	0x0080;	????
    4dee:	00 00       	beq			
    4df0:	00 00       	beq			
    4df2:	00 00       	beq			
    4df4:	14 01       	.word	0x0114;	????
    4df6:	00 00       	beq			
    4df8:	80 00       	.word	0x0080;	????
    4dfa:	00 00       	beq			
    4dfc:	00 00       	beq			
    4dfe:	00 00       	beq			
    4e00:	56 01       	.word	0x0156;	????
    4e02:	00 00       	beq			
    4e04:	80 00       	.word	0x0080;	????
    4e06:	00 00       	beq			
    4e08:	00 00       	beq			
    4e0a:	00 00       	beq			
    4e0c:	a7 01       	.word	0x01a7;	????
    4e0e:	00 00       	beq			
    4e10:	80 00       	.word	0x0080;	????
    4e12:	00 00       	beq			
    4e14:	00 00       	beq			
    4e16:	00 00       	beq			
    4e18:	f8 01       	.word	0x01f8;	????
    4e1a:	00 00       	beq			
    4e1c:	80 00       	.word	0x0080;	????
    4e1e:	00 00       	beq			
    4e20:	00 00       	beq			
    4e22:	00 00       	beq			
    4e24:	1e 02       	.word	0x021e;	????
    4e26:	00 00       	beq			
    4e28:	80 00       	.word	0x0080;	????
    4e2a:	00 00       	beq			
    4e2c:	00 00       	beq			
    4e2e:	00 00       	beq			
    4e30:	5c 02       	.word	0x025c;	????
    4e32:	00 00       	beq			
    4e34:	80 00       	.word	0x0080;	????
    4e36:	00 00       	beq			
    4e38:	00 00       	beq			
    4e3a:	00 00       	beq			
    4e3c:	86 02       	.word	0x0286;	????
    4e3e:	00 00       	beq			
    4e40:	80 00       	.word	0x0080;	????
    4e42:	00 00       	beq			
    4e44:	00 00       	beq			
    4e46:	00 00       	beq			
    4e48:	af 02       	.word	0x02af;	????
    4e4a:	00 00       	beq			
    4e4c:	80 00       	.word	0x0080;	????
    4e4e:	00 00       	beq			
    4e50:	00 00       	beq			
    4e52:	00 00       	beq			
    4e54:	c9 02       	.word	0x02c9;	????
    4e56:	00 00       	beq			
    4e58:	80 00       	.word	0x0080;	????
    4e5a:	00 00       	beq			
    4e5c:	00 00       	beq			
    4e5e:	00 00       	beq			
    4e60:	e4 02       	.word	0x02e4;	????
    4e62:	00 00       	beq			
    4e64:	80 00       	.word	0x0080;	????
    4e66:	00 00       	beq			
    4e68:	00 00       	beq			
    4e6a:	00 00       	beq			
    4e6c:	04 03       	.word	0x0304;	????
    4e6e:	00 00       	beq			
    4e70:	80 00       	.word	0x0080;	????
    4e72:	00 00       	beq			
    4e74:	00 00       	beq			
    4e76:	00 00       	beq			
    4e78:	3d 03       	.word	0x033d;	????
    4e7a:	00 00       	beq			
    4e7c:	80 00       	.word	0x0080;	????
    4e7e:	00 00       	beq			
    4e80:	00 00       	beq			
    4e82:	00 00       	beq			
    4e84:	5b 03       	.word	0x035b;	????
    4e86:	00 00       	beq			
    4e88:	80 00       	.word	0x0080;	????
    4e8a:	00 00       	beq			
    4e8c:	00 00       	beq			
    4e8e:	00 00       	beq			
    4e90:	7a 03       	.word	0x037a;	????
    4e92:	00 00       	beq			
    4e94:	80 00       	.word	0x0080;	????
    4e96:	00 00       	beq			
    4e98:	00 00       	beq			
    4e9a:	00 00       	beq			
    4e9c:	9e 03       	.word	0x039e;	????
    4e9e:	00 00       	beq			
    4ea0:	80 00       	.word	0x0080;	????
    4ea2:	00 00       	beq			
    4ea4:	00 00       	beq			
    4ea6:	00 00       	beq			
    4ea8:	c7 03       	.word	0x03c7;	????
    4eaa:	00 00       	beq			
    4eac:	80 00       	.word	0x0080;	????
    4eae:	00 00       	beq			
    4eb0:	00 00       	beq			
    4eb2:	00 00       	beq			
    4eb4:	9a 45 00 00 	mov	0(r5),	130(r10);
    4eb8:	82 00 
    4eba:	00 00       	beq			
    4ebc:	ef 7f 00 00 	subc.b	@r15,	0(r15)	;
    4ec0:	ac 45 00 00 	mov	@r5,	0(r12)	;
    4ec4:	82 00       	.word	0x0082;	????
    4ec6:	00 00       	beq			
    4ec8:	00 00       	beq			
    4eca:	00 00       	beq			
    4ecc:	6f 44       	mov.b	@r4,	r15	;
    4ece:	00 00       	beq			
    4ed0:	c2 00       	.word	0x00c2;	????
    4ed2:	00 00       	beq			
    4ed4:	13 10       	rrc	#1		;r3 As==01
    4ed6:	00 00       	beq			
    4ed8:	c5 44 00 00 	mov.b	r4,	0(r5)	;
    4edc:	c2 00       	.word	0x00c2;	????
    4ede:	00 00       	beq			
    4ee0:	ea a9 00 00 	dadd.b	@r9,	0(r10)	;
    4ee4:	dc 44 00 00 	mov.b	0(r4),	194(r12);
    4ee8:	c2 00 
    4eea:	00 00       	beq			
    4eec:	00 00       	beq			
    4eee:	00 00       	beq			
    4ef0:	f3 44 00 00 	mov.b	@r4+,	0(r3)	;
    4ef4:	c2 00       	.word	0x00c2;	????
    4ef6:	00 00       	beq			
    4ef8:	91 34       	jge	$+292    	;abs 0x501c
    4efa:	00 00       	beq			
    4efc:	00 00       	beq			
    4efe:	00 00       	beq			
    4f00:	a2 00       	.word	0x00a2;	????
    4f02:	00 00       	beq			
    4f04:	00 00       	beq			
    4f06:	00 00       	beq			
    4f08:	0d 45       	mov	r5,	r13	;
    4f0a:	00 00       	beq			
    4f0c:	c2 00       	.word	0x00c2;	????
    4f0e:	00 00       	beq			
    4f10:	76 0d       	.word	0x0d76;	????
    4f12:	00 00       	beq			
    4f14:	c0 45 00 00 	mov.b	r5,	0x0000	; PC rel. 0x4f16
    4f18:	24 00       	.word	0x0024;	????
    4f1a:	6b 00       	.word	0x006b;	????
    4f1c:	40 2e       	jc	$-894    	;abs 0x4b9e
    4f1e:	00 00       	beq			
    4f20:	cd 45 00 00 	mov.b	r5,	0(r13)	;
    4f24:	40 00       	.word	0x0040;	????
    4f26:	6a 00       	.word	0x006a;	????
    4f28:	0a 00       	.word	0x000a;	????
    4f2a:	00 00       	beq			
    4f2c:	d9 45 00 00 	mov.b	0(r5),	64(r9)	;
    4f30:	40 00 
    4f32:	6a 00       	.word	0x006a;	????
    4f34:	0b 00       	.word	0x000b;	????
    4f36:	00 00       	beq			
    4f38:	00 00       	beq			
    4f3a:	00 00       	beq			
    4f3c:	44 00       	.word	0x0044;	????
    4f3e:	6b 00       	.word	0x006b;	????
	...
    4f48:	44 00       	.word	0x0044;	????
    4f4a:	6c 00       	.word	0x006c;	????
    4f4c:	08 00       	.word	0x0008;	????
    4f4e:	00 00       	beq			
    4f50:	00 00       	beq			
    4f52:	00 00       	beq			
    4f54:	44 00       	.word	0x0044;	????
    4f56:	74 00       	.word	0x0074;	????
    4f58:	0c 00       	.word	0x000c;	????
    4f5a:	00 00       	beq			
    4f5c:	00 00       	beq			
    4f5e:	00 00       	beq			
    4f60:	44 00       	.word	0x0044;	????
    4f62:	6e 00       	.word	0x006e;	????
    4f64:	10 00       	.word	0x0010;	????
    4f66:	00 00       	beq			
    4f68:	00 00       	beq			
    4f6a:	00 00       	beq			
    4f6c:	44 00       	.word	0x0044;	????
    4f6e:	72 00       	.word	0x0072;	????
    4f70:	1e 00       	.word	0x001e;	????
    4f72:	00 00       	beq			
    4f74:	00 00       	beq			
    4f76:	00 00       	beq			
    4f78:	44 00       	.word	0x0044;	????
    4f7a:	6c 00       	.word	0x006c;	????
    4f7c:	22 00       	.word	0x0022;	????
    4f7e:	00 00       	beq			
    4f80:	00 00       	beq			
    4f82:	00 00       	beq			
    4f84:	44 00       	.word	0x0044;	????
    4f86:	70 00       	.word	0x0070;	????
    4f88:	28 00       	.word	0x0028;	????
    4f8a:	00 00       	beq			
    4f8c:	00 00       	beq			
    4f8e:	00 00       	beq			
    4f90:	44 00       	.word	0x0044;	????
    4f92:	75 00       	.word	0x0075;	????
    4f94:	2a 00       	.word	0x002a;	????
    4f96:	00 00       	beq			
    4f98:	00 00       	beq			
    4f9a:	00 00       	beq			
    4f9c:	24 00       	.word	0x0024;	????
    4f9e:	00 00       	beq			
    4fa0:	30 00       	.word	0x0030;	????
    4fa2:	00 00       	beq			
    4fa4:	e4 45 00 00 	mov.b	@r5,	0(r4)	;
    4fa8:	24 00       	.word	0x0024;	????
    4faa:	7b 00       	.word	0x007b;	????
    4fac:	70 2e       	jc	$-798    	;abs 0x4c8e
    4fae:	00 00       	beq			
    4fb0:	f7 45 00 00 	mov.b	@r5+,	0(r7)	;
    4fb4:	40 00       	.word	0x0040;	????
    4fb6:	7a 00       	.word	0x007a;	????
    4fb8:	09 00       	.word	0x0009;	????
    4fba:	00 00       	beq			
    4fbc:	00 46       	br	r6		;
    4fbe:	00 00       	beq			
    4fc0:	40 00       	.word	0x0040;	????
    4fc2:	7a 00       	.word	0x007a;	????
    4fc4:	0b 00       	.word	0x000b;	????
    4fc6:	00 00       	beq			
    4fc8:	00 00       	beq			
    4fca:	00 00       	beq			
    4fcc:	44 00       	.word	0x0044;	????
    4fce:	7b 00       	.word	0x007b;	????
	...
    4fd8:	44 00       	.word	0x0044;	????
    4fda:	7c 00       	.word	0x007c;	????
    4fdc:	0a 00       	.word	0x000a;	????
    4fde:	00 00       	beq			
    4fe0:	00 00       	beq			
    4fe2:	00 00       	beq			
    4fe4:	44 00       	.word	0x0044;	????
    4fe6:	7e 00       	.word	0x007e;	????
    4fe8:	12 00       	.word	0x0012;	????
    4fea:	00 00       	beq			
    4fec:	00 00       	beq			
    4fee:	00 00       	beq			
    4ff0:	44 00       	.word	0x0044;	????
    4ff2:	82 00       	.word	0x0082;	????
    4ff4:	1c 00       	.word	0x001c;	????
    4ff6:	00 00       	beq			
    4ff8:	00 00       	beq			
    4ffa:	00 00       	beq			
    4ffc:	44 00       	.word	0x0044;	????
    4ffe:	7c 00       	.word	0x007c;	????
    5000:	20 00       	.word	0x0020;	????
    5002:	00 00       	beq			
    5004:	00 00       	beq			
    5006:	00 00       	beq			
    5008:	44 00       	.word	0x0044;	????
    500a:	84 00       	.word	0x0084;	????
    500c:	26 00       	.word	0x0026;	????
    500e:	00 00       	beq			
    5010:	00 00       	beq			
    5012:	00 00       	beq			
    5014:	44 00       	.word	0x0044;	????
    5016:	80 00       	.word	0x0080;	????
    5018:	2a 00       	.word	0x002a;	????
    501a:	00 00       	beq			
    501c:	00 00       	beq			
    501e:	00 00       	beq			
    5020:	44 00       	.word	0x0044;	????
    5022:	85 00       	.word	0x0085;	????
    5024:	2c 00       	.word	0x002c;	????
    5026:	00 00       	beq			
    5028:	00 00       	beq			
    502a:	00 00       	beq			
    502c:	24 00       	.word	0x0024;	????
    502e:	00 00       	beq			
    5030:	34 00       	.word	0x0034;	????
    5032:	00 00       	beq			
    5034:	10 46 00 00 	br	0(r6)		;
    5038:	24 00       	.word	0x0024;	????
    503a:	a1 00       	.word	0x00a1;	????
    503c:	a4 2e       	jc	$-694    	;abs 0x4d86
    503e:	00 00       	beq			
    5040:	20 46       	br	@r6		;
    5042:	00 00       	beq			
    5044:	40 00       	.word	0x0040;	????
    5046:	a0 00       	.word	0x00a0;	????
    5048:	0f 00       	.word	0x000f;	????
    504a:	00 00       	beq			
    504c:	3a 46       	mov	@r6+,	r10	;
    504e:	00 00       	beq			
    5050:	40 00       	.word	0x0040;	????
    5052:	a0 00       	.word	0x00a0;	????
    5054:	0e 00       	.word	0x000e;	????
    5056:	00 00       	beq			
    5058:	47 46       	mov.b	r6,	r7	;
    505a:	00 00       	beq			
    505c:	40 00       	.word	0x0040;	????
    505e:	a0 00       	.word	0x00a0;	????
    5060:	05 00       	.word	0x0005;	????
    5062:	00 00       	beq			
    5064:	00 00       	beq			
    5066:	00 00       	beq			
    5068:	44 00       	.word	0x0044;	????
    506a:	a1 00       	.word	0x00a1;	????
	...
    5074:	44 00       	.word	0x0044;	????
    5076:	ab 00       	.word	0x00ab;	????
    5078:	16 00       	.word	0x0016;	????
    507a:	00 00       	beq			
    507c:	00 00       	beq			
    507e:	00 00       	beq			
    5080:	44 00       	.word	0x0044;	????
    5082:	ba 00       	.word	0x00ba;	????
    5084:	1e 00       	.word	0x001e;	????
    5086:	00 00       	beq			
    5088:	00 00       	beq			
    508a:	00 00       	beq			
    508c:	44 00       	.word	0x0044;	????
    508e:	bb 00       	.word	0x00bb;	????
    5090:	22 00       	.word	0x0022;	????
    5092:	00 00       	beq			
    5094:	00 00       	beq			
    5096:	00 00       	beq			
    5098:	44 00       	.word	0x0044;	????
    509a:	bd 00       	.word	0x00bd;	????
    509c:	26 00       	.word	0x0026;	????
    509e:	00 00       	beq			
    50a0:	00 00       	beq			
    50a2:	00 00       	beq			
    50a4:	44 00       	.word	0x0044;	????
    50a6:	c4 00       	.word	0x00c4;	????
    50a8:	28 00       	.word	0x0028;	????
    50aa:	00 00       	beq			
    50ac:	00 00       	beq			
    50ae:	00 00       	beq			
    50b0:	44 00       	.word	0x0044;	????
    50b2:	c6 00       	.word	0x00c6;	????
    50b4:	44 00       	.word	0x0044;	????
    50b6:	00 00       	beq			
    50b8:	00 00       	beq			
    50ba:	00 00       	beq			
    50bc:	44 00       	.word	0x0044;	????
    50be:	ca 00       	.word	0x00ca;	????
    50c0:	4e 00       	.word	0x004e;	????
    50c2:	00 00       	beq			
    50c4:	00 00       	beq			
    50c6:	00 00       	beq			
    50c8:	44 00       	.word	0x0044;	????
    50ca:	cc 00       	.word	0x00cc;	????
    50cc:	56 00       	.word	0x0056;	????
    50ce:	00 00       	beq			
    50d0:	00 00       	beq			
    50d2:	00 00       	beq			
    50d4:	44 00       	.word	0x0044;	????
    50d6:	ce 00       	.word	0x00ce;	????
    50d8:	58 00       	.word	0x0058;	????
    50da:	00 00       	beq			
    50dc:	00 00       	beq			
    50de:	00 00       	beq			
    50e0:	44 00       	.word	0x0044;	????
    50e2:	cf 00       	.word	0x00cf;	????
    50e4:	5c 00       	.word	0x005c;	????
    50e6:	00 00       	beq			
    50e8:	00 00       	beq			
    50ea:	00 00       	beq			
    50ec:	44 00       	.word	0x0044;	????
    50ee:	d0 00       	.word	0x00d0;	????
    50f0:	60 00       	.word	0x0060;	????
    50f2:	00 00       	beq			
    50f4:	00 00       	beq			
    50f6:	00 00       	beq			
    50f8:	44 00       	.word	0x0044;	????
    50fa:	d1 00       	.word	0x00d1;	????
    50fc:	64 00       	.word	0x0064;	????
    50fe:	00 00       	beq			
    5100:	00 00       	beq			
    5102:	00 00       	beq			
    5104:	44 00       	.word	0x0044;	????
    5106:	d2 00       	.word	0x00d2;	????
    5108:	66 00       	.word	0x0066;	????
    510a:	00 00       	beq			
    510c:	00 00       	beq			
    510e:	00 00       	beq			
    5110:	44 00       	.word	0x0044;	????
    5112:	d5 00       	.word	0x00d5;	????
    5114:	6a 00       	.word	0x006a;	????
    5116:	00 00       	beq			
    5118:	00 00       	beq			
    511a:	00 00       	beq			
    511c:	44 00       	.word	0x0044;	????
    511e:	d7 00       	.word	0x00d7;	????
    5120:	6e 00       	.word	0x006e;	????
    5122:	00 00       	beq			
    5124:	00 00       	beq			
    5126:	00 00       	beq			
    5128:	44 00       	.word	0x0044;	????
    512a:	e5 00       	.word	0x00e5;	????
    512c:	88 00       	.word	0x0088;	????
    512e:	00 00       	beq			
    5130:	00 00       	beq			
    5132:	00 00       	beq			
    5134:	44 00       	.word	0x0044;	????
    5136:	f0 00       	.word	0x00f0;	????
    5138:	92 00       	.word	0x0092;	????
    513a:	00 00       	beq			
    513c:	00 00       	beq			
    513e:	00 00       	beq			
    5140:	44 00       	.word	0x0044;	????
    5142:	f5 00       	.word	0x00f5;	????
    5144:	9c 00       	.word	0x009c;	????
    5146:	00 00       	beq			
    5148:	00 00       	beq			
    514a:	00 00       	beq			
    514c:	44 00       	.word	0x0044;	????
    514e:	07 01       	.word	0x0107;	????
    5150:	b0 00       	.word	0x00b0;	????
    5152:	00 00       	beq			
    5154:	00 00       	beq			
    5156:	00 00       	beq			
    5158:	44 00       	.word	0x0044;	????
    515a:	0c 01       	.word	0x010c;	????
    515c:	ba 00       	.word	0x00ba;	????
    515e:	00 00       	beq			
    5160:	00 00       	beq			
    5162:	00 00       	beq			
    5164:	44 00       	.word	0x0044;	????
    5166:	1d 01       	.word	0x011d;	????
    5168:	c4 00       	.word	0x00c4;	????
    516a:	00 00       	beq			
    516c:	00 00       	beq			
    516e:	00 00       	beq			
    5170:	44 00       	.word	0x0044;	????
    5172:	28 01       	.word	0x0128;	????
    5174:	ce 00       	.word	0x00ce;	????
    5176:	00 00       	beq			
    5178:	00 00       	beq			
    517a:	00 00       	beq			
    517c:	44 00       	.word	0x0044;	????
    517e:	2a 01       	.word	0x012a;	????
    5180:	da 00       	.word	0x00da;	????
    5182:	00 00       	beq			
    5184:	00 00       	beq			
    5186:	00 00       	beq			
    5188:	44 00       	.word	0x0044;	????
    518a:	2d 01       	.word	0x012d;	????
    518c:	dc 00       	.word	0x00dc;	????
    518e:	00 00       	beq			
    5190:	00 00       	beq			
    5192:	00 00       	beq			
    5194:	44 00       	.word	0x0044;	????
    5196:	2e 01       	.word	0x012e;	????
    5198:	f8 00       	.word	0x00f8;	????
    519a:	00 00       	beq			
    519c:	00 00       	beq			
    519e:	00 00       	beq			
    51a0:	44 00       	.word	0x0044;	????
    51a2:	2f 01       	.word	0x012f;	????
    51a4:	fc 00       	.word	0x00fc;	????
    51a6:	00 00       	beq			
    51a8:	00 00       	beq			
    51aa:	00 00       	beq			
    51ac:	44 00       	.word	0x0044;	????
    51ae:	31 01       	.word	0x0131;	????
    51b0:	08 01       	.word	0x0108;	????
    51b2:	00 00       	beq			
    51b4:	00 00       	beq			
    51b6:	00 00       	beq			
    51b8:	44 00       	.word	0x0044;	????
    51ba:	32 01       	.word	0x0132;	????
    51bc:	0c 01       	.word	0x010c;	????
    51be:	00 00       	beq			
    51c0:	00 00       	beq			
    51c2:	00 00       	beq			
    51c4:	44 00       	.word	0x0044;	????
    51c6:	34 01       	.word	0x0134;	????
    51c8:	0e 01       	.word	0x010e;	????
    51ca:	00 00       	beq			
    51cc:	00 00       	beq			
    51ce:	00 00       	beq			
    51d0:	44 00       	.word	0x0044;	????
    51d2:	39 01       	.word	0x0139;	????
    51d4:	14 01       	.word	0x0114;	????
    51d6:	00 00       	beq			
    51d8:	00 00       	beq			
    51da:	00 00       	beq			
    51dc:	44 00       	.word	0x0044;	????
    51de:	3b 01       	.word	0x013b;	????
    51e0:	1a 01       	.word	0x011a;	????
    51e2:	00 00       	beq			
    51e4:	00 00       	beq			
    51e6:	00 00       	beq			
    51e8:	44 00       	.word	0x0044;	????
    51ea:	3c 01       	.word	0x013c;	????
    51ec:	1e 01       	.word	0x011e;	????
    51ee:	00 00       	beq			
    51f0:	00 00       	beq			
    51f2:	00 00       	beq			
    51f4:	44 00       	.word	0x0044;	????
    51f6:	3e 01       	.word	0x013e;	????
    51f8:	20 01       	.word	0x0120;	????
    51fa:	00 00       	beq			
    51fc:	00 00       	beq			
    51fe:	00 00       	beq			
    5200:	44 00       	.word	0x0044;	????
    5202:	44 01       	.word	0x0144;	????
    5204:	26 01       	.word	0x0126;	????
    5206:	00 00       	beq			
    5208:	00 00       	beq			
    520a:	00 00       	beq			
    520c:	44 00       	.word	0x0044;	????
    520e:	5b 01       	.word	0x015b;	????
    5210:	38 01       	.word	0x0138;	????
    5212:	00 00       	beq			
    5214:	00 00       	beq			
    5216:	00 00       	beq			
    5218:	44 00       	.word	0x0044;	????
    521a:	62 01       	.word	0x0162;	????
    521c:	44 01       	.word	0x0144;	????
    521e:	00 00       	beq			
    5220:	00 00       	beq			
    5222:	00 00       	beq			
    5224:	44 00       	.word	0x0044;	????
    5226:	72 01       	.word	0x0172;	????
    5228:	4a 01       	.word	0x014a;	????
    522a:	00 00       	beq			
    522c:	00 00       	beq			
    522e:	00 00       	beq			
    5230:	44 00       	.word	0x0044;	????
    5232:	94 01       	.word	0x0194;	????
    5234:	50 01       	.word	0x0150;	????
    5236:	00 00       	beq			
    5238:	00 00       	beq			
    523a:	00 00       	beq			
    523c:	44 00       	.word	0x0044;	????
    523e:	9b 01       	.word	0x019b;	????
    5240:	5c 01       	.word	0x015c;	????
    5242:	00 00       	beq			
    5244:	00 00       	beq			
    5246:	00 00       	beq			
    5248:	44 00       	.word	0x0044;	????
    524a:	d4 01       	.word	0x01d4;	????
    524c:	68 01       	.word	0x0168;	????
    524e:	00 00       	beq			
    5250:	00 00       	beq			
    5252:	00 00       	beq			
    5254:	44 00       	.word	0x0044;	????
    5256:	d7 01       	.word	0x01d7;	????
    5258:	70 01       	.word	0x0170;	????
    525a:	00 00       	beq			
    525c:	00 00       	beq			
    525e:	00 00       	beq			
    5260:	44 00       	.word	0x0044;	????
    5262:	d8 01       	.word	0x01d8;	????
    5264:	74 01       	.word	0x0174;	????
    5266:	00 00       	beq			
    5268:	00 00       	beq			
    526a:	00 00       	beq			
    526c:	44 00       	.word	0x0044;	????
    526e:	d9 01       	.word	0x01d9;	????
    5270:	78 01       	.word	0x0178;	????
    5272:	00 00       	beq			
    5274:	00 00       	beq			
    5276:	00 00       	beq			
    5278:	44 00       	.word	0x0044;	????
    527a:	da 01       	.word	0x01da;	????
    527c:	7a 01       	.word	0x017a;	????
    527e:	00 00       	beq			
    5280:	00 00       	beq			
    5282:	00 00       	beq			
    5284:	44 00       	.word	0x0044;	????
    5286:	ee 01       	.word	0x01ee;	????
    5288:	7e 01       	.word	0x017e;	????
    528a:	00 00       	beq			
    528c:	00 00       	beq			
    528e:	00 00       	beq			
    5290:	44 00       	.word	0x0044;	????
    5292:	f0 01       	.word	0x01f0;	????
    5294:	80 01       	.word	0x0180;	????
    5296:	00 00       	beq			
    5298:	00 00       	beq			
    529a:	00 00       	beq			
    529c:	44 00       	.word	0x0044;	????
    529e:	f1 01       	.word	0x01f1;	????
    52a0:	86 01       	.word	0x0186;	????
    52a2:	00 00       	beq			
    52a4:	00 00       	beq			
    52a6:	00 00       	beq			
    52a8:	44 00       	.word	0x0044;	????
    52aa:	f6 01       	.word	0x01f6;	????
    52ac:	88 01       	.word	0x0188;	????
    52ae:	00 00       	beq			
    52b0:	00 00       	beq			
    52b2:	00 00       	beq			
    52b4:	44 00       	.word	0x0044;	????
    52b6:	f8 01       	.word	0x01f8;	????
    52b8:	90 01       	.word	0x0190;	????
    52ba:	00 00       	beq			
    52bc:	00 00       	beq			
    52be:	00 00       	beq			
    52c0:	44 00       	.word	0x0044;	????
    52c2:	fe 01       	.word	0x01fe;	????
    52c4:	92 01       	.word	0x0192;	????
    52c6:	00 00       	beq			
    52c8:	00 00       	beq			
    52ca:	00 00       	beq			
    52cc:	44 00       	.word	0x0044;	????
    52ce:	01 02       	.word	0x0201;	????
    52d0:	94 01       	.word	0x0194;	????
    52d2:	00 00       	beq			
    52d4:	00 00       	beq			
    52d6:	00 00       	beq			
    52d8:	44 00       	.word	0x0044;	????
    52da:	03 02       	.word	0x0203;	????
    52dc:	9e 01       	.word	0x019e;	????
    52de:	00 00       	beq			
    52e0:	00 00       	beq			
    52e2:	00 00       	beq			
    52e4:	44 00       	.word	0x0044;	????
    52e6:	04 02       	.word	0x0204;	????
    52e8:	aa 01       	.word	0x01aa;	????
    52ea:	00 00       	beq			
    52ec:	00 00       	beq			
    52ee:	00 00       	beq			
    52f0:	44 00       	.word	0x0044;	????
    52f2:	06 02       	.word	0x0206;	????
    52f4:	ae 01       	.word	0x01ae;	????
    52f6:	00 00       	beq			
    52f8:	00 00       	beq			
    52fa:	00 00       	beq			
    52fc:	44 00       	.word	0x0044;	????
    52fe:	0b 02       	.word	0x020b;	????
    5300:	c4 01       	.word	0x01c4;	????
    5302:	00 00       	beq			
    5304:	00 00       	beq			
    5306:	00 00       	beq			
    5308:	44 00       	.word	0x0044;	????
    530a:	0f 02       	.word	0x020f;	????
    530c:	c8 01       	.word	0x01c8;	????
    530e:	00 00       	beq			
    5310:	00 00       	beq			
    5312:	00 00       	beq			
    5314:	44 00       	.word	0x0044;	????
    5316:	11 02       	.word	0x0211;	????
    5318:	d0 01       	.word	0x01d0;	????
    531a:	00 00       	beq			
    531c:	00 00       	beq			
    531e:	00 00       	beq			
    5320:	44 00       	.word	0x0044;	????
    5322:	12 02       	.word	0x0212;	????
    5324:	e0 01       	.word	0x01e0;	????
    5326:	00 00       	beq			
    5328:	00 00       	beq			
    532a:	00 00       	beq			
    532c:	44 00       	.word	0x0044;	????
    532e:	13 02       	.word	0x0213;	????
    5330:	e4 01       	.word	0x01e4;	????
    5332:	00 00       	beq			
    5334:	00 00       	beq			
    5336:	00 00       	beq			
    5338:	44 00       	.word	0x0044;	????
    533a:	17 02       	.word	0x0217;	????
    533c:	f8 01       	.word	0x01f8;	????
    533e:	00 00       	beq			
    5340:	00 00       	beq			
    5342:	00 00       	beq			
    5344:	44 00       	.word	0x0044;	????
    5346:	21 02       	.word	0x0221;	????
    5348:	fe 01       	.word	0x01fe;	????
    534a:	00 00       	beq			
    534c:	00 00       	beq			
    534e:	00 00       	beq			
    5350:	44 00       	.word	0x0044;	????
    5352:	24 02       	.word	0x0224;	????
    5354:	0c 02       	.word	0x020c;	????
    5356:	00 00       	beq			
    5358:	00 00       	beq			
    535a:	00 00       	beq			
    535c:	44 00       	.word	0x0044;	????
    535e:	27 02       	.word	0x0227;	????
    5360:	1e 02       	.word	0x021e;	????
    5362:	00 00       	beq			
    5364:	00 00       	beq			
    5366:	00 00       	beq			
    5368:	44 00       	.word	0x0044;	????
    536a:	29 02       	.word	0x0229;	????
    536c:	26 02       	.word	0x0226;	????
    536e:	00 00       	beq			
    5370:	00 00       	beq			
    5372:	00 00       	beq			
    5374:	44 00       	.word	0x0044;	????
    5376:	2a 02       	.word	0x022a;	????
    5378:	32 02       	.word	0x0232;	????
    537a:	00 00       	beq			
    537c:	00 00       	beq			
    537e:	00 00       	beq			
    5380:	44 00       	.word	0x0044;	????
    5382:	2c 02       	.word	0x022c;	????
    5384:	36 02       	.word	0x0236;	????
    5386:	00 00       	beq			
    5388:	00 00       	beq			
    538a:	00 00       	beq			
    538c:	44 00       	.word	0x0044;	????
    538e:	19 02       	.word	0x0219;	????
    5390:	46 02       	.word	0x0246;	????
    5392:	00 00       	beq			
    5394:	00 00       	beq			
    5396:	00 00       	beq			
    5398:	44 00       	.word	0x0044;	????
    539a:	1a 02       	.word	0x021a;	????
    539c:	52 02       	.word	0x0252;	????
    539e:	00 00       	beq			
    53a0:	00 00       	beq			
    53a2:	00 00       	beq			
    53a4:	44 00       	.word	0x0044;	????
    53a6:	1c 02       	.word	0x021c;	????
    53a8:	56 02       	.word	0x0256;	????
    53aa:	00 00       	beq			
    53ac:	00 00       	beq			
    53ae:	00 00       	beq			
    53b0:	44 00       	.word	0x0044;	????
    53b2:	0d 02       	.word	0x020d;	????
    53b4:	66 02       	.word	0x0266;	????
    53b6:	00 00       	beq			
    53b8:	00 00       	beq			
    53ba:	00 00       	beq			
    53bc:	44 00       	.word	0x0044;	????
    53be:	fa 01       	.word	0x01fa;	????
    53c0:	70 02       	.word	0x0270;	????
    53c2:	00 00       	beq			
    53c4:	00 00       	beq			
    53c6:	00 00       	beq			
    53c8:	44 00       	.word	0x0044;	????
    53ca:	fc 01       	.word	0x01fc;	????
    53cc:	78 02       	.word	0x0278;	????
    53ce:	00 00       	beq			
    53d0:	00 00       	beq			
    53d2:	00 00       	beq			
    53d4:	44 00       	.word	0x0044;	????
    53d6:	f3 01       	.word	0x01f3;	????
    53d8:	7c 02       	.word	0x027c;	????
    53da:	00 00       	beq			
    53dc:	00 00       	beq			
    53de:	00 00       	beq			
    53e0:	44 00       	.word	0x0044;	????
    53e2:	9d 01       	.word	0x019d;	????
    53e4:	80 02       	.word	0x0280;	????
    53e6:	00 00       	beq			
    53e8:	00 00       	beq			
    53ea:	00 00       	beq			
    53ec:	44 00       	.word	0x0044;	????
    53ee:	9f 01       	.word	0x019f;	????
    53f0:	86 02       	.word	0x0286;	????
    53f2:	00 00       	beq			
    53f4:	00 00       	beq			
    53f6:	00 00       	beq			
    53f8:	44 00       	.word	0x0044;	????
    53fa:	a0 01       	.word	0x01a0;	????
    53fc:	98 02       	.word	0x0298;	????
    53fe:	00 00       	beq			
    5400:	00 00       	beq			
    5402:	00 00       	beq			
    5404:	44 00       	.word	0x0044;	????
    5406:	a4 01       	.word	0x01a4;	????
    5408:	9e 02       	.word	0x029e;	????
    540a:	00 00       	beq			
    540c:	00 00       	beq			
    540e:	00 00       	beq			
    5410:	44 00       	.word	0x0044;	????
    5412:	ab 01       	.word	0x01ab;	????
    5414:	a2 02       	.word	0x02a2;	????
    5416:	00 00       	beq			
    5418:	00 00       	beq			
    541a:	00 00       	beq			
    541c:	44 00       	.word	0x0044;	????
    541e:	ac 01       	.word	0x01ac;	????
    5420:	aa 02       	.word	0x02aa;	????
    5422:	00 00       	beq			
    5424:	00 00       	beq			
    5426:	00 00       	beq			
    5428:	44 00       	.word	0x0044;	????
    542a:	b3 01       	.word	0x01b3;	????
    542c:	b0 02       	.word	0x02b0;	????
    542e:	00 00       	beq			
    5430:	00 00       	beq			
    5432:	00 00       	beq			
    5434:	44 00       	.word	0x0044;	????
    5436:	b4 01       	.word	0x01b4;	????
    5438:	ba 02       	.word	0x02ba;	????
    543a:	00 00       	beq			
    543c:	00 00       	beq			
    543e:	00 00       	beq			
    5440:	44 00       	.word	0x0044;	????
    5442:	b9 01       	.word	0x01b9;	????
    5444:	da 02       	.word	0x02da;	????
    5446:	00 00       	beq			
    5448:	00 00       	beq			
    544a:	00 00       	beq			
    544c:	44 00       	.word	0x0044;	????
    544e:	ba 01       	.word	0x01ba;	????
    5450:	f4 02       	.word	0x02f4;	????
    5452:	00 00       	beq			
    5454:	00 00       	beq			
    5456:	00 00       	beq			
    5458:	44 00       	.word	0x0044;	????
    545a:	bc 01       	.word	0x01bc;	????
    545c:	0a 03       	.word	0x030a;	????
    545e:	00 00       	beq			
    5460:	00 00       	beq			
    5462:	00 00       	beq			
    5464:	44 00       	.word	0x0044;	????
    5466:	be 01       	.word	0x01be;	????
    5468:	10 03       	.word	0x0310;	????
    546a:	00 00       	beq			
    546c:	00 00       	beq			
    546e:	00 00       	beq			
    5470:	44 00       	.word	0x0044;	????
    5472:	c5 01       	.word	0x01c5;	????
    5474:	14 03       	.word	0x0314;	????
    5476:	00 00       	beq			
    5478:	00 00       	beq			
    547a:	00 00       	beq			
    547c:	44 00       	.word	0x0044;	????
    547e:	c6 01       	.word	0x01c6;	????
    5480:	20 03       	.word	0x0320;	????
    5482:	00 00       	beq			
    5484:	00 00       	beq			
    5486:	00 00       	beq			
    5488:	44 00       	.word	0x0044;	????
    548a:	c7 01       	.word	0x01c7;	????
    548c:	3c 03       	.word	0x033c;	????
    548e:	00 00       	beq			
    5490:	00 00       	beq			
    5492:	00 00       	beq			
    5494:	44 00       	.word	0x0044;	????
    5496:	cb 01       	.word	0x01cb;	????
    5498:	42 03       	.word	0x0342;	????
    549a:	00 00       	beq			
    549c:	00 00       	beq			
    549e:	00 00       	beq			
    54a0:	44 00       	.word	0x0044;	????
    54a2:	cf 01       	.word	0x01cf;	????
    54a4:	48 03       	.word	0x0348;	????
    54a6:	00 00       	beq			
    54a8:	00 00       	beq			
    54aa:	00 00       	beq			
    54ac:	44 00       	.word	0x0044;	????
    54ae:	cc 01       	.word	0x01cc;	????
    54b0:	60 03       	.word	0x0360;	????
    54b2:	00 00       	beq			
    54b4:	00 00       	beq			
    54b6:	00 00       	beq			
    54b8:	44 00       	.word	0x0044;	????
    54ba:	c2 01       	.word	0x01c2;	????
    54bc:	70 03       	.word	0x0370;	????
    54be:	00 00       	beq			
    54c0:	00 00       	beq			
    54c2:	00 00       	beq			
    54c4:	44 00       	.word	0x0044;	????
    54c6:	c3 01       	.word	0x01c3;	????
    54c8:	74 03       	.word	0x0374;	????
    54ca:	00 00       	beq			
    54cc:	00 00       	beq			
    54ce:	00 00       	beq			
    54d0:	44 00       	.word	0x0044;	????
    54d2:	96 01       	.word	0x0196;	????
    54d4:	80 03       	.word	0x0380;	????
    54d6:	00 00       	beq			
    54d8:	00 00       	beq			
    54da:	00 00       	beq			
    54dc:	44 00       	.word	0x0044;	????
    54de:	98 01       	.word	0x0198;	????
    54e0:	80 03       	.word	0x0380;	????
    54e2:	00 00       	beq			
    54e4:	00 00       	beq			
    54e6:	00 00       	beq			
    54e8:	44 00       	.word	0x0044;	????
    54ea:	99 01       	.word	0x0199;	????
    54ec:	86 03       	.word	0x0386;	????
    54ee:	00 00       	beq			
    54f0:	00 00       	beq			
    54f2:	00 00       	beq			
    54f4:	44 00       	.word	0x0044;	????
    54f6:	97 01       	.word	0x0197;	????
    54f8:	88 03       	.word	0x0388;	????
    54fa:	00 00       	beq			
    54fc:	00 00       	beq			
    54fe:	00 00       	beq			
    5500:	44 00       	.word	0x0044;	????
    5502:	74 01       	.word	0x0174;	????
    5504:	8e 03       	.word	0x038e;	????
    5506:	00 00       	beq			
    5508:	00 00       	beq			
    550a:	00 00       	beq			
    550c:	44 00       	.word	0x0044;	????
    550e:	7e 01       	.word	0x017e;	????
    5510:	9c 03       	.word	0x039c;	????
    5512:	00 00       	beq			
    5514:	00 00       	beq			
    5516:	00 00       	beq			
    5518:	44 00       	.word	0x0044;	????
    551a:	85 01       	.word	0x0185;	????
    551c:	a0 03       	.word	0x03a0;	????
    551e:	00 00       	beq			
    5520:	00 00       	beq			
    5522:	00 00       	beq			
    5524:	44 00       	.word	0x0044;	????
    5526:	87 01       	.word	0x0187;	????
    5528:	b0 03       	.word	0x03b0;	????
    552a:	00 00       	beq			
    552c:	00 00       	beq			
    552e:	00 00       	beq			
    5530:	44 00       	.word	0x0044;	????
    5532:	89 01       	.word	0x0189;	????
    5534:	b4 03       	.word	0x03b4;	????
    5536:	00 00       	beq			
    5538:	00 00       	beq			
    553a:	00 00       	beq			
    553c:	44 00       	.word	0x0044;	????
    553e:	8a 01       	.word	0x018a;	????
    5540:	ba 03       	.word	0x03ba;	????
    5542:	00 00       	beq			
    5544:	00 00       	beq			
    5546:	00 00       	beq			
    5548:	44 00       	.word	0x0044;	????
    554a:	8e 01       	.word	0x018e;	????
    554c:	be 03       	.word	0x03be;	????
    554e:	00 00       	beq			
    5550:	00 00       	beq			
    5552:	00 00       	beq			
    5554:	44 00       	.word	0x0044;	????
    5556:	91 01       	.word	0x0191;	????
    5558:	c2 03       	.word	0x03c2;	????
    555a:	00 00       	beq			
    555c:	00 00       	beq			
    555e:	00 00       	beq			
    5560:	44 00       	.word	0x0044;	????
    5562:	92 01       	.word	0x0192;	????
    5564:	d6 03       	.word	0x03d6;	????
    5566:	00 00       	beq			
    5568:	00 00       	beq			
    556a:	00 00       	beq			
    556c:	44 00       	.word	0x0044;	????
    556e:	76 01       	.word	0x0176;	????
    5570:	d8 03       	.word	0x03d8;	????
    5572:	00 00       	beq			
    5574:	00 00       	beq			
    5576:	00 00       	beq			
    5578:	44 00       	.word	0x0044;	????
    557a:	77 01       	.word	0x0177;	????
    557c:	dc 03       	.word	0x03dc;	????
    557e:	00 00       	beq			
    5580:	00 00       	beq			
    5582:	00 00       	beq			
    5584:	44 00       	.word	0x0044;	????
    5586:	78 01       	.word	0x0178;	????
    5588:	e2 03       	.word	0x03e2;	????
    558a:	00 00       	beq			
    558c:	00 00       	beq			
    558e:	00 00       	beq			
    5590:	44 00       	.word	0x0044;	????
    5592:	79 01       	.word	0x0179;	????
    5594:	e8 03       	.word	0x03e8;	????
    5596:	00 00       	beq			
    5598:	00 00       	beq			
    559a:	00 00       	beq			
    559c:	44 00       	.word	0x0044;	????
    559e:	7a 01       	.word	0x017a;	????
    55a0:	ee 03       	.word	0x03ee;	????
    55a2:	00 00       	beq			
    55a4:	00 00       	beq			
    55a6:	00 00       	beq			
    55a8:	44 00       	.word	0x0044;	????
    55aa:	7b 01       	.word	0x017b;	????
    55ac:	fa 03       	.word	0x03fa;	????
    55ae:	00 00       	beq			
    55b0:	00 00       	beq			
    55b2:	00 00       	beq			
    55b4:	44 00       	.word	0x0044;	????
    55b6:	7c 01       	.word	0x017c;	????
    55b8:	00 04       	.word	0x0400;	????
    55ba:	00 00       	beq			
    55bc:	00 00       	beq			
    55be:	00 00       	beq			
    55c0:	44 00       	.word	0x0044;	????
    55c2:	6c 01       	.word	0x016c;	????
    55c4:	06 04       	.word	0x0406;	????
    55c6:	00 00       	beq			
    55c8:	00 00       	beq			
    55ca:	00 00       	beq			
    55cc:	44 00       	.word	0x0044;	????
    55ce:	6d 01       	.word	0x016d;	????
    55d0:	12 04       	.word	0x0412;	????
    55d2:	00 00       	beq			
    55d4:	00 00       	beq			
    55d6:	00 00       	beq			
    55d8:	44 00       	.word	0x0044;	????
    55da:	6e 01       	.word	0x016e;	????
    55dc:	18 04       	.word	0x0418;	????
    55de:	00 00       	beq			
    55e0:	00 00       	beq			
    55e2:	00 00       	beq			
    55e4:	44 00       	.word	0x0044;	????
    55e6:	6f 01       	.word	0x016f;	????
    55e8:	1e 04       	.word	0x041e;	????
    55ea:	00 00       	beq			
    55ec:	00 00       	beq			
    55ee:	00 00       	beq			
    55f0:	44 00       	.word	0x0044;	????
    55f2:	70 01       	.word	0x0170;	????
    55f4:	22 04       	.word	0x0422;	????
    55f6:	00 00       	beq			
    55f8:	00 00       	beq			
    55fa:	00 00       	beq			
    55fc:	44 00       	.word	0x0044;	????
    55fe:	5d 01       	.word	0x015d;	????
    5600:	24 04       	.word	0x0424;	????
    5602:	00 00       	beq			
    5604:	00 00       	beq			
    5606:	00 00       	beq			
    5608:	44 00       	.word	0x0044;	????
    560a:	5f 01       	.word	0x015f;	????
    560c:	24 04       	.word	0x0424;	????
    560e:	00 00       	beq			
    5610:	00 00       	beq			
    5612:	00 00       	beq			
    5614:	44 00       	.word	0x0044;	????
    5616:	60 01       	.word	0x0160;	????
    5618:	28 04       	.word	0x0428;	????
    561a:	00 00       	beq			
    561c:	00 00       	beq			
    561e:	00 00       	beq			
    5620:	44 00       	.word	0x0044;	????
    5622:	5e 01       	.word	0x015e;	????
    5624:	2a 04       	.word	0x042a;	????
    5626:	00 00       	beq			
    5628:	00 00       	beq			
    562a:	00 00       	beq			
    562c:	44 00       	.word	0x0044;	????
    562e:	46 01       	.word	0x0146;	????
    5630:	30 04       	.word	0x0430;	????
    5632:	00 00       	beq			
    5634:	00 00       	beq			
    5636:	00 00       	beq			
    5638:	44 00       	.word	0x0044;	????
    563a:	48 01       	.word	0x0148;	????
    563c:	30 04       	.word	0x0430;	????
    563e:	00 00       	beq			
    5640:	00 00       	beq			
    5642:	00 00       	beq			
    5644:	44 00       	.word	0x0044;	????
    5646:	4a 01       	.word	0x014a;	????
    5648:	36 04       	.word	0x0436;	????
    564a:	00 00       	beq			
    564c:	00 00       	beq			
    564e:	00 00       	beq			
    5650:	44 00       	.word	0x0044;	????
    5652:	53 01       	.word	0x0153;	????
    5654:	42 04       	.word	0x0442;	????
    5656:	00 00       	beq			
    5658:	00 00       	beq			
    565a:	00 00       	beq			
    565c:	44 00       	.word	0x0044;	????
    565e:	58 01       	.word	0x0158;	????
    5660:	48 04       	.word	0x0448;	????
    5662:	00 00       	beq			
    5664:	00 00       	beq			
    5666:	00 00       	beq			
    5668:	44 00       	.word	0x0044;	????
    566a:	59 01       	.word	0x0159;	????
    566c:	4e 04       	.word	0x044e;	????
    566e:	00 00       	beq			
    5670:	00 00       	beq			
    5672:	00 00       	beq			
    5674:	44 00       	.word	0x0044;	????
    5676:	55 01       	.word	0x0155;	????
    5678:	50 04       	.word	0x0450;	????
    567a:	00 00       	beq			
    567c:	00 00       	beq			
    567e:	00 00       	beq			
    5680:	44 00       	.word	0x0044;	????
    5682:	56 01       	.word	0x0156;	????
    5684:	60 04       	.word	0x0460;	????
    5686:	00 00       	beq			
    5688:	00 00       	beq			
    568a:	00 00       	beq			
    568c:	44 00       	.word	0x0044;	????
    568e:	4f 01       	.word	0x014f;	????
    5690:	68 04       	.word	0x0468;	????
    5692:	00 00       	beq			
    5694:	00 00       	beq			
    5696:	00 00       	beq			
    5698:	44 00       	.word	0x0044;	????
    569a:	50 01       	.word	0x0150;	????
    569c:	6c 04       	.word	0x046c;	????
    569e:	00 00       	beq			
    56a0:	00 00       	beq			
    56a2:	00 00       	beq			
    56a4:	44 00       	.word	0x0044;	????
    56a6:	47 01       	.word	0x0147;	????
    56a8:	88 04       	.word	0x0488;	????
    56aa:	00 00       	beq			
    56ac:	00 00       	beq			
    56ae:	00 00       	beq			
    56b0:	44 00       	.word	0x0044;	????
    56b2:	40 01       	.word	0x0140;	????
    56b4:	8e 04       	.word	0x048e;	????
    56b6:	00 00       	beq			
    56b8:	00 00       	beq			
    56ba:	00 00       	beq			
    56bc:	44 00       	.word	0x0044;	????
    56be:	42 01       	.word	0x0142;	????
    56c0:	9a 04       	.word	0x049a;	????
    56c2:	00 00       	beq			
    56c4:	00 00       	beq			
    56c6:	00 00       	beq			
    56c8:	44 00       	.word	0x0044;	????
    56ca:	36 01       	.word	0x0136;	????
    56cc:	9c 04       	.word	0x049c;	????
    56ce:	00 00       	beq			
    56d0:	00 00       	beq			
    56d2:	00 00       	beq			
    56d4:	44 00       	.word	0x0044;	????
    56d6:	37 01       	.word	0x0137;	????
    56d8:	a0 04       	.word	0x04a0;	????
    56da:	00 00       	beq			
    56dc:	00 00       	beq			
    56de:	00 00       	beq			
    56e0:	44 00       	.word	0x0044;	????
    56e2:	24 01       	.word	0x0124;	????
    56e4:	a4 04       	.word	0x04a4;	????
    56e6:	00 00       	beq			
    56e8:	00 00       	beq			
    56ea:	00 00       	beq			
    56ec:	44 00       	.word	0x0044;	????
    56ee:	25 01       	.word	0x0125;	????
    56f0:	b0 04       	.word	0x04b0;	????
    56f2:	00 00       	beq			
    56f4:	00 00       	beq			
    56f6:	00 00       	beq			
    56f8:	44 00       	.word	0x0044;	????
    56fa:	26 01       	.word	0x0126;	????
    56fc:	b6 04       	.word	0x04b6;	????
    56fe:	00 00       	beq			
    5700:	00 00       	beq			
    5702:	00 00       	beq			
    5704:	44 00       	.word	0x0044;	????
    5706:	0e 01       	.word	0x010e;	????
    5708:	ba 04       	.word	0x04ba;	????
    570a:	00 00       	beq			
    570c:	00 00       	beq			
    570e:	00 00       	beq			
    5710:	44 00       	.word	0x0044;	????
    5712:	14 01       	.word	0x0114;	????
    5714:	c4 04       	.word	0x04c4;	????
    5716:	00 00       	beq			
    5718:	00 00       	beq			
    571a:	00 00       	beq			
    571c:	44 00       	.word	0x0044;	????
    571e:	15 01       	.word	0x0115;	????
    5720:	c6 04       	.word	0x04c6;	????
    5722:	00 00       	beq			
    5724:	00 00       	beq			
    5726:	00 00       	beq			
    5728:	44 00       	.word	0x0044;	????
    572a:	17 01       	.word	0x0117;	????
    572c:	d2 04       	.word	0x04d2;	????
    572e:	00 00       	beq			
    5730:	00 00       	beq			
    5732:	00 00       	beq			
    5734:	44 00       	.word	0x0044;	????
    5736:	18 01       	.word	0x0118;	????
    5738:	ee 04       	.word	0x04ee;	????
    573a:	00 00       	beq			
    573c:	00 00       	beq			
    573e:	00 00       	beq			
    5740:	44 00       	.word	0x0044;	????
    5742:	1a 01       	.word	0x011a;	????
    5744:	fe 04       	.word	0x04fe;	????
    5746:	00 00       	beq			
    5748:	00 00       	beq			
    574a:	00 00       	beq			
    574c:	44 00       	.word	0x0044;	????
    574e:	1b 01       	.word	0x011b;	????
    5750:	08 05       	.word	0x0508;	????
    5752:	00 00       	beq			
    5754:	00 00       	beq			
    5756:	00 00       	beq			
    5758:	44 00       	.word	0x0044;	????
    575a:	10 01       	.word	0x0110;	????
    575c:	0c 05       	.word	0x050c;	????
    575e:	00 00       	beq			
    5760:	00 00       	beq			
    5762:	00 00       	beq			
    5764:	44 00       	.word	0x0044;	????
    5766:	11 01       	.word	0x0111;	????
    5768:	12 05       	.word	0x0512;	????
    576a:	00 00       	beq			
    576c:	00 00       	beq			
    576e:	00 00       	beq			
    5770:	44 00       	.word	0x0044;	????
    5772:	12 01       	.word	0x0112;	????
    5774:	1c 05       	.word	0x051c;	????
    5776:	00 00       	beq			
    5778:	00 00       	beq			
    577a:	00 00       	beq			
    577c:	44 00       	.word	0x0044;	????
    577e:	09 01       	.word	0x0109;	????
    5780:	20 05       	.word	0x0520;	????
    5782:	00 00       	beq			
    5784:	00 00       	beq			
    5786:	00 00       	beq			
    5788:	44 00       	.word	0x0044;	????
    578a:	0a 01       	.word	0x010a;	????
    578c:	26 05       	.word	0x0526;	????
    578e:	00 00       	beq			
    5790:	00 00       	beq			
    5792:	00 00       	beq			
    5794:	44 00       	.word	0x0044;	????
    5796:	f7 00       	.word	0x00f7;	????
    5798:	2a 05       	.word	0x052a;	????
    579a:	00 00       	beq			
    579c:	00 00       	beq			
    579e:	00 00       	beq			
    57a0:	44 00       	.word	0x0044;	????
    57a2:	03 01       	.word	0x0103;	????
    57a4:	2a 05       	.word	0x052a;	????
    57a6:	00 00       	beq			
    57a8:	00 00       	beq			
    57aa:	00 00       	beq			
    57ac:	44 00       	.word	0x0044;	????
    57ae:	04 01       	.word	0x0104;	????
    57b0:	30 05       	.word	0x0530;	????
    57b2:	00 00       	beq			
    57b4:	00 00       	beq			
    57b6:	00 00       	beq			
    57b8:	44 00       	.word	0x0044;	????
    57ba:	05 01       	.word	0x0105;	????
    57bc:	36 05       	.word	0x0536;	????
    57be:	00 00       	beq			
    57c0:	00 00       	beq			
    57c2:	00 00       	beq			
    57c4:	44 00       	.word	0x0044;	????
    57c6:	ff 00       	.word	0x00ff;	????
    57c8:	3a 05       	.word	0x053a;	????
    57ca:	00 00       	beq			
    57cc:	00 00       	beq			
    57ce:	00 00       	beq			
    57d0:	44 00       	.word	0x0044;	????
    57d2:	01 01       	.word	0x0101;	????
    57d4:	4c 05       	.word	0x054c;	????
    57d6:	00 00       	beq			
    57d8:	00 00       	beq			
    57da:	00 00       	beq			
    57dc:	44 00       	.word	0x0044;	????
    57de:	f2 00       	.word	0x00f2;	????
    57e0:	56 05       	.word	0x0556;	????
    57e2:	00 00       	beq			
    57e4:	00 00       	beq			
    57e6:	00 00       	beq			
    57e8:	44 00       	.word	0x0044;	????
    57ea:	f3 00       	.word	0x00f3;	????
    57ec:	5a 05       	.word	0x055a;	????
    57ee:	00 00       	beq			
    57f0:	00 00       	beq			
    57f2:	00 00       	beq			
    57f4:	44 00       	.word	0x0044;	????
    57f6:	ec 00       	.word	0x00ec;	????
    57f8:	5e 05       	.word	0x055e;	????
    57fa:	00 00       	beq			
    57fc:	00 00       	beq			
    57fe:	00 00       	beq			
    5800:	44 00       	.word	0x0044;	????
    5802:	ed 00       	.word	0x00ed;	????
    5804:	68 05       	.word	0x0568;	????
    5806:	00 00       	beq			
    5808:	00 00       	beq			
    580a:	00 00       	beq			
    580c:	44 00       	.word	0x0044;	????
    580e:	ee 00       	.word	0x00ee;	????
    5810:	6e 05       	.word	0x056e;	????
    5812:	00 00       	beq			
    5814:	00 00       	beq			
    5816:	00 00       	beq			
    5818:	44 00       	.word	0x0044;	????
    581a:	d9 00       	.word	0x00d9;	????
    581c:	72 05       	.word	0x0572;	????
    581e:	00 00       	beq			
    5820:	00 00       	beq			
    5822:	00 00       	beq			
    5824:	44 00       	.word	0x0044;	????
    5826:	db 00       	.word	0x00db;	????
    5828:	78 05       	.word	0x0578;	????
    582a:	00 00       	beq			
    582c:	00 00       	beq			
    582e:	00 00       	beq			
    5830:	44 00       	.word	0x0044;	????
    5832:	e0 00       	.word	0x00e0;	????
    5834:	88 05       	.word	0x0588;	????
    5836:	00 00       	beq			
    5838:	00 00       	beq			
    583a:	00 00       	beq			
    583c:	44 00       	.word	0x0044;	????
    583e:	e1 00       	.word	0x00e1;	????
    5840:	8c 05       	.word	0x058c;	????
    5842:	00 00       	beq			
    5844:	00 00       	beq			
    5846:	00 00       	beq			
    5848:	44 00       	.word	0x0044;	????
    584a:	c8 00       	.word	0x00c8;	????
    584c:	98 05       	.word	0x0598;	????
    584e:	00 00       	beq			
    5850:	00 00       	beq			
    5852:	00 00       	beq			
    5854:	44 00       	.word	0x0044;	????
    5856:	c2 00       	.word	0x00c2;	????
    5858:	a6 05       	.word	0x05a6;	????
    585a:	00 00       	beq			
    585c:	00 00       	beq			
    585e:	00 00       	beq			
    5860:	44 00       	.word	0x0044;	????
    5862:	32 02       	.word	0x0232;	????
    5864:	a6 05       	.word	0x05a6;	????
    5866:	00 00       	beq			
    5868:	51 46 00 00 	mov.b	0(r6),	r1	;
    586c:	40 00       	.word	0x0040;	????
    586e:	a2 00       	.word	0x00a2;	????
    5870:	06 00       	.word	0x0006;	????
    5872:	00 00       	beq			
    5874:	5d 46 00 00 	mov.b	0(r6),	r13	;
    5878:	40 00       	.word	0x0040;	????
    587a:	a3 00       	.word	0x00a3;	????
    587c:	07 00       	.word	0x0007;	????
    587e:	00 00       	beq			
    5880:	67 46       	mov.b	@r6,	r7	;
    5882:	00 00       	beq			
    5884:	40 00       	.word	0x0040;	????
    5886:	a4 00       	.word	0x00a4;	????
    5888:	0d 00       	.word	0x000d;	????
    588a:	00 00       	beq			
    588c:	70 46       	br	@r6+		;
    588e:	00 00       	beq			
    5890:	80 00       	.word	0x0080;	????
    5892:	a5 00       	.word	0x00a5;	????
    5894:	2c 00       	.word	0x002c;	????
    5896:	00 00       	beq			
    5898:	7a 46       	mov.b	@r6+,	r10	;
    589a:	00 00       	beq			
    589c:	40 00       	.word	0x0040;	????
    589e:	a6 00       	.word	0x00a6;	????
    58a0:	0f 00       	.word	0x000f;	????
    58a2:	00 00       	beq			
    58a4:	88 46 00 00 	mov	r6,	0(r8)	;
    58a8:	80 00       	.word	0x0080;	????
    58aa:	a7 00       	.word	0x00a7;	????
    58ac:	2e 00       	.word	0x002e;	????
    58ae:	00 00       	beq			
    58b0:	95 46 00 00 	mov	0(r6),	128(r5)	;
    58b4:	80 00 
    58b6:	a8 00       	.word	0x00a8;	????
    58b8:	2f 00       	.word	0x002f;	????
    58ba:	00 00       	beq			
    58bc:	a2 46 00 00 	mov	@r6,	&0x0000	;
    58c0:	40 00       	.word	0x0040;	????
    58c2:	a9 00       	.word	0x00a9;	????
    58c4:	0b 00       	.word	0x000b;	????
    58c6:	00 00       	beq			
    58c8:	af 46 00 00 	mov	@r6,	0(r15)	;
    58cc:	80 00       	.word	0x0080;	????
    58ce:	aa 00       	.word	0x00aa;	????
    58d0:	28 00       	.word	0x0028;	????
    58d2:	00 00       	beq			
    58d4:	ba 46 00 00 	mov	@r6+,	0(r10)	;
    58d8:	80 00       	.word	0x0080;	????
    58da:	ab 00       	.word	0x00ab;	????
    58dc:	30 00       	.word	0x0030;	????
    58de:	00 00       	beq			
    58e0:	c7 46 00 00 	mov.b	r6,	0(r7)	;
    58e4:	80 00       	.word	0x0080;	????
    58e6:	af 00       	.word	0x00af;	????
    58e8:	34 00       	.word	0x0034;	????
    58ea:	00 00       	beq			
    58ec:	d3 46 00 00 	mov.b	0(r6),	128(r3)	;
    58f0:	80 00 
    58f2:	b0 00       	.word	0x00b0;	????
    58f4:	35 00       	.word	0x0035;	????
    58f6:	00 00       	beq			
    58f8:	e0 46 00 00 	mov.b	@r6,	0x0000	; PC rel. 0x58fa
    58fc:	40 00       	.word	0x0040;	????
    58fe:	b1 00       	.word	0x00b1;	????
    5900:	0a 00       	.word	0x000a;	????
    5902:	00 00       	beq			
    5904:	ed 46 00 00 	mov.b	@r6,	0(r13)	;
    5908:	40 00       	.word	0x0040;	????
    590a:	b2 00       	.word	0x00b2;	????
    590c:	0b 00       	.word	0x000b;	????
    590e:	00 00       	beq			
    5910:	fd 46 00 00 	mov.b	@r6+,	0(r13)	;
    5914:	40 00       	.word	0x0040;	????
    5916:	b6 00       	.word	0x00b6;	????
    5918:	09 00       	.word	0x0009;	????
    591a:	00 00       	beq			
    591c:	0a 47       	mov	r7,	r10	;
    591e:	00 00       	beq			
    5920:	80 00       	.word	0x0080;	????
    5922:	b7 00       	.word	0x00b7;	????
    5924:	00 00       	beq			
    5926:	00 00       	beq			
    5928:	4b 47       	mov.b	r7,	r11	;
    592a:	00 00       	beq			
    592c:	80 00       	.word	0x0080;	????
    592e:	b8 00       	.word	0x00b8;	????
    5930:	2a 00       	.word	0x002a;	????
    5932:	00 00       	beq			
    5934:	00 00       	beq			
    5936:	00 00       	beq			
    5938:	c0 00       	.word	0x00c0;	????
    593a:	00 00       	beq			
    593c:	16 00       	.word	0x0016;	????
    593e:	00 00       	beq			
    5940:	66 47       	mov.b	@r7,	r6	;
    5942:	00 00       	beq			
    5944:	40 00       	.word	0x0040;	????
    5946:	b6 01       	.word	0x01b6;	????
    5948:	04 00       	.word	0x0004;	????
    594a:	00 00       	beq			
    594c:	71 47       	mov.b	@r7+,	r1	;
    594e:	00 00       	beq			
    5950:	80 00       	.word	0x0080;	????
    5952:	b6 01       	.word	0x01b6;	????
    5954:	36 00       	.word	0x0036;	????
    5956:	00 00       	beq			
    5958:	00 00       	beq			
    595a:	00 00       	beq			
    595c:	c0 00       	.word	0x00c0;	????
    595e:	00 00       	beq			
    5960:	da 02       	.word	0x02da;	????
    5962:	00 00       	beq			
    5964:	00 00       	beq			
    5966:	00 00       	beq			
    5968:	e0 00       	.word	0x00e0;	????
    596a:	00 00       	beq			
    596c:	48 03       	.word	0x0348;	????
    596e:	00 00       	beq			
    5970:	66 47       	mov.b	@r7,	r6	;
    5972:	00 00       	beq			
    5974:	40 00       	.word	0x0040;	????
    5976:	b6 01       	.word	0x01b6;	????
    5978:	04 00       	.word	0x0004;	????
    597a:	00 00       	beq			
    597c:	71 47       	mov.b	@r7+,	r1	;
    597e:	00 00       	beq			
    5980:	80 00       	.word	0x0080;	????
    5982:	b6 01       	.word	0x01b6;	????
    5984:	36 00       	.word	0x0036;	????
    5986:	00 00       	beq			
    5988:	00 00       	beq			
    598a:	00 00       	beq			
    598c:	c0 00       	.word	0x00c0;	????
    598e:	00 00       	beq			
    5990:	54 03       	.word	0x0354;	????
    5992:	00 00       	beq			
    5994:	00 00       	beq			
    5996:	00 00       	beq			
    5998:	e0 00       	.word	0x00e0;	????
    599a:	00 00       	beq			
    599c:	80 03       	.word	0x0380;	????
    599e:	00 00       	beq			
    59a0:	85 47 00 00 	mov	r7,	0(r5)	;
    59a4:	40 00       	.word	0x0040;	????
    59a6:	85 01       	.word	0x0185;	????
    59a8:	0f 00       	.word	0x000f;	????
    59aa:	00 00       	beq			
    59ac:	00 00       	beq			
    59ae:	00 00       	beq			
    59b0:	c0 00       	.word	0x00c0;	????
    59b2:	00 00       	beq			
    59b4:	a0 03       	.word	0x03a0;	????
    59b6:	00 00       	beq			
    59b8:	00 00       	beq			
    59ba:	00 00       	beq			
    59bc:	e0 00       	.word	0x00e0;	????
    59be:	00 00       	beq			
    59c0:	c0 03       	.word	0x03c0;	????
    59c2:	00 00       	beq			
    59c4:	00 00       	beq			
    59c6:	00 00       	beq			
    59c8:	e0 00       	.word	0x00e0;	????
    59ca:	00 00       	beq			
    59cc:	a6 05       	.word	0x05a6;	????
    59ce:	00 00       	beq			
    59d0:	00 00       	beq			
    59d2:	00 00       	beq			
    59d4:	24 00       	.word	0x0024;	????
    59d6:	00 00       	beq			
    59d8:	c0 05       	.word	0x05c0;	????
    59da:	00 00       	beq			
    59dc:	8f 47 00 00 	mov	r7,	0(r15)	;
    59e0:	28 00       	.word	0x0028;	????
    59e2:	65 00       	.word	0x0065;	????
    59e4:	04 11       	rra	r4		;
    59e6:	00 00       	beq			
    59e8:	a3 47 00 00 	mov	@r7,	0(r3)	;
    59ec:	26 00       	.word	0x0026;	????
    59ee:	66 00       	.word	0x0066;	????
    59f0:	02 11       	rra	r2		;
    59f2:	00 00       	beq			
    59f4:	00 00       	beq			
    59f6:	00 00       	beq			
    59f8:	64 00       	.word	0x0064;	????
    59fa:	00 00       	beq			
    59fc:	64 34       	jge	$+202    	;abs 0x5ac6
    59fe:	00 00       	beq			
    5a00:	19 44 00 00 	mov	0(r4),	r9	;
    5a04:	64 00       	.word	0x0064;	????
    5a06:	00 00       	beq			
    5a08:	64 34       	jge	$+202    	;abs 0x5ad2
    5a0a:	00 00       	beq			
    5a0c:	b4 47 00 00 	mov	@r7+,	0(r4)	;
    5a10:	64 00       	.word	0x0064;	????
    5a12:	00 00       	beq			
    5a14:	64 34       	jge	$+202    	;abs 0x5ade
    5a16:	00 00       	beq			
    5a18:	5a 00       	.word	0x005a;	????
    5a1a:	00 00       	beq			
    5a1c:	3c 00       	.word	0x003c;	????
    5a1e:	00 00       	beq			
    5a20:	00 00       	beq			
    5a22:	00 00       	beq			
    5a24:	69 00       	.word	0x0069;	????
    5a26:	00 00       	beq			
    5a28:	80 00       	.word	0x0080;	????
    5a2a:	00 00       	beq			
    5a2c:	00 00       	beq			
    5a2e:	00 00       	beq			
    5a30:	89 00       	.word	0x0089;	????
    5a32:	00 00       	beq			
    5a34:	80 00       	.word	0x0080;	????
    5a36:	00 00       	beq			
    5a38:	00 00       	beq			
    5a3a:	00 00       	beq			
    5a3c:	a3 00       	.word	0x00a3;	????
    5a3e:	00 00       	beq			
    5a40:	80 00       	.word	0x0080;	????
    5a42:	00 00       	beq			
    5a44:	00 00       	beq			
    5a46:	00 00       	beq			
    5a48:	dc 00       	.word	0x00dc;	????
    5a4a:	00 00       	beq			
    5a4c:	80 00       	.word	0x0080;	????
    5a4e:	00 00       	beq			
    5a50:	00 00       	beq			
    5a52:	00 00       	beq			
    5a54:	14 01       	.word	0x0114;	????
    5a56:	00 00       	beq			
    5a58:	80 00       	.word	0x0080;	????
    5a5a:	00 00       	beq			
    5a5c:	00 00       	beq			
    5a5e:	00 00       	beq			
    5a60:	56 01       	.word	0x0156;	????
    5a62:	00 00       	beq			
    5a64:	80 00       	.word	0x0080;	????
    5a66:	00 00       	beq			
    5a68:	00 00       	beq			
    5a6a:	00 00       	beq			
    5a6c:	a7 01       	.word	0x01a7;	????
    5a6e:	00 00       	beq			
    5a70:	80 00       	.word	0x0080;	????
    5a72:	00 00       	beq			
    5a74:	00 00       	beq			
    5a76:	00 00       	beq			
    5a78:	f8 01       	.word	0x01f8;	????
    5a7a:	00 00       	beq			
    5a7c:	80 00       	.word	0x0080;	????
    5a7e:	00 00       	beq			
    5a80:	00 00       	beq			
    5a82:	00 00       	beq			
    5a84:	1e 02       	.word	0x021e;	????
    5a86:	00 00       	beq			
    5a88:	80 00       	.word	0x0080;	????
    5a8a:	00 00       	beq			
    5a8c:	00 00       	beq			
    5a8e:	00 00       	beq			
    5a90:	5c 02       	.word	0x025c;	????
    5a92:	00 00       	beq			
    5a94:	80 00       	.word	0x0080;	????
    5a96:	00 00       	beq			
    5a98:	00 00       	beq			
    5a9a:	00 00       	beq			
    5a9c:	86 02       	.word	0x0286;	????
    5a9e:	00 00       	beq			
    5aa0:	80 00       	.word	0x0080;	????
    5aa2:	00 00       	beq			
    5aa4:	00 00       	beq			
    5aa6:	00 00       	beq			
    5aa8:	af 02       	.word	0x02af;	????
    5aaa:	00 00       	beq			
    5aac:	80 00       	.word	0x0080;	????
    5aae:	00 00       	beq			
    5ab0:	00 00       	beq			
    5ab2:	00 00       	beq			
    5ab4:	c9 02       	.word	0x02c9;	????
    5ab6:	00 00       	beq			
    5ab8:	80 00       	.word	0x0080;	????
    5aba:	00 00       	beq			
    5abc:	00 00       	beq			
    5abe:	00 00       	beq			
    5ac0:	e4 02       	.word	0x02e4;	????
    5ac2:	00 00       	beq			
    5ac4:	80 00       	.word	0x0080;	????
    5ac6:	00 00       	beq			
    5ac8:	00 00       	beq			
    5aca:	00 00       	beq			
    5acc:	04 03       	.word	0x0304;	????
    5ace:	00 00       	beq			
    5ad0:	80 00       	.word	0x0080;	????
    5ad2:	00 00       	beq			
    5ad4:	00 00       	beq			
    5ad6:	00 00       	beq			
    5ad8:	3d 03       	.word	0x033d;	????
    5ada:	00 00       	beq			
    5adc:	80 00       	.word	0x0080;	????
    5ade:	00 00       	beq			
    5ae0:	00 00       	beq			
    5ae2:	00 00       	beq			
    5ae4:	5b 03       	.word	0x035b;	????
    5ae6:	00 00       	beq			
    5ae8:	80 00       	.word	0x0080;	????
    5aea:	00 00       	beq			
    5aec:	00 00       	beq			
    5aee:	00 00       	beq			
    5af0:	7a 03       	.word	0x037a;	????
    5af2:	00 00       	beq			
    5af4:	80 00       	.word	0x0080;	????
    5af6:	00 00       	beq			
    5af8:	00 00       	beq			
    5afa:	00 00       	beq			
    5afc:	9e 03       	.word	0x039e;	????
    5afe:	00 00       	beq			
    5b00:	80 00       	.word	0x0080;	????
    5b02:	00 00       	beq			
    5b04:	00 00       	beq			
    5b06:	00 00       	beq			
    5b08:	c7 03       	.word	0x03c7;	????
    5b0a:	00 00       	beq			
    5b0c:	80 00       	.word	0x0080;	????
    5b0e:	00 00       	beq			
    5b10:	00 00       	beq			
    5b12:	00 00       	beq			
    5b14:	b4 47 00 00 	mov	@r7+,	0(r4)	;
    5b18:	82 00       	.word	0x0082;	????
    5b1a:	00 00       	beq			
    5b1c:	11 07       	.word	0x0711;	????
    5b1e:	00 00       	beq			
    5b20:	5c 44 00 00 	mov.b	0(r4),	r12	;
    5b24:	c2 00       	.word	0x00c2;	????
    5b26:	00 00       	beq			
    5b28:	00 00       	beq			
    5b2a:	00 00       	beq			
    5b2c:	6f 44       	mov.b	@r4,	r15	;
    5b2e:	00 00       	beq			
    5b30:	c2 00       	.word	0x00c2;	????
    5b32:	00 00       	beq			
    5b34:	13 10       	rrc	#1		;r3 As==01
    5b36:	00 00       	beq			
    5b38:	c5 44 00 00 	mov.b	r4,	0(r5)	;
    5b3c:	c2 00       	.word	0x00c2;	????
    5b3e:	00 00       	beq			
    5b40:	ea a9 00 00 	dadd.b	@r9,	0(r10)	;
    5b44:	dc 44 00 00 	mov.b	0(r4),	194(r12);
    5b48:	c2 00 
    5b4a:	00 00       	beq			
    5b4c:	00 00       	beq			
    5b4e:	00 00       	beq			
    5b50:	f3 44 00 00 	mov.b	@r4+,	0(r3)	;
    5b54:	c2 00       	.word	0x00c2;	????
    5b56:	00 00       	beq			
    5b58:	91 34       	jge	$+292    	;abs 0x5c7c
    5b5a:	00 00       	beq			
    5b5c:	0d 45       	mov	r5,	r13	;
    5b5e:	00 00       	beq			
    5b60:	c2 00       	.word	0x00c2;	????
    5b62:	00 00       	beq			
    5b64:	76 0d       	.word	0x0d76;	????
    5b66:	00 00       	beq			
    5b68:	c2 47 00 00 	mov.b	r7,	&0x0000	;
    5b6c:	24 00       	.word	0x0024;	????
    5b6e:	1d 00       	.word	0x001d;	????
    5b70:	64 34       	jge	$+202    	;abs 0x5c3a
    5b72:	00 00       	beq			
    5b74:	ce 47 00 00 	mov.b	r7,	0(r14)	;
    5b78:	40 00       	.word	0x0040;	????
    5b7a:	1d 00       	.word	0x001d;	????
    5b7c:	0b 00       	.word	0x000b;	????
    5b7e:	00 00       	beq			
    5b80:	00 00       	beq			
    5b82:	00 00       	beq			
    5b84:	44 00       	.word	0x0044;	????
    5b86:	1d 00       	.word	0x001d;	????
	...
    5b90:	44 00       	.word	0x0044;	????
    5b92:	1e 00       	.word	0x001e;	????
    5b94:	04 00       	.word	0x0004;	????
    5b96:	00 00       	beq			
    5b98:	00 00       	beq			
    5b9a:	00 00       	beq			
    5b9c:	44 00       	.word	0x0044;	????
    5b9e:	1f 00       	.word	0x001f;	????
    5ba0:	06 00       	.word	0x0006;	????
    5ba2:	00 00       	beq			
    5ba4:	00 00       	beq			
    5ba6:	00 00       	beq			
    5ba8:	44 00       	.word	0x0044;	????
    5baa:	23 00       	.word	0x0023;	????
    5bac:	1a 00       	.word	0x001a;	????
    5bae:	00 00       	beq			
    5bb0:	00 00       	beq			
    5bb2:	00 00       	beq			
    5bb4:	44 00       	.word	0x0044;	????
    5bb6:	20 00       	.word	0x0020;	????
    5bb8:	1e 00       	.word	0x001e;	????
    5bba:	00 00       	beq			
    5bbc:	00 00       	beq			
    5bbe:	00 00       	beq			
    5bc0:	44 00       	.word	0x0044;	????
    5bc2:	21 00       	.word	0x0021;	????
    5bc4:	22 00       	.word	0x0022;	????
    5bc6:	00 00       	beq			
    5bc8:	00 00       	beq			
    5bca:	00 00       	beq			
    5bcc:	44 00       	.word	0x0044;	????
    5bce:	25 00       	.word	0x0025;	????
    5bd0:	2a 00       	.word	0x002a;	????
    5bd2:	00 00       	beq			
    5bd4:	d8 47 00 00 	mov.b	0(r7),	64(r8)	;
    5bd8:	40 00 
    5bda:	1e 00       	.word	0x001e;	????
    5bdc:	0e 00       	.word	0x000e;	????
    5bde:	00 00       	beq			
    5be0:	00 00       	beq			
    5be2:	00 00       	beq			
    5be4:	c0 00       	.word	0x00c0;	????
    5be6:	00 00       	beq			
    5be8:	04 00       	.word	0x0004;	????
    5bea:	00 00       	beq			
    5bec:	00 00       	beq			
    5bee:	00 00       	beq			
    5bf0:	e0 00       	.word	0x00e0;	????
    5bf2:	00 00       	beq			
    5bf4:	2a 00       	.word	0x002a;	????
    5bf6:	00 00       	beq			
    5bf8:	00 00       	beq			
    5bfa:	00 00       	beq			
    5bfc:	24 00       	.word	0x0024;	????
    5bfe:	00 00       	beq			
    5c00:	2e 00       	.word	0x002e;	????
    5c02:	00 00       	beq			
    5c04:	00 00       	beq			
    5c06:	00 00       	beq			
    5c08:	64 00       	.word	0x0064;	????
    5c0a:	00 00       	beq			
    5c0c:	92 34       	jge	$+294    	;abs 0x5d32
    5c0e:	00 00       	beq			
    5c10:	19 44 00 00 	mov	0(r4),	r9	;
    5c14:	64 00       	.word	0x0064;	????
    5c16:	00 00       	beq			
    5c18:	92 34       	jge	$+294    	;abs 0x5d3e
    5c1a:	00 00       	beq			
    5c1c:	e2 47 00 00 	mov.b	@r7,	&0x0000	;
    5c20:	64 00       	.word	0x0064;	????
    5c22:	00 00       	beq			
    5c24:	92 34       	jge	$+294    	;abs 0x5d4a
    5c26:	00 00       	beq			
    5c28:	5a 00       	.word	0x005a;	????
    5c2a:	00 00       	beq			
    5c2c:	3c 00       	.word	0x003c;	????
    5c2e:	00 00       	beq			
    5c30:	00 00       	beq			
    5c32:	00 00       	beq			
    5c34:	69 00       	.word	0x0069;	????
    5c36:	00 00       	beq			
    5c38:	80 00       	.word	0x0080;	????
    5c3a:	00 00       	beq			
    5c3c:	00 00       	beq			
    5c3e:	00 00       	beq			
    5c40:	89 00       	.word	0x0089;	????
    5c42:	00 00       	beq			
    5c44:	80 00       	.word	0x0080;	????
    5c46:	00 00       	beq			
    5c48:	00 00       	beq			
    5c4a:	00 00       	beq			
    5c4c:	a3 00       	.word	0x00a3;	????
    5c4e:	00 00       	beq			
    5c50:	80 00       	.word	0x0080;	????
    5c52:	00 00       	beq			
    5c54:	00 00       	beq			
    5c56:	00 00       	beq			
    5c58:	dc 00       	.word	0x00dc;	????
    5c5a:	00 00       	beq			
    5c5c:	80 00       	.word	0x0080;	????
    5c5e:	00 00       	beq			
    5c60:	00 00       	beq			
    5c62:	00 00       	beq			
    5c64:	14 01       	.word	0x0114;	????
    5c66:	00 00       	beq			
    5c68:	80 00       	.word	0x0080;	????
    5c6a:	00 00       	beq			
    5c6c:	00 00       	beq			
    5c6e:	00 00       	beq			
    5c70:	56 01       	.word	0x0156;	????
    5c72:	00 00       	beq			
    5c74:	80 00       	.word	0x0080;	????
    5c76:	00 00       	beq			
    5c78:	00 00       	beq			
    5c7a:	00 00       	beq			
    5c7c:	a7 01       	.word	0x01a7;	????
    5c7e:	00 00       	beq			
    5c80:	80 00       	.word	0x0080;	????
    5c82:	00 00       	beq			
    5c84:	00 00       	beq			
    5c86:	00 00       	beq			
    5c88:	f8 01       	.word	0x01f8;	????
    5c8a:	00 00       	beq			
    5c8c:	80 00       	.word	0x0080;	????
    5c8e:	00 00       	beq			
    5c90:	00 00       	beq			
    5c92:	00 00       	beq			
    5c94:	1e 02       	.word	0x021e;	????
    5c96:	00 00       	beq			
    5c98:	80 00       	.word	0x0080;	????
    5c9a:	00 00       	beq			
    5c9c:	00 00       	beq			
    5c9e:	00 00       	beq			
    5ca0:	5c 02       	.word	0x025c;	????
    5ca2:	00 00       	beq			
    5ca4:	80 00       	.word	0x0080;	????
    5ca6:	00 00       	beq			
    5ca8:	00 00       	beq			
    5caa:	00 00       	beq			
    5cac:	86 02       	.word	0x0286;	????
    5cae:	00 00       	beq			
    5cb0:	80 00       	.word	0x0080;	????
    5cb2:	00 00       	beq			
    5cb4:	00 00       	beq			
    5cb6:	00 00       	beq			
    5cb8:	af 02       	.word	0x02af;	????
    5cba:	00 00       	beq			
    5cbc:	80 00       	.word	0x0080;	????
    5cbe:	00 00       	beq			
    5cc0:	00 00       	beq			
    5cc2:	00 00       	beq			
    5cc4:	c9 02       	.word	0x02c9;	????
    5cc6:	00 00       	beq			
    5cc8:	80 00       	.word	0x0080;	????
    5cca:	00 00       	beq			
    5ccc:	00 00       	beq			
    5cce:	00 00       	beq			
    5cd0:	e4 02       	.word	0x02e4;	????
    5cd2:	00 00       	beq			
    5cd4:	80 00       	.word	0x0080;	????
    5cd6:	00 00       	beq			
    5cd8:	00 00       	beq			
    5cda:	00 00       	beq			
    5cdc:	04 03       	.word	0x0304;	????
    5cde:	00 00       	beq			
    5ce0:	80 00       	.word	0x0080;	????
    5ce2:	00 00       	beq			
    5ce4:	00 00       	beq			
    5ce6:	00 00       	beq			
    5ce8:	3d 03       	.word	0x033d;	????
    5cea:	00 00       	beq			
    5cec:	80 00       	.word	0x0080;	????
    5cee:	00 00       	beq			
    5cf0:	00 00       	beq			
    5cf2:	00 00       	beq			
    5cf4:	5b 03       	.word	0x035b;	????
    5cf6:	00 00       	beq			
    5cf8:	80 00       	.word	0x0080;	????
    5cfa:	00 00       	beq			
    5cfc:	00 00       	beq			
    5cfe:	00 00       	beq			
    5d00:	7a 03       	.word	0x037a;	????
    5d02:	00 00       	beq			
    5d04:	80 00       	.word	0x0080;	????
    5d06:	00 00       	beq			
    5d08:	00 00       	beq			
    5d0a:	00 00       	beq			
    5d0c:	9e 03       	.word	0x039e;	????
    5d0e:	00 00       	beq			
    5d10:	80 00       	.word	0x0080;	????
    5d12:	00 00       	beq			
    5d14:	00 00       	beq			
    5d16:	00 00       	beq			
    5d18:	c7 03       	.word	0x03c7;	????
    5d1a:	00 00       	beq			
    5d1c:	80 00       	.word	0x0080;	????
    5d1e:	00 00       	beq			
    5d20:	00 00       	beq			
    5d22:	00 00       	beq			
    5d24:	e2 47 00 00 	mov.b	@r7,	&0x0000	;
    5d28:	82 00       	.word	0x0082;	????
    5d2a:	00 00       	beq			
    5d2c:	e7 12       	.word	0x12e7;	????
    5d2e:	00 00       	beq			
    5d30:	dc 44 00 00 	mov.b	0(r4),	194(r12);
    5d34:	c2 00 
    5d36:	00 00       	beq			
    5d38:	00 00       	beq			
    5d3a:	00 00       	beq			
    5d3c:	ac 45 00 00 	mov	@r5,	0(r12)	;
    5d40:	c2 00       	.word	0x00c2;	????
    5d42:	00 00       	beq			
    5d44:	00 00       	beq			
    5d46:	00 00       	beq			
    5d48:	6f 44       	mov.b	@r4,	r15	;
    5d4a:	00 00       	beq			
    5d4c:	c2 00       	.word	0x00c2;	????
    5d4e:	00 00       	beq			
    5d50:	13 10       	rrc	#1		;r3 As==01
    5d52:	00 00       	beq			
    5d54:	c5 44 00 00 	mov.b	r4,	0(r5)	;
    5d58:	c2 00       	.word	0x00c2;	????
    5d5a:	00 00       	beq			
    5d5c:	ea a9 00 00 	dadd.b	@r9,	0(r10)	;
    5d60:	f3 44 00 00 	mov.b	@r4+,	0(r3)	;
    5d64:	c2 00       	.word	0x00c2;	????
    5d66:	00 00       	beq			
    5d68:	91 34       	jge	$+292    	;abs 0x5e8c
    5d6a:	00 00       	beq			
    5d6c:	f2 47 00 00 	mov.b	@r7+,	&0x0000	;
    5d70:	24 00       	.word	0x0024;	????
    5d72:	29 00       	.word	0x0029;	????
    5d74:	92 34       	jge	$+294    	;abs 0x5e9a
    5d76:	00 00       	beq			
    5d78:	08 48       	mov	r8,	r8	;
    5d7a:	00 00       	beq			
    5d7c:	40 00       	.word	0x0040;	????
    5d7e:	26 00       	.word	0x0026;	????
    5d80:	0b 00       	.word	0x000b;	????
    5d82:	00 00       	beq			
    5d84:	2a 29       	jnc	$+598    	;abs 0x5fda
    5d86:	00 00       	beq			
    5d88:	40 00       	.word	0x0040;	????
    5d8a:	27 00       	.word	0x0027;	????
    5d8c:	0c 00       	.word	0x000c;	????
    5d8e:	00 00       	beq			
    5d90:	20 48       	br	@r8		;
    5d92:	00 00       	beq			
    5d94:	40 00       	.word	0x0040;	????
    5d96:	28 00       	.word	0x0028;	????
    5d98:	0d 00       	.word	0x000d;	????
    5d9a:	00 00       	beq			
    5d9c:	00 00       	beq			
    5d9e:	00 00       	beq			
    5da0:	44 00       	.word	0x0044;	????
    5da2:	29 00       	.word	0x0029;	????
	...
    5dac:	44 00       	.word	0x0044;	????
    5dae:	2a 00       	.word	0x002a;	????
    5db0:	06 00       	.word	0x0006;	????
    5db2:	00 00       	beq			
    5db4:	00 00       	beq			
    5db6:	00 00       	beq			
    5db8:	44 00       	.word	0x0044;	????
    5dba:	2c 00       	.word	0x002c;	????
    5dbc:	0a 00       	.word	0x000a;	????
    5dbe:	00 00       	beq			
    5dc0:	00 00       	beq			
    5dc2:	00 00       	beq			
    5dc4:	44 00       	.word	0x0044;	????
    5dc6:	30 00       	.word	0x0030;	????
    5dc8:	0c 00       	.word	0x000c;	????
    5dca:	00 00       	beq			
    5dcc:	00 00       	beq			
    5dce:	00 00       	beq			
    5dd0:	44 00       	.word	0x0044;	????
    5dd2:	32 00       	.word	0x0032;	????
    5dd4:	14 00       	.word	0x0014;	????
    5dd6:	00 00       	beq			
    5dd8:	00 00       	beq			
    5dda:	00 00       	beq			
    5ddc:	44 00       	.word	0x0044;	????
    5dde:	35 00       	.word	0x0035;	????
    5de0:	18 00       	.word	0x0018;	????
    5de2:	00 00       	beq			
    5de4:	00 00       	beq			
    5de6:	00 00       	beq			
    5de8:	44 00       	.word	0x0044;	????
    5dea:	31 00       	.word	0x0031;	????
    5dec:	1c 00       	.word	0x001c;	????
    5dee:	00 00       	beq			
    5df0:	00 00       	beq			
    5df2:	00 00       	beq			
    5df4:	44 00       	.word	0x0044;	????
    5df6:	36 00       	.word	0x0036;	????
    5df8:	20 00       	.word	0x0020;	????
    5dfa:	00 00       	beq			
    5dfc:	29 48       	mov	@r8,	r9	;
    5dfe:	00 00       	beq			
    5e00:	40 00       	.word	0x0040;	????
    5e02:	2c 00       	.word	0x002c;	????
    5e04:	0e 00       	.word	0x000e;	????
    5e06:	00 00       	beq			
    5e08:	00 00       	beq			
    5e0a:	00 00       	beq			
    5e0c:	c0 00       	.word	0x00c0;	????
    5e0e:	00 00       	beq			
    5e10:	0a 00       	.word	0x000a;	????
    5e12:	00 00       	beq			
    5e14:	00 00       	beq			
    5e16:	00 00       	beq			
    5e18:	e0 00       	.word	0x00e0;	????
    5e1a:	00 00       	beq			
    5e1c:	18 00       	.word	0x0018;	????
    5e1e:	00 00       	beq			
    5e20:	41 48       	mov.b	r8,	r1	;
    5e22:	00 00       	beq			
    5e24:	40 00       	.word	0x0040;	????
    5e26:	2c 00       	.word	0x002c;	????
    5e28:	0e 00       	.word	0x000e;	????
    5e2a:	00 00       	beq			
    5e2c:	00 00       	beq			
    5e2e:	00 00       	beq			
    5e30:	c0 00       	.word	0x00c0;	????
    5e32:	00 00       	beq			
    5e34:	1c 00       	.word	0x001c;	????
    5e36:	00 00       	beq			
    5e38:	00 00       	beq			
    5e3a:	00 00       	beq			
    5e3c:	e0 00       	.word	0x00e0;	????
    5e3e:	00 00       	beq			
    5e40:	20 00       	.word	0x0020;	????
    5e42:	00 00       	beq			
    5e44:	00 00       	beq			
    5e46:	00 00       	beq			
    5e48:	24 00       	.word	0x0024;	????
    5e4a:	00 00       	beq			
    5e4c:	24 00       	.word	0x0024;	????
    5e4e:	00 00       	beq			
    5e50:	00 00       	beq			
    5e52:	00 00       	beq			
    5e54:	64 00       	.word	0x0064;	????
    5e56:	00 00       	beq			
    5e58:	b6 34       	jge	$+366    	;abs 0x5fc6
	...
Disassembly of section .stabstr:

00000000 <.stabstr>:
       0:	00 43       	clr	r0		;
       2:	3a 2f       	jc	$-394    	;abs 0xfe78
       4:	44 4f       	mov.b	r15,	r4	;
       6:	4b 55       	add.b	r5,	r11	;
       8:	4d 45       	mov.b	r5,	r13	;
       a:	7e 31       	jn	$+766    	;abs 0x308
       c:	2f 77       	subc	@r7,	r15	;
       e:	6f 72       	subc.b	#4,	r15	;r2 As==10
      10:	6b 2f       	jc	$-296    	;abs 0xfee8
      12:	4c 4f       	mov.b	r15,	r12	;
      14:	4b 41       	mov.b	r1,	r11	;
      16:	4c 45       	mov.b	r5,	r12	;
      18:	7e 31       	jn	$+766    	;abs 0x316
      1a:	2f 54       	add	@r4,	r15	;
      1c:	65 6d       	addc.b	@r13,	r5	;
      1e:	70 2f       	jc	$-286    	;abs 0xff00
      20:	63 63       	.word	0x6363;	????
      22:	7a 6e       	addc.b	@r14+,	r10	;
      24:	34 66       	addc	@r6+,	r4	;
      26:	68 56       	add.b	@r6,	r8	;
      28:	2e 73       	subc	#2,	r14	;r3 As==10
      2a:	00 67       	addc	r7,	r0	;
      2c:	63 72       	.word	0x7263;	????
      2e:	74 30       	jn	$+234    	;abs 0x118
      30:	2e 53       	incd	r14		;
      32:	00 43       	clr	r0		;
      34:	3a 5c       	add	@r12+,	r10	;
      36:	6d 73       	subc.b	#2,	r13	;r3 As==10
      38:	70 67       	addc.b	@r7+,	r0	;
      3a:	63 63       	.word	0x6363;	????
      3c:	5c 50 72 6f 	add.b	0x6f72,	r12	;PC rel. 0x6fb0
      40:	6a 65       	addc.b	@r5,	r10	;
      42:	74 6f       	addc.b	@r15+,	r4	;
      44:	73 5c       	.word	0x5c73;	????
      46:	4a 75       	subc.b	r5,	r10	;
      48:	6c 69       	addc.b	@r9,	r12	;
      4a:	6f 2f       	jc	$-288    	;abs 0xff2a
      4c:	00 6e       	addc	r14,	r0	;
      4e:	75 6e       	addc.b	@r14+,	r5	;
      50:	63 68       	.word	0x6863;	????
      52:	75 63       	addc.b	#-1,	r5	;r3 As==11
      54:	6b 5f       	add.b	@r15,	r11	;
      56:	38 2e       	jc	$-910    	;abs 0xfcc8
      58:	63 00       	.word	0x0063;	????
      5a:	67 63       	addc.b	#2,	r7	;r3 As==10
      5c:	63 32       	jn	$-824    	;abs 0xfd24
      5e:	5f 63       	addc.b	#1,	r15	;r3 As==01
      60:	6f 6d       	addc.b	@r13,	r15	;
      62:	70 69       	addc.b	@r9+,	r0	;
      64:	6c 65       	addc.b	@r5,	r12	;
      66:	64 2e       	jc	$-822    	;abs 0xfd30
      68:	00 69       	addc	r9,	r0	;
      6a:	6e 74       	subc.b	@r4,	r14	;
      6c:	3a 74       	subc	@r4+,	r10	;
      6e:	28 30       	jn	$+82     	;abs 0xc0
      70:	2c 31       	jn	$+602    	;abs 0x2ca
      72:	29 3d       	jmp	$+596    	;abs 0x2c6
      74:	72 28       	jnc	$+230    	;abs 0x15a
      76:	30 2c       	jc	$+98     	;abs 0xd8
      78:	31 29       	jnc	$+612    	;abs 0x2dc
      7a:	3b 2d       	jc	$+632    	;abs 0x2f2
      7c:	33 32       	jn	$-920    	;abs 0xfce4
      7e:	37 36       	jge	$-912    	;abs 0xfcee
      80:	38 3b       	jl	$-398    	;abs 0xfef2
      82:	33 32       	jn	$-920    	;abs 0xfcea
      84:	37 36       	jge	$-912    	;abs 0xfcf4
      86:	37 3b       	jl	$-400    	;abs 0xfef6
      88:	00 63       	adc	r0		;
      8a:	68 61       	addc.b	@r1,	r8	;
      8c:	72 3a       	jl	$-794    	;abs 0xfd72
      8e:	74 28       	jnc	$+234    	;abs 0x178
      90:	30 2c       	jc	$+98     	;abs 0xf2
      92:	32 29       	jnc	$+614    	;abs 0x2f8
      94:	3d 72       	subc	#8,	r13	;r2 As==11
      96:	28 30       	jn	$+82     	;abs 0xe8
      98:	2c 32       	jn	$-934    	;abs 0xfcf2
      9a:	29 3b       	jl	$-428    	;abs 0xfeee
      9c:	30 3b       	jl	$-414    	;abs 0xfefe
      9e:	31 32       	jn	$-924    	;abs 0xfd02
      a0:	37 3b       	jl	$-400    	;abs 0xff10
      a2:	00 6c       	addc	r12,	r0	;
      a4:	6f 6e       	addc.b	@r14,	r15	;
      a6:	67 20       	jnz	$+208    	;abs 0x176
      a8:	69 6e       	addc.b	@r14,	r9	;
      aa:	74 3a       	jl	$-790    	;abs 0xfd94
      ac:	74 28       	jnc	$+234    	;abs 0x196
      ae:	30 2c       	jc	$+98     	;abs 0x110
      b0:	33 29       	jnc	$+616    	;abs 0x318
      b2:	3d 40 73 33 	mov	#13171,	r13	;#0x3373
      b6:	32 3b       	jl	$-410    	;abs 0xff1c
      b8:	72 28       	jnc	$+230    	;abs 0x19e
      ba:	30 2c       	jc	$+98     	;abs 0x11c
      bc:	33 29       	jnc	$+616    	;abs 0x324
      be:	3b 30       	jn	$+120    	;abs 0x136
      c0:	30 32       	jn	$-926    	;abs 0xfd22
      c2:	30 30       	jn	$+98     	;abs 0x124
      c4:	30 30       	jn	$+98     	;abs 0x126
      c6:	30 30       	jn	$+98     	;abs 0x128
      c8:	30 30       	jn	$+98     	;abs 0x12a
      ca:	30 30       	jn	$+98     	;abs 0x12c
      cc:	3b 30       	jn	$+120    	;abs 0x144
      ce:	30 31       	jn	$+610    	;abs 0x330
      d0:	37 37       	jge	$-400    	;abs 0xff40
      d2:	37 37       	jge	$-400    	;abs 0xff42
      d4:	37 37       	jge	$-400    	;abs 0xff44
      d6:	37 37       	jge	$-400    	;abs 0xff46
      d8:	37 37       	jge	$-400    	;abs 0xff48
      da:	3b 00       	.word	0x003b;	????
      dc:	75 6e       	addc.b	@r14+,	r5	;
      de:	73 69       	.word	0x6973;	????
      e0:	67 6e       	addc.b	@r14,	r7	;
      e2:	65 64       	addc.b	@r4,	r5	;
      e4:	20 69       	addc	@r9,	r0	;
      e6:	6e 74       	subc.b	@r4,	r14	;
      e8:	3a 74       	subc	@r4+,	r10	;
      ea:	28 30       	jn	$+82     	;abs 0x13c
      ec:	2c 34       	jge	$+90     	;abs 0x146
      ee:	29 3d       	jmp	$+596    	;abs 0x342
      f0:	72 28       	jnc	$+230    	;abs 0x1d6
      f2:	30 2c       	jc	$+98     	;abs 0x154
      f4:	34 29       	jnc	$+618    	;abs 0x35e
      f6:	3b 30       	jn	$+120    	;abs 0x16e
      f8:	30 30       	jn	$+98     	;abs 0x15a
      fa:	30 30       	jn	$+98     	;abs 0x15c
      fc:	30 30       	jn	$+98     	;abs 0x15e
      fe:	30 30       	jn	$+98     	;abs 0x160
     100:	30 30       	jn	$+98     	;abs 0x162
     102:	30 30       	jn	$+98     	;abs 0x164
     104:	3b 30       	jn	$+120    	;abs 0x17c
     106:	30 30       	jn	$+98     	;abs 0x168
     108:	30 30       	jn	$+98     	;abs 0x16a
     10a:	30 30       	jn	$+98     	;abs 0x16c
     10c:	31 37       	jge	$-412    	;abs 0xff70
     10e:	37 37       	jge	$-400    	;abs 0xff7e
     110:	37 37       	jge	$-400    	;abs 0xff80
     112:	3b 00       	.word	0x003b;	????
     114:	6c 6f       	addc.b	@r15,	r12	;
     116:	6e 67       	addc.b	@r7,	r14	;
     118:	20 75       	subc	@r5,	r0	;
     11a:	6e 73       	subc.b	#2,	r14	;r3 As==10
     11c:	69 67       	addc.b	@r7,	r9	;
     11e:	6e 65       	addc.b	@r5,	r14	;
     120:	64 20       	jnz	$+202    	;abs 0x1ea
     122:	69 6e       	addc.b	@r14,	r9	;
     124:	74 3a       	jl	$-790    	;abs 0xfe0e
     126:	74 28       	jnc	$+234    	;abs 0x210
     128:	30 2c       	jc	$+98     	;abs 0x18a
     12a:	35 29       	jnc	$+620    	;abs 0x396
     12c:	3d 40 73 33 	mov	#13171,	r13	;#0x3373
     130:	32 3b       	jl	$-410    	;abs 0xff96
     132:	72 28       	jnc	$+230    	;abs 0x218
     134:	30 2c       	jc	$+98     	;abs 0x196
     136:	35 29       	jnc	$+620    	;abs 0x3a2
     138:	3b 30       	jn	$+120    	;abs 0x1b0
     13a:	30 30       	jn	$+98     	;abs 0x19c
     13c:	30 30       	jn	$+98     	;abs 0x19e
     13e:	30 30       	jn	$+98     	;abs 0x1a0
     140:	30 30       	jn	$+98     	;abs 0x1a2
     142:	30 30       	jn	$+98     	;abs 0x1a4
     144:	30 30       	jn	$+98     	;abs 0x1a6
     146:	3b 30       	jn	$+120    	;abs 0x1be
     148:	30 33       	jn	$-414    	;abs 0xffaa
     14a:	37 37       	jge	$-400    	;abs 0xffba
     14c:	37 37       	jge	$-400    	;abs 0xffbc
     14e:	37 37       	jge	$-400    	;abs 0xffbe
     150:	37 37       	jge	$-400    	;abs 0xffc0
     152:	37 37       	jge	$-400    	;abs 0xffc2
     154:	3b 00       	.word	0x003b;	????
     156:	6c 6f       	addc.b	@r15,	r12	;
     158:	6e 67       	addc.b	@r7,	r14	;
     15a:	20 6c       	addc	@r12,	r0	;
     15c:	6f 6e       	addc.b	@r14,	r15	;
     15e:	67 20       	jnz	$+208    	;abs 0x22e
     160:	69 6e       	addc.b	@r14,	r9	;
     162:	74 3a       	jl	$-790    	;abs 0xfe4c
     164:	74 28       	jnc	$+234    	;abs 0x24e
     166:	30 2c       	jc	$+98     	;abs 0x1c8
     168:	36 29       	jnc	$+622    	;abs 0x3d6
     16a:	3d 40 73 36 	mov	#13939,	r13	;#0x3673
     16e:	34 3b       	jl	$-406    	;abs 0xffd8
     170:	72 28       	jnc	$+230    	;abs 0x256
     172:	30 2c       	jc	$+98     	;abs 0x1d4
     174:	36 29       	jnc	$+622    	;abs 0x3e2
     176:	3b 30       	jn	$+120    	;abs 0x1ee
     178:	31 30       	jn	$+100    	;abs 0x1dc
     17a:	30 30       	jn	$+98     	;abs 0x1dc
     17c:	30 30       	jn	$+98     	;abs 0x1de
     17e:	30 30       	jn	$+98     	;abs 0x1e0
     180:	30 30       	jn	$+98     	;abs 0x1e2
     182:	30 30       	jn	$+98     	;abs 0x1e4
     184:	30 30       	jn	$+98     	;abs 0x1e6
     186:	30 30       	jn	$+98     	;abs 0x1e8
     188:	30 30       	jn	$+98     	;abs 0x1ea
     18a:	30 30       	jn	$+98     	;abs 0x1ec
     18c:	30 30       	jn	$+98     	;abs 0x1ee
     18e:	3b 30       	jn	$+120    	;abs 0x206
     190:	37 37       	jge	$-400    	;abs 0x0
     192:	37 37       	jge	$-400    	;abs 0x2
     194:	37 37       	jge	$-400    	;abs 0x4
     196:	37 37       	jge	$-400    	;abs 0x6
     198:	37 37       	jge	$-400    	;abs 0x8
     19a:	37 37       	jge	$-400    	;abs 0xa
     19c:	37 37       	jge	$-400    	;abs 0xc
     19e:	37 37       	jge	$-400    	;abs 0xe
     1a0:	37 37       	jge	$-400    	;abs 0x10
     1a2:	37 37       	jge	$-400    	;abs 0x12
     1a4:	37 3b       	jl	$-400    	;abs 0x14
     1a6:	00 6c       	addc	r12,	r0	;
     1a8:	6f 6e       	addc.b	@r14,	r15	;
     1aa:	67 20       	jnz	$+208    	;abs 0x27a
     1ac:	6c 6f       	addc.b	@r15,	r12	;
     1ae:	6e 67       	addc.b	@r7,	r14	;
     1b0:	20 75       	subc	@r5,	r0	;
     1b2:	6e 73       	subc.b	#2,	r14	;r3 As==10
     1b4:	69 67       	addc.b	@r7,	r9	;
     1b6:	6e 65       	addc.b	@r5,	r14	;
     1b8:	64 20       	jnz	$+202    	;abs 0x282
     1ba:	69 6e       	addc.b	@r14,	r9	;
     1bc:	74 3a       	jl	$-790    	;abs 0xfea6
     1be:	74 28       	jnc	$+234    	;abs 0x2a8
     1c0:	30 2c       	jc	$+98     	;abs 0x222
     1c2:	37 29       	jnc	$+624    	;abs 0x432
     1c4:	3d 40 73 36 	mov	#13939,	r13	;#0x3673
     1c8:	34 3b       	jl	$-406    	;abs 0x32
     1ca:	72 28       	jnc	$+230    	;abs 0x2b0
     1cc:	30 2c       	jc	$+98     	;abs 0x22e
     1ce:	37 29       	jnc	$+624    	;abs 0x43e
     1d0:	3b 30       	jn	$+120    	;abs 0x248
     1d2:	30 30       	jn	$+98     	;abs 0x234
     1d4:	30 30       	jn	$+98     	;abs 0x236
     1d6:	30 30       	jn	$+98     	;abs 0x238
     1d8:	30 30       	jn	$+98     	;abs 0x23a
     1da:	30 30       	jn	$+98     	;abs 0x23c
     1dc:	30 30       	jn	$+98     	;abs 0x23e
     1de:	3b 30       	jn	$+120    	;abs 0x256
     1e0:	31 37       	jge	$-412    	;abs 0x44
     1e2:	37 37       	jge	$-400    	;abs 0x52
     1e4:	37 37       	jge	$-400    	;abs 0x54
     1e6:	37 37       	jge	$-400    	;abs 0x56
     1e8:	37 37       	jge	$-400    	;abs 0x58
     1ea:	37 37       	jge	$-400    	;abs 0x5a
     1ec:	37 37       	jge	$-400    	;abs 0x5c
     1ee:	37 37       	jge	$-400    	;abs 0x5e
     1f0:	37 37       	jge	$-400    	;abs 0x60
     1f2:	37 37       	jge	$-400    	;abs 0x62
     1f4:	37 37       	jge	$-400    	;abs 0x64
     1f6:	3b 00       	.word	0x003b;	????
     1f8:	73 68       	.word	0x6873;	????
     1fa:	6f 72       	subc.b	#4,	r15	;r2 As==10
     1fc:	74 20       	jnz	$+234    	;abs 0x2e6
     1fe:	69 6e       	addc.b	@r14,	r9	;
     200:	74 3a       	jl	$-790    	;abs 0xfeea
     202:	74 28       	jnc	$+234    	;abs 0x2ec
     204:	30 2c       	jc	$+98     	;abs 0x266
     206:	38 29       	jnc	$+626    	;abs 0x478
     208:	3d 72       	subc	#8,	r13	;r2 As==11
     20a:	28 30       	jn	$+82     	;abs 0x25c
     20c:	2c 38       	jl	$+90     	;abs 0x266
     20e:	29 3b       	jl	$-428    	;abs 0x62
     210:	2d 33       	jn	$-420    	;abs 0x6c
     212:	32 37       	jge	$-410    	;abs 0x78
     214:	36 38       	jl	$+110    	;abs 0x282
     216:	3b 33       	jn	$-392    	;abs 0x8e
     218:	32 37       	jge	$-410    	;abs 0x7e
     21a:	36 37       	jge	$-402    	;abs 0x88
     21c:	3b 00       	.word	0x003b;	????
     21e:	73 68       	.word	0x6873;	????
     220:	6f 72       	subc.b	#4,	r15	;r2 As==10
     222:	74 20       	jnz	$+234    	;abs 0x30c
     224:	75 6e       	addc.b	@r14+,	r5	;
     226:	73 69       	.word	0x6973;	????
     228:	67 6e       	addc.b	@r14,	r7	;
     22a:	65 64       	addc.b	@r4,	r5	;
     22c:	20 69       	addc	@r9,	r0	;
     22e:	6e 74       	subc.b	@r4,	r14	;
     230:	3a 74       	subc	@r4+,	r10	;
     232:	28 30       	jn	$+82     	;abs 0x284
     234:	2c 39       	jl	$+602    	;abs 0x48e
     236:	29 3d       	jmp	$+596    	;abs 0x48a
     238:	72 28       	jnc	$+230    	;abs 0x31e
     23a:	30 2c       	jc	$+98     	;abs 0x29c
     23c:	39 29       	jnc	$+628    	;abs 0x4b0
     23e:	3b 30       	jn	$+120    	;abs 0x2b6
     240:	30 30       	jn	$+98     	;abs 0x2a2
     242:	30 30       	jn	$+98     	;abs 0x2a4
     244:	30 30       	jn	$+98     	;abs 0x2a6
     246:	30 30       	jn	$+98     	;abs 0x2a8
     248:	30 30       	jn	$+98     	;abs 0x2aa
     24a:	30 30       	jn	$+98     	;abs 0x2ac
     24c:	3b 30       	jn	$+120    	;abs 0x2c4
     24e:	30 30       	jn	$+98     	;abs 0x2b0
     250:	30 30       	jn	$+98     	;abs 0x2b2
     252:	30 30       	jn	$+98     	;abs 0x2b4
     254:	31 37       	jge	$-412    	;abs 0xb8
     256:	37 37       	jge	$-400    	;abs 0xc6
     258:	37 37       	jge	$-400    	;abs 0xc8
     25a:	3b 00       	.word	0x003b;	????
     25c:	73 69       	.word	0x6973;	????
     25e:	67 6e       	addc.b	@r14,	r7	;
     260:	65 64       	addc.b	@r4,	r5	;
     262:	20 63       	addc	#2,	r0	;r3 As==10
     264:	68 61       	addc.b	@r1,	r8	;
     266:	72 3a       	jl	$-794    	;abs 0xff4c
     268:	74 28       	jnc	$+234    	;abs 0x352
     26a:	30 2c       	jc	$+98     	;abs 0x2cc
     26c:	31 30       	jn	$+100    	;abs 0x2d0
     26e:	29 3d       	jmp	$+596    	;abs 0x4c2
     270:	40 73       	sbc.b	r0		;
     272:	38 3b       	jl	$-398    	;abs 0xe4
     274:	72 28       	jnc	$+230    	;abs 0x35a
     276:	30 2c       	jc	$+98     	;abs 0x2d8
     278:	31 30       	jn	$+100    	;abs 0x2dc
     27a:	29 3b       	jl	$-428    	;abs 0xce
     27c:	2d 31       	jn	$+604    	;abs 0x4d8
     27e:	32 38       	jl	$+102    	;abs 0x2e4
     280:	3b 31       	jn	$+632    	;abs 0x4f8
     282:	32 37       	jge	$-410    	;abs 0xe8
     284:	3b 00       	.word	0x003b;	????
     286:	75 6e       	addc.b	@r14+,	r5	;
     288:	73 69       	.word	0x6973;	????
     28a:	67 6e       	addc.b	@r14,	r7	;
     28c:	65 64       	addc.b	@r4,	r5	;
     28e:	20 63       	addc	#2,	r0	;r3 As==10
     290:	68 61       	addc.b	@r1,	r8	;
     292:	72 3a       	jl	$-794    	;abs 0xff78
     294:	74 28       	jnc	$+234    	;abs 0x37e
     296:	30 2c       	jc	$+98     	;abs 0x2f8
     298:	31 31       	jn	$+612    	;abs 0x4fc
     29a:	29 3d       	jmp	$+596    	;abs 0x4ee
     29c:	40 73       	sbc.b	r0		;
     29e:	38 3b       	jl	$-398    	;abs 0x110
     2a0:	72 28       	jnc	$+230    	;abs 0x386
     2a2:	30 2c       	jc	$+98     	;abs 0x304
     2a4:	31 31       	jn	$+612    	;abs 0x508
     2a6:	29 3b       	jl	$-428    	;abs 0xfa
     2a8:	30 3b       	jl	$-414    	;abs 0x10a
     2aa:	32 35       	jge	$+614    	;abs 0x510
     2ac:	35 3b       	jl	$-404    	;abs 0x118
     2ae:	00 66       	addc	r6,	r0	;
     2b0:	6c 6f       	addc.b	@r15,	r12	;
     2b2:	61 74       	subc.b	@r4,	r1	;
     2b4:	3a 74       	subc	@r4+,	r10	;
     2b6:	28 30       	jn	$+82     	;abs 0x308
     2b8:	2c 31       	jn	$+602    	;abs 0x512
     2ba:	32 29       	jnc	$+614    	;abs 0x520
     2bc:	3d 72       	subc	#8,	r13	;r2 As==11
     2be:	28 30       	jn	$+82     	;abs 0x310
     2c0:	2c 31       	jn	$+602    	;abs 0x51a
     2c2:	29 3b       	jl	$-428    	;abs 0x116
     2c4:	34 3b       	jl	$-406    	;abs 0x12e
     2c6:	30 3b       	jl	$-414    	;abs 0x128
     2c8:	00 64       	addc	r4,	r0	;
     2ca:	6f 75       	subc.b	@r5,	r15	;
     2cc:	62 6c       	addc.b	@r12,	r2	;
     2ce:	65 3a       	jl	$-820    	;abs 0xff9a
     2d0:	74 28       	jnc	$+234    	;abs 0x3ba
     2d2:	30 2c       	jc	$+98     	;abs 0x334
     2d4:	31 33       	jn	$-412    	;abs 0x138
     2d6:	29 3d       	jmp	$+596    	;abs 0x52a
     2d8:	72 28       	jnc	$+230    	;abs 0x3be
     2da:	30 2c       	jc	$+98     	;abs 0x33c
     2dc:	31 29       	jnc	$+612    	;abs 0x540
     2de:	3b 34       	jge	$+120    	;abs 0x356
     2e0:	3b 30       	jn	$+120    	;abs 0x358
     2e2:	3b 00       	.word	0x003b;	????
     2e4:	6c 6f       	addc.b	@r15,	r12	;
     2e6:	6e 67       	addc.b	@r7,	r14	;
     2e8:	20 64       	addc	@r4,	r0	;
     2ea:	6f 75       	subc.b	@r5,	r15	;
     2ec:	62 6c       	addc.b	@r12,	r2	;
     2ee:	65 3a       	jl	$-820    	;abs 0xffba
     2f0:	74 28       	jnc	$+234    	;abs 0x3da
     2f2:	30 2c       	jc	$+98     	;abs 0x354
     2f4:	31 34       	jge	$+100    	;abs 0x358
     2f6:	29 3d       	jmp	$+596    	;abs 0x54a
     2f8:	72 28       	jnc	$+230    	;abs 0x3de
     2fa:	30 2c       	jc	$+98     	;abs 0x35c
     2fc:	31 29       	jnc	$+612    	;abs 0x560
     2fe:	3b 34       	jge	$+120    	;abs 0x376
     300:	3b 30       	jn	$+120    	;abs 0x378
     302:	3b 00       	.word	0x003b;	????
     304:	63 6f       	.word	0x6f63;	????
     306:	6d 70       	subc.b	@r0,	r13	;
     308:	6c 65       	addc.b	@r5,	r12	;
     30a:	78 20       	jnz	$+242    	;abs 0x3fc
     30c:	69 6e       	addc.b	@r14,	r9	;
     30e:	74 3a       	jl	$-790    	;abs 0xfff8
     310:	74 28       	jnc	$+234    	;abs 0x3fa
     312:	30 2c       	jc	$+98     	;abs 0x374
     314:	31 35       	jge	$+612    	;abs 0x578
     316:	29 3d       	jmp	$+596    	;abs 0x56a
     318:	73 34       	jge	$+232    	;abs 0x400
     31a:	72 65       	addc.b	@r5+,	r2	;
     31c:	61 6c       	addc.b	@r12,	r1	;
     31e:	3a 28       	jnc	$+118    	;abs 0x394
     320:	30 2c       	jc	$+98     	;abs 0x382
     322:	31 29       	jnc	$+612    	;abs 0x586
     324:	2c 30       	jn	$+90     	;abs 0x37e
     326:	2c 31       	jn	$+602    	;abs 0x580
     328:	36 3b       	jl	$-402    	;abs 0x196
     32a:	69 6d       	addc.b	@r13,	r9	;
     32c:	61 67       	addc.b	@r7,	r1	;
     32e:	3a 28       	jnc	$+118    	;abs 0x3a4
     330:	30 2c       	jc	$+98     	;abs 0x392
     332:	31 29       	jnc	$+612    	;abs 0x596
     334:	2c 31       	jn	$+602    	;abs 0x58e
     336:	36 2c       	jc	$+110    	;abs 0x3a4
     338:	31 36       	jge	$-924    	;abs 0xff9c
     33a:	3b 3b       	jl	$-392    	;abs 0x1b2
     33c:	00 63       	adc	r0		;
     33e:	6f 6d       	addc.b	@r13,	r15	;
     340:	70 6c       	addc.b	@r12+,	r0	;
     342:	65 78       	subc.b	@r8,	r5	;
     344:	20 66       	addc	@r6,	r0	;
     346:	6c 6f       	addc.b	@r15,	r12	;
     348:	61 74       	subc.b	@r4,	r1	;
     34a:	3a 74       	subc	@r4+,	r10	;
     34c:	28 30       	jn	$+82     	;abs 0x39e
     34e:	2c 31       	jn	$+602    	;abs 0x5a8
     350:	36 29       	jnc	$+622    	;abs 0x5be
     352:	3d 52       	add	#8,	r13	;r2 As==11
     354:	33 3b       	jl	$-408    	;abs 0x1bc
     356:	38 3b       	jl	$-398    	;abs 0x1c8
     358:	30 3b       	jl	$-414    	;abs 0x1ba
     35a:	00 63       	adc	r0		;
     35c:	6f 6d       	addc.b	@r13,	r15	;
     35e:	70 6c       	addc.b	@r12+,	r0	;
     360:	65 78       	subc.b	@r8,	r5	;
     362:	20 64       	addc	@r4,	r0	;
     364:	6f 75       	subc.b	@r5,	r15	;
     366:	62 6c       	addc.b	@r12,	r2	;
     368:	65 3a       	jl	$-820    	;abs 0x34
     36a:	74 28       	jnc	$+234    	;abs 0x454
     36c:	30 2c       	jc	$+98     	;abs 0x3ce
     36e:	31 37       	jge	$-412    	;abs 0x1d2
     370:	29 3d       	jmp	$+596    	;abs 0x5c4
     372:	52 33       	jn	$-346    	;abs 0x218
     374:	3b 38       	jl	$+120    	;abs 0x3ec
     376:	3b 30       	jn	$+120    	;abs 0x3ee
     378:	3b 00       	.word	0x003b;	????
     37a:	63 6f       	.word	0x6f63;	????
     37c:	6d 70       	subc.b	@r0,	r13	;
     37e:	6c 65       	addc.b	@r5,	r12	;
     380:	78 20       	jnz	$+242    	;abs 0x472
     382:	6c 6f       	addc.b	@r15,	r12	;
     384:	6e 67       	addc.b	@r7,	r14	;
     386:	20 64       	addc	@r4,	r0	;
     388:	6f 75       	subc.b	@r5,	r15	;
     38a:	62 6c       	addc.b	@r12,	r2	;
     38c:	65 3a       	jl	$-820    	;abs 0x58
     38e:	74 28       	jnc	$+234    	;abs 0x478
     390:	30 2c       	jc	$+98     	;abs 0x3f2
     392:	31 38       	jl	$+100    	;abs 0x3f6
     394:	29 3d       	jmp	$+596    	;abs 0x5e8
     396:	52 33       	jn	$-346    	;abs 0x23c
     398:	3b 38       	jl	$+120    	;abs 0x410
     39a:	3b 30       	jn	$+120    	;abs 0x412
     39c:	3b 00       	.word	0x003b;	????
     39e:	5f 5f 62 75 	add.b	30050(r15),r15	;
     3a2:	69 6c       	addc.b	@r12,	r9	;
     3a4:	74 69       	addc.b	@r9+,	r4	;
     3a6:	6e 5f       	add.b	@r15,	r14	;
     3a8:	76 61       	addc.b	@r1+,	r6	;
     3aa:	5f 6c 69 73 	addc.b	29545(r12),r15	;
     3ae:	74 3a       	jl	$-790    	;abs 0x98
     3b0:	74 28       	jnc	$+234    	;abs 0x49a
     3b2:	30 2c       	jc	$+98     	;abs 0x414
     3b4:	31 39       	jl	$+612    	;abs 0x618
     3b6:	29 3d       	jmp	$+596    	;abs 0x60a
     3b8:	2a 28       	jnc	$+86     	;abs 0x40e
     3ba:	30 2c       	jc	$+98     	;abs 0x41c
     3bc:	32 30       	jn	$+102    	;abs 0x422
     3be:	29 3d       	jmp	$+596    	;abs 0x612
     3c0:	28 30       	jn	$+82     	;abs 0x412
     3c2:	2c 32       	jn	$-934    	;abs 0x1c
     3c4:	30 29       	jnc	$+610    	;abs 0x626
     3c6:	00 5f       	add	r15,	r0	;
     3c8:	42 6f       	addc.b	r15,	r2	;
     3ca:	6f 6c       	addc.b	@r12,	r15	;
     3cc:	3a 74       	subc	@r4+,	r10	;
     3ce:	28 30       	jn	$+82     	;abs 0x420
     3d0:	2c 32       	jn	$-934    	;abs 0x2a
     3d2:	31 29       	jnc	$+612    	;abs 0x636
     3d4:	3d 40 73 38 	mov	#14451,	r13	;#0x3873
     3d8:	3b 2d       	jc	$+632    	;abs 0x650
     3da:	31 36       	jge	$-924    	;abs 0x3e
     3dc:	3b 00       	.word	0x003b;	????
     3de:	63 3a       	jl	$-824    	;abs 0xa6
     3e0:	2f 6d       	addc	@r13,	r15	;
     3e2:	73 70       	.word	0x7073;	????
     3e4:	67 63       	addc.b	#2,	r7	;r3 As==10
     3e6:	63 2f       	jc	$-312    	;abs 0x2ae
     3e8:	6d 73       	subc.b	#2,	r13	;r3 As==10
     3ea:	70 34       	jge	$+226    	;abs 0x4cc
     3ec:	33 30       	jn	$+104    	;abs 0x454
     3ee:	2f 69       	addc	@r9,	r15	;
     3f0:	6e 63       	addc.b	#2,	r14	;r3 As==10
     3f2:	6c 75       	subc.b	@r5,	r12	;
     3f4:	64 65       	addc.b	@r5,	r4	;
     3f6:	2f 73       	subc	#2,	r15	;r3 As==10
     3f8:	74 64       	addc.b	@r4+,	r4	;
     3fa:	69 6f       	addc.b	@r15,	r9	;
     3fc:	2e 68       	addc	@r8,	r14	;
     3fe:	00 63       	adc	r0		;
     400:	3a 2f       	jc	$-394    	;abs 0x276
     402:	6d 73       	subc.b	#2,	r13	;r3 As==10
     404:	70 67       	addc.b	@r7+,	r0	;
     406:	63 63       	.word	0x6363;	????
     408:	2f 6c       	addc	@r12,	r15	;
     40a:	69 62       	addc.b	#4,	r9	;r2 As==10
     40c:	2f 67       	addc	@r7,	r15	;
     40e:	63 63       	.word	0x6363;	????
     410:	2d 6c       	addc	@r12,	r13	;
     412:	69 62       	addc.b	#4,	r9	;r2 As==10
     414:	2f 6d       	addc	@r13,	r15	;
     416:	73 70       	.word	0x7073;	????
     418:	34 33       	jn	$-406    	;abs 0x282
     41a:	30 2f       	jc	$-414    	;abs 0x27c
     41c:	33 2e       	jc	$-920    	;abs 0x84
     41e:	32 2e       	jc	$-922    	;abs 0x84
     420:	33 2f       	jc	$-408    	;abs 0x288
     422:	69 6e       	addc.b	@r14,	r9	;
     424:	63 6c       	.word	0x6c63;	????
     426:	75 64       	addc.b	@r4+,	r5	;
     428:	65 2f       	jc	$-308    	;abs 0x2f4
     42a:	73 74       	.word	0x7473;	????
     42c:	64 64       	addc.b	@r4,	r4	;
     42e:	65 66       	addc.b	@r6,	r5	;
     430:	2e 68       	addc	@r8,	r14	;
     432:	00 70       	subc	r0,	r0	;
     434:	74 72       	subc.b	#8,	r4	;r2 As==11
     436:	64 69       	addc.b	@r9,	r4	;
     438:	66 66       	addc.b	@r6,	r6	;
     43a:	5f 74 3a 74 	subc.b	29754(r4),r15	;
     43e:	28 33       	jn	$-430    	;abs 0x290
     440:	2c 31       	jn	$+602    	;abs 0x69a
     442:	29 3d       	jmp	$+596    	;abs 0x696
     444:	28 30       	jn	$+82     	;abs 0x496
     446:	2c 31       	jn	$+602    	;abs 0x6a0
     448:	29 00       	.word	0x0029;	????
     44a:	73 69       	.word	0x6973;	????
     44c:	7a 65       	addc.b	@r5+,	r10	;
     44e:	5f 74 3a 74 	subc.b	29754(r4),r15	;
     452:	28 33       	jn	$-430    	;abs 0x2a4
     454:	2c 32       	jn	$-934    	;abs 0xae
     456:	29 3d       	jmp	$+596    	;abs 0x6aa
     458:	28 30       	jn	$+82     	;abs 0x4aa
     45a:	2c 34       	jge	$+90     	;abs 0x4b4
     45c:	29 00       	.word	0x0029;	????
     45e:	77 63       	addc.b	#-1,	r7	;r3 As==11
     460:	68 61       	addc.b	@r1,	r8	;
     462:	72 5f       	add.b	@r15+,	r2	;
     464:	74 3a       	jl	$-790    	;abs 0x14e
     466:	74 28       	jnc	$+234    	;abs 0x550
     468:	33 2c       	jc	$+104    	;abs 0x4d0
     46a:	33 29       	jnc	$+616    	;abs 0x6d2
     46c:	3d 28       	jnc	$+124    	;abs 0x4e8
     46e:	30 2c       	jc	$+98     	;abs 0x4d0
     470:	31 29       	jnc	$+612    	;abs 0x6d4
     472:	00 63       	adc	r0		;
     474:	3a 2f       	jc	$-394    	;abs 0x2ea
     476:	6d 73       	subc.b	#2,	r13	;r3 As==10
     478:	70 67       	addc.b	@r7+,	r0	;
     47a:	63 63       	.word	0x6363;	????
     47c:	2f 6d       	addc	@r13,	r15	;
     47e:	73 70       	.word	0x7073;	????
     480:	34 33       	jn	$-406    	;abs 0x2ea
     482:	30 2f       	jc	$-414    	;abs 0x2e4
     484:	69 6e       	addc.b	@r14,	r9	;
     486:	63 6c       	.word	0x6c63;	????
     488:	75 64       	addc.b	@r4+,	r5	;
     48a:	65 2f       	jc	$-308    	;abs 0x356
     48c:	73 79       	.word	0x7973;	????
     48e:	73 2f       	jc	$-280    	;abs 0x376
     490:	74 79       	subc.b	@r9+,	r4	;
     492:	70 65       	addc.b	@r5+,	r0	;
     494:	73 2e       	jc	$-792    	;abs 0x17c
     496:	68 00       	.word	0x0068;	????
     498:	63 3a       	jl	$-824    	;abs 0x160
     49a:	2f 6d       	addc	@r13,	r15	;
     49c:	73 70       	.word	0x7073;	????
     49e:	67 63       	addc.b	#2,	r7	;r3 As==10
     4a0:	63 2f       	jc	$-312    	;abs 0x368
     4a2:	6d 73       	subc.b	#2,	r13	;r3 As==10
     4a4:	70 34       	jge	$+226    	;abs 0x586
     4a6:	33 30       	jn	$+104    	;abs 0x50e
     4a8:	2f 69       	addc	@r9,	r15	;
     4aa:	6e 63       	addc.b	#2,	r14	;r3 As==10
     4ac:	6c 75       	subc.b	@r5,	r12	;
     4ae:	64 65       	addc.b	@r5,	r4	;
     4b0:	2f 73       	subc	#2,	r15	;r3 As==10
     4b2:	79 73       	subc.b	#-1,	r9	;r3 As==11
     4b4:	2f 63       	addc	#2,	r15	;r3 As==10
     4b6:	64 65       	addc.b	@r5,	r4	;
     4b8:	66 73       	subc.b	#2,	r6	;r3 As==10
     4ba:	2e 68       	addc	@r8,	r14	;
     4bc:	00 63       	adc	r0		;
     4be:	3a 2f       	jc	$-394    	;abs 0x334
     4c0:	6d 73       	subc.b	#2,	r13	;r3 As==10
     4c2:	70 67       	addc.b	@r7+,	r0	;
     4c4:	63 63       	.word	0x6363;	????
     4c6:	2f 6d       	addc	@r13,	r15	;
     4c8:	73 70       	.word	0x7073;	????
     4ca:	34 33       	jn	$-406    	;abs 0x334
     4cc:	30 2f       	jc	$-414    	;abs 0x32e
     4ce:	69 6e       	addc.b	@r14,	r9	;
     4d0:	63 6c       	.word	0x6c63;	????
     4d2:	75 64       	addc.b	@r4+,	r5	;
     4d4:	65 2f       	jc	$-308    	;abs 0x3a0
     4d6:	73 79       	.word	0x7973;	????
     4d8:	73 2f       	jc	$-280    	;abs 0x3c0
     4da:	69 6e       	addc.b	@r14,	r9	;
     4dc:	74 74       	subc.b	@r4+,	r4	;
     4de:	79 70 65 73 	subc.b	#29541,	r9	;#0x7365
     4e2:	2e 68       	addc	@r8,	r14	;
     4e4:	00 69       	addc	r9,	r0	;
     4e6:	6e 74       	subc.b	@r4,	r14	;
     4e8:	38 5f       	add	@r15+,	r8	;
     4ea:	74 3a       	jl	$-790    	;abs 0x1d4
     4ec:	74 28       	jnc	$+234    	;abs 0x5d6
     4ee:	36 2c       	jc	$+110    	;abs 0x55c
     4f0:	31 29       	jnc	$+612    	;abs 0x754
     4f2:	3d 28       	jnc	$+124    	;abs 0x56e
     4f4:	30 2c       	jc	$+98     	;abs 0x556
     4f6:	31 30       	jn	$+100    	;abs 0x55a
     4f8:	29 00       	.word	0x0029;	????
     4fa:	75 69       	addc.b	@r9+,	r5	;
     4fc:	6e 74       	subc.b	@r4,	r14	;
     4fe:	38 5f       	add	@r15+,	r8	;
     500:	74 3a       	jl	$-790    	;abs 0x1ea
     502:	74 28       	jnc	$+234    	;abs 0x5ec
     504:	36 2c       	jc	$+110    	;abs 0x572
     506:	32 29       	jnc	$+614    	;abs 0x76c
     508:	3d 28       	jnc	$+124    	;abs 0x584
     50a:	30 2c       	jc	$+98     	;abs 0x56c
     50c:	31 31       	jn	$+612    	;abs 0x770
     50e:	29 00       	.word	0x0029;	????
     510:	69 6e       	addc.b	@r14,	r9	;
     512:	74 31       	jn	$+746    	;abs 0x7fc
     514:	36 5f       	add	@r15+,	r6	;
     516:	74 3a       	jl	$-790    	;abs 0x200
     518:	74 28       	jnc	$+234    	;abs 0x602
     51a:	36 2c       	jc	$+110    	;abs 0x588
     51c:	33 29       	jnc	$+616    	;abs 0x784
     51e:	3d 28       	jnc	$+124    	;abs 0x59a
     520:	30 2c       	jc	$+98     	;abs 0x582
     522:	31 29       	jnc	$+612    	;abs 0x786
     524:	00 75       	subc	r5,	r0	;
     526:	69 6e       	addc.b	@r14,	r9	;
     528:	74 31       	jn	$+746    	;abs 0x812
     52a:	36 5f       	add	@r15+,	r6	;
     52c:	74 3a       	jl	$-790    	;abs 0x216
     52e:	74 28       	jnc	$+234    	;abs 0x618
     530:	36 2c       	jc	$+110    	;abs 0x59e
     532:	34 29       	jnc	$+618    	;abs 0x79c
     534:	3d 28       	jnc	$+124    	;abs 0x5b0
     536:	30 2c       	jc	$+98     	;abs 0x598
     538:	34 29       	jnc	$+618    	;abs 0x7a2
     53a:	00 69       	addc	r9,	r0	;
     53c:	6e 74       	subc.b	@r4,	r14	;
     53e:	33 32       	jn	$-920    	;abs 0x1a6
     540:	5f 74 3a 74 	subc.b	29754(r4),r15	;
     544:	28 36       	jge	$-942    	;abs 0x196
     546:	2c 35       	jge	$+602    	;abs 0x7a0
     548:	29 3d       	jmp	$+596    	;abs 0x79c
     54a:	28 30       	jn	$+82     	;abs 0x59c
     54c:	2c 33       	jn	$-422    	;abs 0x3a6
     54e:	29 00       	.word	0x0029;	????
     550:	75 69       	addc.b	@r9+,	r5	;
     552:	6e 74       	subc.b	@r4,	r14	;
     554:	33 32       	jn	$-920    	;abs 0x1bc
     556:	5f 74 3a 74 	subc.b	29754(r4),r15	;
     55a:	28 36       	jge	$-942    	;abs 0x1ac
     55c:	2c 36       	jge	$-934    	;abs 0x1b6
     55e:	29 3d       	jmp	$+596    	;abs 0x7b2
     560:	28 30       	jn	$+82     	;abs 0x5b2
     562:	2c 35       	jge	$+602    	;abs 0x7bc
     564:	29 00       	.word	0x0029;	????
     566:	69 6e       	addc.b	@r14,	r9	;
     568:	74 36       	jge	$-790    	;abs 0x252
     56a:	34 5f       	add	@r15+,	r4	;
     56c:	74 3a       	jl	$-790    	;abs 0x256
     56e:	74 28       	jnc	$+234    	;abs 0x658
     570:	36 2c       	jc	$+110    	;abs 0x5de
     572:	37 29       	jnc	$+624    	;abs 0x7e2
     574:	3d 28       	jnc	$+124    	;abs 0x5f0
     576:	30 2c       	jc	$+98     	;abs 0x5d8
     578:	36 29       	jnc	$+622    	;abs 0x7e6
     57a:	00 75       	subc	r5,	r0	;
     57c:	69 6e       	addc.b	@r14,	r9	;
     57e:	74 36       	jge	$-790    	;abs 0x268
     580:	34 5f       	add	@r15+,	r4	;
     582:	74 3a       	jl	$-790    	;abs 0x26c
     584:	74 28       	jnc	$+234    	;abs 0x66e
     586:	36 2c       	jc	$+110    	;abs 0x5f4
     588:	38 29       	jnc	$+626    	;abs 0x7fa
     58a:	3d 28       	jnc	$+124    	;abs 0x606
     58c:	30 2c       	jc	$+98     	;abs 0x5ee
     58e:	37 29       	jnc	$+624    	;abs 0x7fe
     590:	00 69       	addc	r9,	r0	;
     592:	6e 74       	subc.b	@r4,	r14	;
     594:	70 74       	subc.b	@r4+,	r0	;
     596:	72 5f       	add.b	@r15+,	r2	;
     598:	74 3a       	jl	$-790    	;abs 0x282
     59a:	74 28       	jnc	$+234    	;abs 0x684
     59c:	36 2c       	jc	$+110    	;abs 0x60a
     59e:	39 29       	jnc	$+628    	;abs 0x812
     5a0:	3d 28       	jnc	$+124    	;abs 0x61c
     5a2:	36 2c       	jc	$+110    	;abs 0x610
     5a4:	33 29       	jnc	$+616    	;abs 0x80c
     5a6:	00 75       	subc	r5,	r0	;
     5a8:	69 6e       	addc.b	@r14,	r9	;
     5aa:	74 70 74 72 	subc.b	#29300,	r4	;#0x7274
     5ae:	5f 74 3a 74 	subc.b	29754(r4),r15	;
     5b2:	28 36       	jge	$-942    	;abs 0x204
     5b4:	2c 31       	jn	$+602    	;abs 0x80e
     5b6:	30 29       	jnc	$+610    	;abs 0x818
     5b8:	3d 28       	jnc	$+124    	;abs 0x634
     5ba:	36 2c       	jc	$+110    	;abs 0x628
     5bc:	34 29       	jnc	$+618    	;abs 0x826
     5be:	00 75       	subc	r5,	r0	;
     5c0:	5f 63       	addc.b	#1,	r15	;r3 As==01
     5c2:	68 61       	addc.b	@r1,	r8	;
     5c4:	72 3a       	jl	$-794    	;abs 0x2aa
     5c6:	74 28       	jnc	$+234    	;abs 0x6b0
     5c8:	34 2c       	jc	$+106    	;abs 0x632
     5ca:	31 29       	jnc	$+612    	;abs 0x82e
     5cc:	3d 28       	jnc	$+124    	;abs 0x648
     5ce:	30 2c       	jc	$+98     	;abs 0x630
     5d0:	31 31       	jn	$+612    	;abs 0x834
     5d2:	29 00       	.word	0x0029;	????
     5d4:	75 5f       	add.b	@r15+,	r5	;
     5d6:	73 68       	.word	0x6873;	????
     5d8:	6f 72       	subc.b	#4,	r15	;r2 As==10
     5da:	74 3a       	jl	$-790    	;abs 0x2c4
     5dc:	74 28       	jnc	$+234    	;abs 0x6c6
     5de:	34 2c       	jc	$+106    	;abs 0x648
     5e0:	32 29       	jnc	$+614    	;abs 0x846
     5e2:	3d 28       	jnc	$+124    	;abs 0x65e
     5e4:	30 2c       	jc	$+98     	;abs 0x646
     5e6:	39 29       	jnc	$+628    	;abs 0x85a
     5e8:	00 75       	subc	r5,	r0	;
     5ea:	5f 69 6e 74 	addc.b	29806(r9),r15	;
     5ee:	3a 74       	subc	@r4+,	r10	;
     5f0:	28 34       	jge	$+82     	;abs 0x642
     5f2:	2c 33       	jn	$-422    	;abs 0x44c
     5f4:	29 3d       	jmp	$+596    	;abs 0x848
     5f6:	28 30       	jn	$+82     	;abs 0x648
     5f8:	2c 34       	jge	$+90     	;abs 0x652
     5fa:	29 00       	.word	0x0029;	????
     5fc:	75 5f       	add.b	@r15+,	r5	;
     5fe:	6c 6f       	addc.b	@r15,	r12	;
     600:	6e 67       	addc.b	@r7,	r14	;
     602:	3a 74       	subc	@r4+,	r10	;
     604:	28 34       	jge	$+82     	;abs 0x656
     606:	2c 34       	jge	$+90     	;abs 0x660
     608:	29 3d       	jmp	$+596    	;abs 0x85c
     60a:	28 30       	jn	$+82     	;abs 0x65c
     60c:	2c 35       	jge	$+602    	;abs 0x866
     60e:	29 00       	.word	0x0029;	????
     610:	75 73       	subc.b	#-1,	r5	;r3 As==11
     612:	68 6f       	addc.b	@r15,	r8	;
     614:	72 74       	subc.b	@r4+,	r2	;
     616:	3a 74       	subc	@r4+,	r10	;
     618:	28 34       	jge	$+82     	;abs 0x66a
     61a:	2c 35       	jge	$+602    	;abs 0x874
     61c:	29 3d       	jmp	$+596    	;abs 0x870
     61e:	28 30       	jn	$+82     	;abs 0x670
     620:	2c 39       	jl	$+602    	;abs 0x87a
     622:	29 00       	.word	0x0029;	????
     624:	75 69       	addc.b	@r9+,	r5	;
     626:	6e 74       	subc.b	@r4,	r14	;
     628:	3a 74       	subc	@r4+,	r10	;
     62a:	28 34       	jge	$+82     	;abs 0x67c
     62c:	2c 36       	jge	$-934    	;abs 0x286
     62e:	29 3d       	jmp	$+596    	;abs 0x882
     630:	28 30       	jn	$+82     	;abs 0x682
     632:	2c 34       	jge	$+90     	;abs 0x68c
     634:	29 00       	.word	0x0029;	????
     636:	75 5f       	add.b	@r15+,	r5	;
     638:	69 6e       	addc.b	@r14,	r9	;
     63a:	74 38       	jl	$+234    	;abs 0x724
     63c:	5f 74 3a 74 	subc.b	29754(r4),r15	;
     640:	28 34       	jge	$+82     	;abs 0x692
     642:	2c 37       	jge	$-422    	;abs 0x49c
     644:	29 3d       	jmp	$+596    	;abs 0x898
     646:	28 36       	jge	$-942    	;abs 0x298
     648:	2c 32       	jn	$-934    	;abs 0x2a2
     64a:	29 00       	.word	0x0029;	????
     64c:	75 5f       	add.b	@r15+,	r5	;
     64e:	69 6e       	addc.b	@r14,	r9	;
     650:	74 31       	jn	$+746    	;abs 0x93a
     652:	36 5f       	add	@r15+,	r6	;
     654:	74 3a       	jl	$-790    	;abs 0x33e
     656:	74 28       	jnc	$+234    	;abs 0x740
     658:	34 2c       	jc	$+106    	;abs 0x6c2
     65a:	38 29       	jnc	$+626    	;abs 0x8cc
     65c:	3d 28       	jnc	$+124    	;abs 0x6d8
     65e:	36 2c       	jc	$+110    	;abs 0x6cc
     660:	34 29       	jnc	$+618    	;abs 0x8ca
     662:	00 75       	subc	r5,	r0	;
     664:	5f 69 6e 74 	addc.b	29806(r9),r15	;
     668:	33 32       	jn	$-920    	;abs 0x2d0
     66a:	5f 74 3a 74 	subc.b	29754(r4),r15	;
     66e:	28 34       	jge	$+82     	;abs 0x6c0
     670:	2c 39       	jl	$+602    	;abs 0x8ca
     672:	29 3d       	jmp	$+596    	;abs 0x8c6
     674:	28 36       	jge	$-942    	;abs 0x2c6
     676:	2c 36       	jge	$-934    	;abs 0x2d0
     678:	29 00       	.word	0x0029;	????
     67a:	75 5f       	add.b	@r15+,	r5	;
     67c:	69 6e       	addc.b	@r14,	r9	;
     67e:	74 36       	jge	$-790    	;abs 0x368
     680:	34 5f       	add	@r15+,	r4	;
     682:	74 3a       	jl	$-790    	;abs 0x36c
     684:	74 28       	jnc	$+234    	;abs 0x76e
     686:	34 2c       	jc	$+106    	;abs 0x6f0
     688:	31 30       	jn	$+100    	;abs 0x6ec
     68a:	29 3d       	jmp	$+596    	;abs 0x8de
     68c:	28 36       	jge	$-942    	;abs 0x2de
     68e:	2c 38       	jl	$+90     	;abs 0x6e8
     690:	29 00       	.word	0x0029;	????
     692:	75 5f       	add.b	@r15+,	r5	;
     694:	71 75       	subc.b	@r5+,	r1	;
     696:	61 64       	addc.b	@r4,	r1	;
     698:	5f 74 3a 74 	subc.b	29754(r4),r15	;
     69c:	28 34       	jge	$+82     	;abs 0x6ee
     69e:	2c 31       	jn	$+602    	;abs 0x8f8
     6a0:	31 29       	jnc	$+612    	;abs 0x904
     6a2:	3d 28       	jnc	$+124    	;abs 0x71e
     6a4:	34 2c       	jc	$+106    	;abs 0x70e
     6a6:	31 30       	jn	$+100    	;abs 0x70a
     6a8:	29 00       	.word	0x0029;	????
     6aa:	71 75       	subc.b	@r5+,	r1	;
     6ac:	61 64       	addc.b	@r4,	r1	;
     6ae:	5f 74 3a 74 	subc.b	29754(r4),r15	;
     6b2:	28 34       	jge	$+82     	;abs 0x704
     6b4:	2c 31       	jn	$+602    	;abs 0x90e
     6b6:	32 29       	jnc	$+614    	;abs 0x91c
     6b8:	3d 28       	jnc	$+124    	;abs 0x734
     6ba:	36 2c       	jc	$+110    	;abs 0x728
     6bc:	37 29       	jnc	$+624    	;abs 0x92c
     6be:	00 71       	subc	r1,	r0	;
     6c0:	61 64       	addc.b	@r4,	r1	;
     6c2:	64 72       	subc.b	#4,	r4	;r2 As==10
     6c4:	5f 74 3a 74 	subc.b	29754(r4),r15	;
     6c8:	28 34       	jge	$+82     	;abs 0x71a
     6ca:	2c 31       	jn	$+602    	;abs 0x924
     6cc:	33 29       	jnc	$+616    	;abs 0x934
     6ce:	3d 28       	jnc	$+124    	;abs 0x74a
     6d0:	34 2c       	jc	$+106    	;abs 0x73a
     6d2:	31 34       	jge	$+100    	;abs 0x736
     6d4:	29 3d       	jmp	$+596    	;abs 0x928
     6d6:	2a 28       	jnc	$+86     	;abs 0x72c
     6d8:	34 2c       	jc	$+106    	;abs 0x742
     6da:	31 32       	jn	$-924    	;abs 0x33e
     6dc:	29 00       	.word	0x0029;	????
     6de:	63 61       	.word	0x6163;	????
     6e0:	64 64       	addc.b	@r4,	r4	;
     6e2:	72 5f       	add.b	@r15+,	r2	;
     6e4:	74 3a       	jl	$-790    	;abs 0x3ce
     6e6:	74 28       	jnc	$+234    	;abs 0x7d0
     6e8:	34 2c       	jc	$+106    	;abs 0x752
     6ea:	31 35       	jge	$+612    	;abs 0x94e
     6ec:	29 3d       	jmp	$+596    	;abs 0x940
     6ee:	28 34       	jge	$+82     	;abs 0x740
     6f0:	2c 31       	jn	$+602    	;abs 0x94a
     6f2:	36 29       	jnc	$+622    	;abs 0x960
     6f4:	3d 2a       	jnc	$-900    	;abs 0x370
     6f6:	28 30       	jn	$+82     	;abs 0x748
     6f8:	2c 32       	jn	$-934    	;abs 0x352
     6fa:	29 00       	.word	0x0029;	????
     6fc:	63 5f       	.word	0x5f63;	????
     6fe:	63 61       	.word	0x6163;	????
     700:	64 64       	addc.b	@r4,	r4	;
     702:	72 5f       	add.b	@r15+,	r2	;
     704:	74 3a       	jl	$-790    	;abs 0x3ee
     706:	74 28       	jnc	$+234    	;abs 0x7f0
     708:	34 2c       	jc	$+106    	;abs 0x772
     70a:	31 37       	jge	$-412    	;abs 0x56e
     70c:	29 3d       	jmp	$+596    	;abs 0x960
     70e:	28 34       	jge	$+82     	;abs 0x760
     710:	2c 31       	jn	$+602    	;abs 0x96a
     712:	38 29       	jnc	$+626    	;abs 0x984
     714:	3d 2a       	jnc	$-900    	;abs 0x390
     716:	28 34       	jge	$+82     	;abs 0x768
     718:	2c 31       	jn	$+602    	;abs 0x972
     71a:	39 29       	jnc	$+628    	;abs 0x98e
     71c:	3d 6b       	addc	@r11+,	r13	;
     71e:	28 30       	jn	$+82     	;abs 0x770
     720:	2c 32       	jn	$-934    	;abs 0x37a
     722:	29 00       	.word	0x0029;	????
     724:	76 5f       	add.b	@r15+,	r6	;
     726:	63 61       	.word	0x6163;	????
     728:	64 64       	addc.b	@r4,	r4	;
     72a:	72 5f       	add.b	@r15+,	r2	;
     72c:	74 3a       	jl	$-790    	;abs 0x416
     72e:	74 28       	jnc	$+234    	;abs 0x818
     730:	34 2c       	jc	$+106    	;abs 0x79a
     732:	32 30       	jn	$+102    	;abs 0x798
     734:	29 3d       	jmp	$+596    	;abs 0x988
     736:	28 34       	jge	$+82     	;abs 0x788
     738:	2c 32       	jn	$-934    	;abs 0x392
     73a:	31 29       	jnc	$+612    	;abs 0x99e
     73c:	3d 2a       	jnc	$-900    	;abs 0x3b8
     73e:	28 34       	jge	$+82     	;abs 0x790
     740:	2c 32       	jn	$-934    	;abs 0x39a
     742:	32 29       	jnc	$+614    	;abs 0x9a8
     744:	3d 42       	mov	#8,	r13	;r2 As==11
     746:	28 30       	jn	$+82     	;abs 0x798
     748:	2c 32       	jn	$-934    	;abs 0x3a2
     74a:	29 00       	.word	0x0029;	????
     74c:	66 69       	addc.b	@r9,	r6	;
     74e:	78 70 74 5f 	subc.b	#24436,	r8	;#0x5f74
     752:	74 3a       	jl	$-790    	;abs 0x43c
     754:	74 28       	jnc	$+234    	;abs 0x83e
     756:	34 2c       	jc	$+106    	;abs 0x7c0
     758:	32 33       	jn	$-410    	;abs 0x5be
     75a:	29 3d       	jmp	$+596    	;abs 0x9ae
     75c:	28 34       	jge	$+82     	;abs 0x7ae
     75e:	2c 39       	jl	$+602    	;abs 0x9b8
     760:	29 00       	.word	0x0029;	????
     762:	67 69       	addc.b	@r9,	r7	;
     764:	64 5f       	add.b	@r15,	r4	;
     766:	74 3a       	jl	$-790    	;abs 0x450
     768:	74 28       	jnc	$+234    	;abs 0x852
     76a:	34 2c       	jc	$+106    	;abs 0x7d4
     76c:	32 34       	jge	$+102    	;abs 0x7d2
     76e:	29 3d       	jmp	$+596    	;abs 0x9c2
     770:	28 34       	jge	$+82     	;abs 0x7c2
     772:	2c 39       	jl	$+602    	;abs 0x9cc
     774:	29 00       	.word	0x0029;	????
     776:	69 6e       	addc.b	@r14,	r9	;
     778:	5f 61 64 64 	addc.b	25700(r1),r15	;
     77c:	72 5f       	add.b	@r15+,	r2	;
     77e:	74 3a       	jl	$-790    	;abs 0x468
     780:	74 28       	jnc	$+234    	;abs 0x86a
     782:	34 2c       	jc	$+106    	;abs 0x7ec
     784:	32 35       	jge	$+614    	;abs 0x9ea
     786:	29 3d       	jmp	$+596    	;abs 0x9da
     788:	28 34       	jge	$+82     	;abs 0x7da
     78a:	2c 39       	jl	$+602    	;abs 0x9e4
     78c:	29 00       	.word	0x0029;	????
     78e:	69 6e       	addc.b	@r14,	r9	;
     790:	5f 70 6f 72 	subc.b	0x726f,	r15	;PC rel. 0x7a01
     794:	74 5f       	add.b	@r15+,	r4	;
     796:	74 3a       	jl	$-790    	;abs 0x480
     798:	74 28       	jnc	$+234    	;abs 0x882
     79a:	34 2c       	jc	$+106    	;abs 0x804
     79c:	32 36       	jge	$-922    	;abs 0x402
     79e:	29 3d       	jmp	$+596    	;abs 0x9f2
     7a0:	28 34       	jge	$+82     	;abs 0x7f2
     7a2:	2c 38       	jl	$+90     	;abs 0x7fc
     7a4:	29 00       	.word	0x0029;	????
     7a6:	69 6e       	addc.b	@r14,	r9	;
     7a8:	6f 5f       	add.b	@r15,	r15	;
     7aa:	74 3a       	jl	$-790    	;abs 0x494
     7ac:	74 28       	jnc	$+234    	;abs 0x896
     7ae:	34 2c       	jc	$+106    	;abs 0x818
     7b0:	32 37       	jge	$-410    	;abs 0x616
     7b2:	29 3d       	jmp	$+596    	;abs 0xa06
     7b4:	28 34       	jge	$+82     	;abs 0x806
     7b6:	2c 39       	jl	$+602    	;abs 0xa10
     7b8:	29 00       	.word	0x0029;	????
     7ba:	6b 65       	addc.b	@r5,	r11	;
     7bc:	79 5f       	add.b	@r15+,	r9	;
     7be:	74 3a       	jl	$-790    	;abs 0x4a8
     7c0:	74 28       	jnc	$+234    	;abs 0x8aa
     7c2:	34 2c       	jc	$+106    	;abs 0x82c
     7c4:	32 38       	jl	$+102    	;abs 0x82a
     7c6:	29 3d       	jmp	$+596    	;abs 0xa1a
     7c8:	28 30       	jn	$+82     	;abs 0x81a
     7ca:	2c 33       	jn	$-422    	;abs 0x624
     7cc:	29 00       	.word	0x0029;	????
     7ce:	6d 6f       	addc.b	@r15,	r13	;
     7d0:	64 65       	addc.b	@r5,	r4	;
     7d2:	5f 74 3a 74 	subc.b	29754(r4),r15	;
     7d6:	28 34       	jge	$+82     	;abs 0x828
     7d8:	2c 32       	jn	$-934    	;abs 0x432
     7da:	39 29       	jnc	$+628    	;abs 0xa4e
     7dc:	3d 28       	jnc	$+124    	;abs 0x858
     7de:	34 2c       	jc	$+106    	;abs 0x848
     7e0:	38 29       	jnc	$+626    	;abs 0xa52
     7e2:	00 6e       	addc	r14,	r0	;
     7e4:	6c 69       	addc.b	@r9,	r12	;
     7e6:	6e 6b       	addc.b	@r11,	r14	;
     7e8:	5f 74 3a 74 	subc.b	29754(r4),r15	;
     7ec:	28 34       	jge	$+82     	;abs 0x83e
     7ee:	2c 33       	jn	$-422    	;abs 0x648
     7f0:	30 29       	jnc	$+610    	;abs 0xa52
     7f2:	3d 28       	jnc	$+124    	;abs 0x86e
     7f4:	34 2c       	jc	$+106    	;abs 0x85e
     7f6:	38 29       	jnc	$+626    	;abs 0xa68
     7f8:	00 72       	subc	r2,	r0	;
     7fa:	6c 69       	addc.b	@r9,	r12	;
     7fc:	6d 5f       	add.b	@r15,	r13	;
     7fe:	74 3a       	jl	$-790    	;abs 0x4e8
     800:	74 28       	jnc	$+234    	;abs 0x8ea
     802:	34 2c       	jc	$+106    	;abs 0x86c
     804:	33 31       	jn	$+616    	;abs 0xa6c
     806:	29 3d       	jmp	$+596    	;abs 0xa5a
     808:	28 34       	jge	$+82     	;abs 0x85a
     80a:	2c 31       	jn	$+602    	;abs 0xa64
     80c:	32 29       	jnc	$+614    	;abs 0xa72
     80e:	00 73       	sbc	r0		;
     810:	65 67       	addc.b	@r7,	r5	;
     812:	73 7a       	.word	0x7a73;	????
     814:	5f 74 3a 74 	subc.b	29754(r4),r15	;
     818:	28 34       	jge	$+82     	;abs 0x86a
     81a:	2c 33       	jn	$-422    	;abs 0x674
     81c:	32 29       	jnc	$+614    	;abs 0xa82
     81e:	3d 28       	jnc	$+124    	;abs 0x89a
     820:	36 2c       	jc	$+110    	;abs 0x88e
     822:	35 29       	jnc	$+620    	;abs 0xa8e
     824:	00 73       	sbc	r0		;
     826:	77 62       	addc.b	#8,	r7	;r2 As==11
     828:	6c 6b       	addc.b	@r11,	r12	;
     82a:	5f 74 3a 74 	subc.b	29754(r4),r15	;
     82e:	28 34       	jge	$+82     	;abs 0x880
     830:	2c 33       	jn	$-422    	;abs 0x68a
     832:	33 29       	jnc	$+616    	;abs 0xa9a
     834:	3d 28       	jnc	$+124    	;abs 0x8b0
     836:	36 2c       	jc	$+110    	;abs 0x8a4
     838:	35 29       	jnc	$+620    	;abs 0xaa4
     83a:	00 75       	subc	r5,	r0	;
     83c:	66 73       	subc.b	#2,	r6	;r3 As==10
     83e:	5f 64 61 64 	addc.b	25697(r4),r15	;
     842:	64 72       	subc.b	#4,	r4	;r2 As==10
     844:	5f 74 3a 74 	subc.b	29754(r4),r15	;
     848:	28 34       	jge	$+82     	;abs 0x89a
     84a:	2c 33       	jn	$-422    	;abs 0x6a4
     84c:	34 29       	jnc	$+618    	;abs 0xab6
     84e:	3d 28       	jnc	$+124    	;abs 0x8ca
     850:	36 2c       	jc	$+110    	;abs 0x8be
     852:	35 29       	jnc	$+620    	;abs 0xabe
     854:	00 75       	subc	r5,	r0	;
     856:	66 73       	subc.b	#2,	r6	;r3 As==10
     858:	5f 74 69 6d 	subc.b	28009(r4),r15	;
     85c:	65 5f       	add.b	@r15,	r5	;
     85e:	74 3a       	jl	$-790    	;abs 0x548
     860:	74 28       	jnc	$+234    	;abs 0x94a
     862:	34 2c       	jc	$+106    	;abs 0x8cc
     864:	33 35       	jge	$+616    	;abs 0xacc
     866:	29 3d       	jmp	$+596    	;abs 0xaba
     868:	28 36       	jge	$-942    	;abs 0x4ba
     86a:	2c 35       	jge	$+602    	;abs 0xac4
     86c:	29 00       	.word	0x0029;	????
     86e:	75 69       	addc.b	@r9+,	r5	;
     870:	64 5f       	add.b	@r15,	r4	;
     872:	74 3a       	jl	$-790    	;abs 0x55c
     874:	74 28       	jnc	$+234    	;abs 0x95e
     876:	34 2c       	jc	$+106    	;abs 0x8e0
     878:	33 36       	jge	$-920    	;abs 0x4e0
     87a:	29 3d       	jmp	$+596    	;abs 0xace
     87c:	28 34       	jge	$+82     	;abs 0x8ce
     87e:	2c 39       	jl	$+602    	;abs 0xad8
     880:	29 00       	.word	0x0029;	????
     882:	63 3a       	jl	$-824    	;abs 0x54a
     884:	2f 6d       	addc	@r13,	r15	;
     886:	73 70       	.word	0x7073;	????
     888:	67 63       	addc.b	#2,	r7	;r3 As==10
     88a:	63 2f       	jc	$-312    	;abs 0x752
     88c:	6c 69       	addc.b	@r9,	r12	;
     88e:	62 2f       	jc	$-314    	;abs 0x754
     890:	67 63       	addc.b	#2,	r7	;r3 As==10
     892:	63 2d       	jc	$+712    	;abs 0xb5a
     894:	6c 69       	addc.b	@r9,	r12	;
     896:	62 2f       	jc	$-314    	;abs 0x75c
     898:	6d 73       	subc.b	#2,	r13	;r3 As==10
     89a:	70 34       	jge	$+226    	;abs 0x97c
     89c:	33 30       	jn	$+104    	;abs 0x904
     89e:	2f 33       	jn	$-416    	;abs 0x6fe
     8a0:	2e 32       	jn	$-930    	;abs 0x4fe
     8a2:	2e 33       	jn	$-418    	;abs 0x700
     8a4:	2f 69       	addc	@r9,	r15	;
     8a6:	6e 63       	addc.b	#2,	r14	;r3 As==10
     8a8:	6c 75       	subc.b	@r5,	r12	;
     8aa:	64 65       	addc.b	@r5,	r4	;
     8ac:	2f 73       	subc	#2,	r15	;r3 As==10
     8ae:	74 64       	addc.b	@r4+,	r4	;
     8b0:	61 72       	subc.b	#4,	r1	;r2 As==10
     8b2:	67 2e       	jc	$-816    	;abs 0x582
     8b4:	68 00       	.word	0x0068;	????
     8b6:	5f 5f 67 6e 	add.b	28263(r15),r15	;
     8ba:	75 63       	addc.b	#-1,	r5	;r3 As==11
     8bc:	5f 76 61 5f 	subc.b	24417(r6),r15	;
     8c0:	6c 69       	addc.b	@r9,	r12	;
     8c2:	73 74       	.word	0x7473;	????
     8c4:	3a 74       	subc	@r4+,	r10	;
     8c6:	28 37       	jge	$-430    	;abs 0x718
     8c8:	2c 31       	jn	$+602    	;abs 0xb22
     8ca:	29 3d       	jmp	$+596    	;abs 0xb1e
     8cc:	28 30       	jn	$+82     	;abs 0x91e
     8ce:	2c 31       	jn	$+602    	;abs 0xb28
     8d0:	39 29       	jnc	$+628    	;abs 0xb44
     8d2:	00 76       	subc	r6,	r0	;
     8d4:	61 5f       	add.b	@r15,	r1	;
     8d6:	6c 69       	addc.b	@r9,	r12	;
     8d8:	73 74       	.word	0x7473;	????
     8da:	3a 74       	subc	@r4+,	r10	;
     8dc:	28 37       	jge	$-430    	;abs 0x72e
     8de:	2c 32       	jn	$-934    	;abs 0x538
     8e0:	29 3d       	jmp	$+596    	;abs 0xb34
     8e2:	28 37       	jge	$-430    	;abs 0x734
     8e4:	2c 31       	jn	$+602    	;abs 0xb3e
     8e6:	29 00       	.word	0x0029;	????
     8e8:	63 3a       	jl	$-824    	;abs 0x5b0
     8ea:	2f 6d       	addc	@r13,	r15	;
     8ec:	73 70       	.word	0x7073;	????
     8ee:	67 63       	addc.b	#2,	r7	;r3 As==10
     8f0:	63 2f       	jc	$-312    	;abs 0x7b8
     8f2:	6d 73       	subc.b	#2,	r13	;r3 As==10
     8f4:	70 34       	jge	$+226    	;abs 0x9d6
     8f6:	33 30       	jn	$+104    	;abs 0x95e
     8f8:	2f 69       	addc	@r9,	r15	;
     8fa:	6e 63       	addc.b	#2,	r14	;r3 As==10
     8fc:	6c 75       	subc.b	@r5,	r12	;
     8fe:	64 65       	addc.b	@r5,	r4	;
     900:	2f 73       	subc	#2,	r15	;r3 As==10
     902:	74 64       	addc.b	@r4+,	r4	;
     904:	6c 69       	addc.b	@r9,	r12	;
     906:	62 2e       	jc	$-826    	;abs 0x5cc
     908:	68 00       	.word	0x0068;	????
     90a:	64 69       	addc.b	@r9,	r4	;
     90c:	76 5f       	add.b	@r15+,	r6	;
     90e:	74 3a       	jl	$-790    	;abs 0x5f8
     910:	74 28       	jnc	$+234    	;abs 0x9fa
     912:	38 2c       	jc	$+114    	;abs 0x984
     914:	31 29       	jnc	$+612    	;abs 0xb78
     916:	3d 28       	jnc	$+124    	;abs 0x992
     918:	38 2c       	jc	$+114    	;abs 0x98a
     91a:	32 29       	jnc	$+614    	;abs 0xb80
     91c:	3d 73       	subc	#-1,	r13	;r3 As==11
     91e:	34 71       	subc	@r1+,	r4	;
     920:	75 6f       	addc.b	@r15+,	r5	;
     922:	74 3a       	jl	$-790    	;abs 0x60c
     924:	28 30       	jn	$+82     	;abs 0x976
     926:	2c 31       	jn	$+602    	;abs 0xb80
     928:	29 2c       	jc	$+84     	;abs 0x97c
     92a:	30 2c       	jc	$+98     	;abs 0x98c
     92c:	31 36       	jge	$-924    	;abs 0x590
     92e:	3b 72       	subc	#8,	r11	;r2 As==11
     930:	65 6d       	addc.b	@r13,	r5	;
     932:	3a 28       	jnc	$+118    	;abs 0x9a8
     934:	30 2c       	jc	$+98     	;abs 0x996
     936:	31 29       	jnc	$+612    	;abs 0xb9a
     938:	2c 31       	jn	$+602    	;abs 0xb92
     93a:	36 2c       	jc	$+110    	;abs 0x9a8
     93c:	31 36       	jge	$-924    	;abs 0x5a0
     93e:	3b 3b       	jl	$-392    	;abs 0x7b6
     940:	00 6c       	addc	r12,	r0	;
     942:	64 69       	addc.b	@r9,	r4	;
     944:	76 5f       	add.b	@r15+,	r6	;
     946:	74 3a       	jl	$-790    	;abs 0x630
     948:	74 28       	jnc	$+234    	;abs 0xa32
     94a:	38 2c       	jc	$+114    	;abs 0x9bc
     94c:	33 29       	jnc	$+616    	;abs 0xbb4
     94e:	3d 28       	jnc	$+124    	;abs 0x9ca
     950:	38 2c       	jc	$+114    	;abs 0x9c2
     952:	34 29       	jnc	$+618    	;abs 0xbbc
     954:	3d 73       	subc	#-1,	r13	;r3 As==11
     956:	38 71       	subc	@r1+,	r8	;
     958:	75 6f       	addc.b	@r15+,	r5	;
     95a:	74 3a       	jl	$-790    	;abs 0x644
     95c:	28 30       	jn	$+82     	;abs 0x9ae
     95e:	2c 33       	jn	$-422    	;abs 0x7b8
     960:	29 2c       	jc	$+84     	;abs 0x9b4
     962:	30 2c       	jc	$+98     	;abs 0x9c4
     964:	33 32       	jn	$-920    	;abs 0x5cc
     966:	3b 72       	subc	#8,	r11	;r2 As==11
     968:	65 6d       	addc.b	@r13,	r5	;
     96a:	3a 28       	jnc	$+118    	;abs 0x9e0
     96c:	30 2c       	jc	$+98     	;abs 0x9ce
     96e:	33 29       	jnc	$+616    	;abs 0xbd6
     970:	2c 33       	jn	$-422    	;abs 0x7ca
     972:	32 2c       	jc	$+102    	;abs 0x9d8
     974:	33 32       	jn	$-920    	;abs 0x5dc
     976:	3b 3b       	jl	$-392    	;abs 0x7ee
     978:	00 63       	adc	r0		;
     97a:	3a 2f       	jc	$-394    	;abs 0x7f0
     97c:	6d 73       	subc.b	#2,	r13	;r3 As==10
     97e:	70 67       	addc.b	@r7+,	r0	;
     980:	63 63       	.word	0x6363;	????
     982:	2f 6d       	addc	@r13,	r15	;
     984:	73 70       	.word	0x7073;	????
     986:	34 33       	jn	$-406    	;abs 0x7f0
     988:	30 2f       	jc	$-414    	;abs 0x7ea
     98a:	69 6e       	addc.b	@r14,	r9	;
     98c:	63 6c       	.word	0x6c63;	????
     98e:	75 64       	addc.b	@r4+,	r5	;
     990:	65 2f       	jc	$-308    	;abs 0x85c
     992:	73 74       	.word	0x7473;	????
     994:	72 69       	addc.b	@r9+,	r2	;
     996:	6e 67       	addc.b	@r7,	r14	;
     998:	2e 68       	addc	@r8,	r14	;
     99a:	00 63       	adc	r0		;
     99c:	3a 2f       	jc	$-394    	;abs 0x812
     99e:	6d 73       	subc.b	#2,	r13	;r3 As==10
     9a0:	70 67       	addc.b	@r7+,	r0	;
     9a2:	63 63       	.word	0x6363;	????
     9a4:	2f 6d       	addc	@r13,	r15	;
     9a6:	73 70       	.word	0x7073;	????
     9a8:	34 33       	jn	$-406    	;abs 0x812
     9aa:	30 2f       	jc	$-414    	;abs 0x80c
     9ac:	69 6e       	addc.b	@r14,	r9	;
     9ae:	63 6c       	.word	0x6c63;	????
     9b0:	75 64       	addc.b	@r4+,	r5	;
     9b2:	65 2f       	jc	$-308    	;abs 0x87e
     9b4:	6d 73       	subc.b	#2,	r13	;r3 As==10
     9b6:	70 34       	jge	$+226    	;abs 0xa98
     9b8:	33 30       	jn	$+104    	;abs 0xa20
     9ba:	78 32       	jn	$-782    	;abs 0x6ac
     9bc:	36 31       	jn	$+622    	;abs 0xc2a
     9be:	39 2e       	jc	$-908    	;abs 0x632
     9c0:	68 00       	.word	0x0068;	????
     9c2:	63 3a       	jl	$-824    	;abs 0x68a
     9c4:	2f 6d       	addc	@r13,	r15	;
     9c6:	73 70       	.word	0x7073;	????
     9c8:	67 63       	addc.b	#2,	r7	;r3 As==10
     9ca:	63 2f       	jc	$-312    	;abs 0x892
     9cc:	6d 73       	subc.b	#2,	r13	;r3 As==10
     9ce:	70 34       	jge	$+226    	;abs 0xab0
     9d0:	33 30       	jn	$+104    	;abs 0xa38
     9d2:	2f 69       	addc	@r9,	r15	;
     9d4:	6e 63       	addc.b	#2,	r14	;r3 As==10
     9d6:	6c 75       	subc.b	@r5,	r12	;
     9d8:	64 65       	addc.b	@r5,	r4	;
     9da:	2f 69       	addc	@r9,	r15	;
     9dc:	6f 6d       	addc.b	@r13,	r15	;
     9de:	61 63       	addc.b	#2,	r1	;r3 As==10
     9e0:	72 6f       	addc.b	@r15+,	r2	;
     9e2:	73 2e       	jc	$-792    	;abs 0x6ca
     9e4:	68 00       	.word	0x0068;	????
     9e6:	63 3a       	jl	$-824    	;abs 0x6ae
     9e8:	2f 6d       	addc	@r13,	r15	;
     9ea:	73 70       	.word	0x7073;	????
     9ec:	67 63       	addc.b	#2,	r7	;r3 As==10
     9ee:	63 2f       	jc	$-312    	;abs 0x8b6
     9f0:	6d 73       	subc.b	#2,	r13	;r3 As==10
     9f2:	70 34       	jge	$+226    	;abs 0xad4
     9f4:	33 30       	jn	$+104    	;abs 0xa5c
     9f6:	2f 69       	addc	@r9,	r15	;
     9f8:	6e 63       	addc.b	#2,	r14	;r3 As==10
     9fa:	6c 75       	subc.b	@r5,	r12	;
     9fc:	64 65       	addc.b	@r5,	r4	;
     9fe:	2f 6d       	addc	@r13,	r15	;
     a00:	73 70       	.word	0x7073;	????
     a02:	34 33       	jn	$-406    	;abs 0x86c
     a04:	30 2f       	jc	$-414    	;abs 0x866
     a06:	6d 70       	subc.b	@r0,	r13	;
     a08:	79 2e       	jc	$-780    	;abs 0x6fc
     a0a:	68 00       	.word	0x0068;	????
     a0c:	63 3a       	jl	$-824    	;abs 0x6d4
     a0e:	2f 6d       	addc	@r13,	r15	;
     a10:	73 70       	.word	0x7073;	????
     a12:	67 63       	addc.b	#2,	r7	;r3 As==10
     a14:	63 2f       	jc	$-312    	;abs 0x8dc
     a16:	6d 73       	subc.b	#2,	r13	;r3 As==10
     a18:	70 34       	jge	$+226    	;abs 0xafa
     a1a:	33 30       	jn	$+104    	;abs 0xa82
     a1c:	2f 69       	addc	@r9,	r15	;
     a1e:	6e 63       	addc.b	#2,	r14	;r3 As==10
     a20:	6c 75       	subc.b	@r5,	r12	;
     a22:	64 65       	addc.b	@r5,	r4	;
     a24:	2f 6d       	addc	@r13,	r15	;
     a26:	73 70       	.word	0x7073;	????
     a28:	34 33       	jn	$-406    	;abs 0x892
     a2a:	30 2f       	jc	$-414    	;abs 0x88c
     a2c:	67 70       	subc.b	@r0,	r7	;
     a2e:	69 6f       	addc.b	@r15,	r9	;
     a30:	2e 68       	addc	@r8,	r14	;
     a32:	00 63       	adc	r0		;
     a34:	3a 2f       	jc	$-394    	;abs 0x8aa
     a36:	6d 73       	subc.b	#2,	r13	;r3 As==10
     a38:	70 67       	addc.b	@r7+,	r0	;
     a3a:	63 63       	.word	0x6363;	????
     a3c:	2f 6d       	addc	@r13,	r15	;
     a3e:	73 70       	.word	0x7073;	????
     a40:	34 33       	jn	$-406    	;abs 0x8aa
     a42:	30 2f       	jc	$-414    	;abs 0x8a4
     a44:	69 6e       	addc.b	@r14,	r9	;
     a46:	63 6c       	.word	0x6c63;	????
     a48:	75 64       	addc.b	@r4+,	r5	;
     a4a:	65 2f       	jc	$-308    	;abs 0x916
     a4c:	6d 73       	subc.b	#2,	r13	;r3 As==10
     a4e:	70 34       	jge	$+226    	;abs 0xb30
     a50:	33 30       	jn	$+104    	;abs 0xab8
     a52:	2f 69       	addc	@r9,	r15	;
     a54:	6f 73       	subc.b	#2,	r15	;r3 As==10
     a56:	74 72       	subc.b	#8,	r4	;r2 As==11
     a58:	75 63       	addc.b	#-1,	r5	;r3 As==11
     a5a:	74 75       	subc.b	@r5+,	r4	;
     a5c:	72 65       	addc.b	@r5+,	r2	;
     a5e:	73 2e       	jc	$-792    	;abs 0x746
     a60:	68 00       	.word	0x0068;	????
     a62:	70 6f       	addc.b	@r15+,	r0	;
     a64:	72 74       	subc.b	@r4+,	r2	;
     a66:	3a 54       	add	@r4+,	r10	;
     a68:	28 31       	jn	$+594    	;abs 0xcba
     a6a:	36 2c       	jc	$+110    	;abs 0xad8
     a6c:	31 29       	jnc	$+612    	;abs 0xcd0
     a6e:	3d 75       	subc	@r5+,	r13	;
     a70:	31 72       	subc	#8,	r1	;r2 As==11
     a72:	65 67       	addc.b	@r7,	r5	;
     a74:	5f 70 3a 28 	subc.b	0x283a,	r15	;PC rel. 0x32b0
     a78:	30 2c       	jc	$+98     	;abs 0xada
     a7a:	31 31       	jn	$+612    	;abs 0xcde
     a7c:	29 2c       	jc	$+84     	;abs 0xad0
     a7e:	30 2c       	jc	$+98     	;abs 0xae0
     a80:	38 3b       	jl	$-398    	;abs 0x8f2
     a82:	5f 5f 70 69 	add.b	26992(r15),r15	;
     a86:	6e 3a       	jl	$-802    	;abs 0x764
     a88:	28 31       	jn	$+594    	;abs 0xcda
     a8a:	36 2c       	jc	$+110    	;abs 0xaf8
     a8c:	32 29       	jnc	$+614    	;abs 0xcf2
     a8e:	3d 73       	subc	#-1,	r13	;r3 As==11
     a90:	31 5f       	add	@r15+,	r1	;
     a92:	5f 70 30 3a 	subc.b	0x3a30,	r15	;PC rel. 0x44c4
     a96:	28 30       	jn	$+82     	;abs 0xae8
     a98:	2c 31       	jn	$+602    	;abs 0xcf2
     a9a:	31 29       	jnc	$+612    	;abs 0xcfe
     a9c:	2c 30       	jn	$+90     	;abs 0xaf6
     a9e:	2c 31       	jn	$+602    	;abs 0xcf8
     aa0:	3b 5f       	add	@r15+,	r11	;
     aa2:	5f 70 31 3a 	subc.b	0x3a31,	r15	;PC rel. 0x44d5
     aa6:	28 30       	jn	$+82     	;abs 0xaf8
     aa8:	2c 31       	jn	$+602    	;abs 0xd02
     aaa:	31 29       	jnc	$+612    	;abs 0xd0e
     aac:	2c 31       	jn	$+602    	;abs 0xd06
     aae:	2c 31       	jn	$+602    	;abs 0xd08
     ab0:	3b 5f       	add	@r15+,	r11	;
     ab2:	5f 70 32 3a 	subc.b	0x3a32,	r15	;PC rel. 0x44e6
     ab6:	28 30       	jn	$+82     	;abs 0xb08
     ab8:	2c 31       	jn	$+602    	;abs 0xd12
     aba:	31 29       	jnc	$+612    	;abs 0xd1e
     abc:	2c 32       	jn	$-934    	;abs 0x716
     abe:	2c 31       	jn	$+602    	;abs 0xd18
     ac0:	3b 5f       	add	@r15+,	r11	;
     ac2:	5f 70 33 3a 	subc.b	0x3a33,	r15	;PC rel. 0x44f7
     ac6:	28 30       	jn	$+82     	;abs 0xb18
     ac8:	2c 31       	jn	$+602    	;abs 0xd22
     aca:	31 29       	jnc	$+612    	;abs 0xd2e
     acc:	2c 33       	jn	$-422    	;abs 0x926
     ace:	2c 31       	jn	$+602    	;abs 0xd28
     ad0:	3b 5f       	add	@r15+,	r11	;
     ad2:	5f 70 34 3a 	subc.b	0x3a34,	r15	;PC rel. 0x4508
     ad6:	28 30       	jn	$+82     	;abs 0xb28
     ad8:	2c 31       	jn	$+602    	;abs 0xd32
     ada:	31 29       	jnc	$+612    	;abs 0xd3e
     adc:	2c 34       	jge	$+90     	;abs 0xb36
     ade:	2c 31       	jn	$+602    	;abs 0xd38
     ae0:	3b 5f       	add	@r15+,	r11	;
     ae2:	5f 70 35 3a 	subc.b	0x3a35,	r15	;PC rel. 0x4519
     ae6:	28 30       	jn	$+82     	;abs 0xb38
     ae8:	2c 31       	jn	$+602    	;abs 0xd42
     aea:	31 29       	jnc	$+612    	;abs 0xd4e
     aec:	2c 35       	jge	$+602    	;abs 0xd46
     aee:	2c 31       	jn	$+602    	;abs 0xd48
     af0:	3b 5f       	add	@r15+,	r11	;
     af2:	5f 70 36 3a 	subc.b	0x3a36,	r15	;PC rel. 0x452a
     af6:	28 30       	jn	$+82     	;abs 0xb48
     af8:	2c 31       	jn	$+602    	;abs 0xd52
     afa:	31 29       	jnc	$+612    	;abs 0xd5e
     afc:	2c 36       	jge	$-934    	;abs 0x756
     afe:	2c 31       	jn	$+602    	;abs 0xd58
     b00:	3b 5f       	add	@r15+,	r11	;
     b02:	5f 70 37 3a 	subc.b	0x3a37,	r15	;PC rel. 0x453b
     b06:	28 30       	jn	$+82     	;abs 0xb58
     b08:	2c 31       	jn	$+602    	;abs 0xd62
     b0a:	31 29       	jnc	$+612    	;abs 0xd6e
     b0c:	2c 37       	jge	$-422    	;abs 0x966
     b0e:	2c 31       	jn	$+602    	;abs 0xd68
     b10:	3b 3b       	jl	$-392    	;abs 0x988
     b12:	2c 30       	jn	$+90     	;abs 0xb6c
     b14:	2c 38       	jl	$+90     	;abs 0xb6e
     b16:	3b 3b       	jl	$-392    	;abs 0x98e
     b18:	00 69       	addc	r9,	r0	;
     b1a:	6f 72       	subc.b	#4,	r15	;r2 As==10
     b1c:	65 67       	addc.b	@r7,	r5	;
     b1e:	69 73       	subc.b	#2,	r9	;r3 As==10
     b20:	74 65       	addc.b	@r5+,	r4	;
     b22:	72 5f       	add.b	@r15+,	r2	;
     b24:	74 3a       	jl	$-790    	;abs 0x80e
     b26:	74 28       	jnc	$+234    	;abs 0xc10
     b28:	31 36       	jge	$-924    	;abs 0x78c
     b2a:	2c 33       	jn	$-422    	;abs 0x984
     b2c:	29 3d       	jmp	$+596    	;abs 0xd80
     b2e:	28 31       	jn	$+594    	;abs 0xd80
     b30:	36 2c       	jc	$+110    	;abs 0xb9e
     b32:	31 29       	jnc	$+612    	;abs 0xd96
     b34:	00 70       	subc	r0,	r0	;
     b36:	6f 72       	subc.b	#4,	r15	;r2 As==10
     b38:	74 5f       	add.b	@r15+,	r4	;
     b3a:	66 75       	subc.b	@r5,	r6	;
     b3c:	6c 6c       	addc.b	@r12,	r12	;
     b3e:	5f 74 3a 54 	subc.b	21562(r4),r15	;
     b42:	28 31       	jn	$+594    	;abs 0xd94
     b44:	36 2c       	jc	$+110    	;abs 0xbb2
     b46:	34 29       	jnc	$+618    	;abs 0xdb0
     b48:	3d 73       	subc	#-1,	r13	;r3 As==11
     b4a:	38 69       	addc	@r9+,	r8	;
     b4c:	6e 3a       	jl	$-802    	;abs 0x82a
     b4e:	28 31       	jn	$+594    	;abs 0xda0
     b50:	36 2c       	jc	$+110    	;abs 0xbbe
     b52:	33 29       	jnc	$+616    	;abs 0xdba
     b54:	2c 30       	jn	$+90     	;abs 0xbae
     b56:	2c 38       	jl	$+90     	;abs 0xbb0
     b58:	3b 6f       	addc	@r15+,	r11	;
     b5a:	75 74       	subc.b	@r4+,	r5	;
     b5c:	3a 28       	jnc	$+118    	;abs 0xbd2
     b5e:	31 36       	jge	$-924    	;abs 0x7c2
     b60:	2c 33       	jn	$-422    	;abs 0x9ba
     b62:	29 2c       	jc	$+84     	;abs 0xbb6
     b64:	38 2c       	jc	$+114    	;abs 0xbd6
     b66:	38 3b       	jl	$-398    	;abs 0x9d8
     b68:	64 69       	addc.b	@r9,	r4	;
     b6a:	72 3a       	jl	$-794    	;abs 0x850
     b6c:	28 31       	jn	$+594    	;abs 0xdbe
     b6e:	36 2c       	jc	$+110    	;abs 0xbdc
     b70:	33 29       	jnc	$+616    	;abs 0xdd8
     b72:	2c 31       	jn	$+602    	;abs 0xdcc
     b74:	36 2c       	jc	$+110    	;abs 0xbe2
     b76:	38 3b       	jl	$-398    	;abs 0x9e8
     b78:	69 66       	addc.b	@r6,	r9	;
     b7a:	67 3a       	jl	$-816    	;abs 0x84a
     b7c:	28 31       	jn	$+594    	;abs 0xdce
     b7e:	36 2c       	jc	$+110    	;abs 0xbec
     b80:	33 29       	jnc	$+616    	;abs 0xde8
     b82:	2c 32       	jn	$-934    	;abs 0x7dc
     b84:	34 2c       	jc	$+106    	;abs 0xbee
     b86:	38 3b       	jl	$-398    	;abs 0x9f8
     b88:	69 65       	addc.b	@r5,	r9	;
     b8a:	73 3a       	jl	$-792    	;abs 0x872
     b8c:	28 31       	jn	$+594    	;abs 0xdde
     b8e:	36 2c       	jc	$+110    	;abs 0xbfc
     b90:	33 29       	jnc	$+616    	;abs 0xdf8
     b92:	2c 33       	jn	$-422    	;abs 0x9ec
     b94:	32 2c       	jc	$+102    	;abs 0xbfa
     b96:	38 3b       	jl	$-398    	;abs 0xa08
     b98:	69 65       	addc.b	@r5,	r9	;
     b9a:	3a 28       	jnc	$+118    	;abs 0xc10
     b9c:	31 36       	jge	$-924    	;abs 0x800
     b9e:	2c 33       	jn	$-422    	;abs 0x9f8
     ba0:	29 2c       	jc	$+84     	;abs 0xbf4
     ba2:	34 30       	jn	$+106    	;abs 0xc0c
     ba4:	2c 38       	jl	$+90     	;abs 0xbfe
     ba6:	3b 73       	subc	#-1,	r11	;r3 As==11
     ba8:	65 6c       	addc.b	@r12,	r5	;
     baa:	3a 28       	jnc	$+118    	;abs 0xc20
     bac:	31 36       	jge	$-924    	;abs 0x810
     bae:	2c 33       	jn	$-422    	;abs 0xa08
     bb0:	29 2c       	jc	$+84     	;abs 0xc04
     bb2:	34 38       	jl	$+106    	;abs 0xc1c
     bb4:	2c 38       	jl	$+90     	;abs 0xc0e
     bb6:	3b 72       	subc	#8,	r11	;r2 As==11
     bb8:	65 6e       	addc.b	@r14,	r5	;
     bba:	3a 28       	jnc	$+118    	;abs 0xc30
     bbc:	31 36       	jge	$-924    	;abs 0x820
     bbe:	2c 33       	jn	$-422    	;abs 0xa18
     bc0:	29 2c       	jc	$+84     	;abs 0xc14
     bc2:	35 36       	jge	$-916    	;abs 0x82e
     bc4:	2c 38       	jl	$+90     	;abs 0xc1e
     bc6:	3b 3b       	jl	$-392    	;abs 0xa3e
     bc8:	00 70       	subc	r0,	r0	;
     bca:	6f 72       	subc.b	#4,	r15	;r2 As==10
     bcc:	74 5f       	add.b	@r15+,	r4	;
     bce:	73 69       	.word	0x6973;	????
     bd0:	6d 70       	subc.b	@r0,	r13	;
     bd2:	6c 65       	addc.b	@r5,	r12	;
     bd4:	5f 74 3a 54 	subc.b	21562(r4),r15	;
     bd8:	28 31       	jn	$+594    	;abs 0xe2a
     bda:	36 2c       	jc	$+110    	;abs 0xc48
     bdc:	35 29       	jnc	$+620    	;abs 0xe48
     bde:	3d 73       	subc	#-1,	r13	;r3 As==11
     be0:	34 69       	addc	@r9+,	r4	;
     be2:	6e 3a       	jl	$-802    	;abs 0x8c0
     be4:	28 31       	jn	$+594    	;abs 0xe36
     be6:	36 2c       	jc	$+110    	;abs 0xc54
     be8:	33 29       	jnc	$+616    	;abs 0xe50
     bea:	2c 30       	jn	$+90     	;abs 0xc44
     bec:	2c 38       	jl	$+90     	;abs 0xc46
     bee:	3b 6f       	addc	@r15+,	r11	;
     bf0:	75 74       	subc.b	@r4+,	r5	;
     bf2:	3a 28       	jnc	$+118    	;abs 0xc68
     bf4:	31 36       	jge	$-924    	;abs 0x858
     bf6:	2c 33       	jn	$-422    	;abs 0xa50
     bf8:	29 2c       	jc	$+84     	;abs 0xc4c
     bfa:	38 2c       	jc	$+114    	;abs 0xc6c
     bfc:	38 3b       	jl	$-398    	;abs 0xa6e
     bfe:	64 69       	addc.b	@r9,	r4	;
     c00:	72 3a       	jl	$-794    	;abs 0x8e6
     c02:	28 31       	jn	$+594    	;abs 0xe54
     c04:	36 2c       	jc	$+110    	;abs 0xc72
     c06:	33 29       	jnc	$+616    	;abs 0xe6e
     c08:	2c 31       	jn	$+602    	;abs 0xe62
     c0a:	36 2c       	jc	$+110    	;abs 0xc78
     c0c:	38 3b       	jl	$-398    	;abs 0xa7e
     c0e:	73 65       	.word	0x6573;	????
     c10:	6c 3a       	jl	$-806    	;abs 0x8ea
     c12:	28 31       	jn	$+594    	;abs 0xe64
     c14:	36 2c       	jc	$+110    	;abs 0xc82
     c16:	33 29       	jnc	$+616    	;abs 0xe7e
     c18:	2c 32       	jn	$-934    	;abs 0x872
     c1a:	34 2c       	jc	$+106    	;abs 0xc84
     c1c:	38 3b       	jl	$-398    	;abs 0xa8e
     c1e:	3b 00       	.word	0x003b;	????
     c20:	63 3a       	jl	$-824    	;abs 0x8e8
     c22:	2f 6d       	addc	@r13,	r15	;
     c24:	73 70       	.word	0x7073;	????
     c26:	67 63       	addc.b	#2,	r7	;r3 As==10
     c28:	63 2f       	jc	$-312    	;abs 0xaf0
     c2a:	6d 73       	subc.b	#2,	r13	;r3 As==10
     c2c:	70 34       	jge	$+226    	;abs 0xd0e
     c2e:	33 30       	jn	$+104    	;abs 0xc96
     c30:	2f 69       	addc	@r9,	r15	;
     c32:	6e 63       	addc.b	#2,	r14	;r3 As==10
     c34:	6c 75       	subc.b	@r5,	r12	;
     c36:	64 65       	addc.b	@r5,	r4	;
     c38:	2f 6d       	addc	@r13,	r15	;
     c3a:	73 70       	.word	0x7073;	????
     c3c:	34 33       	jn	$-406    	;abs 0xaa6
     c3e:	30 2f       	jc	$-414    	;abs 0xaa0
     c40:	75 73       	subc.b	#-1,	r5	;r3 As==11
     c42:	63 69       	.word	0x6963;	????
     c44:	2e 68       	addc	@r8,	r14	;
     c46:	00 63       	adc	r0		;
     c48:	3a 2f       	jc	$-394    	;abs 0xabe
     c4a:	6d 73       	subc.b	#2,	r13	;r3 As==10
     c4c:	70 67       	addc.b	@r7+,	r0	;
     c4e:	63 63       	.word	0x6363;	????
     c50:	2f 6d       	addc	@r13,	r15	;
     c52:	73 70       	.word	0x7073;	????
     c54:	34 33       	jn	$-406    	;abs 0xabe
     c56:	30 2f       	jc	$-414    	;abs 0xab8
     c58:	69 6e       	addc.b	@r14,	r9	;
     c5a:	63 6c       	.word	0x6c63;	????
     c5c:	75 64       	addc.b	@r4+,	r5	;
     c5e:	65 2f       	jc	$-308    	;abs 0xb2a
     c60:	6d 73       	subc.b	#2,	r13	;r3 As==10
     c62:	70 34       	jge	$+226    	;abs 0xd44
     c64:	33 30       	jn	$+104    	;abs 0xccc
     c66:	2f 74       	subc	@r4,	r15	;
     c68:	69 6d       	addc.b	@r13,	r9	;
     c6a:	65 72       	subc.b	#4,	r5	;r2 As==10
     c6c:	61 2e       	jc	$-828    	;abs 0x930
     c6e:	68 00       	.word	0x0068;	????
     c70:	74 61       	addc.b	@r1+,	r4	;
     c72:	63 74       	.word	0x7463;	????
     c74:	6c 5f       	add.b	@r15,	r12	;
     c76:	74 3a       	jl	$-790    	;abs 0x960
     c78:	74 28       	jnc	$+234    	;abs 0xd62
     c7a:	31 38       	jl	$+100    	;abs 0xcde
     c7c:	2c 31       	jn	$+602    	;abs 0xed6
     c7e:	29 3d       	jmp	$+596    	;abs 0xed2
     c80:	28 31       	jn	$+594    	;abs 0xed2
     c82:	38 2c       	jc	$+114    	;abs 0xcf4
     c84:	32 29       	jnc	$+614    	;abs 0xeea
     c86:	3d 73       	subc	#-1,	r13	;r3 As==11
     c88:	32 74       	subc	@r4+,	r2	;
     c8a:	61 69       	addc.b	@r9,	r1	;
     c8c:	66 67       	addc.b	@r7,	r6	;
     c8e:	3a 28       	jnc	$+118    	;abs 0xd04
     c90:	30 2c       	jc	$+98     	;abs 0xcf2
     c92:	34 29       	jnc	$+618    	;abs 0xefc
     c94:	2c 30       	jn	$+90     	;abs 0xcee
     c96:	2c 31       	jn	$+602    	;abs 0xef0
     c98:	3b 74       	subc	@r4+,	r11	;
     c9a:	61 69       	addc.b	@r9,	r1	;
     c9c:	65 3a       	jl	$-820    	;abs 0x968
     c9e:	28 30       	jn	$+82     	;abs 0xcf0
     ca0:	2c 34       	jge	$+90     	;abs 0xcfa
     ca2:	29 2c       	jc	$+84     	;abs 0xcf6
     ca4:	31 2c       	jc	$+100    	;abs 0xd08
     ca6:	31 3b       	jl	$-412    	;abs 0xb0a
     ca8:	74 61       	addc.b	@r1+,	r4	;
     caa:	63 6c       	.word	0x6c63;	????
     cac:	72 3a       	jl	$-794    	;abs 0x992
     cae:	28 30       	jn	$+82     	;abs 0xd00
     cb0:	2c 34       	jge	$+90     	;abs 0xd0a
     cb2:	29 2c       	jc	$+84     	;abs 0xd06
     cb4:	32 2c       	jc	$+102    	;abs 0xd1a
     cb6:	31 3b       	jl	$-412    	;abs 0xb1a
     cb8:	64 75       	subc.b	@r5,	r4	;
     cba:	6d 6d       	addc.b	@r13,	r13	;
     cbc:	79 3a       	jl	$-780    	;abs 0x9b0
     cbe:	28 30       	jn	$+82     	;abs 0xd10
     cc0:	2c 34       	jge	$+90     	;abs 0xd1a
     cc2:	29 2c       	jc	$+84     	;abs 0xd16
     cc4:	33 2c       	jc	$+104    	;abs 0xd2c
     cc6:	31 3b       	jl	$-412    	;abs 0xb2a
     cc8:	74 61       	addc.b	@r1+,	r4	;
     cca:	6d 63       	addc.b	#2,	r13	;r3 As==10
     ccc:	3a 28       	jnc	$+118    	;abs 0xd42
     cce:	30 2c       	jc	$+98     	;abs 0xd30
     cd0:	34 29       	jnc	$+618    	;abs 0xf3a
     cd2:	2c 34       	jge	$+90     	;abs 0xd2c
     cd4:	2c 32       	jn	$-934    	;abs 0x92e
     cd6:	3b 74       	subc	@r4+,	r11	;
     cd8:	61 69       	addc.b	@r9,	r1	;
     cda:	64 3a       	jl	$-822    	;abs 0x9a4
     cdc:	28 30       	jn	$+82     	;abs 0xd2e
     cde:	2c 34       	jge	$+90     	;abs 0xd38
     ce0:	29 2c       	jc	$+84     	;abs 0xd34
     ce2:	36 2c       	jc	$+110    	;abs 0xd50
     ce4:	32 3b       	jl	$-410    	;abs 0xb4a
     ce6:	74 61       	addc.b	@r1+,	r4	;
     ce8:	73 73       	.word	0x7373;	????
     cea:	65 6c       	addc.b	@r12,	r5	;
     cec:	3a 28       	jnc	$+118    	;abs 0xd62
     cee:	30 2c       	jc	$+98     	;abs 0xd50
     cf0:	34 29       	jnc	$+618    	;abs 0xf5a
     cf2:	2c 38       	jl	$+90     	;abs 0xd4c
     cf4:	2c 32       	jn	$-934    	;abs 0x94e
     cf6:	3b 3b       	jl	$-392    	;abs 0xb6e
     cf8:	00 74       	subc	r4,	r0	;
     cfa:	61 63       	addc.b	#2,	r1	;r3 As==10
     cfc:	63 74       	.word	0x7463;	????
     cfe:	6c 5f       	add.b	@r15,	r12	;
     d00:	74 3a       	jl	$-790    	;abs 0x9ea
     d02:	74 28       	jnc	$+234    	;abs 0xdec
     d04:	31 38       	jl	$+100    	;abs 0xd68
     d06:	2c 33       	jn	$-422    	;abs 0xb60
     d08:	29 3d       	jmp	$+596    	;abs 0xf5c
     d0a:	28 31       	jn	$+594    	;abs 0xf5c
     d0c:	38 2c       	jc	$+114    	;abs 0xd7e
     d0e:	34 29       	jnc	$+618    	;abs 0xf78
     d10:	3d 73       	subc	#-1,	r13	;r3 As==11
     d12:	32 63       	addc	#-1,	r2	;r3 As==11
     d14:	63 69       	.word	0x6963;	????
     d16:	66 67       	addc.b	@r7,	r6	;
     d18:	3a 28       	jnc	$+118    	;abs 0xd8e
     d1a:	30 2c       	jc	$+98     	;abs 0xd7c
     d1c:	34 29       	jnc	$+618    	;abs 0xf86
     d1e:	2c 30       	jn	$+90     	;abs 0xd78
     d20:	2c 31       	jn	$+602    	;abs 0xf7a
     d22:	3b 63       	addc	#-1,	r11	;r3 As==11
     d24:	6f 76       	subc.b	@r6,	r15	;
     d26:	3a 28       	jnc	$+118    	;abs 0xd9c
     d28:	30 2c       	jc	$+98     	;abs 0xd8a
     d2a:	34 29       	jnc	$+618    	;abs 0xf94
     d2c:	2c 31       	jn	$+602    	;abs 0xf86
     d2e:	2c 31       	jn	$+602    	;abs 0xf88
     d30:	3b 6f       	addc	@r15+,	r11	;
     d32:	75 74       	subc.b	@r4+,	r5	;
     d34:	3a 28       	jnc	$+118    	;abs 0xdaa
     d36:	30 2c       	jc	$+98     	;abs 0xd98
     d38:	34 29       	jnc	$+618    	;abs 0xfa2
     d3a:	2c 32       	jn	$-934    	;abs 0x994
     d3c:	2c 31       	jn	$+602    	;abs 0xf96
     d3e:	3b 63       	addc	#-1,	r11	;r3 As==11
     d40:	63 69       	.word	0x6963;	????
     d42:	3a 28       	jnc	$+118    	;abs 0xdb8
     d44:	30 2c       	jc	$+98     	;abs 0xda6
     d46:	34 29       	jnc	$+618    	;abs 0xfb0
     d48:	2c 33       	jn	$-422    	;abs 0xba2
     d4a:	2c 31       	jn	$+602    	;abs 0xfa4
     d4c:	3b 63       	addc	#-1,	r11	;r3 As==11
     d4e:	63 69       	.word	0x6963;	????
     d50:	65 3a       	jl	$-820    	;abs 0xa1c
     d52:	28 30       	jn	$+82     	;abs 0xda4
     d54:	2c 34       	jge	$+90     	;abs 0xdae
     d56:	29 2c       	jc	$+84     	;abs 0xdaa
     d58:	34 2c       	jc	$+106    	;abs 0xdc2
     d5a:	31 3b       	jl	$-412    	;abs 0xbbe
     d5c:	6f 75       	subc.b	@r5,	r15	;
     d5e:	74 6d       	addc.b	@r13+,	r4	;
     d60:	6f 64       	addc.b	@r4,	r15	;
     d62:	3a 28       	jnc	$+118    	;abs 0xdd8
     d64:	30 2c       	jc	$+98     	;abs 0xdc6
     d66:	34 29       	jnc	$+618    	;abs 0xfd0
     d68:	2c 35       	jge	$+602    	;abs 0xfc2
     d6a:	2c 33       	jn	$-422    	;abs 0xbc4
     d6c:	3b 63       	addc	#-1,	r11	;r3 As==11
     d6e:	61 70       	subc.b	@r0,	r1	;
     d70:	3a 28       	jnc	$+118    	;abs 0xde6
     d72:	30 2c       	jc	$+98     	;abs 0xdd4
     d74:	34 29       	jnc	$+618    	;abs 0xfde
     d76:	2c 38       	jl	$+90     	;abs 0xdd0
     d78:	2c 31       	jn	$+602    	;abs 0xfd2
     d7a:	3b 64       	addc	@r4+,	r11	;
     d7c:	75 6d       	addc.b	@r13+,	r5	;
     d7e:	6d 79       	subc.b	@r9,	r13	;
     d80:	3a 28       	jnc	$+118    	;abs 0xdf6
     d82:	30 2c       	jc	$+98     	;abs 0xde4
     d84:	34 29       	jnc	$+618    	;abs 0xfee
     d86:	2c 39       	jl	$+602    	;abs 0xfe0
     d88:	2c 31       	jn	$+602    	;abs 0xfe2
     d8a:	3b 73       	subc	#-1,	r11	;r3 As==11
     d8c:	63 63       	.word	0x6363;	????
     d8e:	69 3a       	jl	$-812    	;abs 0xa62
     d90:	28 30       	jn	$+82     	;abs 0xde2
     d92:	2c 34       	jge	$+90     	;abs 0xdec
     d94:	29 2c       	jc	$+84     	;abs 0xde8
     d96:	31 30       	jn	$+100    	;abs 0xdfa
     d98:	2c 31       	jn	$+602    	;abs 0xff2
     d9a:	3b 73       	subc	#-1,	r11	;r3 As==11
     d9c:	63 73       	.word	0x7363;	????
     d9e:	3a 28       	jnc	$+118    	;abs 0xe14
     da0:	30 2c       	jc	$+98     	;abs 0xe02
     da2:	34 29       	jnc	$+618    	;abs 0x100c
     da4:	2c 31       	jn	$+602    	;abs 0xffe
     da6:	31 2c       	jc	$+100    	;abs 0xe0a
     da8:	31 3b       	jl	$-412    	;abs 0xc0c
     daa:	63 63       	.word	0x6363;	????
     dac:	69 73       	subc.b	#2,	r9	;r3 As==10
     dae:	3a 28       	jnc	$+118    	;abs 0xe24
     db0:	30 2c       	jc	$+98     	;abs 0xe12
     db2:	34 29       	jnc	$+618    	;abs 0x101c
     db4:	2c 31       	jn	$+602    	;abs 0x100e
     db6:	32 2c       	jc	$+102    	;abs 0xe1c
     db8:	32 3b       	jl	$-410    	;abs 0xc1e
     dba:	63 6d       	.word	0x6d63;	????
     dbc:	3a 28       	jnc	$+118    	;abs 0xe32
     dbe:	30 2c       	jc	$+98     	;abs 0xe20
     dc0:	34 29       	jnc	$+618    	;abs 0x102a
     dc2:	2c 31       	jn	$+602    	;abs 0x101c
     dc4:	34 2c       	jc	$+106    	;abs 0xe2e
     dc6:	32 3b       	jl	$-410    	;abs 0xc2c
     dc8:	3b 00       	.word	0x003b;	????
     dca:	74 69       	addc.b	@r9+,	r4	;
     dcc:	6d 65       	addc.b	@r5,	r13	;
     dce:	72 61       	addc.b	@r1+,	r2	;
     dd0:	5f 74 3a 54 	subc.b	21562(r4),r15	;
     dd4:	28 31       	jn	$+594    	;abs 0x1026
     dd6:	38 2c       	jc	$+114    	;abs 0xe48
     dd8:	35 29       	jnc	$+620    	;abs 0x1044
     dda:	3d 73       	subc	#-1,	r13	;r3 As==11
     ddc:	32 34       	jge	$+102    	;abs 0xe42
     dde:	63 74       	.word	0x7463;	????
     de0:	6c 3a       	jl	$-806    	;abs 0xaba
     de2:	28 31       	jn	$+594    	;abs 0x1034
     de4:	38 2c       	jc	$+114    	;abs 0xe56
     de6:	31 29       	jnc	$+612    	;abs 0x104a
     de8:	2c 30       	jn	$+90     	;abs 0xe42
     dea:	2c 31       	jn	$+602    	;abs 0x1044
     dec:	36 3b       	jl	$-402    	;abs 0xc5a
     dee:	63 63       	.word	0x6363;	????
     df0:	74 6c       	addc.b	@r12+,	r4	;
     df2:	30 3a       	jl	$-926    	;abs 0xa54
     df4:	28 31       	jn	$+594    	;abs 0x1046
     df6:	38 2c       	jc	$+114    	;abs 0xe68
     df8:	33 29       	jnc	$+616    	;abs 0x1060
     dfa:	2c 31       	jn	$+602    	;abs 0x1054
     dfc:	36 2c       	jc	$+110    	;abs 0xe6a
     dfe:	31 36       	jge	$-924    	;abs 0xa62
     e00:	3b 63       	addc	#-1,	r11	;r3 As==11
     e02:	63 74       	.word	0x7463;	????
     e04:	6c 31       	jn	$+730    	;abs 0x10de
     e06:	3a 28       	jnc	$+118    	;abs 0xe7c
     e08:	31 38       	jl	$+100    	;abs 0xe6c
     e0a:	2c 33       	jn	$-422    	;abs 0xc64
     e0c:	29 2c       	jc	$+84     	;abs 0xe60
     e0e:	33 32       	jn	$-920    	;abs 0xa76
     e10:	2c 31       	jn	$+602    	;abs 0x106a
     e12:	36 3b       	jl	$-402    	;abs 0xc80
     e14:	63 63       	.word	0x6363;	????
     e16:	74 6c       	addc.b	@r12+,	r4	;
     e18:	32 3a       	jl	$-922    	;abs 0xa7e
     e1a:	28 31       	jn	$+594    	;abs 0x106c
     e1c:	38 2c       	jc	$+114    	;abs 0xe8e
     e1e:	33 29       	jnc	$+616    	;abs 0x1086
     e20:	2c 34       	jge	$+90     	;abs 0xe7a
     e22:	38 2c       	jc	$+114    	;abs 0xe94
     e24:	31 36       	jge	$-924    	;abs 0xa88
     e26:	3b 64       	addc	@r4+,	r11	;
     e28:	75 6d       	addc.b	@r13+,	r5	;
     e2a:	6d 79       	subc.b	@r9,	r13	;
     e2c:	3a 28       	jnc	$+118    	;abs 0xea2
     e2e:	31 38       	jl	$+100    	;abs 0xe92
     e30:	2c 36       	jge	$-934    	;abs 0xa8a
     e32:	29 3d       	jmp	$+596    	;abs 0x1086
     e34:	61 72       	subc.b	#4,	r1	;r2 As==10
     e36:	28 31       	jn	$+594    	;abs 0x1088
     e38:	38 2c       	jc	$+114    	;abs 0xeaa
     e3a:	37 29       	jnc	$+624    	;abs 0x10aa
     e3c:	3d 72       	subc	#8,	r13	;r2 As==11
     e3e:	28 31       	jn	$+594    	;abs 0x1090
     e40:	38 2c       	jc	$+114    	;abs 0xeb2
     e42:	37 29       	jnc	$+624    	;abs 0x10b2
     e44:	3b 30       	jn	$+120    	;abs 0xebc
     e46:	30 30       	jn	$+98     	;abs 0xea8
     e48:	30 30       	jn	$+98     	;abs 0xeaa
     e4a:	30 30       	jn	$+98     	;abs 0xeac
     e4c:	30 30       	jn	$+98     	;abs 0xeae
     e4e:	30 30       	jn	$+98     	;abs 0xeb0
     e50:	30 30       	jn	$+98     	;abs 0xeb2
     e52:	3b 30       	jn	$+120    	;abs 0xeca
     e54:	30 30       	jn	$+98     	;abs 0xeb6
     e56:	30 30       	jn	$+98     	;abs 0xeb8
     e58:	30 30       	jn	$+98     	;abs 0xeba
     e5a:	31 37       	jge	$-412    	;abs 0xcbe
     e5c:	37 37       	jge	$-400    	;abs 0xccc
     e5e:	37 37       	jge	$-400    	;abs 0xcce
     e60:	3b 3b       	jl	$-392    	;abs 0xcd8
     e62:	30 3b       	jl	$-414    	;abs 0xcc4
     e64:	33 3b       	jl	$-408    	;abs 0xccc
     e66:	28 31       	jn	$+594    	;abs 0x10b8
     e68:	38 2c       	jc	$+114    	;abs 0xeda
     e6a:	38 29       	jnc	$+626    	;abs 0x10dc
     e6c:	3d 42       	mov	#8,	r13	;r2 As==11
     e6e:	28 30       	jn	$+82     	;abs 0xec0
     e70:	2c 34       	jge	$+90     	;abs 0xeca
     e72:	29 2c       	jc	$+84     	;abs 0xec6
     e74:	36 34       	jge	$+110    	;abs 0xee2
     e76:	2c 36       	jge	$-934    	;abs 0xad0
     e78:	34 3b       	jl	$-406    	;abs 0xce2
     e7a:	74 61       	addc.b	@r1+,	r4	;
     e7c:	72 3a       	jl	$-794    	;abs 0xb62
     e7e:	28 30       	jn	$+82     	;abs 0xed0
     e80:	2c 34       	jge	$+90     	;abs 0xeda
     e82:	29 2c       	jc	$+84     	;abs 0xed6
     e84:	31 32       	jn	$-924    	;abs 0xae8
     e86:	38 2c       	jc	$+114    	;abs 0xef8
     e88:	31 36       	jge	$-924    	;abs 0xaec
     e8a:	3b 74       	subc	@r4+,	r11	;
     e8c:	61 63       	addc.b	#2,	r1	;r3 As==10
     e8e:	63 72       	.word	0x7263;	????
     e90:	30 3a       	jl	$-926    	;abs 0xaf2
     e92:	28 30       	jn	$+82     	;abs 0xee4
     e94:	2c 34       	jge	$+90     	;abs 0xeee
     e96:	29 2c       	jc	$+84     	;abs 0xeea
     e98:	31 34       	jge	$+100    	;abs 0xefc
     e9a:	34 2c       	jc	$+106    	;abs 0xf04
     e9c:	31 36       	jge	$-924    	;abs 0xb00
     e9e:	3b 74       	subc	@r4+,	r11	;
     ea0:	61 63       	addc.b	#2,	r1	;r3 As==10
     ea2:	63 72       	.word	0x7263;	????
     ea4:	31 3a       	jl	$-924    	;abs 0xb08
     ea6:	28 30       	jn	$+82     	;abs 0xef8
     ea8:	2c 34       	jge	$+90     	;abs 0xf02
     eaa:	29 2c       	jc	$+84     	;abs 0xefe
     eac:	31 36       	jge	$-924    	;abs 0xb10
     eae:	30 2c       	jc	$+98     	;abs 0xf10
     eb0:	31 36       	jge	$-924    	;abs 0xb14
     eb2:	3b 74       	subc	@r4+,	r11	;
     eb4:	61 63       	addc.b	#2,	r1	;r3 As==10
     eb6:	63 72       	.word	0x7263;	????
     eb8:	32 3a       	jl	$-922    	;abs 0xb1e
     eba:	28 30       	jn	$+82     	;abs 0xf0c
     ebc:	2c 34       	jge	$+90     	;abs 0xf16
     ebe:	29 2c       	jc	$+84     	;abs 0xf12
     ec0:	31 37       	jge	$-412    	;abs 0xd24
     ec2:	36 2c       	jc	$+110    	;abs 0xf30
     ec4:	31 36       	jge	$-924    	;abs 0xb28
     ec6:	3b 3b       	jl	$-392    	;abs 0xd3e
     ec8:	00 63       	adc	r0		;
     eca:	3a 2f       	jc	$-394    	;abs 0xd40
     ecc:	6d 73       	subc.b	#2,	r13	;r3 As==10
     ece:	70 67       	addc.b	@r7+,	r0	;
     ed0:	63 63       	.word	0x6363;	????
     ed2:	2f 6d       	addc	@r13,	r15	;
     ed4:	73 70       	.word	0x7073;	????
     ed6:	34 33       	jn	$-406    	;abs 0xd40
     ed8:	30 2f       	jc	$-414    	;abs 0xd3a
     eda:	69 6e       	addc.b	@r14,	r9	;
     edc:	63 6c       	.word	0x6c63;	????
     ede:	75 64       	addc.b	@r4+,	r5	;
     ee0:	65 2f       	jc	$-308    	;abs 0xdac
     ee2:	6d 73       	subc.b	#2,	r13	;r3 As==10
     ee4:	70 34       	jge	$+226    	;abs 0xfc6
     ee6:	33 30       	jn	$+104    	;abs 0xf4e
     ee8:	2f 74       	subc	@r4,	r15	;
     eea:	69 6d       	addc.b	@r13,	r9	;
     eec:	65 72       	subc.b	#4,	r5	;r2 As==10
     eee:	62 2e       	jc	$-826    	;abs 0xbb4
     ef0:	68 00       	.word	0x0068;	????
     ef2:	74 62       	addc.b	#8,	r4	;r2 As==11
     ef4:	63 74       	.word	0x7463;	????
     ef6:	6c 5f       	add.b	@r15,	r12	;
     ef8:	74 3a       	jl	$-790    	;abs 0xbe2
     efa:	74 28       	jnc	$+234    	;abs 0xfe4
     efc:	31 39       	jl	$+612    	;abs 0x1160
     efe:	2c 31       	jn	$+602    	;abs 0x1158
     f00:	29 3d       	jmp	$+596    	;abs 0x1154
     f02:	28 31       	jn	$+594    	;abs 0x1154
     f04:	39 2c       	jc	$+116    	;abs 0xf78
     f06:	32 29       	jnc	$+614    	;abs 0x116c
     f08:	3d 73       	subc	#-1,	r13	;r3 As==11
     f0a:	32 74       	subc	@r4+,	r2	;
     f0c:	62 69       	addc.b	@r9,	r2	;
     f0e:	66 67       	addc.b	@r7,	r6	;
     f10:	3a 28       	jnc	$+118    	;abs 0xf86
     f12:	30 2c       	jc	$+98     	;abs 0xf74
     f14:	34 29       	jnc	$+618    	;abs 0x117e
     f16:	2c 30       	jn	$+90     	;abs 0xf70
     f18:	2c 31       	jn	$+602    	;abs 0x1172
     f1a:	3b 74       	subc	@r4+,	r11	;
     f1c:	62 69       	addc.b	@r9,	r2	;
     f1e:	65 3a       	jl	$-820    	;abs 0xbea
     f20:	28 30       	jn	$+82     	;abs 0xf72
     f22:	2c 34       	jge	$+90     	;abs 0xf7c
     f24:	29 2c       	jc	$+84     	;abs 0xf78
     f26:	31 2c       	jc	$+100    	;abs 0xf8a
     f28:	31 3b       	jl	$-412    	;abs 0xd8c
     f2a:	74 62       	addc.b	#8,	r4	;r2 As==11
     f2c:	63 6c       	.word	0x6c63;	????
     f2e:	72 3a       	jl	$-794    	;abs 0xc14
     f30:	28 30       	jn	$+82     	;abs 0xf82
     f32:	2c 34       	jge	$+90     	;abs 0xf8c
     f34:	29 2c       	jc	$+84     	;abs 0xf88
     f36:	32 2c       	jc	$+102    	;abs 0xf9c
     f38:	31 3b       	jl	$-412    	;abs 0xd9c
     f3a:	64 75       	subc.b	@r5,	r4	;
     f3c:	6d 6d       	addc.b	@r13,	r13	;
     f3e:	79 31       	jn	$+756    	;abs 0x1232
     f40:	3a 28       	jnc	$+118    	;abs 0xfb6
     f42:	30 2c       	jc	$+98     	;abs 0xfa4
     f44:	34 29       	jnc	$+618    	;abs 0x11ae
     f46:	2c 33       	jn	$-422    	;abs 0xda0
     f48:	2c 31       	jn	$+602    	;abs 0x11a2
     f4a:	3b 74       	subc	@r4+,	r11	;
     f4c:	62 6d       	addc.b	@r13,	r2	;
     f4e:	63 3a       	jl	$-824    	;abs 0xc16
     f50:	28 30       	jn	$+82     	;abs 0xfa2
     f52:	2c 34       	jge	$+90     	;abs 0xfac
     f54:	29 2c       	jc	$+84     	;abs 0xfa8
     f56:	34 2c       	jc	$+106    	;abs 0xfc0
     f58:	32 3b       	jl	$-410    	;abs 0xdbe
     f5a:	74 62       	addc.b	#8,	r4	;r2 As==11
     f5c:	69 64       	addc.b	@r4,	r9	;
     f5e:	3a 28       	jnc	$+118    	;abs 0xfd4
     f60:	30 2c       	jc	$+98     	;abs 0xfc2
     f62:	34 29       	jnc	$+618    	;abs 0x11cc
     f64:	2c 36       	jge	$-934    	;abs 0xbbe
     f66:	2c 32       	jn	$-934    	;abs 0xbc0
     f68:	3b 74       	subc	@r4+,	r11	;
     f6a:	62 73       	subc.b	#2,	r2	;r3 As==10
     f6c:	73 65       	.word	0x6573;	????
     f6e:	6c 3a       	jl	$-806    	;abs 0xc48
     f70:	28 30       	jn	$+82     	;abs 0xfc2
     f72:	2c 34       	jge	$+90     	;abs 0xfcc
     f74:	29 2c       	jc	$+84     	;abs 0xfc8
     f76:	38 2c       	jc	$+114    	;abs 0xfe8
     f78:	32 3b       	jl	$-410    	;abs 0xdde
     f7a:	64 75       	subc.b	@r5,	r4	;
     f7c:	6d 6d       	addc.b	@r13,	r13	;
     f7e:	79 32       	jn	$-780    	;abs 0xc72
     f80:	3a 28       	jnc	$+118    	;abs 0xff6
     f82:	30 2c       	jc	$+98     	;abs 0xfe4
     f84:	34 29       	jnc	$+618    	;abs 0x11ee
     f86:	2c 31       	jn	$+602    	;abs 0x11e0
     f88:	30 2c       	jc	$+98     	;abs 0xfea
     f8a:	31 3b       	jl	$-412    	;abs 0xdee
     f8c:	74 62       	addc.b	#8,	r4	;r2 As==11
     f8e:	63 6e       	.word	0x6e63;	????
     f90:	74 6c       	addc.b	@r12+,	r4	;
     f92:	3a 28       	jnc	$+118    	;abs 0x1008
     f94:	30 2c       	jc	$+98     	;abs 0xff6
     f96:	34 29       	jnc	$+618    	;abs 0x1200
     f98:	2c 31       	jn	$+602    	;abs 0x11f2
     f9a:	31 2c       	jc	$+100    	;abs 0xffe
     f9c:	32 3b       	jl	$-410    	;abs 0xe02
     f9e:	74 62       	addc.b	#8,	r4	;r2 As==11
     fa0:	63 6c       	.word	0x6c63;	????
     fa2:	67 72       	subc.b	#4,	r7	;r2 As==10
     fa4:	70 3a       	jl	$-798    	;abs 0xc86
     fa6:	28 30       	jn	$+82     	;abs 0xff8
     fa8:	2c 34       	jge	$+90     	;abs 0x1002
     faa:	29 2c       	jc	$+84     	;abs 0xffe
     fac:	31 33       	jn	$-412    	;abs 0xe10
     fae:	2c 32       	jn	$-934    	;abs 0xc08
     fb0:	3b 3b       	jl	$-392    	;abs 0xe28
     fb2:	00 74       	subc	r4,	r0	;
     fb4:	62 63       	addc.b	#2,	r2	;r3 As==10
     fb6:	63 74       	.word	0x7463;	????
     fb8:	6c 5f       	add.b	@r15,	r12	;
     fba:	74 3a       	jl	$-790    	;abs 0xca4
     fbc:	74 28       	jnc	$+234    	;abs 0x10a6
     fbe:	31 39       	jl	$+612    	;abs 0x1222
     fc0:	2c 33       	jn	$-422    	;abs 0xe1a
     fc2:	29 3d       	jmp	$+596    	;abs 0x1216
     fc4:	28 31       	jn	$+594    	;abs 0x1216
     fc6:	39 2c       	jc	$+116    	;abs 0x103a
     fc8:	34 29       	jnc	$+618    	;abs 0x1232
     fca:	3d 73       	subc	#-1,	r13	;r3 As==11
     fcc:	32 63       	addc	#-1,	r2	;r3 As==11
     fce:	63 69       	.word	0x6963;	????
     fd0:	66 67       	addc.b	@r7,	r6	;
     fd2:	3a 28       	jnc	$+118    	;abs 0x1048
     fd4:	30 2c       	jc	$+98     	;abs 0x1036
     fd6:	34 29       	jnc	$+618    	;abs 0x1240
     fd8:	2c 30       	jn	$+90     	;abs 0x1032
     fda:	2c 31       	jn	$+602    	;abs 0x1234
     fdc:	3b 63       	addc	#-1,	r11	;r3 As==11
     fde:	6f 76       	subc.b	@r6,	r15	;
     fe0:	3a 28       	jnc	$+118    	;abs 0x1056
     fe2:	30 2c       	jc	$+98     	;abs 0x1044
     fe4:	34 29       	jnc	$+618    	;abs 0x124e
     fe6:	2c 31       	jn	$+602    	;abs 0x1240
     fe8:	2c 31       	jn	$+602    	;abs 0x1242
     fea:	3b 6f       	addc	@r15+,	r11	;
     fec:	75 74       	subc.b	@r4+,	r5	;
     fee:	3a 28       	jnc	$+118    	;abs 0x1064
     ff0:	30 2c       	jc	$+98     	;abs 0x1052
     ff2:	34 29       	jnc	$+618    	;abs 0x125c
     ff4:	2c 32       	jn	$-934    	;abs 0xc4e
     ff6:	2c 31       	jn	$+602    	;abs 0x1250
     ff8:	3b 63       	addc	#-1,	r11	;r3 As==11
     ffa:	63 69       	.word	0x6963;	????
     ffc:	3a 28       	jnc	$+118    	;abs 0x1072
     ffe:	30 2c       	jc	$+98     	;abs 0x1060
    1000:	34 29       	jnc	$+618    	;abs 0x126a
    1002:	2c 33       	jn	$-422    	;abs 0xe5c
    1004:	2c 31       	jn	$+602    	;abs 0x125e
    1006:	3b 63       	addc	#-1,	r11	;r3 As==11
    1008:	63 69       	.word	0x6963;	????
    100a:	65 3a       	jl	$-820    	;abs 0xcd6
    100c:	28 30       	jn	$+82     	;abs 0x105e
    100e:	2c 34       	jge	$+90     	;abs 0x1068
    1010:	29 2c       	jc	$+84     	;abs 0x1064
    1012:	34 2c       	jc	$+106    	;abs 0x107c
    1014:	31 3b       	jl	$-412    	;abs 0xe78
    1016:	6f 75       	subc.b	@r5,	r15	;
    1018:	74 6d       	addc.b	@r13+,	r4	;
    101a:	6f 64       	addc.b	@r4,	r15	;
    101c:	3a 28       	jnc	$+118    	;abs 0x1092
    101e:	30 2c       	jc	$+98     	;abs 0x1080
    1020:	34 29       	jnc	$+618    	;abs 0x128a
    1022:	2c 35       	jge	$+602    	;abs 0x127c
    1024:	2c 33       	jn	$-422    	;abs 0xe7e
    1026:	3b 63       	addc	#-1,	r11	;r3 As==11
    1028:	61 70       	subc.b	@r0,	r1	;
    102a:	3a 28       	jnc	$+118    	;abs 0x10a0
    102c:	30 2c       	jc	$+98     	;abs 0x108e
    102e:	34 29       	jnc	$+618    	;abs 0x1298
    1030:	2c 38       	jl	$+90     	;abs 0x108a
    1032:	2c 31       	jn	$+602    	;abs 0x128c
    1034:	3b 63       	addc	#-1,	r11	;r3 As==11
    1036:	6c 6c       	addc.b	@r12,	r12	;
    1038:	64 3a       	jl	$-822    	;abs 0xd02
    103a:	28 30       	jn	$+82     	;abs 0x108c
    103c:	2c 34       	jge	$+90     	;abs 0x1096
    103e:	29 2c       	jc	$+84     	;abs 0x1092
    1040:	39 2c       	jc	$+116    	;abs 0x10b4
    1042:	32 3b       	jl	$-410    	;abs 0xea8
    1044:	73 63       	.word	0x6373;	????
    1046:	73 3a       	jl	$-792    	;abs 0xd2e
    1048:	28 30       	jn	$+82     	;abs 0x109a
    104a:	2c 34       	jge	$+90     	;abs 0x10a4
    104c:	29 2c       	jc	$+84     	;abs 0x10a0
    104e:	31 31       	jn	$+612    	;abs 0x12b2
    1050:	2c 31       	jn	$+602    	;abs 0x12aa
    1052:	3b 63       	addc	#-1,	r11	;r3 As==11
    1054:	63 69       	.word	0x6963;	????
    1056:	73 3a       	jl	$-792    	;abs 0xd3e
    1058:	28 30       	jn	$+82     	;abs 0x10aa
    105a:	2c 34       	jge	$+90     	;abs 0x10b4
    105c:	29 2c       	jc	$+84     	;abs 0x10b0
    105e:	31 32       	jn	$-924    	;abs 0xcc2
    1060:	2c 32       	jn	$-934    	;abs 0xcba
    1062:	3b 63       	addc	#-1,	r11	;r3 As==11
    1064:	6d 3a       	jl	$-804    	;abs 0xd40
    1066:	28 30       	jn	$+82     	;abs 0x10b8
    1068:	2c 34       	jge	$+90     	;abs 0x10c2
    106a:	29 2c       	jc	$+84     	;abs 0x10be
    106c:	31 34       	jge	$+100    	;abs 0x10d0
    106e:	2c 32       	jn	$-934    	;abs 0xcc8
    1070:	3b 3b       	jl	$-392    	;abs 0xee8
    1072:	00 74       	subc	r4,	r0	;
    1074:	69 6d       	addc.b	@r13,	r9	;
    1076:	65 72       	subc.b	#4,	r5	;r2 As==10
    1078:	62 5f       	add.b	@r15,	r2	;
    107a:	74 3a       	jl	$-790    	;abs 0xd64
    107c:	54 28       	jnc	$+170    	;abs 0x1126
    107e:	31 39       	jl	$+612    	;abs 0x12e2
    1080:	2c 35       	jge	$+602    	;abs 0x12da
    1082:	29 3d       	jmp	$+596    	;abs 0x12d6
    1084:	73 33       	jn	$-280    	;abs 0xf6c
    1086:	32 63       	addc	#-1,	r2	;r3 As==11
    1088:	74 6c       	addc.b	@r12+,	r4	;
    108a:	3a 28       	jnc	$+118    	;abs 0x1100
    108c:	31 39       	jl	$+612    	;abs 0x12f0
    108e:	2c 31       	jn	$+602    	;abs 0x12e8
    1090:	29 2c       	jc	$+84     	;abs 0x10e4
    1092:	30 2c       	jc	$+98     	;abs 0x10f4
    1094:	31 36       	jge	$-924    	;abs 0xcf8
    1096:	3b 63       	addc	#-1,	r11	;r3 As==11
    1098:	63 74       	.word	0x7463;	????
    109a:	6c 30       	jn	$+218    	;abs 0x1174
    109c:	3a 28       	jnc	$+118    	;abs 0x1112
    109e:	31 39       	jl	$+612    	;abs 0x1302
    10a0:	2c 33       	jn	$-422    	;abs 0xefa
    10a2:	29 2c       	jc	$+84     	;abs 0x10f6
    10a4:	31 36       	jge	$-924    	;abs 0xd08
    10a6:	2c 31       	jn	$+602    	;abs 0x1300
    10a8:	36 3b       	jl	$-402    	;abs 0xf16
    10aa:	63 63       	.word	0x6363;	????
    10ac:	74 6c       	addc.b	@r12+,	r4	;
    10ae:	31 3a       	jl	$-924    	;abs 0xd12
    10b0:	28 31       	jn	$+594    	;abs 0x1302
    10b2:	39 2c       	jc	$+116    	;abs 0x1126
    10b4:	33 29       	jnc	$+616    	;abs 0x131c
    10b6:	2c 33       	jn	$-422    	;abs 0xf10
    10b8:	32 2c       	jc	$+102    	;abs 0x111e
    10ba:	31 36       	jge	$-924    	;abs 0xd1e
    10bc:	3b 63       	addc	#-1,	r11	;r3 As==11
    10be:	63 74       	.word	0x7463;	????
    10c0:	6c 32       	jn	$-806    	;abs 0xd9a
    10c2:	3a 28       	jnc	$+118    	;abs 0x1138
    10c4:	31 39       	jl	$+612    	;abs 0x1328
    10c6:	2c 33       	jn	$-422    	;abs 0xf20
    10c8:	29 2c       	jc	$+84     	;abs 0x111c
    10ca:	34 38       	jl	$+106    	;abs 0x1134
    10cc:	2c 31       	jn	$+602    	;abs 0x1326
    10ce:	36 3b       	jl	$-402    	;abs 0xf3c
    10d0:	63 63       	.word	0x6363;	????
    10d2:	74 6c       	addc.b	@r12+,	r4	;
    10d4:	33 3a       	jl	$-920    	;abs 0xd3c
    10d6:	28 31       	jn	$+594    	;abs 0x1328
    10d8:	39 2c       	jc	$+116    	;abs 0x114c
    10da:	33 29       	jnc	$+616    	;abs 0x1342
    10dc:	2c 36       	jge	$-934    	;abs 0xd36
    10de:	34 2c       	jc	$+106    	;abs 0x1148
    10e0:	31 36       	jge	$-924    	;abs 0xd44
    10e2:	3b 63       	addc	#-1,	r11	;r3 As==11
    10e4:	63 74       	.word	0x7463;	????
    10e6:	6c 34       	jge	$+218    	;abs 0x11c0
    10e8:	3a 28       	jnc	$+118    	;abs 0x115e
    10ea:	31 39       	jl	$+612    	;abs 0x134e
    10ec:	2c 33       	jn	$-422    	;abs 0xf46
    10ee:	29 2c       	jc	$+84     	;abs 0x1142
    10f0:	38 30       	jn	$+114    	;abs 0x1162
    10f2:	2c 31       	jn	$+602    	;abs 0x134c
    10f4:	36 3b       	jl	$-402    	;abs 0xf62
    10f6:	63 63       	.word	0x6363;	????
    10f8:	74 6c       	addc.b	@r12+,	r4	;
    10fa:	35 3a       	jl	$-916    	;abs 0xd66
    10fc:	28 31       	jn	$+594    	;abs 0x134e
    10fe:	39 2c       	jc	$+116    	;abs 0x1172
    1100:	33 29       	jnc	$+616    	;abs 0x1368
    1102:	2c 39       	jl	$+602    	;abs 0x135c
    1104:	36 2c       	jc	$+110    	;abs 0x1172
    1106:	31 36       	jge	$-924    	;abs 0xd6a
    1108:	3b 63       	addc	#-1,	r11	;r3 As==11
    110a:	63 74       	.word	0x7463;	????
    110c:	6c 36       	jge	$-806    	;abs 0xde6
    110e:	3a 28       	jnc	$+118    	;abs 0x1184
    1110:	31 39       	jl	$+612    	;abs 0x1374
    1112:	2c 33       	jn	$-422    	;abs 0xf6c
    1114:	29 2c       	jc	$+84     	;abs 0x1168
    1116:	31 31       	jn	$+612    	;abs 0x137a
    1118:	32 2c       	jc	$+102    	;abs 0x117e
    111a:	31 36       	jge	$-924    	;abs 0xd7e
    111c:	3b 74       	subc	@r4+,	r11	;
    111e:	62 72       	subc.b	#4,	r2	;r2 As==10
    1120:	3a 28       	jnc	$+118    	;abs 0x1196
    1122:	30 2c       	jc	$+98     	;abs 0x1184
    1124:	34 29       	jnc	$+618    	;abs 0x138e
    1126:	2c 31       	jn	$+602    	;abs 0x1380
    1128:	32 38       	jl	$+102    	;abs 0x118e
    112a:	2c 31       	jn	$+602    	;abs 0x1384
    112c:	36 3b       	jl	$-402    	;abs 0xf9a
    112e:	74 62       	addc.b	#8,	r4	;r2 As==11
    1130:	63 63       	.word	0x6363;	????
    1132:	72 30       	jn	$+230    	;abs 0x1218
    1134:	3a 28       	jnc	$+118    	;abs 0x11aa
    1136:	30 2c       	jc	$+98     	;abs 0x1198
    1138:	34 29       	jnc	$+618    	;abs 0x13a2
    113a:	2c 31       	jn	$+602    	;abs 0x1394
    113c:	34 34       	jge	$+106    	;abs 0x11a6
    113e:	2c 31       	jn	$+602    	;abs 0x1398
    1140:	36 3b       	jl	$-402    	;abs 0xfae
    1142:	74 62       	addc.b	#8,	r4	;r2 As==11
    1144:	63 63       	.word	0x6363;	????
    1146:	72 31       	jn	$+742    	;abs 0x142c
    1148:	3a 28       	jnc	$+118    	;abs 0x11be
    114a:	30 2c       	jc	$+98     	;abs 0x11ac
    114c:	34 29       	jnc	$+618    	;abs 0x13b6
    114e:	2c 31       	jn	$+602    	;abs 0x13a8
    1150:	36 30       	jn	$+110    	;abs 0x11be
    1152:	2c 31       	jn	$+602    	;abs 0x13ac
    1154:	36 3b       	jl	$-402    	;abs 0xfc2
    1156:	74 62       	addc.b	#8,	r4	;r2 As==11
    1158:	63 63       	.word	0x6363;	????
    115a:	72 32       	jn	$-794    	;abs 0xe40
    115c:	3a 28       	jnc	$+118    	;abs 0x11d2
    115e:	30 2c       	jc	$+98     	;abs 0x11c0
    1160:	34 29       	jnc	$+618    	;abs 0x13ca
    1162:	2c 31       	jn	$+602    	;abs 0x13bc
    1164:	37 36       	jge	$-912    	;abs 0xdd4
    1166:	2c 31       	jn	$+602    	;abs 0x13c0
    1168:	36 3b       	jl	$-402    	;abs 0xfd6
    116a:	74 62       	addc.b	#8,	r4	;r2 As==11
    116c:	63 63       	.word	0x6363;	????
    116e:	72 33       	jn	$-282    	;abs 0x1054
    1170:	3a 28       	jnc	$+118    	;abs 0x11e6
    1172:	30 2c       	jc	$+98     	;abs 0x11d4
    1174:	34 29       	jnc	$+618    	;abs 0x13de
    1176:	2c 31       	jn	$+602    	;abs 0x13d0
    1178:	39 32       	jn	$-908    	;abs 0xdec
    117a:	2c 31       	jn	$+602    	;abs 0x13d4
    117c:	36 3b       	jl	$-402    	;abs 0xfea
    117e:	74 62       	addc.b	#8,	r4	;r2 As==11
    1180:	63 63       	.word	0x6363;	????
    1182:	72 34       	jge	$+230    	;abs 0x1268
    1184:	3a 28       	jnc	$+118    	;abs 0x11fa
    1186:	30 2c       	jc	$+98     	;abs 0x11e8
    1188:	34 29       	jnc	$+618    	;abs 0x13f2
    118a:	2c 32       	jn	$-934    	;abs 0xde4
    118c:	30 38       	jl	$+98     	;abs 0x11ee
    118e:	2c 31       	jn	$+602    	;abs 0x13e8
    1190:	36 3b       	jl	$-402    	;abs 0xffe
    1192:	74 62       	addc.b	#8,	r4	;r2 As==11
    1194:	63 63       	.word	0x6363;	????
    1196:	72 35       	jge	$+742    	;abs 0x147c
    1198:	3a 28       	jnc	$+118    	;abs 0x120e
    119a:	30 2c       	jc	$+98     	;abs 0x11fc
    119c:	34 29       	jnc	$+618    	;abs 0x1406
    119e:	2c 32       	jn	$-934    	;abs 0xdf8
    11a0:	32 34       	jge	$+102    	;abs 0x1206
    11a2:	2c 31       	jn	$+602    	;abs 0x13fc
    11a4:	36 3b       	jl	$-402    	;abs 0x1012
    11a6:	74 62       	addc.b	#8,	r4	;r2 As==11
    11a8:	63 63       	.word	0x6363;	????
    11aa:	72 36       	jge	$-794    	;abs 0xe90
    11ac:	3a 28       	jnc	$+118    	;abs 0x1222
    11ae:	30 2c       	jc	$+98     	;abs 0x1210
    11b0:	34 29       	jnc	$+618    	;abs 0x141a
    11b2:	2c 32       	jn	$-934    	;abs 0xe0c
    11b4:	34 30       	jn	$+106    	;abs 0x121e
    11b6:	2c 31       	jn	$+602    	;abs 0x1410
    11b8:	36 3b       	jl	$-402    	;abs 0x1026
    11ba:	3b 00       	.word	0x003b;	????
    11bc:	63 3a       	jl	$-824    	;abs 0xe84
    11be:	2f 6d       	addc	@r13,	r15	;
    11c0:	73 70       	.word	0x7073;	????
    11c2:	67 63       	addc.b	#2,	r7	;r3 As==10
    11c4:	63 2f       	jc	$-312    	;abs 0x108c
    11c6:	6d 73       	subc.b	#2,	r13	;r3 As==10
    11c8:	70 34       	jge	$+226    	;abs 0x12aa
    11ca:	33 30       	jn	$+104    	;abs 0x1232
    11cc:	2f 69       	addc	@r9,	r15	;
    11ce:	6e 63       	addc.b	#2,	r14	;r3 As==10
    11d0:	6c 75       	subc.b	@r5,	r12	;
    11d2:	64 65       	addc.b	@r5,	r4	;
    11d4:	2f 6d       	addc	@r13,	r15	;
    11d6:	73 70       	.word	0x7073;	????
    11d8:	34 33       	jn	$-406    	;abs 0x1042
    11da:	30 2f       	jc	$-414    	;abs 0x103c
    11dc:	62 61       	addc.b	@r1,	r2	;
    11de:	73 69       	.word	0x6973;	????
    11e0:	63 5f       	.word	0x5f63;	????
    11e2:	63 6c       	.word	0x6c63;	????
    11e4:	6f 63       	addc.b	#2,	r15	;r3 As==10
    11e6:	6b 2e       	jc	$-808    	;abs 0xebe
    11e8:	68 00       	.word	0x0068;	????
    11ea:	63 3a       	jl	$-824    	;abs 0xeb2
    11ec:	2f 6d       	addc	@r13,	r15	;
    11ee:	73 70       	.word	0x7073;	????
    11f0:	67 63       	addc.b	#2,	r7	;r3 As==10
    11f2:	63 2f       	jc	$-312    	;abs 0x10ba
    11f4:	6d 73       	subc.b	#2,	r13	;r3 As==10
    11f6:	70 34       	jge	$+226    	;abs 0x12d8
    11f8:	33 30       	jn	$+104    	;abs 0x1260
    11fa:	2f 69       	addc	@r9,	r15	;
    11fc:	6e 63       	addc.b	#2,	r14	;r3 As==10
    11fe:	6c 75       	subc.b	@r5,	r12	;
    1200:	64 65       	addc.b	@r5,	r4	;
    1202:	2f 6d       	addc	@r13,	r15	;
    1204:	73 70       	.word	0x7073;	????
    1206:	34 33       	jn	$-406    	;abs 0x1070
    1208:	30 2f       	jc	$-414    	;abs 0x106a
    120a:	66 6c       	addc.b	@r12,	r6	;
    120c:	61 73       	subc.b	#2,	r1	;r3 As==10
    120e:	68 2e       	jc	$-814    	;abs 0xee0
    1210:	68 00       	.word	0x0068;	????
    1212:	63 3a       	jl	$-824    	;abs 0xeda
    1214:	2f 6d       	addc	@r13,	r15	;
    1216:	73 70       	.word	0x7073;	????
    1218:	67 63       	addc.b	#2,	r7	;r3 As==10
    121a:	63 2f       	jc	$-312    	;abs 0x10e2
    121c:	6d 73       	subc.b	#2,	r13	;r3 As==10
    121e:	70 34       	jge	$+226    	;abs 0x1300
    1220:	33 30       	jn	$+104    	;abs 0x1288
    1222:	2f 69       	addc	@r9,	r15	;
    1224:	6e 63       	addc.b	#2,	r14	;r3 As==10
    1226:	6c 75       	subc.b	@r5,	r12	;
    1228:	64 65       	addc.b	@r5,	r4	;
    122a:	2f 6d       	addc	@r13,	r15	;
    122c:	73 70       	.word	0x7073;	????
    122e:	34 33       	jn	$-406    	;abs 0x1098
    1230:	30 2f       	jc	$-414    	;abs 0x1092
    1232:	63 6f       	.word	0x6f63;	????
    1234:	6d 70       	subc.b	@r0,	r13	;
    1236:	61 2e       	jc	$-828    	;abs 0xefa
    1238:	68 00       	.word	0x0068;	????
    123a:	63 3a       	jl	$-824    	;abs 0xf02
    123c:	2f 6d       	addc	@r13,	r15	;
    123e:	73 70       	.word	0x7073;	????
    1240:	67 63       	addc.b	#2,	r7	;r3 As==10
    1242:	63 2f       	jc	$-312    	;abs 0x110a
    1244:	6d 73       	subc.b	#2,	r13	;r3 As==10
    1246:	70 34       	jge	$+226    	;abs 0x1328
    1248:	33 30       	jn	$+104    	;abs 0x12b0
    124a:	2f 69       	addc	@r9,	r15	;
    124c:	6e 63       	addc.b	#2,	r14	;r3 As==10
    124e:	6c 75       	subc.b	@r5,	r12	;
    1250:	64 65       	addc.b	@r5,	r4	;
    1252:	2f 6d       	addc	@r13,	r15	;
    1254:	73 70       	.word	0x7073;	????
    1256:	34 33       	jn	$-406    	;abs 0x10c0
    1258:	30 2f       	jc	$-414    	;abs 0x10ba
    125a:	61 64       	addc.b	@r4,	r1	;
    125c:	63 31       	jn	$+712    	;abs 0x1524
    125e:	32 2e       	jc	$-922    	;abs 0xec4
    1260:	68 00       	.word	0x0068;	????
    1262:	61 64       	addc.b	@r4,	r1	;
    1264:	63 31       	jn	$+712    	;abs 0x152c
    1266:	32 63       	addc	#-1,	r2	;r3 As==11
    1268:	74 6c       	addc.b	@r12+,	r4	;
    126a:	30 5f       	add	@r15+,	r0	;
    126c:	74 3a       	jl	$-790    	;abs 0xf56
    126e:	74 28       	jnc	$+234    	;abs 0x1358
    1270:	32 33       	jn	$-410    	;abs 0x10d6
    1272:	2c 31       	jn	$+602    	;abs 0x14cc
    1274:	29 3d       	jmp	$+596    	;abs 0x14c8
    1276:	28 32       	jn	$-942    	;abs 0xec8
    1278:	33 2c       	jc	$+104    	;abs 0x12e0
    127a:	32 29       	jnc	$+614    	;abs 0x14e0
    127c:	3d 73       	subc	#-1,	r13	;r3 As==11
    127e:	32 61       	addc	@r1+,	r2	;
    1280:	64 63       	addc.b	#2,	r4	;r3 As==10
    1282:	31 32       	jn	$-924    	;abs 0xee6
    1284:	73 63       	.word	0x6373;	????
    1286:	3a 28       	jnc	$+118    	;abs 0x12fc
    1288:	30 2c       	jc	$+98     	;abs 0x12ea
    128a:	34 29       	jnc	$+618    	;abs 0x14f4
    128c:	2c 30       	jn	$+90     	;abs 0x12e6
    128e:	2c 31       	jn	$+602    	;abs 0x14e8
    1290:	3b 65       	addc	@r5+,	r11	;
    1292:	6e 63       	addc.b	#2,	r14	;r3 As==10
    1294:	3a 28       	jnc	$+118    	;abs 0x130a
    1296:	30 2c       	jc	$+98     	;abs 0x12f8
    1298:	34 29       	jnc	$+618    	;abs 0x1502
    129a:	2c 31       	jn	$+602    	;abs 0x14f4
    129c:	2c 31       	jn	$+602    	;abs 0x14f6
    129e:	3b 61       	addc	@r1+,	r11	;
    12a0:	64 63       	addc.b	#2,	r4	;r3 As==10
    12a2:	31 32       	jn	$-924    	;abs 0xf06
    12a4:	74 6f       	addc.b	@r15+,	r4	;
    12a6:	76 69       	addc.b	@r9+,	r6	;
    12a8:	65 3a       	jl	$-820    	;abs 0xf74
    12aa:	28 30       	jn	$+82     	;abs 0x12fc
    12ac:	2c 34       	jge	$+90     	;abs 0x1306
    12ae:	29 2c       	jc	$+84     	;abs 0x1302
    12b0:	32 2c       	jc	$+102    	;abs 0x1316
    12b2:	31 3b       	jl	$-412    	;abs 0x1116
    12b4:	61 64       	addc.b	@r4,	r1	;
    12b6:	63 31       	jn	$+712    	;abs 0x157e
    12b8:	32 6f       	addc	@r15+,	r2	;
    12ba:	76 69       	addc.b	@r9+,	r6	;
    12bc:	65 3a       	jl	$-820    	;abs 0xf88
    12be:	28 30       	jn	$+82     	;abs 0x1310
    12c0:	2c 34       	jge	$+90     	;abs 0x131a
    12c2:	29 2c       	jc	$+84     	;abs 0x1316
    12c4:	33 2c       	jc	$+104    	;abs 0x132c
    12c6:	31 3b       	jl	$-412    	;abs 0x112a
    12c8:	61 64       	addc.b	@r4,	r1	;
    12ca:	63 31       	jn	$+712    	;abs 0x1592
    12cc:	32 6f       	addc	@r15+,	r2	;
    12ce:	6e 3a       	jl	$-802    	;abs 0xfac
    12d0:	28 30       	jn	$+82     	;abs 0x1322
    12d2:	2c 34       	jge	$+90     	;abs 0x132c
    12d4:	29 2c       	jc	$+84     	;abs 0x1328
    12d6:	34 2c       	jc	$+106    	;abs 0x1340
    12d8:	31 3b       	jl	$-412    	;abs 0x113c
    12da:	72 65       	addc.b	@r5+,	r2	;
    12dc:	66 6f       	addc.b	@r15,	r6	;
    12de:	6e 3a       	jl	$-802    	;abs 0xfbc
    12e0:	28 30       	jn	$+82     	;abs 0x1332
    12e2:	2c 34       	jge	$+90     	;abs 0x133c
    12e4:	29 2c       	jc	$+84     	;abs 0x1338
    12e6:	35 2c       	jc	$+108    	;abs 0x1352
    12e8:	31 3b       	jl	$-412    	;abs 0x114c
    12ea:	72 32       	jn	$-794    	;abs 0xfd0
    12ec:	5f 35       	jge	$+704    	;abs 0x15ac
    12ee:	76 3a       	jl	$-786    	;abs 0xfdc
    12f0:	28 30       	jn	$+82     	;abs 0x1342
    12f2:	2c 34       	jge	$+90     	;abs 0x134c
    12f4:	29 2c       	jc	$+84     	;abs 0x1348
    12f6:	36 2c       	jc	$+110    	;abs 0x1364
    12f8:	31 3b       	jl	$-412    	;abs 0x115c
    12fa:	6d 73       	subc.b	#2,	r13	;r3 As==10
    12fc:	63 3a       	jl	$-824    	;abs 0xfc4
    12fe:	28 30       	jn	$+82     	;abs 0x1350
    1300:	2c 34       	jge	$+90     	;abs 0x135a
    1302:	29 2c       	jc	$+84     	;abs 0x1356
    1304:	37 2c       	jc	$+112    	;abs 0x1374
    1306:	31 3b       	jl	$-412    	;abs 0x116a
    1308:	73 68       	.word	0x6873;	????
    130a:	74 30       	jn	$+234    	;abs 0x13f4
    130c:	3a 28       	jnc	$+118    	;abs 0x1382
    130e:	30 2c       	jc	$+98     	;abs 0x1370
    1310:	34 29       	jnc	$+618    	;abs 0x157a
    1312:	2c 38       	jl	$+90     	;abs 0x136c
    1314:	2c 34       	jge	$+90     	;abs 0x136e
    1316:	3b 73       	subc	#-1,	r11	;r3 As==11
    1318:	68 74       	subc.b	@r4,	r8	;
    131a:	31 3a       	jl	$-924    	;abs 0xf7e
    131c:	28 30       	jn	$+82     	;abs 0x136e
    131e:	2c 34       	jge	$+90     	;abs 0x1378
    1320:	29 2c       	jc	$+84     	;abs 0x1374
    1322:	31 32       	jn	$-924    	;abs 0xf86
    1324:	2c 34       	jge	$+90     	;abs 0x137e
    1326:	3b 3b       	jl	$-392    	;abs 0x119e
    1328:	00 61       	addc	r1,	r0	;
    132a:	64 63       	addc.b	#2,	r4	;r3 As==10
    132c:	31 32       	jn	$-924    	;abs 0xf90
    132e:	63 74       	.word	0x7463;	????
    1330:	6c 31       	jn	$+730    	;abs 0x160a
    1332:	5f 74 3a 74 	subc.b	29754(r4),r15	;
    1336:	28 32       	jn	$-942    	;abs 0xf88
    1338:	33 2c       	jc	$+104    	;abs 0x13a0
    133a:	33 29       	jnc	$+616    	;abs 0x15a2
    133c:	3d 28       	jnc	$+124    	;abs 0x13b8
    133e:	32 33       	jn	$-410    	;abs 0x11a4
    1340:	2c 34       	jge	$+90     	;abs 0x139a
    1342:	29 3d       	jmp	$+596    	;abs 0x1596
    1344:	73 32       	jn	$-792    	;abs 0x102c
    1346:	61 64       	addc.b	@r4,	r1	;
    1348:	63 31       	jn	$+712    	;abs 0x1610
    134a:	32 62       	addc	#8,	r2	;r2 As==11
    134c:	75 73       	subc.b	#-1,	r5	;r3 As==11
    134e:	79 3a       	jl	$-780    	;abs 0x1042
    1350:	28 30       	jn	$+82     	;abs 0x13a2
    1352:	2c 34       	jge	$+90     	;abs 0x13ac
    1354:	29 2c       	jc	$+84     	;abs 0x13a8
    1356:	30 2c       	jc	$+98     	;abs 0x13b8
    1358:	31 3b       	jl	$-412    	;abs 0x11bc
    135a:	63 6f       	.word	0x6f63;	????
    135c:	6e 73       	subc.b	#2,	r14	;r3 As==10
    135e:	65 71       	subc.b	@r1,	r5	;
    1360:	3a 28       	jnc	$+118    	;abs 0x13d6
    1362:	30 2c       	jc	$+98     	;abs 0x13c4
    1364:	34 29       	jnc	$+618    	;abs 0x15ce
    1366:	2c 31       	jn	$+602    	;abs 0x15c0
    1368:	2c 32       	jn	$-934    	;abs 0xfc2
    136a:	3b 61       	addc	@r1+,	r11	;
    136c:	64 63       	addc.b	#2,	r4	;r3 As==10
    136e:	31 32       	jn	$-924    	;abs 0xfd2
    1370:	73 73       	.word	0x7373;	????
    1372:	65 6c       	addc.b	@r12,	r5	;
    1374:	3a 28       	jnc	$+118    	;abs 0x13ea
    1376:	30 2c       	jc	$+98     	;abs 0x13d8
    1378:	34 29       	jnc	$+618    	;abs 0x15e2
    137a:	2c 33       	jn	$-422    	;abs 0x11d4
    137c:	2c 32       	jn	$-934    	;abs 0xfd6
    137e:	3b 61       	addc	@r1+,	r11	;
    1380:	64 63       	addc.b	#2,	r4	;r3 As==10
    1382:	31 32       	jn	$-924    	;abs 0xfe6
    1384:	64 69       	addc.b	@r9,	r4	;
    1386:	76 3a       	jl	$-786    	;abs 0x1074
    1388:	28 30       	jn	$+82     	;abs 0x13da
    138a:	2c 34       	jge	$+90     	;abs 0x13e4
    138c:	29 2c       	jc	$+84     	;abs 0x13e0
    138e:	35 2c       	jc	$+108    	;abs 0x13fa
    1390:	33 3b       	jl	$-408    	;abs 0x11f8
    1392:	69 73       	subc.b	#2,	r9	;r3 As==10
    1394:	73 68       	.word	0x6873;	????
    1396:	3a 28       	jnc	$+118    	;abs 0x140c
    1398:	30 2c       	jc	$+98     	;abs 0x13fa
    139a:	34 29       	jnc	$+618    	;abs 0x1604
    139c:	2c 38       	jl	$+90     	;abs 0x13f6
    139e:	2c 31       	jn	$+602    	;abs 0x15f8
    13a0:	3b 73       	subc	#-1,	r11	;r3 As==11
    13a2:	68 70       	subc.b	@r0,	r8	;
    13a4:	3a 28       	jnc	$+118    	;abs 0x141a
    13a6:	30 2c       	jc	$+98     	;abs 0x1408
    13a8:	34 29       	jnc	$+618    	;abs 0x1612
    13aa:	2c 39       	jl	$+602    	;abs 0x1604
    13ac:	2c 31       	jn	$+602    	;abs 0x1606
    13ae:	3b 73       	subc	#-1,	r11	;r3 As==11
    13b0:	68 73       	subc.b	#2,	r8	;r3 As==10
    13b2:	3a 28       	jnc	$+118    	;abs 0x1428
    13b4:	30 2c       	jc	$+98     	;abs 0x1416
    13b6:	34 29       	jnc	$+618    	;abs 0x1620
    13b8:	2c 31       	jn	$+602    	;abs 0x1612
    13ba:	30 2c       	jc	$+98     	;abs 0x141c
    13bc:	32 3b       	jl	$-410    	;abs 0x1222
    13be:	63 73       	.word	0x7363;	????
    13c0:	74 61       	addc.b	@r1+,	r4	;
    13c2:	72 74       	subc.b	@r4+,	r2	;
    13c4:	61 64       	addc.b	@r4,	r1	;
    13c6:	64 3a       	jl	$-822    	;abs 0x1090
    13c8:	28 30       	jn	$+82     	;abs 0x141a
    13ca:	2c 34       	jge	$+90     	;abs 0x1424
    13cc:	29 2c       	jc	$+84     	;abs 0x1420
    13ce:	31 32       	jn	$-924    	;abs 0x1032
    13d0:	2c 34       	jge	$+90     	;abs 0x142a
    13d2:	3b 3b       	jl	$-392    	;abs 0x124a
    13d4:	00 61       	addc	r1,	r0	;
    13d6:	64 63       	addc.b	#2,	r4	;r3 As==10
    13d8:	31 32       	jn	$-924    	;abs 0x103c
    13da:	78 66       	addc.b	@r6+,	r8	;
    13dc:	6c 67       	addc.b	@r7,	r12	;
    13de:	5f 74 3a 74 	subc.b	29754(r4),r15	;
    13e2:	28 32       	jn	$-942    	;abs 0x1034
    13e4:	33 2c       	jc	$+104    	;abs 0x144c
    13e6:	35 29       	jnc	$+620    	;abs 0x1652
    13e8:	3d 28       	jnc	$+124    	;abs 0x1464
    13ea:	32 33       	jn	$-410    	;abs 0x1250
    13ec:	2c 36       	jge	$-934    	;abs 0x1046
    13ee:	29 3d       	jmp	$+596    	;abs 0x1642
    13f0:	73 32       	jn	$-792    	;abs 0x10d8
    13f2:	62 69       	addc.b	@r9,	r2	;
    13f4:	74 30       	jn	$+234    	;abs 0x14de
    13f6:	3a 28       	jnc	$+118    	;abs 0x146c
    13f8:	30 2c       	jc	$+98     	;abs 0x145a
    13fa:	34 29       	jnc	$+618    	;abs 0x1664
    13fc:	2c 30       	jn	$+90     	;abs 0x1456
    13fe:	2c 31       	jn	$+602    	;abs 0x1658
    1400:	3b 62       	addc	#8,	r11	;r2 As==11
    1402:	69 74       	subc.b	@r4,	r9	;
    1404:	31 3a       	jl	$-924    	;abs 0x1068
    1406:	28 30       	jn	$+82     	;abs 0x1458
    1408:	2c 34       	jge	$+90     	;abs 0x1462
    140a:	29 2c       	jc	$+84     	;abs 0x145e
    140c:	31 2c       	jc	$+100    	;abs 0x1470
    140e:	31 3b       	jl	$-412    	;abs 0x1272
    1410:	62 69       	addc.b	@r9,	r2	;
    1412:	74 32       	jn	$-790    	;abs 0x10fc
    1414:	3a 28       	jnc	$+118    	;abs 0x148a
    1416:	30 2c       	jc	$+98     	;abs 0x1478
    1418:	34 29       	jnc	$+618    	;abs 0x1682
    141a:	2c 32       	jn	$-934    	;abs 0x1074
    141c:	2c 31       	jn	$+602    	;abs 0x1676
    141e:	3b 62       	addc	#8,	r11	;r2 As==11
    1420:	69 74       	subc.b	@r4,	r9	;
    1422:	33 3a       	jl	$-920    	;abs 0x108a
    1424:	28 30       	jn	$+82     	;abs 0x1476
    1426:	2c 34       	jge	$+90     	;abs 0x1480
    1428:	29 2c       	jc	$+84     	;abs 0x147c
    142a:	33 2c       	jc	$+104    	;abs 0x1492
    142c:	31 3b       	jl	$-412    	;abs 0x1290
    142e:	62 69       	addc.b	@r9,	r2	;
    1430:	74 34       	jge	$+234    	;abs 0x151a
    1432:	3a 28       	jnc	$+118    	;abs 0x14a8
    1434:	30 2c       	jc	$+98     	;abs 0x1496
    1436:	34 29       	jnc	$+618    	;abs 0x16a0
    1438:	2c 34       	jge	$+90     	;abs 0x1492
    143a:	2c 31       	jn	$+602    	;abs 0x1694
    143c:	3b 62       	addc	#8,	r11	;r2 As==11
    143e:	69 74       	subc.b	@r4,	r9	;
    1440:	35 3a       	jl	$-916    	;abs 0x10ac
    1442:	28 30       	jn	$+82     	;abs 0x1494
    1444:	2c 34       	jge	$+90     	;abs 0x149e
    1446:	29 2c       	jc	$+84     	;abs 0x149a
    1448:	35 2c       	jc	$+108    	;abs 0x14b4
    144a:	31 3b       	jl	$-412    	;abs 0x12ae
    144c:	62 69       	addc.b	@r9,	r2	;
    144e:	74 36       	jge	$-790    	;abs 0x1138
    1450:	3a 28       	jnc	$+118    	;abs 0x14c6
    1452:	30 2c       	jc	$+98     	;abs 0x14b4
    1454:	34 29       	jnc	$+618    	;abs 0x16be
    1456:	2c 36       	jge	$-934    	;abs 0x10b0
    1458:	2c 31       	jn	$+602    	;abs 0x16b2
    145a:	3b 62       	addc	#8,	r11	;r2 As==11
    145c:	69 74       	subc.b	@r4,	r9	;
    145e:	37 3a       	jl	$-912    	;abs 0x10ce
    1460:	28 30       	jn	$+82     	;abs 0x14b2
    1462:	2c 34       	jge	$+90     	;abs 0x14bc
    1464:	29 2c       	jc	$+84     	;abs 0x14b8
    1466:	37 2c       	jc	$+112    	;abs 0x14d6
    1468:	31 3b       	jl	$-412    	;abs 0x12cc
    146a:	62 69       	addc.b	@r9,	r2	;
    146c:	74 38       	jl	$+234    	;abs 0x1556
    146e:	3a 28       	jnc	$+118    	;abs 0x14e4
    1470:	30 2c       	jc	$+98     	;abs 0x14d2
    1472:	34 29       	jnc	$+618    	;abs 0x16dc
    1474:	2c 38       	jl	$+90     	;abs 0x14ce
    1476:	2c 31       	jn	$+602    	;abs 0x16d0
    1478:	3b 62       	addc	#8,	r11	;r2 As==11
    147a:	69 74       	subc.b	@r4,	r9	;
    147c:	39 3a       	jl	$-908    	;abs 0x10f0
    147e:	28 30       	jn	$+82     	;abs 0x14d0
    1480:	2c 34       	jge	$+90     	;abs 0x14da
    1482:	29 2c       	jc	$+84     	;abs 0x14d6
    1484:	39 2c       	jc	$+116    	;abs 0x14f8
    1486:	31 3b       	jl	$-412    	;abs 0x12ea
    1488:	62 69       	addc.b	@r9,	r2	;
    148a:	74 31       	jn	$+746    	;abs 0x1774
    148c:	30 3a       	jl	$-926    	;abs 0x10ee
    148e:	28 30       	jn	$+82     	;abs 0x14e0
    1490:	2c 34       	jge	$+90     	;abs 0x14ea
    1492:	29 2c       	jc	$+84     	;abs 0x14e6
    1494:	31 30       	jn	$+100    	;abs 0x14f8
    1496:	2c 31       	jn	$+602    	;abs 0x16f0
    1498:	3b 62       	addc	#8,	r11	;r2 As==11
    149a:	69 74       	subc.b	@r4,	r9	;
    149c:	31 31       	jn	$+612    	;abs 0x1700
    149e:	3a 28       	jnc	$+118    	;abs 0x1514
    14a0:	30 2c       	jc	$+98     	;abs 0x1502
    14a2:	34 29       	jnc	$+618    	;abs 0x170c
    14a4:	2c 31       	jn	$+602    	;abs 0x16fe
    14a6:	31 2c       	jc	$+100    	;abs 0x150a
    14a8:	31 3b       	jl	$-412    	;abs 0x130c
    14aa:	62 69       	addc.b	@r9,	r2	;
    14ac:	74 31       	jn	$+746    	;abs 0x1796
    14ae:	32 3a       	jl	$-922    	;abs 0x1114
    14b0:	28 30       	jn	$+82     	;abs 0x1502
    14b2:	2c 34       	jge	$+90     	;abs 0x150c
    14b4:	29 2c       	jc	$+84     	;abs 0x1508
    14b6:	31 32       	jn	$-924    	;abs 0x111a
    14b8:	2c 31       	jn	$+602    	;abs 0x1712
    14ba:	3b 62       	addc	#8,	r11	;r2 As==11
    14bc:	69 74       	subc.b	@r4,	r9	;
    14be:	31 33       	jn	$-412    	;abs 0x1322
    14c0:	3a 28       	jnc	$+118    	;abs 0x1536
    14c2:	30 2c       	jc	$+98     	;abs 0x1524
    14c4:	34 29       	jnc	$+618    	;abs 0x172e
    14c6:	2c 31       	jn	$+602    	;abs 0x1720
    14c8:	33 2c       	jc	$+104    	;abs 0x1530
    14ca:	31 3b       	jl	$-412    	;abs 0x132e
    14cc:	62 69       	addc.b	@r9,	r2	;
    14ce:	74 31       	jn	$+746    	;abs 0x17b8
    14d0:	34 3a       	jl	$-918    	;abs 0x113a
    14d2:	28 30       	jn	$+82     	;abs 0x1524
    14d4:	2c 34       	jge	$+90     	;abs 0x152e
    14d6:	29 2c       	jc	$+84     	;abs 0x152a
    14d8:	31 34       	jge	$+100    	;abs 0x153c
    14da:	2c 31       	jn	$+602    	;abs 0x1734
    14dc:	3b 62       	addc	#8,	r11	;r2 As==11
    14de:	69 74       	subc.b	@r4,	r9	;
    14e0:	31 35       	jge	$+612    	;abs 0x1744
    14e2:	3a 28       	jnc	$+118    	;abs 0x1558
    14e4:	30 2c       	jc	$+98     	;abs 0x1546
    14e6:	34 29       	jnc	$+618    	;abs 0x1750
    14e8:	2c 31       	jn	$+602    	;abs 0x1742
    14ea:	35 2c       	jc	$+108    	;abs 0x1556
    14ec:	31 3b       	jl	$-412    	;abs 0x1350
    14ee:	3b 00       	.word	0x003b;	????
    14f0:	61 64       	addc.b	@r4,	r1	;
    14f2:	63 31       	jn	$+712    	;abs 0x17ba
    14f4:	32 5f       	add	@r15+,	r2	;
    14f6:	74 3a       	jl	$-790    	;abs 0x11e0
    14f8:	54 28       	jnc	$+170    	;abs 0x15a2
    14fa:	32 33       	jn	$-410    	;abs 0x1360
    14fc:	2c 37       	jge	$-422    	;abs 0x1356
    14fe:	29 3d       	jmp	$+596    	;abs 0x1752
    1500:	73 31       	jn	$+744    	;abs 0x17e8
    1502:	30 63       	addc	#-1,	r0	;r3 As==11
    1504:	74 6c       	addc.b	@r12+,	r4	;
    1506:	30 3a       	jl	$-926    	;abs 0x1168
    1508:	28 32       	jn	$-942    	;abs 0x115a
    150a:	33 2c       	jc	$+104    	;abs 0x1572
    150c:	31 29       	jnc	$+612    	;abs 0x1770
    150e:	2c 30       	jn	$+90     	;abs 0x1568
    1510:	2c 31       	jn	$+602    	;abs 0x176a
    1512:	36 3b       	jl	$-402    	;abs 0x1380
    1514:	63 74       	.word	0x7463;	????
    1516:	6c 31       	jn	$+730    	;abs 0x17f0
    1518:	3a 28       	jnc	$+118    	;abs 0x158e
    151a:	32 33       	jn	$-410    	;abs 0x1380
    151c:	2c 33       	jn	$-422    	;abs 0x1376
    151e:	29 2c       	jc	$+84     	;abs 0x1572
    1520:	31 36       	jge	$-924    	;abs 0x1184
    1522:	2c 31       	jn	$+602    	;abs 0x177c
    1524:	36 3b       	jl	$-402    	;abs 0x1392
    1526:	69 66       	addc.b	@r6,	r9	;
    1528:	67 3a       	jl	$-816    	;abs 0x11f8
    152a:	28 32       	jn	$-942    	;abs 0x117c
    152c:	33 2c       	jc	$+104    	;abs 0x1594
    152e:	35 29       	jnc	$+620    	;abs 0x179a
    1530:	2c 33       	jn	$-422    	;abs 0x138a
    1532:	32 2c       	jc	$+102    	;abs 0x1598
    1534:	31 36       	jge	$-924    	;abs 0x1198
    1536:	3b 69       	addc	@r9+,	r11	;
    1538:	65 3a       	jl	$-820    	;abs 0x1204
    153a:	28 32       	jn	$-942    	;abs 0x118c
    153c:	33 2c       	jc	$+104    	;abs 0x15a4
    153e:	35 29       	jnc	$+620    	;abs 0x17aa
    1540:	2c 34       	jge	$+90     	;abs 0x159a
    1542:	38 2c       	jc	$+114    	;abs 0x15b4
    1544:	31 36       	jge	$-924    	;abs 0x11a8
    1546:	3b 69       	addc	@r9+,	r11	;
    1548:	76 3a       	jl	$-786    	;abs 0x1236
    154a:	28 32       	jn	$-942    	;abs 0x119c
    154c:	33 2c       	jc	$+104    	;abs 0x15b4
    154e:	35 29       	jnc	$+620    	;abs 0x17ba
    1550:	2c 36       	jge	$-934    	;abs 0x11aa
    1552:	34 2c       	jc	$+106    	;abs 0x15bc
    1554:	31 36       	jge	$-924    	;abs 0x11b8
    1556:	3b 3b       	jl	$-392    	;abs 0x13ce
    1558:	00 63       	adc	r0		;
    155a:	3a 2f       	jc	$-394    	;abs 0x13d0
    155c:	6d 73       	subc.b	#2,	r13	;r3 As==10
    155e:	70 67       	addc.b	@r7+,	r0	;
    1560:	63 63       	.word	0x6363;	????
    1562:	2f 6d       	addc	@r13,	r15	;
    1564:	73 70       	.word	0x7073;	????
    1566:	34 33       	jn	$-406    	;abs 0x13d0
    1568:	30 2f       	jc	$-414    	;abs 0x13ca
    156a:	69 6e       	addc.b	@r14,	r9	;
    156c:	63 6c       	.word	0x6c63;	????
    156e:	75 64       	addc.b	@r4+,	r5	;
    1570:	65 2f       	jc	$-308    	;abs 0x143c
    1572:	6d 73       	subc.b	#2,	r13	;r3 As==10
    1574:	70 34       	jge	$+226    	;abs 0x1656
    1576:	33 30       	jn	$+104    	;abs 0x15de
    1578:	2f 64       	addc	@r4,	r15	;
    157a:	61 63       	addc.b	#2,	r1	;r3 As==10
    157c:	31 32       	jn	$-924    	;abs 0x11e0
    157e:	2e 68       	addc	@r8,	r14	;
    1580:	00 63       	adc	r0		;
    1582:	3a 2f       	jc	$-394    	;abs 0x13f8
    1584:	6d 73       	subc.b	#2,	r13	;r3 As==10
    1586:	70 67       	addc.b	@r7+,	r0	;
    1588:	63 63       	.word	0x6363;	????
    158a:	2f 6d       	addc	@r13,	r15	;
    158c:	73 70       	.word	0x7073;	????
    158e:	34 33       	jn	$-406    	;abs 0x13f8
    1590:	30 2f       	jc	$-414    	;abs 0x13f2
    1592:	69 6e       	addc.b	@r14,	r9	;
    1594:	63 6c       	.word	0x6c63;	????
    1596:	75 64       	addc.b	@r4+,	r5	;
    1598:	65 2f       	jc	$-308    	;abs 0x1464
    159a:	6d 73       	subc.b	#2,	r13	;r3 As==10
    159c:	70 34       	jge	$+226    	;abs 0x167e
    159e:	33 30       	jn	$+104    	;abs 0x1606
    15a0:	2f 64       	addc	@r4,	r15	;
    15a2:	6d 61       	addc.b	@r1,	r13	;
    15a4:	2e 68       	addc	@r8,	r14	;
    15a6:	00 63       	adc	r0		;
    15a8:	3a 2f       	jc	$-394    	;abs 0x141e
    15aa:	6d 73       	subc.b	#2,	r13	;r3 As==10
    15ac:	70 67       	addc.b	@r7+,	r0	;
    15ae:	63 63       	.word	0x6363;	????
    15b0:	2f 6d       	addc	@r13,	r15	;
    15b2:	73 70       	.word	0x7073;	????
    15b4:	34 33       	jn	$-406    	;abs 0x141e
    15b6:	30 2f       	jc	$-414    	;abs 0x1418
    15b8:	69 6e       	addc.b	@r14,	r9	;
    15ba:	63 6c       	.word	0x6c63;	????
    15bc:	75 64       	addc.b	@r4+,	r5	;
    15be:	65 2f       	jc	$-308    	;abs 0x148a
    15c0:	6d 73       	subc.b	#2,	r13	;r3 As==10
    15c2:	70 34       	jge	$+226    	;abs 0x16a4
    15c4:	33 30       	jn	$+104    	;abs 0x162c
    15c6:	2f 63       	addc	#2,	r15	;r3 As==10
    15c8:	6f 6d       	addc.b	@r13,	r15	;
    15ca:	6d 6f       	addc.b	@r15,	r13	;
    15cc:	6e 2e       	jc	$-802    	;abs 0x12aa
    15ce:	68 00       	.word	0x0068;	????
    15d0:	6c 63       	addc.b	#2,	r12	;r3 As==10
    15d2:	64 32       	jn	$-822    	;abs 0x129c
    15d4:	31 31       	jn	$+612    	;abs 0x1838
    15d6:	32 2e       	jc	$-922    	;abs 0x123c
    15d8:	68 00       	.word	0x0068;	????
    15da:	75 61       	addc.b	@r1+,	r5	;
    15dc:	72 74       	subc.b	@r4+,	r2	;
    15de:	30 2e       	jc	$-926    	;abs 0x1240
    15e0:	68 00       	.word	0x0068;	????
    15e2:	6d 61       	addc.b	@r1,	r13	;
    15e4:	69 6e       	addc.b	@r14,	r9	;
    15e6:	3a 46       	mov	@r6+,	r10	;
    15e8:	28 30       	jn	$+82     	;abs 0x163a
    15ea:	2c 31       	jn	$+602    	;abs 0x1844
    15ec:	29 00       	.word	0x0029;	????
    15ee:	62 75       	subc.b	@r5,	r2	;
    15f0:	66 66       	addc.b	@r6,	r6	;
    15f2:	3a 28       	jnc	$+118    	;abs 0x1668
    15f4:	31 2c       	jc	$+100    	;abs 0x1658
    15f6:	31 29       	jnc	$+612    	;abs 0x185a
    15f8:	3d 61       	addc	@r1+,	r13	;
    15fa:	72 28       	jnc	$+230    	;abs 0x16e0
    15fc:	31 38       	jl	$+100    	;abs 0x1660
    15fe:	2c 37       	jge	$-422    	;abs 0x1458
    1600:	29 3b       	jl	$-428    	;abs 0x1454
    1602:	30 3b       	jl	$-414    	;abs 0x1464
    1604:	37 39       	jl	$+624    	;abs 0x1874
    1606:	3b 28       	jnc	$+120    	;abs 0x167e
    1608:	30 2c       	jc	$+98     	;abs 0x166a
    160a:	31 31       	jn	$+612    	;abs 0x186e
    160c:	29 00       	.word	0x0029;	????
    160e:	62 75       	subc.b	@r5,	r2	;
    1610:	66 66       	addc.b	@r6,	r6	;
    1612:	5f 72 78 3a 	subc.b	&0x3a78,r15	;0x3a78
    1616:	28 31       	jn	$+594    	;abs 0x1868
    1618:	2c 31       	jn	$+602    	;abs 0x1872
    161a:	29 00       	.word	0x0029;	????
    161c:	70 75       	subc.b	@r5+,	r0	;
    161e:	74 63       	addc.b	#-1,	r4	;r3 As==11
    1620:	68 61       	addc.b	@r1,	r8	;
    1622:	72 3a       	jl	$-794    	;abs 0x1308
    1624:	46 28       	jnc	$+142    	;abs 0x16b2
    1626:	30 2c       	jc	$+98     	;abs 0x1688
    1628:	31 29       	jnc	$+612    	;abs 0x188c
    162a:	00 63       	adc	r0		;
    162c:	3a 50 28 30 	add	#12328,	r10	;#0x3028
    1630:	2c 31       	jn	$+602    	;abs 0x188a
    1632:	29 00       	.word	0x0029;	????
    1634:	63 70       	.word	0x7063;	????
    1636:	75 5f       	add.b	@r15+,	r5	;
    1638:	63 6f       	.word	0x6f63;	????
    163a:	6e 66       	addc.b	@r6,	r14	;
    163c:	69 67       	addc.b	@r7,	r9	;
    163e:	3a 46       	mov	@r6+,	r10	;
    1640:	28 30       	jn	$+82     	;abs 0x1692
    1642:	2c 32       	jn	$-934    	;abs 0x129c
    1644:	30 29       	jnc	$+610    	;abs 0x18a6
    1646:	00 64       	addc	r4,	r0	;
    1648:	65 6c       	addc.b	@r12,	r5	;
    164a:	61 79       	subc.b	@r9,	r1	;
    164c:	75 73       	subc.b	#-1,	r5	;r3 As==11
    164e:	3a 46       	mov	@r6+,	r10	;
    1650:	28 30       	jn	$+82     	;abs 0x16a2
    1652:	2c 32       	jn	$-934    	;abs 0x12ac
    1654:	30 29       	jnc	$+610    	;abs 0x18b6
    1656:	00 74       	subc	r4,	r0	;
    1658:	65 6d       	addc.b	@r13,	r5	;
    165a:	70 6f       	addc.b	@r15+,	r0	;
    165c:	3a 50 28 30 	add	#12328,	r10	;#0x3028
    1660:	2c 34       	jge	$+90     	;abs 0x16ba
    1662:	29 00       	.word	0x0029;	????
    1664:	69 3a       	jl	$-812    	;abs 0x1338
    1666:	72 28       	jnc	$+230    	;abs 0x174c
    1668:	30 2c       	jc	$+98     	;abs 0x16ca
    166a:	31 29       	jnc	$+612    	;abs 0x18ce
    166c:	00 64       	addc	r4,	r0	;
    166e:	65 6c       	addc.b	@r12,	r5	;
    1670:	61 79       	subc.b	@r9,	r1	;
    1672:	6d 73       	subc.b	#2,	r13	;r3 As==10
    1674:	3a 46       	mov	@r6+,	r10	;
    1676:	28 30       	jn	$+82     	;abs 0x16c8
    1678:	2c 32       	jn	$-934    	;abs 0x12d2
    167a:	30 29       	jnc	$+610    	;abs 0x18dc
    167c:	00 72       	subc	r2,	r0	;
    167e:	65 61       	addc.b	@r1,	r5	;
    1680:	64 6b       	addc.b	@r11,	r4	;
    1682:	65 79       	subc.b	@r9,	r5	;
    1684:	62 6f       	addc.b	@r15,	r2	;
    1686:	61 72       	subc.b	#4,	r1	;r2 As==10
    1688:	64 3a       	jl	$-822    	;abs 0x1352
    168a:	46 28       	jnc	$+142    	;abs 0x1718
    168c:	30 2c       	jc	$+98     	;abs 0x16ee
    168e:	31 31       	jn	$+612    	;abs 0x18f2
    1690:	29 00       	.word	0x0029;	????
    1692:	74 65       	addc.b	@r5+,	r4	;
    1694:	63 6c       	.word	0x6c63;	????
    1696:	61 3a       	jl	$-828    	;abs 0x135a
    1698:	72 28       	jnc	$+230    	;abs 0x177e
    169a:	30 2c       	jc	$+98     	;abs 0x16fc
    169c:	31 31       	jn	$+612    	;abs 0x1900
    169e:	29 00       	.word	0x0029;	????
    16a0:	77 61       	addc.b	@r1+,	r7	;
    16a2:	69 74       	subc.b	@r4,	r9	;
    16a4:	70 72       	subc.b	#8,	r0	;r2 As==11
    16a6:	65 73       	subc.b	#2,	r5	;r3 As==10
    16a8:	73 3a       	jl	$-792    	;abs 0x1390
    16aa:	46 28       	jnc	$+142    	;abs 0x1738
    16ac:	30 2c       	jc	$+98     	;abs 0x170e
    16ae:	31 31       	jn	$+612    	;abs 0x1912
    16b0:	29 00       	.word	0x0029;	????
    16b2:	76 3a       	jl	$-786    	;abs 0x13a0
    16b4:	72 28       	jnc	$+230    	;abs 0x179a
    16b6:	30 2c       	jc	$+98     	;abs 0x1718
    16b8:	31 31       	jn	$+612    	;abs 0x191c
    16ba:	29 00       	.word	0x0029;	????
    16bc:	77 61       	addc.b	@r1+,	r7	;
    16be:	69 74       	subc.b	@r4,	r9	;
    16c0:	72 65       	addc.b	@r5+,	r2	;
    16c2:	6c 65       	addc.b	@r5,	r12	;
    16c4:	61 73       	subc.b	#2,	r1	;r3 As==10
    16c6:	65 3a       	jl	$-820    	;abs 0x1392
    16c8:	46 28       	jnc	$+142    	;abs 0x1756
    16ca:	30 2c       	jc	$+98     	;abs 0x172c
    16cc:	32 30       	jn	$+102    	;abs 0x1732
    16ce:	29 00       	.word	0x0029;	????
    16d0:	77 61       	addc.b	@r1+,	r7	;
    16d2:	69 74       	subc.b	@r4,	r9	;
    16d4:	6b 65       	addc.b	@r5,	r11	;
    16d6:	79 3a       	jl	$-780    	;abs 0x13ca
    16d8:	46 28       	jnc	$+142    	;abs 0x1766
    16da:	30 2c       	jc	$+98     	;abs 0x173c
    16dc:	32 30       	jn	$+102    	;abs 0x1742
    16de:	29 00       	.word	0x0029;	????
    16e0:	6b 65       	addc.b	@r5,	r11	;
    16e2:	79 3a       	jl	$-780    	;abs 0x13d6
    16e4:	50 28       	jnc	$+162    	;abs 0x1786
    16e6:	30 2c       	jc	$+98     	;abs 0x1748
    16e8:	31 31       	jn	$+612    	;abs 0x194c
    16ea:	29 00       	.word	0x0029;	????
    16ec:	77 61       	addc.b	@r1+,	r7	;
    16ee:	69 74       	subc.b	@r4,	r9	;
    16f0:	61 6e       	addc.b	@r14,	r1	;
    16f2:	79 6b       	addc.b	@r11+,	r9	;
    16f4:	65 79       	subc.b	@r9,	r5	;
    16f6:	3a 46       	mov	@r6+,	r10	;
    16f8:	28 30       	jn	$+82     	;abs 0x174a
    16fa:	2c 31       	jn	$+602    	;abs 0x1954
    16fc:	31 29       	jnc	$+612    	;abs 0x1960
    16fe:	00 69       	addc	r9,	r0	;
    1700:	32 63       	addc	#-1,	r2	;r3 As==11
    1702:	5f 63       	addc.b	#1,	r15	;r3 As==01
    1704:	6f 6e       	addc.b	@r14,	r15	;
    1706:	66 69       	addc.b	@r9,	r6	;
    1708:	67 3a       	jl	$-816    	;abs 0x13d8
    170a:	46 28       	jnc	$+142    	;abs 0x1798
    170c:	30 2c       	jc	$+98     	;abs 0x176e
    170e:	32 30       	jn	$+102    	;abs 0x1774
    1710:	29 00       	.word	0x0029;	????
    1712:	73 6c       	.word	0x6c73;	????
    1714:	61 76       	subc.b	@r6,	r1	;
    1716:	65 5f       	add.b	@r15,	r5	;
    1718:	61 64       	addc.b	@r4,	r1	;
    171a:	64 3a       	jl	$-822    	;abs 0x13e4
    171c:	50 28       	jnc	$+162    	;abs 0x17be
    171e:	30 2c       	jc	$+98     	;abs 0x1780
    1720:	31 31       	jn	$+612    	;abs 0x1984
    1722:	29 00       	.word	0x0029;	????
    1724:	73 70       	.word	0x7073;	????
    1726:	65 65       	addc.b	@r5,	r5	;
    1728:	64 3a       	jl	$-822    	;abs 0x13f2
    172a:	50 28       	jnc	$+162    	;abs 0x17cc
    172c:	30 2c       	jc	$+98     	;abs 0x178e
    172e:	31 31       	jn	$+612    	;abs 0x1992
    1730:	29 00       	.word	0x0029;	????
    1732:	69 32       	jn	$-812    	;abs 0x1406
    1734:	63 5f       	.word	0x5f63;	????
    1736:	63 68       	.word	0x6863;	????
    1738:	61 6e       	addc.b	@r14,	r1	;
    173a:	67 65       	addc.b	@r5,	r7	;
    173c:	5f 73       	subc.b	#1,	r15	;r3 As==01
    173e:	6c 61       	addc.b	@r1,	r12	;
    1740:	76 65       	addc.b	@r5+,	r6	;
    1742:	61 64       	addc.b	@r4,	r1	;
    1744:	64 72       	subc.b	#4,	r4	;r2 As==10
    1746:	65 73       	subc.b	#2,	r5	;r3 As==10
    1748:	73 3a       	jl	$-792    	;abs 0x1430
    174a:	46 28       	jnc	$+142    	;abs 0x17d8
    174c:	30 2c       	jc	$+98     	;abs 0x17ae
    174e:	32 30       	jn	$+102    	;abs 0x17b4
    1750:	29 00       	.word	0x0029;	????
    1752:	69 32       	jn	$-812    	;abs 0x1426
    1754:	63 5f       	.word	0x5f63;	????
    1756:	73 74       	.word	0x7473;	????
    1758:	61 72       	subc.b	#4,	r1	;r2 As==10
    175a:	74 5f       	add.b	@r15+,	r4	;
    175c:	74 78       	subc.b	@r8+,	r4	;
    175e:	3a 46       	mov	@r6+,	r10	;
    1760:	28 30       	jn	$+82     	;abs 0x17b2
    1762:	2c 32       	jn	$-934    	;abs 0x13bc
    1764:	30 29       	jnc	$+610    	;abs 0x19c6
    1766:	00 69       	addc	r9,	r0	;
    1768:	32 63       	addc	#-1,	r2	;r3 As==11
    176a:	5f 73       	subc.b	#1,	r15	;r3 As==01
    176c:	74 61       	addc.b	@r1+,	r4	;
    176e:	72 74       	subc.b	@r4+,	r2	;
    1770:	5f 72 78 3a 	subc.b	&0x3a78,r15	;0x3a78
    1774:	46 28       	jnc	$+142    	;abs 0x1802
    1776:	30 2c       	jc	$+98     	;abs 0x17d8
    1778:	32 30       	jn	$+102    	;abs 0x17de
    177a:	29 00       	.word	0x0029;	????
    177c:	69 32       	jn	$-812    	;abs 0x1450
    177e:	63 5f       	.word	0x5f63;	????
    1780:	73 74       	.word	0x7473;	????
    1782:	6f 70       	subc.b	@r0,	r15	;
    1784:	5f 74 78 3a 	subc.b	14968(r4),r15	;
    1788:	46 28       	jnc	$+142    	;abs 0x1816
    178a:	30 2c       	jc	$+98     	;abs 0x17ec
    178c:	32 30       	jn	$+102    	;abs 0x17f2
    178e:	29 00       	.word	0x0029;	????
    1790:	69 32       	jn	$-812    	;abs 0x1464
    1792:	63 5f       	.word	0x5f63;	????
    1794:	73 74       	.word	0x7473;	????
    1796:	6f 70       	subc.b	@r0,	r15	;
    1798:	5f 72 78 3a 	subc.b	&0x3a78,r15	;0x3a78
    179c:	46 28       	jnc	$+142    	;abs 0x182a
    179e:	30 2c       	jc	$+98     	;abs 0x1800
    17a0:	32 30       	jn	$+102    	;abs 0x1806
    17a2:	29 00       	.word	0x0029;	????
    17a4:	69 32       	jn	$-812    	;abs 0x1478
    17a6:	63 5f       	.word	0x5f63;	????
    17a8:	74 65       	addc.b	@r5+,	r4	;
    17aa:	73 74       	.word	0x7473;	????
    17ac:	3a 46       	mov	@r6+,	r10	;
    17ae:	28 30       	jn	$+82     	;abs 0x1800
    17b0:	2c 31       	jn	$+602    	;abs 0x1a0a
    17b2:	31 29       	jnc	$+612    	;abs 0x1a16
    17b4:	00 69       	addc	r9,	r0	;
    17b6:	32 63       	addc	#-1,	r2	;r3 As==11
    17b8:	5f 73       	subc.b	#1,	r15	;r3 As==01
    17ba:	65 6e       	addc.b	@r14,	r5	;
    17bc:	64 3a       	jl	$-822    	;abs 0x1486
    17be:	46 28       	jnc	$+142    	;abs 0x184c
    17c0:	30 2c       	jc	$+98     	;abs 0x1822
    17c2:	31 31       	jn	$+612    	;abs 0x1a26
    17c4:	29 00       	.word	0x0029;	????
    17c6:	62 3a       	jl	$-826    	;abs 0x148c
    17c8:	50 28       	jnc	$+162    	;abs 0x186a
    17ca:	30 2c       	jc	$+98     	;abs 0x182c
    17cc:	31 31       	jn	$+612    	;abs 0x1a30
    17ce:	29 00       	.word	0x0029;	????
    17d0:	69 32       	jn	$-812    	;abs 0x14a4
    17d2:	63 5f       	.word	0x5f63;	????
    17d4:	77 72       	subc.b	#8,	r7	;r2 As==11
    17d6:	69 74       	subc.b	@r4,	r9	;
    17d8:	65 5f       	add.b	@r15,	r5	;
    17da:	64 75       	subc.b	@r5,	r4	;
    17dc:	6d 6d       	addc.b	@r13,	r13	;
    17de:	79 3a       	jl	$-780    	;abs 0x14d2
    17e0:	46 28       	jnc	$+142    	;abs 0x186e
    17e2:	30 2c       	jc	$+98     	;abs 0x1844
    17e4:	31 31       	jn	$+612    	;abs 0x1a48
    17e6:	29 00       	.word	0x0029;	????
    17e8:	69 32       	jn	$-812    	;abs 0x14bc
    17ea:	63 5f       	.word	0x5f63;	????
    17ec:	77 72       	subc.b	#8,	r7	;r2 As==11
    17ee:	69 74       	subc.b	@r4,	r9	;
    17f0:	65 5f       	add.b	@r15,	r5	;
    17f2:	6f 6e       	addc.b	@r14,	r15	;
    17f4:	65 3a       	jl	$-820    	;abs 0x14c0
    17f6:	46 28       	jnc	$+142    	;abs 0x1884
    17f8:	30 2c       	jc	$+98     	;abs 0x185a
    17fa:	31 31       	jn	$+612    	;abs 0x1a5e
    17fc:	29 00       	.word	0x0029;	????
    17fe:	62 31       	jn	$+710    	;abs 0x1ac4
    1800:	3a 50 28 30 	add	#12328,	r10	;#0x3028
    1804:	2c 31       	jn	$+602    	;abs 0x1a5e
    1806:	31 29       	jnc	$+612    	;abs 0x1a6a
    1808:	00 69       	addc	r9,	r0	;
    180a:	32 63       	addc	#-1,	r2	;r3 As==11
    180c:	5f 77 72 69 	subc.b	26994(r7),r15	;
    1810:	74 65       	addc.b	@r5+,	r4	;
    1812:	5f 6f 6e 65 	addc.b	25966(r15),r15	;
    1816:	5f 64 61 74 	addc.b	29793(r4),r15	;
    181a:	61 3a       	jl	$-828    	;abs 0x14de
    181c:	46 28       	jnc	$+142    	;abs 0x18aa
    181e:	30 2c       	jc	$+98     	;abs 0x1880
    1820:	31 31       	jn	$+612    	;abs 0x1a84
    1822:	29 00       	.word	0x0029;	????
    1824:	64 61       	addc.b	@r1,	r4	;
    1826:	74 3a       	jl	$-790    	;abs 0x1510
    1828:	50 28       	jnc	$+162    	;abs 0x18ca
    182a:	30 2c       	jc	$+98     	;abs 0x188c
    182c:	31 31       	jn	$+612    	;abs 0x1a90
    182e:	29 00       	.word	0x0029;	????
    1830:	73 74       	.word	0x7473;	????
    1832:	61 74       	subc.b	@r4,	r1	;
    1834:	75 73       	subc.b	#-1,	r5	;r3 As==11
    1836:	3a 72       	subc	#8,	r10	;r2 As==11
    1838:	28 30       	jn	$+82     	;abs 0x188a
    183a:	2c 31       	jn	$+602    	;abs 0x1a94
    183c:	31 29       	jnc	$+612    	;abs 0x1aa0
    183e:	00 69       	addc	r9,	r0	;
    1840:	32 63       	addc	#-1,	r2	;r3 As==11
    1842:	5f 77 72 69 	subc.b	26994(r7),r15	;
    1846:	74 65       	addc.b	@r5+,	r4	;
    1848:	5f 6f 6e 65 	addc.b	25966(r15),r15	;
    184c:	5f 62 75 66 	addc.b	&0x6675,r15	;0x6675
    1850:	66 65       	addc.b	@r5,	r6	;
    1852:	72 3a       	jl	$-794    	;abs 0x1538
    1854:	46 28       	jnc	$+142    	;abs 0x18e2
    1856:	30 2c       	jc	$+98     	;abs 0x18b8
    1858:	31 31       	jn	$+612    	;abs 0x1abc
    185a:	29 00       	.word	0x0029;	????
    185c:	64 61       	addc.b	@r1,	r4	;
    185e:	74 3a       	jl	$-790    	;abs 0x1548
    1860:	50 28       	jnc	$+162    	;abs 0x1902
    1862:	31 2c       	jc	$+100    	;abs 0x18c6
    1864:	32 29       	jnc	$+614    	;abs 0x1aca
    1866:	3d 2a       	jnc	$-900    	;abs 0x14e2
    1868:	28 30       	jn	$+82     	;abs 0x18ba
    186a:	2c 31       	jn	$+602    	;abs 0x1ac4
    186c:	31 29       	jnc	$+612    	;abs 0x1ad0
    186e:	00 6c       	addc	r12,	r0	;
    1870:	65 6e       	addc.b	@r14,	r5	;
    1872:	3a 50 28 30 	add	#12328,	r10	;#0x3028
    1876:	2c 31       	jn	$+602    	;abs 0x1ad0
    1878:	31 29       	jnc	$+612    	;abs 0x1adc
    187a:	00 69       	addc	r9,	r0	;
    187c:	3a 72       	subc	#8,	r10	;r2 As==11
    187e:	28 30       	jn	$+82     	;abs 0x18d0
    1880:	2c 31       	jn	$+602    	;abs 0x1ada
    1882:	31 29       	jnc	$+612    	;abs 0x1ae6
    1884:	00 69       	addc	r9,	r0	;
    1886:	32 63       	addc	#-1,	r2	;r3 As==11
    1888:	5f 77 72 69 	subc.b	26994(r7),r15	;
    188c:	74 65       	addc.b	@r5+,	r4	;
    188e:	5f 74 77 6f 	subc.b	28535(r4),r15	;
    1892:	3a 46       	mov	@r6+,	r10	;
    1894:	28 30       	jn	$+82     	;abs 0x18e6
    1896:	2c 31       	jn	$+602    	;abs 0x1af0
    1898:	31 29       	jnc	$+612    	;abs 0x1afc
    189a:	00 62       	addc	r2,	r0	;
    189c:	32 3a       	jl	$-922    	;abs 0x1502
    189e:	50 28       	jnc	$+162    	;abs 0x1940
    18a0:	30 2c       	jc	$+98     	;abs 0x1902
    18a2:	31 31       	jn	$+612    	;abs 0x1b06
    18a4:	29 00       	.word	0x0029;	????
    18a6:	69 32       	jn	$-812    	;abs 0x157a
    18a8:	63 5f       	.word	0x5f63;	????
    18aa:	77 72       	subc.b	#8,	r7	;r2 As==11
    18ac:	69 74       	subc.b	@r4,	r9	;
    18ae:	65 5f       	add.b	@r15,	r5	;
    18b0:	74 77       	subc.b	@r7+,	r4	;
    18b2:	6f 5f       	add.b	@r15,	r15	;
    18b4:	64 61       	addc.b	@r1,	r4	;
    18b6:	74 61       	addc.b	@r1+,	r4	;
    18b8:	3a 46       	mov	@r6+,	r10	;
    18ba:	28 30       	jn	$+82     	;abs 0x190c
    18bc:	2c 31       	jn	$+602    	;abs 0x1b16
    18be:	31 29       	jnc	$+612    	;abs 0x1b22
    18c0:	00 69       	addc	r9,	r0	;
    18c2:	32 63       	addc	#-1,	r2	;r3 As==11
    18c4:	5f 77 72 69 	subc.b	26994(r7),r15	;
    18c8:	74 65       	addc.b	@r5+,	r4	;
    18ca:	5f 74 77 6f 	subc.b	28535(r4),r15	;
    18ce:	5f 62 75 66 	addc.b	&0x6675,r15	;0x6675
    18d2:	66 65       	addc.b	@r5,	r6	;
    18d4:	72 3a       	jl	$-794    	;abs 0x15ba
    18d6:	46 28       	jnc	$+142    	;abs 0x1964
    18d8:	30 2c       	jc	$+98     	;abs 0x193a
    18da:	31 31       	jn	$+612    	;abs 0x1b3e
    18dc:	29 00       	.word	0x0029;	????
    18de:	64 61       	addc.b	@r1,	r4	;
    18e0:	74 3a       	jl	$-790    	;abs 0x15ca
    18e2:	50 28       	jnc	$+162    	;abs 0x1984
    18e4:	31 2c       	jc	$+100    	;abs 0x1948
    18e6:	32 29       	jnc	$+614    	;abs 0x1b4c
    18e8:	00 69       	addc	r9,	r0	;
    18ea:	32 63       	addc	#-1,	r2	;r3 As==11
    18ec:	5f 77 72 69 	subc.b	26994(r7),r15	;
    18f0:	74 65       	addc.b	@r5+,	r4	;
    18f2:	5f 62 75 66 	addc.b	&0x6675,r15	;0x6675
    18f6:	66 65       	addc.b	@r5,	r6	;
    18f8:	72 3a       	jl	$-794    	;abs 0x15de
    18fa:	46 28       	jnc	$+142    	;abs 0x1988
    18fc:	30 2c       	jc	$+98     	;abs 0x195e
    18fe:	31 31       	jn	$+612    	;abs 0x1b62
    1900:	29 00       	.word	0x0029;	????
    1902:	69 32       	jn	$-812    	;abs 0x15d6
    1904:	63 5f       	.word	0x5f63;	????
    1906:	72 65       	addc.b	@r5+,	r2	;
    1908:	61 64       	addc.b	@r4,	r1	;
    190a:	5f 64 61 74 	addc.b	29793(r4),r15	;
    190e:	61 3a       	jl	$-828    	;abs 0x15d2
    1910:	46 28       	jnc	$+142    	;abs 0x199e
    1912:	30 2c       	jc	$+98     	;abs 0x1974
    1914:	31 31       	jn	$+612    	;abs 0x1b78
    1916:	29 00       	.word	0x0029;	????
    1918:	69 32       	jn	$-812    	;abs 0x15ec
    191a:	63 5f       	.word	0x5f63;	????
    191c:	72 65       	addc.b	@r5+,	r2	;
    191e:	61 64       	addc.b	@r4,	r1	;
    1920:	5f 62 75 66 	addc.b	&0x6675,r15	;0x6675
    1924:	66 65       	addc.b	@r5,	r6	;
    1926:	72 3a       	jl	$-794    	;abs 0x160c
    1928:	46 28       	jnc	$+142    	;abs 0x19b6
    192a:	30 2c       	jc	$+98     	;abs 0x198c
    192c:	31 31       	jn	$+612    	;abs 0x1b90
    192e:	29 00       	.word	0x0029;	????
    1930:	69 32       	jn	$-812    	;abs 0x1604
    1932:	63 5f       	.word	0x5f63;	????
    1934:	77 72       	subc.b	#8,	r7	;r2 As==11
    1936:	65 61       	addc.b	@r1,	r5	;
    1938:	64 5f       	add.b	@r15,	r4	;
    193a:	6f 6e       	addc.b	@r14,	r15	;
    193c:	65 5f       	add.b	@r15,	r5	;
    193e:	64 61       	addc.b	@r1,	r4	;
    1940:	74 61       	addc.b	@r1+,	r4	;
    1942:	3a 46       	mov	@r6+,	r10	;
    1944:	28 30       	jn	$+82     	;abs 0x1996
    1946:	2c 31       	jn	$+602    	;abs 0x1ba0
    1948:	31 29       	jnc	$+612    	;abs 0x1bac
    194a:	00 69       	addc	r9,	r0	;
    194c:	32 63       	addc	#-1,	r2	;r3 As==11
    194e:	5f 77 72 65 	subc.b	25970(r7),r15	;
    1952:	61 64       	addc.b	@r4,	r1	;
    1954:	5f 6f 6e 65 	addc.b	25966(r15),r15	;
    1958:	5f 62 75 66 	addc.b	&0x6675,r15	;0x6675
    195c:	66 65       	addc.b	@r5,	r6	;
    195e:	72 3a       	jl	$-794    	;abs 0x1644
    1960:	46 28       	jnc	$+142    	;abs 0x19ee
    1962:	30 2c       	jc	$+98     	;abs 0x19c4
    1964:	31 31       	jn	$+612    	;abs 0x1bc8
    1966:	29 00       	.word	0x0029;	????
    1968:	69 32       	jn	$-812    	;abs 0x163c
    196a:	63 5f       	.word	0x5f63;	????
    196c:	77 72       	subc.b	#8,	r7	;r2 As==11
    196e:	65 61       	addc.b	@r1,	r5	;
    1970:	64 5f       	add.b	@r15,	r4	;
    1972:	74 77       	subc.b	@r7+,	r4	;
    1974:	6f 5f       	add.b	@r15,	r15	;
    1976:	64 61       	addc.b	@r1,	r4	;
    1978:	74 61       	addc.b	@r1+,	r4	;
    197a:	3a 46       	mov	@r6+,	r10	;
    197c:	28 30       	jn	$+82     	;abs 0x19ce
    197e:	2c 31       	jn	$+602    	;abs 0x1bd8
    1980:	31 29       	jnc	$+612    	;abs 0x1be4
    1982:	00 69       	addc	r9,	r0	;
    1984:	32 63       	addc	#-1,	r2	;r3 As==11
    1986:	5f 77 72 65 	subc.b	25970(r7),r15	;
    198a:	61 64       	addc.b	@r4,	r1	;
    198c:	5f 74 77 6f 	subc.b	28535(r4),r15	;
    1990:	5f 62 75 66 	addc.b	&0x6675,r15	;0x6675
    1994:	66 65       	addc.b	@r5,	r6	;
    1996:	72 3a       	jl	$-794    	;abs 0x167c
    1998:	46 28       	jnc	$+142    	;abs 0x1a26
    199a:	30 2c       	jc	$+98     	;abs 0x19fc
    199c:	31 31       	jn	$+612    	;abs 0x1c00
    199e:	29 00       	.word	0x0029;	????
    19a0:	66 69       	addc.b	@r9,	r6	;
    19a2:	6e 64       	addc.b	@r4,	r14	;
    19a4:	5f 64 65 76 	addc.b	30309(r4),r15	;
    19a8:	69 63       	addc.b	#2,	r9	;r3 As==10
    19aa:	65 3a       	jl	$-820    	;abs 0x1676
    19ac:	46 28       	jnc	$+142    	;abs 0x1a3a
    19ae:	30 2c       	jc	$+98     	;abs 0x1a10
    19b0:	31 31       	jn	$+612    	;abs 0x1c14
    19b2:	29 00       	.word	0x0029;	????
    19b4:	61 64       	addc.b	@r4,	r1	;
    19b6:	64 72       	subc.b	#4,	r4	;r2 As==10
    19b8:	65 73       	subc.b	#2,	r5	;r3 As==10
    19ba:	73 3a       	jl	$-792    	;abs 0x16a2
    19bc:	50 28       	jnc	$+162    	;abs 0x1a5e
    19be:	30 2c       	jc	$+98     	;abs 0x1a20
    19c0:	31 31       	jn	$+612    	;abs 0x1c24
    19c2:	29 00       	.word	0x0029;	????
    19c4:	6e 75       	subc.b	@r5,	r14	;
    19c6:	6e 63       	addc.b	#2,	r14	;r3 As==10
    19c8:	68 75       	subc.b	@r5,	r8	;
    19ca:	63 6b       	.word	0x6b63;	????
    19cc:	5f 64 65 63 	addc.b	25445(r4),r15	;
    19d0:	6f 64       	addc.b	@r4,	r15	;
    19d2:	65 3a       	jl	$-820    	;abs 0x169e
    19d4:	46 28       	jnc	$+142    	;abs 0x1a62
    19d6:	30 2c       	jc	$+98     	;abs 0x1a38
    19d8:	32 30       	jn	$+102    	;abs 0x1a3e
    19da:	29 00       	.word	0x0029;	????
    19dc:	6e 75       	subc.b	@r5,	r14	;
    19de:	6e 63       	addc.b	#2,	r14	;r3 As==10
    19e0:	68 75       	subc.b	@r5,	r8	;
    19e2:	63 6b       	.word	0x6b63;	????
    19e4:	5f 69 6e 69 	addc.b	26990(r9),r15	;
    19e8:	74 3a       	jl	$-790    	;abs 0x16d2
    19ea:	46 28       	jnc	$+142    	;abs 0x1a78
    19ec:	30 2c       	jc	$+98     	;abs 0x1a4e
    19ee:	31 31       	jn	$+612    	;abs 0x1c52
    19f0:	29 00       	.word	0x0029;	????
    19f2:	62 75       	subc.b	@r5,	r2	;
    19f4:	66 66       	addc.b	@r6,	r6	;
    19f6:	65 72       	subc.b	#4,	r5	;r2 As==10
    19f8:	3a 28       	jnc	$+118    	;abs 0x1a6e
    19fa:	31 2c       	jc	$+100    	;abs 0x1a5e
    19fc:	33 29       	jnc	$+616    	;abs 0x1c64
    19fe:	3d 61       	addc	@r1+,	r13	;
    1a00:	72 28       	jnc	$+230    	;abs 0x1ae6
    1a02:	31 38       	jl	$+100    	;abs 0x1a66
    1a04:	2c 37       	jge	$-422    	;abs 0x185e
    1a06:	29 3b       	jl	$-428    	;abs 0x185a
    1a08:	30 3b       	jl	$-414    	;abs 0x186a
    1a0a:	37 3b       	jl	$-400    	;abs 0x187a
    1a0c:	28 30       	jn	$+82     	;abs 0x1a5e
    1a0e:	2c 31       	jn	$+602    	;abs 0x1c68
    1a10:	31 29       	jnc	$+612    	;abs 0x1c74
    1a12:	00 63       	adc	r0		;
    1a14:	61 6c       	addc.b	@r12,	r1	;
    1a16:	69 62       	addc.b	#4,	r9	;r2 As==10
    1a18:	3a 28       	jnc	$+118    	;abs 0x1a8e
    1a1a:	31 2c       	jc	$+100    	;abs 0x1a7e
    1a1c:	34 29       	jnc	$+618    	;abs 0x1c86
    1a1e:	3d 61       	addc	@r1+,	r13	;
    1a20:	72 28       	jnc	$+230    	;abs 0x1b06
    1a22:	31 38       	jl	$+100    	;abs 0x1a86
    1a24:	2c 37       	jge	$-422    	;abs 0x187e
    1a26:	29 3b       	jl	$-428    	;abs 0x187a
    1a28:	30 3b       	jl	$-414    	;abs 0x188a
    1a2a:	31 35       	jge	$+612    	;abs 0x1c8e
    1a2c:	3b 28       	jnc	$+120    	;abs 0x1aa4
    1a2e:	30 2c       	jc	$+98     	;abs 0x1a90
    1a30:	31 31       	jn	$+612    	;abs 0x1c94
    1a32:	29 00       	.word	0x0029;	????
    1a34:	6e 75       	subc.b	@r5,	r14	;
    1a36:	6e 63       	addc.b	#2,	r14	;r3 As==10
    1a38:	68 75       	subc.b	@r5,	r8	;
    1a3a:	63 6b       	.word	0x6b63;	????
    1a3c:	5f 67 65 74 	addc.b	29797(r7),r15	;
    1a40:	64 61       	addc.b	@r1,	r4	;
    1a42:	74 61       	addc.b	@r1+,	r4	;
    1a44:	3a 46       	mov	@r6+,	r10	;
    1a46:	28 30       	jn	$+82     	;abs 0x1a98
    1a48:	2c 31       	jn	$+602    	;abs 0x1ca2
    1a4a:	31 29       	jnc	$+612    	;abs 0x1cae
    1a4c:	00 62       	addc	r2,	r0	;
    1a4e:	31 3a       	jl	$-924    	;abs 0x16b2
    1a50:	72 28       	jnc	$+230    	;abs 0x1b36
    1a52:	30 2c       	jc	$+98     	;abs 0x1ab4
    1a54:	31 31       	jn	$+612    	;abs 0x1cb8
    1a56:	29 00       	.word	0x0029;	????
    1a58:	62 32       	jn	$-826    	;abs 0x171e
    1a5a:	3a 72       	subc	#8,	r10	;r2 As==11
    1a5c:	28 30       	jn	$+82     	;abs 0x1aae
    1a5e:	2c 31       	jn	$+602    	;abs 0x1cb8
    1a60:	31 29       	jnc	$+612    	;abs 0x1cc4
    1a62:	00 62       	addc	r2,	r0	;
    1a64:	33 3a       	jl	$-920    	;abs 0x16cc
    1a66:	72 28       	jnc	$+230    	;abs 0x1b4c
    1a68:	30 2c       	jc	$+98     	;abs 0x1aca
    1a6a:	31 31       	jn	$+612    	;abs 0x1cce
    1a6c:	29 00       	.word	0x0029;	????
    1a6e:	62 75       	subc.b	@r5,	r2	;
    1a70:	66 66       	addc.b	@r6,	r6	;
    1a72:	65 72       	subc.b	#4,	r5	;r2 As==10
    1a74:	3a 28       	jnc	$+118    	;abs 0x1aea
    1a76:	31 2c       	jc	$+100    	;abs 0x1ada
    1a78:	33 29       	jnc	$+616    	;abs 0x1ce0
    1a7a:	00 4d       	br	r13		;
    1a7c:	50 59 3a 47 	add.b	18234(r9),r0	;
    1a80:	28 31       	jn	$+594    	;abs 0x1cd2
    1a82:	38 2c       	jc	$+114    	;abs 0x1af4
    1a84:	38 29       	jnc	$+626    	;abs 0x1cf6
    1a86:	00 4d       	br	r13		;
    1a88:	50 59 53 3a 	add.b	14931(r9),r0	;
    1a8c:	47 28       	jnc	$+144    	;abs 0x1b1c
    1a8e:	31 38       	jl	$+100    	;abs 0x1af2
    1a90:	2c 38       	jl	$+90     	;abs 0x1aea
    1a92:	29 00       	.word	0x0029;	????
    1a94:	4d 41       	mov.b	r1,	r13	;
    1a96:	43 3a       	jl	$-888    	;abs 0x171e
    1a98:	47 28       	jnc	$+144    	;abs 0x1b28
    1a9a:	31 38       	jl	$+100    	;abs 0x1afe
    1a9c:	2c 38       	jl	$+90     	;abs 0x1af6
    1a9e:	29 00       	.word	0x0029;	????
    1aa0:	4d 41       	mov.b	r1,	r13	;
    1aa2:	43 53       	.word	0x5343;	????
    1aa4:	3a 47       	mov	@r7+,	r10	;
    1aa6:	28 31       	jn	$+594    	;abs 0x1cf8
    1aa8:	38 2c       	jc	$+114    	;abs 0x1b1a
    1aaa:	38 29       	jnc	$+626    	;abs 0x1d1c
    1aac:	00 4f       	br	r15		;
    1aae:	50 32       	jn	$-862    	;abs 0x1750
    1ab0:	3a 47       	mov	@r7+,	r10	;
    1ab2:	28 31       	jn	$+594    	;abs 0x1d04
    1ab4:	38 2c       	jc	$+114    	;abs 0x1b26
    1ab6:	38 29       	jnc	$+626    	;abs 0x1d28
    1ab8:	00 52       	add	r2,	r0	;
    1aba:	45 53       	add.b	#0,	r5	;r3 As==00
    1abc:	4c 4f       	mov.b	r15,	r12	;
    1abe:	3a 47       	mov	@r7+,	r10	;
    1ac0:	28 31       	jn	$+594    	;abs 0x1d12
    1ac2:	38 2c       	jc	$+114    	;abs 0x1b34
    1ac4:	38 29       	jnc	$+626    	;abs 0x1d36
    1ac6:	00 52       	add	r2,	r0	;
    1ac8:	45 53       	add.b	#0,	r5	;r3 As==00
    1aca:	48 49       	mov.b	r9,	r8	;
    1acc:	3a 47       	mov	@r7+,	r10	;
    1ace:	28 31       	jn	$+594    	;abs 0x1d20
    1ad0:	38 2c       	jc	$+114    	;abs 0x1b42
    1ad2:	38 29       	jnc	$+626    	;abs 0x1d44
    1ad4:	00 53       	add	#0,	r0	;r3 As==00
    1ad6:	55 4d 45 58 	mov.b	22597(r13),r5	;
    1ada:	54 3a       	jl	$-854    	;abs 0x1784
    1adc:	47 28       	jnc	$+144    	;abs 0x1b6c
    1ade:	31 38       	jl	$+100    	;abs 0x1b42
    1ae0:	2c 38       	jl	$+90     	;abs 0x1b3a
    1ae2:	29 00       	.word	0x0029;	????
    1ae4:	70 6f       	addc.b	@r15+,	r0	;
    1ae6:	72 74       	subc.b	@r4+,	r2	;
    1ae8:	31 3a       	jl	$-924    	;abs 0x174c
    1aea:	47 28       	jnc	$+144    	;abs 0x1b7a
    1aec:	31 36       	jge	$-924    	;abs 0x1750
    1aee:	2c 34       	jge	$+90     	;abs 0x1b48
    1af0:	29 00       	.word	0x0029;	????
    1af2:	70 6f       	addc.b	@r15+,	r0	;
    1af4:	72 74       	subc.b	@r4+,	r2	;
    1af6:	32 3a       	jl	$-922    	;abs 0x175c
    1af8:	47 28       	jnc	$+144    	;abs 0x1b88
    1afa:	31 36       	jge	$-924    	;abs 0x175e
    1afc:	2c 34       	jge	$+90     	;abs 0x1b56
    1afe:	29 00       	.word	0x0029;	????
    1b00:	70 6f       	addc.b	@r15+,	r0	;
    1b02:	72 74       	subc.b	@r4+,	r2	;
    1b04:	33 3a       	jl	$-920    	;abs 0x176c
    1b06:	47 28       	jnc	$+144    	;abs 0x1b96
    1b08:	31 36       	jge	$-924    	;abs 0x176c
    1b0a:	2c 35       	jge	$+602    	;abs 0x1d64
    1b0c:	29 00       	.word	0x0029;	????
    1b0e:	70 6f       	addc.b	@r15+,	r0	;
    1b10:	72 74       	subc.b	@r4+,	r2	;
    1b12:	34 3a       	jl	$-918    	;abs 0x177c
    1b14:	47 28       	jnc	$+144    	;abs 0x1ba4
    1b16:	31 36       	jge	$-924    	;abs 0x177a
    1b18:	2c 35       	jge	$+602    	;abs 0x1d72
    1b1a:	29 00       	.word	0x0029;	????
    1b1c:	70 6f       	addc.b	@r15+,	r0	;
    1b1e:	72 74       	subc.b	@r4+,	r2	;
    1b20:	35 3a       	jl	$-916    	;abs 0x178c
    1b22:	47 28       	jnc	$+144    	;abs 0x1bb2
    1b24:	31 36       	jge	$-924    	;abs 0x1788
    1b26:	2c 35       	jge	$+602    	;abs 0x1d80
    1b28:	29 00       	.word	0x0029;	????
    1b2a:	70 6f       	addc.b	@r15+,	r0	;
    1b2c:	72 74       	subc.b	@r4+,	r2	;
    1b2e:	36 3a       	jl	$-914    	;abs 0x179c
    1b30:	47 28       	jnc	$+144    	;abs 0x1bc0
    1b32:	31 36       	jge	$-924    	;abs 0x1796
    1b34:	2c 35       	jge	$+602    	;abs 0x1d8e
    1b36:	29 00       	.word	0x0029;	????
    1b38:	50 31       	jn	$+674    	;abs 0x1dda
    1b3a:	49 4e       	mov.b	r14,	r9	;
    1b3c:	3a 47       	mov	@r7+,	r10	;
    1b3e:	28 31       	jn	$+594    	;abs 0x1d90
    1b40:	2c 35       	jge	$+602    	;abs 0x1d9a
    1b42:	29 3d       	jmp	$+596    	;abs 0x1d96
    1b44:	42 28       	jnc	$+134    	;abs 0x1bca
    1b46:	30 2c       	jc	$+98     	;abs 0x1ba8
    1b48:	31 31       	jn	$+612    	;abs 0x1dac
    1b4a:	29 00       	.word	0x0029;	????
    1b4c:	50 31       	jn	$+674    	;abs 0x1dee
    1b4e:	4f 55       	add.b	r5,	r15	;
    1b50:	54 3a       	jl	$-854    	;abs 0x17fa
    1b52:	47 28       	jnc	$+144    	;abs 0x1be2
    1b54:	31 2c       	jc	$+100    	;abs 0x1bb8
    1b56:	35 29       	jnc	$+620    	;abs 0x1dc2
    1b58:	00 50       	rla	r0		;
    1b5a:	31 44       	mov	@r4+,	r1	;
    1b5c:	49 52       	add.b	r2,	r9	;
    1b5e:	3a 47       	mov	@r7+,	r10	;
    1b60:	28 31       	jn	$+594    	;abs 0x1db2
    1b62:	2c 35       	jge	$+602    	;abs 0x1dbc
    1b64:	29 00       	.word	0x0029;	????
    1b66:	50 31       	jn	$+674    	;abs 0x1e08
    1b68:	49 46       	mov.b	r6,	r9	;
    1b6a:	47 3a       	jl	$-880    	;abs 0x17fa
    1b6c:	47 28       	jnc	$+144    	;abs 0x1bfc
    1b6e:	31 2c       	jc	$+100    	;abs 0x1bd2
    1b70:	35 29       	jnc	$+620    	;abs 0x1ddc
    1b72:	00 50       	rla	r0		;
    1b74:	31 49       	mov	@r9+,	r1	;
    1b76:	45 53       	add.b	#0,	r5	;r3 As==00
    1b78:	3a 47       	mov	@r7+,	r10	;
    1b7a:	28 31       	jn	$+594    	;abs 0x1dcc
    1b7c:	2c 35       	jge	$+602    	;abs 0x1dd6
    1b7e:	29 00       	.word	0x0029;	????
    1b80:	50 31       	jn	$+674    	;abs 0x1e22
    1b82:	49 45       	mov.b	r5,	r9	;
    1b84:	3a 47       	mov	@r7+,	r10	;
    1b86:	28 31       	jn	$+594    	;abs 0x1dd8
    1b88:	2c 35       	jge	$+602    	;abs 0x1de2
    1b8a:	29 00       	.word	0x0029;	????
    1b8c:	50 31       	jn	$+674    	;abs 0x1e2e
    1b8e:	53 45       	.word	0x4553;	????
    1b90:	4c 3a       	jl	$-870    	;abs 0x182a
    1b92:	47 28       	jnc	$+144    	;abs 0x1c22
    1b94:	31 2c       	jc	$+100    	;abs 0x1bf8
    1b96:	35 29       	jnc	$+620    	;abs 0x1e02
    1b98:	00 50       	rla	r0		;
    1b9a:	31 52       	add	#8,	r1	;r2 As==11
    1b9c:	45 4e       	mov.b	r14,	r5	;
    1b9e:	3a 47       	mov	@r7+,	r10	;
    1ba0:	28 31       	jn	$+594    	;abs 0x1df2
    1ba2:	2c 35       	jge	$+602    	;abs 0x1dfc
    1ba4:	29 00       	.word	0x0029;	????
    1ba6:	50 32       	jn	$-862    	;abs 0x1848
    1ba8:	49 4e       	mov.b	r14,	r9	;
    1baa:	3a 47       	mov	@r7+,	r10	;
    1bac:	28 31       	jn	$+594    	;abs 0x1dfe
    1bae:	2c 35       	jge	$+602    	;abs 0x1e08
    1bb0:	29 00       	.word	0x0029;	????
    1bb2:	50 32       	jn	$-862    	;abs 0x1854
    1bb4:	4f 55       	add.b	r5,	r15	;
    1bb6:	54 3a       	jl	$-854    	;abs 0x1860
    1bb8:	47 28       	jnc	$+144    	;abs 0x1c48
    1bba:	31 2c       	jc	$+100    	;abs 0x1c1e
    1bbc:	35 29       	jnc	$+620    	;abs 0x1e28
    1bbe:	00 50       	rla	r0		;
    1bc0:	32 44       	mov	@r4+,	r2	;
    1bc2:	49 52       	add.b	r2,	r9	;
    1bc4:	3a 47       	mov	@r7+,	r10	;
    1bc6:	28 31       	jn	$+594    	;abs 0x1e18
    1bc8:	2c 35       	jge	$+602    	;abs 0x1e22
    1bca:	29 00       	.word	0x0029;	????
    1bcc:	50 32       	jn	$-862    	;abs 0x186e
    1bce:	49 46       	mov.b	r6,	r9	;
    1bd0:	47 3a       	jl	$-880    	;abs 0x1860
    1bd2:	47 28       	jnc	$+144    	;abs 0x1c62
    1bd4:	31 2c       	jc	$+100    	;abs 0x1c38
    1bd6:	35 29       	jnc	$+620    	;abs 0x1e42
    1bd8:	00 50       	rla	r0		;
    1bda:	32 49       	mov	@r9+,	r2	;
    1bdc:	45 53       	add.b	#0,	r5	;r3 As==00
    1bde:	3a 47       	mov	@r7+,	r10	;
    1be0:	28 31       	jn	$+594    	;abs 0x1e32
    1be2:	2c 35       	jge	$+602    	;abs 0x1e3c
    1be4:	29 00       	.word	0x0029;	????
    1be6:	50 32       	jn	$-862    	;abs 0x1888
    1be8:	49 45       	mov.b	r5,	r9	;
    1bea:	3a 47       	mov	@r7+,	r10	;
    1bec:	28 31       	jn	$+594    	;abs 0x1e3e
    1bee:	2c 35       	jge	$+602    	;abs 0x1e48
    1bf0:	29 00       	.word	0x0029;	????
    1bf2:	50 32       	jn	$-862    	;abs 0x1894
    1bf4:	53 45       	.word	0x4553;	????
    1bf6:	4c 3a       	jl	$-870    	;abs 0x1890
    1bf8:	47 28       	jnc	$+144    	;abs 0x1c88
    1bfa:	31 2c       	jc	$+100    	;abs 0x1c5e
    1bfc:	35 29       	jnc	$+620    	;abs 0x1e68
    1bfe:	00 50       	rla	r0		;
    1c00:	32 52       	add	#8,	r2	;r2 As==11
    1c02:	45 4e       	mov.b	r14,	r5	;
    1c04:	3a 47       	mov	@r7+,	r10	;
    1c06:	28 31       	jn	$+594    	;abs 0x1e58
    1c08:	2c 35       	jge	$+602    	;abs 0x1e62
    1c0a:	29 00       	.word	0x0029;	????
    1c0c:	50 33       	jn	$-350    	;abs 0x1aae
    1c0e:	49 4e       	mov.b	r14,	r9	;
    1c10:	3a 47       	mov	@r7+,	r10	;
    1c12:	28 31       	jn	$+594    	;abs 0x1e64
    1c14:	2c 35       	jge	$+602    	;abs 0x1e6e
    1c16:	29 00       	.word	0x0029;	????
    1c18:	50 33       	jn	$-350    	;abs 0x1aba
    1c1a:	4f 55       	add.b	r5,	r15	;
    1c1c:	54 3a       	jl	$-854    	;abs 0x18c6
    1c1e:	47 28       	jnc	$+144    	;abs 0x1cae
    1c20:	31 2c       	jc	$+100    	;abs 0x1c84
    1c22:	35 29       	jnc	$+620    	;abs 0x1e8e
    1c24:	00 50       	rla	r0		;
    1c26:	33 44       	.word	0x4433;	????
    1c28:	49 52       	add.b	r2,	r9	;
    1c2a:	3a 47       	mov	@r7+,	r10	;
    1c2c:	28 31       	jn	$+594    	;abs 0x1e7e
    1c2e:	2c 35       	jge	$+602    	;abs 0x1e88
    1c30:	29 00       	.word	0x0029;	????
    1c32:	50 33       	jn	$-350    	;abs 0x1ad4
    1c34:	53 45       	.word	0x4553;	????
    1c36:	4c 3a       	jl	$-870    	;abs 0x18d0
    1c38:	47 28       	jnc	$+144    	;abs 0x1cc8
    1c3a:	31 2c       	jc	$+100    	;abs 0x1c9e
    1c3c:	35 29       	jnc	$+620    	;abs 0x1ea8
    1c3e:	00 50       	rla	r0		;
    1c40:	33 52       	.word	0x5233;	????
    1c42:	45 4e       	mov.b	r14,	r5	;
    1c44:	3a 47       	mov	@r7+,	r10	;
    1c46:	28 31       	jn	$+594    	;abs 0x1e98
    1c48:	2c 35       	jge	$+602    	;abs 0x1ea2
    1c4a:	29 00       	.word	0x0029;	????
    1c4c:	50 34       	jge	$+162    	;abs 0x1cee
    1c4e:	49 4e       	mov.b	r14,	r9	;
    1c50:	3a 47       	mov	@r7+,	r10	;
    1c52:	28 31       	jn	$+594    	;abs 0x1ea4
    1c54:	2c 35       	jge	$+602    	;abs 0x1eae
    1c56:	29 00       	.word	0x0029;	????
    1c58:	50 34       	jge	$+162    	;abs 0x1cfa
    1c5a:	4f 55       	add.b	r5,	r15	;
    1c5c:	54 3a       	jl	$-854    	;abs 0x1906
    1c5e:	47 28       	jnc	$+144    	;abs 0x1cee
    1c60:	31 2c       	jc	$+100    	;abs 0x1cc4
    1c62:	35 29       	jnc	$+620    	;abs 0x1ece
    1c64:	00 50       	rla	r0		;
    1c66:	34 44       	mov	@r4+,	r4	;
    1c68:	49 52       	add.b	r2,	r9	;
    1c6a:	3a 47       	mov	@r7+,	r10	;
    1c6c:	28 31       	jn	$+594    	;abs 0x1ebe
    1c6e:	2c 35       	jge	$+602    	;abs 0x1ec8
    1c70:	29 00       	.word	0x0029;	????
    1c72:	50 34       	jge	$+162    	;abs 0x1d14
    1c74:	53 45       	.word	0x4553;	????
    1c76:	4c 3a       	jl	$-870    	;abs 0x1910
    1c78:	47 28       	jnc	$+144    	;abs 0x1d08
    1c7a:	31 2c       	jc	$+100    	;abs 0x1cde
    1c7c:	35 29       	jnc	$+620    	;abs 0x1ee8
    1c7e:	00 50       	rla	r0		;
    1c80:	34 52       	add	#8,	r4	;r2 As==11
    1c82:	45 4e       	mov.b	r14,	r5	;
    1c84:	3a 47       	mov	@r7+,	r10	;
    1c86:	28 31       	jn	$+594    	;abs 0x1ed8
    1c88:	2c 35       	jge	$+602    	;abs 0x1ee2
    1c8a:	29 00       	.word	0x0029;	????
    1c8c:	50 35       	jge	$+674    	;abs 0x1f2e
    1c8e:	49 4e       	mov.b	r14,	r9	;
    1c90:	3a 47       	mov	@r7+,	r10	;
    1c92:	28 31       	jn	$+594    	;abs 0x1ee4
    1c94:	2c 35       	jge	$+602    	;abs 0x1eee
    1c96:	29 00       	.word	0x0029;	????
    1c98:	50 35       	jge	$+674    	;abs 0x1f3a
    1c9a:	4f 55       	add.b	r5,	r15	;
    1c9c:	54 3a       	jl	$-854    	;abs 0x1946
    1c9e:	47 28       	jnc	$+144    	;abs 0x1d2e
    1ca0:	31 2c       	jc	$+100    	;abs 0x1d04
    1ca2:	35 29       	jnc	$+620    	;abs 0x1f0e
    1ca4:	00 50       	rla	r0		;
    1ca6:	35 44       	mov	@r4+,	r5	;
    1ca8:	49 52       	add.b	r2,	r9	;
    1caa:	3a 47       	mov	@r7+,	r10	;
    1cac:	28 31       	jn	$+594    	;abs 0x1efe
    1cae:	2c 35       	jge	$+602    	;abs 0x1f08
    1cb0:	29 00       	.word	0x0029;	????
    1cb2:	50 35       	jge	$+674    	;abs 0x1f54
    1cb4:	53 45       	.word	0x4553;	????
    1cb6:	4c 3a       	jl	$-870    	;abs 0x1950
    1cb8:	47 28       	jnc	$+144    	;abs 0x1d48
    1cba:	31 2c       	jc	$+100    	;abs 0x1d1e
    1cbc:	35 29       	jnc	$+620    	;abs 0x1f28
    1cbe:	00 50       	rla	r0		;
    1cc0:	35 52       	add	#8,	r5	;r2 As==11
    1cc2:	45 4e       	mov.b	r14,	r5	;
    1cc4:	3a 47       	mov	@r7+,	r10	;
    1cc6:	28 31       	jn	$+594    	;abs 0x1f18
    1cc8:	2c 35       	jge	$+602    	;abs 0x1f22
    1cca:	29 00       	.word	0x0029;	????
    1ccc:	50 36       	jge	$-862    	;abs 0x196e
    1cce:	49 4e       	mov.b	r14,	r9	;
    1cd0:	3a 47       	mov	@r7+,	r10	;
    1cd2:	28 31       	jn	$+594    	;abs 0x1f24
    1cd4:	2c 35       	jge	$+602    	;abs 0x1f2e
    1cd6:	29 00       	.word	0x0029;	????
    1cd8:	50 36       	jge	$-862    	;abs 0x197a
    1cda:	4f 55       	add.b	r5,	r15	;
    1cdc:	54 3a       	jl	$-854    	;abs 0x1986
    1cde:	47 28       	jnc	$+144    	;abs 0x1d6e
    1ce0:	31 2c       	jc	$+100    	;abs 0x1d44
    1ce2:	35 29       	jnc	$+620    	;abs 0x1f4e
    1ce4:	00 50       	rla	r0		;
    1ce6:	36 44       	mov	@r4+,	r6	;
    1ce8:	49 52       	add.b	r2,	r9	;
    1cea:	3a 47       	mov	@r7+,	r10	;
    1cec:	28 31       	jn	$+594    	;abs 0x1f3e
    1cee:	2c 35       	jge	$+602    	;abs 0x1f48
    1cf0:	29 00       	.word	0x0029;	????
    1cf2:	50 36       	jge	$-862    	;abs 0x1994
    1cf4:	53 45       	.word	0x4553;	????
    1cf6:	4c 3a       	jl	$-870    	;abs 0x1990
    1cf8:	47 28       	jnc	$+144    	;abs 0x1d88
    1cfa:	31 2c       	jc	$+100    	;abs 0x1d5e
    1cfc:	35 29       	jnc	$+620    	;abs 0x1f68
    1cfe:	00 50       	rla	r0		;
    1d00:	36 52       	add	#8,	r6	;r2 As==11
    1d02:	45 4e       	mov.b	r14,	r5	;
    1d04:	3a 47       	mov	@r7+,	r10	;
    1d06:	28 31       	jn	$+594    	;abs 0x1f58
    1d08:	2c 35       	jge	$+602    	;abs 0x1f62
    1d0a:	29 00       	.word	0x0029;	????
    1d0c:	55 43       	mov.b	#1,	r5	;r3 As==01
    1d0e:	41 30       	jn	$+132    	;abs 0x1d92
    1d10:	43 54       	.word	0x5443;	????
    1d12:	4c 30       	jn	$+154    	;abs 0x1dac
    1d14:	3a 47       	mov	@r7+,	r10	;
    1d16:	28 31       	jn	$+594    	;abs 0x1f68
    1d18:	2c 35       	jge	$+602    	;abs 0x1f72
    1d1a:	29 00       	.word	0x0029;	????
    1d1c:	55 43       	mov.b	#1,	r5	;r3 As==01
    1d1e:	41 30       	jn	$+132    	;abs 0x1da2
    1d20:	43 54       	.word	0x5443;	????
    1d22:	4c 31       	jn	$+666    	;abs 0x1fbc
    1d24:	3a 47       	mov	@r7+,	r10	;
    1d26:	28 31       	jn	$+594    	;abs 0x1f78
    1d28:	2c 35       	jge	$+602    	;abs 0x1f82
    1d2a:	29 00       	.word	0x0029;	????
    1d2c:	55 43       	mov.b	#1,	r5	;r3 As==01
    1d2e:	41 30       	jn	$+132    	;abs 0x1db2
    1d30:	42 52       	rla.b	r2		;
    1d32:	30 3a       	jl	$-926    	;abs 0x1994
    1d34:	47 28       	jnc	$+144    	;abs 0x1dc4
    1d36:	31 2c       	jc	$+100    	;abs 0x1d9a
    1d38:	35 29       	jnc	$+620    	;abs 0x1fa4
    1d3a:	00 55       	add	r5,	r0	;
    1d3c:	43 41       	.word	0x4143;	????
    1d3e:	30 42       	br	#8		;r2 As==11
    1d40:	52 31       	jn	$+678    	;abs 0x1fe6
    1d42:	3a 47       	mov	@r7+,	r10	;
    1d44:	28 31       	jn	$+594    	;abs 0x1f96
    1d46:	2c 35       	jge	$+602    	;abs 0x1fa0
    1d48:	29 00       	.word	0x0029;	????
    1d4a:	55 43       	mov.b	#1,	r5	;r3 As==01
    1d4c:	41 30       	jn	$+132    	;abs 0x1dd0
    1d4e:	4d 43       	clr.b	r13		;
    1d50:	54 4c 3a 47 	mov.b	18234(r12),r4	;
    1d54:	28 31       	jn	$+594    	;abs 0x1fa6
    1d56:	2c 35       	jge	$+602    	;abs 0x1fb0
    1d58:	29 00       	.word	0x0029;	????
    1d5a:	55 43       	mov.b	#1,	r5	;r3 As==01
    1d5c:	41 30       	jn	$+132    	;abs 0x1de0
    1d5e:	53 54       	.word	0x5453;	????
    1d60:	41 54       	add.b	r4,	r1	;
    1d62:	3a 47       	mov	@r7+,	r10	;
    1d64:	28 31       	jn	$+594    	;abs 0x1fb6
    1d66:	2c 35       	jge	$+602    	;abs 0x1fc0
    1d68:	29 00       	.word	0x0029;	????
    1d6a:	55 43       	mov.b	#1,	r5	;r3 As==01
    1d6c:	41 30       	jn	$+132    	;abs 0x1df0
    1d6e:	52 58 42 55 	add.b	21826(r8),r2	;
    1d72:	46 3a       	jl	$-882    	;abs 0x1a00
    1d74:	47 28       	jnc	$+144    	;abs 0x1e04
    1d76:	31 2c       	jc	$+100    	;abs 0x1dda
    1d78:	35 29       	jnc	$+620    	;abs 0x1fe4
    1d7a:	00 55       	add	r5,	r0	;
    1d7c:	43 41       	.word	0x4143;	????
    1d7e:	30 54       	add	@r4+,	r0	;
    1d80:	58 42 55 46 	mov.b	&0x4655,r8	;0x4655
    1d84:	3a 47       	mov	@r7+,	r10	;
    1d86:	28 31       	jn	$+594    	;abs 0x1fd8
    1d88:	2c 35       	jge	$+602    	;abs 0x1fe2
    1d8a:	29 00       	.word	0x0029;	????
    1d8c:	55 43       	mov.b	#1,	r5	;r3 As==01
    1d8e:	41 30       	jn	$+132    	;abs 0x1e12
    1d90:	41 42       	mov.b	r2,	r1	;
    1d92:	43 54       	.word	0x5443;	????
    1d94:	4c 3a       	jl	$-870    	;abs 0x1a2e
    1d96:	47 28       	jnc	$+144    	;abs 0x1e26
    1d98:	31 2c       	jc	$+100    	;abs 0x1dfc
    1d9a:	35 29       	jnc	$+620    	;abs 0x2006
    1d9c:	00 55       	add	r5,	r0	;
    1d9e:	43 41       	.word	0x4143;	????
    1da0:	30 49       	br	@r9+		;
    1da2:	52 54 43 54 	add.b	21571(r4),r2	;
    1da6:	4c 3a       	jl	$-870    	;abs 0x1a40
    1da8:	47 28       	jnc	$+144    	;abs 0x1e38
    1daa:	31 2c       	jc	$+100    	;abs 0x1e0e
    1dac:	35 29       	jnc	$+620    	;abs 0x2018
    1dae:	00 55       	add	r5,	r0	;
    1db0:	43 41       	.word	0x4143;	????
    1db2:	30 49       	br	@r9+		;
    1db4:	52 52 43 54 	add.b	&0x5443,r2	;0x5443
    1db8:	4c 3a       	jl	$-870    	;abs 0x1a52
    1dba:	47 28       	jnc	$+144    	;abs 0x1e4a
    1dbc:	31 2c       	jc	$+100    	;abs 0x1e20
    1dbe:	35 29       	jnc	$+620    	;abs 0x202a
    1dc0:	00 55       	add	r5,	r0	;
    1dc2:	43 42       	.word	0x4243;	????
    1dc4:	30 43       	br	#-1		;r3 As==11
    1dc6:	54 4c 30 3a 	mov.b	14896(r12),r4	;
    1dca:	47 28       	jnc	$+144    	;abs 0x1e5a
    1dcc:	31 2c       	jc	$+100    	;abs 0x1e30
    1dce:	35 29       	jnc	$+620    	;abs 0x203a
    1dd0:	00 55       	add	r5,	r0	;
    1dd2:	43 42       	.word	0x4243;	????
    1dd4:	30 43       	br	#-1		;r3 As==11
    1dd6:	54 4c 31 3a 	mov.b	14897(r12),r4	;
    1dda:	47 28       	jnc	$+144    	;abs 0x1e6a
    1ddc:	31 2c       	jc	$+100    	;abs 0x1e40
    1dde:	35 29       	jnc	$+620    	;abs 0x204a
    1de0:	00 55       	add	r5,	r0	;
    1de2:	43 42       	.word	0x4243;	????
    1de4:	30 42       	br	#8		;r2 As==11
    1de6:	52 30       	jn	$+166    	;abs 0x1e8c
    1de8:	3a 47       	mov	@r7+,	r10	;
    1dea:	28 31       	jn	$+594    	;abs 0x203c
    1dec:	2c 35       	jge	$+602    	;abs 0x2046
    1dee:	29 00       	.word	0x0029;	????
    1df0:	55 43       	mov.b	#1,	r5	;r3 As==01
    1df2:	42 30       	jn	$+134    	;abs 0x1e78
    1df4:	42 52       	rla.b	r2		;
    1df6:	31 3a       	jl	$-924    	;abs 0x1a5a
    1df8:	47 28       	jnc	$+144    	;abs 0x1e88
    1dfa:	31 2c       	jc	$+100    	;abs 0x1e5e
    1dfc:	35 29       	jnc	$+620    	;abs 0x2068
    1dfe:	00 55       	add	r5,	r0	;
    1e00:	43 42       	.word	0x4243;	????
    1e02:	30 49       	br	@r9+		;
    1e04:	32 43       	mov	#-1,	r2	;r3 As==11
    1e06:	49 45       	mov.b	r5,	r9	;
    1e08:	3a 47       	mov	@r7+,	r10	;
    1e0a:	28 31       	jn	$+594    	;abs 0x205c
    1e0c:	2c 35       	jge	$+602    	;abs 0x2066
    1e0e:	29 00       	.word	0x0029;	????
    1e10:	55 43       	mov.b	#1,	r5	;r3 As==01
    1e12:	42 30       	jn	$+134    	;abs 0x1e98
    1e14:	53 54       	.word	0x5453;	????
    1e16:	41 54       	add.b	r4,	r1	;
    1e18:	3a 47       	mov	@r7+,	r10	;
    1e1a:	28 31       	jn	$+594    	;abs 0x206c
    1e1c:	2c 35       	jge	$+602    	;abs 0x2076
    1e1e:	29 00       	.word	0x0029;	????
    1e20:	55 43       	mov.b	#1,	r5	;r3 As==01
    1e22:	42 30       	jn	$+134    	;abs 0x1ea8
    1e24:	52 58 42 55 	add.b	21826(r8),r2	;
    1e28:	46 3a       	jl	$-882    	;abs 0x1ab6
    1e2a:	47 28       	jnc	$+144    	;abs 0x1eba
    1e2c:	31 2c       	jc	$+100    	;abs 0x1e90
    1e2e:	35 29       	jnc	$+620    	;abs 0x209a
    1e30:	00 55       	add	r5,	r0	;
    1e32:	43 42       	.word	0x4243;	????
    1e34:	30 54       	add	@r4+,	r0	;
    1e36:	58 42 55 46 	mov.b	&0x4655,r8	;0x4655
    1e3a:	3a 47       	mov	@r7+,	r10	;
    1e3c:	28 31       	jn	$+594    	;abs 0x208e
    1e3e:	2c 35       	jge	$+602    	;abs 0x2098
    1e40:	29 00       	.word	0x0029;	????
    1e42:	55 43       	mov.b	#1,	r5	;r3 As==01
    1e44:	42 30       	jn	$+134    	;abs 0x1eca
    1e46:	49 32       	jn	$-876    	;abs 0x1ada
    1e48:	43 4f       	.word	0x4f43;	????
    1e4a:	41 3a       	jl	$-892    	;abs 0x1ace
    1e4c:	47 28       	jnc	$+144    	;abs 0x1edc
    1e4e:	31 38       	jl	$+100    	;abs 0x1eb2
    1e50:	2c 38       	jl	$+90     	;abs 0x1eaa
    1e52:	29 00       	.word	0x0029;	????
    1e54:	55 43       	mov.b	#1,	r5	;r3 As==01
    1e56:	42 30       	jn	$+134    	;abs 0x1edc
    1e58:	49 32       	jn	$-876    	;abs 0x1aec
    1e5a:	43 53       	.word	0x5343;	????
    1e5c:	41 3a       	jl	$-892    	;abs 0x1ae0
    1e5e:	47 28       	jnc	$+144    	;abs 0x1eee
    1e60:	31 38       	jl	$+100    	;abs 0x1ec4
    1e62:	2c 38       	jl	$+90     	;abs 0x1ebc
    1e64:	29 00       	.word	0x0029;	????
    1e66:	55 43       	mov.b	#1,	r5	;r3 As==01
    1e68:	41 31       	jn	$+644    	;abs 0x20ec
    1e6a:	43 54       	.word	0x5443;	????
    1e6c:	4c 30       	jn	$+154    	;abs 0x1f06
    1e6e:	3a 47       	mov	@r7+,	r10	;
    1e70:	28 31       	jn	$+594    	;abs 0x20c2
    1e72:	2c 35       	jge	$+602    	;abs 0x20cc
    1e74:	29 00       	.word	0x0029;	????
    1e76:	55 43       	mov.b	#1,	r5	;r3 As==01
    1e78:	41 31       	jn	$+644    	;abs 0x20fc
    1e7a:	43 54       	.word	0x5443;	????
    1e7c:	4c 31       	jn	$+666    	;abs 0x2116
    1e7e:	3a 47       	mov	@r7+,	r10	;
    1e80:	28 31       	jn	$+594    	;abs 0x20d2
    1e82:	2c 35       	jge	$+602    	;abs 0x20dc
    1e84:	29 00       	.word	0x0029;	????
    1e86:	55 43       	mov.b	#1,	r5	;r3 As==01
    1e88:	41 31       	jn	$+644    	;abs 0x210c
    1e8a:	42 52       	rla.b	r2		;
    1e8c:	30 3a       	jl	$-926    	;abs 0x1aee
    1e8e:	47 28       	jnc	$+144    	;abs 0x1f1e
    1e90:	31 2c       	jc	$+100    	;abs 0x1ef4
    1e92:	35 29       	jnc	$+620    	;abs 0x20fe
    1e94:	00 55       	add	r5,	r0	;
    1e96:	43 41       	.word	0x4143;	????
    1e98:	31 42       	mov	#8,	r1	;r2 As==11
    1e9a:	52 31       	jn	$+678    	;abs 0x2140
    1e9c:	3a 47       	mov	@r7+,	r10	;
    1e9e:	28 31       	jn	$+594    	;abs 0x20f0
    1ea0:	2c 35       	jge	$+602    	;abs 0x20fa
    1ea2:	29 00       	.word	0x0029;	????
    1ea4:	55 43       	mov.b	#1,	r5	;r3 As==01
    1ea6:	41 31       	jn	$+644    	;abs 0x212a
    1ea8:	4d 43       	clr.b	r13		;
    1eaa:	54 4c 3a 47 	mov.b	18234(r12),r4	;
    1eae:	28 31       	jn	$+594    	;abs 0x2100
    1eb0:	2c 35       	jge	$+602    	;abs 0x210a
    1eb2:	29 00       	.word	0x0029;	????
    1eb4:	55 43       	mov.b	#1,	r5	;r3 As==01
    1eb6:	41 31       	jn	$+644    	;abs 0x213a
    1eb8:	53 54       	.word	0x5453;	????
    1eba:	41 54       	add.b	r4,	r1	;
    1ebc:	3a 47       	mov	@r7+,	r10	;
    1ebe:	28 31       	jn	$+594    	;abs 0x2110
    1ec0:	2c 35       	jge	$+602    	;abs 0x211a
    1ec2:	29 00       	.word	0x0029;	????
    1ec4:	55 43       	mov.b	#1,	r5	;r3 As==01
    1ec6:	41 31       	jn	$+644    	;abs 0x214a
    1ec8:	52 58 42 55 	add.b	21826(r8),r2	;
    1ecc:	46 3a       	jl	$-882    	;abs 0x1b5a
    1ece:	47 28       	jnc	$+144    	;abs 0x1f5e
    1ed0:	31 2c       	jc	$+100    	;abs 0x1f34
    1ed2:	35 29       	jnc	$+620    	;abs 0x213e
    1ed4:	00 55       	add	r5,	r0	;
    1ed6:	43 41       	.word	0x4143;	????
    1ed8:	31 54       	add	@r4+,	r1	;
    1eda:	58 42 55 46 	mov.b	&0x4655,r8	;0x4655
    1ede:	3a 47       	mov	@r7+,	r10	;
    1ee0:	28 31       	jn	$+594    	;abs 0x2132
    1ee2:	2c 35       	jge	$+602    	;abs 0x213c
    1ee4:	29 00       	.word	0x0029;	????
    1ee6:	55 43       	mov.b	#1,	r5	;r3 As==01
    1ee8:	41 31       	jn	$+644    	;abs 0x216c
    1eea:	41 42       	mov.b	r2,	r1	;
    1eec:	43 54       	.word	0x5443;	????
    1eee:	4c 3a       	jl	$-870    	;abs 0x1b88
    1ef0:	47 28       	jnc	$+144    	;abs 0x1f80
    1ef2:	31 2c       	jc	$+100    	;abs 0x1f56
    1ef4:	35 29       	jnc	$+620    	;abs 0x2160
    1ef6:	00 55       	add	r5,	r0	;
    1ef8:	43 41       	.word	0x4143;	????
    1efa:	31 49       	mov	@r9+,	r1	;
    1efc:	52 54 43 54 	add.b	21571(r4),r2	;
    1f00:	4c 3a       	jl	$-870    	;abs 0x1b9a
    1f02:	47 28       	jnc	$+144    	;abs 0x1f92
    1f04:	31 2c       	jc	$+100    	;abs 0x1f68
    1f06:	35 29       	jnc	$+620    	;abs 0x2172
    1f08:	00 55       	add	r5,	r0	;
    1f0a:	43 41       	.word	0x4143;	????
    1f0c:	31 49       	mov	@r9+,	r1	;
    1f0e:	52 52 43 54 	add.b	&0x5443,r2	;0x5443
    1f12:	4c 3a       	jl	$-870    	;abs 0x1bac
    1f14:	47 28       	jnc	$+144    	;abs 0x1fa4
    1f16:	31 2c       	jc	$+100    	;abs 0x1f7a
    1f18:	35 29       	jnc	$+620    	;abs 0x2184
    1f1a:	00 55       	add	r5,	r0	;
    1f1c:	43 42       	.word	0x4243;	????
    1f1e:	31 43       	mov	#-1,	r1	;r3 As==11
    1f20:	54 4c 30 3a 	mov.b	14896(r12),r4	;
    1f24:	47 28       	jnc	$+144    	;abs 0x1fb4
    1f26:	31 2c       	jc	$+100    	;abs 0x1f8a
    1f28:	35 29       	jnc	$+620    	;abs 0x2194
    1f2a:	00 55       	add	r5,	r0	;
    1f2c:	43 42       	.word	0x4243;	????
    1f2e:	31 43       	mov	#-1,	r1	;r3 As==11
    1f30:	54 4c 31 3a 	mov.b	14897(r12),r4	;
    1f34:	47 28       	jnc	$+144    	;abs 0x1fc4
    1f36:	31 2c       	jc	$+100    	;abs 0x1f9a
    1f38:	35 29       	jnc	$+620    	;abs 0x21a4
    1f3a:	00 55       	add	r5,	r0	;
    1f3c:	43 42       	.word	0x4243;	????
    1f3e:	31 42       	mov	#8,	r1	;r2 As==11
    1f40:	52 30       	jn	$+166    	;abs 0x1fe6
    1f42:	3a 47       	mov	@r7+,	r10	;
    1f44:	28 31       	jn	$+594    	;abs 0x2196
    1f46:	2c 35       	jge	$+602    	;abs 0x21a0
    1f48:	29 00       	.word	0x0029;	????
    1f4a:	55 43       	mov.b	#1,	r5	;r3 As==01
    1f4c:	42 31       	jn	$+646    	;abs 0x21d2
    1f4e:	42 52       	rla.b	r2		;
    1f50:	31 3a       	jl	$-924    	;abs 0x1bb4
    1f52:	47 28       	jnc	$+144    	;abs 0x1fe2
    1f54:	31 2c       	jc	$+100    	;abs 0x1fb8
    1f56:	35 29       	jnc	$+620    	;abs 0x21c2
    1f58:	00 55       	add	r5,	r0	;
    1f5a:	43 42       	.word	0x4243;	????
    1f5c:	31 49       	mov	@r9+,	r1	;
    1f5e:	32 43       	mov	#-1,	r2	;r3 As==11
    1f60:	49 45       	mov.b	r5,	r9	;
    1f62:	3a 47       	mov	@r7+,	r10	;
    1f64:	28 31       	jn	$+594    	;abs 0x21b6
    1f66:	2c 35       	jge	$+602    	;abs 0x21c0
    1f68:	29 00       	.word	0x0029;	????
    1f6a:	55 43       	mov.b	#1,	r5	;r3 As==01
    1f6c:	42 31       	jn	$+646    	;abs 0x21f2
    1f6e:	53 54       	.word	0x5453;	????
    1f70:	41 54       	add.b	r4,	r1	;
    1f72:	3a 47       	mov	@r7+,	r10	;
    1f74:	28 31       	jn	$+594    	;abs 0x21c6
    1f76:	2c 35       	jge	$+602    	;abs 0x21d0
    1f78:	29 00       	.word	0x0029;	????
    1f7a:	55 43       	mov.b	#1,	r5	;r3 As==01
    1f7c:	42 31       	jn	$+646    	;abs 0x2202
    1f7e:	52 58 42 55 	add.b	21826(r8),r2	;
    1f82:	46 3a       	jl	$-882    	;abs 0x1c10
    1f84:	47 28       	jnc	$+144    	;abs 0x2014
    1f86:	31 2c       	jc	$+100    	;abs 0x1fea
    1f88:	35 29       	jnc	$+620    	;abs 0x21f4
    1f8a:	00 55       	add	r5,	r0	;
    1f8c:	43 42       	.word	0x4243;	????
    1f8e:	31 54       	add	@r4+,	r1	;
    1f90:	58 42 55 46 	mov.b	&0x4655,r8	;0x4655
    1f94:	3a 47       	mov	@r7+,	r10	;
    1f96:	28 31       	jn	$+594    	;abs 0x21e8
    1f98:	2c 35       	jge	$+602    	;abs 0x21f2
    1f9a:	29 00       	.word	0x0029;	????
    1f9c:	55 43       	mov.b	#1,	r5	;r3 As==01
    1f9e:	42 31       	jn	$+646    	;abs 0x2224
    1fa0:	49 32       	jn	$-876    	;abs 0x1c34
    1fa2:	43 4f       	.word	0x4f43;	????
    1fa4:	41 3a       	jl	$-892    	;abs 0x1c28
    1fa6:	47 28       	jnc	$+144    	;abs 0x2036
    1fa8:	31 38       	jl	$+100    	;abs 0x200c
    1faa:	2c 38       	jl	$+90     	;abs 0x2004
    1fac:	29 00       	.word	0x0029;	????
    1fae:	55 43       	mov.b	#1,	r5	;r3 As==01
    1fb0:	42 31       	jn	$+646    	;abs 0x2236
    1fb2:	49 32       	jn	$-876    	;abs 0x1c46
    1fb4:	43 53       	.word	0x5343;	????
    1fb6:	41 3a       	jl	$-892    	;abs 0x1c3a
    1fb8:	47 28       	jnc	$+144    	;abs 0x2048
    1fba:	31 38       	jl	$+100    	;abs 0x201e
    1fbc:	2c 38       	jl	$+90     	;abs 0x2016
    1fbe:	29 00       	.word	0x0029;	????
    1fc0:	55 43       	mov.b	#1,	r5	;r3 As==01
    1fc2:	31 49       	mov	@r9+,	r1	;
    1fc4:	45 3a       	jl	$-884    	;abs 0x1c50
    1fc6:	47 28       	jnc	$+144    	;abs 0x2056
    1fc8:	31 2c       	jc	$+100    	;abs 0x202c
    1fca:	35 29       	jnc	$+620    	;abs 0x2236
    1fcc:	00 55       	add	r5,	r0	;
    1fce:	43 31       	jn	$+648    	;abs 0x2256
    1fd0:	49 46       	mov.b	r6,	r9	;
    1fd2:	47 3a       	jl	$-880    	;abs 0x1c62
    1fd4:	47 28       	jnc	$+144    	;abs 0x2064
    1fd6:	31 2c       	jc	$+100    	;abs 0x203a
    1fd8:	35 29       	jnc	$+620    	;abs 0x2244
    1fda:	00 54       	add	r4,	r0	;
    1fdc:	41 30       	jn	$+132    	;abs 0x2060
    1fde:	49 56       	add.b	r6,	r9	;
    1fe0:	3a 47       	mov	@r7+,	r10	;
    1fe2:	28 31       	jn	$+594    	;abs 0x2234
    1fe4:	38 2c       	jc	$+114    	;abs 0x2056
    1fe6:	38 29       	jnc	$+626    	;abs 0x2258
    1fe8:	00 54       	add	r4,	r0	;
    1fea:	41 30       	jn	$+132    	;abs 0x206e
    1fec:	43 54       	.word	0x5443;	????
    1fee:	4c 3a       	jl	$-870    	;abs 0x1c88
    1ff0:	47 28       	jnc	$+144    	;abs 0x2080
    1ff2:	31 38       	jl	$+100    	;abs 0x2056
    1ff4:	2c 38       	jl	$+90     	;abs 0x204e
    1ff6:	29 00       	.word	0x0029;	????
    1ff8:	54 41 30 52 	mov.b	21040(r1),r4	;
    1ffc:	3a 47       	mov	@r7+,	r10	;
    1ffe:	28 31       	jn	$+594    	;abs 0x2250
    2000:	38 2c       	jc	$+114    	;abs 0x2072
    2002:	38 29       	jnc	$+626    	;abs 0x2274
    2004:	00 54       	add	r4,	r0	;
    2006:	41 30       	jn	$+132    	;abs 0x208a
    2008:	43 43       	clr.b	r3		;
    200a:	54 4c 30 3a 	mov.b	14896(r12),r4	;
    200e:	47 28       	jnc	$+144    	;abs 0x209e
    2010:	31 38       	jl	$+100    	;abs 0x2074
    2012:	2c 38       	jl	$+90     	;abs 0x206c
    2014:	29 00       	.word	0x0029;	????
    2016:	54 41 30 43 	mov.b	17200(r1),r4	;
    201a:	43 54       	.word	0x5443;	????
    201c:	4c 31       	jn	$+666    	;abs 0x22b6
    201e:	3a 47       	mov	@r7+,	r10	;
    2020:	28 31       	jn	$+594    	;abs 0x2272
    2022:	38 2c       	jc	$+114    	;abs 0x2094
    2024:	38 29       	jnc	$+626    	;abs 0x2296
    2026:	00 54       	add	r4,	r0	;
    2028:	41 30       	jn	$+132    	;abs 0x20ac
    202a:	43 43       	clr.b	r3		;
    202c:	52 30       	jn	$+166    	;abs 0x20d2
    202e:	3a 47       	mov	@r7+,	r10	;
    2030:	28 31       	jn	$+594    	;abs 0x2282
    2032:	38 2c       	jc	$+114    	;abs 0x20a4
    2034:	38 29       	jnc	$+626    	;abs 0x22a6
    2036:	00 54       	add	r4,	r0	;
    2038:	41 30       	jn	$+132    	;abs 0x20bc
    203a:	43 43       	clr.b	r3		;
    203c:	52 31       	jn	$+678    	;abs 0x22e2
    203e:	3a 47       	mov	@r7+,	r10	;
    2040:	28 31       	jn	$+594    	;abs 0x2292
    2042:	38 2c       	jc	$+114    	;abs 0x20b4
    2044:	38 29       	jnc	$+626    	;abs 0x22b6
    2046:	00 54       	add	r4,	r0	;
    2048:	41 30       	jn	$+132    	;abs 0x20cc
    204a:	43 43       	clr.b	r3		;
    204c:	54 4c 32 3a 	mov.b	14898(r12),r4	;
    2050:	47 28       	jnc	$+144    	;abs 0x20e0
    2052:	31 38       	jl	$+100    	;abs 0x20b6
    2054:	2c 38       	jl	$+90     	;abs 0x20ae
    2056:	29 00       	.word	0x0029;	????
    2058:	54 41 30 43 	mov.b	17200(r1),r4	;
    205c:	43 52       	.word	0x5243;	????
    205e:	32 3a       	jl	$-922    	;abs 0x1cc4
    2060:	47 28       	jnc	$+144    	;abs 0x20f0
    2062:	31 38       	jl	$+100    	;abs 0x20c6
    2064:	2c 38       	jl	$+90     	;abs 0x20be
    2066:	29 00       	.word	0x0029;	????
    2068:	74 69       	addc.b	@r9+,	r4	;
    206a:	6d 65       	addc.b	@r5,	r13	;
    206c:	72 61       	addc.b	@r1+,	r2	;
    206e:	3a 47       	mov	@r7+,	r10	;
    2070:	28 31       	jn	$+594    	;abs 0x22c2
    2072:	38 2c       	jc	$+114    	;abs 0x20e4
    2074:	35 29       	jnc	$+620    	;abs 0x22e0
    2076:	00 54       	add	r4,	r0	;
    2078:	42 49       	mov.b	r9,	r2	;
    207a:	56 3a       	jl	$-850    	;abs 0x1d28
    207c:	47 28       	jnc	$+144    	;abs 0x210c
    207e:	31 38       	jl	$+100    	;abs 0x20e2
    2080:	2c 38       	jl	$+90     	;abs 0x20da
    2082:	29 00       	.word	0x0029;	????
    2084:	54 42 43 54 	mov.b	&0x5443,r4	;0x5443
    2088:	4c 3a       	jl	$-870    	;abs 0x1d22
    208a:	47 28       	jnc	$+144    	;abs 0x211a
    208c:	31 38       	jl	$+100    	;abs 0x20f0
    208e:	2c 38       	jl	$+90     	;abs 0x20e8
    2090:	29 00       	.word	0x0029;	????
    2092:	54 42 52 3a 	mov.b	&0x3a52,r4	;0x3a52
    2096:	47 28       	jnc	$+144    	;abs 0x2126
    2098:	31 38       	jl	$+100    	;abs 0x20fc
    209a:	2c 38       	jl	$+90     	;abs 0x20f4
    209c:	29 00       	.word	0x0029;	????
    209e:	54 42 43 43 	mov.b	&0x4343,r4	;0x4343
    20a2:	54 4c 30 3a 	mov.b	14896(r12),r4	;
    20a6:	47 28       	jnc	$+144    	;abs 0x2136
    20a8:	31 38       	jl	$+100    	;abs 0x210c
    20aa:	2c 38       	jl	$+90     	;abs 0x2104
    20ac:	29 00       	.word	0x0029;	????
    20ae:	54 42 43 43 	mov.b	&0x4343,r4	;0x4343
    20b2:	54 4c 31 3a 	mov.b	14897(r12),r4	;
    20b6:	47 28       	jnc	$+144    	;abs 0x2146
    20b8:	31 38       	jl	$+100    	;abs 0x211c
    20ba:	2c 38       	jl	$+90     	;abs 0x2114
    20bc:	29 00       	.word	0x0029;	????
    20be:	54 42 43 43 	mov.b	&0x4343,r4	;0x4343
    20c2:	54 4c 32 3a 	mov.b	14898(r12),r4	;
    20c6:	47 28       	jnc	$+144    	;abs 0x2156
    20c8:	31 38       	jl	$+100    	;abs 0x212c
    20ca:	2c 38       	jl	$+90     	;abs 0x2124
    20cc:	29 00       	.word	0x0029;	????
    20ce:	54 42 43 43 	mov.b	&0x4343,r4	;0x4343
    20d2:	52 30       	jn	$+166    	;abs 0x2178
    20d4:	3a 47       	mov	@r7+,	r10	;
    20d6:	28 31       	jn	$+594    	;abs 0x2328
    20d8:	38 2c       	jc	$+114    	;abs 0x214a
    20da:	38 29       	jnc	$+626    	;abs 0x234c
    20dc:	00 54       	add	r4,	r0	;
    20de:	42 43       	clr.b	r2		;
    20e0:	43 52       	.word	0x5243;	????
    20e2:	31 3a       	jl	$-924    	;abs 0x1d46
    20e4:	47 28       	jnc	$+144    	;abs 0x2174
    20e6:	31 38       	jl	$+100    	;abs 0x214a
    20e8:	2c 38       	jl	$+90     	;abs 0x2142
    20ea:	29 00       	.word	0x0029;	????
    20ec:	54 42 43 43 	mov.b	&0x4343,r4	;0x4343
    20f0:	52 32       	jn	$-858    	;abs 0x1d96
    20f2:	3a 47       	mov	@r7+,	r10	;
    20f4:	28 31       	jn	$+594    	;abs 0x2346
    20f6:	38 2c       	jc	$+114    	;abs 0x2168
    20f8:	38 29       	jnc	$+626    	;abs 0x236a
    20fa:	00 54       	add	r4,	r0	;
    20fc:	42 43       	clr.b	r2		;
    20fe:	43 54       	.word	0x5443;	????
    2100:	4c 33       	jn	$-358    	;abs 0x1f9a
    2102:	3a 47       	mov	@r7+,	r10	;
    2104:	28 31       	jn	$+594    	;abs 0x2356
    2106:	38 2c       	jc	$+114    	;abs 0x2178
    2108:	38 29       	jnc	$+626    	;abs 0x237a
    210a:	00 54       	add	r4,	r0	;
    210c:	42 43       	clr.b	r2		;
    210e:	43 54       	.word	0x5443;	????
    2110:	4c 34       	jge	$+154    	;abs 0x21aa
    2112:	3a 47       	mov	@r7+,	r10	;
    2114:	28 31       	jn	$+594    	;abs 0x2366
    2116:	38 2c       	jc	$+114    	;abs 0x2188
    2118:	38 29       	jnc	$+626    	;abs 0x238a
    211a:	00 54       	add	r4,	r0	;
    211c:	42 43       	clr.b	r2		;
    211e:	43 54       	.word	0x5443;	????
    2120:	4c 35       	jge	$+666    	;abs 0x23ba
    2122:	3a 47       	mov	@r7+,	r10	;
    2124:	28 31       	jn	$+594    	;abs 0x2376
    2126:	38 2c       	jc	$+114    	;abs 0x2198
    2128:	38 29       	jnc	$+626    	;abs 0x239a
    212a:	00 54       	add	r4,	r0	;
    212c:	42 43       	clr.b	r2		;
    212e:	43 54       	.word	0x5443;	????
    2130:	4c 36       	jge	$-870    	;abs 0x1dca
    2132:	3a 47       	mov	@r7+,	r10	;
    2134:	28 31       	jn	$+594    	;abs 0x2386
    2136:	38 2c       	jc	$+114    	;abs 0x21a8
    2138:	38 29       	jnc	$+626    	;abs 0x23aa
    213a:	00 54       	add	r4,	r0	;
    213c:	42 43       	clr.b	r2		;
    213e:	43 52       	.word	0x5243;	????
    2140:	33 3a       	jl	$-920    	;abs 0x1da8
    2142:	47 28       	jnc	$+144    	;abs 0x21d2
    2144:	31 38       	jl	$+100    	;abs 0x21a8
    2146:	2c 38       	jl	$+90     	;abs 0x21a0
    2148:	29 00       	.word	0x0029;	????
    214a:	54 42 43 43 	mov.b	&0x4343,r4	;0x4343
    214e:	52 34       	jge	$+166    	;abs 0x21f4
    2150:	3a 47       	mov	@r7+,	r10	;
    2152:	28 31       	jn	$+594    	;abs 0x23a4
    2154:	38 2c       	jc	$+114    	;abs 0x21c6
    2156:	38 29       	jnc	$+626    	;abs 0x23c8
    2158:	00 54       	add	r4,	r0	;
    215a:	42 43       	clr.b	r2		;
    215c:	43 52       	.word	0x5243;	????
    215e:	35 3a       	jl	$-916    	;abs 0x1dca
    2160:	47 28       	jnc	$+144    	;abs 0x21f0
    2162:	31 38       	jl	$+100    	;abs 0x21c6
    2164:	2c 38       	jl	$+90     	;abs 0x21be
    2166:	29 00       	.word	0x0029;	????
    2168:	54 42 43 43 	mov.b	&0x4343,r4	;0x4343
    216c:	52 36       	jge	$-858    	;abs 0x1e12
    216e:	3a 47       	mov	@r7+,	r10	;
    2170:	28 31       	jn	$+594    	;abs 0x23c2
    2172:	38 2c       	jc	$+114    	;abs 0x21e4
    2174:	38 29       	jnc	$+626    	;abs 0x23e6
    2176:	00 74       	subc	r4,	r0	;
    2178:	69 6d       	addc.b	@r13,	r9	;
    217a:	65 72       	subc.b	#4,	r5	;r2 As==10
    217c:	62 3a       	jl	$-826    	;abs 0x1e42
    217e:	47 28       	jnc	$+144    	;abs 0x220e
    2180:	31 39       	jl	$+612    	;abs 0x23e4
    2182:	2c 35       	jge	$+602    	;abs 0x23dc
    2184:	29 00       	.word	0x0029;	????
    2186:	44 43       	clr.b	r4		;
    2188:	4f 43       	clr.b	r15		;
    218a:	54 4c 3a 47 	mov.b	18234(r12),r4	;
    218e:	28 31       	jn	$+594    	;abs 0x23e0
    2190:	2c 35       	jge	$+602    	;abs 0x23ea
    2192:	29 00       	.word	0x0029;	????
    2194:	42 43       	clr.b	r2		;
    2196:	53 43       	.word	0x4353;	????
    2198:	54 4c 31 3a 	mov.b	14897(r12),r4	;
    219c:	47 28       	jnc	$+144    	;abs 0x222c
    219e:	31 2c       	jc	$+100    	;abs 0x2202
    21a0:	35 29       	jnc	$+620    	;abs 0x240c
    21a2:	00 42       	br	r2		;
    21a4:	43 53       	.word	0x5343;	????
    21a6:	43 54       	.word	0x5443;	????
    21a8:	4c 32       	jn	$-870    	;abs 0x1e42
    21aa:	3a 47       	mov	@r7+,	r10	;
    21ac:	28 31       	jn	$+594    	;abs 0x23fe
    21ae:	2c 35       	jge	$+602    	;abs 0x2408
    21b0:	29 00       	.word	0x0029;	????
    21b2:	42 43       	clr.b	r2		;
    21b4:	53 43       	.word	0x4353;	????
    21b6:	54 4c 33 3a 	mov.b	14899(r12),r4	;
    21ba:	47 28       	jnc	$+144    	;abs 0x224a
    21bc:	31 2c       	jc	$+100    	;abs 0x2220
    21be:	35 29       	jnc	$+620    	;abs 0x242a
    21c0:	00 46       	br	r6		;
    21c2:	43 54       	.word	0x5443;	????
    21c4:	4c 31       	jn	$+666    	;abs 0x245e
    21c6:	3a 47       	mov	@r7+,	r10	;
    21c8:	28 31       	jn	$+594    	;abs 0x241a
    21ca:	38 2c       	jc	$+114    	;abs 0x223c
    21cc:	38 29       	jnc	$+626    	;abs 0x243e
    21ce:	00 46       	br	r6		;
    21d0:	43 54       	.word	0x5443;	????
    21d2:	4c 32       	jn	$-870    	;abs 0x1e6c
    21d4:	3a 47       	mov	@r7+,	r10	;
    21d6:	28 31       	jn	$+594    	;abs 0x2428
    21d8:	38 2c       	jc	$+114    	;abs 0x224a
    21da:	38 29       	jnc	$+626    	;abs 0x244c
    21dc:	00 46       	br	r6		;
    21de:	43 54       	.word	0x5443;	????
    21e0:	4c 33       	jn	$-358    	;abs 0x207a
    21e2:	3a 47       	mov	@r7+,	r10	;
    21e4:	28 31       	jn	$+594    	;abs 0x2436
    21e6:	38 2c       	jc	$+114    	;abs 0x2258
    21e8:	38 29       	jnc	$+626    	;abs 0x245a
    21ea:	00 43       	clr	r0		;
    21ec:	41 43       	clr.b	r1		;
    21ee:	54 4c 31 3a 	mov.b	14897(r12),r4	;
    21f2:	47 28       	jnc	$+144    	;abs 0x2282
    21f4:	31 2c       	jc	$+100    	;abs 0x2258
    21f6:	35 29       	jnc	$+620    	;abs 0x2462
    21f8:	00 43       	clr	r0		;
    21fa:	41 43       	clr.b	r1		;
    21fc:	54 4c 32 3a 	mov.b	14898(r12),r4	;
    2200:	47 28       	jnc	$+144    	;abs 0x2290
    2202:	31 2c       	jc	$+100    	;abs 0x2266
    2204:	35 29       	jnc	$+620    	;abs 0x2470
    2206:	00 43       	clr	r0		;
    2208:	41 50       	add.b	r0,	r1	;
    220a:	44 3a       	jl	$-886    	;abs 0x1e94
    220c:	47 28       	jnc	$+144    	;abs 0x229c
    220e:	31 2c       	jc	$+100    	;abs 0x2272
    2210:	35 29       	jnc	$+620    	;abs 0x247c
    2212:	00 41       	br	r1		;
    2214:	44 43       	clr.b	r4		;
    2216:	31 32       	jn	$-924    	;abs 0x1e7a
    2218:	43 54       	.word	0x5443;	????
    221a:	4c 30       	jn	$+154    	;abs 0x22b4
    221c:	3a 47       	mov	@r7+,	r10	;
    221e:	28 31       	jn	$+594    	;abs 0x2470
    2220:	38 2c       	jc	$+114    	;abs 0x2292
    2222:	38 29       	jnc	$+626    	;abs 0x2494
    2224:	00 41       	br	r1		;
    2226:	44 43       	clr.b	r4		;
    2228:	31 32       	jn	$-924    	;abs 0x1e8c
    222a:	43 54       	.word	0x5443;	????
    222c:	4c 31       	jn	$+666    	;abs 0x24c6
    222e:	3a 47       	mov	@r7+,	r10	;
    2230:	28 31       	jn	$+594    	;abs 0x2482
    2232:	38 2c       	jc	$+114    	;abs 0x22a4
    2234:	38 29       	jnc	$+626    	;abs 0x24a6
    2236:	00 41       	br	r1		;
    2238:	44 43       	clr.b	r4		;
    223a:	31 32       	jn	$-924    	;abs 0x1e9e
    223c:	49 46       	mov.b	r6,	r9	;
    223e:	47 3a       	jl	$-880    	;abs 0x1ece
    2240:	47 28       	jnc	$+144    	;abs 0x22d0
    2242:	31 38       	jl	$+100    	;abs 0x22a6
    2244:	2c 38       	jl	$+90     	;abs 0x229e
    2246:	29 00       	.word	0x0029;	????
    2248:	41 44       	mov.b	r4,	r1	;
    224a:	43 31       	jn	$+648    	;abs 0x24d2
    224c:	32 49       	mov	@r9+,	r2	;
    224e:	45 3a       	jl	$-884    	;abs 0x1eda
    2250:	47 28       	jnc	$+144    	;abs 0x22e0
    2252:	31 38       	jl	$+100    	;abs 0x22b6
    2254:	2c 38       	jl	$+90     	;abs 0x22ae
    2256:	29 00       	.word	0x0029;	????
    2258:	41 44       	mov.b	r4,	r1	;
    225a:	43 31       	jn	$+648    	;abs 0x24e2
    225c:	32 49       	mov	@r9+,	r2	;
    225e:	56 3a       	jl	$-850    	;abs 0x1f0c
    2260:	47 28       	jnc	$+144    	;abs 0x22f0
    2262:	31 38       	jl	$+100    	;abs 0x22c6
    2264:	2c 38       	jl	$+90     	;abs 0x22be
    2266:	29 00       	.word	0x0029;	????
    2268:	61 64       	addc.b	@r4,	r1	;
    226a:	63 31       	jn	$+712    	;abs 0x2532
    226c:	32 3a       	jl	$-922    	;abs 0x1ed2
    226e:	47 28       	jnc	$+144    	;abs 0x22fe
    2270:	32 33       	jn	$-410    	;abs 0x20d6
    2272:	2c 37       	jge	$-422    	;abs 0x20cc
    2274:	29 00       	.word	0x0029;	????
    2276:	41 44       	mov.b	r4,	r1	;
    2278:	43 31       	jn	$+648    	;abs 0x2500
    227a:	32 4d       	mov	@r13+,	r2	;
    227c:	45 4d       	mov.b	r13,	r5	;
    227e:	30 3a       	jl	$-926    	;abs 0x1ee0
    2280:	47 28       	jnc	$+144    	;abs 0x2310
    2282:	31 38       	jl	$+100    	;abs 0x22e6
    2284:	2c 38       	jl	$+90     	;abs 0x22de
    2286:	29 00       	.word	0x0029;	????
    2288:	41 44       	mov.b	r4,	r1	;
    228a:	43 31       	jn	$+648    	;abs 0x2512
    228c:	32 4d       	mov	@r13+,	r2	;
    228e:	45 4d       	mov.b	r13,	r5	;
    2290:	31 3a       	jl	$-924    	;abs 0x1ef4
    2292:	47 28       	jnc	$+144    	;abs 0x2322
    2294:	31 38       	jl	$+100    	;abs 0x22f8
    2296:	2c 38       	jl	$+90     	;abs 0x22f0
    2298:	29 00       	.word	0x0029;	????
    229a:	41 44       	mov.b	r4,	r1	;
    229c:	43 31       	jn	$+648    	;abs 0x2524
    229e:	32 4d       	mov	@r13+,	r2	;
    22a0:	45 4d       	mov.b	r13,	r5	;
    22a2:	32 3a       	jl	$-922    	;abs 0x1f08
    22a4:	47 28       	jnc	$+144    	;abs 0x2334
    22a6:	31 38       	jl	$+100    	;abs 0x230a
    22a8:	2c 38       	jl	$+90     	;abs 0x2302
    22aa:	29 00       	.word	0x0029;	????
    22ac:	41 44       	mov.b	r4,	r1	;
    22ae:	43 31       	jn	$+648    	;abs 0x2536
    22b0:	32 4d       	mov	@r13+,	r2	;
    22b2:	45 4d       	mov.b	r13,	r5	;
    22b4:	33 3a       	jl	$-920    	;abs 0x1f1c
    22b6:	47 28       	jnc	$+144    	;abs 0x2346
    22b8:	31 38       	jl	$+100    	;abs 0x231c
    22ba:	2c 38       	jl	$+90     	;abs 0x2314
    22bc:	29 00       	.word	0x0029;	????
    22be:	41 44       	mov.b	r4,	r1	;
    22c0:	43 31       	jn	$+648    	;abs 0x2548
    22c2:	32 4d       	mov	@r13+,	r2	;
    22c4:	45 4d       	mov.b	r13,	r5	;
    22c6:	34 3a       	jl	$-918    	;abs 0x1f30
    22c8:	47 28       	jnc	$+144    	;abs 0x2358
    22ca:	31 38       	jl	$+100    	;abs 0x232e
    22cc:	2c 38       	jl	$+90     	;abs 0x2326
    22ce:	29 00       	.word	0x0029;	????
    22d0:	41 44       	mov.b	r4,	r1	;
    22d2:	43 31       	jn	$+648    	;abs 0x255a
    22d4:	32 4d       	mov	@r13+,	r2	;
    22d6:	45 4d       	mov.b	r13,	r5	;
    22d8:	35 3a       	jl	$-916    	;abs 0x1f44
    22da:	47 28       	jnc	$+144    	;abs 0x236a
    22dc:	31 38       	jl	$+100    	;abs 0x2340
    22de:	2c 38       	jl	$+90     	;abs 0x2338
    22e0:	29 00       	.word	0x0029;	????
    22e2:	41 44       	mov.b	r4,	r1	;
    22e4:	43 31       	jn	$+648    	;abs 0x256c
    22e6:	32 4d       	mov	@r13+,	r2	;
    22e8:	45 4d       	mov.b	r13,	r5	;
    22ea:	36 3a       	jl	$-914    	;abs 0x1f58
    22ec:	47 28       	jnc	$+144    	;abs 0x237c
    22ee:	31 38       	jl	$+100    	;abs 0x2352
    22f0:	2c 38       	jl	$+90     	;abs 0x234a
    22f2:	29 00       	.word	0x0029;	????
    22f4:	41 44       	mov.b	r4,	r1	;
    22f6:	43 31       	jn	$+648    	;abs 0x257e
    22f8:	32 4d       	mov	@r13+,	r2	;
    22fa:	45 4d       	mov.b	r13,	r5	;
    22fc:	37 3a       	jl	$-912    	;abs 0x1f6c
    22fe:	47 28       	jnc	$+144    	;abs 0x238e
    2300:	31 38       	jl	$+100    	;abs 0x2364
    2302:	2c 38       	jl	$+90     	;abs 0x235c
    2304:	29 00       	.word	0x0029;	????
    2306:	41 44       	mov.b	r4,	r1	;
    2308:	43 31       	jn	$+648    	;abs 0x2590
    230a:	32 4d       	mov	@r13+,	r2	;
    230c:	45 4d       	mov.b	r13,	r5	;
    230e:	38 3a       	jl	$-910    	;abs 0x1f80
    2310:	47 28       	jnc	$+144    	;abs 0x23a0
    2312:	31 38       	jl	$+100    	;abs 0x2376
    2314:	2c 38       	jl	$+90     	;abs 0x236e
    2316:	29 00       	.word	0x0029;	????
    2318:	41 44       	mov.b	r4,	r1	;
    231a:	43 31       	jn	$+648    	;abs 0x25a2
    231c:	32 4d       	mov	@r13+,	r2	;
    231e:	45 4d       	mov.b	r13,	r5	;
    2320:	39 3a       	jl	$-908    	;abs 0x1f94
    2322:	47 28       	jnc	$+144    	;abs 0x23b2
    2324:	31 38       	jl	$+100    	;abs 0x2388
    2326:	2c 38       	jl	$+90     	;abs 0x2380
    2328:	29 00       	.word	0x0029;	????
    232a:	41 44       	mov.b	r4,	r1	;
    232c:	43 31       	jn	$+648    	;abs 0x25b4
    232e:	32 4d       	mov	@r13+,	r2	;
    2330:	45 4d       	mov.b	r13,	r5	;
    2332:	31 30       	jn	$+100    	;abs 0x2396
    2334:	3a 47       	mov	@r7+,	r10	;
    2336:	28 31       	jn	$+594    	;abs 0x2588
    2338:	38 2c       	jc	$+114    	;abs 0x23aa
    233a:	38 29       	jnc	$+626    	;abs 0x25ac
    233c:	00 41       	br	r1		;
    233e:	44 43       	clr.b	r4		;
    2340:	31 32       	jn	$-924    	;abs 0x1fa4
    2342:	4d 45       	mov.b	r5,	r13	;
    2344:	4d 31       	jn	$+668    	;abs 0x25e0
    2346:	31 3a       	jl	$-924    	;abs 0x1faa
    2348:	47 28       	jnc	$+144    	;abs 0x23d8
    234a:	31 38       	jl	$+100    	;abs 0x23ae
    234c:	2c 38       	jl	$+90     	;abs 0x23a6
    234e:	29 00       	.word	0x0029;	????
    2350:	41 44       	mov.b	r4,	r1	;
    2352:	43 31       	jn	$+648    	;abs 0x25da
    2354:	32 4d       	mov	@r13+,	r2	;
    2356:	45 4d       	mov.b	r13,	r5	;
    2358:	31 32       	jn	$-924    	;abs 0x1fbc
    235a:	3a 47       	mov	@r7+,	r10	;
    235c:	28 31       	jn	$+594    	;abs 0x25ae
    235e:	38 2c       	jc	$+114    	;abs 0x23d0
    2360:	38 29       	jnc	$+626    	;abs 0x25d2
    2362:	00 41       	br	r1		;
    2364:	44 43       	clr.b	r4		;
    2366:	31 32       	jn	$-924    	;abs 0x1fca
    2368:	4d 45       	mov.b	r5,	r13	;
    236a:	4d 31       	jn	$+668    	;abs 0x2606
    236c:	33 3a       	jl	$-920    	;abs 0x1fd4
    236e:	47 28       	jnc	$+144    	;abs 0x23fe
    2370:	31 38       	jl	$+100    	;abs 0x23d4
    2372:	2c 38       	jl	$+90     	;abs 0x23cc
    2374:	29 00       	.word	0x0029;	????
    2376:	41 44       	mov.b	r4,	r1	;
    2378:	43 31       	jn	$+648    	;abs 0x2600
    237a:	32 4d       	mov	@r13+,	r2	;
    237c:	45 4d       	mov.b	r13,	r5	;
    237e:	31 34       	jge	$+100    	;abs 0x23e2
    2380:	3a 47       	mov	@r7+,	r10	;
    2382:	28 31       	jn	$+594    	;abs 0x25d4
    2384:	38 2c       	jc	$+114    	;abs 0x23f6
    2386:	38 29       	jnc	$+626    	;abs 0x25f8
    2388:	00 41       	br	r1		;
    238a:	44 43       	clr.b	r4		;
    238c:	31 32       	jn	$-924    	;abs 0x1ff0
    238e:	4d 45       	mov.b	r5,	r13	;
    2390:	4d 31       	jn	$+668    	;abs 0x262c
    2392:	35 3a       	jl	$-916    	;abs 0x1ffe
    2394:	47 28       	jnc	$+144    	;abs 0x2424
    2396:	31 38       	jl	$+100    	;abs 0x23fa
    2398:	2c 38       	jl	$+90     	;abs 0x23f2
    239a:	29 00       	.word	0x0029;	????
    239c:	41 44       	mov.b	r4,	r1	;
    239e:	43 31       	jn	$+648    	;abs 0x2626
    23a0:	32 4d       	mov	@r13+,	r2	;
    23a2:	43 54       	.word	0x5443;	????
    23a4:	4c 30       	jn	$+154    	;abs 0x243e
    23a6:	3a 47       	mov	@r7+,	r10	;
    23a8:	28 31       	jn	$+594    	;abs 0x25fa
    23aa:	2c 35       	jge	$+602    	;abs 0x2604
    23ac:	29 00       	.word	0x0029;	????
    23ae:	41 44       	mov.b	r4,	r1	;
    23b0:	43 31       	jn	$+648    	;abs 0x2638
    23b2:	32 4d       	mov	@r13+,	r2	;
    23b4:	43 54       	.word	0x5443;	????
    23b6:	4c 31       	jn	$+666    	;abs 0x2650
    23b8:	3a 47       	mov	@r7+,	r10	;
    23ba:	28 31       	jn	$+594    	;abs 0x260c
    23bc:	2c 35       	jge	$+602    	;abs 0x2616
    23be:	29 00       	.word	0x0029;	????
    23c0:	41 44       	mov.b	r4,	r1	;
    23c2:	43 31       	jn	$+648    	;abs 0x264a
    23c4:	32 4d       	mov	@r13+,	r2	;
    23c6:	43 54       	.word	0x5443;	????
    23c8:	4c 32       	jn	$-870    	;abs 0x2062
    23ca:	3a 47       	mov	@r7+,	r10	;
    23cc:	28 31       	jn	$+594    	;abs 0x261e
    23ce:	2c 35       	jge	$+602    	;abs 0x2628
    23d0:	29 00       	.word	0x0029;	????
    23d2:	41 44       	mov.b	r4,	r1	;
    23d4:	43 31       	jn	$+648    	;abs 0x265c
    23d6:	32 4d       	mov	@r13+,	r2	;
    23d8:	43 54       	.word	0x5443;	????
    23da:	4c 33       	jn	$-358    	;abs 0x2274
    23dc:	3a 47       	mov	@r7+,	r10	;
    23de:	28 31       	jn	$+594    	;abs 0x2630
    23e0:	2c 35       	jge	$+602    	;abs 0x263a
    23e2:	29 00       	.word	0x0029;	????
    23e4:	41 44       	mov.b	r4,	r1	;
    23e6:	43 31       	jn	$+648    	;abs 0x266e
    23e8:	32 4d       	mov	@r13+,	r2	;
    23ea:	43 54       	.word	0x5443;	????
    23ec:	4c 34       	jge	$+154    	;abs 0x2486
    23ee:	3a 47       	mov	@r7+,	r10	;
    23f0:	28 31       	jn	$+594    	;abs 0x2642
    23f2:	2c 35       	jge	$+602    	;abs 0x264c
    23f4:	29 00       	.word	0x0029;	????
    23f6:	41 44       	mov.b	r4,	r1	;
    23f8:	43 31       	jn	$+648    	;abs 0x2680
    23fa:	32 4d       	mov	@r13+,	r2	;
    23fc:	43 54       	.word	0x5443;	????
    23fe:	4c 35       	jge	$+666    	;abs 0x2698
    2400:	3a 47       	mov	@r7+,	r10	;
    2402:	28 31       	jn	$+594    	;abs 0x2654
    2404:	2c 35       	jge	$+602    	;abs 0x265e
    2406:	29 00       	.word	0x0029;	????
    2408:	41 44       	mov.b	r4,	r1	;
    240a:	43 31       	jn	$+648    	;abs 0x2692
    240c:	32 4d       	mov	@r13+,	r2	;
    240e:	43 54       	.word	0x5443;	????
    2410:	4c 36       	jge	$-870    	;abs 0x20aa
    2412:	3a 47       	mov	@r7+,	r10	;
    2414:	28 31       	jn	$+594    	;abs 0x2666
    2416:	2c 35       	jge	$+602    	;abs 0x2670
    2418:	29 00       	.word	0x0029;	????
    241a:	41 44       	mov.b	r4,	r1	;
    241c:	43 31       	jn	$+648    	;abs 0x26a4
    241e:	32 4d       	mov	@r13+,	r2	;
    2420:	43 54       	.word	0x5443;	????
    2422:	4c 37       	jge	$-358    	;abs 0x22bc
    2424:	3a 47       	mov	@r7+,	r10	;
    2426:	28 31       	jn	$+594    	;abs 0x2678
    2428:	2c 35       	jge	$+602    	;abs 0x2682
    242a:	29 00       	.word	0x0029;	????
    242c:	41 44       	mov.b	r4,	r1	;
    242e:	43 31       	jn	$+648    	;abs 0x26b6
    2430:	32 4d       	mov	@r13+,	r2	;
    2432:	43 54       	.word	0x5443;	????
    2434:	4c 38       	jl	$+154    	;abs 0x24ce
    2436:	3a 47       	mov	@r7+,	r10	;
    2438:	28 31       	jn	$+594    	;abs 0x268a
    243a:	2c 35       	jge	$+602    	;abs 0x2694
    243c:	29 00       	.word	0x0029;	????
    243e:	41 44       	mov.b	r4,	r1	;
    2440:	43 31       	jn	$+648    	;abs 0x26c8
    2442:	32 4d       	mov	@r13+,	r2	;
    2444:	43 54       	.word	0x5443;	????
    2446:	4c 39       	jl	$+666    	;abs 0x26e0
    2448:	3a 47       	mov	@r7+,	r10	;
    244a:	28 31       	jn	$+594    	;abs 0x269c
    244c:	2c 35       	jge	$+602    	;abs 0x26a6
    244e:	29 00       	.word	0x0029;	????
    2450:	41 44       	mov.b	r4,	r1	;
    2452:	43 31       	jn	$+648    	;abs 0x26da
    2454:	32 4d       	mov	@r13+,	r2	;
    2456:	43 54       	.word	0x5443;	????
    2458:	4c 31       	jn	$+666    	;abs 0x26f2
    245a:	30 3a       	jl	$-926    	;abs 0x20bc
    245c:	47 28       	jnc	$+144    	;abs 0x24ec
    245e:	31 2c       	jc	$+100    	;abs 0x24c2
    2460:	35 29       	jnc	$+620    	;abs 0x26cc
    2462:	00 41       	br	r1		;
    2464:	44 43       	clr.b	r4		;
    2466:	31 32       	jn	$-924    	;abs 0x20ca
    2468:	4d 43       	clr.b	r13		;
    246a:	54 4c 31 31 	mov.b	12593(r12),r4	;
    246e:	3a 47       	mov	@r7+,	r10	;
    2470:	28 31       	jn	$+594    	;abs 0x26c2
    2472:	2c 35       	jge	$+602    	;abs 0x26cc
    2474:	29 00       	.word	0x0029;	????
    2476:	41 44       	mov.b	r4,	r1	;
    2478:	43 31       	jn	$+648    	;abs 0x2700
    247a:	32 4d       	mov	@r13+,	r2	;
    247c:	43 54       	.word	0x5443;	????
    247e:	4c 31       	jn	$+666    	;abs 0x2718
    2480:	32 3a       	jl	$-922    	;abs 0x20e6
    2482:	47 28       	jnc	$+144    	;abs 0x2512
    2484:	31 2c       	jc	$+100    	;abs 0x24e8
    2486:	35 29       	jnc	$+620    	;abs 0x26f2
    2488:	00 41       	br	r1		;
    248a:	44 43       	clr.b	r4		;
    248c:	31 32       	jn	$-924    	;abs 0x20f0
    248e:	4d 43       	clr.b	r13		;
    2490:	54 4c 31 33 	mov.b	13105(r12),r4	;
    2494:	3a 47       	mov	@r7+,	r10	;
    2496:	28 31       	jn	$+594    	;abs 0x26e8
    2498:	2c 35       	jge	$+602    	;abs 0x26f2
    249a:	29 00       	.word	0x0029;	????
    249c:	41 44       	mov.b	r4,	r1	;
    249e:	43 31       	jn	$+648    	;abs 0x2726
    24a0:	32 4d       	mov	@r13+,	r2	;
    24a2:	43 54       	.word	0x5443;	????
    24a4:	4c 31       	jn	$+666    	;abs 0x273e
    24a6:	34 3a       	jl	$-918    	;abs 0x2110
    24a8:	47 28       	jnc	$+144    	;abs 0x2538
    24aa:	31 2c       	jc	$+100    	;abs 0x250e
    24ac:	35 29       	jnc	$+620    	;abs 0x2718
    24ae:	00 41       	br	r1		;
    24b0:	44 43       	clr.b	r4		;
    24b2:	31 32       	jn	$-924    	;abs 0x2116
    24b4:	4d 43       	clr.b	r13		;
    24b6:	54 4c 31 35 	mov.b	13617(r12),r4	;
    24ba:	3a 47       	mov	@r7+,	r10	;
    24bc:	28 31       	jn	$+594    	;abs 0x270e
    24be:	2c 35       	jge	$+602    	;abs 0x2718
    24c0:	29 00       	.word	0x0029;	????
    24c2:	44 41       	mov.b	r1,	r4	;
    24c4:	43 31       	jn	$+648    	;abs 0x274c
    24c6:	32 5f       	add	@r15+,	r2	;
    24c8:	30 43       	br	#-1		;r3 As==11
    24ca:	54 4c 3a 47 	mov.b	18234(r12),r4	;
    24ce:	28 31       	jn	$+594    	;abs 0x2720
    24d0:	38 2c       	jc	$+114    	;abs 0x2542
    24d2:	38 29       	jnc	$+626    	;abs 0x2744
    24d4:	00 44       	br	r4		;
    24d6:	41 43       	clr.b	r1		;
    24d8:	31 32       	jn	$-924    	;abs 0x213c
    24da:	5f 31       	jn	$+704    	;abs 0x279a
    24dc:	43 54       	.word	0x5443;	????
    24de:	4c 3a       	jl	$-870    	;abs 0x2178
    24e0:	47 28       	jnc	$+144    	;abs 0x2570
    24e2:	31 38       	jl	$+100    	;abs 0x2546
    24e4:	2c 38       	jl	$+90     	;abs 0x253e
    24e6:	29 00       	.word	0x0029;	????
    24e8:	44 41       	mov.b	r1,	r4	;
    24ea:	43 31       	jn	$+648    	;abs 0x2772
    24ec:	32 5f       	add	@r15+,	r2	;
    24ee:	30 44       	br	@r4+		;
    24f0:	41 54       	add.b	r4,	r1	;
    24f2:	3a 47       	mov	@r7+,	r10	;
    24f4:	28 31       	jn	$+594    	;abs 0x2746
    24f6:	38 2c       	jc	$+114    	;abs 0x2568
    24f8:	38 29       	jnc	$+626    	;abs 0x276a
    24fa:	00 44       	br	r4		;
    24fc:	41 43       	clr.b	r1		;
    24fe:	31 32       	jn	$-924    	;abs 0x2162
    2500:	5f 31       	jn	$+704    	;abs 0x27c0
    2502:	44 41       	mov.b	r1,	r4	;
    2504:	54 3a       	jl	$-854    	;abs 0x21ae
    2506:	47 28       	jnc	$+144    	;abs 0x2596
    2508:	31 38       	jl	$+100    	;abs 0x256c
    250a:	2c 38       	jl	$+90     	;abs 0x2564
    250c:	29 00       	.word	0x0029;	????
    250e:	44 4d       	mov.b	r13,	r4	;
    2510:	41 43       	clr.b	r1		;
    2512:	54 4c 30 3a 	mov.b	14896(r12),r4	;
    2516:	47 28       	jnc	$+144    	;abs 0x25a6
    2518:	31 38       	jl	$+100    	;abs 0x257c
    251a:	2c 38       	jl	$+90     	;abs 0x2574
    251c:	29 00       	.word	0x0029;	????
    251e:	44 4d       	mov.b	r13,	r4	;
    2520:	41 43       	clr.b	r1		;
    2522:	54 4c 31 3a 	mov.b	14897(r12),r4	;
    2526:	47 28       	jnc	$+144    	;abs 0x25b6
    2528:	31 38       	jl	$+100    	;abs 0x258c
    252a:	2c 38       	jl	$+90     	;abs 0x2584
    252c:	29 00       	.word	0x0029;	????
    252e:	44 4d       	mov.b	r13,	r4	;
    2530:	41 30       	jn	$+132    	;abs 0x25b4
    2532:	43 54       	.word	0x5443;	????
    2534:	4c 3a       	jl	$-870    	;abs 0x21ce
    2536:	47 28       	jnc	$+144    	;abs 0x25c6
    2538:	31 38       	jl	$+100    	;abs 0x259c
    253a:	2c 38       	jl	$+90     	;abs 0x2594
    253c:	29 00       	.word	0x0029;	????
    253e:	44 4d       	mov.b	r13,	r4	;
    2540:	41 30       	jn	$+132    	;abs 0x25c4
    2542:	53 41       	.word	0x4153;	????
    2544:	3a 47       	mov	@r7+,	r10	;
    2546:	28 31       	jn	$+594    	;abs 0x2798
    2548:	2c 36       	jge	$-934    	;abs 0x21a2
    254a:	29 3d       	jmp	$+596    	;abs 0x279e
    254c:	42 28       	jnc	$+134    	;abs 0x25d2
    254e:	30 2c       	jc	$+98     	;abs 0x25b0
    2550:	35 29       	jnc	$+620    	;abs 0x27bc
    2552:	00 44       	br	r4		;
    2554:	4d 41       	mov.b	r1,	r13	;
    2556:	30 53       	add	#-1,	r0	;r3 As==11
    2558:	41 4c       	mov.b	r12,	r1	;
    255a:	3a 47       	mov	@r7+,	r10	;
    255c:	28 31       	jn	$+594    	;abs 0x27ae
    255e:	38 2c       	jc	$+114    	;abs 0x25d0
    2560:	38 29       	jnc	$+626    	;abs 0x27d2
    2562:	00 44       	br	r4		;
    2564:	4d 41       	mov.b	r1,	r13	;
    2566:	30 44       	br	@r4+		;
    2568:	41 3a       	jl	$-892    	;abs 0x21ec
    256a:	47 28       	jnc	$+144    	;abs 0x25fa
    256c:	31 2c       	jc	$+100    	;abs 0x25d0
    256e:	36 29       	jnc	$+622    	;abs 0x27dc
    2570:	00 44       	br	r4		;
    2572:	4d 41       	mov.b	r1,	r13	;
    2574:	30 44       	br	@r4+		;
    2576:	41 4c       	mov.b	r12,	r1	;
    2578:	3a 47       	mov	@r7+,	r10	;
    257a:	28 31       	jn	$+594    	;abs 0x27cc
    257c:	38 2c       	jc	$+114    	;abs 0x25ee
    257e:	38 29       	jnc	$+626    	;abs 0x27f0
    2580:	00 44       	br	r4		;
    2582:	4d 41       	mov.b	r1,	r13	;
    2584:	30 53       	add	#-1,	r0	;r3 As==11
    2586:	5a 3a       	jl	$-842    	;abs 0x223c
    2588:	47 28       	jnc	$+144    	;abs 0x2618
    258a:	31 38       	jl	$+100    	;abs 0x25ee
    258c:	2c 38       	jl	$+90     	;abs 0x25e6
    258e:	29 00       	.word	0x0029;	????
    2590:	44 4d       	mov.b	r13,	r4	;
    2592:	41 31       	jn	$+644    	;abs 0x2816
    2594:	43 54       	.word	0x5443;	????
    2596:	4c 3a       	jl	$-870    	;abs 0x2230
    2598:	47 28       	jnc	$+144    	;abs 0x2628
    259a:	31 38       	jl	$+100    	;abs 0x25fe
    259c:	2c 38       	jl	$+90     	;abs 0x25f6
    259e:	29 00       	.word	0x0029;	????
    25a0:	44 4d       	mov.b	r13,	r4	;
    25a2:	41 31       	jn	$+644    	;abs 0x2826
    25a4:	53 41       	.word	0x4153;	????
    25a6:	3a 47       	mov	@r7+,	r10	;
    25a8:	28 31       	jn	$+594    	;abs 0x27fa
    25aa:	2c 36       	jge	$-934    	;abs 0x2204
    25ac:	29 00       	.word	0x0029;	????
    25ae:	44 4d       	mov.b	r13,	r4	;
    25b0:	41 31       	jn	$+644    	;abs 0x2834
    25b2:	53 41       	.word	0x4153;	????
    25b4:	4c 3a       	jl	$-870    	;abs 0x224e
    25b6:	47 28       	jnc	$+144    	;abs 0x2646
    25b8:	31 38       	jl	$+100    	;abs 0x261c
    25ba:	2c 38       	jl	$+90     	;abs 0x2614
    25bc:	29 00       	.word	0x0029;	????
    25be:	44 4d       	mov.b	r13,	r4	;
    25c0:	41 31       	jn	$+644    	;abs 0x2844
    25c2:	44 41       	mov.b	r1,	r4	;
    25c4:	3a 47       	mov	@r7+,	r10	;
    25c6:	28 31       	jn	$+594    	;abs 0x2818
    25c8:	38 2c       	jc	$+114    	;abs 0x263a
    25ca:	38 29       	jnc	$+626    	;abs 0x283c
    25cc:	00 44       	br	r4		;
    25ce:	4d 41       	mov.b	r1,	r13	;
    25d0:	31 44       	mov	@r4+,	r1	;
    25d2:	41 4c       	mov.b	r12,	r1	;
    25d4:	3a 47       	mov	@r7+,	r10	;
    25d6:	28 31       	jn	$+594    	;abs 0x2828
    25d8:	38 2c       	jc	$+114    	;abs 0x264a
    25da:	38 29       	jnc	$+626    	;abs 0x284c
    25dc:	00 44       	br	r4		;
    25de:	4d 41       	mov.b	r1,	r13	;
    25e0:	31 53       	add	#-1,	r1	;r3 As==11
    25e2:	5a 3a       	jl	$-842    	;abs 0x2298
    25e4:	47 28       	jnc	$+144    	;abs 0x2674
    25e6:	31 38       	jl	$+100    	;abs 0x264a
    25e8:	2c 38       	jl	$+90     	;abs 0x2642
    25ea:	29 00       	.word	0x0029;	????
    25ec:	44 4d       	mov.b	r13,	r4	;
    25ee:	41 32       	jn	$-892    	;abs 0x2272
    25f0:	43 54       	.word	0x5443;	????
    25f2:	4c 3a       	jl	$-870    	;abs 0x228c
    25f4:	47 28       	jnc	$+144    	;abs 0x2684
    25f6:	31 38       	jl	$+100    	;abs 0x265a
    25f8:	2c 38       	jl	$+90     	;abs 0x2652
    25fa:	29 00       	.word	0x0029;	????
    25fc:	44 4d       	mov.b	r13,	r4	;
    25fe:	41 32       	jn	$-892    	;abs 0x2282
    2600:	53 41       	.word	0x4153;	????
    2602:	3a 47       	mov	@r7+,	r10	;
    2604:	28 31       	jn	$+594    	;abs 0x2856
    2606:	2c 36       	jge	$-934    	;abs 0x2260
    2608:	29 00       	.word	0x0029;	????
    260a:	44 4d       	mov.b	r13,	r4	;
    260c:	41 32       	jn	$-892    	;abs 0x2290
    260e:	53 41       	.word	0x4153;	????
    2610:	4c 3a       	jl	$-870    	;abs 0x22aa
    2612:	47 28       	jnc	$+144    	;abs 0x26a2
    2614:	31 38       	jl	$+100    	;abs 0x2678
    2616:	2c 38       	jl	$+90     	;abs 0x2670
    2618:	29 00       	.word	0x0029;	????
    261a:	44 4d       	mov.b	r13,	r4	;
    261c:	41 32       	jn	$-892    	;abs 0x22a0
    261e:	44 41       	mov.b	r1,	r4	;
    2620:	3a 47       	mov	@r7+,	r10	;
    2622:	28 31       	jn	$+594    	;abs 0x2874
    2624:	2c 36       	jge	$-934    	;abs 0x227e
    2626:	29 00       	.word	0x0029;	????
    2628:	44 4d       	mov.b	r13,	r4	;
    262a:	41 32       	jn	$-892    	;abs 0x22ae
    262c:	44 41       	mov.b	r1,	r4	;
    262e:	4c 3a       	jl	$-870    	;abs 0x22c8
    2630:	47 28       	jnc	$+144    	;abs 0x26c0
    2632:	31 38       	jl	$+100    	;abs 0x2696
    2634:	2c 38       	jl	$+90     	;abs 0x268e
    2636:	29 00       	.word	0x0029;	????
    2638:	44 4d       	mov.b	r13,	r4	;
    263a:	41 32       	jn	$-892    	;abs 0x22be
    263c:	53 5a       	.word	0x5a53;	????
    263e:	3a 47       	mov	@r7+,	r10	;
    2640:	28 31       	jn	$+594    	;abs 0x2892
    2642:	38 2c       	jc	$+114    	;abs 0x26b4
    2644:	38 29       	jnc	$+626    	;abs 0x28b6
    2646:	00 57       	add	r7,	r0	;
    2648:	44 54       	rla.b	r4		;
    264a:	43 54       	.word	0x5443;	????
    264c:	4c 3a       	jl	$-870    	;abs 0x22e6
    264e:	47 28       	jnc	$+144    	;abs 0x26de
    2650:	31 38       	jl	$+100    	;abs 0x26b4
    2652:	2c 38       	jl	$+90     	;abs 0x26ac
    2654:	29 00       	.word	0x0029;	????
    2656:	49 45       	mov.b	r5,	r9	;
    2658:	31 3a       	jl	$-924    	;abs 0x22bc
    265a:	47 28       	jnc	$+144    	;abs 0x26ea
    265c:	31 2c       	jc	$+100    	;abs 0x26c0
    265e:	35 29       	jnc	$+620    	;abs 0x28ca
    2660:	00 49       	br	r9		;
    2662:	46 47       	mov.b	r7,	r6	;
    2664:	31 3a       	jl	$-924    	;abs 0x22c8
    2666:	47 28       	jnc	$+144    	;abs 0x26f6
    2668:	31 2c       	jc	$+100    	;abs 0x26cc
    266a:	35 29       	jnc	$+620    	;abs 0x28d6
    266c:	00 49       	br	r9		;
    266e:	45 32       	jn	$-884    	;abs 0x22fa
    2670:	3a 47       	mov	@r7+,	r10	;
    2672:	28 31       	jn	$+594    	;abs 0x28c4
    2674:	2c 35       	jge	$+602    	;abs 0x28ce
    2676:	29 00       	.word	0x0029;	????
    2678:	49 46       	mov.b	r6,	r9	;
    267a:	47 32       	jn	$-880    	;abs 0x230a
    267c:	3a 47       	mov	@r7+,	r10	;
    267e:	28 31       	jn	$+594    	;abs 0x28d0
    2680:	2c 35       	jge	$+602    	;abs 0x28da
    2682:	29 00       	.word	0x0029;	????
    2684:	54 4c 56 5f 	mov.b	24406(r12),r4	;
    2688:	43 48       	.word	0x4843;	????
    268a:	45 43       	clr.b	r5		;
    268c:	4b 53       	add.b	#0,	r11	;r3 As==00
    268e:	55 4d 3a 47 	mov.b	18234(r13),r5	;
    2692:	28 31       	jn	$+594    	;abs 0x28e4
    2694:	38 2c       	jc	$+114    	;abs 0x2706
    2696:	38 29       	jnc	$+626    	;abs 0x2908
    2698:	00 54       	add	r4,	r0	;
    269a:	4c 56       	add.b	r6,	r12	;
    269c:	5f 44 43 4f 	mov.b	20291(r4),r15	;
    26a0:	5f 33       	jn	$-320    	;abs 0x2560
    26a2:	30 5f       	add	@r15+,	r0	;
    26a4:	54 41 47 3a 	mov.b	14919(r1),r4	;
    26a8:	47 28       	jnc	$+144    	;abs 0x2738
    26aa:	31 2c       	jc	$+100    	;abs 0x270e
    26ac:	35 29       	jnc	$+620    	;abs 0x2918
    26ae:	00 54       	add	r4,	r0	;
    26b0:	4c 56       	add.b	r6,	r12	;
    26b2:	5f 44 43 4f 	mov.b	20291(r4),r15	;
    26b6:	5f 33       	jn	$-320    	;abs 0x2576
    26b8:	30 5f       	add	@r15+,	r0	;
    26ba:	4c 45       	mov.b	r5,	r12	;
    26bc:	4e 3a       	jl	$-866    	;abs 0x235a
    26be:	47 28       	jnc	$+144    	;abs 0x274e
    26c0:	31 2c       	jc	$+100    	;abs 0x2724
    26c2:	35 29       	jnc	$+620    	;abs 0x292e
    26c4:	00 54       	add	r4,	r0	;
    26c6:	4c 56       	add.b	r6,	r12	;
    26c8:	5f 41 44 43 	mov.b	17220(r1),r15	;
    26cc:	31 32       	jn	$-924    	;abs 0x2330
    26ce:	5f 31       	jn	$+704    	;abs 0x298e
    26d0:	5f 54 41 47 	add.b	18241(r4),r15	;
    26d4:	3a 47       	mov	@r7+,	r10	;
    26d6:	28 31       	jn	$+594    	;abs 0x2928
    26d8:	2c 35       	jge	$+602    	;abs 0x2932
    26da:	29 00       	.word	0x0029;	????
    26dc:	54 4c 56 5f 	mov.b	24406(r12),r4	;
    26e0:	41 44       	mov.b	r4,	r1	;
    26e2:	43 31       	jn	$+648    	;abs 0x296a
    26e4:	32 5f       	add	@r15+,	r2	;
    26e6:	31 5f       	add	@r15+,	r1	;
    26e8:	4c 45       	mov.b	r5,	r12	;
    26ea:	4e 3a       	jl	$-866    	;abs 0x2388
    26ec:	47 28       	jnc	$+144    	;abs 0x277c
    26ee:	31 2c       	jc	$+100    	;abs 0x2752
    26f0:	35 29       	jnc	$+620    	;abs 0x295c
    26f2:	00 43       	clr	r0		;
    26f4:	41 4c       	mov.b	r12,	r1	;
    26f6:	44 43       	clr.b	r4		;
    26f8:	4f 5f       	rla.b	r15		;
    26fa:	31 36       	jge	$-924    	;abs 0x235e
    26fc:	4d 48       	mov.b	r8,	r13	;
    26fe:	5a 3a       	jl	$-842    	;abs 0x23b4
    2700:	47 28       	jnc	$+144    	;abs 0x2790
    2702:	31 2c       	jc	$+100    	;abs 0x2766
    2704:	35 29       	jnc	$+620    	;abs 0x2970
    2706:	00 43       	clr	r0		;
    2708:	41 4c       	mov.b	r12,	r1	;
    270a:	42 43       	clr.b	r2		;
    270c:	31 5f       	add	@r15+,	r1	;
    270e:	31 36       	jge	$-924    	;abs 0x2372
    2710:	4d 48       	mov.b	r8,	r13	;
    2712:	5a 3a       	jl	$-842    	;abs 0x23c8
    2714:	47 28       	jnc	$+144    	;abs 0x27a4
    2716:	31 2c       	jc	$+100    	;abs 0x277a
    2718:	35 29       	jnc	$+620    	;abs 0x2984
    271a:	00 43       	clr	r0		;
    271c:	41 4c       	mov.b	r12,	r1	;
    271e:	44 43       	clr.b	r4		;
    2720:	4f 5f       	rla.b	r15		;
    2722:	31 32       	jn	$-924    	;abs 0x2386
    2724:	4d 48       	mov.b	r8,	r13	;
    2726:	5a 3a       	jl	$-842    	;abs 0x23dc
    2728:	47 28       	jnc	$+144    	;abs 0x27b8
    272a:	31 2c       	jc	$+100    	;abs 0x278e
    272c:	35 29       	jnc	$+620    	;abs 0x2998
    272e:	00 43       	clr	r0		;
    2730:	41 4c       	mov.b	r12,	r1	;
    2732:	42 43       	clr.b	r2		;
    2734:	31 5f       	add	@r15+,	r1	;
    2736:	31 32       	jn	$-924    	;abs 0x239a
    2738:	4d 48       	mov.b	r8,	r13	;
    273a:	5a 3a       	jl	$-842    	;abs 0x23f0
    273c:	47 28       	jnc	$+144    	;abs 0x27cc
    273e:	31 2c       	jc	$+100    	;abs 0x27a2
    2740:	35 29       	jnc	$+620    	;abs 0x29ac
    2742:	00 43       	clr	r0		;
    2744:	41 4c       	mov.b	r12,	r1	;
    2746:	44 43       	clr.b	r4		;
    2748:	4f 5f       	rla.b	r15		;
    274a:	38 4d       	mov	@r13+,	r8	;
    274c:	48 5a       	add.b	r10,	r8	;
    274e:	3a 47       	mov	@r7+,	r10	;
    2750:	28 31       	jn	$+594    	;abs 0x29a2
    2752:	2c 35       	jge	$+602    	;abs 0x29ac
    2754:	29 00       	.word	0x0029;	????
    2756:	43 41       	.word	0x4143;	????
    2758:	4c 42       	mov.b	r2,	r12	;
    275a:	43 31       	jn	$+648    	;abs 0x29e2
    275c:	5f 38       	jl	$+192    	;abs 0x281c
    275e:	4d 48       	mov.b	r8,	r13	;
    2760:	5a 3a       	jl	$-842    	;abs 0x2416
    2762:	47 28       	jnc	$+144    	;abs 0x27f2
    2764:	31 2c       	jc	$+100    	;abs 0x27c8
    2766:	35 29       	jnc	$+620    	;abs 0x29d2
    2768:	00 43       	clr	r0		;
    276a:	41 4c       	mov.b	r12,	r1	;
    276c:	44 43       	clr.b	r4		;
    276e:	4f 5f       	rla.b	r15		;
    2770:	31 4d       	mov	@r13+,	r1	;
    2772:	48 5a       	add.b	r10,	r8	;
    2774:	3a 47       	mov	@r7+,	r10	;
    2776:	28 31       	jn	$+594    	;abs 0x29c8
    2778:	2c 35       	jge	$+602    	;abs 0x29d2
    277a:	29 00       	.word	0x0029;	????
    277c:	43 41       	.word	0x4143;	????
    277e:	4c 42       	mov.b	r2,	r12	;
    2780:	43 31       	jn	$+648    	;abs 0x2a08
    2782:	5f 31       	jn	$+704    	;abs 0x2a42
    2784:	4d 48       	mov.b	r8,	r13	;
    2786:	5a 3a       	jl	$-842    	;abs 0x243c
    2788:	47 28       	jnc	$+144    	;abs 0x2818
    278a:	31 2c       	jc	$+100    	;abs 0x27ee
    278c:	35 29       	jnc	$+620    	;abs 0x29f8
    278e:	00 61       	addc	r1,	r0	;
    2790:	6f 6e       	addc.b	@r14,	r15	;
    2792:	64 65       	addc.b	@r5,	r4	;
    2794:	3a 47       	mov	@r7+,	r10	;
    2796:	28 30       	jn	$+82     	;abs 0x27e8
    2798:	2c 31       	jn	$+602    	;abs 0x29f2
    279a:	31 29       	jnc	$+612    	;abs 0x29fe
    279c:	00 43       	clr	r0		;
    279e:	3a 5c       	add	@r12+,	r10	;
    27a0:	6d 73       	subc.b	#2,	r13	;r3 As==10
    27a2:	70 67       	addc.b	@r7+,	r0	;
    27a4:	63 63       	.word	0x6363;	????
    27a6:	5c 50 72 6f 	add.b	0x6f72,	r12	;PC rel. 0x971a
    27aa:	6a 65       	addc.b	@r5,	r10	;
    27ac:	74 6f       	addc.b	@r15+,	r4	;
    27ae:	73 5c       	.word	0x5c73;	????
    27b0:	41 6e       	addc.b	r14,	r1	;
    27b2:	64 65       	addc.b	@r5,	r4	;
    27b4:	72 73       	subc.b	#-1,	r2	;r3 As==11
    27b6:	6f 6e       	addc.b	@r14,	r15	;
    27b8:	2f 00       	.word	0x002f;	????
    27ba:	6c 63       	addc.b	#2,	r12	;r3 As==10
    27bc:	64 32       	jn	$-822    	;abs 0x2486
    27be:	31 31       	jn	$+612    	;abs 0x2a22
    27c0:	32 2e       	jc	$-922    	;abs 0x2426
    27c2:	63 00       	.word	0x0063;	????
    27c4:	63 3a       	jl	$-824    	;abs 0x248c
    27c6:	2f 6d       	addc	@r13,	r15	;
    27c8:	73 70       	.word	0x7073;	????
    27ca:	67 63       	addc.b	#2,	r7	;r3 As==10
    27cc:	63 2f       	jc	$-312    	;abs 0x2694
    27ce:	6d 73       	subc.b	#2,	r13	;r3 As==10
    27d0:	70 34       	jge	$+226    	;abs 0x28b2
    27d2:	33 30       	jn	$+104    	;abs 0x283a
    27d4:	2f 69       	addc	@r9,	r15	;
    27d6:	6e 63       	addc.b	#2,	r14	;r3 As==10
    27d8:	6c 75       	subc.b	@r5,	r12	;
    27da:	64 65       	addc.b	@r5,	r4	;
    27dc:	2f 73       	subc	#2,	r15	;r3 As==10
    27de:	69 67       	addc.b	@r7,	r9	;
    27e0:	6e 61       	addc.b	@r1,	r14	;
    27e2:	6c 2e       	jc	$-806    	;abs 0x24bc
    27e4:	68 00       	.word	0x0068;	????
    27e6:	54 61 62 65 	addc.b	25954(r1),r4	;
    27ea:	6c 61       	addc.b	@r1,	r12	;
    27ec:	5f 41 53 43 	mov.b	17235(r1),r15	;
    27f0:	49 49       	mov.b	r9,	r9	;
    27f2:	2e 68       	addc	@r8,	r14	;
    27f4:	00 6c       	addc	r12,	r0	;
    27f6:	63 64       	.word	0x6463;	????
    27f8:	5f 77 72 63 	subc.b	25458(r7),r15	;
    27fc:	6f 6d       	addc.b	@r13,	r15	;
    27fe:	6d 61       	addc.b	@r1,	r13	;
    2800:	6e 64       	addc.b	@r4,	r14	;
    2802:	3a 46       	mov	@r6+,	r10	;
    2804:	28 30       	jn	$+82     	;abs 0x2856
    2806:	2c 32       	jn	$-934    	;abs 0x2460
    2808:	30 29       	jnc	$+610    	;abs 0x2a6a
    280a:	00 63       	adc	r0		;
    280c:	6d 64       	addc.b	@r4,	r13	;
    280e:	3a 50 28 30 	add	#12328,	r10	;#0x3028
    2812:	2c 31       	jn	$+602    	;abs 0x2a6c
    2814:	31 29       	jnc	$+612    	;abs 0x2a78
    2816:	00 6c       	addc	r12,	r0	;
    2818:	63 64       	.word	0x6463;	????
    281a:	5f 77 72 64 	subc.b	25714(r7),r15	;
    281e:	61 74       	subc.b	@r4,	r1	;
    2820:	61 3a       	jl	$-828    	;abs 0x24e4
    2822:	46 28       	jnc	$+142    	;abs 0x28b0
    2824:	30 2c       	jc	$+98     	;abs 0x2886
    2826:	32 30       	jn	$+102    	;abs 0x288c
    2828:	29 00       	.word	0x0029;	????
    282a:	6c 63       	addc.b	#2,	r12	;r3 As==10
    282c:	64 5f       	add.b	@r15,	r4	;
    282e:	69 6e       	addc.b	@r14,	r9	;
    2830:	69 74       	subc.b	@r4,	r9	;
    2832:	6d 6f       	addc.b	@r15,	r13	;
    2834:	64 75       	subc.b	@r5,	r4	;
    2836:	6c 65       	addc.b	@r5,	r12	;
    2838:	3a 46       	mov	@r6+,	r10	;
    283a:	28 30       	jn	$+82     	;abs 0x288c
    283c:	2c 32       	jn	$-934    	;abs 0x2496
    283e:	30 29       	jnc	$+610    	;abs 0x2aa0
    2840:	00 73       	sbc	r0		;
    2842:	74 61       	addc.b	@r1+,	r4	;
    2844:	74 65       	addc.b	@r5+,	r4	;
    2846:	3a 50 28 30 	add	#12328,	r10	;#0x3028
    284a:	2c 31       	jn	$+602    	;abs 0x2aa4
    284c:	31 29       	jnc	$+612    	;abs 0x2ab0
    284e:	00 69       	addc	r9,	r0	;
    2850:	3a 72       	subc	#8,	r10	;r2 As==11
    2852:	28 30       	jn	$+82     	;abs 0x28a4
    2854:	2c 34       	jge	$+90     	;abs 0x28ae
    2856:	29 00       	.word	0x0029;	????
    2858:	6c 63       	addc.b	#2,	r12	;r3 As==10
    285a:	64 5f       	add.b	@r15,	r4	;
    285c:	73 65       	.word	0x6573;	????
    285e:	74 63       	addc.b	#-1,	r4	;r3 As==11
    2860:	6f 6e       	addc.b	@r14,	r15	;
    2862:	74 72       	subc.b	#8,	r4	;r2 As==11
    2864:	61 73       	subc.b	#2,	r1	;r3 As==10
    2866:	74 65       	addc.b	@r5+,	r4	;
    2868:	3a 46       	mov	@r6+,	r10	;
    286a:	28 30       	jn	$+82     	;abs 0x28bc
    286c:	2c 32       	jn	$-934    	;abs 0x24c6
    286e:	30 29       	jnc	$+610    	;abs 0x2ad0
    2870:	00 76       	subc	r6,	r0	;
    2872:	3a 50 28 30 	add	#12328,	r10	;#0x3028
    2876:	2c 31       	jn	$+602    	;abs 0x2ad0
    2878:	31 29       	jnc	$+612    	;abs 0x2adc
    287a:	00 6c       	addc	r12,	r0	;
    287c:	63 64       	.word	0x6463;	????
    287e:	5f 63       	addc.b	#1,	r15	;r3 As==01
    2880:	6c 72       	subc.b	#4,	r12	;r2 As==10
    2882:	73 63       	.word	0x6373;	????
    2884:	72 3a       	jl	$-794    	;abs 0x256a
    2886:	46 28       	jnc	$+142    	;abs 0x2914
    2888:	30 2c       	jc	$+98     	;abs 0x28ea
    288a:	32 30       	jn	$+102    	;abs 0x28f0
    288c:	29 00       	.word	0x0029;	????
    288e:	6c 63       	addc.b	#2,	r12	;r3 As==10
    2890:	64 5f       	add.b	@r15,	r4	;
    2892:	6f 6e       	addc.b	@r14,	r15	;
    2894:	3a 46       	mov	@r6+,	r10	;
    2896:	28 30       	jn	$+82     	;abs 0x28e8
    2898:	2c 32       	jn	$-934    	;abs 0x24f2
    289a:	30 29       	jnc	$+610    	;abs 0x2afc
    289c:	00 6c       	addc	r12,	r0	;
    289e:	63 64       	.word	0x6463;	????
    28a0:	5f 6f 66 66 	addc.b	26214(r15),r15	;
    28a4:	3a 46       	mov	@r6+,	r10	;
    28a6:	28 30       	jn	$+82     	;abs 0x28f8
    28a8:	2c 32       	jn	$-934    	;abs 0x2502
    28aa:	30 29       	jnc	$+610    	;abs 0x2b0c
    28ac:	00 6c       	addc	r12,	r0	;
    28ae:	63 64       	.word	0x6463;	????
    28b0:	5f 72 65 76 	subc.b	&0x7665,r15	;0x7665
    28b4:	65 72       	subc.b	#4,	r5	;r2 As==10
    28b6:	73 65       	.word	0x6573;	????
    28b8:	3a 46       	mov	@r6+,	r10	;
    28ba:	28 30       	jn	$+82     	;abs 0x290c
    28bc:	2c 32       	jn	$-934    	;abs 0x2516
    28be:	30 29       	jnc	$+610    	;abs 0x2b20
    28c0:	00 6c       	addc	r12,	r0	;
    28c2:	63 64       	.word	0x6463;	????
    28c4:	5f 6e 6f 72 	addc.b	29295(r14),r15	;
    28c8:	6d 61       	addc.b	@r1,	r13	;
    28ca:	6c 3a       	jl	$-806    	;abs 0x25a4
    28cc:	46 28       	jnc	$+142    	;abs 0x295a
    28ce:	30 2c       	jc	$+98     	;abs 0x2930
    28d0:	32 30       	jn	$+102    	;abs 0x2936
    28d2:	29 00       	.word	0x0029;	????
    28d4:	6c 63       	addc.b	#2,	r12	;r3 As==10
    28d6:	64 5f       	add.b	@r15,	r4	;
    28d8:	6e 65       	addc.b	@r5,	r14	;
    28da:	77 6c       	addc.b	@r12+,	r7	;
    28dc:	69 6e       	addc.b	@r14,	r9	;
    28de:	65 3a       	jl	$-820    	;abs 0x25aa
    28e0:	46 28       	jnc	$+142    	;abs 0x296e
    28e2:	30 2c       	jc	$+98     	;abs 0x2944
    28e4:	32 30       	jn	$+102    	;abs 0x294a
    28e6:	29 00       	.word	0x0029;	????
    28e8:	6c 63       	addc.b	#2,	r12	;r3 As==10
    28ea:	64 5f       	add.b	@r15,	r4	;
    28ec:	67 6f       	addc.b	@r15,	r7	;
    28ee:	74 6f       	addc.b	@r15+,	r4	;
    28f0:	3a 46       	mov	@r6+,	r10	;
    28f2:	28 30       	jn	$+82     	;abs 0x2944
    28f4:	2c 32       	jn	$-934    	;abs 0x254e
    28f6:	30 29       	jnc	$+610    	;abs 0x2b58
    28f8:	00 78       	subc	r8,	r0	;
    28fa:	3a 50 28 30 	add	#12328,	r10	;#0x3028
    28fe:	2c 31       	jn	$+602    	;abs 0x2b58
    2900:	31 29       	jnc	$+612    	;abs 0x2b64
    2902:	00 79       	subc	r9,	r0	;
    2904:	3a 50 28 30 	add	#12328,	r10	;#0x3028
    2908:	2c 31       	jn	$+602    	;abs 0x2b62
    290a:	31 29       	jnc	$+612    	;abs 0x2b6e
    290c:	00 6b       	addc	r11,	r0	;
    290e:	3a 72       	subc	#8,	r10	;r2 As==11
    2910:	28 30       	jn	$+82     	;abs 0x2962
    2912:	2c 31       	jn	$+602    	;abs 0x2b6c
    2914:	31 29       	jnc	$+612    	;abs 0x2b78
    2916:	00 6c       	addc	r12,	r0	;
    2918:	63 64       	.word	0x6463;	????
    291a:	5f 77 72 63 	subc.b	25458(r7),r15	;
    291e:	68 61       	addc.b	@r1,	r8	;
    2920:	72 3a       	jl	$-794    	;abs 0x2606
    2922:	46 28       	jnc	$+142    	;abs 0x29b0
    2924:	30 2c       	jc	$+98     	;abs 0x2986
    2926:	32 30       	jn	$+102    	;abs 0x298c
    2928:	29 00       	.word	0x0029;	????
    292a:	63 3a       	jl	$-824    	;abs 0x25f2
    292c:	50 28       	jnc	$+162    	;abs 0x29ce
    292e:	30 2c       	jc	$+98     	;abs 0x2990
    2930:	31 31       	jn	$+612    	;abs 0x2b94
    2932:	29 00       	.word	0x0029;	????
    2934:	6c 63       	addc.b	#2,	r12	;r3 As==10
    2936:	64 5f       	add.b	@r15,	r4	;
    2938:	70 75       	subc.b	@r5+,	r0	;
    293a:	74 63       	addc.b	#-1,	r4	;r3 As==11
    293c:	68 61       	addc.b	@r1,	r8	;
    293e:	72 3a       	jl	$-794    	;abs 0x2624
    2940:	46 28       	jnc	$+142    	;abs 0x29ce
    2942:	30 2c       	jc	$+98     	;abs 0x29a4
    2944:	32 30       	jn	$+102    	;abs 0x29aa
    2946:	29 00       	.word	0x0029;	????
    2948:	6c 63       	addc.b	#2,	r12	;r3 As==10
    294a:	64 5f       	add.b	@r15,	r4	;
    294c:	70 75       	subc.b	@r5+,	r0	;
    294e:	74 6c       	addc.b	@r12+,	r4	;
    2950:	6f 67       	addc.b	@r7,	r15	;
    2952:	6f 3a       	jl	$-800    	;abs 0x2632
    2954:	46 28       	jnc	$+142    	;abs 0x29e2
    2956:	30 2c       	jc	$+98     	;abs 0x29b8
    2958:	32 30       	jn	$+102    	;abs 0x29be
    295a:	29 00       	.word	0x0029;	????
    295c:	70 3a       	jl	$-798    	;abs 0x263e
    295e:	50 28       	jnc	$+162    	;abs 0x2a00
    2960:	31 2c       	jc	$+100    	;abs 0x29c4
    2962:	31 29       	jnc	$+612    	;abs 0x2bc6
    2964:	3d 2a       	jnc	$-900    	;abs 0x25e0
    2966:	28 31       	jn	$+594    	;abs 0x2bb8
    2968:	2c 32       	jn	$-934    	;abs 0x25c2
    296a:	29 3d       	jmp	$+596    	;abs 0x2bbe
    296c:	6b 28       	jnc	$+216    	;abs 0x2a44
    296e:	30 2c       	jc	$+98     	;abs 0x29d0
    2970:	31 31       	jn	$+612    	;abs 0x2bd4
    2972:	29 00       	.word	0x0029;	????
    2974:	4d 50       	add.b	r0,	r13	;
    2976:	59 3a       	jl	$-844    	;abs 0x262a
    2978:	47 28       	jnc	$+144    	;abs 0x2a08
    297a:	31 37       	jge	$-412    	;abs 0x27de
    297c:	2c 38       	jl	$+90     	;abs 0x29d6
    297e:	29 00       	.word	0x0029;	????
    2980:	4d 50       	add.b	r0,	r13	;
    2982:	59 53       	inc.b	r9		;
    2984:	3a 47       	mov	@r7+,	r10	;
    2986:	28 31       	jn	$+594    	;abs 0x2bd8
    2988:	37 2c       	jc	$+112    	;abs 0x29f8
    298a:	38 29       	jnc	$+626    	;abs 0x2bfc
    298c:	00 4d       	br	r13		;
    298e:	41 43       	clr.b	r1		;
    2990:	3a 47       	mov	@r7+,	r10	;
    2992:	28 31       	jn	$+594    	;abs 0x2be4
    2994:	37 2c       	jc	$+112    	;abs 0x2a04
    2996:	38 29       	jnc	$+626    	;abs 0x2c08
    2998:	00 4d       	br	r13		;
    299a:	41 43       	clr.b	r1		;
    299c:	53 3a       	jl	$-856    	;abs 0x2644
    299e:	47 28       	jnc	$+144    	;abs 0x2a2e
    29a0:	31 37       	jge	$-412    	;abs 0x2804
    29a2:	2c 38       	jl	$+90     	;abs 0x29fc
    29a4:	29 00       	.word	0x0029;	????
    29a6:	4f 50       	add.b	r0,	r15	;
    29a8:	32 3a       	jl	$-922    	;abs 0x260e
    29aa:	47 28       	jnc	$+144    	;abs 0x2a3a
    29ac:	31 37       	jge	$-412    	;abs 0x2810
    29ae:	2c 38       	jl	$+90     	;abs 0x2a08
    29b0:	29 00       	.word	0x0029;	????
    29b2:	52 45 53 4c 	mov.b	19539(r5),r2	;
    29b6:	4f 3a       	jl	$-864    	;abs 0x2656
    29b8:	47 28       	jnc	$+144    	;abs 0x2a48
    29ba:	31 37       	jge	$-412    	;abs 0x281e
    29bc:	2c 38       	jl	$+90     	;abs 0x2a16
    29be:	29 00       	.word	0x0029;	????
    29c0:	52 45 53 48 	mov.b	18515(r5),r2	;
    29c4:	49 3a       	jl	$-876    	;abs 0x2658
    29c6:	47 28       	jnc	$+144    	;abs 0x2a56
    29c8:	31 37       	jge	$-412    	;abs 0x282c
    29ca:	2c 38       	jl	$+90     	;abs 0x2a24
    29cc:	29 00       	.word	0x0029;	????
    29ce:	53 55       	.word	0x5553;	????
    29d0:	4d 45       	mov.b	r5,	r13	;
    29d2:	58 54 3a 47 	add.b	18234(r4),r8	;
    29d6:	28 31       	jn	$+594    	;abs 0x2c28
    29d8:	37 2c       	jc	$+112    	;abs 0x2a48
    29da:	38 29       	jnc	$+626    	;abs 0x2c4c
    29dc:	00 70       	subc	r0,	r0	;
    29de:	6f 72       	subc.b	#4,	r15	;r2 As==10
    29e0:	74 31       	jn	$+746    	;abs 0x2cca
    29e2:	3a 47       	mov	@r7+,	r10	;
    29e4:	28 31       	jn	$+594    	;abs 0x2c36
    29e6:	35 2c       	jc	$+108    	;abs 0x2a52
    29e8:	34 29       	jnc	$+618    	;abs 0x2c52
    29ea:	00 70       	subc	r0,	r0	;
    29ec:	6f 72       	subc.b	#4,	r15	;r2 As==10
    29ee:	74 32       	jn	$-790    	;abs 0x26d8
    29f0:	3a 47       	mov	@r7+,	r10	;
    29f2:	28 31       	jn	$+594    	;abs 0x2c44
    29f4:	35 2c       	jc	$+108    	;abs 0x2a60
    29f6:	34 29       	jnc	$+618    	;abs 0x2c60
    29f8:	00 70       	subc	r0,	r0	;
    29fa:	6f 72       	subc.b	#4,	r15	;r2 As==10
    29fc:	74 33       	jn	$-278    	;abs 0x28e6
    29fe:	3a 47       	mov	@r7+,	r10	;
    2a00:	28 31       	jn	$+594    	;abs 0x2c52
    2a02:	35 2c       	jc	$+108    	;abs 0x2a6e
    2a04:	35 29       	jnc	$+620    	;abs 0x2c70
    2a06:	00 70       	subc	r0,	r0	;
    2a08:	6f 72       	subc.b	#4,	r15	;r2 As==10
    2a0a:	74 34       	jge	$+234    	;abs 0x2af4
    2a0c:	3a 47       	mov	@r7+,	r10	;
    2a0e:	28 31       	jn	$+594    	;abs 0x2c60
    2a10:	35 2c       	jc	$+108    	;abs 0x2a7c
    2a12:	35 29       	jnc	$+620    	;abs 0x2c7e
    2a14:	00 70       	subc	r0,	r0	;
    2a16:	6f 72       	subc.b	#4,	r15	;r2 As==10
    2a18:	74 35       	jge	$+746    	;abs 0x2d02
    2a1a:	3a 47       	mov	@r7+,	r10	;
    2a1c:	28 31       	jn	$+594    	;abs 0x2c6e
    2a1e:	35 2c       	jc	$+108    	;abs 0x2a8a
    2a20:	35 29       	jnc	$+620    	;abs 0x2c8c
    2a22:	00 70       	subc	r0,	r0	;
    2a24:	6f 72       	subc.b	#4,	r15	;r2 As==10
    2a26:	74 36       	jge	$-790    	;abs 0x2710
    2a28:	3a 47       	mov	@r7+,	r10	;
    2a2a:	28 31       	jn	$+594    	;abs 0x2c7c
    2a2c:	35 2c       	jc	$+108    	;abs 0x2a98
    2a2e:	35 29       	jnc	$+620    	;abs 0x2c9a
    2a30:	00 50       	rla	r0		;
    2a32:	31 49       	mov	@r9+,	r1	;
    2a34:	4e 3a       	jl	$-866    	;abs 0x26d2
    2a36:	47 28       	jnc	$+144    	;abs 0x2ac6
    2a38:	31 2c       	jc	$+100    	;abs 0x2a9c
    2a3a:	33 29       	jnc	$+616    	;abs 0x2ca2
    2a3c:	3d 42       	mov	#8,	r13	;r2 As==11
    2a3e:	28 30       	jn	$+82     	;abs 0x2a90
    2a40:	2c 31       	jn	$+602    	;abs 0x2c9a
    2a42:	31 29       	jnc	$+612    	;abs 0x2ca6
    2a44:	00 50       	rla	r0		;
    2a46:	31 4f       	mov	@r15+,	r1	;
    2a48:	55 54 3a 47 	add.b	18234(r4),r5	;
    2a4c:	28 31       	jn	$+594    	;abs 0x2c9e
    2a4e:	2c 33       	jn	$-422    	;abs 0x28a8
    2a50:	29 00       	.word	0x0029;	????
    2a52:	50 31       	jn	$+674    	;abs 0x2cf4
    2a54:	44 49       	mov.b	r9,	r4	;
    2a56:	52 3a       	jl	$-858    	;abs 0x26fc
    2a58:	47 28       	jnc	$+144    	;abs 0x2ae8
    2a5a:	31 2c       	jc	$+100    	;abs 0x2abe
    2a5c:	33 29       	jnc	$+616    	;abs 0x2cc4
    2a5e:	00 50       	rla	r0		;
    2a60:	31 49       	mov	@r9+,	r1	;
    2a62:	46 47       	mov.b	r7,	r6	;
    2a64:	3a 47       	mov	@r7+,	r10	;
    2a66:	28 31       	jn	$+594    	;abs 0x2cb8
    2a68:	2c 33       	jn	$-422    	;abs 0x28c2
    2a6a:	29 00       	.word	0x0029;	????
    2a6c:	50 31       	jn	$+674    	;abs 0x2d0e
    2a6e:	49 45       	mov.b	r5,	r9	;
    2a70:	53 3a       	jl	$-856    	;abs 0x2718
    2a72:	47 28       	jnc	$+144    	;abs 0x2b02
    2a74:	31 2c       	jc	$+100    	;abs 0x2ad8
    2a76:	33 29       	jnc	$+616    	;abs 0x2cde
    2a78:	00 50       	rla	r0		;
    2a7a:	31 49       	mov	@r9+,	r1	;
    2a7c:	45 3a       	jl	$-884    	;abs 0x2708
    2a7e:	47 28       	jnc	$+144    	;abs 0x2b0e
    2a80:	31 2c       	jc	$+100    	;abs 0x2ae4
    2a82:	33 29       	jnc	$+616    	;abs 0x2cea
    2a84:	00 50       	rla	r0		;
    2a86:	31 53       	add	#-1,	r1	;r3 As==11
    2a88:	45 4c       	mov.b	r12,	r5	;
    2a8a:	3a 47       	mov	@r7+,	r10	;
    2a8c:	28 31       	jn	$+594    	;abs 0x2cde
    2a8e:	2c 33       	jn	$-422    	;abs 0x28e8
    2a90:	29 00       	.word	0x0029;	????
    2a92:	50 31       	jn	$+674    	;abs 0x2d34
    2a94:	52 45 4e 3a 	mov.b	14926(r5),r2	;
    2a98:	47 28       	jnc	$+144    	;abs 0x2b28
    2a9a:	31 2c       	jc	$+100    	;abs 0x2afe
    2a9c:	33 29       	jnc	$+616    	;abs 0x2d04
    2a9e:	00 50       	rla	r0		;
    2aa0:	32 49       	mov	@r9+,	r2	;
    2aa2:	4e 3a       	jl	$-866    	;abs 0x2740
    2aa4:	47 28       	jnc	$+144    	;abs 0x2b34
    2aa6:	31 2c       	jc	$+100    	;abs 0x2b0a
    2aa8:	33 29       	jnc	$+616    	;abs 0x2d10
    2aaa:	00 50       	rla	r0		;
    2aac:	32 4f       	mov	@r15+,	r2	;
    2aae:	55 54 3a 47 	add.b	18234(r4),r5	;
    2ab2:	28 31       	jn	$+594    	;abs 0x2d04
    2ab4:	2c 33       	jn	$-422    	;abs 0x290e
    2ab6:	29 00       	.word	0x0029;	????
    2ab8:	50 32       	jn	$-862    	;abs 0x275a
    2aba:	44 49       	mov.b	r9,	r4	;
    2abc:	52 3a       	jl	$-858    	;abs 0x2762
    2abe:	47 28       	jnc	$+144    	;abs 0x2b4e
    2ac0:	31 2c       	jc	$+100    	;abs 0x2b24
    2ac2:	33 29       	jnc	$+616    	;abs 0x2d2a
    2ac4:	00 50       	rla	r0		;
    2ac6:	32 49       	mov	@r9+,	r2	;
    2ac8:	46 47       	mov.b	r7,	r6	;
    2aca:	3a 47       	mov	@r7+,	r10	;
    2acc:	28 31       	jn	$+594    	;abs 0x2d1e
    2ace:	2c 33       	jn	$-422    	;abs 0x2928
    2ad0:	29 00       	.word	0x0029;	????
    2ad2:	50 32       	jn	$-862    	;abs 0x2774
    2ad4:	49 45       	mov.b	r5,	r9	;
    2ad6:	53 3a       	jl	$-856    	;abs 0x277e
    2ad8:	47 28       	jnc	$+144    	;abs 0x2b68
    2ada:	31 2c       	jc	$+100    	;abs 0x2b3e
    2adc:	33 29       	jnc	$+616    	;abs 0x2d44
    2ade:	00 50       	rla	r0		;
    2ae0:	32 49       	mov	@r9+,	r2	;
    2ae2:	45 3a       	jl	$-884    	;abs 0x276e
    2ae4:	47 28       	jnc	$+144    	;abs 0x2b74
    2ae6:	31 2c       	jc	$+100    	;abs 0x2b4a
    2ae8:	33 29       	jnc	$+616    	;abs 0x2d50
    2aea:	00 50       	rla	r0		;
    2aec:	32 53       	add	#-1,	r2	;r3 As==11
    2aee:	45 4c       	mov.b	r12,	r5	;
    2af0:	3a 47       	mov	@r7+,	r10	;
    2af2:	28 31       	jn	$+594    	;abs 0x2d44
    2af4:	2c 33       	jn	$-422    	;abs 0x294e
    2af6:	29 00       	.word	0x0029;	????
    2af8:	50 32       	jn	$-862    	;abs 0x279a
    2afa:	52 45 4e 3a 	mov.b	14926(r5),r2	;
    2afe:	47 28       	jnc	$+144    	;abs 0x2b8e
    2b00:	31 2c       	jc	$+100    	;abs 0x2b64
    2b02:	33 29       	jnc	$+616    	;abs 0x2d6a
    2b04:	00 50       	rla	r0		;
    2b06:	33 49       	.word	0x4933;	????
    2b08:	4e 3a       	jl	$-866    	;abs 0x27a6
    2b0a:	47 28       	jnc	$+144    	;abs 0x2b9a
    2b0c:	31 2c       	jc	$+100    	;abs 0x2b70
    2b0e:	33 29       	jnc	$+616    	;abs 0x2d76
    2b10:	00 50       	rla	r0		;
    2b12:	33 4f       	.word	0x4f33;	????
    2b14:	55 54 3a 47 	add.b	18234(r4),r5	;
    2b18:	28 31       	jn	$+594    	;abs 0x2d6a
    2b1a:	2c 33       	jn	$-422    	;abs 0x2974
    2b1c:	29 00       	.word	0x0029;	????
    2b1e:	50 33       	jn	$-350    	;abs 0x29c0
    2b20:	44 49       	mov.b	r9,	r4	;
    2b22:	52 3a       	jl	$-858    	;abs 0x27c8
    2b24:	47 28       	jnc	$+144    	;abs 0x2bb4
    2b26:	31 2c       	jc	$+100    	;abs 0x2b8a
    2b28:	33 29       	jnc	$+616    	;abs 0x2d90
    2b2a:	00 50       	rla	r0		;
    2b2c:	33 53       	.word	0x5333;	????
    2b2e:	45 4c       	mov.b	r12,	r5	;
    2b30:	3a 47       	mov	@r7+,	r10	;
    2b32:	28 31       	jn	$+594    	;abs 0x2d84
    2b34:	2c 33       	jn	$-422    	;abs 0x298e
    2b36:	29 00       	.word	0x0029;	????
    2b38:	50 33       	jn	$-350    	;abs 0x29da
    2b3a:	52 45 4e 3a 	mov.b	14926(r5),r2	;
    2b3e:	47 28       	jnc	$+144    	;abs 0x2bce
    2b40:	31 2c       	jc	$+100    	;abs 0x2ba4
    2b42:	33 29       	jnc	$+616    	;abs 0x2daa
    2b44:	00 50       	rla	r0		;
    2b46:	34 49       	mov	@r9+,	r4	;
    2b48:	4e 3a       	jl	$-866    	;abs 0x27e6
    2b4a:	47 28       	jnc	$+144    	;abs 0x2bda
    2b4c:	31 2c       	jc	$+100    	;abs 0x2bb0
    2b4e:	33 29       	jnc	$+616    	;abs 0x2db6
    2b50:	00 50       	rla	r0		;
    2b52:	34 4f       	mov	@r15+,	r4	;
    2b54:	55 54 3a 47 	add.b	18234(r4),r5	;
    2b58:	28 31       	jn	$+594    	;abs 0x2daa
    2b5a:	2c 33       	jn	$-422    	;abs 0x29b4
    2b5c:	29 00       	.word	0x0029;	????
    2b5e:	50 34       	jge	$+162    	;abs 0x2c00
    2b60:	44 49       	mov.b	r9,	r4	;
    2b62:	52 3a       	jl	$-858    	;abs 0x2808
    2b64:	47 28       	jnc	$+144    	;abs 0x2bf4
    2b66:	31 2c       	jc	$+100    	;abs 0x2bca
    2b68:	33 29       	jnc	$+616    	;abs 0x2dd0
    2b6a:	00 50       	rla	r0		;
    2b6c:	34 53       	add	#-1,	r4	;r3 As==11
    2b6e:	45 4c       	mov.b	r12,	r5	;
    2b70:	3a 47       	mov	@r7+,	r10	;
    2b72:	28 31       	jn	$+594    	;abs 0x2dc4
    2b74:	2c 33       	jn	$-422    	;abs 0x29ce
    2b76:	29 00       	.word	0x0029;	????
    2b78:	50 34       	jge	$+162    	;abs 0x2c1a
    2b7a:	52 45 4e 3a 	mov.b	14926(r5),r2	;
    2b7e:	47 28       	jnc	$+144    	;abs 0x2c0e
    2b80:	31 2c       	jc	$+100    	;abs 0x2be4
    2b82:	33 29       	jnc	$+616    	;abs 0x2dea
    2b84:	00 50       	rla	r0		;
    2b86:	35 49       	mov	@r9+,	r5	;
    2b88:	4e 3a       	jl	$-866    	;abs 0x2826
    2b8a:	47 28       	jnc	$+144    	;abs 0x2c1a
    2b8c:	31 2c       	jc	$+100    	;abs 0x2bf0
    2b8e:	33 29       	jnc	$+616    	;abs 0x2df6
    2b90:	00 50       	rla	r0		;
    2b92:	35 4f       	mov	@r15+,	r5	;
    2b94:	55 54 3a 47 	add.b	18234(r4),r5	;
    2b98:	28 31       	jn	$+594    	;abs 0x2dea
    2b9a:	2c 33       	jn	$-422    	;abs 0x29f4
    2b9c:	29 00       	.word	0x0029;	????
    2b9e:	50 35       	jge	$+674    	;abs 0x2e40
    2ba0:	44 49       	mov.b	r9,	r4	;
    2ba2:	52 3a       	jl	$-858    	;abs 0x2848
    2ba4:	47 28       	jnc	$+144    	;abs 0x2c34
    2ba6:	31 2c       	jc	$+100    	;abs 0x2c0a
    2ba8:	33 29       	jnc	$+616    	;abs 0x2e10
    2baa:	00 50       	rla	r0		;
    2bac:	35 53       	add	#-1,	r5	;r3 As==11
    2bae:	45 4c       	mov.b	r12,	r5	;
    2bb0:	3a 47       	mov	@r7+,	r10	;
    2bb2:	28 31       	jn	$+594    	;abs 0x2e04
    2bb4:	2c 33       	jn	$-422    	;abs 0x2a0e
    2bb6:	29 00       	.word	0x0029;	????
    2bb8:	50 35       	jge	$+674    	;abs 0x2e5a
    2bba:	52 45 4e 3a 	mov.b	14926(r5),r2	;
    2bbe:	47 28       	jnc	$+144    	;abs 0x2c4e
    2bc0:	31 2c       	jc	$+100    	;abs 0x2c24
    2bc2:	33 29       	jnc	$+616    	;abs 0x2e2a
    2bc4:	00 50       	rla	r0		;
    2bc6:	36 49       	mov	@r9+,	r6	;
    2bc8:	4e 3a       	jl	$-866    	;abs 0x2866
    2bca:	47 28       	jnc	$+144    	;abs 0x2c5a
    2bcc:	31 2c       	jc	$+100    	;abs 0x2c30
    2bce:	33 29       	jnc	$+616    	;abs 0x2e36
    2bd0:	00 50       	rla	r0		;
    2bd2:	36 4f       	mov	@r15+,	r6	;
    2bd4:	55 54 3a 47 	add.b	18234(r4),r5	;
    2bd8:	28 31       	jn	$+594    	;abs 0x2e2a
    2bda:	2c 33       	jn	$-422    	;abs 0x2a34
    2bdc:	29 00       	.word	0x0029;	????
    2bde:	50 36       	jge	$-862    	;abs 0x2880
    2be0:	44 49       	mov.b	r9,	r4	;
    2be2:	52 3a       	jl	$-858    	;abs 0x2888
    2be4:	47 28       	jnc	$+144    	;abs 0x2c74
    2be6:	31 2c       	jc	$+100    	;abs 0x2c4a
    2be8:	33 29       	jnc	$+616    	;abs 0x2e50
    2bea:	00 50       	rla	r0		;
    2bec:	36 53       	add	#-1,	r6	;r3 As==11
    2bee:	45 4c       	mov.b	r12,	r5	;
    2bf0:	3a 47       	mov	@r7+,	r10	;
    2bf2:	28 31       	jn	$+594    	;abs 0x2e44
    2bf4:	2c 33       	jn	$-422    	;abs 0x2a4e
    2bf6:	29 00       	.word	0x0029;	????
    2bf8:	50 36       	jge	$-862    	;abs 0x289a
    2bfa:	52 45 4e 3a 	mov.b	14926(r5),r2	;
    2bfe:	47 28       	jnc	$+144    	;abs 0x2c8e
    2c00:	31 2c       	jc	$+100    	;abs 0x2c64
    2c02:	33 29       	jnc	$+616    	;abs 0x2e6a
    2c04:	00 55       	add	r5,	r0	;
    2c06:	43 41       	.word	0x4143;	????
    2c08:	30 43       	br	#-1		;r3 As==11
    2c0a:	54 4c 30 3a 	mov.b	14896(r12),r4	;
    2c0e:	47 28       	jnc	$+144    	;abs 0x2c9e
    2c10:	31 2c       	jc	$+100    	;abs 0x2c74
    2c12:	33 29       	jnc	$+616    	;abs 0x2e7a
    2c14:	00 55       	add	r5,	r0	;
    2c16:	43 41       	.word	0x4143;	????
    2c18:	30 43       	br	#-1		;r3 As==11
    2c1a:	54 4c 31 3a 	mov.b	14897(r12),r4	;
    2c1e:	47 28       	jnc	$+144    	;abs 0x2cae
    2c20:	31 2c       	jc	$+100    	;abs 0x2c84
    2c22:	33 29       	jnc	$+616    	;abs 0x2e8a
    2c24:	00 55       	add	r5,	r0	;
    2c26:	43 41       	.word	0x4143;	????
    2c28:	30 42       	br	#8		;r2 As==11
    2c2a:	52 30       	jn	$+166    	;abs 0x2cd0
    2c2c:	3a 47       	mov	@r7+,	r10	;
    2c2e:	28 31       	jn	$+594    	;abs 0x2e80
    2c30:	2c 33       	jn	$-422    	;abs 0x2a8a
    2c32:	29 00       	.word	0x0029;	????
    2c34:	55 43       	mov.b	#1,	r5	;r3 As==01
    2c36:	41 30       	jn	$+132    	;abs 0x2cba
    2c38:	42 52       	rla.b	r2		;
    2c3a:	31 3a       	jl	$-924    	;abs 0x289e
    2c3c:	47 28       	jnc	$+144    	;abs 0x2ccc
    2c3e:	31 2c       	jc	$+100    	;abs 0x2ca2
    2c40:	33 29       	jnc	$+616    	;abs 0x2ea8
    2c42:	00 55       	add	r5,	r0	;
    2c44:	43 41       	.word	0x4143;	????
    2c46:	30 4d       	br	@r13+		;
    2c48:	43 54       	.word	0x5443;	????
    2c4a:	4c 3a       	jl	$-870    	;abs 0x28e4
    2c4c:	47 28       	jnc	$+144    	;abs 0x2cdc
    2c4e:	31 2c       	jc	$+100    	;abs 0x2cb2
    2c50:	33 29       	jnc	$+616    	;abs 0x2eb8
    2c52:	00 55       	add	r5,	r0	;
    2c54:	43 41       	.word	0x4143;	????
    2c56:	30 53       	add	#-1,	r0	;r3 As==11
    2c58:	54 41 54 3a 	mov.b	14932(r1),r4	;
    2c5c:	47 28       	jnc	$+144    	;abs 0x2cec
    2c5e:	31 2c       	jc	$+100    	;abs 0x2cc2
    2c60:	33 29       	jnc	$+616    	;abs 0x2ec8
    2c62:	00 55       	add	r5,	r0	;
    2c64:	43 41       	.word	0x4143;	????
    2c66:	30 52       	add	#8,	r0	;r2 As==11
    2c68:	58 42 55 46 	mov.b	&0x4655,r8	;0x4655
    2c6c:	3a 47       	mov	@r7+,	r10	;
    2c6e:	28 31       	jn	$+594    	;abs 0x2ec0
    2c70:	2c 33       	jn	$-422    	;abs 0x2aca
    2c72:	29 00       	.word	0x0029;	????
    2c74:	55 43       	mov.b	#1,	r5	;r3 As==01
    2c76:	41 30       	jn	$+132    	;abs 0x2cfa
    2c78:	54 58 42 55 	add.b	21826(r8),r4	;
    2c7c:	46 3a       	jl	$-882    	;abs 0x290a
    2c7e:	47 28       	jnc	$+144    	;abs 0x2d0e
    2c80:	31 2c       	jc	$+100    	;abs 0x2ce4
    2c82:	33 29       	jnc	$+616    	;abs 0x2eea
    2c84:	00 55       	add	r5,	r0	;
    2c86:	43 41       	.word	0x4143;	????
    2c88:	30 41       	ret			
    2c8a:	42 43       	clr.b	r2		;
    2c8c:	54 4c 3a 47 	mov.b	18234(r12),r4	;
    2c90:	28 31       	jn	$+594    	;abs 0x2ee2
    2c92:	2c 33       	jn	$-422    	;abs 0x2aec
    2c94:	29 00       	.word	0x0029;	????
    2c96:	55 43       	mov.b	#1,	r5	;r3 As==01
    2c98:	41 30       	jn	$+132    	;abs 0x2d1c
    2c9a:	49 52       	add.b	r2,	r9	;
    2c9c:	54 43       	mov.b	#1,	r4	;r3 As==01
    2c9e:	54 4c 3a 47 	mov.b	18234(r12),r4	;
    2ca2:	28 31       	jn	$+594    	;abs 0x2ef4
    2ca4:	2c 33       	jn	$-422    	;abs 0x2afe
    2ca6:	29 00       	.word	0x0029;	????
    2ca8:	55 43       	mov.b	#1,	r5	;r3 As==01
    2caa:	41 30       	jn	$+132    	;abs 0x2d2e
    2cac:	49 52       	add.b	r2,	r9	;
    2cae:	52 43       	mov.b	#1,	r2	;r3 As==01
    2cb0:	54 4c 3a 47 	mov.b	18234(r12),r4	;
    2cb4:	28 31       	jn	$+594    	;abs 0x2f06
    2cb6:	2c 33       	jn	$-422    	;abs 0x2b10
    2cb8:	29 00       	.word	0x0029;	????
    2cba:	55 43       	mov.b	#1,	r5	;r3 As==01
    2cbc:	42 30       	jn	$+134    	;abs 0x2d42
    2cbe:	43 54       	.word	0x5443;	????
    2cc0:	4c 30       	jn	$+154    	;abs 0x2d5a
    2cc2:	3a 47       	mov	@r7+,	r10	;
    2cc4:	28 31       	jn	$+594    	;abs 0x2f16
    2cc6:	2c 33       	jn	$-422    	;abs 0x2b20
    2cc8:	29 00       	.word	0x0029;	????
    2cca:	55 43       	mov.b	#1,	r5	;r3 As==01
    2ccc:	42 30       	jn	$+134    	;abs 0x2d52
    2cce:	43 54       	.word	0x5443;	????
    2cd0:	4c 31       	jn	$+666    	;abs 0x2f6a
    2cd2:	3a 47       	mov	@r7+,	r10	;
    2cd4:	28 31       	jn	$+594    	;abs 0x2f26
    2cd6:	2c 33       	jn	$-422    	;abs 0x2b30
    2cd8:	29 00       	.word	0x0029;	????
    2cda:	55 43       	mov.b	#1,	r5	;r3 As==01
    2cdc:	42 30       	jn	$+134    	;abs 0x2d62
    2cde:	42 52       	rla.b	r2		;
    2ce0:	30 3a       	jl	$-926    	;abs 0x2942
    2ce2:	47 28       	jnc	$+144    	;abs 0x2d72
    2ce4:	31 2c       	jc	$+100    	;abs 0x2d48
    2ce6:	33 29       	jnc	$+616    	;abs 0x2f4e
    2ce8:	00 55       	add	r5,	r0	;
    2cea:	43 42       	.word	0x4243;	????
    2cec:	30 42       	br	#8		;r2 As==11
    2cee:	52 31       	jn	$+678    	;abs 0x2f94
    2cf0:	3a 47       	mov	@r7+,	r10	;
    2cf2:	28 31       	jn	$+594    	;abs 0x2f44
    2cf4:	2c 33       	jn	$-422    	;abs 0x2b4e
    2cf6:	29 00       	.word	0x0029;	????
    2cf8:	55 43       	mov.b	#1,	r5	;r3 As==01
    2cfa:	42 30       	jn	$+134    	;abs 0x2d80
    2cfc:	49 32       	jn	$-876    	;abs 0x2990
    2cfe:	43 49       	.word	0x4943;	????
    2d00:	45 3a       	jl	$-884    	;abs 0x298c
    2d02:	47 28       	jnc	$+144    	;abs 0x2d92
    2d04:	31 2c       	jc	$+100    	;abs 0x2d68
    2d06:	33 29       	jnc	$+616    	;abs 0x2f6e
    2d08:	00 55       	add	r5,	r0	;
    2d0a:	43 42       	.word	0x4243;	????
    2d0c:	30 53       	add	#-1,	r0	;r3 As==11
    2d0e:	54 41 54 3a 	mov.b	14932(r1),r4	;
    2d12:	47 28       	jnc	$+144    	;abs 0x2da2
    2d14:	31 2c       	jc	$+100    	;abs 0x2d78
    2d16:	33 29       	jnc	$+616    	;abs 0x2f7e
    2d18:	00 55       	add	r5,	r0	;
    2d1a:	43 42       	.word	0x4243;	????
    2d1c:	30 52       	add	#8,	r0	;r2 As==11
    2d1e:	58 42 55 46 	mov.b	&0x4655,r8	;0x4655
    2d22:	3a 47       	mov	@r7+,	r10	;
    2d24:	28 31       	jn	$+594    	;abs 0x2f76
    2d26:	2c 33       	jn	$-422    	;abs 0x2b80
    2d28:	29 00       	.word	0x0029;	????
    2d2a:	55 43       	mov.b	#1,	r5	;r3 As==01
    2d2c:	42 30       	jn	$+134    	;abs 0x2db2
    2d2e:	54 58 42 55 	add.b	21826(r8),r4	;
    2d32:	46 3a       	jl	$-882    	;abs 0x29c0
    2d34:	47 28       	jnc	$+144    	;abs 0x2dc4
    2d36:	31 2c       	jc	$+100    	;abs 0x2d9a
    2d38:	33 29       	jnc	$+616    	;abs 0x2fa0
    2d3a:	00 55       	add	r5,	r0	;
    2d3c:	43 42       	.word	0x4243;	????
    2d3e:	30 49       	br	@r9+		;
    2d40:	32 43       	mov	#-1,	r2	;r3 As==11
    2d42:	4f 41       	mov.b	r1,	r15	;
    2d44:	3a 47       	mov	@r7+,	r10	;
    2d46:	28 31       	jn	$+594    	;abs 0x2f98
    2d48:	37 2c       	jc	$+112    	;abs 0x2db8
    2d4a:	38 29       	jnc	$+626    	;abs 0x2fbc
    2d4c:	00 55       	add	r5,	r0	;
    2d4e:	43 42       	.word	0x4243;	????
    2d50:	30 49       	br	@r9+		;
    2d52:	32 43       	mov	#-1,	r2	;r3 As==11
    2d54:	53 41       	.word	0x4153;	????
    2d56:	3a 47       	mov	@r7+,	r10	;
    2d58:	28 31       	jn	$+594    	;abs 0x2faa
    2d5a:	37 2c       	jc	$+112    	;abs 0x2dca
    2d5c:	38 29       	jnc	$+626    	;abs 0x2fce
    2d5e:	00 55       	add	r5,	r0	;
    2d60:	43 41       	.word	0x4143;	????
    2d62:	31 43       	mov	#-1,	r1	;r3 As==11
    2d64:	54 4c 30 3a 	mov.b	14896(r12),r4	;
    2d68:	47 28       	jnc	$+144    	;abs 0x2df8
    2d6a:	31 2c       	jc	$+100    	;abs 0x2dce
    2d6c:	33 29       	jnc	$+616    	;abs 0x2fd4
    2d6e:	00 55       	add	r5,	r0	;
    2d70:	43 41       	.word	0x4143;	????
    2d72:	31 43       	mov	#-1,	r1	;r3 As==11
    2d74:	54 4c 31 3a 	mov.b	14897(r12),r4	;
    2d78:	47 28       	jnc	$+144    	;abs 0x2e08
    2d7a:	31 2c       	jc	$+100    	;abs 0x2dde
    2d7c:	33 29       	jnc	$+616    	;abs 0x2fe4
    2d7e:	00 55       	add	r5,	r0	;
    2d80:	43 41       	.word	0x4143;	????
    2d82:	31 42       	mov	#8,	r1	;r2 As==11
    2d84:	52 30       	jn	$+166    	;abs 0x2e2a
    2d86:	3a 47       	mov	@r7+,	r10	;
    2d88:	28 31       	jn	$+594    	;abs 0x2fda
    2d8a:	2c 33       	jn	$-422    	;abs 0x2be4
    2d8c:	29 00       	.word	0x0029;	????
    2d8e:	55 43       	mov.b	#1,	r5	;r3 As==01
    2d90:	41 31       	jn	$+644    	;abs 0x3014
    2d92:	42 52       	rla.b	r2		;
    2d94:	31 3a       	jl	$-924    	;abs 0x29f8
    2d96:	47 28       	jnc	$+144    	;abs 0x2e26
    2d98:	31 2c       	jc	$+100    	;abs 0x2dfc
    2d9a:	33 29       	jnc	$+616    	;abs 0x3002
    2d9c:	00 55       	add	r5,	r0	;
    2d9e:	43 41       	.word	0x4143;	????
    2da0:	31 4d       	mov	@r13+,	r1	;
    2da2:	43 54       	.word	0x5443;	????
    2da4:	4c 3a       	jl	$-870    	;abs 0x2a3e
    2da6:	47 28       	jnc	$+144    	;abs 0x2e36
    2da8:	31 2c       	jc	$+100    	;abs 0x2e0c
    2daa:	33 29       	jnc	$+616    	;abs 0x3012
    2dac:	00 55       	add	r5,	r0	;
    2dae:	43 41       	.word	0x4143;	????
    2db0:	31 53       	add	#-1,	r1	;r3 As==11
    2db2:	54 41 54 3a 	mov.b	14932(r1),r4	;
    2db6:	47 28       	jnc	$+144    	;abs 0x2e46
    2db8:	31 2c       	jc	$+100    	;abs 0x2e1c
    2dba:	33 29       	jnc	$+616    	;abs 0x3022
    2dbc:	00 55       	add	r5,	r0	;
    2dbe:	43 41       	.word	0x4143;	????
    2dc0:	31 52       	add	#8,	r1	;r2 As==11
    2dc2:	58 42 55 46 	mov.b	&0x4655,r8	;0x4655
    2dc6:	3a 47       	mov	@r7+,	r10	;
    2dc8:	28 31       	jn	$+594    	;abs 0x301a
    2dca:	2c 33       	jn	$-422    	;abs 0x2c24
    2dcc:	29 00       	.word	0x0029;	????
    2dce:	55 43       	mov.b	#1,	r5	;r3 As==01
    2dd0:	41 31       	jn	$+644    	;abs 0x3054
    2dd2:	54 58 42 55 	add.b	21826(r8),r4	;
    2dd6:	46 3a       	jl	$-882    	;abs 0x2a64
    2dd8:	47 28       	jnc	$+144    	;abs 0x2e68
    2dda:	31 2c       	jc	$+100    	;abs 0x2e3e
    2ddc:	33 29       	jnc	$+616    	;abs 0x3044
    2dde:	00 55       	add	r5,	r0	;
    2de0:	43 41       	.word	0x4143;	????
    2de2:	31 41       	pop	r1		;
    2de4:	42 43       	clr.b	r2		;
    2de6:	54 4c 3a 47 	mov.b	18234(r12),r4	;
    2dea:	28 31       	jn	$+594    	;abs 0x303c
    2dec:	2c 33       	jn	$-422    	;abs 0x2c46
    2dee:	29 00       	.word	0x0029;	????
    2df0:	55 43       	mov.b	#1,	r5	;r3 As==01
    2df2:	41 31       	jn	$+644    	;abs 0x3076
    2df4:	49 52       	add.b	r2,	r9	;
    2df6:	54 43       	mov.b	#1,	r4	;r3 As==01
    2df8:	54 4c 3a 47 	mov.b	18234(r12),r4	;
    2dfc:	28 31       	jn	$+594    	;abs 0x304e
    2dfe:	2c 33       	jn	$-422    	;abs 0x2c58
    2e00:	29 00       	.word	0x0029;	????
    2e02:	55 43       	mov.b	#1,	r5	;r3 As==01
    2e04:	41 31       	jn	$+644    	;abs 0x3088
    2e06:	49 52       	add.b	r2,	r9	;
    2e08:	52 43       	mov.b	#1,	r2	;r3 As==01
    2e0a:	54 4c 3a 47 	mov.b	18234(r12),r4	;
    2e0e:	28 31       	jn	$+594    	;abs 0x3060
    2e10:	2c 33       	jn	$-422    	;abs 0x2c6a
    2e12:	29 00       	.word	0x0029;	????
    2e14:	55 43       	mov.b	#1,	r5	;r3 As==01
    2e16:	42 31       	jn	$+646    	;abs 0x309c
    2e18:	43 54       	.word	0x5443;	????
    2e1a:	4c 30       	jn	$+154    	;abs 0x2eb4
    2e1c:	3a 47       	mov	@r7+,	r10	;
    2e1e:	28 31       	jn	$+594    	;abs 0x3070
    2e20:	2c 33       	jn	$-422    	;abs 0x2c7a
    2e22:	29 00       	.word	0x0029;	????
    2e24:	55 43       	mov.b	#1,	r5	;r3 As==01
    2e26:	42 31       	jn	$+646    	;abs 0x30ac
    2e28:	43 54       	.word	0x5443;	????
    2e2a:	4c 31       	jn	$+666    	;abs 0x30c4
    2e2c:	3a 47       	mov	@r7+,	r10	;
    2e2e:	28 31       	jn	$+594    	;abs 0x3080
    2e30:	2c 33       	jn	$-422    	;abs 0x2c8a
    2e32:	29 00       	.word	0x0029;	????
    2e34:	55 43       	mov.b	#1,	r5	;r3 As==01
    2e36:	42 31       	jn	$+646    	;abs 0x30bc
    2e38:	42 52       	rla.b	r2		;
    2e3a:	30 3a       	jl	$-926    	;abs 0x2a9c
    2e3c:	47 28       	jnc	$+144    	;abs 0x2ecc
    2e3e:	31 2c       	jc	$+100    	;abs 0x2ea2
    2e40:	33 29       	jnc	$+616    	;abs 0x30a8
    2e42:	00 55       	add	r5,	r0	;
    2e44:	43 42       	.word	0x4243;	????
    2e46:	31 42       	mov	#8,	r1	;r2 As==11
    2e48:	52 31       	jn	$+678    	;abs 0x30ee
    2e4a:	3a 47       	mov	@r7+,	r10	;
    2e4c:	28 31       	jn	$+594    	;abs 0x309e
    2e4e:	2c 33       	jn	$-422    	;abs 0x2ca8
    2e50:	29 00       	.word	0x0029;	????
    2e52:	55 43       	mov.b	#1,	r5	;r3 As==01
    2e54:	42 31       	jn	$+646    	;abs 0x30da
    2e56:	49 32       	jn	$-876    	;abs 0x2aea
    2e58:	43 49       	.word	0x4943;	????
    2e5a:	45 3a       	jl	$-884    	;abs 0x2ae6
    2e5c:	47 28       	jnc	$+144    	;abs 0x2eec
    2e5e:	31 2c       	jc	$+100    	;abs 0x2ec2
    2e60:	33 29       	jnc	$+616    	;abs 0x30c8
    2e62:	00 55       	add	r5,	r0	;
    2e64:	43 42       	.word	0x4243;	????
    2e66:	31 53       	add	#-1,	r1	;r3 As==11
    2e68:	54 41 54 3a 	mov.b	14932(r1),r4	;
    2e6c:	47 28       	jnc	$+144    	;abs 0x2efc
    2e6e:	31 2c       	jc	$+100    	;abs 0x2ed2
    2e70:	33 29       	jnc	$+616    	;abs 0x30d8
    2e72:	00 55       	add	r5,	r0	;
    2e74:	43 42       	.word	0x4243;	????
    2e76:	31 52       	add	#8,	r1	;r2 As==11
    2e78:	58 42 55 46 	mov.b	&0x4655,r8	;0x4655
    2e7c:	3a 47       	mov	@r7+,	r10	;
    2e7e:	28 31       	jn	$+594    	;abs 0x30d0
    2e80:	2c 33       	jn	$-422    	;abs 0x2cda
    2e82:	29 00       	.word	0x0029;	????
    2e84:	55 43       	mov.b	#1,	r5	;r3 As==01
    2e86:	42 31       	jn	$+646    	;abs 0x310c
    2e88:	54 58 42 55 	add.b	21826(r8),r4	;
    2e8c:	46 3a       	jl	$-882    	;abs 0x2b1a
    2e8e:	47 28       	jnc	$+144    	;abs 0x2f1e
    2e90:	31 2c       	jc	$+100    	;abs 0x2ef4
    2e92:	33 29       	jnc	$+616    	;abs 0x30fa
    2e94:	00 55       	add	r5,	r0	;
    2e96:	43 42       	.word	0x4243;	????
    2e98:	31 49       	mov	@r9+,	r1	;
    2e9a:	32 43       	mov	#-1,	r2	;r3 As==11
    2e9c:	4f 41       	mov.b	r1,	r15	;
    2e9e:	3a 47       	mov	@r7+,	r10	;
    2ea0:	28 31       	jn	$+594    	;abs 0x30f2
    2ea2:	37 2c       	jc	$+112    	;abs 0x2f12
    2ea4:	38 29       	jnc	$+626    	;abs 0x3116
    2ea6:	00 55       	add	r5,	r0	;
    2ea8:	43 42       	.word	0x4243;	????
    2eaa:	31 49       	mov	@r9+,	r1	;
    2eac:	32 43       	mov	#-1,	r2	;r3 As==11
    2eae:	53 41       	.word	0x4153;	????
    2eb0:	3a 47       	mov	@r7+,	r10	;
    2eb2:	28 31       	jn	$+594    	;abs 0x3104
    2eb4:	37 2c       	jc	$+112    	;abs 0x2f24
    2eb6:	38 29       	jnc	$+626    	;abs 0x3128
    2eb8:	00 55       	add	r5,	r0	;
    2eba:	43 31       	jn	$+648    	;abs 0x3142
    2ebc:	49 45       	mov.b	r5,	r9	;
    2ebe:	3a 47       	mov	@r7+,	r10	;
    2ec0:	28 31       	jn	$+594    	;abs 0x3112
    2ec2:	2c 33       	jn	$-422    	;abs 0x2d1c
    2ec4:	29 00       	.word	0x0029;	????
    2ec6:	55 43       	mov.b	#1,	r5	;r3 As==01
    2ec8:	31 49       	mov	@r9+,	r1	;
    2eca:	46 47       	mov.b	r7,	r6	;
    2ecc:	3a 47       	mov	@r7+,	r10	;
    2ece:	28 31       	jn	$+594    	;abs 0x3120
    2ed0:	2c 33       	jn	$-422    	;abs 0x2d2a
    2ed2:	29 00       	.word	0x0029;	????
    2ed4:	54 41 30 49 	mov.b	18736(r1),r4	;
    2ed8:	56 3a       	jl	$-850    	;abs 0x2b86
    2eda:	47 28       	jnc	$+144    	;abs 0x2f6a
    2edc:	31 37       	jge	$-412    	;abs 0x2d40
    2ede:	2c 38       	jl	$+90     	;abs 0x2f38
    2ee0:	29 00       	.word	0x0029;	????
    2ee2:	54 41 30 43 	mov.b	17200(r1),r4	;
    2ee6:	54 4c 3a 47 	mov.b	18234(r12),r4	;
    2eea:	28 31       	jn	$+594    	;abs 0x313c
    2eec:	37 2c       	jc	$+112    	;abs 0x2f5c
    2eee:	38 29       	jnc	$+626    	;abs 0x3160
    2ef0:	00 54       	add	r4,	r0	;
    2ef2:	41 30       	jn	$+132    	;abs 0x2f76
    2ef4:	52 3a       	jl	$-858    	;abs 0x2b9a
    2ef6:	47 28       	jnc	$+144    	;abs 0x2f86
    2ef8:	31 37       	jge	$-412    	;abs 0x2d5c
    2efa:	2c 38       	jl	$+90     	;abs 0x2f54
    2efc:	29 00       	.word	0x0029;	????
    2efe:	54 41 30 43 	mov.b	17200(r1),r4	;
    2f02:	43 54       	.word	0x5443;	????
    2f04:	4c 30       	jn	$+154    	;abs 0x2f9e
    2f06:	3a 47       	mov	@r7+,	r10	;
    2f08:	28 31       	jn	$+594    	;abs 0x315a
    2f0a:	37 2c       	jc	$+112    	;abs 0x2f7a
    2f0c:	38 29       	jnc	$+626    	;abs 0x317e
    2f0e:	00 54       	add	r4,	r0	;
    2f10:	41 30       	jn	$+132    	;abs 0x2f94
    2f12:	43 43       	clr.b	r3		;
    2f14:	54 4c 31 3a 	mov.b	14897(r12),r4	;
    2f18:	47 28       	jnc	$+144    	;abs 0x2fa8
    2f1a:	31 37       	jge	$-412    	;abs 0x2d7e
    2f1c:	2c 38       	jl	$+90     	;abs 0x2f76
    2f1e:	29 00       	.word	0x0029;	????
    2f20:	54 41 30 43 	mov.b	17200(r1),r4	;
    2f24:	43 52       	.word	0x5243;	????
    2f26:	30 3a       	jl	$-926    	;abs 0x2b88
    2f28:	47 28       	jnc	$+144    	;abs 0x2fb8
    2f2a:	31 37       	jge	$-412    	;abs 0x2d8e
    2f2c:	2c 38       	jl	$+90     	;abs 0x2f86
    2f2e:	29 00       	.word	0x0029;	????
    2f30:	54 41 30 43 	mov.b	17200(r1),r4	;
    2f34:	43 52       	.word	0x5243;	????
    2f36:	31 3a       	jl	$-924    	;abs 0x2b9a
    2f38:	47 28       	jnc	$+144    	;abs 0x2fc8
    2f3a:	31 37       	jge	$-412    	;abs 0x2d9e
    2f3c:	2c 38       	jl	$+90     	;abs 0x2f96
    2f3e:	29 00       	.word	0x0029;	????
    2f40:	54 41 30 43 	mov.b	17200(r1),r4	;
    2f44:	43 54       	.word	0x5443;	????
    2f46:	4c 32       	jn	$-870    	;abs 0x2be0
    2f48:	3a 47       	mov	@r7+,	r10	;
    2f4a:	28 31       	jn	$+594    	;abs 0x319c
    2f4c:	37 2c       	jc	$+112    	;abs 0x2fbc
    2f4e:	38 29       	jnc	$+626    	;abs 0x31c0
    2f50:	00 54       	add	r4,	r0	;
    2f52:	41 30       	jn	$+132    	;abs 0x2fd6
    2f54:	43 43       	clr.b	r3		;
    2f56:	52 32       	jn	$-858    	;abs 0x2bfc
    2f58:	3a 47       	mov	@r7+,	r10	;
    2f5a:	28 31       	jn	$+594    	;abs 0x31ac
    2f5c:	37 2c       	jc	$+112    	;abs 0x2fcc
    2f5e:	38 29       	jnc	$+626    	;abs 0x31d0
    2f60:	00 74       	subc	r4,	r0	;
    2f62:	69 6d       	addc.b	@r13,	r9	;
    2f64:	65 72       	subc.b	#4,	r5	;r2 As==10
    2f66:	61 3a       	jl	$-828    	;abs 0x2c2a
    2f68:	47 28       	jnc	$+144    	;abs 0x2ff8
    2f6a:	31 37       	jge	$-412    	;abs 0x2dce
    2f6c:	2c 35       	jge	$+602    	;abs 0x31c6
    2f6e:	29 00       	.word	0x0029;	????
    2f70:	54 42 49 56 	mov.b	&0x5649,r4	;0x5649
    2f74:	3a 47       	mov	@r7+,	r10	;
    2f76:	28 31       	jn	$+594    	;abs 0x31c8
    2f78:	37 2c       	jc	$+112    	;abs 0x2fe8
    2f7a:	38 29       	jnc	$+626    	;abs 0x31ec
    2f7c:	00 54       	add	r4,	r0	;
    2f7e:	42 43       	clr.b	r2		;
    2f80:	54 4c 3a 47 	mov.b	18234(r12),r4	;
    2f84:	28 31       	jn	$+594    	;abs 0x31d6
    2f86:	37 2c       	jc	$+112    	;abs 0x2ff6
    2f88:	38 29       	jnc	$+626    	;abs 0x31fa
    2f8a:	00 54       	add	r4,	r0	;
    2f8c:	42 52       	rla.b	r2		;
    2f8e:	3a 47       	mov	@r7+,	r10	;
    2f90:	28 31       	jn	$+594    	;abs 0x31e2
    2f92:	37 2c       	jc	$+112    	;abs 0x3002
    2f94:	38 29       	jnc	$+626    	;abs 0x3206
    2f96:	00 54       	add	r4,	r0	;
    2f98:	42 43       	clr.b	r2		;
    2f9a:	43 54       	.word	0x5443;	????
    2f9c:	4c 30       	jn	$+154    	;abs 0x3036
    2f9e:	3a 47       	mov	@r7+,	r10	;
    2fa0:	28 31       	jn	$+594    	;abs 0x31f2
    2fa2:	37 2c       	jc	$+112    	;abs 0x3012
    2fa4:	38 29       	jnc	$+626    	;abs 0x3216
    2fa6:	00 54       	add	r4,	r0	;
    2fa8:	42 43       	clr.b	r2		;
    2faa:	43 54       	.word	0x5443;	????
    2fac:	4c 31       	jn	$+666    	;abs 0x3246
    2fae:	3a 47       	mov	@r7+,	r10	;
    2fb0:	28 31       	jn	$+594    	;abs 0x3202
    2fb2:	37 2c       	jc	$+112    	;abs 0x3022
    2fb4:	38 29       	jnc	$+626    	;abs 0x3226
    2fb6:	00 54       	add	r4,	r0	;
    2fb8:	42 43       	clr.b	r2		;
    2fba:	43 54       	.word	0x5443;	????
    2fbc:	4c 32       	jn	$-870    	;abs 0x2c56
    2fbe:	3a 47       	mov	@r7+,	r10	;
    2fc0:	28 31       	jn	$+594    	;abs 0x3212
    2fc2:	37 2c       	jc	$+112    	;abs 0x3032
    2fc4:	38 29       	jnc	$+626    	;abs 0x3236
    2fc6:	00 54       	add	r4,	r0	;
    2fc8:	42 43       	clr.b	r2		;
    2fca:	43 52       	.word	0x5243;	????
    2fcc:	30 3a       	jl	$-926    	;abs 0x2c2e
    2fce:	47 28       	jnc	$+144    	;abs 0x305e
    2fd0:	31 37       	jge	$-412    	;abs 0x2e34
    2fd2:	2c 38       	jl	$+90     	;abs 0x302c
    2fd4:	29 00       	.word	0x0029;	????
    2fd6:	54 42 43 43 	mov.b	&0x4343,r4	;0x4343
    2fda:	52 31       	jn	$+678    	;abs 0x3280
    2fdc:	3a 47       	mov	@r7+,	r10	;
    2fde:	28 31       	jn	$+594    	;abs 0x3230
    2fe0:	37 2c       	jc	$+112    	;abs 0x3050
    2fe2:	38 29       	jnc	$+626    	;abs 0x3254
    2fe4:	00 54       	add	r4,	r0	;
    2fe6:	42 43       	clr.b	r2		;
    2fe8:	43 52       	.word	0x5243;	????
    2fea:	32 3a       	jl	$-922    	;abs 0x2c50
    2fec:	47 28       	jnc	$+144    	;abs 0x307c
    2fee:	31 37       	jge	$-412    	;abs 0x2e52
    2ff0:	2c 38       	jl	$+90     	;abs 0x304a
    2ff2:	29 00       	.word	0x0029;	????
    2ff4:	54 42 43 43 	mov.b	&0x4343,r4	;0x4343
    2ff8:	54 4c 33 3a 	mov.b	14899(r12),r4	;
    2ffc:	47 28       	jnc	$+144    	;abs 0x308c
    2ffe:	31 37       	jge	$-412    	;abs 0x2e62
    3000:	2c 38       	jl	$+90     	;abs 0x305a
    3002:	29 00       	.word	0x0029;	????
    3004:	54 42 43 43 	mov.b	&0x4343,r4	;0x4343
    3008:	54 4c 34 3a 	mov.b	14900(r12),r4	;
    300c:	47 28       	jnc	$+144    	;abs 0x309c
    300e:	31 37       	jge	$-412    	;abs 0x2e72
    3010:	2c 38       	jl	$+90     	;abs 0x306a
    3012:	29 00       	.word	0x0029;	????
    3014:	54 42 43 43 	mov.b	&0x4343,r4	;0x4343
    3018:	54 4c 35 3a 	mov.b	14901(r12),r4	;
    301c:	47 28       	jnc	$+144    	;abs 0x30ac
    301e:	31 37       	jge	$-412    	;abs 0x2e82
    3020:	2c 38       	jl	$+90     	;abs 0x307a
    3022:	29 00       	.word	0x0029;	????
    3024:	54 42 43 43 	mov.b	&0x4343,r4	;0x4343
    3028:	54 4c 36 3a 	mov.b	14902(r12),r4	;
    302c:	47 28       	jnc	$+144    	;abs 0x30bc
    302e:	31 37       	jge	$-412    	;abs 0x2e92
    3030:	2c 38       	jl	$+90     	;abs 0x308a
    3032:	29 00       	.word	0x0029;	????
    3034:	54 42 43 43 	mov.b	&0x4343,r4	;0x4343
    3038:	52 33       	jn	$-346    	;abs 0x2ede
    303a:	3a 47       	mov	@r7+,	r10	;
    303c:	28 31       	jn	$+594    	;abs 0x328e
    303e:	37 2c       	jc	$+112    	;abs 0x30ae
    3040:	38 29       	jnc	$+626    	;abs 0x32b2
    3042:	00 54       	add	r4,	r0	;
    3044:	42 43       	clr.b	r2		;
    3046:	43 52       	.word	0x5243;	????
    3048:	34 3a       	jl	$-918    	;abs 0x2cb2
    304a:	47 28       	jnc	$+144    	;abs 0x30da
    304c:	31 37       	jge	$-412    	;abs 0x2eb0
    304e:	2c 38       	jl	$+90     	;abs 0x30a8
    3050:	29 00       	.word	0x0029;	????
    3052:	54 42 43 43 	mov.b	&0x4343,r4	;0x4343
    3056:	52 35       	jge	$+678    	;abs 0x32fc
    3058:	3a 47       	mov	@r7+,	r10	;
    305a:	28 31       	jn	$+594    	;abs 0x32ac
    305c:	37 2c       	jc	$+112    	;abs 0x30cc
    305e:	38 29       	jnc	$+626    	;abs 0x32d0
    3060:	00 54       	add	r4,	r0	;
    3062:	42 43       	clr.b	r2		;
    3064:	43 52       	.word	0x5243;	????
    3066:	36 3a       	jl	$-914    	;abs 0x2cd4
    3068:	47 28       	jnc	$+144    	;abs 0x30f8
    306a:	31 37       	jge	$-412    	;abs 0x2ece
    306c:	2c 38       	jl	$+90     	;abs 0x30c6
    306e:	29 00       	.word	0x0029;	????
    3070:	74 69       	addc.b	@r9+,	r4	;
    3072:	6d 65       	addc.b	@r5,	r13	;
    3074:	72 62       	addc.b	#8,	r2	;r2 As==11
    3076:	3a 47       	mov	@r7+,	r10	;
    3078:	28 31       	jn	$+594    	;abs 0x32ca
    307a:	38 2c       	jc	$+114    	;abs 0x30ec
    307c:	35 29       	jnc	$+620    	;abs 0x32e8
    307e:	00 44       	br	r4		;
    3080:	43 4f       	.word	0x4f43;	????
    3082:	43 54       	.word	0x5443;	????
    3084:	4c 3a       	jl	$-870    	;abs 0x2d1e
    3086:	47 28       	jnc	$+144    	;abs 0x3116
    3088:	31 2c       	jc	$+100    	;abs 0x30ec
    308a:	33 29       	jnc	$+616    	;abs 0x32f2
    308c:	00 42       	br	r2		;
    308e:	43 53       	.word	0x5343;	????
    3090:	43 54       	.word	0x5443;	????
    3092:	4c 31       	jn	$+666    	;abs 0x332c
    3094:	3a 47       	mov	@r7+,	r10	;
    3096:	28 31       	jn	$+594    	;abs 0x32e8
    3098:	2c 33       	jn	$-422    	;abs 0x2ef2
    309a:	29 00       	.word	0x0029;	????
    309c:	42 43       	clr.b	r2		;
    309e:	53 43       	.word	0x4353;	????
    30a0:	54 4c 32 3a 	mov.b	14898(r12),r4	;
    30a4:	47 28       	jnc	$+144    	;abs 0x3134
    30a6:	31 2c       	jc	$+100    	;abs 0x310a
    30a8:	33 29       	jnc	$+616    	;abs 0x3310
    30aa:	00 42       	br	r2		;
    30ac:	43 53       	.word	0x5343;	????
    30ae:	43 54       	.word	0x5443;	????
    30b0:	4c 33       	jn	$-358    	;abs 0x2f4a
    30b2:	3a 47       	mov	@r7+,	r10	;
    30b4:	28 31       	jn	$+594    	;abs 0x3306
    30b6:	2c 33       	jn	$-422    	;abs 0x2f10
    30b8:	29 00       	.word	0x0029;	????
    30ba:	46 43       	clr.b	r6		;
    30bc:	54 4c 31 3a 	mov.b	14897(r12),r4	;
    30c0:	47 28       	jnc	$+144    	;abs 0x3150
    30c2:	31 37       	jge	$-412    	;abs 0x2f26
    30c4:	2c 38       	jl	$+90     	;abs 0x311e
    30c6:	29 00       	.word	0x0029;	????
    30c8:	46 43       	clr.b	r6		;
    30ca:	54 4c 32 3a 	mov.b	14898(r12),r4	;
    30ce:	47 28       	jnc	$+144    	;abs 0x315e
    30d0:	31 37       	jge	$-412    	;abs 0x2f34
    30d2:	2c 38       	jl	$+90     	;abs 0x312c
    30d4:	29 00       	.word	0x0029;	????
    30d6:	46 43       	clr.b	r6		;
    30d8:	54 4c 33 3a 	mov.b	14899(r12),r4	;
    30dc:	47 28       	jnc	$+144    	;abs 0x316c
    30de:	31 37       	jge	$-412    	;abs 0x2f42
    30e0:	2c 38       	jl	$+90     	;abs 0x313a
    30e2:	29 00       	.word	0x0029;	????
    30e4:	43 41       	.word	0x4143;	????
    30e6:	43 54       	.word	0x5443;	????
    30e8:	4c 31       	jn	$+666    	;abs 0x3382
    30ea:	3a 47       	mov	@r7+,	r10	;
    30ec:	28 31       	jn	$+594    	;abs 0x333e
    30ee:	2c 33       	jn	$-422    	;abs 0x2f48
    30f0:	29 00       	.word	0x0029;	????
    30f2:	43 41       	.word	0x4143;	????
    30f4:	43 54       	.word	0x5443;	????
    30f6:	4c 32       	jn	$-870    	;abs 0x2d90
    30f8:	3a 47       	mov	@r7+,	r10	;
    30fa:	28 31       	jn	$+594    	;abs 0x334c
    30fc:	2c 33       	jn	$-422    	;abs 0x2f56
    30fe:	29 00       	.word	0x0029;	????
    3100:	43 41       	.word	0x4143;	????
    3102:	50 44 3a 47 	br	18234(r4)		;
    3106:	28 31       	jn	$+594    	;abs 0x3358
    3108:	2c 33       	jn	$-422    	;abs 0x2f62
    310a:	29 00       	.word	0x0029;	????
    310c:	41 44       	mov.b	r4,	r1	;
    310e:	43 31       	jn	$+648    	;abs 0x3396
    3110:	32 43       	mov	#-1,	r2	;r3 As==11
    3112:	54 4c 30 3a 	mov.b	14896(r12),r4	;
    3116:	47 28       	jnc	$+144    	;abs 0x31a6
    3118:	31 37       	jge	$-412    	;abs 0x2f7c
    311a:	2c 38       	jl	$+90     	;abs 0x3174
    311c:	29 00       	.word	0x0029;	????
    311e:	41 44       	mov.b	r4,	r1	;
    3120:	43 31       	jn	$+648    	;abs 0x33a8
    3122:	32 43       	mov	#-1,	r2	;r3 As==11
    3124:	54 4c 31 3a 	mov.b	14897(r12),r4	;
    3128:	47 28       	jnc	$+144    	;abs 0x31b8
    312a:	31 37       	jge	$-412    	;abs 0x2f8e
    312c:	2c 38       	jl	$+90     	;abs 0x3186
    312e:	29 00       	.word	0x0029;	????
    3130:	41 44       	mov.b	r4,	r1	;
    3132:	43 31       	jn	$+648    	;abs 0x33ba
    3134:	32 49       	mov	@r9+,	r2	;
    3136:	46 47       	mov.b	r7,	r6	;
    3138:	3a 47       	mov	@r7+,	r10	;
    313a:	28 31       	jn	$+594    	;abs 0x338c
    313c:	37 2c       	jc	$+112    	;abs 0x31ac
    313e:	38 29       	jnc	$+626    	;abs 0x33b0
    3140:	00 41       	br	r1		;
    3142:	44 43       	clr.b	r4		;
    3144:	31 32       	jn	$-924    	;abs 0x2da8
    3146:	49 45       	mov.b	r5,	r9	;
    3148:	3a 47       	mov	@r7+,	r10	;
    314a:	28 31       	jn	$+594    	;abs 0x339c
    314c:	37 2c       	jc	$+112    	;abs 0x31bc
    314e:	38 29       	jnc	$+626    	;abs 0x33c0
    3150:	00 41       	br	r1		;
    3152:	44 43       	clr.b	r4		;
    3154:	31 32       	jn	$-924    	;abs 0x2db8
    3156:	49 56       	add.b	r6,	r9	;
    3158:	3a 47       	mov	@r7+,	r10	;
    315a:	28 31       	jn	$+594    	;abs 0x33ac
    315c:	37 2c       	jc	$+112    	;abs 0x31cc
    315e:	38 29       	jnc	$+626    	;abs 0x33d0
    3160:	00 61       	addc	r1,	r0	;
    3162:	64 63       	addc.b	#2,	r4	;r3 As==10
    3164:	31 32       	jn	$-924    	;abs 0x2dc8
    3166:	3a 47       	mov	@r7+,	r10	;
    3168:	28 32       	jn	$-942    	;abs 0x2dba
    316a:	32 2c       	jc	$+102    	;abs 0x31d0
    316c:	37 29       	jnc	$+624    	;abs 0x33dc
    316e:	00 41       	br	r1		;
    3170:	44 43       	clr.b	r4		;
    3172:	31 32       	jn	$-924    	;abs 0x2dd6
    3174:	4d 45       	mov.b	r5,	r13	;
    3176:	4d 30       	jn	$+156    	;abs 0x3212
    3178:	3a 47       	mov	@r7+,	r10	;
    317a:	28 31       	jn	$+594    	;abs 0x33cc
    317c:	37 2c       	jc	$+112    	;abs 0x31ec
    317e:	38 29       	jnc	$+626    	;abs 0x33f0
    3180:	00 41       	br	r1		;
    3182:	44 43       	clr.b	r4		;
    3184:	31 32       	jn	$-924    	;abs 0x2de8
    3186:	4d 45       	mov.b	r5,	r13	;
    3188:	4d 31       	jn	$+668    	;abs 0x3424
    318a:	3a 47       	mov	@r7+,	r10	;
    318c:	28 31       	jn	$+594    	;abs 0x33de
    318e:	37 2c       	jc	$+112    	;abs 0x31fe
    3190:	38 29       	jnc	$+626    	;abs 0x3402
    3192:	00 41       	br	r1		;
    3194:	44 43       	clr.b	r4		;
    3196:	31 32       	jn	$-924    	;abs 0x2dfa
    3198:	4d 45       	mov.b	r5,	r13	;
    319a:	4d 32       	jn	$-868    	;abs 0x2e36
    319c:	3a 47       	mov	@r7+,	r10	;
    319e:	28 31       	jn	$+594    	;abs 0x33f0
    31a0:	37 2c       	jc	$+112    	;abs 0x3210
    31a2:	38 29       	jnc	$+626    	;abs 0x3414
    31a4:	00 41       	br	r1		;
    31a6:	44 43       	clr.b	r4		;
    31a8:	31 32       	jn	$-924    	;abs 0x2e0c
    31aa:	4d 45       	mov.b	r5,	r13	;
    31ac:	4d 33       	jn	$-356    	;abs 0x3048
    31ae:	3a 47       	mov	@r7+,	r10	;
    31b0:	28 31       	jn	$+594    	;abs 0x3402
    31b2:	37 2c       	jc	$+112    	;abs 0x3222
    31b4:	38 29       	jnc	$+626    	;abs 0x3426
    31b6:	00 41       	br	r1		;
    31b8:	44 43       	clr.b	r4		;
    31ba:	31 32       	jn	$-924    	;abs 0x2e1e
    31bc:	4d 45       	mov.b	r5,	r13	;
    31be:	4d 34       	jge	$+156    	;abs 0x325a
    31c0:	3a 47       	mov	@r7+,	r10	;
    31c2:	28 31       	jn	$+594    	;abs 0x3414
    31c4:	37 2c       	jc	$+112    	;abs 0x3234
    31c6:	38 29       	jnc	$+626    	;abs 0x3438
    31c8:	00 41       	br	r1		;
    31ca:	44 43       	clr.b	r4		;
    31cc:	31 32       	jn	$-924    	;abs 0x2e30
    31ce:	4d 45       	mov.b	r5,	r13	;
    31d0:	4d 35       	jge	$+668    	;abs 0x346c
    31d2:	3a 47       	mov	@r7+,	r10	;
    31d4:	28 31       	jn	$+594    	;abs 0x3426
    31d6:	37 2c       	jc	$+112    	;abs 0x3246
    31d8:	38 29       	jnc	$+626    	;abs 0x344a
    31da:	00 41       	br	r1		;
    31dc:	44 43       	clr.b	r4		;
    31de:	31 32       	jn	$-924    	;abs 0x2e42
    31e0:	4d 45       	mov.b	r5,	r13	;
    31e2:	4d 36       	jge	$-868    	;abs 0x2e7e
    31e4:	3a 47       	mov	@r7+,	r10	;
    31e6:	28 31       	jn	$+594    	;abs 0x3438
    31e8:	37 2c       	jc	$+112    	;abs 0x3258
    31ea:	38 29       	jnc	$+626    	;abs 0x345c
    31ec:	00 41       	br	r1		;
    31ee:	44 43       	clr.b	r4		;
    31f0:	31 32       	jn	$-924    	;abs 0x2e54
    31f2:	4d 45       	mov.b	r5,	r13	;
    31f4:	4d 37       	jge	$-356    	;abs 0x3090
    31f6:	3a 47       	mov	@r7+,	r10	;
    31f8:	28 31       	jn	$+594    	;abs 0x344a
    31fa:	37 2c       	jc	$+112    	;abs 0x326a
    31fc:	38 29       	jnc	$+626    	;abs 0x346e
    31fe:	00 41       	br	r1		;
    3200:	44 43       	clr.b	r4		;
    3202:	31 32       	jn	$-924    	;abs 0x2e66
    3204:	4d 45       	mov.b	r5,	r13	;
    3206:	4d 38       	jl	$+156    	;abs 0x32a2
    3208:	3a 47       	mov	@r7+,	r10	;
    320a:	28 31       	jn	$+594    	;abs 0x345c
    320c:	37 2c       	jc	$+112    	;abs 0x327c
    320e:	38 29       	jnc	$+626    	;abs 0x3480
    3210:	00 41       	br	r1		;
    3212:	44 43       	clr.b	r4		;
    3214:	31 32       	jn	$-924    	;abs 0x2e78
    3216:	4d 45       	mov.b	r5,	r13	;
    3218:	4d 39       	jl	$+668    	;abs 0x34b4
    321a:	3a 47       	mov	@r7+,	r10	;
    321c:	28 31       	jn	$+594    	;abs 0x346e
    321e:	37 2c       	jc	$+112    	;abs 0x328e
    3220:	38 29       	jnc	$+626    	;abs 0x3492
    3222:	00 41       	br	r1		;
    3224:	44 43       	clr.b	r4		;
    3226:	31 32       	jn	$-924    	;abs 0x2e8a
    3228:	4d 45       	mov.b	r5,	r13	;
    322a:	4d 31       	jn	$+668    	;abs 0x34c6
    322c:	30 3a       	jl	$-926    	;abs 0x2e8e
    322e:	47 28       	jnc	$+144    	;abs 0x32be
    3230:	31 37       	jge	$-412    	;abs 0x3094
    3232:	2c 38       	jl	$+90     	;abs 0x328c
    3234:	29 00       	.word	0x0029;	????
    3236:	41 44       	mov.b	r4,	r1	;
    3238:	43 31       	jn	$+648    	;abs 0x34c0
    323a:	32 4d       	mov	@r13+,	r2	;
    323c:	45 4d       	mov.b	r13,	r5	;
    323e:	31 31       	jn	$+612    	;abs 0x34a2
    3240:	3a 47       	mov	@r7+,	r10	;
    3242:	28 31       	jn	$+594    	;abs 0x3494
    3244:	37 2c       	jc	$+112    	;abs 0x32b4
    3246:	38 29       	jnc	$+626    	;abs 0x34b8
    3248:	00 41       	br	r1		;
    324a:	44 43       	clr.b	r4		;
    324c:	31 32       	jn	$-924    	;abs 0x2eb0
    324e:	4d 45       	mov.b	r5,	r13	;
    3250:	4d 31       	jn	$+668    	;abs 0x34ec
    3252:	32 3a       	jl	$-922    	;abs 0x2eb8
    3254:	47 28       	jnc	$+144    	;abs 0x32e4
    3256:	31 37       	jge	$-412    	;abs 0x30ba
    3258:	2c 38       	jl	$+90     	;abs 0x32b2
    325a:	29 00       	.word	0x0029;	????
    325c:	41 44       	mov.b	r4,	r1	;
    325e:	43 31       	jn	$+648    	;abs 0x34e6
    3260:	32 4d       	mov	@r13+,	r2	;
    3262:	45 4d       	mov.b	r13,	r5	;
    3264:	31 33       	jn	$-412    	;abs 0x30c8
    3266:	3a 47       	mov	@r7+,	r10	;
    3268:	28 31       	jn	$+594    	;abs 0x34ba
    326a:	37 2c       	jc	$+112    	;abs 0x32da
    326c:	38 29       	jnc	$+626    	;abs 0x34de
    326e:	00 41       	br	r1		;
    3270:	44 43       	clr.b	r4		;
    3272:	31 32       	jn	$-924    	;abs 0x2ed6
    3274:	4d 45       	mov.b	r5,	r13	;
    3276:	4d 31       	jn	$+668    	;abs 0x3512
    3278:	34 3a       	jl	$-918    	;abs 0x2ee2
    327a:	47 28       	jnc	$+144    	;abs 0x330a
    327c:	31 37       	jge	$-412    	;abs 0x30e0
    327e:	2c 38       	jl	$+90     	;abs 0x32d8
    3280:	29 00       	.word	0x0029;	????
    3282:	41 44       	mov.b	r4,	r1	;
    3284:	43 31       	jn	$+648    	;abs 0x350c
    3286:	32 4d       	mov	@r13+,	r2	;
    3288:	45 4d       	mov.b	r13,	r5	;
    328a:	31 35       	jge	$+612    	;abs 0x34ee
    328c:	3a 47       	mov	@r7+,	r10	;
    328e:	28 31       	jn	$+594    	;abs 0x34e0
    3290:	37 2c       	jc	$+112    	;abs 0x3300
    3292:	38 29       	jnc	$+626    	;abs 0x3504
    3294:	00 41       	br	r1		;
    3296:	44 43       	clr.b	r4		;
    3298:	31 32       	jn	$-924    	;abs 0x2efc
    329a:	4d 43       	clr.b	r13		;
    329c:	54 4c 30 3a 	mov.b	14896(r12),r4	;
    32a0:	47 28       	jnc	$+144    	;abs 0x3330
    32a2:	31 2c       	jc	$+100    	;abs 0x3306
    32a4:	33 29       	jnc	$+616    	;abs 0x350c
    32a6:	00 41       	br	r1		;
    32a8:	44 43       	clr.b	r4		;
    32aa:	31 32       	jn	$-924    	;abs 0x2f0e
    32ac:	4d 43       	clr.b	r13		;
    32ae:	54 4c 31 3a 	mov.b	14897(r12),r4	;
    32b2:	47 28       	jnc	$+144    	;abs 0x3342
    32b4:	31 2c       	jc	$+100    	;abs 0x3318
    32b6:	33 29       	jnc	$+616    	;abs 0x351e
    32b8:	00 41       	br	r1		;
    32ba:	44 43       	clr.b	r4		;
    32bc:	31 32       	jn	$-924    	;abs 0x2f20
    32be:	4d 43       	clr.b	r13		;
    32c0:	54 4c 32 3a 	mov.b	14898(r12),r4	;
    32c4:	47 28       	jnc	$+144    	;abs 0x3354
    32c6:	31 2c       	jc	$+100    	;abs 0x332a
    32c8:	33 29       	jnc	$+616    	;abs 0x3530
    32ca:	00 41       	br	r1		;
    32cc:	44 43       	clr.b	r4		;
    32ce:	31 32       	jn	$-924    	;abs 0x2f32
    32d0:	4d 43       	clr.b	r13		;
    32d2:	54 4c 33 3a 	mov.b	14899(r12),r4	;
    32d6:	47 28       	jnc	$+144    	;abs 0x3366
    32d8:	31 2c       	jc	$+100    	;abs 0x333c
    32da:	33 29       	jnc	$+616    	;abs 0x3542
    32dc:	00 41       	br	r1		;
    32de:	44 43       	clr.b	r4		;
    32e0:	31 32       	jn	$-924    	;abs 0x2f44
    32e2:	4d 43       	clr.b	r13		;
    32e4:	54 4c 34 3a 	mov.b	14900(r12),r4	;
    32e8:	47 28       	jnc	$+144    	;abs 0x3378
    32ea:	31 2c       	jc	$+100    	;abs 0x334e
    32ec:	33 29       	jnc	$+616    	;abs 0x3554
    32ee:	00 41       	br	r1		;
    32f0:	44 43       	clr.b	r4		;
    32f2:	31 32       	jn	$-924    	;abs 0x2f56
    32f4:	4d 43       	clr.b	r13		;
    32f6:	54 4c 35 3a 	mov.b	14901(r12),r4	;
    32fa:	47 28       	jnc	$+144    	;abs 0x338a
    32fc:	31 2c       	jc	$+100    	;abs 0x3360
    32fe:	33 29       	jnc	$+616    	;abs 0x3566
    3300:	00 41       	br	r1		;
    3302:	44 43       	clr.b	r4		;
    3304:	31 32       	jn	$-924    	;abs 0x2f68
    3306:	4d 43       	clr.b	r13		;
    3308:	54 4c 36 3a 	mov.b	14902(r12),r4	;
    330c:	47 28       	jnc	$+144    	;abs 0x339c
    330e:	31 2c       	jc	$+100    	;abs 0x3372
    3310:	33 29       	jnc	$+616    	;abs 0x3578
    3312:	00 41       	br	r1		;
    3314:	44 43       	clr.b	r4		;
    3316:	31 32       	jn	$-924    	;abs 0x2f7a
    3318:	4d 43       	clr.b	r13		;
    331a:	54 4c 37 3a 	mov.b	14903(r12),r4	;
    331e:	47 28       	jnc	$+144    	;abs 0x33ae
    3320:	31 2c       	jc	$+100    	;abs 0x3384
    3322:	33 29       	jnc	$+616    	;abs 0x358a
    3324:	00 41       	br	r1		;
    3326:	44 43       	clr.b	r4		;
    3328:	31 32       	jn	$-924    	;abs 0x2f8c
    332a:	4d 43       	clr.b	r13		;
    332c:	54 4c 38 3a 	mov.b	14904(r12),r4	;
    3330:	47 28       	jnc	$+144    	;abs 0x33c0
    3332:	31 2c       	jc	$+100    	;abs 0x3396
    3334:	33 29       	jnc	$+616    	;abs 0x359c
    3336:	00 41       	br	r1		;
    3338:	44 43       	clr.b	r4		;
    333a:	31 32       	jn	$-924    	;abs 0x2f9e
    333c:	4d 43       	clr.b	r13		;
    333e:	54 4c 39 3a 	mov.b	14905(r12),r4	;
    3342:	47 28       	jnc	$+144    	;abs 0x33d2
    3344:	31 2c       	jc	$+100    	;abs 0x33a8
    3346:	33 29       	jnc	$+616    	;abs 0x35ae
    3348:	00 41       	br	r1		;
    334a:	44 43       	clr.b	r4		;
    334c:	31 32       	jn	$-924    	;abs 0x2fb0
    334e:	4d 43       	clr.b	r13		;
    3350:	54 4c 31 30 	mov.b	12337(r12),r4	;
    3354:	3a 47       	mov	@r7+,	r10	;
    3356:	28 31       	jn	$+594    	;abs 0x35a8
    3358:	2c 33       	jn	$-422    	;abs 0x31b2
    335a:	29 00       	.word	0x0029;	????
    335c:	41 44       	mov.b	r4,	r1	;
    335e:	43 31       	jn	$+648    	;abs 0x35e6
    3360:	32 4d       	mov	@r13+,	r2	;
    3362:	43 54       	.word	0x5443;	????
    3364:	4c 31       	jn	$+666    	;abs 0x35fe
    3366:	31 3a       	jl	$-924    	;abs 0x2fca
    3368:	47 28       	jnc	$+144    	;abs 0x33f8
    336a:	31 2c       	jc	$+100    	;abs 0x33ce
    336c:	33 29       	jnc	$+616    	;abs 0x35d4
    336e:	00 41       	br	r1		;
    3370:	44 43       	clr.b	r4		;
    3372:	31 32       	jn	$-924    	;abs 0x2fd6
    3374:	4d 43       	clr.b	r13		;
    3376:	54 4c 31 32 	mov.b	12849(r12),r4	;
    337a:	3a 47       	mov	@r7+,	r10	;
    337c:	28 31       	jn	$+594    	;abs 0x35ce
    337e:	2c 33       	jn	$-422    	;abs 0x31d8
    3380:	29 00       	.word	0x0029;	????
    3382:	41 44       	mov.b	r4,	r1	;
    3384:	43 31       	jn	$+648    	;abs 0x360c
    3386:	32 4d       	mov	@r13+,	r2	;
    3388:	43 54       	.word	0x5443;	????
    338a:	4c 31       	jn	$+666    	;abs 0x3624
    338c:	33 3a       	jl	$-920    	;abs 0x2ff4
    338e:	47 28       	jnc	$+144    	;abs 0x341e
    3390:	31 2c       	jc	$+100    	;abs 0x33f4
    3392:	33 29       	jnc	$+616    	;abs 0x35fa
    3394:	00 41       	br	r1		;
    3396:	44 43       	clr.b	r4		;
    3398:	31 32       	jn	$-924    	;abs 0x2ffc
    339a:	4d 43       	clr.b	r13		;
    339c:	54 4c 31 34 	mov.b	13361(r12),r4	;
    33a0:	3a 47       	mov	@r7+,	r10	;
    33a2:	28 31       	jn	$+594    	;abs 0x35f4
    33a4:	2c 33       	jn	$-422    	;abs 0x31fe
    33a6:	29 00       	.word	0x0029;	????
    33a8:	41 44       	mov.b	r4,	r1	;
    33aa:	43 31       	jn	$+648    	;abs 0x3632
    33ac:	32 4d       	mov	@r13+,	r2	;
    33ae:	43 54       	.word	0x5443;	????
    33b0:	4c 31       	jn	$+666    	;abs 0x364a
    33b2:	35 3a       	jl	$-916    	;abs 0x301e
    33b4:	47 28       	jnc	$+144    	;abs 0x3444
    33b6:	31 2c       	jc	$+100    	;abs 0x341a
    33b8:	33 29       	jnc	$+616    	;abs 0x3620
    33ba:	00 44       	br	r4		;
    33bc:	41 43       	clr.b	r1		;
    33be:	31 32       	jn	$-924    	;abs 0x3022
    33c0:	5f 30       	jn	$+192    	;abs 0x3480
    33c2:	43 54       	.word	0x5443;	????
    33c4:	4c 3a       	jl	$-870    	;abs 0x305e
    33c6:	47 28       	jnc	$+144    	;abs 0x3456
    33c8:	31 37       	jge	$-412    	;abs 0x322c
    33ca:	2c 38       	jl	$+90     	;abs 0x3424
    33cc:	29 00       	.word	0x0029;	????
    33ce:	44 41       	mov.b	r1,	r4	;
    33d0:	43 31       	jn	$+648    	;abs 0x3658
    33d2:	32 5f       	add	@r15+,	r2	;
    33d4:	31 43       	mov	#-1,	r1	;r3 As==11
    33d6:	54 4c 3a 47 	mov.b	18234(r12),r4	;
    33da:	28 31       	jn	$+594    	;abs 0x362c
    33dc:	37 2c       	jc	$+112    	;abs 0x344c
    33de:	38 29       	jnc	$+626    	;abs 0x3650
    33e0:	00 44       	br	r4		;
    33e2:	41 43       	clr.b	r1		;
    33e4:	31 32       	jn	$-924    	;abs 0x3048
    33e6:	5f 30       	jn	$+192    	;abs 0x34a6
    33e8:	44 41       	mov.b	r1,	r4	;
    33ea:	54 3a       	jl	$-854    	;abs 0x3094
    33ec:	47 28       	jnc	$+144    	;abs 0x347c
    33ee:	31 37       	jge	$-412    	;abs 0x3252
    33f0:	2c 38       	jl	$+90     	;abs 0x344a
    33f2:	29 00       	.word	0x0029;	????
    33f4:	44 41       	mov.b	r1,	r4	;
    33f6:	43 31       	jn	$+648    	;abs 0x367e
    33f8:	32 5f       	add	@r15+,	r2	;
    33fa:	31 44       	mov	@r4+,	r1	;
    33fc:	41 54       	add.b	r4,	r1	;
    33fe:	3a 47       	mov	@r7+,	r10	;
    3400:	28 31       	jn	$+594    	;abs 0x3652
    3402:	37 2c       	jc	$+112    	;abs 0x3472
    3404:	38 29       	jnc	$+626    	;abs 0x3676
    3406:	00 44       	br	r4		;
    3408:	4d 41       	mov.b	r1,	r13	;
    340a:	43 54       	.word	0x5443;	????
    340c:	4c 30       	jn	$+154    	;abs 0x34a6
    340e:	3a 47       	mov	@r7+,	r10	;
    3410:	28 31       	jn	$+594    	;abs 0x3662
    3412:	37 2c       	jc	$+112    	;abs 0x3482
    3414:	38 29       	jnc	$+626    	;abs 0x3686
    3416:	00 44       	br	r4		;
    3418:	4d 41       	mov.b	r1,	r13	;
    341a:	43 54       	.word	0x5443;	????
    341c:	4c 31       	jn	$+666    	;abs 0x36b6
    341e:	3a 47       	mov	@r7+,	r10	;
    3420:	28 31       	jn	$+594    	;abs 0x3672
    3422:	37 2c       	jc	$+112    	;abs 0x3492
    3424:	38 29       	jnc	$+626    	;abs 0x3696
    3426:	00 44       	br	r4		;
    3428:	4d 41       	mov.b	r1,	r13	;
    342a:	30 43       	br	#-1		;r3 As==11
    342c:	54 4c 3a 47 	mov.b	18234(r12),r4	;
    3430:	28 31       	jn	$+594    	;abs 0x3682
    3432:	37 2c       	jc	$+112    	;abs 0x34a2
    3434:	38 29       	jnc	$+626    	;abs 0x36a6
    3436:	00 44       	br	r4		;
    3438:	4d 41       	mov.b	r1,	r13	;
    343a:	30 53       	add	#-1,	r0	;r3 As==11
    343c:	41 3a       	jl	$-892    	;abs 0x30c0
    343e:	47 28       	jnc	$+144    	;abs 0x34ce
    3440:	31 2c       	jc	$+100    	;abs 0x34a4
    3442:	34 29       	jnc	$+618    	;abs 0x36ac
    3444:	3d 42       	mov	#8,	r13	;r2 As==11
    3446:	28 30       	jn	$+82     	;abs 0x3498
    3448:	2c 35       	jge	$+602    	;abs 0x36a2
    344a:	29 00       	.word	0x0029;	????
    344c:	44 4d       	mov.b	r13,	r4	;
    344e:	41 30       	jn	$+132    	;abs 0x34d2
    3450:	53 41       	.word	0x4153;	????
    3452:	4c 3a       	jl	$-870    	;abs 0x30ec
    3454:	47 28       	jnc	$+144    	;abs 0x34e4
    3456:	31 37       	jge	$-412    	;abs 0x32ba
    3458:	2c 38       	jl	$+90     	;abs 0x34b2
    345a:	29 00       	.word	0x0029;	????
    345c:	44 4d       	mov.b	r13,	r4	;
    345e:	41 30       	jn	$+132    	;abs 0x34e2
    3460:	44 41       	mov.b	r1,	r4	;
    3462:	3a 47       	mov	@r7+,	r10	;
    3464:	28 31       	jn	$+594    	;abs 0x36b6
    3466:	2c 34       	jge	$+90     	;abs 0x34c0
    3468:	29 00       	.word	0x0029;	????
    346a:	44 4d       	mov.b	r13,	r4	;
    346c:	41 30       	jn	$+132    	;abs 0x34f0
    346e:	44 41       	mov.b	r1,	r4	;
    3470:	4c 3a       	jl	$-870    	;abs 0x310a
    3472:	47 28       	jnc	$+144    	;abs 0x3502
    3474:	31 37       	jge	$-412    	;abs 0x32d8
    3476:	2c 38       	jl	$+90     	;abs 0x34d0
    3478:	29 00       	.word	0x0029;	????
    347a:	44 4d       	mov.b	r13,	r4	;
    347c:	41 30       	jn	$+132    	;abs 0x3500
    347e:	53 5a       	.word	0x5a53;	????
    3480:	3a 47       	mov	@r7+,	r10	;
    3482:	28 31       	jn	$+594    	;abs 0x36d4
    3484:	37 2c       	jc	$+112    	;abs 0x34f4
    3486:	38 29       	jnc	$+626    	;abs 0x36f8
    3488:	00 44       	br	r4		;
    348a:	4d 41       	mov.b	r1,	r13	;
    348c:	31 43       	mov	#-1,	r1	;r3 As==11
    348e:	54 4c 3a 47 	mov.b	18234(r12),r4	;
    3492:	28 31       	jn	$+594    	;abs 0x36e4
    3494:	37 2c       	jc	$+112    	;abs 0x3504
    3496:	38 29       	jnc	$+626    	;abs 0x3708
    3498:	00 44       	br	r4		;
    349a:	4d 41       	mov.b	r1,	r13	;
    349c:	31 53       	add	#-1,	r1	;r3 As==11
    349e:	41 3a       	jl	$-892    	;abs 0x3122
    34a0:	47 28       	jnc	$+144    	;abs 0x3530
    34a2:	31 2c       	jc	$+100    	;abs 0x3506
    34a4:	34 29       	jnc	$+618    	;abs 0x370e
    34a6:	00 44       	br	r4		;
    34a8:	4d 41       	mov.b	r1,	r13	;
    34aa:	31 53       	add	#-1,	r1	;r3 As==11
    34ac:	41 4c       	mov.b	r12,	r1	;
    34ae:	3a 47       	mov	@r7+,	r10	;
    34b0:	28 31       	jn	$+594    	;abs 0x3702
    34b2:	37 2c       	jc	$+112    	;abs 0x3522
    34b4:	38 29       	jnc	$+626    	;abs 0x3726
    34b6:	00 44       	br	r4		;
    34b8:	4d 41       	mov.b	r1,	r13	;
    34ba:	31 44       	mov	@r4+,	r1	;
    34bc:	41 3a       	jl	$-892    	;abs 0x3140
    34be:	47 28       	jnc	$+144    	;abs 0x354e
    34c0:	31 37       	jge	$-412    	;abs 0x3324
    34c2:	2c 38       	jl	$+90     	;abs 0x351c
    34c4:	29 00       	.word	0x0029;	????
    34c6:	44 4d       	mov.b	r13,	r4	;
    34c8:	41 31       	jn	$+644    	;abs 0x374c
    34ca:	44 41       	mov.b	r1,	r4	;
    34cc:	4c 3a       	jl	$-870    	;abs 0x3166
    34ce:	47 28       	jnc	$+144    	;abs 0x355e
    34d0:	31 37       	jge	$-412    	;abs 0x3334
    34d2:	2c 38       	jl	$+90     	;abs 0x352c
    34d4:	29 00       	.word	0x0029;	????
    34d6:	44 4d       	mov.b	r13,	r4	;
    34d8:	41 31       	jn	$+644    	;abs 0x375c
    34da:	53 5a       	.word	0x5a53;	????
    34dc:	3a 47       	mov	@r7+,	r10	;
    34de:	28 31       	jn	$+594    	;abs 0x3730
    34e0:	37 2c       	jc	$+112    	;abs 0x3550
    34e2:	38 29       	jnc	$+626    	;abs 0x3754
    34e4:	00 44       	br	r4		;
    34e6:	4d 41       	mov.b	r1,	r13	;
    34e8:	32 43       	mov	#-1,	r2	;r3 As==11
    34ea:	54 4c 3a 47 	mov.b	18234(r12),r4	;
    34ee:	28 31       	jn	$+594    	;abs 0x3740
    34f0:	37 2c       	jc	$+112    	;abs 0x3560
    34f2:	38 29       	jnc	$+626    	;abs 0x3764
    34f4:	00 44       	br	r4		;
    34f6:	4d 41       	mov.b	r1,	r13	;
    34f8:	32 53       	add	#-1,	r2	;r3 As==11
    34fa:	41 3a       	jl	$-892    	;abs 0x317e
    34fc:	47 28       	jnc	$+144    	;abs 0x358c
    34fe:	31 2c       	jc	$+100    	;abs 0x3562
    3500:	34 29       	jnc	$+618    	;abs 0x376a
    3502:	00 44       	br	r4		;
    3504:	4d 41       	mov.b	r1,	r13	;
    3506:	32 53       	add	#-1,	r2	;r3 As==11
    3508:	41 4c       	mov.b	r12,	r1	;
    350a:	3a 47       	mov	@r7+,	r10	;
    350c:	28 31       	jn	$+594    	;abs 0x375e
    350e:	37 2c       	jc	$+112    	;abs 0x357e
    3510:	38 29       	jnc	$+626    	;abs 0x3782
    3512:	00 44       	br	r4		;
    3514:	4d 41       	mov.b	r1,	r13	;
    3516:	32 44       	mov	@r4+,	r2	;
    3518:	41 3a       	jl	$-892    	;abs 0x319c
    351a:	47 28       	jnc	$+144    	;abs 0x35aa
    351c:	31 2c       	jc	$+100    	;abs 0x3580
    351e:	34 29       	jnc	$+618    	;abs 0x3788
    3520:	00 44       	br	r4		;
    3522:	4d 41       	mov.b	r1,	r13	;
    3524:	32 44       	mov	@r4+,	r2	;
    3526:	41 4c       	mov.b	r12,	r1	;
    3528:	3a 47       	mov	@r7+,	r10	;
    352a:	28 31       	jn	$+594    	;abs 0x377c
    352c:	37 2c       	jc	$+112    	;abs 0x359c
    352e:	38 29       	jnc	$+626    	;abs 0x37a0
    3530:	00 44       	br	r4		;
    3532:	4d 41       	mov.b	r1,	r13	;
    3534:	32 53       	add	#-1,	r2	;r3 As==11
    3536:	5a 3a       	jl	$-842    	;abs 0x31ec
    3538:	47 28       	jnc	$+144    	;abs 0x35c8
    353a:	31 37       	jge	$-412    	;abs 0x339e
    353c:	2c 38       	jl	$+90     	;abs 0x3596
    353e:	29 00       	.word	0x0029;	????
    3540:	57 44 54 43 	mov.b	17236(r4),r7	;
    3544:	54 4c 3a 47 	mov.b	18234(r12),r4	;
    3548:	28 31       	jn	$+594    	;abs 0x379a
    354a:	37 2c       	jc	$+112    	;abs 0x35ba
    354c:	38 29       	jnc	$+626    	;abs 0x37be
    354e:	00 49       	br	r9		;
    3550:	45 31       	jn	$+652    	;abs 0x37dc
    3552:	3a 47       	mov	@r7+,	r10	;
    3554:	28 31       	jn	$+594    	;abs 0x37a6
    3556:	2c 33       	jn	$-422    	;abs 0x33b0
    3558:	29 00       	.word	0x0029;	????
    355a:	49 46       	mov.b	r6,	r9	;
    355c:	47 31       	jn	$+656    	;abs 0x37ec
    355e:	3a 47       	mov	@r7+,	r10	;
    3560:	28 31       	jn	$+594    	;abs 0x37b2
    3562:	2c 33       	jn	$-422    	;abs 0x33bc
    3564:	29 00       	.word	0x0029;	????
    3566:	49 45       	mov.b	r5,	r9	;
    3568:	32 3a       	jl	$-922    	;abs 0x31ce
    356a:	47 28       	jnc	$+144    	;abs 0x35fa
    356c:	31 2c       	jc	$+100    	;abs 0x35d0
    356e:	33 29       	jnc	$+616    	;abs 0x37d6
    3570:	00 49       	br	r9		;
    3572:	46 47       	mov.b	r7,	r6	;
    3574:	32 3a       	jl	$-922    	;abs 0x31da
    3576:	47 28       	jnc	$+144    	;abs 0x3606
    3578:	31 2c       	jc	$+100    	;abs 0x35dc
    357a:	33 29       	jnc	$+616    	;abs 0x37e2
    357c:	00 54       	add	r4,	r0	;
    357e:	4c 56       	add.b	r6,	r12	;
    3580:	5f 43       	mov.b	#1,	r15	;r3 As==01
    3582:	48 45       	mov.b	r5,	r8	;
    3584:	43 4b       	.word	0x4b43;	????
    3586:	53 55       	.word	0x5553;	????
    3588:	4d 3a       	jl	$-868    	;abs 0x3224
    358a:	47 28       	jnc	$+144    	;abs 0x361a
    358c:	31 37       	jge	$-412    	;abs 0x33f0
    358e:	2c 38       	jl	$+90     	;abs 0x35e8
    3590:	29 00       	.word	0x0029;	????
    3592:	54 4c 56 5f 	mov.b	24406(r12),r4	;
    3596:	44 43       	clr.b	r4		;
    3598:	4f 5f       	rla.b	r15		;
    359a:	33 30       	jn	$+104    	;abs 0x3602
    359c:	5f 54 41 47 	add.b	18241(r4),r15	;
    35a0:	3a 47       	mov	@r7+,	r10	;
    35a2:	28 31       	jn	$+594    	;abs 0x37f4
    35a4:	2c 33       	jn	$-422    	;abs 0x33fe
    35a6:	29 00       	.word	0x0029;	????
    35a8:	54 4c 56 5f 	mov.b	24406(r12),r4	;
    35ac:	44 43       	clr.b	r4		;
    35ae:	4f 5f       	rla.b	r15		;
    35b0:	33 30       	jn	$+104    	;abs 0x3618
    35b2:	5f 4c 45 4e 	mov.b	20037(r12),r15	;
    35b6:	3a 47       	mov	@r7+,	r10	;
    35b8:	28 31       	jn	$+594    	;abs 0x380a
    35ba:	2c 33       	jn	$-422    	;abs 0x3414
    35bc:	29 00       	.word	0x0029;	????
    35be:	54 4c 56 5f 	mov.b	24406(r12),r4	;
    35c2:	41 44       	mov.b	r4,	r1	;
    35c4:	43 31       	jn	$+648    	;abs 0x384c
    35c6:	32 5f       	add	@r15+,	r2	;
    35c8:	31 5f       	add	@r15+,	r1	;
    35ca:	54 41 47 3a 	mov.b	14919(r1),r4	;
    35ce:	47 28       	jnc	$+144    	;abs 0x365e
    35d0:	31 2c       	jc	$+100    	;abs 0x3634
    35d2:	33 29       	jnc	$+616    	;abs 0x383a
    35d4:	00 54       	add	r4,	r0	;
    35d6:	4c 56       	add.b	r6,	r12	;
    35d8:	5f 41 44 43 	mov.b	17220(r1),r15	;
    35dc:	31 32       	jn	$-924    	;abs 0x3240
    35de:	5f 31       	jn	$+704    	;abs 0x389e
    35e0:	5f 4c 45 4e 	mov.b	20037(r12),r15	;
    35e4:	3a 47       	mov	@r7+,	r10	;
    35e6:	28 31       	jn	$+594    	;abs 0x3838
    35e8:	2c 33       	jn	$-422    	;abs 0x3442
    35ea:	29 00       	.word	0x0029;	????
    35ec:	43 41       	.word	0x4143;	????
    35ee:	4c 44       	mov.b	r4,	r12	;
    35f0:	43 4f       	.word	0x4f43;	????
    35f2:	5f 31       	jn	$+704    	;abs 0x38b2
    35f4:	36 4d       	mov	@r13+,	r6	;
    35f6:	48 5a       	add.b	r10,	r8	;
    35f8:	3a 47       	mov	@r7+,	r10	;
    35fa:	28 31       	jn	$+594    	;abs 0x384c
    35fc:	2c 33       	jn	$-422    	;abs 0x3456
    35fe:	29 00       	.word	0x0029;	????
    3600:	43 41       	.word	0x4143;	????
    3602:	4c 42       	mov.b	r2,	r12	;
    3604:	43 31       	jn	$+648    	;abs 0x388c
    3606:	5f 31       	jn	$+704    	;abs 0x38c6
    3608:	36 4d       	mov	@r13+,	r6	;
    360a:	48 5a       	add.b	r10,	r8	;
    360c:	3a 47       	mov	@r7+,	r10	;
    360e:	28 31       	jn	$+594    	;abs 0x3860
    3610:	2c 33       	jn	$-422    	;abs 0x346a
    3612:	29 00       	.word	0x0029;	????
    3614:	43 41       	.word	0x4143;	????
    3616:	4c 44       	mov.b	r4,	r12	;
    3618:	43 4f       	.word	0x4f43;	????
    361a:	5f 31       	jn	$+704    	;abs 0x38da
    361c:	32 4d       	mov	@r13+,	r2	;
    361e:	48 5a       	add.b	r10,	r8	;
    3620:	3a 47       	mov	@r7+,	r10	;
    3622:	28 31       	jn	$+594    	;abs 0x3874
    3624:	2c 33       	jn	$-422    	;abs 0x347e
    3626:	29 00       	.word	0x0029;	????
    3628:	43 41       	.word	0x4143;	????
    362a:	4c 42       	mov.b	r2,	r12	;
    362c:	43 31       	jn	$+648    	;abs 0x38b4
    362e:	5f 31       	jn	$+704    	;abs 0x38ee
    3630:	32 4d       	mov	@r13+,	r2	;
    3632:	48 5a       	add.b	r10,	r8	;
    3634:	3a 47       	mov	@r7+,	r10	;
    3636:	28 31       	jn	$+594    	;abs 0x3888
    3638:	2c 33       	jn	$-422    	;abs 0x3492
    363a:	29 00       	.word	0x0029;	????
    363c:	43 41       	.word	0x4143;	????
    363e:	4c 44       	mov.b	r4,	r12	;
    3640:	43 4f       	.word	0x4f43;	????
    3642:	5f 38       	jl	$+192    	;abs 0x3702
    3644:	4d 48       	mov.b	r8,	r13	;
    3646:	5a 3a       	jl	$-842    	;abs 0x32fc
    3648:	47 28       	jnc	$+144    	;abs 0x36d8
    364a:	31 2c       	jc	$+100    	;abs 0x36ae
    364c:	33 29       	jnc	$+616    	;abs 0x38b4
    364e:	00 43       	clr	r0		;
    3650:	41 4c       	mov.b	r12,	r1	;
    3652:	42 43       	clr.b	r2		;
    3654:	31 5f       	add	@r15+,	r1	;
    3656:	38 4d       	mov	@r13+,	r8	;
    3658:	48 5a       	add.b	r10,	r8	;
    365a:	3a 47       	mov	@r7+,	r10	;
    365c:	28 31       	jn	$+594    	;abs 0x38ae
    365e:	2c 33       	jn	$-422    	;abs 0x34b8
    3660:	29 00       	.word	0x0029;	????
    3662:	43 41       	.word	0x4143;	????
    3664:	4c 44       	mov.b	r4,	r12	;
    3666:	43 4f       	.word	0x4f43;	????
    3668:	5f 31       	jn	$+704    	;abs 0x3928
    366a:	4d 48       	mov.b	r8,	r13	;
    366c:	5a 3a       	jl	$-842    	;abs 0x3322
    366e:	47 28       	jnc	$+144    	;abs 0x36fe
    3670:	31 2c       	jc	$+100    	;abs 0x36d4
    3672:	33 29       	jnc	$+616    	;abs 0x38da
    3674:	00 43       	clr	r0		;
    3676:	41 4c       	mov.b	r12,	r1	;
    3678:	42 43       	clr.b	r2		;
    367a:	31 5f       	add	@r15+,	r1	;
    367c:	31 4d       	mov	@r13+,	r1	;
    367e:	48 5a       	add.b	r10,	r8	;
    3680:	3a 47       	mov	@r7+,	r10	;
    3682:	28 31       	jn	$+594    	;abs 0x38d4
    3684:	2c 33       	jn	$-422    	;abs 0x34de
    3686:	29 00       	.word	0x0029;	????
    3688:	61 73       	subc.b	#2,	r1	;r3 As==10
    368a:	63 69       	.word	0x6963;	????
    368c:	69 74       	subc.b	@r4,	r9	;
    368e:	61 62       	addc.b	#4,	r1	;r2 As==10
    3690:	6c 65       	addc.b	@r5,	r12	;
    3692:	3a 47       	mov	@r7+,	r10	;
    3694:	28 31       	jn	$+594    	;abs 0x38e6
    3696:	2c 35       	jge	$+602    	;abs 0x38f0
    3698:	29 3d       	jmp	$+596    	;abs 0x38ec
    369a:	61 72       	subc.b	#4,	r1	;r2 As==10
    369c:	28 31       	jn	$+594    	;abs 0x38ee
    369e:	37 2c       	jc	$+112    	;abs 0x370e
    36a0:	37 29       	jnc	$+624    	;abs 0x3910
    36a2:	3b 30       	jn	$+120    	;abs 0x371a
    36a4:	3b 36       	jge	$-904    	;abs 0x331c
    36a6:	33 39       	jl	$+616    	;abs 0x390e
    36a8:	3b 28       	jnc	$+120    	;abs 0x3720
    36aa:	34 2c       	jc	$+106    	;abs 0x3714
    36ac:	31 39       	jl	$+612    	;abs 0x3910
    36ae:	29 00       	.word	0x0029;	????
    36b0:	6d 61       	addc.b	@r1,	r13	;
    36b2:	73 6b       	.word	0x6b73;	????
    36b4:	3a 47       	mov	@r7+,	r10	;
    36b6:	28 31       	jn	$+594    	;abs 0x3908
    36b8:	2c 36       	jge	$-934    	;abs 0x3312
    36ba:	29 3d       	jmp	$+596    	;abs 0x390e
    36bc:	61 72       	subc.b	#4,	r1	;r2 As==10
    36be:	28 31       	jn	$+594    	;abs 0x3910
    36c0:	37 2c       	jc	$+112    	;abs 0x3730
    36c2:	37 29       	jnc	$+624    	;abs 0x3932
    36c4:	3b 30       	jn	$+120    	;abs 0x373c
    36c6:	3b 37       	jge	$-392    	;abs 0x353e
    36c8:	3b 28       	jnc	$+120    	;abs 0x3740
    36ca:	31 2c       	jc	$+100    	;abs 0x372e
    36cc:	32 29       	jnc	$+614    	;abs 0x3932
    36ce:	00 4c       	br	r12		;
    36d0:	43 44       	.word	0x4443;	????
    36d2:	5f 6c 69 6e 	addc.b	28265(r12),r15	;
    36d6:	65 63       	addc.b	#2,	r5	;r3 As==10
    36d8:	6f 75       	subc.b	@r5,	r15	;
    36da:	6e 74       	subc.b	@r4,	r14	;
    36dc:	3a 47       	mov	@r7+,	r10	;
    36de:	28 30       	jn	$+82     	;abs 0x3730
    36e0:	2c 31       	jn	$+602    	;abs 0x393a
    36e2:	31 29       	jnc	$+612    	;abs 0x3946
    36e4:	00 4c       	br	r12		;
    36e6:	43 44       	.word	0x4443;	????
    36e8:	5f 63       	addc.b	#1,	r15	;r3 As==01
    36ea:	68 61       	addc.b	@r1,	r8	;
    36ec:	72 63       	addc.b	#-1,	r2	;r3 As==11
    36ee:	6f 75       	subc.b	@r5,	r15	;
    36f0:	6e 74       	subc.b	@r4,	r14	;
    36f2:	3a 47       	mov	@r7+,	r10	;
    36f4:	28 30       	jn	$+82     	;abs 0x3746
    36f6:	2c 31       	jn	$+602    	;abs 0x3950
    36f8:	31 29       	jnc	$+612    	;abs 0x395c
    36fa:	00 75       	subc	r5,	r0	;
    36fc:	61 72       	subc.b	#4,	r1	;r2 As==10
    36fe:	74 30       	jn	$+234    	;abs 0x37e8
    3700:	2e 63       	addc	#2,	r14	;r3 As==10
    3702:	00 63       	adc	r0		;
    3704:	6f 6e       	addc.b	@r14,	r15	;
    3706:	66 69       	addc.b	@r9,	r6	;
    3708:	67 5f       	add.b	@r15,	r7	;
    370a:	73 65       	.word	0x6573;	????
    370c:	72 69       	addc.b	@r9+,	r2	;
    370e:	61 6c       	addc.b	@r12,	r1	;
    3710:	3a 46       	mov	@r6+,	r10	;
    3712:	28 30       	jn	$+82     	;abs 0x3764
    3714:	2c 32       	jn	$-934    	;abs 0x336e
    3716:	30 29       	jnc	$+610    	;abs 0x3978
    3718:	00 62       	addc	r2,	r0	;
    371a:	61 75       	subc.b	@r5,	r1	;
    371c:	64 3a       	jl	$-822    	;abs 0x33e6
    371e:	50 28       	jnc	$+162    	;abs 0x37c0
    3720:	30 2c       	jc	$+98     	;abs 0x3782
    3722:	31 31       	jn	$+612    	;abs 0x3986
    3724:	29 00       	.word	0x0029;	????
    3726:	6d 6f       	addc.b	@r15,	r13	;
    3728:	64 75       	subc.b	@r5,	r4	;
    372a:	6c 3a       	jl	$-806    	;abs 0x3404
    372c:	50 28       	jnc	$+162    	;abs 0x37ce
    372e:	30 2c       	jc	$+98     	;abs 0x3790
    3730:	31 31       	jn	$+612    	;abs 0x3994
    3732:	29 00       	.word	0x0029;	????
    3734:	72 65       	addc.b	@r5+,	r2	;
    3736:	63 65       	.word	0x6563;	????
    3738:	69 76       	subc.b	@r6,	r9	;
    373a:	65 5f       	add.b	@r15,	r5	;
    373c:	73 65       	.word	0x6573;	????
    373e:	72 69       	addc.b	@r9+,	r2	;
    3740:	61 6c       	addc.b	@r12,	r1	;
    3742:	3a 46       	mov	@r6+,	r10	;
    3744:	28 30       	jn	$+82     	;abs 0x3796
    3746:	2c 31       	jn	$+602    	;abs 0x39a0
    3748:	31 29       	jnc	$+612    	;abs 0x39ac
    374a:	00 73       	sbc	r0		;
    374c:	65 6e       	addc.b	@r14,	r5	;
    374e:	64 5f       	add.b	@r15,	r4	;
    3750:	73 65       	.word	0x6573;	????
    3752:	72 69       	addc.b	@r9+,	r2	;
    3754:	61 6c       	addc.b	@r12,	r1	;
    3756:	3a 46       	mov	@r6+,	r10	;
    3758:	28 30       	jn	$+82     	;abs 0x37aa
    375a:	2c 32       	jn	$-934    	;abs 0x33b4
    375c:	30 29       	jnc	$+610    	;abs 0x39be
    375e:	00 4d       	br	r13		;
    3760:	50 59 3a 47 	add.b	18234(r9),r0	;
    3764:	28 39       	jl	$+594    	;abs 0x39b6
    3766:	2c 38       	jl	$+90     	;abs 0x37c0
    3768:	29 00       	.word	0x0029;	????
    376a:	4d 50       	add.b	r0,	r13	;
    376c:	59 53       	inc.b	r9		;
    376e:	3a 47       	mov	@r7+,	r10	;
    3770:	28 39       	jl	$+594    	;abs 0x39c2
    3772:	2c 38       	jl	$+90     	;abs 0x37cc
    3774:	29 00       	.word	0x0029;	????
    3776:	4d 41       	mov.b	r1,	r13	;
    3778:	43 3a       	jl	$-888    	;abs 0x3400
    377a:	47 28       	jnc	$+144    	;abs 0x380a
    377c:	39 2c       	jc	$+116    	;abs 0x37f0
    377e:	38 29       	jnc	$+626    	;abs 0x39f0
    3780:	00 4d       	br	r13		;
    3782:	41 43       	clr.b	r1		;
    3784:	53 3a       	jl	$-856    	;abs 0x342c
    3786:	47 28       	jnc	$+144    	;abs 0x3816
    3788:	39 2c       	jc	$+116    	;abs 0x37fc
    378a:	38 29       	jnc	$+626    	;abs 0x39fc
    378c:	00 4f       	br	r15		;
    378e:	50 32       	jn	$-862    	;abs 0x3430
    3790:	3a 47       	mov	@r7+,	r10	;
    3792:	28 39       	jl	$+594    	;abs 0x39e4
    3794:	2c 38       	jl	$+90     	;abs 0x37ee
    3796:	29 00       	.word	0x0029;	????
    3798:	52 45 53 4c 	mov.b	19539(r5),r2	;
    379c:	4f 3a       	jl	$-864    	;abs 0x343c
    379e:	47 28       	jnc	$+144    	;abs 0x382e
    37a0:	39 2c       	jc	$+116    	;abs 0x3814
    37a2:	38 29       	jnc	$+626    	;abs 0x3a14
    37a4:	00 52       	add	r2,	r0	;
    37a6:	45 53       	add.b	#0,	r5	;r3 As==00
    37a8:	48 49       	mov.b	r9,	r8	;
    37aa:	3a 47       	mov	@r7+,	r10	;
    37ac:	28 39       	jl	$+594    	;abs 0x39fe
    37ae:	2c 38       	jl	$+90     	;abs 0x3808
    37b0:	29 00       	.word	0x0029;	????
    37b2:	53 55       	.word	0x5553;	????
    37b4:	4d 45       	mov.b	r5,	r13	;
    37b6:	58 54 3a 47 	add.b	18234(r4),r8	;
    37ba:	28 39       	jl	$+594    	;abs 0x3a0c
    37bc:	2c 38       	jl	$+90     	;abs 0x3816
    37be:	29 00       	.word	0x0029;	????
    37c0:	70 6f       	addc.b	@r15+,	r0	;
    37c2:	72 74       	subc.b	@r4+,	r2	;
    37c4:	31 3a       	jl	$-924    	;abs 0x3428
    37c6:	47 28       	jnc	$+144    	;abs 0x3856
    37c8:	37 2c       	jc	$+112    	;abs 0x3838
    37ca:	34 29       	jnc	$+618    	;abs 0x3a34
    37cc:	00 70       	subc	r0,	r0	;
    37ce:	6f 72       	subc.b	#4,	r15	;r2 As==10
    37d0:	74 32       	jn	$-790    	;abs 0x34ba
    37d2:	3a 47       	mov	@r7+,	r10	;
    37d4:	28 37       	jge	$-430    	;abs 0x3626
    37d6:	2c 34       	jge	$+90     	;abs 0x3830
    37d8:	29 00       	.word	0x0029;	????
    37da:	70 6f       	addc.b	@r15+,	r0	;
    37dc:	72 74       	subc.b	@r4+,	r2	;
    37de:	33 3a       	jl	$-920    	;abs 0x3446
    37e0:	47 28       	jnc	$+144    	;abs 0x3870
    37e2:	37 2c       	jc	$+112    	;abs 0x3852
    37e4:	35 29       	jnc	$+620    	;abs 0x3a50
    37e6:	00 70       	subc	r0,	r0	;
    37e8:	6f 72       	subc.b	#4,	r15	;r2 As==10
    37ea:	74 34       	jge	$+234    	;abs 0x38d4
    37ec:	3a 47       	mov	@r7+,	r10	;
    37ee:	28 37       	jge	$-430    	;abs 0x3640
    37f0:	2c 35       	jge	$+602    	;abs 0x3a4a
    37f2:	29 00       	.word	0x0029;	????
    37f4:	70 6f       	addc.b	@r15+,	r0	;
    37f6:	72 74       	subc.b	@r4+,	r2	;
    37f8:	35 3a       	jl	$-916    	;abs 0x3464
    37fa:	47 28       	jnc	$+144    	;abs 0x388a
    37fc:	37 2c       	jc	$+112    	;abs 0x386c
    37fe:	35 29       	jnc	$+620    	;abs 0x3a6a
    3800:	00 70       	subc	r0,	r0	;
    3802:	6f 72       	subc.b	#4,	r15	;r2 As==10
    3804:	74 36       	jge	$-790    	;abs 0x34ee
    3806:	3a 47       	mov	@r7+,	r10	;
    3808:	28 37       	jge	$-430    	;abs 0x365a
    380a:	2c 35       	jge	$+602    	;abs 0x3a64
    380c:	29 00       	.word	0x0029;	????
    380e:	50 31       	jn	$+674    	;abs 0x3ab0
    3810:	49 4e       	mov.b	r14,	r9	;
    3812:	3a 47       	mov	@r7+,	r10	;
    3814:	28 31       	jn	$+594    	;abs 0x3a66
    3816:	2c 31       	jn	$+602    	;abs 0x3a70
    3818:	29 3d       	jmp	$+596    	;abs 0x3a6c
    381a:	42 28       	jnc	$+134    	;abs 0x38a0
    381c:	30 2c       	jc	$+98     	;abs 0x387e
    381e:	31 31       	jn	$+612    	;abs 0x3a82
    3820:	29 00       	.word	0x0029;	????
    3822:	50 31       	jn	$+674    	;abs 0x3ac4
    3824:	4f 55       	add.b	r5,	r15	;
    3826:	54 3a       	jl	$-854    	;abs 0x34d0
    3828:	47 28       	jnc	$+144    	;abs 0x38b8
    382a:	31 2c       	jc	$+100    	;abs 0x388e
    382c:	31 29       	jnc	$+612    	;abs 0x3a90
    382e:	00 50       	rla	r0		;
    3830:	31 44       	mov	@r4+,	r1	;
    3832:	49 52       	add.b	r2,	r9	;
    3834:	3a 47       	mov	@r7+,	r10	;
    3836:	28 31       	jn	$+594    	;abs 0x3a88
    3838:	2c 31       	jn	$+602    	;abs 0x3a92
    383a:	29 00       	.word	0x0029;	????
    383c:	50 31       	jn	$+674    	;abs 0x3ade
    383e:	49 46       	mov.b	r6,	r9	;
    3840:	47 3a       	jl	$-880    	;abs 0x34d0
    3842:	47 28       	jnc	$+144    	;abs 0x38d2
    3844:	31 2c       	jc	$+100    	;abs 0x38a8
    3846:	31 29       	jnc	$+612    	;abs 0x3aaa
    3848:	00 50       	rla	r0		;
    384a:	31 49       	mov	@r9+,	r1	;
    384c:	45 53       	add.b	#0,	r5	;r3 As==00
    384e:	3a 47       	mov	@r7+,	r10	;
    3850:	28 31       	jn	$+594    	;abs 0x3aa2
    3852:	2c 31       	jn	$+602    	;abs 0x3aac
    3854:	29 00       	.word	0x0029;	????
    3856:	50 31       	jn	$+674    	;abs 0x3af8
    3858:	49 45       	mov.b	r5,	r9	;
    385a:	3a 47       	mov	@r7+,	r10	;
    385c:	28 31       	jn	$+594    	;abs 0x3aae
    385e:	2c 31       	jn	$+602    	;abs 0x3ab8
    3860:	29 00       	.word	0x0029;	????
    3862:	50 31       	jn	$+674    	;abs 0x3b04
    3864:	53 45       	.word	0x4553;	????
    3866:	4c 3a       	jl	$-870    	;abs 0x3500
    3868:	47 28       	jnc	$+144    	;abs 0x38f8
    386a:	31 2c       	jc	$+100    	;abs 0x38ce
    386c:	31 29       	jnc	$+612    	;abs 0x3ad0
    386e:	00 50       	rla	r0		;
    3870:	31 52       	add	#8,	r1	;r2 As==11
    3872:	45 4e       	mov.b	r14,	r5	;
    3874:	3a 47       	mov	@r7+,	r10	;
    3876:	28 31       	jn	$+594    	;abs 0x3ac8
    3878:	2c 31       	jn	$+602    	;abs 0x3ad2
    387a:	29 00       	.word	0x0029;	????
    387c:	50 32       	jn	$-862    	;abs 0x351e
    387e:	49 4e       	mov.b	r14,	r9	;
    3880:	3a 47       	mov	@r7+,	r10	;
    3882:	28 31       	jn	$+594    	;abs 0x3ad4
    3884:	2c 31       	jn	$+602    	;abs 0x3ade
    3886:	29 00       	.word	0x0029;	????
    3888:	50 32       	jn	$-862    	;abs 0x352a
    388a:	4f 55       	add.b	r5,	r15	;
    388c:	54 3a       	jl	$-854    	;abs 0x3536
    388e:	47 28       	jnc	$+144    	;abs 0x391e
    3890:	31 2c       	jc	$+100    	;abs 0x38f4
    3892:	31 29       	jnc	$+612    	;abs 0x3af6
    3894:	00 50       	rla	r0		;
    3896:	32 44       	mov	@r4+,	r2	;
    3898:	49 52       	add.b	r2,	r9	;
    389a:	3a 47       	mov	@r7+,	r10	;
    389c:	28 31       	jn	$+594    	;abs 0x3aee
    389e:	2c 31       	jn	$+602    	;abs 0x3af8
    38a0:	29 00       	.word	0x0029;	????
    38a2:	50 32       	jn	$-862    	;abs 0x3544
    38a4:	49 46       	mov.b	r6,	r9	;
    38a6:	47 3a       	jl	$-880    	;abs 0x3536
    38a8:	47 28       	jnc	$+144    	;abs 0x3938
    38aa:	31 2c       	jc	$+100    	;abs 0x390e
    38ac:	31 29       	jnc	$+612    	;abs 0x3b10
    38ae:	00 50       	rla	r0		;
    38b0:	32 49       	mov	@r9+,	r2	;
    38b2:	45 53       	add.b	#0,	r5	;r3 As==00
    38b4:	3a 47       	mov	@r7+,	r10	;
    38b6:	28 31       	jn	$+594    	;abs 0x3b08
    38b8:	2c 31       	jn	$+602    	;abs 0x3b12
    38ba:	29 00       	.word	0x0029;	????
    38bc:	50 32       	jn	$-862    	;abs 0x355e
    38be:	49 45       	mov.b	r5,	r9	;
    38c0:	3a 47       	mov	@r7+,	r10	;
    38c2:	28 31       	jn	$+594    	;abs 0x3b14
    38c4:	2c 31       	jn	$+602    	;abs 0x3b1e
    38c6:	29 00       	.word	0x0029;	????
    38c8:	50 32       	jn	$-862    	;abs 0x356a
    38ca:	53 45       	.word	0x4553;	????
    38cc:	4c 3a       	jl	$-870    	;abs 0x3566
    38ce:	47 28       	jnc	$+144    	;abs 0x395e
    38d0:	31 2c       	jc	$+100    	;abs 0x3934
    38d2:	31 29       	jnc	$+612    	;abs 0x3b36
    38d4:	00 50       	rla	r0		;
    38d6:	32 52       	add	#8,	r2	;r2 As==11
    38d8:	45 4e       	mov.b	r14,	r5	;
    38da:	3a 47       	mov	@r7+,	r10	;
    38dc:	28 31       	jn	$+594    	;abs 0x3b2e
    38de:	2c 31       	jn	$+602    	;abs 0x3b38
    38e0:	29 00       	.word	0x0029;	????
    38e2:	50 33       	jn	$-350    	;abs 0x3784
    38e4:	49 4e       	mov.b	r14,	r9	;
    38e6:	3a 47       	mov	@r7+,	r10	;
    38e8:	28 31       	jn	$+594    	;abs 0x3b3a
    38ea:	2c 31       	jn	$+602    	;abs 0x3b44
    38ec:	29 00       	.word	0x0029;	????
    38ee:	50 33       	jn	$-350    	;abs 0x3790
    38f0:	4f 55       	add.b	r5,	r15	;
    38f2:	54 3a       	jl	$-854    	;abs 0x359c
    38f4:	47 28       	jnc	$+144    	;abs 0x3984
    38f6:	31 2c       	jc	$+100    	;abs 0x395a
    38f8:	31 29       	jnc	$+612    	;abs 0x3b5c
    38fa:	00 50       	rla	r0		;
    38fc:	33 44       	.word	0x4433;	????
    38fe:	49 52       	add.b	r2,	r9	;
    3900:	3a 47       	mov	@r7+,	r10	;
    3902:	28 31       	jn	$+594    	;abs 0x3b54
    3904:	2c 31       	jn	$+602    	;abs 0x3b5e
    3906:	29 00       	.word	0x0029;	????
    3908:	50 33       	jn	$-350    	;abs 0x37aa
    390a:	53 45       	.word	0x4553;	????
    390c:	4c 3a       	jl	$-870    	;abs 0x35a6
    390e:	47 28       	jnc	$+144    	;abs 0x399e
    3910:	31 2c       	jc	$+100    	;abs 0x3974
    3912:	31 29       	jnc	$+612    	;abs 0x3b76
    3914:	00 50       	rla	r0		;
    3916:	33 52       	.word	0x5233;	????
    3918:	45 4e       	mov.b	r14,	r5	;
    391a:	3a 47       	mov	@r7+,	r10	;
    391c:	28 31       	jn	$+594    	;abs 0x3b6e
    391e:	2c 31       	jn	$+602    	;abs 0x3b78
    3920:	29 00       	.word	0x0029;	????
    3922:	50 34       	jge	$+162    	;abs 0x39c4
    3924:	49 4e       	mov.b	r14,	r9	;
    3926:	3a 47       	mov	@r7+,	r10	;
    3928:	28 31       	jn	$+594    	;abs 0x3b7a
    392a:	2c 31       	jn	$+602    	;abs 0x3b84
    392c:	29 00       	.word	0x0029;	????
    392e:	50 34       	jge	$+162    	;abs 0x39d0
    3930:	4f 55       	add.b	r5,	r15	;
    3932:	54 3a       	jl	$-854    	;abs 0x35dc
    3934:	47 28       	jnc	$+144    	;abs 0x39c4
    3936:	31 2c       	jc	$+100    	;abs 0x399a
    3938:	31 29       	jnc	$+612    	;abs 0x3b9c
    393a:	00 50       	rla	r0		;
    393c:	34 44       	mov	@r4+,	r4	;
    393e:	49 52       	add.b	r2,	r9	;
    3940:	3a 47       	mov	@r7+,	r10	;
    3942:	28 31       	jn	$+594    	;abs 0x3b94
    3944:	2c 31       	jn	$+602    	;abs 0x3b9e
    3946:	29 00       	.word	0x0029;	????
    3948:	50 34       	jge	$+162    	;abs 0x39ea
    394a:	53 45       	.word	0x4553;	????
    394c:	4c 3a       	jl	$-870    	;abs 0x35e6
    394e:	47 28       	jnc	$+144    	;abs 0x39de
    3950:	31 2c       	jc	$+100    	;abs 0x39b4
    3952:	31 29       	jnc	$+612    	;abs 0x3bb6
    3954:	00 50       	rla	r0		;
    3956:	34 52       	add	#8,	r4	;r2 As==11
    3958:	45 4e       	mov.b	r14,	r5	;
    395a:	3a 47       	mov	@r7+,	r10	;
    395c:	28 31       	jn	$+594    	;abs 0x3bae
    395e:	2c 31       	jn	$+602    	;abs 0x3bb8
    3960:	29 00       	.word	0x0029;	????
    3962:	50 35       	jge	$+674    	;abs 0x3c04
    3964:	49 4e       	mov.b	r14,	r9	;
    3966:	3a 47       	mov	@r7+,	r10	;
    3968:	28 31       	jn	$+594    	;abs 0x3bba
    396a:	2c 31       	jn	$+602    	;abs 0x3bc4
    396c:	29 00       	.word	0x0029;	????
    396e:	50 35       	jge	$+674    	;abs 0x3c10
    3970:	4f 55       	add.b	r5,	r15	;
    3972:	54 3a       	jl	$-854    	;abs 0x361c
    3974:	47 28       	jnc	$+144    	;abs 0x3a04
    3976:	31 2c       	jc	$+100    	;abs 0x39da
    3978:	31 29       	jnc	$+612    	;abs 0x3bdc
    397a:	00 50       	rla	r0		;
    397c:	35 44       	mov	@r4+,	r5	;
    397e:	49 52       	add.b	r2,	r9	;
    3980:	3a 47       	mov	@r7+,	r10	;
    3982:	28 31       	jn	$+594    	;abs 0x3bd4
    3984:	2c 31       	jn	$+602    	;abs 0x3bde
    3986:	29 00       	.word	0x0029;	????
    3988:	50 35       	jge	$+674    	;abs 0x3c2a
    398a:	53 45       	.word	0x4553;	????
    398c:	4c 3a       	jl	$-870    	;abs 0x3626
    398e:	47 28       	jnc	$+144    	;abs 0x3a1e
    3990:	31 2c       	jc	$+100    	;abs 0x39f4
    3992:	31 29       	jnc	$+612    	;abs 0x3bf6
    3994:	00 50       	rla	r0		;
    3996:	35 52       	add	#8,	r5	;r2 As==11
    3998:	45 4e       	mov.b	r14,	r5	;
    399a:	3a 47       	mov	@r7+,	r10	;
    399c:	28 31       	jn	$+594    	;abs 0x3bee
    399e:	2c 31       	jn	$+602    	;abs 0x3bf8
    39a0:	29 00       	.word	0x0029;	????
    39a2:	50 36       	jge	$-862    	;abs 0x3644
    39a4:	49 4e       	mov.b	r14,	r9	;
    39a6:	3a 47       	mov	@r7+,	r10	;
    39a8:	28 31       	jn	$+594    	;abs 0x3bfa
    39aa:	2c 31       	jn	$+602    	;abs 0x3c04
    39ac:	29 00       	.word	0x0029;	????
    39ae:	50 36       	jge	$-862    	;abs 0x3650
    39b0:	4f 55       	add.b	r5,	r15	;
    39b2:	54 3a       	jl	$-854    	;abs 0x365c
    39b4:	47 28       	jnc	$+144    	;abs 0x3a44
    39b6:	31 2c       	jc	$+100    	;abs 0x3a1a
    39b8:	31 29       	jnc	$+612    	;abs 0x3c1c
    39ba:	00 50       	rla	r0		;
    39bc:	36 44       	mov	@r4+,	r6	;
    39be:	49 52       	add.b	r2,	r9	;
    39c0:	3a 47       	mov	@r7+,	r10	;
    39c2:	28 31       	jn	$+594    	;abs 0x3c14
    39c4:	2c 31       	jn	$+602    	;abs 0x3c1e
    39c6:	29 00       	.word	0x0029;	????
    39c8:	50 36       	jge	$-862    	;abs 0x366a
    39ca:	53 45       	.word	0x4553;	????
    39cc:	4c 3a       	jl	$-870    	;abs 0x3666
    39ce:	47 28       	jnc	$+144    	;abs 0x3a5e
    39d0:	31 2c       	jc	$+100    	;abs 0x3a34
    39d2:	31 29       	jnc	$+612    	;abs 0x3c36
    39d4:	00 50       	rla	r0		;
    39d6:	36 52       	add	#8,	r6	;r2 As==11
    39d8:	45 4e       	mov.b	r14,	r5	;
    39da:	3a 47       	mov	@r7+,	r10	;
    39dc:	28 31       	jn	$+594    	;abs 0x3c2e
    39de:	2c 31       	jn	$+602    	;abs 0x3c38
    39e0:	29 00       	.word	0x0029;	????
    39e2:	55 43       	mov.b	#1,	r5	;r3 As==01
    39e4:	41 30       	jn	$+132    	;abs 0x3a68
    39e6:	43 54       	.word	0x5443;	????
    39e8:	4c 30       	jn	$+154    	;abs 0x3a82
    39ea:	3a 47       	mov	@r7+,	r10	;
    39ec:	28 31       	jn	$+594    	;abs 0x3c3e
    39ee:	2c 31       	jn	$+602    	;abs 0x3c48
    39f0:	29 00       	.word	0x0029;	????
    39f2:	55 43       	mov.b	#1,	r5	;r3 As==01
    39f4:	41 30       	jn	$+132    	;abs 0x3a78
    39f6:	43 54       	.word	0x5443;	????
    39f8:	4c 31       	jn	$+666    	;abs 0x3c92
    39fa:	3a 47       	mov	@r7+,	r10	;
    39fc:	28 31       	jn	$+594    	;abs 0x3c4e
    39fe:	2c 31       	jn	$+602    	;abs 0x3c58
    3a00:	29 00       	.word	0x0029;	????
    3a02:	55 43       	mov.b	#1,	r5	;r3 As==01
    3a04:	41 30       	jn	$+132    	;abs 0x3a88
    3a06:	42 52       	rla.b	r2		;
    3a08:	30 3a       	jl	$-926    	;abs 0x366a
    3a0a:	47 28       	jnc	$+144    	;abs 0x3a9a
    3a0c:	31 2c       	jc	$+100    	;abs 0x3a70
    3a0e:	31 29       	jnc	$+612    	;abs 0x3c72
    3a10:	00 55       	add	r5,	r0	;
    3a12:	43 41       	.word	0x4143;	????
    3a14:	30 42       	br	#8		;r2 As==11
    3a16:	52 31       	jn	$+678    	;abs 0x3cbc
    3a18:	3a 47       	mov	@r7+,	r10	;
    3a1a:	28 31       	jn	$+594    	;abs 0x3c6c
    3a1c:	2c 31       	jn	$+602    	;abs 0x3c76
    3a1e:	29 00       	.word	0x0029;	????
    3a20:	55 43       	mov.b	#1,	r5	;r3 As==01
    3a22:	41 30       	jn	$+132    	;abs 0x3aa6
    3a24:	4d 43       	clr.b	r13		;
    3a26:	54 4c 3a 47 	mov.b	18234(r12),r4	;
    3a2a:	28 31       	jn	$+594    	;abs 0x3c7c
    3a2c:	2c 31       	jn	$+602    	;abs 0x3c86
    3a2e:	29 00       	.word	0x0029;	????
    3a30:	55 43       	mov.b	#1,	r5	;r3 As==01
    3a32:	41 30       	jn	$+132    	;abs 0x3ab6
    3a34:	53 54       	.word	0x5453;	????
    3a36:	41 54       	add.b	r4,	r1	;
    3a38:	3a 47       	mov	@r7+,	r10	;
    3a3a:	28 31       	jn	$+594    	;abs 0x3c8c
    3a3c:	2c 31       	jn	$+602    	;abs 0x3c96
    3a3e:	29 00       	.word	0x0029;	????
    3a40:	55 43       	mov.b	#1,	r5	;r3 As==01
    3a42:	41 30       	jn	$+132    	;abs 0x3ac6
    3a44:	52 58 42 55 	add.b	21826(r8),r2	;
    3a48:	46 3a       	jl	$-882    	;abs 0x36d6
    3a4a:	47 28       	jnc	$+144    	;abs 0x3ada
    3a4c:	31 2c       	jc	$+100    	;abs 0x3ab0
    3a4e:	31 29       	jnc	$+612    	;abs 0x3cb2
    3a50:	00 55       	add	r5,	r0	;
    3a52:	43 41       	.word	0x4143;	????
    3a54:	30 54       	add	@r4+,	r0	;
    3a56:	58 42 55 46 	mov.b	&0x4655,r8	;0x4655
    3a5a:	3a 47       	mov	@r7+,	r10	;
    3a5c:	28 31       	jn	$+594    	;abs 0x3cae
    3a5e:	2c 31       	jn	$+602    	;abs 0x3cb8
    3a60:	29 00       	.word	0x0029;	????
    3a62:	55 43       	mov.b	#1,	r5	;r3 As==01
    3a64:	41 30       	jn	$+132    	;abs 0x3ae8
    3a66:	41 42       	mov.b	r2,	r1	;
    3a68:	43 54       	.word	0x5443;	????
    3a6a:	4c 3a       	jl	$-870    	;abs 0x3704
    3a6c:	47 28       	jnc	$+144    	;abs 0x3afc
    3a6e:	31 2c       	jc	$+100    	;abs 0x3ad2
    3a70:	31 29       	jnc	$+612    	;abs 0x3cd4
    3a72:	00 55       	add	r5,	r0	;
    3a74:	43 41       	.word	0x4143;	????
    3a76:	30 49       	br	@r9+		;
    3a78:	52 54 43 54 	add.b	21571(r4),r2	;
    3a7c:	4c 3a       	jl	$-870    	;abs 0x3716
    3a7e:	47 28       	jnc	$+144    	;abs 0x3b0e
    3a80:	31 2c       	jc	$+100    	;abs 0x3ae4
    3a82:	31 29       	jnc	$+612    	;abs 0x3ce6
    3a84:	00 55       	add	r5,	r0	;
    3a86:	43 41       	.word	0x4143;	????
    3a88:	30 49       	br	@r9+		;
    3a8a:	52 52 43 54 	add.b	&0x5443,r2	;0x5443
    3a8e:	4c 3a       	jl	$-870    	;abs 0x3728
    3a90:	47 28       	jnc	$+144    	;abs 0x3b20
    3a92:	31 2c       	jc	$+100    	;abs 0x3af6
    3a94:	31 29       	jnc	$+612    	;abs 0x3cf8
    3a96:	00 55       	add	r5,	r0	;
    3a98:	43 42       	.word	0x4243;	????
    3a9a:	30 43       	br	#-1		;r3 As==11
    3a9c:	54 4c 30 3a 	mov.b	14896(r12),r4	;
    3aa0:	47 28       	jnc	$+144    	;abs 0x3b30
    3aa2:	31 2c       	jc	$+100    	;abs 0x3b06
    3aa4:	31 29       	jnc	$+612    	;abs 0x3d08
    3aa6:	00 55       	add	r5,	r0	;
    3aa8:	43 42       	.word	0x4243;	????
    3aaa:	30 43       	br	#-1		;r3 As==11
    3aac:	54 4c 31 3a 	mov.b	14897(r12),r4	;
    3ab0:	47 28       	jnc	$+144    	;abs 0x3b40
    3ab2:	31 2c       	jc	$+100    	;abs 0x3b16
    3ab4:	31 29       	jnc	$+612    	;abs 0x3d18
    3ab6:	00 55       	add	r5,	r0	;
    3ab8:	43 42       	.word	0x4243;	????
    3aba:	30 42       	br	#8		;r2 As==11
    3abc:	52 30       	jn	$+166    	;abs 0x3b62
    3abe:	3a 47       	mov	@r7+,	r10	;
    3ac0:	28 31       	jn	$+594    	;abs 0x3d12
    3ac2:	2c 31       	jn	$+602    	;abs 0x3d1c
    3ac4:	29 00       	.word	0x0029;	????
    3ac6:	55 43       	mov.b	#1,	r5	;r3 As==01
    3ac8:	42 30       	jn	$+134    	;abs 0x3b4e
    3aca:	42 52       	rla.b	r2		;
    3acc:	31 3a       	jl	$-924    	;abs 0x3730
    3ace:	47 28       	jnc	$+144    	;abs 0x3b5e
    3ad0:	31 2c       	jc	$+100    	;abs 0x3b34
    3ad2:	31 29       	jnc	$+612    	;abs 0x3d36
    3ad4:	00 55       	add	r5,	r0	;
    3ad6:	43 42       	.word	0x4243;	????
    3ad8:	30 49       	br	@r9+		;
    3ada:	32 43       	mov	#-1,	r2	;r3 As==11
    3adc:	49 45       	mov.b	r5,	r9	;
    3ade:	3a 47       	mov	@r7+,	r10	;
    3ae0:	28 31       	jn	$+594    	;abs 0x3d32
    3ae2:	2c 31       	jn	$+602    	;abs 0x3d3c
    3ae4:	29 00       	.word	0x0029;	????
    3ae6:	55 43       	mov.b	#1,	r5	;r3 As==01
    3ae8:	42 30       	jn	$+134    	;abs 0x3b6e
    3aea:	53 54       	.word	0x5453;	????
    3aec:	41 54       	add.b	r4,	r1	;
    3aee:	3a 47       	mov	@r7+,	r10	;
    3af0:	28 31       	jn	$+594    	;abs 0x3d42
    3af2:	2c 31       	jn	$+602    	;abs 0x3d4c
    3af4:	29 00       	.word	0x0029;	????
    3af6:	55 43       	mov.b	#1,	r5	;r3 As==01
    3af8:	42 30       	jn	$+134    	;abs 0x3b7e
    3afa:	52 58 42 55 	add.b	21826(r8),r2	;
    3afe:	46 3a       	jl	$-882    	;abs 0x378c
    3b00:	47 28       	jnc	$+144    	;abs 0x3b90
    3b02:	31 2c       	jc	$+100    	;abs 0x3b66
    3b04:	31 29       	jnc	$+612    	;abs 0x3d68
    3b06:	00 55       	add	r5,	r0	;
    3b08:	43 42       	.word	0x4243;	????
    3b0a:	30 54       	add	@r4+,	r0	;
    3b0c:	58 42 55 46 	mov.b	&0x4655,r8	;0x4655
    3b10:	3a 47       	mov	@r7+,	r10	;
    3b12:	28 31       	jn	$+594    	;abs 0x3d64
    3b14:	2c 31       	jn	$+602    	;abs 0x3d6e
    3b16:	29 00       	.word	0x0029;	????
    3b18:	55 43       	mov.b	#1,	r5	;r3 As==01
    3b1a:	42 30       	jn	$+134    	;abs 0x3ba0
    3b1c:	49 32       	jn	$-876    	;abs 0x37b0
    3b1e:	43 4f       	.word	0x4f43;	????
    3b20:	41 3a       	jl	$-892    	;abs 0x37a4
    3b22:	47 28       	jnc	$+144    	;abs 0x3bb2
    3b24:	39 2c       	jc	$+116    	;abs 0x3b98
    3b26:	38 29       	jnc	$+626    	;abs 0x3d98
    3b28:	00 55       	add	r5,	r0	;
    3b2a:	43 42       	.word	0x4243;	????
    3b2c:	30 49       	br	@r9+		;
    3b2e:	32 43       	mov	#-1,	r2	;r3 As==11
    3b30:	53 41       	.word	0x4153;	????
    3b32:	3a 47       	mov	@r7+,	r10	;
    3b34:	28 39       	jl	$+594    	;abs 0x3d86
    3b36:	2c 38       	jl	$+90     	;abs 0x3b90
    3b38:	29 00       	.word	0x0029;	????
    3b3a:	55 43       	mov.b	#1,	r5	;r3 As==01
    3b3c:	41 31       	jn	$+644    	;abs 0x3dc0
    3b3e:	43 54       	.word	0x5443;	????
    3b40:	4c 30       	jn	$+154    	;abs 0x3bda
    3b42:	3a 47       	mov	@r7+,	r10	;
    3b44:	28 31       	jn	$+594    	;abs 0x3d96
    3b46:	2c 31       	jn	$+602    	;abs 0x3da0
    3b48:	29 00       	.word	0x0029;	????
    3b4a:	55 43       	mov.b	#1,	r5	;r3 As==01
    3b4c:	41 31       	jn	$+644    	;abs 0x3dd0
    3b4e:	43 54       	.word	0x5443;	????
    3b50:	4c 31       	jn	$+666    	;abs 0x3dea
    3b52:	3a 47       	mov	@r7+,	r10	;
    3b54:	28 31       	jn	$+594    	;abs 0x3da6
    3b56:	2c 31       	jn	$+602    	;abs 0x3db0
    3b58:	29 00       	.word	0x0029;	????
    3b5a:	55 43       	mov.b	#1,	r5	;r3 As==01
    3b5c:	41 31       	jn	$+644    	;abs 0x3de0
    3b5e:	42 52       	rla.b	r2		;
    3b60:	30 3a       	jl	$-926    	;abs 0x37c2
    3b62:	47 28       	jnc	$+144    	;abs 0x3bf2
    3b64:	31 2c       	jc	$+100    	;abs 0x3bc8
    3b66:	31 29       	jnc	$+612    	;abs 0x3dca
    3b68:	00 55       	add	r5,	r0	;
    3b6a:	43 41       	.word	0x4143;	????
    3b6c:	31 42       	mov	#8,	r1	;r2 As==11
    3b6e:	52 31       	jn	$+678    	;abs 0x3e14
    3b70:	3a 47       	mov	@r7+,	r10	;
    3b72:	28 31       	jn	$+594    	;abs 0x3dc4
    3b74:	2c 31       	jn	$+602    	;abs 0x3dce
    3b76:	29 00       	.word	0x0029;	????
    3b78:	55 43       	mov.b	#1,	r5	;r3 As==01
    3b7a:	41 31       	jn	$+644    	;abs 0x3dfe
    3b7c:	4d 43       	clr.b	r13		;
    3b7e:	54 4c 3a 47 	mov.b	18234(r12),r4	;
    3b82:	28 31       	jn	$+594    	;abs 0x3dd4
    3b84:	2c 31       	jn	$+602    	;abs 0x3dde
    3b86:	29 00       	.word	0x0029;	????
    3b88:	55 43       	mov.b	#1,	r5	;r3 As==01
    3b8a:	41 31       	jn	$+644    	;abs 0x3e0e
    3b8c:	53 54       	.word	0x5453;	????
    3b8e:	41 54       	add.b	r4,	r1	;
    3b90:	3a 47       	mov	@r7+,	r10	;
    3b92:	28 31       	jn	$+594    	;abs 0x3de4
    3b94:	2c 31       	jn	$+602    	;abs 0x3dee
    3b96:	29 00       	.word	0x0029;	????
    3b98:	55 43       	mov.b	#1,	r5	;r3 As==01
    3b9a:	41 31       	jn	$+644    	;abs 0x3e1e
    3b9c:	52 58 42 55 	add.b	21826(r8),r2	;
    3ba0:	46 3a       	jl	$-882    	;abs 0x382e
    3ba2:	47 28       	jnc	$+144    	;abs 0x3c32
    3ba4:	31 2c       	jc	$+100    	;abs 0x3c08
    3ba6:	31 29       	jnc	$+612    	;abs 0x3e0a
    3ba8:	00 55       	add	r5,	r0	;
    3baa:	43 41       	.word	0x4143;	????
    3bac:	31 54       	add	@r4+,	r1	;
    3bae:	58 42 55 46 	mov.b	&0x4655,r8	;0x4655
    3bb2:	3a 47       	mov	@r7+,	r10	;
    3bb4:	28 31       	jn	$+594    	;abs 0x3e06
    3bb6:	2c 31       	jn	$+602    	;abs 0x3e10
    3bb8:	29 00       	.word	0x0029;	????
    3bba:	55 43       	mov.b	#1,	r5	;r3 As==01
    3bbc:	41 31       	jn	$+644    	;abs 0x3e40
    3bbe:	41 42       	mov.b	r2,	r1	;
    3bc0:	43 54       	.word	0x5443;	????
    3bc2:	4c 3a       	jl	$-870    	;abs 0x385c
    3bc4:	47 28       	jnc	$+144    	;abs 0x3c54
    3bc6:	31 2c       	jc	$+100    	;abs 0x3c2a
    3bc8:	31 29       	jnc	$+612    	;abs 0x3e2c
    3bca:	00 55       	add	r5,	r0	;
    3bcc:	43 41       	.word	0x4143;	????
    3bce:	31 49       	mov	@r9+,	r1	;
    3bd0:	52 54 43 54 	add.b	21571(r4),r2	;
    3bd4:	4c 3a       	jl	$-870    	;abs 0x386e
    3bd6:	47 28       	jnc	$+144    	;abs 0x3c66
    3bd8:	31 2c       	jc	$+100    	;abs 0x3c3c
    3bda:	31 29       	jnc	$+612    	;abs 0x3e3e
    3bdc:	00 55       	add	r5,	r0	;
    3bde:	43 41       	.word	0x4143;	????
    3be0:	31 49       	mov	@r9+,	r1	;
    3be2:	52 52 43 54 	add.b	&0x5443,r2	;0x5443
    3be6:	4c 3a       	jl	$-870    	;abs 0x3880
    3be8:	47 28       	jnc	$+144    	;abs 0x3c78
    3bea:	31 2c       	jc	$+100    	;abs 0x3c4e
    3bec:	31 29       	jnc	$+612    	;abs 0x3e50
    3bee:	00 55       	add	r5,	r0	;
    3bf0:	43 42       	.word	0x4243;	????
    3bf2:	31 43       	mov	#-1,	r1	;r3 As==11
    3bf4:	54 4c 30 3a 	mov.b	14896(r12),r4	;
    3bf8:	47 28       	jnc	$+144    	;abs 0x3c88
    3bfa:	31 2c       	jc	$+100    	;abs 0x3c5e
    3bfc:	31 29       	jnc	$+612    	;abs 0x3e60
    3bfe:	00 55       	add	r5,	r0	;
    3c00:	43 42       	.word	0x4243;	????
    3c02:	31 43       	mov	#-1,	r1	;r3 As==11
    3c04:	54 4c 31 3a 	mov.b	14897(r12),r4	;
    3c08:	47 28       	jnc	$+144    	;abs 0x3c98
    3c0a:	31 2c       	jc	$+100    	;abs 0x3c6e
    3c0c:	31 29       	jnc	$+612    	;abs 0x3e70
    3c0e:	00 55       	add	r5,	r0	;
    3c10:	43 42       	.word	0x4243;	????
    3c12:	31 42       	mov	#8,	r1	;r2 As==11
    3c14:	52 30       	jn	$+166    	;abs 0x3cba
    3c16:	3a 47       	mov	@r7+,	r10	;
    3c18:	28 31       	jn	$+594    	;abs 0x3e6a
    3c1a:	2c 31       	jn	$+602    	;abs 0x3e74
    3c1c:	29 00       	.word	0x0029;	????
    3c1e:	55 43       	mov.b	#1,	r5	;r3 As==01
    3c20:	42 31       	jn	$+646    	;abs 0x3ea6
    3c22:	42 52       	rla.b	r2		;
    3c24:	31 3a       	jl	$-924    	;abs 0x3888
    3c26:	47 28       	jnc	$+144    	;abs 0x3cb6
    3c28:	31 2c       	jc	$+100    	;abs 0x3c8c
    3c2a:	31 29       	jnc	$+612    	;abs 0x3e8e
    3c2c:	00 55       	add	r5,	r0	;
    3c2e:	43 42       	.word	0x4243;	????
    3c30:	31 49       	mov	@r9+,	r1	;
    3c32:	32 43       	mov	#-1,	r2	;r3 As==11
    3c34:	49 45       	mov.b	r5,	r9	;
    3c36:	3a 47       	mov	@r7+,	r10	;
    3c38:	28 31       	jn	$+594    	;abs 0x3e8a
    3c3a:	2c 31       	jn	$+602    	;abs 0x3e94
    3c3c:	29 00       	.word	0x0029;	????
    3c3e:	55 43       	mov.b	#1,	r5	;r3 As==01
    3c40:	42 31       	jn	$+646    	;abs 0x3ec6
    3c42:	53 54       	.word	0x5453;	????
    3c44:	41 54       	add.b	r4,	r1	;
    3c46:	3a 47       	mov	@r7+,	r10	;
    3c48:	28 31       	jn	$+594    	;abs 0x3e9a
    3c4a:	2c 31       	jn	$+602    	;abs 0x3ea4
    3c4c:	29 00       	.word	0x0029;	????
    3c4e:	55 43       	mov.b	#1,	r5	;r3 As==01
    3c50:	42 31       	jn	$+646    	;abs 0x3ed6
    3c52:	52 58 42 55 	add.b	21826(r8),r2	;
    3c56:	46 3a       	jl	$-882    	;abs 0x38e4
    3c58:	47 28       	jnc	$+144    	;abs 0x3ce8
    3c5a:	31 2c       	jc	$+100    	;abs 0x3cbe
    3c5c:	31 29       	jnc	$+612    	;abs 0x3ec0
    3c5e:	00 55       	add	r5,	r0	;
    3c60:	43 42       	.word	0x4243;	????
    3c62:	31 54       	add	@r4+,	r1	;
    3c64:	58 42 55 46 	mov.b	&0x4655,r8	;0x4655
    3c68:	3a 47       	mov	@r7+,	r10	;
    3c6a:	28 31       	jn	$+594    	;abs 0x3ebc
    3c6c:	2c 31       	jn	$+602    	;abs 0x3ec6
    3c6e:	29 00       	.word	0x0029;	????
    3c70:	55 43       	mov.b	#1,	r5	;r3 As==01
    3c72:	42 31       	jn	$+646    	;abs 0x3ef8
    3c74:	49 32       	jn	$-876    	;abs 0x3908
    3c76:	43 4f       	.word	0x4f43;	????
    3c78:	41 3a       	jl	$-892    	;abs 0x38fc
    3c7a:	47 28       	jnc	$+144    	;abs 0x3d0a
    3c7c:	39 2c       	jc	$+116    	;abs 0x3cf0
    3c7e:	38 29       	jnc	$+626    	;abs 0x3ef0
    3c80:	00 55       	add	r5,	r0	;
    3c82:	43 42       	.word	0x4243;	????
    3c84:	31 49       	mov	@r9+,	r1	;
    3c86:	32 43       	mov	#-1,	r2	;r3 As==11
    3c88:	53 41       	.word	0x4153;	????
    3c8a:	3a 47       	mov	@r7+,	r10	;
    3c8c:	28 39       	jl	$+594    	;abs 0x3ede
    3c8e:	2c 38       	jl	$+90     	;abs 0x3ce8
    3c90:	29 00       	.word	0x0029;	????
    3c92:	55 43       	mov.b	#1,	r5	;r3 As==01
    3c94:	31 49       	mov	@r9+,	r1	;
    3c96:	45 3a       	jl	$-884    	;abs 0x3922
    3c98:	47 28       	jnc	$+144    	;abs 0x3d28
    3c9a:	31 2c       	jc	$+100    	;abs 0x3cfe
    3c9c:	31 29       	jnc	$+612    	;abs 0x3f00
    3c9e:	00 55       	add	r5,	r0	;
    3ca0:	43 31       	jn	$+648    	;abs 0x3f28
    3ca2:	49 46       	mov.b	r6,	r9	;
    3ca4:	47 3a       	jl	$-880    	;abs 0x3934
    3ca6:	47 28       	jnc	$+144    	;abs 0x3d36
    3ca8:	31 2c       	jc	$+100    	;abs 0x3d0c
    3caa:	31 29       	jnc	$+612    	;abs 0x3f0e
    3cac:	00 54       	add	r4,	r0	;
    3cae:	41 30       	jn	$+132    	;abs 0x3d32
    3cb0:	49 56       	add.b	r6,	r9	;
    3cb2:	3a 47       	mov	@r7+,	r10	;
    3cb4:	28 39       	jl	$+594    	;abs 0x3f06
    3cb6:	2c 38       	jl	$+90     	;abs 0x3d10
    3cb8:	29 00       	.word	0x0029;	????
    3cba:	54 41 30 43 	mov.b	17200(r1),r4	;
    3cbe:	54 4c 3a 47 	mov.b	18234(r12),r4	;
    3cc2:	28 39       	jl	$+594    	;abs 0x3f14
    3cc4:	2c 38       	jl	$+90     	;abs 0x3d1e
    3cc6:	29 00       	.word	0x0029;	????
    3cc8:	54 41 30 52 	mov.b	21040(r1),r4	;
    3ccc:	3a 47       	mov	@r7+,	r10	;
    3cce:	28 39       	jl	$+594    	;abs 0x3f20
    3cd0:	2c 38       	jl	$+90     	;abs 0x3d2a
    3cd2:	29 00       	.word	0x0029;	????
    3cd4:	54 41 30 43 	mov.b	17200(r1),r4	;
    3cd8:	43 54       	.word	0x5443;	????
    3cda:	4c 30       	jn	$+154    	;abs 0x3d74
    3cdc:	3a 47       	mov	@r7+,	r10	;
    3cde:	28 39       	jl	$+594    	;abs 0x3f30
    3ce0:	2c 38       	jl	$+90     	;abs 0x3d3a
    3ce2:	29 00       	.word	0x0029;	????
    3ce4:	54 41 30 43 	mov.b	17200(r1),r4	;
    3ce8:	43 54       	.word	0x5443;	????
    3cea:	4c 31       	jn	$+666    	;abs 0x3f84
    3cec:	3a 47       	mov	@r7+,	r10	;
    3cee:	28 39       	jl	$+594    	;abs 0x3f40
    3cf0:	2c 38       	jl	$+90     	;abs 0x3d4a
    3cf2:	29 00       	.word	0x0029;	????
    3cf4:	54 41 30 43 	mov.b	17200(r1),r4	;
    3cf8:	43 52       	.word	0x5243;	????
    3cfa:	30 3a       	jl	$-926    	;abs 0x395c
    3cfc:	47 28       	jnc	$+144    	;abs 0x3d8c
    3cfe:	39 2c       	jc	$+116    	;abs 0x3d72
    3d00:	38 29       	jnc	$+626    	;abs 0x3f72
    3d02:	00 54       	add	r4,	r0	;
    3d04:	41 30       	jn	$+132    	;abs 0x3d88
    3d06:	43 43       	clr.b	r3		;
    3d08:	52 31       	jn	$+678    	;abs 0x3fae
    3d0a:	3a 47       	mov	@r7+,	r10	;
    3d0c:	28 39       	jl	$+594    	;abs 0x3f5e
    3d0e:	2c 38       	jl	$+90     	;abs 0x3d68
    3d10:	29 00       	.word	0x0029;	????
    3d12:	54 41 30 43 	mov.b	17200(r1),r4	;
    3d16:	43 54       	.word	0x5443;	????
    3d18:	4c 32       	jn	$-870    	;abs 0x39b2
    3d1a:	3a 47       	mov	@r7+,	r10	;
    3d1c:	28 39       	jl	$+594    	;abs 0x3f6e
    3d1e:	2c 38       	jl	$+90     	;abs 0x3d78
    3d20:	29 00       	.word	0x0029;	????
    3d22:	54 41 30 43 	mov.b	17200(r1),r4	;
    3d26:	43 52       	.word	0x5243;	????
    3d28:	32 3a       	jl	$-922    	;abs 0x398e
    3d2a:	47 28       	jnc	$+144    	;abs 0x3dba
    3d2c:	39 2c       	jc	$+116    	;abs 0x3da0
    3d2e:	38 29       	jnc	$+626    	;abs 0x3fa0
    3d30:	00 74       	subc	r4,	r0	;
    3d32:	69 6d       	addc.b	@r13,	r9	;
    3d34:	65 72       	subc.b	#4,	r5	;r2 As==10
    3d36:	61 3a       	jl	$-828    	;abs 0x39fa
    3d38:	47 28       	jnc	$+144    	;abs 0x3dc8
    3d3a:	39 2c       	jc	$+116    	;abs 0x3dae
    3d3c:	35 29       	jnc	$+620    	;abs 0x3fa8
    3d3e:	00 54       	add	r4,	r0	;
    3d40:	42 49       	mov.b	r9,	r2	;
    3d42:	56 3a       	jl	$-850    	;abs 0x39f0
    3d44:	47 28       	jnc	$+144    	;abs 0x3dd4
    3d46:	39 2c       	jc	$+116    	;abs 0x3dba
    3d48:	38 29       	jnc	$+626    	;abs 0x3fba
    3d4a:	00 54       	add	r4,	r0	;
    3d4c:	42 43       	clr.b	r2		;
    3d4e:	54 4c 3a 47 	mov.b	18234(r12),r4	;
    3d52:	28 39       	jl	$+594    	;abs 0x3fa4
    3d54:	2c 38       	jl	$+90     	;abs 0x3dae
    3d56:	29 00       	.word	0x0029;	????
    3d58:	54 42 52 3a 	mov.b	&0x3a52,r4	;0x3a52
    3d5c:	47 28       	jnc	$+144    	;abs 0x3dec
    3d5e:	39 2c       	jc	$+116    	;abs 0x3dd2
    3d60:	38 29       	jnc	$+626    	;abs 0x3fd2
    3d62:	00 54       	add	r4,	r0	;
    3d64:	42 43       	clr.b	r2		;
    3d66:	43 54       	.word	0x5443;	????
    3d68:	4c 30       	jn	$+154    	;abs 0x3e02
    3d6a:	3a 47       	mov	@r7+,	r10	;
    3d6c:	28 39       	jl	$+594    	;abs 0x3fbe
    3d6e:	2c 38       	jl	$+90     	;abs 0x3dc8
    3d70:	29 00       	.word	0x0029;	????
    3d72:	54 42 43 43 	mov.b	&0x4343,r4	;0x4343
    3d76:	54 4c 31 3a 	mov.b	14897(r12),r4	;
    3d7a:	47 28       	jnc	$+144    	;abs 0x3e0a
    3d7c:	39 2c       	jc	$+116    	;abs 0x3df0
    3d7e:	38 29       	jnc	$+626    	;abs 0x3ff0
    3d80:	00 54       	add	r4,	r0	;
    3d82:	42 43       	clr.b	r2		;
    3d84:	43 54       	.word	0x5443;	????
    3d86:	4c 32       	jn	$-870    	;abs 0x3a20
    3d88:	3a 47       	mov	@r7+,	r10	;
    3d8a:	28 39       	jl	$+594    	;abs 0x3fdc
    3d8c:	2c 38       	jl	$+90     	;abs 0x3de6
    3d8e:	29 00       	.word	0x0029;	????
    3d90:	54 42 43 43 	mov.b	&0x4343,r4	;0x4343
    3d94:	52 30       	jn	$+166    	;abs 0x3e3a
    3d96:	3a 47       	mov	@r7+,	r10	;
    3d98:	28 39       	jl	$+594    	;abs 0x3fea
    3d9a:	2c 38       	jl	$+90     	;abs 0x3df4
    3d9c:	29 00       	.word	0x0029;	????
    3d9e:	54 42 43 43 	mov.b	&0x4343,r4	;0x4343
    3da2:	52 31       	jn	$+678    	;abs 0x4048
    3da4:	3a 47       	mov	@r7+,	r10	;
    3da6:	28 39       	jl	$+594    	;abs 0x3ff8
    3da8:	2c 38       	jl	$+90     	;abs 0x3e02
    3daa:	29 00       	.word	0x0029;	????
    3dac:	54 42 43 43 	mov.b	&0x4343,r4	;0x4343
    3db0:	52 32       	jn	$-858    	;abs 0x3a56
    3db2:	3a 47       	mov	@r7+,	r10	;
    3db4:	28 39       	jl	$+594    	;abs 0x4006
    3db6:	2c 38       	jl	$+90     	;abs 0x3e10
    3db8:	29 00       	.word	0x0029;	????
    3dba:	54 42 43 43 	mov.b	&0x4343,r4	;0x4343
    3dbe:	54 4c 33 3a 	mov.b	14899(r12),r4	;
    3dc2:	47 28       	jnc	$+144    	;abs 0x3e52
    3dc4:	39 2c       	jc	$+116    	;abs 0x3e38
    3dc6:	38 29       	jnc	$+626    	;abs 0x4038
    3dc8:	00 54       	add	r4,	r0	;
    3dca:	42 43       	clr.b	r2		;
    3dcc:	43 54       	.word	0x5443;	????
    3dce:	4c 34       	jge	$+154    	;abs 0x3e68
    3dd0:	3a 47       	mov	@r7+,	r10	;
    3dd2:	28 39       	jl	$+594    	;abs 0x4024
    3dd4:	2c 38       	jl	$+90     	;abs 0x3e2e
    3dd6:	29 00       	.word	0x0029;	????
    3dd8:	54 42 43 43 	mov.b	&0x4343,r4	;0x4343
    3ddc:	54 4c 35 3a 	mov.b	14901(r12),r4	;
    3de0:	47 28       	jnc	$+144    	;abs 0x3e70
    3de2:	39 2c       	jc	$+116    	;abs 0x3e56
    3de4:	38 29       	jnc	$+626    	;abs 0x4056
    3de6:	00 54       	add	r4,	r0	;
    3de8:	42 43       	clr.b	r2		;
    3dea:	43 54       	.word	0x5443;	????
    3dec:	4c 36       	jge	$-870    	;abs 0x3a86
    3dee:	3a 47       	mov	@r7+,	r10	;
    3df0:	28 39       	jl	$+594    	;abs 0x4042
    3df2:	2c 38       	jl	$+90     	;abs 0x3e4c
    3df4:	29 00       	.word	0x0029;	????
    3df6:	54 42 43 43 	mov.b	&0x4343,r4	;0x4343
    3dfa:	52 33       	jn	$-346    	;abs 0x3ca0
    3dfc:	3a 47       	mov	@r7+,	r10	;
    3dfe:	28 39       	jl	$+594    	;abs 0x4050
    3e00:	2c 38       	jl	$+90     	;abs 0x3e5a
    3e02:	29 00       	.word	0x0029;	????
    3e04:	54 42 43 43 	mov.b	&0x4343,r4	;0x4343
    3e08:	52 34       	jge	$+166    	;abs 0x3eae
    3e0a:	3a 47       	mov	@r7+,	r10	;
    3e0c:	28 39       	jl	$+594    	;abs 0x405e
    3e0e:	2c 38       	jl	$+90     	;abs 0x3e68
    3e10:	29 00       	.word	0x0029;	????
    3e12:	54 42 43 43 	mov.b	&0x4343,r4	;0x4343
    3e16:	52 35       	jge	$+678    	;abs 0x40bc
    3e18:	3a 47       	mov	@r7+,	r10	;
    3e1a:	28 39       	jl	$+594    	;abs 0x406c
    3e1c:	2c 38       	jl	$+90     	;abs 0x3e76
    3e1e:	29 00       	.word	0x0029;	????
    3e20:	54 42 43 43 	mov.b	&0x4343,r4	;0x4343
    3e24:	52 36       	jge	$-858    	;abs 0x3aca
    3e26:	3a 47       	mov	@r7+,	r10	;
    3e28:	28 39       	jl	$+594    	;abs 0x407a
    3e2a:	2c 38       	jl	$+90     	;abs 0x3e84
    3e2c:	29 00       	.word	0x0029;	????
    3e2e:	74 69       	addc.b	@r9+,	r4	;
    3e30:	6d 65       	addc.b	@r5,	r13	;
    3e32:	72 62       	addc.b	#8,	r2	;r2 As==11
    3e34:	3a 47       	mov	@r7+,	r10	;
    3e36:	28 31       	jn	$+594    	;abs 0x4088
    3e38:	30 2c       	jc	$+98     	;abs 0x3e9a
    3e3a:	35 29       	jnc	$+620    	;abs 0x40a6
    3e3c:	00 44       	br	r4		;
    3e3e:	43 4f       	.word	0x4f43;	????
    3e40:	43 54       	.word	0x5443;	????
    3e42:	4c 3a       	jl	$-870    	;abs 0x3adc
    3e44:	47 28       	jnc	$+144    	;abs 0x3ed4
    3e46:	31 2c       	jc	$+100    	;abs 0x3eaa
    3e48:	31 29       	jnc	$+612    	;abs 0x40ac
    3e4a:	00 42       	br	r2		;
    3e4c:	43 53       	.word	0x5343;	????
    3e4e:	43 54       	.word	0x5443;	????
    3e50:	4c 31       	jn	$+666    	;abs 0x40ea
    3e52:	3a 47       	mov	@r7+,	r10	;
    3e54:	28 31       	jn	$+594    	;abs 0x40a6
    3e56:	2c 31       	jn	$+602    	;abs 0x40b0
    3e58:	29 00       	.word	0x0029;	????
    3e5a:	42 43       	clr.b	r2		;
    3e5c:	53 43       	.word	0x4353;	????
    3e5e:	54 4c 32 3a 	mov.b	14898(r12),r4	;
    3e62:	47 28       	jnc	$+144    	;abs 0x3ef2
    3e64:	31 2c       	jc	$+100    	;abs 0x3ec8
    3e66:	31 29       	jnc	$+612    	;abs 0x40ca
    3e68:	00 42       	br	r2		;
    3e6a:	43 53       	.word	0x5343;	????
    3e6c:	43 54       	.word	0x5443;	????
    3e6e:	4c 33       	jn	$-358    	;abs 0x3d08
    3e70:	3a 47       	mov	@r7+,	r10	;
    3e72:	28 31       	jn	$+594    	;abs 0x40c4
    3e74:	2c 31       	jn	$+602    	;abs 0x40ce
    3e76:	29 00       	.word	0x0029;	????
    3e78:	46 43       	clr.b	r6		;
    3e7a:	54 4c 31 3a 	mov.b	14897(r12),r4	;
    3e7e:	47 28       	jnc	$+144    	;abs 0x3f0e
    3e80:	39 2c       	jc	$+116    	;abs 0x3ef4
    3e82:	38 29       	jnc	$+626    	;abs 0x40f4
    3e84:	00 46       	br	r6		;
    3e86:	43 54       	.word	0x5443;	????
    3e88:	4c 32       	jn	$-870    	;abs 0x3b22
    3e8a:	3a 47       	mov	@r7+,	r10	;
    3e8c:	28 39       	jl	$+594    	;abs 0x40de
    3e8e:	2c 38       	jl	$+90     	;abs 0x3ee8
    3e90:	29 00       	.word	0x0029;	????
    3e92:	46 43       	clr.b	r6		;
    3e94:	54 4c 33 3a 	mov.b	14899(r12),r4	;
    3e98:	47 28       	jnc	$+144    	;abs 0x3f28
    3e9a:	39 2c       	jc	$+116    	;abs 0x3f0e
    3e9c:	38 29       	jnc	$+626    	;abs 0x410e
    3e9e:	00 43       	clr	r0		;
    3ea0:	41 43       	clr.b	r1		;
    3ea2:	54 4c 31 3a 	mov.b	14897(r12),r4	;
    3ea6:	47 28       	jnc	$+144    	;abs 0x3f36
    3ea8:	31 2c       	jc	$+100    	;abs 0x3f0c
    3eaa:	31 29       	jnc	$+612    	;abs 0x410e
    3eac:	00 43       	clr	r0		;
    3eae:	41 43       	clr.b	r1		;
    3eb0:	54 4c 32 3a 	mov.b	14898(r12),r4	;
    3eb4:	47 28       	jnc	$+144    	;abs 0x3f44
    3eb6:	31 2c       	jc	$+100    	;abs 0x3f1a
    3eb8:	31 29       	jnc	$+612    	;abs 0x411c
    3eba:	00 43       	clr	r0		;
    3ebc:	41 50       	add.b	r0,	r1	;
    3ebe:	44 3a       	jl	$-886    	;abs 0x3b48
    3ec0:	47 28       	jnc	$+144    	;abs 0x3f50
    3ec2:	31 2c       	jc	$+100    	;abs 0x3f26
    3ec4:	31 29       	jnc	$+612    	;abs 0x4128
    3ec6:	00 41       	br	r1		;
    3ec8:	44 43       	clr.b	r4		;
    3eca:	31 32       	jn	$-924    	;abs 0x3b2e
    3ecc:	43 54       	.word	0x5443;	????
    3ece:	4c 30       	jn	$+154    	;abs 0x3f68
    3ed0:	3a 47       	mov	@r7+,	r10	;
    3ed2:	28 39       	jl	$+594    	;abs 0x4124
    3ed4:	2c 38       	jl	$+90     	;abs 0x3f2e
    3ed6:	29 00       	.word	0x0029;	????
    3ed8:	41 44       	mov.b	r4,	r1	;
    3eda:	43 31       	jn	$+648    	;abs 0x4162
    3edc:	32 43       	mov	#-1,	r2	;r3 As==11
    3ede:	54 4c 31 3a 	mov.b	14897(r12),r4	;
    3ee2:	47 28       	jnc	$+144    	;abs 0x3f72
    3ee4:	39 2c       	jc	$+116    	;abs 0x3f58
    3ee6:	38 29       	jnc	$+626    	;abs 0x4158
    3ee8:	00 41       	br	r1		;
    3eea:	44 43       	clr.b	r4		;
    3eec:	31 32       	jn	$-924    	;abs 0x3b50
    3eee:	49 46       	mov.b	r6,	r9	;
    3ef0:	47 3a       	jl	$-880    	;abs 0x3b80
    3ef2:	47 28       	jnc	$+144    	;abs 0x3f82
    3ef4:	39 2c       	jc	$+116    	;abs 0x3f68
    3ef6:	38 29       	jnc	$+626    	;abs 0x4168
    3ef8:	00 41       	br	r1		;
    3efa:	44 43       	clr.b	r4		;
    3efc:	31 32       	jn	$-924    	;abs 0x3b60
    3efe:	49 45       	mov.b	r5,	r9	;
    3f00:	3a 47       	mov	@r7+,	r10	;
    3f02:	28 39       	jl	$+594    	;abs 0x4154
    3f04:	2c 38       	jl	$+90     	;abs 0x3f5e
    3f06:	29 00       	.word	0x0029;	????
    3f08:	41 44       	mov.b	r4,	r1	;
    3f0a:	43 31       	jn	$+648    	;abs 0x4192
    3f0c:	32 49       	mov	@r9+,	r2	;
    3f0e:	56 3a       	jl	$-850    	;abs 0x3bbc
    3f10:	47 28       	jnc	$+144    	;abs 0x3fa0
    3f12:	39 2c       	jc	$+116    	;abs 0x3f86
    3f14:	38 29       	jnc	$+626    	;abs 0x4186
    3f16:	00 61       	addc	r1,	r0	;
    3f18:	64 63       	addc.b	#2,	r4	;r3 As==10
    3f1a:	31 32       	jn	$-924    	;abs 0x3b7e
    3f1c:	3a 47       	mov	@r7+,	r10	;
    3f1e:	28 31       	jn	$+594    	;abs 0x4170
    3f20:	34 2c       	jc	$+106    	;abs 0x3f8a
    3f22:	37 29       	jnc	$+624    	;abs 0x4192
    3f24:	00 41       	br	r1		;
    3f26:	44 43       	clr.b	r4		;
    3f28:	31 32       	jn	$-924    	;abs 0x3b8c
    3f2a:	4d 45       	mov.b	r5,	r13	;
    3f2c:	4d 30       	jn	$+156    	;abs 0x3fc8
    3f2e:	3a 47       	mov	@r7+,	r10	;
    3f30:	28 39       	jl	$+594    	;abs 0x4182
    3f32:	2c 38       	jl	$+90     	;abs 0x3f8c
    3f34:	29 00       	.word	0x0029;	????
    3f36:	41 44       	mov.b	r4,	r1	;
    3f38:	43 31       	jn	$+648    	;abs 0x41c0
    3f3a:	32 4d       	mov	@r13+,	r2	;
    3f3c:	45 4d       	mov.b	r13,	r5	;
    3f3e:	31 3a       	jl	$-924    	;abs 0x3ba2
    3f40:	47 28       	jnc	$+144    	;abs 0x3fd0
    3f42:	39 2c       	jc	$+116    	;abs 0x3fb6
    3f44:	38 29       	jnc	$+626    	;abs 0x41b6
    3f46:	00 41       	br	r1		;
    3f48:	44 43       	clr.b	r4		;
    3f4a:	31 32       	jn	$-924    	;abs 0x3bae
    3f4c:	4d 45       	mov.b	r5,	r13	;
    3f4e:	4d 32       	jn	$-868    	;abs 0x3bea
    3f50:	3a 47       	mov	@r7+,	r10	;
    3f52:	28 39       	jl	$+594    	;abs 0x41a4
    3f54:	2c 38       	jl	$+90     	;abs 0x3fae
    3f56:	29 00       	.word	0x0029;	????
    3f58:	41 44       	mov.b	r4,	r1	;
    3f5a:	43 31       	jn	$+648    	;abs 0x41e2
    3f5c:	32 4d       	mov	@r13+,	r2	;
    3f5e:	45 4d       	mov.b	r13,	r5	;
    3f60:	33 3a       	jl	$-920    	;abs 0x3bc8
    3f62:	47 28       	jnc	$+144    	;abs 0x3ff2
    3f64:	39 2c       	jc	$+116    	;abs 0x3fd8
    3f66:	38 29       	jnc	$+626    	;abs 0x41d8
    3f68:	00 41       	br	r1		;
    3f6a:	44 43       	clr.b	r4		;
    3f6c:	31 32       	jn	$-924    	;abs 0x3bd0
    3f6e:	4d 45       	mov.b	r5,	r13	;
    3f70:	4d 34       	jge	$+156    	;abs 0x400c
    3f72:	3a 47       	mov	@r7+,	r10	;
    3f74:	28 39       	jl	$+594    	;abs 0x41c6
    3f76:	2c 38       	jl	$+90     	;abs 0x3fd0
    3f78:	29 00       	.word	0x0029;	????
    3f7a:	41 44       	mov.b	r4,	r1	;
    3f7c:	43 31       	jn	$+648    	;abs 0x4204
    3f7e:	32 4d       	mov	@r13+,	r2	;
    3f80:	45 4d       	mov.b	r13,	r5	;
    3f82:	35 3a       	jl	$-916    	;abs 0x3bee
    3f84:	47 28       	jnc	$+144    	;abs 0x4014
    3f86:	39 2c       	jc	$+116    	;abs 0x3ffa
    3f88:	38 29       	jnc	$+626    	;abs 0x41fa
    3f8a:	00 41       	br	r1		;
    3f8c:	44 43       	clr.b	r4		;
    3f8e:	31 32       	jn	$-924    	;abs 0x3bf2
    3f90:	4d 45       	mov.b	r5,	r13	;
    3f92:	4d 36       	jge	$-868    	;abs 0x3c2e
    3f94:	3a 47       	mov	@r7+,	r10	;
    3f96:	28 39       	jl	$+594    	;abs 0x41e8
    3f98:	2c 38       	jl	$+90     	;abs 0x3ff2
    3f9a:	29 00       	.word	0x0029;	????
    3f9c:	41 44       	mov.b	r4,	r1	;
    3f9e:	43 31       	jn	$+648    	;abs 0x4226
    3fa0:	32 4d       	mov	@r13+,	r2	;
    3fa2:	45 4d       	mov.b	r13,	r5	;
    3fa4:	37 3a       	jl	$-912    	;abs 0x3c14
    3fa6:	47 28       	jnc	$+144    	;abs 0x4036
    3fa8:	39 2c       	jc	$+116    	;abs 0x401c
    3faa:	38 29       	jnc	$+626    	;abs 0x421c
    3fac:	00 41       	br	r1		;
    3fae:	44 43       	clr.b	r4		;
    3fb0:	31 32       	jn	$-924    	;abs 0x3c14
    3fb2:	4d 45       	mov.b	r5,	r13	;
    3fb4:	4d 38       	jl	$+156    	;abs 0x4050
    3fb6:	3a 47       	mov	@r7+,	r10	;
    3fb8:	28 39       	jl	$+594    	;abs 0x420a
    3fba:	2c 38       	jl	$+90     	;abs 0x4014
    3fbc:	29 00       	.word	0x0029;	????
    3fbe:	41 44       	mov.b	r4,	r1	;
    3fc0:	43 31       	jn	$+648    	;abs 0x4248
    3fc2:	32 4d       	mov	@r13+,	r2	;
    3fc4:	45 4d       	mov.b	r13,	r5	;
    3fc6:	39 3a       	jl	$-908    	;abs 0x3c3a
    3fc8:	47 28       	jnc	$+144    	;abs 0x4058
    3fca:	39 2c       	jc	$+116    	;abs 0x403e
    3fcc:	38 29       	jnc	$+626    	;abs 0x423e
    3fce:	00 41       	br	r1		;
    3fd0:	44 43       	clr.b	r4		;
    3fd2:	31 32       	jn	$-924    	;abs 0x3c36
    3fd4:	4d 45       	mov.b	r5,	r13	;
    3fd6:	4d 31       	jn	$+668    	;abs 0x4272
    3fd8:	30 3a       	jl	$-926    	;abs 0x3c3a
    3fda:	47 28       	jnc	$+144    	;abs 0x406a
    3fdc:	39 2c       	jc	$+116    	;abs 0x4050
    3fde:	38 29       	jnc	$+626    	;abs 0x4250
    3fe0:	00 41       	br	r1		;
    3fe2:	44 43       	clr.b	r4		;
    3fe4:	31 32       	jn	$-924    	;abs 0x3c48
    3fe6:	4d 45       	mov.b	r5,	r13	;
    3fe8:	4d 31       	jn	$+668    	;abs 0x4284
    3fea:	31 3a       	jl	$-924    	;abs 0x3c4e
    3fec:	47 28       	jnc	$+144    	;abs 0x407c
    3fee:	39 2c       	jc	$+116    	;abs 0x4062
    3ff0:	38 29       	jnc	$+626    	;abs 0x4262
    3ff2:	00 41       	br	r1		;
    3ff4:	44 43       	clr.b	r4		;
    3ff6:	31 32       	jn	$-924    	;abs 0x3c5a
    3ff8:	4d 45       	mov.b	r5,	r13	;
    3ffa:	4d 31       	jn	$+668    	;abs 0x4296
    3ffc:	32 3a       	jl	$-922    	;abs 0x3c62
    3ffe:	47 28       	jnc	$+144    	;abs 0x408e
    4000:	39 2c       	jc	$+116    	;abs 0x4074
    4002:	38 29       	jnc	$+626    	;abs 0x4274
    4004:	00 41       	br	r1		;
    4006:	44 43       	clr.b	r4		;
    4008:	31 32       	jn	$-924    	;abs 0x3c6c
    400a:	4d 45       	mov.b	r5,	r13	;
    400c:	4d 31       	jn	$+668    	;abs 0x42a8
    400e:	33 3a       	jl	$-920    	;abs 0x3c76
    4010:	47 28       	jnc	$+144    	;abs 0x40a0
    4012:	39 2c       	jc	$+116    	;abs 0x4086
    4014:	38 29       	jnc	$+626    	;abs 0x4286
    4016:	00 41       	br	r1		;
    4018:	44 43       	clr.b	r4		;
    401a:	31 32       	jn	$-924    	;abs 0x3c7e
    401c:	4d 45       	mov.b	r5,	r13	;
    401e:	4d 31       	jn	$+668    	;abs 0x42ba
    4020:	34 3a       	jl	$-918    	;abs 0x3c8a
    4022:	47 28       	jnc	$+144    	;abs 0x40b2
    4024:	39 2c       	jc	$+116    	;abs 0x4098
    4026:	38 29       	jnc	$+626    	;abs 0x4298
    4028:	00 41       	br	r1		;
    402a:	44 43       	clr.b	r4		;
    402c:	31 32       	jn	$-924    	;abs 0x3c90
    402e:	4d 45       	mov.b	r5,	r13	;
    4030:	4d 31       	jn	$+668    	;abs 0x42cc
    4032:	35 3a       	jl	$-916    	;abs 0x3c9e
    4034:	47 28       	jnc	$+144    	;abs 0x40c4
    4036:	39 2c       	jc	$+116    	;abs 0x40aa
    4038:	38 29       	jnc	$+626    	;abs 0x42aa
    403a:	00 41       	br	r1		;
    403c:	44 43       	clr.b	r4		;
    403e:	31 32       	jn	$-924    	;abs 0x3ca2
    4040:	4d 43       	clr.b	r13		;
    4042:	54 4c 30 3a 	mov.b	14896(r12),r4	;
    4046:	47 28       	jnc	$+144    	;abs 0x40d6
    4048:	31 2c       	jc	$+100    	;abs 0x40ac
    404a:	31 29       	jnc	$+612    	;abs 0x42ae
    404c:	00 41       	br	r1		;
    404e:	44 43       	clr.b	r4		;
    4050:	31 32       	jn	$-924    	;abs 0x3cb4
    4052:	4d 43       	clr.b	r13		;
    4054:	54 4c 31 3a 	mov.b	14897(r12),r4	;
    4058:	47 28       	jnc	$+144    	;abs 0x40e8
    405a:	31 2c       	jc	$+100    	;abs 0x40be
    405c:	31 29       	jnc	$+612    	;abs 0x42c0
    405e:	00 41       	br	r1		;
    4060:	44 43       	clr.b	r4		;
    4062:	31 32       	jn	$-924    	;abs 0x3cc6
    4064:	4d 43       	clr.b	r13		;
    4066:	54 4c 32 3a 	mov.b	14898(r12),r4	;
    406a:	47 28       	jnc	$+144    	;abs 0x40fa
    406c:	31 2c       	jc	$+100    	;abs 0x40d0
    406e:	31 29       	jnc	$+612    	;abs 0x42d2
    4070:	00 41       	br	r1		;
    4072:	44 43       	clr.b	r4		;
    4074:	31 32       	jn	$-924    	;abs 0x3cd8
    4076:	4d 43       	clr.b	r13		;
    4078:	54 4c 33 3a 	mov.b	14899(r12),r4	;
    407c:	47 28       	jnc	$+144    	;abs 0x410c
    407e:	31 2c       	jc	$+100    	;abs 0x40e2
    4080:	31 29       	jnc	$+612    	;abs 0x42e4
    4082:	00 41       	br	r1		;
    4084:	44 43       	clr.b	r4		;
    4086:	31 32       	jn	$-924    	;abs 0x3cea
    4088:	4d 43       	clr.b	r13		;
    408a:	54 4c 34 3a 	mov.b	14900(r12),r4	;
    408e:	47 28       	jnc	$+144    	;abs 0x411e
    4090:	31 2c       	jc	$+100    	;abs 0x40f4
    4092:	31 29       	jnc	$+612    	;abs 0x42f6
    4094:	00 41       	br	r1		;
    4096:	44 43       	clr.b	r4		;
    4098:	31 32       	jn	$-924    	;abs 0x3cfc
    409a:	4d 43       	clr.b	r13		;
    409c:	54 4c 35 3a 	mov.b	14901(r12),r4	;
    40a0:	47 28       	jnc	$+144    	;abs 0x4130
    40a2:	31 2c       	jc	$+100    	;abs 0x4106
    40a4:	31 29       	jnc	$+612    	;abs 0x4308
    40a6:	00 41       	br	r1		;
    40a8:	44 43       	clr.b	r4		;
    40aa:	31 32       	jn	$-924    	;abs 0x3d0e
    40ac:	4d 43       	clr.b	r13		;
    40ae:	54 4c 36 3a 	mov.b	14902(r12),r4	;
    40b2:	47 28       	jnc	$+144    	;abs 0x4142
    40b4:	31 2c       	jc	$+100    	;abs 0x4118
    40b6:	31 29       	jnc	$+612    	;abs 0x431a
    40b8:	00 41       	br	r1		;
    40ba:	44 43       	clr.b	r4		;
    40bc:	31 32       	jn	$-924    	;abs 0x3d20
    40be:	4d 43       	clr.b	r13		;
    40c0:	54 4c 37 3a 	mov.b	14903(r12),r4	;
    40c4:	47 28       	jnc	$+144    	;abs 0x4154
    40c6:	31 2c       	jc	$+100    	;abs 0x412a
    40c8:	31 29       	jnc	$+612    	;abs 0x432c
    40ca:	00 41       	br	r1		;
    40cc:	44 43       	clr.b	r4		;
    40ce:	31 32       	jn	$-924    	;abs 0x3d32
    40d0:	4d 43       	clr.b	r13		;
    40d2:	54 4c 38 3a 	mov.b	14904(r12),r4	;
    40d6:	47 28       	jnc	$+144    	;abs 0x4166
    40d8:	31 2c       	jc	$+100    	;abs 0x413c
    40da:	31 29       	jnc	$+612    	;abs 0x433e
    40dc:	00 41       	br	r1		;
    40de:	44 43       	clr.b	r4		;
    40e0:	31 32       	jn	$-924    	;abs 0x3d44
    40e2:	4d 43       	clr.b	r13		;
    40e4:	54 4c 39 3a 	mov.b	14905(r12),r4	;
    40e8:	47 28       	jnc	$+144    	;abs 0x4178
    40ea:	31 2c       	jc	$+100    	;abs 0x414e
    40ec:	31 29       	jnc	$+612    	;abs 0x4350
    40ee:	00 41       	br	r1		;
    40f0:	44 43       	clr.b	r4		;
    40f2:	31 32       	jn	$-924    	;abs 0x3d56
    40f4:	4d 43       	clr.b	r13		;
    40f6:	54 4c 31 30 	mov.b	12337(r12),r4	;
    40fa:	3a 47       	mov	@r7+,	r10	;
    40fc:	28 31       	jn	$+594    	;abs 0x434e
    40fe:	2c 31       	jn	$+602    	;abs 0x4358
    4100:	29 00       	.word	0x0029;	????
    4102:	41 44       	mov.b	r4,	r1	;
    4104:	43 31       	jn	$+648    	;abs 0x438c
    4106:	32 4d       	mov	@r13+,	r2	;
    4108:	43 54       	.word	0x5443;	????
    410a:	4c 31       	jn	$+666    	;abs 0x43a4
    410c:	31 3a       	jl	$-924    	;abs 0x3d70
    410e:	47 28       	jnc	$+144    	;abs 0x419e
    4110:	31 2c       	jc	$+100    	;abs 0x4174
    4112:	31 29       	jnc	$+612    	;abs 0x4376
    4114:	00 41       	br	r1		;
    4116:	44 43       	clr.b	r4		;
    4118:	31 32       	jn	$-924    	;abs 0x3d7c
    411a:	4d 43       	clr.b	r13		;
    411c:	54 4c 31 32 	mov.b	12849(r12),r4	;
    4120:	3a 47       	mov	@r7+,	r10	;
    4122:	28 31       	jn	$+594    	;abs 0x4374
    4124:	2c 31       	jn	$+602    	;abs 0x437e
    4126:	29 00       	.word	0x0029;	????
    4128:	41 44       	mov.b	r4,	r1	;
    412a:	43 31       	jn	$+648    	;abs 0x43b2
    412c:	32 4d       	mov	@r13+,	r2	;
    412e:	43 54       	.word	0x5443;	????
    4130:	4c 31       	jn	$+666    	;abs 0x43ca
    4132:	33 3a       	jl	$-920    	;abs 0x3d9a
    4134:	47 28       	jnc	$+144    	;abs 0x41c4
    4136:	31 2c       	jc	$+100    	;abs 0x419a
    4138:	31 29       	jnc	$+612    	;abs 0x439c
    413a:	00 41       	br	r1		;
    413c:	44 43       	clr.b	r4		;
    413e:	31 32       	jn	$-924    	;abs 0x3da2
    4140:	4d 43       	clr.b	r13		;
    4142:	54 4c 31 34 	mov.b	13361(r12),r4	;
    4146:	3a 47       	mov	@r7+,	r10	;
    4148:	28 31       	jn	$+594    	;abs 0x439a
    414a:	2c 31       	jn	$+602    	;abs 0x43a4
    414c:	29 00       	.word	0x0029;	????
    414e:	41 44       	mov.b	r4,	r1	;
    4150:	43 31       	jn	$+648    	;abs 0x43d8
    4152:	32 4d       	mov	@r13+,	r2	;
    4154:	43 54       	.word	0x5443;	????
    4156:	4c 31       	jn	$+666    	;abs 0x43f0
    4158:	35 3a       	jl	$-916    	;abs 0x3dc4
    415a:	47 28       	jnc	$+144    	;abs 0x41ea
    415c:	31 2c       	jc	$+100    	;abs 0x41c0
    415e:	31 29       	jnc	$+612    	;abs 0x43c2
    4160:	00 44       	br	r4		;
    4162:	41 43       	clr.b	r1		;
    4164:	31 32       	jn	$-924    	;abs 0x3dc8
    4166:	5f 30       	jn	$+192    	;abs 0x4226
    4168:	43 54       	.word	0x5443;	????
    416a:	4c 3a       	jl	$-870    	;abs 0x3e04
    416c:	47 28       	jnc	$+144    	;abs 0x41fc
    416e:	39 2c       	jc	$+116    	;abs 0x41e2
    4170:	38 29       	jnc	$+626    	;abs 0x43e2
    4172:	00 44       	br	r4		;
    4174:	41 43       	clr.b	r1		;
    4176:	31 32       	jn	$-924    	;abs 0x3dda
    4178:	5f 31       	jn	$+704    	;abs 0x4438
    417a:	43 54       	.word	0x5443;	????
    417c:	4c 3a       	jl	$-870    	;abs 0x3e16
    417e:	47 28       	jnc	$+144    	;abs 0x420e
    4180:	39 2c       	jc	$+116    	;abs 0x41f4
    4182:	38 29       	jnc	$+626    	;abs 0x43f4
    4184:	00 44       	br	r4		;
    4186:	41 43       	clr.b	r1		;
    4188:	31 32       	jn	$-924    	;abs 0x3dec
    418a:	5f 30       	jn	$+192    	;abs 0x424a
    418c:	44 41       	mov.b	r1,	r4	;
    418e:	54 3a       	jl	$-854    	;abs 0x3e38
    4190:	47 28       	jnc	$+144    	;abs 0x4220
    4192:	39 2c       	jc	$+116    	;abs 0x4206
    4194:	38 29       	jnc	$+626    	;abs 0x4406
    4196:	00 44       	br	r4		;
    4198:	41 43       	clr.b	r1		;
    419a:	31 32       	jn	$-924    	;abs 0x3dfe
    419c:	5f 31       	jn	$+704    	;abs 0x445c
    419e:	44 41       	mov.b	r1,	r4	;
    41a0:	54 3a       	jl	$-854    	;abs 0x3e4a
    41a2:	47 28       	jnc	$+144    	;abs 0x4232
    41a4:	39 2c       	jc	$+116    	;abs 0x4218
    41a6:	38 29       	jnc	$+626    	;abs 0x4418
    41a8:	00 44       	br	r4		;
    41aa:	4d 41       	mov.b	r1,	r13	;
    41ac:	43 54       	.word	0x5443;	????
    41ae:	4c 30       	jn	$+154    	;abs 0x4248
    41b0:	3a 47       	mov	@r7+,	r10	;
    41b2:	28 39       	jl	$+594    	;abs 0x4404
    41b4:	2c 38       	jl	$+90     	;abs 0x420e
    41b6:	29 00       	.word	0x0029;	????
    41b8:	44 4d       	mov.b	r13,	r4	;
    41ba:	41 43       	clr.b	r1		;
    41bc:	54 4c 31 3a 	mov.b	14897(r12),r4	;
    41c0:	47 28       	jnc	$+144    	;abs 0x4250
    41c2:	39 2c       	jc	$+116    	;abs 0x4236
    41c4:	38 29       	jnc	$+626    	;abs 0x4436
    41c6:	00 44       	br	r4		;
    41c8:	4d 41       	mov.b	r1,	r13	;
    41ca:	30 43       	br	#-1		;r3 As==11
    41cc:	54 4c 3a 47 	mov.b	18234(r12),r4	;
    41d0:	28 39       	jl	$+594    	;abs 0x4422
    41d2:	2c 38       	jl	$+90     	;abs 0x422c
    41d4:	29 00       	.word	0x0029;	????
    41d6:	44 4d       	mov.b	r13,	r4	;
    41d8:	41 30       	jn	$+132    	;abs 0x425c
    41da:	53 41       	.word	0x4153;	????
    41dc:	3a 47       	mov	@r7+,	r10	;
    41de:	28 31       	jn	$+594    	;abs 0x4430
    41e0:	2c 32       	jn	$-934    	;abs 0x3e3a
    41e2:	29 3d       	jmp	$+596    	;abs 0x4436
    41e4:	42 28       	jnc	$+134    	;abs 0x426a
    41e6:	30 2c       	jc	$+98     	;abs 0x4248
    41e8:	35 29       	jnc	$+620    	;abs 0x4454
    41ea:	00 44       	br	r4		;
    41ec:	4d 41       	mov.b	r1,	r13	;
    41ee:	30 53       	add	#-1,	r0	;r3 As==11
    41f0:	41 4c       	mov.b	r12,	r1	;
    41f2:	3a 47       	mov	@r7+,	r10	;
    41f4:	28 39       	jl	$+594    	;abs 0x4446
    41f6:	2c 38       	jl	$+90     	;abs 0x4250
    41f8:	29 00       	.word	0x0029;	????
    41fa:	44 4d       	mov.b	r13,	r4	;
    41fc:	41 30       	jn	$+132    	;abs 0x4280
    41fe:	44 41       	mov.b	r1,	r4	;
    4200:	3a 47       	mov	@r7+,	r10	;
    4202:	28 31       	jn	$+594    	;abs 0x4454
    4204:	2c 32       	jn	$-934    	;abs 0x3e5e
    4206:	29 00       	.word	0x0029;	????
    4208:	44 4d       	mov.b	r13,	r4	;
    420a:	41 30       	jn	$+132    	;abs 0x428e
    420c:	44 41       	mov.b	r1,	r4	;
    420e:	4c 3a       	jl	$-870    	;abs 0x3ea8
    4210:	47 28       	jnc	$+144    	;abs 0x42a0
    4212:	39 2c       	jc	$+116    	;abs 0x4286
    4214:	38 29       	jnc	$+626    	;abs 0x4486
    4216:	00 44       	br	r4		;
    4218:	4d 41       	mov.b	r1,	r13	;
    421a:	30 53       	add	#-1,	r0	;r3 As==11
    421c:	5a 3a       	jl	$-842    	;abs 0x3ed2
    421e:	47 28       	jnc	$+144    	;abs 0x42ae
    4220:	39 2c       	jc	$+116    	;abs 0x4294
    4222:	38 29       	jnc	$+626    	;abs 0x4494
    4224:	00 44       	br	r4		;
    4226:	4d 41       	mov.b	r1,	r13	;
    4228:	31 43       	mov	#-1,	r1	;r3 As==11
    422a:	54 4c 3a 47 	mov.b	18234(r12),r4	;
    422e:	28 39       	jl	$+594    	;abs 0x4480
    4230:	2c 38       	jl	$+90     	;abs 0x428a
    4232:	29 00       	.word	0x0029;	????
    4234:	44 4d       	mov.b	r13,	r4	;
    4236:	41 31       	jn	$+644    	;abs 0x44ba
    4238:	53 41       	.word	0x4153;	????
    423a:	3a 47       	mov	@r7+,	r10	;
    423c:	28 31       	jn	$+594    	;abs 0x448e
    423e:	2c 32       	jn	$-934    	;abs 0x3e98
    4240:	29 00       	.word	0x0029;	????
    4242:	44 4d       	mov.b	r13,	r4	;
    4244:	41 31       	jn	$+644    	;abs 0x44c8
    4246:	53 41       	.word	0x4153;	????
    4248:	4c 3a       	jl	$-870    	;abs 0x3ee2
    424a:	47 28       	jnc	$+144    	;abs 0x42da
    424c:	39 2c       	jc	$+116    	;abs 0x42c0
    424e:	38 29       	jnc	$+626    	;abs 0x44c0
    4250:	00 44       	br	r4		;
    4252:	4d 41       	mov.b	r1,	r13	;
    4254:	31 44       	mov	@r4+,	r1	;
    4256:	41 3a       	jl	$-892    	;abs 0x3eda
    4258:	47 28       	jnc	$+144    	;abs 0x42e8
    425a:	39 2c       	jc	$+116    	;abs 0x42ce
    425c:	38 29       	jnc	$+626    	;abs 0x44ce
    425e:	00 44       	br	r4		;
    4260:	4d 41       	mov.b	r1,	r13	;
    4262:	31 44       	mov	@r4+,	r1	;
    4264:	41 4c       	mov.b	r12,	r1	;
    4266:	3a 47       	mov	@r7+,	r10	;
    4268:	28 39       	jl	$+594    	;abs 0x44ba
    426a:	2c 38       	jl	$+90     	;abs 0x42c4
    426c:	29 00       	.word	0x0029;	????
    426e:	44 4d       	mov.b	r13,	r4	;
    4270:	41 31       	jn	$+644    	;abs 0x44f4
    4272:	53 5a       	.word	0x5a53;	????
    4274:	3a 47       	mov	@r7+,	r10	;
    4276:	28 39       	jl	$+594    	;abs 0x44c8
    4278:	2c 38       	jl	$+90     	;abs 0x42d2
    427a:	29 00       	.word	0x0029;	????
    427c:	44 4d       	mov.b	r13,	r4	;
    427e:	41 32       	jn	$-892    	;abs 0x3f02
    4280:	43 54       	.word	0x5443;	????
    4282:	4c 3a       	jl	$-870    	;abs 0x3f1c
    4284:	47 28       	jnc	$+144    	;abs 0x4314
    4286:	39 2c       	jc	$+116    	;abs 0x42fa
    4288:	38 29       	jnc	$+626    	;abs 0x44fa
    428a:	00 44       	br	r4		;
    428c:	4d 41       	mov.b	r1,	r13	;
    428e:	32 53       	add	#-1,	r2	;r3 As==11
    4290:	41 3a       	jl	$-892    	;abs 0x3f14
    4292:	47 28       	jnc	$+144    	;abs 0x4322
    4294:	31 2c       	jc	$+100    	;abs 0x42f8
    4296:	32 29       	jnc	$+614    	;abs 0x44fc
    4298:	00 44       	br	r4		;
    429a:	4d 41       	mov.b	r1,	r13	;
    429c:	32 53       	add	#-1,	r2	;r3 As==11
    429e:	41 4c       	mov.b	r12,	r1	;
    42a0:	3a 47       	mov	@r7+,	r10	;
    42a2:	28 39       	jl	$+594    	;abs 0x44f4
    42a4:	2c 38       	jl	$+90     	;abs 0x42fe
    42a6:	29 00       	.word	0x0029;	????
    42a8:	44 4d       	mov.b	r13,	r4	;
    42aa:	41 32       	jn	$-892    	;abs 0x3f2e
    42ac:	44 41       	mov.b	r1,	r4	;
    42ae:	3a 47       	mov	@r7+,	r10	;
    42b0:	28 31       	jn	$+594    	;abs 0x4502
    42b2:	2c 32       	jn	$-934    	;abs 0x3f0c
    42b4:	29 00       	.word	0x0029;	????
    42b6:	44 4d       	mov.b	r13,	r4	;
    42b8:	41 32       	jn	$-892    	;abs 0x3f3c
    42ba:	44 41       	mov.b	r1,	r4	;
    42bc:	4c 3a       	jl	$-870    	;abs 0x3f56
    42be:	47 28       	jnc	$+144    	;abs 0x434e
    42c0:	39 2c       	jc	$+116    	;abs 0x4334
    42c2:	38 29       	jnc	$+626    	;abs 0x4534
    42c4:	00 44       	br	r4		;
    42c6:	4d 41       	mov.b	r1,	r13	;
    42c8:	32 53       	add	#-1,	r2	;r3 As==11
    42ca:	5a 3a       	jl	$-842    	;abs 0x3f80
    42cc:	47 28       	jnc	$+144    	;abs 0x435c
    42ce:	39 2c       	jc	$+116    	;abs 0x4342
    42d0:	38 29       	jnc	$+626    	;abs 0x4542
    42d2:	00 57       	add	r7,	r0	;
    42d4:	44 54       	rla.b	r4		;
    42d6:	43 54       	.word	0x5443;	????
    42d8:	4c 3a       	jl	$-870    	;abs 0x3f72
    42da:	47 28       	jnc	$+144    	;abs 0x436a
    42dc:	39 2c       	jc	$+116    	;abs 0x4350
    42de:	38 29       	jnc	$+626    	;abs 0x4550
    42e0:	00 49       	br	r9		;
    42e2:	45 31       	jn	$+652    	;abs 0x456e
    42e4:	3a 47       	mov	@r7+,	r10	;
    42e6:	28 31       	jn	$+594    	;abs 0x4538
    42e8:	2c 31       	jn	$+602    	;abs 0x4542
    42ea:	29 00       	.word	0x0029;	????
    42ec:	49 46       	mov.b	r6,	r9	;
    42ee:	47 31       	jn	$+656    	;abs 0x457e
    42f0:	3a 47       	mov	@r7+,	r10	;
    42f2:	28 31       	jn	$+594    	;abs 0x4544
    42f4:	2c 31       	jn	$+602    	;abs 0x454e
    42f6:	29 00       	.word	0x0029;	????
    42f8:	49 45       	mov.b	r5,	r9	;
    42fa:	32 3a       	jl	$-922    	;abs 0x3f60
    42fc:	47 28       	jnc	$+144    	;abs 0x438c
    42fe:	31 2c       	jc	$+100    	;abs 0x4362
    4300:	31 29       	jnc	$+612    	;abs 0x4564
    4302:	00 49       	br	r9		;
    4304:	46 47       	mov.b	r7,	r6	;
    4306:	32 3a       	jl	$-922    	;abs 0x3f6c
    4308:	47 28       	jnc	$+144    	;abs 0x4398
    430a:	31 2c       	jc	$+100    	;abs 0x436e
    430c:	31 29       	jnc	$+612    	;abs 0x4570
    430e:	00 54       	add	r4,	r0	;
    4310:	4c 56       	add.b	r6,	r12	;
    4312:	5f 43       	mov.b	#1,	r15	;r3 As==01
    4314:	48 45       	mov.b	r5,	r8	;
    4316:	43 4b       	.word	0x4b43;	????
    4318:	53 55       	.word	0x5553;	????
    431a:	4d 3a       	jl	$-868    	;abs 0x3fb6
    431c:	47 28       	jnc	$+144    	;abs 0x43ac
    431e:	39 2c       	jc	$+116    	;abs 0x4392
    4320:	38 29       	jnc	$+626    	;abs 0x4592
    4322:	00 54       	add	r4,	r0	;
    4324:	4c 56       	add.b	r6,	r12	;
    4326:	5f 44 43 4f 	mov.b	20291(r4),r15	;
    432a:	5f 33       	jn	$-320    	;abs 0x41ea
    432c:	30 5f       	add	@r15+,	r0	;
    432e:	54 41 47 3a 	mov.b	14919(r1),r4	;
    4332:	47 28       	jnc	$+144    	;abs 0x43c2
    4334:	31 2c       	jc	$+100    	;abs 0x4398
    4336:	31 29       	jnc	$+612    	;abs 0x459a
    4338:	00 54       	add	r4,	r0	;
    433a:	4c 56       	add.b	r6,	r12	;
    433c:	5f 44 43 4f 	mov.b	20291(r4),r15	;
    4340:	5f 33       	jn	$-320    	;abs 0x4200
    4342:	30 5f       	add	@r15+,	r0	;
    4344:	4c 45       	mov.b	r5,	r12	;
    4346:	4e 3a       	jl	$-866    	;abs 0x3fe4
    4348:	47 28       	jnc	$+144    	;abs 0x43d8
    434a:	31 2c       	jc	$+100    	;abs 0x43ae
    434c:	31 29       	jnc	$+612    	;abs 0x45b0
    434e:	00 54       	add	r4,	r0	;
    4350:	4c 56       	add.b	r6,	r12	;
    4352:	5f 41 44 43 	mov.b	17220(r1),r15	;
    4356:	31 32       	jn	$-924    	;abs 0x3fba
    4358:	5f 31       	jn	$+704    	;abs 0x4618
    435a:	5f 54 41 47 	add.b	18241(r4),r15	;
    435e:	3a 47       	mov	@r7+,	r10	;
    4360:	28 31       	jn	$+594    	;abs 0x45b2
    4362:	2c 31       	jn	$+602    	;abs 0x45bc
    4364:	29 00       	.word	0x0029;	????
    4366:	54 4c 56 5f 	mov.b	24406(r12),r4	;
    436a:	41 44       	mov.b	r4,	r1	;
    436c:	43 31       	jn	$+648    	;abs 0x45f4
    436e:	32 5f       	add	@r15+,	r2	;
    4370:	31 5f       	add	@r15+,	r1	;
    4372:	4c 45       	mov.b	r5,	r12	;
    4374:	4e 3a       	jl	$-866    	;abs 0x4012
    4376:	47 28       	jnc	$+144    	;abs 0x4406
    4378:	31 2c       	jc	$+100    	;abs 0x43dc
    437a:	31 29       	jnc	$+612    	;abs 0x45de
    437c:	00 43       	clr	r0		;
    437e:	41 4c       	mov.b	r12,	r1	;
    4380:	44 43       	clr.b	r4		;
    4382:	4f 5f       	rla.b	r15		;
    4384:	31 36       	jge	$-924    	;abs 0x3fe8
    4386:	4d 48       	mov.b	r8,	r13	;
    4388:	5a 3a       	jl	$-842    	;abs 0x403e
    438a:	47 28       	jnc	$+144    	;abs 0x441a
    438c:	31 2c       	jc	$+100    	;abs 0x43f0
    438e:	31 29       	jnc	$+612    	;abs 0x45f2
    4390:	00 43       	clr	r0		;
    4392:	41 4c       	mov.b	r12,	r1	;
    4394:	42 43       	clr.b	r2		;
    4396:	31 5f       	add	@r15+,	r1	;
    4398:	31 36       	jge	$-924    	;abs 0x3ffc
    439a:	4d 48       	mov.b	r8,	r13	;
    439c:	5a 3a       	jl	$-842    	;abs 0x4052
    439e:	47 28       	jnc	$+144    	;abs 0x442e
    43a0:	31 2c       	jc	$+100    	;abs 0x4404
    43a2:	31 29       	jnc	$+612    	;abs 0x4606
    43a4:	00 43       	clr	r0		;
    43a6:	41 4c       	mov.b	r12,	r1	;
    43a8:	44 43       	clr.b	r4		;
    43aa:	4f 5f       	rla.b	r15		;
    43ac:	31 32       	jn	$-924    	;abs 0x4010
    43ae:	4d 48       	mov.b	r8,	r13	;
    43b0:	5a 3a       	jl	$-842    	;abs 0x4066
    43b2:	47 28       	jnc	$+144    	;abs 0x4442
    43b4:	31 2c       	jc	$+100    	;abs 0x4418
    43b6:	31 29       	jnc	$+612    	;abs 0x461a
    43b8:	00 43       	clr	r0		;
    43ba:	41 4c       	mov.b	r12,	r1	;
    43bc:	42 43       	clr.b	r2		;
    43be:	31 5f       	add	@r15+,	r1	;
    43c0:	31 32       	jn	$-924    	;abs 0x4024
    43c2:	4d 48       	mov.b	r8,	r13	;
    43c4:	5a 3a       	jl	$-842    	;abs 0x407a
    43c6:	47 28       	jnc	$+144    	;abs 0x4456
    43c8:	31 2c       	jc	$+100    	;abs 0x442c
    43ca:	31 29       	jnc	$+612    	;abs 0x462e
    43cc:	00 43       	clr	r0		;
    43ce:	41 4c       	mov.b	r12,	r1	;
    43d0:	44 43       	clr.b	r4		;
    43d2:	4f 5f       	rla.b	r15		;
    43d4:	38 4d       	mov	@r13+,	r8	;
    43d6:	48 5a       	add.b	r10,	r8	;
    43d8:	3a 47       	mov	@r7+,	r10	;
    43da:	28 31       	jn	$+594    	;abs 0x462c
    43dc:	2c 31       	jn	$+602    	;abs 0x4636
    43de:	29 00       	.word	0x0029;	????
    43e0:	43 41       	.word	0x4143;	????
    43e2:	4c 42       	mov.b	r2,	r12	;
    43e4:	43 31       	jn	$+648    	;abs 0x466c
    43e6:	5f 38       	jl	$+192    	;abs 0x44a6
    43e8:	4d 48       	mov.b	r8,	r13	;
    43ea:	5a 3a       	jl	$-842    	;abs 0x40a0
    43ec:	47 28       	jnc	$+144    	;abs 0x447c
    43ee:	31 2c       	jc	$+100    	;abs 0x4452
    43f0:	31 29       	jnc	$+612    	;abs 0x4654
    43f2:	00 43       	clr	r0		;
    43f4:	41 4c       	mov.b	r12,	r1	;
    43f6:	44 43       	clr.b	r4		;
    43f8:	4f 5f       	rla.b	r15		;
    43fa:	31 4d       	mov	@r13+,	r1	;
    43fc:	48 5a       	add.b	r10,	r8	;
    43fe:	3a 47       	mov	@r7+,	r10	;
    4400:	28 31       	jn	$+594    	;abs 0x4652
    4402:	2c 31       	jn	$+602    	;abs 0x465c
    4404:	29 00       	.word	0x0029;	????
    4406:	43 41       	.word	0x4143;	????
    4408:	4c 42       	mov.b	r2,	r12	;
    440a:	43 31       	jn	$+648    	;abs 0x4692
    440c:	5f 31       	jn	$+704    	;abs 0x46cc
    440e:	4d 48       	mov.b	r8,	r13	;
    4410:	5a 3a       	jl	$-842    	;abs 0x40c6
    4412:	47 28       	jnc	$+144    	;abs 0x44a2
    4414:	31 2c       	jc	$+100    	;abs 0x4478
    4416:	31 29       	jnc	$+612    	;abs 0x467a
    4418:	00 63       	adc	r0		;
    441a:	3a 5c       	add	@r12+,	r10	;
    441c:	77 6f       	addc.b	@r15+,	r7	;
    441e:	72 6b       	addc.b	@r11+,	r2	;
    4420:	5c 6d 73 70 	addc.b	28787(r13),r12	;
    4424:	67 63       	addc.b	#2,	r7	;r3 As==10
    4426:	63 5c       	.word	0x5c63;	????
    4428:	73 66       	.word	0x6673;	????
    442a:	5c 70 61 63 	subc.b	0x6361,	r12	;PC rel. 0xa78d
    442e:	6b 61       	addc.b	@r1,	r11	;
    4430:	67 69       	addc.b	@r9,	r7	;
    4432:	6e 67       	addc.b	@r7,	r14	;
    4434:	5c 62 75 69 	addc.b	&0x6975,r12	;0x6975
    4438:	6c 64       	addc.b	@r4,	r12	;
    443a:	5c 6d 73 70 	addc.b	28787(r13),r12	;
    443e:	34 33       	jn	$-406    	;abs 0x42a8
    4440:	30 2d       	jc	$+610    	;abs 0x46a2
    4442:	6c 69       	addc.b	@r9,	r12	;
    4444:	62 63       	addc.b	#2,	r2	;r3 As==10
    4446:	5c 73       	subc.b	#1,	r12	;r3 As==01
    4448:	72 63       	addc.b	#-1,	r2	;r3 As==11
    444a:	2f 00       	.word	0x002f;	????
    444c:	73 74       	.word	0x7473;	????
    444e:	64 6c       	addc.b	@r12,	r4	;
    4450:	69 62       	addc.b	#4,	r9	;r2 As==10
    4452:	2f 70       	subc	@r0,	r15	;
    4454:	72 69       	addc.b	@r9+,	r2	;
    4456:	6e 74       	subc.b	@r4,	r14	;
    4458:	66 2e       	jc	$-818    	;abs 0x4126
    445a:	63 00       	.word	0x0063;	????
    445c:	2e 2e       	jc	$-930    	;abs 0x40ba
    445e:	2f 69       	addc	@r9,	r15	;
    4460:	6e 63       	addc.b	#2,	r14	;r3 As==10
    4462:	6c 75       	subc.b	@r5,	r12	;
    4464:	64 65       	addc.b	@r5,	r4	;
    4466:	2f 73       	subc	#2,	r15	;r3 As==10
    4468:	74 64       	addc.b	@r4+,	r4	;
    446a:	69 6f       	addc.b	@r15,	r9	;
    446c:	2e 68       	addc	@r8,	r14	;
    446e:	00 63       	adc	r0		;
    4470:	3a 2f       	jc	$-394    	;abs 0x42e6
    4472:	77 6f       	addc.b	@r15+,	r7	;
    4474:	72 6b       	addc.b	@r11+,	r2	;
    4476:	2f 6d       	addc	@r13,	r15	;
    4478:	73 70       	.word	0x7073;	????
    447a:	67 63       	addc.b	#2,	r7	;r3 As==10
    447c:	63 2f       	jc	$-312    	;abs 0x4344
    447e:	73 66       	.word	0x6673;	????
    4480:	2f 70       	subc	@r0,	r15	;
    4482:	61 63       	addc.b	#2,	r1	;r3 As==10
    4484:	6b 61       	addc.b	@r1,	r11	;
    4486:	67 69       	addc.b	@r9,	r7	;
    4488:	6e 67       	addc.b	@r7,	r14	;
    448a:	2f 62       	addc	#4,	r15	;r2 As==10
    448c:	75 69       	addc.b	@r9+,	r5	;
    448e:	6c 64       	addc.b	@r4,	r12	;
    4490:	2f 69       	addc	@r9,	r15	;
    4492:	6e 73       	subc.b	#2,	r14	;r3 As==10
    4494:	74 61       	addc.b	@r1+,	r4	;
    4496:	6c 6c       	addc.b	@r12,	r12	;
    4498:	65 64       	addc.b	@r4,	r5	;
    449a:	2f 6c       	addc	@r12,	r15	;
    449c:	69 62       	addc.b	#4,	r9	;r2 As==10
    449e:	2f 67       	addc	@r7,	r15	;
    44a0:	63 63       	.word	0x6363;	????
    44a2:	2d 6c       	addc	@r12,	r13	;
    44a4:	69 62       	addc.b	#4,	r9	;r2 As==10
    44a6:	2f 6d       	addc	@r13,	r15	;
    44a8:	73 70       	.word	0x7073;	????
    44aa:	34 33       	jn	$-406    	;abs 0x4314
    44ac:	30 2f       	jc	$-414    	;abs 0x430e
    44ae:	33 2e       	jc	$-920    	;abs 0x4116
    44b0:	32 2e       	jc	$-922    	;abs 0x4116
    44b2:	33 2f       	jc	$-408    	;abs 0x431a
    44b4:	69 6e       	addc.b	@r14,	r9	;
    44b6:	63 6c       	.word	0x6c63;	????
    44b8:	75 64       	addc.b	@r4+,	r5	;
    44ba:	65 2f       	jc	$-308    	;abs 0x4386
    44bc:	73 74       	.word	0x7473;	????
    44be:	64 64       	addc.b	@r4,	r4	;
    44c0:	65 66       	addc.b	@r6,	r5	;
    44c2:	2e 68       	addc	@r8,	r14	;
    44c4:	00 2e       	.word	0x2e00;	????
    44c6:	2e 2f       	jc	$-418    	;abs 0x4324
    44c8:	69 6e       	addc.b	@r14,	r9	;
    44ca:	63 6c       	.word	0x6c63;	????
    44cc:	75 64       	addc.b	@r4+,	r5	;
    44ce:	65 2f       	jc	$-308    	;abs 0x439a
    44d0:	73 79       	.word	0x7973;	????
    44d2:	73 2f       	jc	$-280    	;abs 0x43ba
    44d4:	74 79       	subc.b	@r9+,	r4	;
    44d6:	70 65       	addc.b	@r5+,	r0	;
    44d8:	73 2e       	jc	$-792    	;abs 0x41c0
    44da:	68 00       	.word	0x0068;	????
    44dc:	2e 2e       	jc	$-930    	;abs 0x413a
    44de:	2f 69       	addc	@r9,	r15	;
    44e0:	6e 63       	addc.b	#2,	r14	;r3 As==10
    44e2:	6c 75       	subc.b	@r5,	r12	;
    44e4:	64 65       	addc.b	@r5,	r4	;
    44e6:	2f 73       	subc	#2,	r15	;r3 As==10
    44e8:	79 73       	subc.b	#-1,	r9	;r3 As==11
    44ea:	2f 63       	addc	#2,	r15	;r3 As==10
    44ec:	64 65       	addc.b	@r5,	r4	;
    44ee:	66 73       	subc.b	#2,	r6	;r3 As==10
    44f0:	2e 68       	addc	@r8,	r14	;
    44f2:	00 2e       	.word	0x2e00;	????
    44f4:	2e 2f       	jc	$-418    	;abs 0x4352
    44f6:	69 6e       	addc.b	@r14,	r9	;
    44f8:	63 6c       	.word	0x6c63;	????
    44fa:	75 64       	addc.b	@r4+,	r5	;
    44fc:	65 2f       	jc	$-308    	;abs 0x43c8
    44fe:	73 79       	.word	0x7973;	????
    4500:	73 2f       	jc	$-280    	;abs 0x43e8
    4502:	69 6e       	addc.b	@r14,	r9	;
    4504:	74 74       	subc.b	@r4+,	r4	;
    4506:	79 70 65 73 	subc.b	#29541,	r9	;#0x7365
    450a:	2e 68       	addc	@r8,	r14	;
    450c:	00 63       	adc	r0		;
    450e:	3a 2f       	jc	$-394    	;abs 0x4384
    4510:	77 6f       	addc.b	@r15+,	r7	;
    4512:	72 6b       	addc.b	@r11+,	r2	;
    4514:	2f 6d       	addc	@r13,	r15	;
    4516:	73 70       	.word	0x7073;	????
    4518:	67 63       	addc.b	#2,	r7	;r3 As==10
    451a:	63 2f       	jc	$-312    	;abs 0x43e2
    451c:	73 66       	.word	0x6673;	????
    451e:	2f 70       	subc	@r0,	r15	;
    4520:	61 63       	addc.b	#2,	r1	;r3 As==10
    4522:	6b 61       	addc.b	@r1,	r11	;
    4524:	67 69       	addc.b	@r9,	r7	;
    4526:	6e 67       	addc.b	@r7,	r14	;
    4528:	2f 62       	addc	#4,	r15	;r2 As==10
    452a:	75 69       	addc.b	@r9+,	r5	;
    452c:	6c 64       	addc.b	@r4,	r12	;
    452e:	2f 69       	addc	@r9,	r15	;
    4530:	6e 73       	subc.b	#2,	r14	;r3 As==10
    4532:	74 61       	addc.b	@r1+,	r4	;
    4534:	6c 6c       	addc.b	@r12,	r12	;
    4536:	65 64       	addc.b	@r4,	r5	;
    4538:	2f 6c       	addc	@r12,	r15	;
    453a:	69 62       	addc.b	#4,	r9	;r2 As==10
    453c:	2f 67       	addc	@r7,	r15	;
    453e:	63 63       	.word	0x6363;	????
    4540:	2d 6c       	addc	@r12,	r13	;
    4542:	69 62       	addc.b	#4,	r9	;r2 As==10
    4544:	2f 6d       	addc	@r13,	r15	;
    4546:	73 70       	.word	0x7073;	????
    4548:	34 33       	jn	$-406    	;abs 0x43b2
    454a:	30 2f       	jc	$-414    	;abs 0x43ac
    454c:	33 2e       	jc	$-920    	;abs 0x41b4
    454e:	32 2e       	jc	$-922    	;abs 0x41b4
    4550:	33 2f       	jc	$-408    	;abs 0x43b8
    4552:	69 6e       	addc.b	@r14,	r9	;
    4554:	63 6c       	.word	0x6c63;	????
    4556:	75 64       	addc.b	@r4+,	r5	;
    4558:	65 2f       	jc	$-308    	;abs 0x4424
    455a:	73 74       	.word	0x7473;	????
    455c:	64 61       	addc.b	@r1,	r4	;
    455e:	72 67       	addc.b	@r7+,	r2	;
    4560:	2e 68       	addc	@r8,	r14	;
    4562:	00 70       	subc	r0,	r0	;
    4564:	72 69       	addc.b	@r9+,	r2	;
    4566:	6e 74       	subc.b	@r4,	r14	;
    4568:	66 3a       	jl	$-818    	;abs 0x4236
    456a:	46 28       	jnc	$+142    	;abs 0x45f8
    456c:	30 2c       	jc	$+98     	;abs 0x45ce
    456e:	31 29       	jnc	$+612    	;abs 0x47d2
    4570:	00 73       	sbc	r0		;
    4572:	74 72       	subc.b	#8,	r4	;r2 As==11
    4574:	69 6e       	addc.b	@r14,	r9	;
    4576:	67 3a       	jl	$-816    	;abs 0x4246
    4578:	70 28       	jnc	$+226    	;abs 0x465a
    457a:	34 2c       	jc	$+106    	;abs 0x45e4
    457c:	31 38       	jl	$+100    	;abs 0x45e0
    457e:	29 00       	.word	0x0029;	????
    4580:	73 74       	.word	0x7473;	????
    4582:	72 69       	addc.b	@r9+,	r2	;
    4584:	6e 67       	addc.b	@r7,	r14	;
    4586:	3a 72       	subc	#8,	r10	;r2 As==11
    4588:	28 34       	jge	$+82     	;abs 0x45da
    458a:	2c 31       	jn	$+602    	;abs 0x47e4
    458c:	38 29       	jnc	$+626    	;abs 0x47fe
    458e:	00 6c       	addc	r12,	r0	;
    4590:	65 6e       	addc.b	@r14,	r5	;
    4592:	3a 72       	subc	#8,	r10	;r2 As==11
    4594:	28 30       	jn	$+82     	;abs 0x45e6
    4596:	2c 31       	jn	$+602    	;abs 0x47f0
    4598:	29 00       	.word	0x0029;	????
    459a:	73 74       	.word	0x7473;	????
    459c:	64 6c       	addc.b	@r12,	r4	;
    459e:	69 62       	addc.b	#4,	r9	;r2 As==10
    45a0:	2f 76       	subc	@r6,	r15	;
    45a2:	75 70 72 69 	subc.b	#26994,	r5	;#0x6972
    45a6:	6e 74       	subc.b	@r4,	r14	;
    45a8:	66 2e       	jc	$-818    	;abs 0x4276
    45aa:	63 00       	.word	0x0063;	????
    45ac:	2e 2e       	jc	$-930    	;abs 0x420a
    45ae:	2f 69       	addc	@r9,	r15	;
    45b0:	6e 63       	addc.b	#2,	r14	;r3 As==10
    45b2:	6c 75       	subc.b	@r5,	r12	;
    45b4:	64 65       	addc.b	@r5,	r4	;
    45b6:	2f 73       	subc	#2,	r15	;r3 As==10
    45b8:	74 72       	subc.b	#8,	r4	;r2 As==11
    45ba:	69 6e       	addc.b	@r14,	r9	;
    45bc:	67 2e       	jc	$-816    	;abs 0x428c
    45be:	68 00       	.word	0x0068;	????
    45c0:	50 52 49 4e 	add.b	&0x4e49,r0	;0x4e49
    45c4:	54 3a       	jl	$-854    	;abs 0x426e
    45c6:	66 28       	jnc	$+206    	;abs 0x4694
    45c8:	30 2c       	jc	$+98     	;abs 0x462a
    45ca:	31 29       	jnc	$+612    	;abs 0x482e
    45cc:	00 70       	subc	r0,	r0	;
    45ce:	74 72       	subc.b	#8,	r4	;r2 As==11
    45d0:	3a 50 28 34 	add	#13352,	r10	;#0x3428
    45d4:	2c 31       	jn	$+602    	;abs 0x482e
    45d6:	38 29       	jnc	$+626    	;abs 0x4848
    45d8:	00 6c       	addc	r12,	r0	;
    45da:	65 6e       	addc.b	@r14,	r5	;
    45dc:	3a 50 28 30 	add	#12328,	r10	;#0x3028
    45e0:	2c 34       	jge	$+90     	;abs 0x463a
    45e2:	29 00       	.word	0x0029;	????
    45e4:	5f 5f 77 72 	add.b	29303(r15),r15	;
    45e8:	69 74       	subc.b	@r4,	r9	;
    45ea:	65 5f       	add.b	@r15,	r5	;
    45ec:	70 61       	addc.b	@r1+,	r0	;
    45ee:	64 3a       	jl	$-822    	;abs 0x42b8
    45f0:	66 28       	jnc	$+206    	;abs 0x46be
    45f2:	30 2c       	jc	$+98     	;abs 0x4654
    45f4:	31 29       	jnc	$+612    	;abs 0x4858
    45f6:	00 63       	adc	r0		;
    45f8:	3a 50 28 30 	add	#12328,	r10	;#0x3028
    45fc:	2c 32       	jn	$-934    	;abs 0x4256
    45fe:	29 00       	.word	0x0029;	????
    4600:	68 6f       	addc.b	@r15,	r8	;
    4602:	77 6d       	addc.b	@r13+,	r7	;
    4604:	61 6e       	addc.b	@r14,	r1	;
    4606:	79 3a       	jl	$-780    	;abs 0x42fa
    4608:	50 28       	jnc	$+162    	;abs 0x46aa
    460a:	30 2c       	jc	$+98     	;abs 0x466c
    460c:	31 30       	jn	$+100    	;abs 0x4670
    460e:	29 00       	.word	0x0029;	????
    4610:	76 75       	subc.b	@r5+,	r6	;
    4612:	70 72       	subc.b	#8,	r0	;r2 As==11
    4614:	69 6e       	addc.b	@r14,	r9	;
    4616:	74 66       	addc.b	@r6+,	r4	;
    4618:	3a 46       	mov	@r6+,	r10	;
    461a:	28 30       	jn	$+82     	;abs 0x466c
    461c:	2c 31       	jn	$+602    	;abs 0x4876
    461e:	29 00       	.word	0x0029;	????
    4620:	66 75       	subc.b	@r5,	r6	;
    4622:	6e 63       	addc.b	#2,	r14	;r3 As==10
    4624:	3a 50 28 31 	add	#12584,	r10	;#0x3128
    4628:	2c 31       	jn	$+602    	;abs 0x4882
    462a:	29 3d       	jmp	$+596    	;abs 0x487e
    462c:	2a 28       	jnc	$+86     	;abs 0x4682
    462e:	31 2c       	jc	$+100    	;abs 0x4692
    4630:	32 29       	jnc	$+614    	;abs 0x4896
    4632:	3d 66       	addc	@r6+,	r13	;
    4634:	28 30       	jn	$+82     	;abs 0x4686
    4636:	2c 31       	jn	$+602    	;abs 0x4890
    4638:	29 00       	.word	0x0029;	????
    463a:	66 6d       	addc.b	@r13,	r6	;
    463c:	74 30       	jn	$+234    	;abs 0x4726
    463e:	3a 50 28 34 	add	#13352,	r10	;#0x3428
    4642:	2c 31       	jn	$+602    	;abs 0x489c
    4644:	38 29       	jnc	$+626    	;abs 0x48b6
    4646:	00 61       	addc	r1,	r0	;
    4648:	70 3a       	jl	$-798    	;abs 0x432a
    464a:	50 28       	jnc	$+162    	;abs 0x46ec
    464c:	37 2c       	jc	$+112    	;abs 0x46bc
    464e:	32 29       	jnc	$+614    	;abs 0x48b4
    4650:	00 66       	addc	r6,	r0	;
    4652:	6d 74       	subc.b	@r4,	r13	;
    4654:	3a 72       	subc	#8,	r10	;r2 As==11
    4656:	28 34       	jge	$+82     	;abs 0x46a8
    4658:	2c 31       	jn	$+602    	;abs 0x48b2
    465a:	38 29       	jnc	$+626    	;abs 0x48cc
    465c:	00 63       	adc	r0		;
    465e:	68 3a       	jl	$-814    	;abs 0x4330
    4660:	72 28       	jnc	$+230    	;abs 0x4746
    4662:	30 2c       	jc	$+98     	;abs 0x46c4
    4664:	32 29       	jnc	$+614    	;abs 0x48ca
    4666:	00 6e       	addc	r14,	r0	;
    4668:	3a 72       	subc	#8,	r10	;r2 As==11
    466a:	28 30       	jn	$+82     	;abs 0x46bc
    466c:	2c 31       	jn	$+602    	;abs 0x48c6
    466e:	29 00       	.word	0x0029;	????
    4670:	63 70       	.word	0x7063;	????
    4672:	3a 28       	jnc	$+118    	;abs 0x46e8
    4674:	34 2c       	jc	$+106    	;abs 0x46de
    4676:	31 36       	jge	$-924    	;abs 0x42da
    4678:	29 00       	.word	0x0029;	????
    467a:	66 6d       	addc.b	@r13,	r6	;
    467c:	61 72       	subc.b	#4,	r1	;r2 As==10
    467e:	6b 3a       	jl	$-808    	;abs 0x4356
    4680:	72 28       	jnc	$+230    	;abs 0x4766
    4682:	34 2c       	jc	$+106    	;abs 0x46ec
    4684:	31 38       	jl	$+100    	;abs 0x46e8
    4686:	29 00       	.word	0x0029;	????
    4688:	66 6c       	addc.b	@r12,	r6	;
    468a:	61 67       	addc.b	@r7,	r1	;
    468c:	73 3a       	jl	$-792    	;abs 0x4374
    468e:	28 30       	jn	$+82     	;abs 0x46e0
    4690:	2c 31       	jn	$+602    	;abs 0x48ea
    4692:	31 29       	jnc	$+612    	;abs 0x48f6
    4694:	00 77       	subc	r7,	r0	;
    4696:	69 64       	addc.b	@r4,	r9	;
    4698:	74 68       	addc.b	@r8+,	r4	;
    469a:	3a 28       	jnc	$+118    	;abs 0x4710
    469c:	30 2c       	jc	$+98     	;abs 0x46fe
    469e:	31 30       	jn	$+100    	;abs 0x4702
    46a0:	29 00       	.word	0x0029;	????
    46a2:	70 72       	subc.b	#8,	r0	;r2 As==11
    46a4:	65 63       	addc.b	#2,	r5	;r3 As==10
    46a6:	3a 72       	subc	#8,	r10	;r2 As==11
    46a8:	28 30       	jn	$+82     	;abs 0x46fa
    46aa:	2c 31       	jn	$+602    	;abs 0x4904
    46ac:	30 29       	jnc	$+610    	;abs 0x490e
    46ae:	00 73       	sbc	r0		;
    46b0:	69 67       	addc.b	@r7,	r9	;
    46b2:	6e 3a       	jl	$-802    	;abs 0x4390
    46b4:	28 30       	jn	$+82     	;abs 0x4706
    46b6:	2c 32       	jn	$-934    	;abs 0x4310
    46b8:	29 00       	.word	0x0029;	????
    46ba:	5f 75 6c 6f 	subc.b	28524(r5),r15	;
    46be:	6e 67       	addc.b	@r7,	r14	;
    46c0:	3a 28       	jnc	$+118    	;abs 0x4736
    46c2:	30 2c       	jc	$+98     	;abs 0x4724
    46c4:	35 29       	jnc	$+620    	;abs 0x4930
    46c6:	00 62       	addc	r2,	r0	;
    46c8:	61 73       	subc.b	#2,	r1	;r3 As==10
    46ca:	65 3a       	jl	$-820    	;abs 0x4396
    46cc:	28 30       	jn	$+82     	;abs 0x471e
    46ce:	2c 31       	jn	$+602    	;abs 0x4928
    46d0:	31 29       	jnc	$+612    	;abs 0x4934
    46d2:	00 64       	addc	r4,	r0	;
    46d4:	70 72       	subc.b	#8,	r0	;r2 As==11
    46d6:	65 63       	addc.b	#2,	r5	;r3 As==10
    46d8:	3a 28       	jnc	$+118    	;abs 0x474e
    46da:	30 2c       	jc	$+98     	;abs 0x473c
    46dc:	31 30       	jn	$+100    	;abs 0x4740
    46de:	29 00       	.word	0x0029;	????
    46e0:	64 70       	subc.b	@r0,	r4	;
    46e2:	61 64       	addc.b	@r4,	r1	;
    46e4:	3a 72       	subc	#8,	r10	;r2 As==11
    46e6:	28 30       	jn	$+82     	;abs 0x4738
    46e8:	2c 31       	jn	$+602    	;abs 0x4942
    46ea:	30 29       	jnc	$+610    	;abs 0x494c
    46ec:	00 66       	addc	r6,	r0	;
    46ee:	69 65       	addc.b	@r5,	r9	;
    46f0:	6c 64       	addc.b	@r4,	r12	;
    46f2:	73 7a       	.word	0x7a73;	????
    46f4:	3a 72       	subc	#8,	r10	;r2 As==11
    46f6:	28 30       	jn	$+82     	;abs 0x4748
    46f8:	2c 31       	jn	$+602    	;abs 0x4952
    46fa:	30 29       	jnc	$+610    	;abs 0x495c
    46fc:	00 73       	sbc	r0		;
    46fe:	69 7a       	subc.b	@r10,	r9	;
    4700:	65 3a       	jl	$-820    	;abs 0x43cc
    4702:	72 28       	jnc	$+230    	;abs 0x47e8
    4704:	30 2c       	jc	$+98     	;abs 0x4766
    4706:	31 30       	jn	$+100    	;abs 0x476a
    4708:	29 00       	.word	0x0029;	????
    470a:	62 75       	subc.b	@r5,	r2	;
    470c:	66 3a       	jl	$-818    	;abs 0x43da
    470e:	28 31       	jn	$+594    	;abs 0x4960
    4710:	2c 33       	jn	$-422    	;abs 0x456a
    4712:	29 3d       	jmp	$+596    	;abs 0x4966
    4714:	61 72       	subc.b	#4,	r1	;r2 As==10
    4716:	28 31       	jn	$+594    	;abs 0x4968
    4718:	2c 34       	jge	$+90     	;abs 0x4772
    471a:	29 3d       	jmp	$+596    	;abs 0x496e
    471c:	72 28       	jnc	$+230    	;abs 0x4802
    471e:	31 2c       	jc	$+100    	;abs 0x4782
    4720:	34 29       	jnc	$+618    	;abs 0x498a
    4722:	3b 30       	jn	$+120    	;abs 0x479a
    4724:	30 30       	jn	$+98     	;abs 0x4786
    4726:	30 30       	jn	$+98     	;abs 0x4788
    4728:	30 30       	jn	$+98     	;abs 0x478a
    472a:	30 30       	jn	$+98     	;abs 0x478c
    472c:	30 30       	jn	$+98     	;abs 0x478e
    472e:	30 30       	jn	$+98     	;abs 0x4790
    4730:	3b 30       	jn	$+120    	;abs 0x47a8
    4732:	30 30       	jn	$+98     	;abs 0x4794
    4734:	30 30       	jn	$+98     	;abs 0x4796
    4736:	30 30       	jn	$+98     	;abs 0x4798
    4738:	31 37       	jge	$-412    	;abs 0x459c
    473a:	37 37       	jge	$-400    	;abs 0x45aa
    473c:	37 37       	jge	$-400    	;abs 0x45ac
    473e:	3b 3b       	jl	$-392    	;abs 0x45b6
    4740:	30 3b       	jl	$-414    	;abs 0x45a2
    4742:	33 39       	jl	$+616    	;abs 0x49aa
    4744:	3b 28       	jnc	$+120    	;abs 0x47bc
    4746:	30 2c       	jc	$+98     	;abs 0x47a8
    4748:	32 29       	jnc	$+614    	;abs 0x49ae
    474a:	00 6f       	addc	r15,	r0	;
    474c:	78 3a       	jl	$-782    	;abs 0x443e
    474e:	28 31       	jn	$+594    	;abs 0x49a0
    4750:	2c 35       	jge	$+602    	;abs 0x49aa
    4752:	29 3d       	jmp	$+596    	;abs 0x49a6
    4754:	61 72       	subc.b	#4,	r1	;r2 As==10
    4756:	28 31       	jn	$+594    	;abs 0x49a8
    4758:	2c 34       	jge	$+90     	;abs 0x47b2
    475a:	29 3b       	jl	$-428    	;abs 0x45ae
    475c:	30 3b       	jl	$-414    	;abs 0x45be
    475e:	31 3b       	jl	$-412    	;abs 0x45c2
    4760:	28 30       	jn	$+82     	;abs 0x47b2
    4762:	2c 32       	jn	$-934    	;abs 0x43bc
    4764:	29 00       	.word	0x0029;	????
    4766:	5f 64 3a 72 	addc.b	29242(r4),r15	;
    476a:	28 30       	jn	$+82     	;abs 0x47bc
    476c:	2c 31       	jn	$+602    	;abs 0x49c6
    476e:	31 29       	jnc	$+612    	;abs 0x49d2
    4770:	00 6e       	addc	r14,	r0	;
    4772:	6f 74       	subc.b	@r4,	r15	;
    4774:	6c 61       	addc.b	@r1,	r12	;
    4776:	73 74       	.word	0x7473;	????
    4778:	64 69       	addc.b	@r9,	r4	;
    477a:	67 69       	addc.b	@r9,	r7	;
    477c:	74 3a       	jl	$-790    	;abs 0x4466
    477e:	28 30       	jn	$+82     	;abs 0x47d0
    4780:	2c 31       	jn	$+602    	;abs 0x49da
    4782:	31 29       	jnc	$+612    	;abs 0x49e6
    4784:	00 70       	subc	r0,	r0	;
    4786:	3a 72       	subc	#8,	r10	;r2 As==11
    4788:	28 34       	jge	$+82     	;abs 0x47da
    478a:	2c 31       	jn	$+602    	;abs 0x49e4
    478c:	36 29       	jnc	$+622    	;abs 0x49fa
    478e:	00 5f       	add	r15,	r0	;
    4790:	5f 77 72 69 	subc.b	26994(r7),r15	;
    4794:	74 65       	addc.b	@r5+,	r4	;
    4796:	5f 63       	addc.b	#1,	r15	;r3 As==01
    4798:	68 61       	addc.b	@r1,	r8	;
    479a:	72 3a       	jl	$-794    	;abs 0x4480
    479c:	53 28       	jnc	$+168    	;abs 0x4844
    479e:	31 2c       	jc	$+100    	;abs 0x4802
    47a0:	31 29       	jnc	$+612    	;abs 0x4a04
    47a2:	00 74       	subc	r4,	r0	;
    47a4:	6f 74       	subc.b	@r4,	r15	;
    47a6:	61 6c       	addc.b	@r12,	r1	;
    47a8:	5f 6c 65 6e 	addc.b	28261(r12),r15	;
    47ac:	3a 53       	add	#-1,	r10	;r3 As==11
    47ae:	28 30       	jn	$+82     	;abs 0x4800
    47b0:	2c 31       	jn	$+602    	;abs 0x4a0a
    47b2:	29 00       	.word	0x0029;	????
    47b4:	73 74       	.word	0x7473;	????
    47b6:	64 6c       	addc.b	@r12,	r4	;
    47b8:	69 62       	addc.b	#4,	r9	;r2 As==10
    47ba:	2f 70       	subc	@r0,	r15	;
    47bc:	75 74       	subc.b	@r4+,	r5	;
    47be:	73 2e       	jc	$-792    	;abs 0x44a6
    47c0:	63 00       	.word	0x0063;	????
    47c2:	70 75       	subc.b	@r5+,	r0	;
    47c4:	74 73       	subc.b	#-1,	r4	;r3 As==11
    47c6:	3a 46       	mov	@r6+,	r10	;
    47c8:	28 30       	jn	$+82     	;abs 0x481a
    47ca:	2c 31       	jn	$+602    	;abs 0x4a24
    47cc:	29 00       	.word	0x0029;	????
    47ce:	73 3a       	jl	$-792    	;abs 0x44b6
    47d0:	50 28       	jnc	$+162    	;abs 0x4872
    47d2:	34 2c       	jc	$+106    	;abs 0x483c
    47d4:	31 38       	jl	$+100    	;abs 0x4838
    47d6:	29 00       	.word	0x0029;	????
    47d8:	6f 6b       	addc.b	@r11,	r15	;
    47da:	3a 72       	subc	#8,	r10	;r2 As==11
    47dc:	28 30       	jn	$+82     	;abs 0x482e
    47de:	2c 31       	jn	$+602    	;abs 0x4a38
    47e0:	29 00       	.word	0x0029;	????
    47e2:	73 74       	.word	0x7473;	????
    47e4:	72 69       	addc.b	@r9+,	r2	;
    47e6:	6e 67       	addc.b	@r7,	r14	;
    47e8:	2f 6d       	addc	@r13,	r15	;
    47ea:	65 6d       	addc.b	@r13,	r5	;
    47ec:	63 68       	.word	0x6863;	????
    47ee:	72 2e       	jc	$-794    	;abs 0x44d4
    47f0:	63 00       	.word	0x0063;	????
    47f2:	6d 65       	addc.b	@r5,	r13	;
    47f4:	6d 63       	addc.b	#2,	r13	;r3 As==10
    47f6:	68 72       	subc.b	#4,	r8	;r2 As==10
    47f8:	3a 46       	mov	@r6+,	r10	;
    47fa:	28 31       	jn	$+594    	;abs 0x4a4c
    47fc:	2c 31       	jn	$+602    	;abs 0x4a56
    47fe:	29 3d       	jmp	$+596    	;abs 0x4a52
    4800:	2a 28       	jnc	$+86     	;abs 0x4856
    4802:	30 2c       	jc	$+98     	;abs 0x4864
    4804:	32 30       	jn	$+102    	;abs 0x486a
    4806:	29 00       	.word	0x0029;	????
    4808:	73 3a       	jl	$-792    	;abs 0x44f0
    480a:	50 28       	jnc	$+162    	;abs 0x48ac
    480c:	31 2c       	jc	$+100    	;abs 0x4870
    480e:	32 29       	jnc	$+614    	;abs 0x4a74
    4810:	3d 2a       	jnc	$-900    	;abs 0x448c
    4812:	28 31       	jn	$+594    	;abs 0x4a64
    4814:	2c 33       	jn	$-422    	;abs 0x466e
    4816:	29 3d       	jmp	$+596    	;abs 0x4a6a
    4818:	6b 28       	jnc	$+216    	;abs 0x48f0
    481a:	30 2c       	jc	$+98     	;abs 0x487c
    481c:	32 30       	jn	$+102    	;abs 0x4882
    481e:	29 00       	.word	0x0029;	????
    4820:	6e 3a       	jl	$-802    	;abs 0x44fe
    4822:	50 28       	jnc	$+162    	;abs 0x48c4
    4824:	34 2c       	jc	$+106    	;abs 0x488e
    4826:	32 29       	jnc	$+614    	;abs 0x4a8c
    4828:	00 70       	subc	r0,	r0	;
    482a:	3a 72       	subc	#8,	r10	;r2 As==11
    482c:	28 31       	jn	$+594    	;abs 0x4a7e
    482e:	2c 34       	jge	$+90     	;abs 0x4888
    4830:	29 3d       	jmp	$+596    	;abs 0x4a84
    4832:	2a 28       	jnc	$+86     	;abs 0x4888
    4834:	31 2c       	jc	$+100    	;abs 0x4898
    4836:	35 29       	jnc	$+620    	;abs 0x4aa2
    4838:	3d 6b       	addc	@r11+,	r13	;
    483a:	28 30       	jn	$+82     	;abs 0x488c
    483c:	2c 31       	jn	$+602    	;abs 0x4a96
    483e:	31 29       	jnc	$+612    	;abs 0x4aa2
    4840:	00 70       	subc	r0,	r0	;
    4842:	3a 72       	subc	#8,	r10	;r2 As==11
    4844:	28 31       	jn	$+594    	;abs 0x4a96
    4846:	2c 34       	jge	$+90     	;abs 0x48a0
    4848:	29 00       	.word	0x0029;	????
