
motortester.o:     file format elf32-msp430


Disassembly of section .text:

00003100 <__init_stack>:
    3100:	31 40 00 31 	mov	#12544,	r1	;#0x3100

00003104 <__low_level_init>:
    3104:	15 42 20 01 	mov	&0x0120,r5	
    3108:	75 f3       	and.b	#-1,	r5	;r3 As==11
    310a:	35 d0 08 5a 	bis	#23048,	r5	;#0x5a08

0000310e <__do_copy_data>:
    310e:	3f 40 18 00 	mov	#24,	r15	;#0x0018
    3112:	0f 93       	tst	r15		
    3114:	07 24       	jz	$+16     	;abs 0x3124
    3116:	82 45 20 01 	mov	r5,	&0x0120	
    311a:	2f 83       	decd	r15		
    311c:	9f 4f a6 43 	mov	17318(r15),4352(r15);0x43a6(r15), 0x1100(r15)
    3120:	00 11 
    3122:	f9 23       	jnz	$-12     	;abs 0x3116

00003124 <__do_clear_bss>:
    3124:	3f 40 40 00 	mov	#64,	r15	;#0x0040
    3128:	0f 93       	tst	r15		
    312a:	06 24       	jz	$+14     	;abs 0x3138
    312c:	82 45 20 01 	mov	r5,	&0x0120	
    3130:	1f 83       	dec	r15		
    3132:	cf 43 18 11 	mov.b	#0,	4376(r15);r3 As==00, 0x1118(r15)
    3136:	fa 23       	jnz	$-10     	;abs 0x312c

00003138 <main>:
int putchar(int c){
    return (int)(UART_putchar((char)c));
}

int main(void){
    WDTCTL = WDTPW + WDTHOLD;   // desabilita watchdog
    3138:	b2 40 80 5a 	mov	#23168,	&0x0120	;#0x5a80
    313c:	20 01 
    }
    return 1;
}

void clock_init(void){
    BCSCTL2 = SELM_0 + DIVM_0 + DIVS_0;
    313e:	c2 43 58 00 	mov.b	#0,	&0x0058	;r3 As==00
    DCOCTL = 0x77;      
    3142:	f2 40 77 00 	mov.b	#119,	&0x0056	;#0x0077
    3146:	56 00 
    BCSCTL1 = 0xCF;     
    3148:	f2 40 cf ff 	mov.b	#-49,	&0x0057	;#0xffcf
    314c:	57 00 
    BCSCTL3 = 0xA0;
    314e:	f2 40 a0 ff 	mov.b	#-96,	&0x0053	;#0xffa0
    3152:	53 00 
        
    STATE State = SHOW_MENU;
    COMMAND Cmd = STOP;  
    
    clock_init();
    UART_init();
    3154:	b0 12 50 3e 	call	#0x3e50	
    timer_init();
    3158:	b0 12 5a 34 	call	#0x345a	
    analog_init();
    315c:	b0 12 3c 3d 	call	#0x3d3c	
    analog_calibrate_channel(LOAD_CELL_ACH); // offset
    3160:	3f 40 03 00 	mov	#3,	r15	;#0x0003
    3164:	b0 12 58 3d 	call	#0x3d58	
    analog_calibrate_channel(CURRENT_ACH); // offset
    3168:	2f 42       	mov	#4,	r15	;r2 As==10
    316a:	b0 12 58 3d 	call	#0x3d58	
    //load_params();
       
    eint();
    316e:	32 d2       	eint			
 
    delayms(300);
    3170:	3f 40 2c 01 	mov	#300,	r15	;#0x012c
    3174:	b0 12 d8 36 	call	#0x36d8	
    
    printf(startup_txt);
    3178:	12 12 0e 11 	push	&0x110e	
    317c:	b0 12 92 3e 	call	#0x3e92	
    3180:	21 53       	incd	r1		
    unsigned int GPCounter = 0;

    int ValorBalanca = 0;
        
    STATE State = SHOW_MENU;
    COMMAND Cmd = STOP;  
    3182:	38 40 42 00 	mov	#66,	r8	;#0x0042
    unsigned int MotorStab = DEFAULT_STAB;  
    unsigned int GPCounter = 0;

    int ValorBalanca = 0;
        
    STATE State = SHOW_MENU;
    3186:	09 43       	clr	r9		
    
    unsigned int MotorInc = DEFAULT_MOTOR_INC;   // 5%
    unsigned int MotorStab = DEFAULT_STAB;  
    unsigned int GPCounter = 0;

    int ValorBalanca = 0;
    3188:	07 49       	mov	r9,	r7	

int main(void){
    WDTCTL = WDTPW + WDTHOLD;   // desabilita watchdog
    
    unsigned int MotorInc = DEFAULT_MOTOR_INC;   // 5%
    unsigned int MotorStab = DEFAULT_STAB;  
    318a:	35 40 c8 00 	mov	#200,	r5	;#0x00c8
}

int main(void){
    WDTCTL = WDTPW + WDTHOLD;   // desabilita watchdog
    
    unsigned int MotorInc = DEFAULT_MOTOR_INC;   // 5%
    318e:	36 40 64 00 	mov	#100,	r6	;#0x0064
                State = IDLE;
            break;
            
            case IDLE:
                TBCCR1 = MIN_THROTTLE;
                switch(Cmd){                    
    3192:	34 40 06 00 	mov	#6,	r4	;#0x0006
    
    printf(startup_txt);
    
    while(1){
        
        if(UC0IFG & UCA0RXIFG){
    3196:	5d 42 03 00 	mov.b	&0x0003,r13	
    319a:	1d f3       	and	#1,	r13	;r3 As==01
    319c:	02 24       	jz	$+6      	;abs 0x31a2
            Cmd = UCA0RXBUF;        
    319e:	58 42 66 00 	mov.b	&0x0066,r8	
        }
        
        switch(State){
    31a2:	19 93       	cmp	#1,	r9	;r3 As==01
    31a4:	0e 24       	jz	$+30     	;abs 0x31c2
    31a6:	09 93       	tst	r9		
    31a8:	16 20       	jnz	$+46     	;abs 0x31d6
            case SHOW_MENU:
                printf(showmenu_txt);
    31aa:	12 12 14 11 	push	&0x1114	
    31ae:	b0 12 92 3e 	call	#0x3e92	
    31b2:	21 53       	incd	r1		
                State = IDLE;
    31b4:	19 43       	mov	#1,	r9	;r3 As==01
    
    printf(startup_txt);
    
    while(1){
        
        if(UC0IFG & UCA0RXIFG){
    31b6:	5d 42 03 00 	mov.b	&0x0003,r13	
    31ba:	1d f3       	and	#1,	r13	;r3 As==01
    31bc:	f0 23       	jnz	$-30     	;abs 0x319e
            Cmd = UCA0RXBUF;        
        }
        
        switch(State){
    31be:	19 93       	cmp	#1,	r9	;r3 As==01
    31c0:	f2 23       	jnz	$-26     	;abs 0x31a6
                printf(showmenu_txt);
                State = IDLE;
            break;
            
            case IDLE:
                TBCCR1 = MIN_THROTTLE;
    31c2:	b2 40 d0 07 	mov	#2000,	&0x0194	;#0x07d0
    31c6:	94 01 
                switch(Cmd){                    
    31c8:	38 50 bf ff 	add	#-65,	r8	;#0xffbf
    31cc:	04 98       	cmp	r8,	r4	
    31ce:	3e 2c       	jc	$+126    	;abs 0x324c
                    break;
                    case NONE:
                    case STOP:
                    break;
                }   
                Cmd = NONE;
    31d0:	38 40 48 00 	mov	#72,	r8	;#0x0048
    31d4:	e0 3f       	jmp	$-62     	;abs 0x3196
        
        if(UC0IFG & UCA0RXIFG){
            Cmd = UCA0RXBUF;        
        }
        
        switch(State){
    31d6:	29 93       	cmp	#2,	r9	;r3 As==10
    31d8:	de 23       	jnz	$-66     	;abs 0x3196
                }   
                Cmd = NONE;
            break;
                        
            case TESTING:
                switch(Cmd){
    31da:	38 90 42 00 	cmp	#66,	r8	;#0x0042
    31de:	01 20       	jnz	$+4      	;abs 0x31e2
                    case STOP:
                        State = SHOW_MENU;
    31e0:	09 43       	clr	r9		
                    case SAVE_PARAMS:
                    case NONE:
                    break;
                }

                analog_refresh_all();
    31e2:	b0 12 ca 3d 	call	#0x3dca	
                                
                ValorBalanca = 9 * ValorBalanca + (AnalogValue[LOAD_CELL_ACH] - AnalogOffset[LOAD_CELL_ACH]);
    31e6:	0d 47       	mov	r7,	r13	
    31e8:	0d 5d       	rla	r13		
    31ea:	0d 5d       	rla	r13		
    31ec:	0d 5d       	rla	r13		
    31ee:	0d 57       	add	r7,	r13	
    31f0:	1c 42 30 11 	mov	&0x1130,r12	
    31f4:	1c 82 20 11 	sub	&0x1120,r12	
                ValorBalanca /= 10;
    31f8:	0c 5d       	add	r13,	r12	
    31fa:	3a 40 0a 00 	mov	#10,	r10	;#0x000a
    31fe:	b0 12 28 43 	call	#0x4328	
    3202:	07 4c       	mov	r12,	r7	
                
                if(get_delay(DELAY_MOTOR_INC)){
    3204:	0f 43       	clr	r15		
    3206:	b0 12 00 37 	call	#0x3700	
    320a:	4f 93       	tst.b	r15		
    320c:	c4 27       	jz	$-118    	;abs 0x3196
                    set_delay(DELAY_MOTOR_INC, MotorStab);
    320e:	0e 45       	mov	r5,	r14	
    3210:	0f 43       	clr	r15		
    3212:	b0 12 f8 36 	call	#0x36f8	
                    if(TBCCR1 == 4000){
    3216:	b2 90 a0 0f 	cmp	#4000,	&0x0194	;#0x0fa0
    321a:	94 01 
    321c:	7f 24       	jz	$+256    	;abs 0x331c
                        State = SHOW_MENU;
                    }

                    send_data(ValorBalanca); // envia os dados antes de aumentar a rotacao
    321e:	0f 47       	mov	r7,	r15	
    3220:	b0 12 4a 34 	call	#0x344a	
                    
                    TBCCR1 = constrain(TBCCR1 + MotorInc, 2000, 4000); // aumenta a rotacao
    3224:	0d 46       	mov	r6,	r13	
    3226:	1d 52 94 01 	add	&0x0194,r13	
    322a:	3f 40 cf 07 	mov	#1999,	r15	;#0x07cf
    322e:	0f 9d       	cmp	r13,	r15	
    3230:	72 2c       	jc	$+230    	;abs 0x3316
    3232:	0d 46       	mov	r6,	r13	
    3234:	1d 52 94 01 	add	&0x0194,r13	
    3238:	3f 50 d1 07 	add	#2001,	r15	;#0x07d1
    323c:	0f 9d       	cmp	r13,	r15	
    323e:	70 28       	jnc	$+226    	;abs 0x3320
    3240:	0f 46       	mov	r6,	r15	
    3242:	1f 52 94 01 	add	&0x0194,r15	
    3246:	82 4f 94 01 	mov	r15,	&0x0194	
    324a:	a5 3f       	jmp	$-180    	;abs 0x3196
                State = IDLE;
            break;
            
            case IDLE:
                TBCCR1 = MIN_THROTTLE;
                switch(Cmd){                    
    324c:	08 58       	rla	r8		
    324e:	10 48 d2 34 	br	13522(r8)	;0x34d2(r8)
                        MotorInc = constrain(MotorInc * 10, 10, 2000);
                        State = SHOW_MENU;
                    break;
                    
                    case SET_MOTOR_STAB:     
                        printf(motor_stab_txt);               
    3252:	12 12 00 11 	push	&0x1100	
    3256:	b0 12 92 3e 	call	#0x3e92	
    325a:	21 53       	incd	r1		
                        while(!(UC0IFG & UCA0RXIFG));
    325c:	5f 42 03 00 	mov.b	&0x0003,r15	
    3260:	1f f3       	and	#1,	r15	;r3 As==01
    3262:	fc 27       	jz	$-6      	;abs 0x325c
                        MotorStab = UCA0RXBUF;        
                        MotorStab = constrain(MotorStab * 10, 50, 1000);
    3264:	5e 42 66 00 	mov.b	&0x0066,r14	
    3268:	05 4e       	mov	r14,	r5	
    326a:	05 55       	rla	r5		
    326c:	05 55       	rla	r5		
    326e:	0e 5e       	rla	r14		
    3270:	05 5e       	add	r14,	r5	
    3272:	05 5e       	add	r14,	r5	
    3274:	05 5e       	add	r14,	r5	
    3276:	3f 40 31 00 	mov	#49,	r15	;#0x0031
    327a:	0f 95       	cmp	r5,	r15	
    327c:	54 2c       	jc	$+170    	;abs 0x3326
    327e:	3f 50 b7 03 	add	#951,	r15	;#0x03b7
    3282:	0f 95       	cmp	r5,	r15	
    3284:	01 2c       	jc	$+4      	;abs 0x3288
    3286:	05 4f       	mov	r15,	r5	
                    break;
                    case NONE:
                    case STOP:
                    break;
                }   
                Cmd = NONE;
    3288:	38 40 48 00 	mov	#72,	r8	;#0x0048
                            printf(params_saved_txt);
                        }
                        else{
                            // diz q deu erro
                        }
                        State = SHOW_MENU;
    328c:	09 43       	clr	r9		
    328e:	83 3f       	jmp	$-248    	;abs 0x3196
                        calibrate_esc();
                        State = SHOW_MENU;
                    break;
                                  
                    case SET_MOTOR_INC:
                        printf(motor_inc_txt);
    3290:	12 12 02 11 	push	&0x1102	
    3294:	b0 12 92 3e 	call	#0x3e92	
    3298:	21 53       	incd	r1		
                        while(!(UC0IFG & UCA0RXIFG));
    329a:	5f 42 03 00 	mov.b	&0x0003,r15	
    329e:	1f f3       	and	#1,	r15	;r3 As==01
    32a0:	fc 27       	jz	$-6      	;abs 0x329a
                        MotorInc = UCA0RXBUF;        
                        MotorInc = constrain(MotorInc * 10, 10, 2000);
    32a2:	5d 42 66 00 	mov.b	&0x0066,r13	
    32a6:	06 4d       	mov	r13,	r6	
    32a8:	06 56       	rla	r6		
    32aa:	06 56       	rla	r6		
    32ac:	0d 5d       	rla	r13		
    32ae:	06 5d       	add	r13,	r6	
    32b0:	06 5d       	add	r13,	r6	
    32b2:	06 5d       	add	r13,	r6	
    32b4:	3f 40 09 00 	mov	#9,	r15	;#0x0009
    32b8:	0f 96       	cmp	r6,	r15	
    32ba:	3b 2c       	jc	$+120    	;abs 0x3332
    32bc:	3f 50 c7 07 	add	#1991,	r15	;#0x07c7
    32c0:	0f 96       	cmp	r6,	r15	
    32c2:	e2 2f       	jc	$-58     	;abs 0x3288
    32c4:	06 4f       	mov	r15,	r6	
    32c6:	e0 3f       	jmp	$-62     	;abs 0x3288
                        }
                        State = SHOW_MENU;
                    break;
                    
                    case CALIBRATE_ESC:
                        printf(calibrate_esc_txt);
    32c8:	12 12 06 11 	push	&0x1106	
    32cc:	b0 12 92 3e 	call	#0x3e92	
    32d0:	21 53       	incd	r1		
                    break;
                    case NONE:
                    case STOP:
                    break;
                }   
                Cmd = NONE;
    32d2:	38 40 48 00 	mov	#72,	r8	;#0x0048
                    break;
                    
                    case CALIBRATE_ESC:
                        printf(calibrate_esc_txt);
                        calibrate_esc();
                        State = SHOW_MENU;
    32d6:	09 43       	clr	r9		
                    break;
    32d8:	5e 3f       	jmp	$-322    	;abs 0x3196
            
            case IDLE:
                TBCCR1 = MIN_THROTTLE;
                switch(Cmd){                    
                    case START:     
                        printf(testing_txt);   
    32da:	12 12 04 11 	push	&0x1104	
    32de:	b0 12 92 3e 	call	#0x3e92	
    32e2:	21 53       	incd	r1		
                    break;
                    case NONE:
                    case STOP:
                    break;
                }   
                Cmd = NONE;
    32e4:	38 40 48 00 	mov	#72,	r8	;#0x0048
            case IDLE:
                TBCCR1 = MIN_THROTTLE;
                switch(Cmd){                    
                    case START:     
                        printf(testing_txt);   
                        State = TESTING;              
    32e8:	29 43       	mov	#2,	r9	;r3 As==10
                    break;
    32ea:	55 3f       	jmp	$-340    	;abs 0x3196
                State = IDLE;
            break;
            
            case IDLE:
                TBCCR1 = MIN_THROTTLE;
                switch(Cmd){                    
    32ec:	0b 43       	clr	r11		
                        State = TESTING;              
                    break;

                    case CALIBRATE_ANALOG:
                        for(GPCounter = 0; GPCounter < 8; GPCounter++){
                            analog_calibrate_channel(GPCounter);
    32ee:	0f 4b       	mov	r11,	r15	
    32f0:	b0 12 58 3d 	call	#0x3d58	
                        printf(testing_txt);   
                        State = TESTING;              
                    break;

                    case CALIBRATE_ANALOG:
                        for(GPCounter = 0; GPCounter < 8; GPCounter++){
    32f4:	1b 53       	inc	r11		
    32f6:	3b 92       	cmp	#8,	r11	;r2 As==11
    32f8:	fa 23       	jnz	$-10     	;abs 0x32ee
    32fa:	c6 3f       	jmp	$-114    	;abs 0x3288
                        MotorStab = constrain(MotorStab * 10, 50, 1000);
                        State = SHOW_MENU;
                    break;

                    case SAVE_PARAMS:
                        if(save_params()){
    32fc:	b0 12 f6 33 	call	#0x33f6	
    3300:	4f 93       	tst.b	r15		
    3302:	c2 27       	jz	$-122    	;abs 0x3288
                            printf(params_saved_txt);
    3304:	12 12 10 11 	push	&0x1110	
    3308:	b0 12 92 3e 	call	#0x3e92	
    330c:	21 53       	incd	r1		
                    break;
                    case NONE:
                    case STOP:
                    break;
                }   
                Cmd = NONE;
    330e:	38 40 48 00 	mov	#72,	r8	;#0x0048
                            printf(params_saved_txt);
                        }
                        else{
                            // diz q deu erro
                        }
                        State = SHOW_MENU;
    3312:	09 43       	clr	r9		
    3314:	40 3f       	jmp	$-382    	;abs 0x3196
                        State = SHOW_MENU;
                    }

                    send_data(ValorBalanca); // envia os dados antes de aumentar a rotacao
                    
                    TBCCR1 = constrain(TBCCR1 + MotorInc, 2000, 4000); // aumenta a rotacao
    3316:	3f 40 d0 07 	mov	#2000,	r15	;#0x07d0
    331a:	95 3f       	jmp	$-212    	;abs 0x3246
                ValorBalanca /= 10;
                
                if(get_delay(DELAY_MOTOR_INC)){
                    set_delay(DELAY_MOTOR_INC, MotorStab);
                    if(TBCCR1 == 4000){
                        State = SHOW_MENU;
    331c:	09 43       	clr	r9		
    331e:	7f 3f       	jmp	$-256    	;abs 0x321e
                    }

                    send_data(ValorBalanca); // envia os dados antes de aumentar a rotacao
                    
                    TBCCR1 = constrain(TBCCR1 + MotorInc, 2000, 4000); // aumenta a rotacao
    3320:	3f 40 a0 0f 	mov	#4000,	r15	;#0x0fa0
    3324:	90 3f       	jmp	$-222    	;abs 0x3246
                    break;
                    case NONE:
                    case STOP:
                    break;
                }   
                Cmd = NONE;
    3326:	38 40 48 00 	mov	#72,	r8	;#0x0048
                    case SET_MOTOR_STAB:     
                        printf(motor_stab_txt);               
                        while(!(UC0IFG & UCA0RXIFG));
                        MotorStab = UCA0RXBUF;        
                        MotorStab = constrain(MotorStab * 10, 50, 1000);
                        State = SHOW_MENU;
    332a:	09 43       	clr	r9		
                    
                    case SET_MOTOR_STAB:     
                        printf(motor_stab_txt);               
                        while(!(UC0IFG & UCA0RXIFG));
                        MotorStab = UCA0RXBUF;        
                        MotorStab = constrain(MotorStab * 10, 50, 1000);
    332c:	35 40 32 00 	mov	#50,	r5	;#0x0032
    3330:	32 3f       	jmp	$-410    	;abs 0x3196
                    break;
                    case NONE:
                    case STOP:
                    break;
                }   
                Cmd = NONE;
    3332:	38 40 48 00 	mov	#72,	r8	;#0x0048
                    case SET_MOTOR_INC:
                        printf(motor_inc_txt);
                        while(!(UC0IFG & UCA0RXIFG));
                        MotorInc = UCA0RXBUF;        
                        MotorInc = constrain(MotorInc * 10, 10, 2000);
                        State = SHOW_MENU;
    3336:	09 43       	clr	r9		
                                  
                    case SET_MOTOR_INC:
                        printf(motor_inc_txt);
                        while(!(UC0IFG & UCA0RXIFG));
                        MotorInc = UCA0RXBUF;        
                        MotorInc = constrain(MotorInc * 10, 10, 2000);
    3338:	36 40 0a 00 	mov	#10,	r6	;#0x000a
    333c:	30 40 96 31 	br	#0x3196	

00003340 <__stop_progExec__>:
    3340:	32 d0 f0 00 	bis	#240,	r2	;#0x00f0
    3344:	fd 3f       	jmp	$-4      	;abs 0x3340

00003346 <__ctors_end>:
    3346:	30 40 a4 43 	br	#0x43a4	

0000334a <putchar>:
unsigned char load_params(void);
unsigned char save_params(void);

// printf na uart:
int putchar(int c){
    return (int)(UART_putchar((char)c));
    334a:	b0 12 82 3e 	call	#0x3e82	
}
    334e:	4f 4f       	mov.b	r15,	r15	
    3350:	30 41       	ret			
    3352:	46 55       	add.b	r5,	r6	
    3354:	43 4b       	.word	0x4b43;	????	Illegal as 2-op instr
    3356:	00 53       	add	#0,	r0	;r3 As==00
    3358:	55 43       	mov.b	#1,	r5	;r3 As==01
    335a:	4b 00       	rrcm.a	#1,	r11	
    335c:	65 65       	addc.b	@r5,	r5	
    335e:	70 72       	subc.b	#8,	r0	;r2 As==11
    3360:	6f 6d       	addc.b	@r13,	r15	
    3362:	20 30       	jn	$+66     	;abs 0x33a4
    3364:	78 30       	jn	$+242    	;abs 0x3456
    3366:	30 3a       	jl	$-926    	;abs 0x2fc8
    3368:	20 25       	jz	$+578    	;abs 0x35aa
    336a:	63 00 65 65 	mova	r0,	&0x36565
    336e:	70 72       	subc.b	#8,	r0	;r2 As==11
    3370:	6f 6d       	addc.b	@r13,	r15	
    3372:	20 30       	jn	$+66     	;abs 0x33b4
    3374:	78 30       	jn	$+242    	;abs 0x3466
    3376:	31 3a       	jl	$-924    	;abs 0x2fda
    3378:	20 25       	jz	$+578    	;abs 0x35ba
    337a:	63 00 21 83 	mova	r0,	&0x38321

0000337c <load_params>:
            break;
        }
    }
}

unsigned char load_params(void){
    337c:	21 83       	decd	r1		
    unsigned char c[1];
    printf(".");
    337e:	3f 40 2e 00 	mov	#46,	r15	;#0x002e
    3382:	b0 12 4a 33 	call	#0x334a	
    i2c_config(EEPROM_I2C_ADDR);
    3386:	7f 40 a6 ff 	mov.b	#-90,	r15	;#0xffa6
    338a:	b0 12 10 37 	call	#0x3710	
        printf(".");
    338e:	3f 40 2e 00 	mov	#46,	r15	;#0x002e
    3392:	b0 12 4a 33 	call	#0x334a	
    if(i2c_find_device(EEPROM_I2C_ADDR)){
    3396:	7f 40 a6 ff 	mov.b	#-90,	r15	;#0xffa6
    339a:	b0 12 28 3d 	call	#0x3d28	
    339e:	4f 93       	tst.b	r15		
    33a0:	24 20       	jnz	$+74     	;abs 0x33ea
        printf("FUCK");
    }
    else{
        printf("SUCK");
    33a2:	30 12 57 33 	push	#13143		;#0x3357
    33a6:	b0 12 92 3e 	call	#0x3e92	
    33aa:	21 53       	incd	r1		
    }
        printf(".");
    33ac:	3f 40 2e 00 	mov	#46,	r15	;#0x002e
    33b0:	b0 12 4a 33 	call	#0x334a	
    i2c_wread_two_data(0x00, 0x00, c);
    33b4:	0d 41       	mov	r1,	r13	
    33b6:	4e 43       	clr.b	r14		
    33b8:	4f 4e       	mov.b	r14,	r15	
    33ba:	b0 12 1e 3c 	call	#0x3c1e	
    printf("eeprom 0x00: %c", c[0]);
    33be:	6f 41       	mov.b	@r1,	r15	
    33c0:	0f 12       	push	r15		
    33c2:	30 12 5c 33 	push	#13148		;#0x335c
    33c6:	b0 12 92 3e 	call	#0x3e92	
    33ca:	21 52       	add	#4,	r1	;r2 As==10
    i2c_wread_two_data(0x00, 0x01, c);
    33cc:	0d 41       	mov	r1,	r13	
    33ce:	5e 43       	mov.b	#1,	r14	;r3 As==01
    33d0:	4f 43       	clr.b	r15		
    33d2:	b0 12 1e 3c 	call	#0x3c1e	
    printf("eeprom 0x01: %c", c[0]);
    33d6:	6f 41       	mov.b	@r1,	r15	
    33d8:	0f 12       	push	r15		
    33da:	30 12 6c 33 	push	#13164		;#0x336c
    33de:	b0 12 92 3e 	call	#0x3e92	
    return 1;
}
    33e2:	5f 43       	mov.b	#1,	r15	;r3 As==01
    33e4:	31 50 06 00 	add	#6,	r1	;#0x0006
    33e8:	30 41       	ret			
    unsigned char c[1];
    printf(".");
    i2c_config(EEPROM_I2C_ADDR);
        printf(".");
    if(i2c_find_device(EEPROM_I2C_ADDR)){
        printf("FUCK");
    33ea:	30 12 52 33 	push	#13138		;#0x3352
    33ee:	b0 12 92 3e 	call	#0x3e92	
    33f2:	21 53       	incd	r1		
    33f4:	db 3f       	jmp	$-72     	;abs 0x33ac

000033f6 <save_params>:
    return 1;
}

unsigned char save_params(void){
    // eeprom init
    i2c_config(EEPROM_I2C_ADDR);
    33f6:	7f 40 a6 ff 	mov.b	#-90,	r15	;#0xffa6
    33fa:	b0 12 10 37 	call	#0x3710	
    if(i2c_find_device(EEPROM_I2C_ADDR)){
    33fe:	7f 40 a6 ff 	mov.b	#-90,	r15	;#0xffa6
    3402:	b0 12 28 3d 	call	#0x3d28	
    3406:	4f 93       	tst.b	r15		
    3408:	0b 20       	jnz	$+24     	;abs 0x3420
        printf(eeprom_not_found_txt);
    }
    else{
        // teste
        i2c_write_one_data(0x00, 'A');
    340a:	7e 40 41 00 	mov.b	#65,	r14	;#0x0041
    340e:	b0 12 42 38 	call	#0x3842	
        i2c_write_one_data(0x01, 'B');
    3412:	7e 40 42 00 	mov.b	#66,	r14	;#0x0042
    3416:	5f 43       	mov.b	#1,	r15	;r3 As==01
    3418:	b0 12 42 38 	call	#0x3842	
    }
    return 1;
}
    341c:	5f 43       	mov.b	#1,	r15	;r3 As==01
    341e:	30 41       	ret			

unsigned char save_params(void){
    // eeprom init
    i2c_config(EEPROM_I2C_ADDR);
    if(i2c_find_device(EEPROM_I2C_ADDR)){
        printf(eeprom_not_found_txt);
    3420:	12 12 16 11 	push	&0x1116	
    3424:	b0 12 92 3e 	call	#0x3e92	
    3428:	21 53       	incd	r1		
        // teste
        i2c_write_one_data(0x00, 'A');
        i2c_write_one_data(0x01, 'B');
    }
    return 1;
}
    342a:	5f 43       	mov.b	#1,	r15	;r3 As==01
    342c:	30 41       	ret			

0000342e <clock_init>:

void clock_init(void){
    BCSCTL2 = SELM_0 + DIVM_0 + DIVS_0;
    342e:	c2 43 58 00 	mov.b	#0,	&0x0058	;r3 As==00
    DCOCTL = 0x77;      
    3432:	f2 40 77 00 	mov.b	#119,	&0x0056	;#0x0077
    3436:	56 00 
    BCSCTL1 = 0xCF;     
    3438:	f2 40 cf ff 	mov.b	#-49,	&0x0057	;#0xffcf
    343c:	57 00 
    BCSCTL3 = 0xA0;
    343e:	f2 40 a0 ff 	mov.b	#-96,	&0x0053	;#0xffa0
    3442:	53 00 
}
    3444:	30 41       	ret			
    3446:	25 64       	addc	@r4,	r5	
    3448:	20 00 0f 12 	bra	&0x0120f	

0000344a <send_data>:

void send_data(int valor){
    printf("%d ", valor);
    344a:	0f 12       	push	r15		
    344c:	30 12 46 34 	push	#13382		;#0x3446
    3450:	b0 12 92 3e 	call	#0x3e92	
    3454:	21 52       	add	#4,	r1	;r2 As==10
}
    3456:	30 41       	ret			

00003458 <calibrate_esc>:
    // set throttle 1 max
    // liga rele
    // espera 4s
    // throttle min
    // espera 4s
}
    3458:	30 41       	ret			

0000345a <timer_init>:
     * CM_0 -- No Capture
     * CCIS_0 -- CCIxA
     * OUTMOD_7 -- PWM output mode: 7 - PWM reset/set
     */

    TBCCTL1 = CM_0 + CCIS_0 + CLLD_0 + OUTMOD_7;
    345a:	b2 40 e0 00 	mov	#224,	&0x0184	;#0x00e0
    345e:	84 01 
    TBCCTL2 = CM_0 + CCIS_0 + CLLD_0 + OUTMOD_7;
    3460:	b2 40 e0 00 	mov	#224,	&0x0186	;#0x00e0
    3464:	86 01 
    TBCCTL3 = CM_0 + CCIS_0 + CLLD_0 + OUTMOD_7;
    3466:	b2 40 e0 00 	mov	#224,	&0x0188	;#0x00e0
    346a:	88 01 
    TBCCTL4 = CM_0 + CCIS_0 + CLLD_0 + OUTMOD_7;
    346c:	b2 40 e0 00 	mov	#224,	&0x018a	;#0x00e0
    3470:	8a 01 
    TBCCTL5 = CM_0 + CCIS_0 + CLLD_0 + OUTMOD_7;
    3472:	b2 40 e0 00 	mov	#224,	&0x018c	;#0x00e0
    3476:	8c 01 
    TBCCTL6 = CM_0 + CCIS_0 + CLLD_0 + OUTMOD_7;
    3478:	b2 40 e0 00 	mov	#224,	&0x018e	;#0x00e0
    347c:	8e 01 

    /* TBCCR0, Timer_B Capture/Compare Register 0 */
    TBCCR0 = 4512; // 2.5ms = 400hz
    347e:	b2 40 a0 11 	mov	#4512,	&0x0192	;#0x11a0
    3482:	92 01 

    /* TBCCR1, Timer_B Capture/Compare Register 1 */
    TBCCR1 = 0; 
    3484:	82 43 94 01 	mov	#0,	&0x0194	;r3 As==00
    TBCCR2 = 0; 
    3488:	82 43 96 01 	mov	#0,	&0x0196	;r3 As==00
    TBCCR3 = 0; 
    348c:	82 43 98 01 	mov	#0,	&0x0198	;r3 As==00
    TBCCR4 = 0; 
    3490:	82 43 9a 01 	mov	#0,	&0x019a	;r3 As==00
    TBCCR5 = 0; 
    3494:	82 43 9c 01 	mov	#0,	&0x019c	;r3 As==00
    TBCCR6 = 0; 
    3498:	82 43 9e 01 	mov	#0,	&0x019e	;r3 As==00
     * CNTL_0 -- 16-bit, TBR(max) = 0FFFFh
     * TBSSEL_1 -- ACLK
     * ID_3 -- Divider - /8
     * MC_1 -- Up Mode
     */
    TBCTL = TBCLGRP_0 + CNTL_0 + TBSSEL_1 + ID_3 + MC_1;
    349c:	b2 40 d0 01 	mov	#464,	&0x0180	;#0x01d0
    34a0:	80 01 
    
    /* configura saidas do timerB - P4.1 a P4.6*/
    P4SEL = 0x7E;
    34a2:	f2 40 7e 00 	mov.b	#126,	&0x001f	;#0x007e
    34a6:	1f 00 
    P4DIR = 0x7E;
    34a8:	f2 40 7e 00 	mov.b	#126,	&0x001e	;#0x007e
    34ac:	1e 00 
     * ~CAP -- Compare mode
     * OUTMOD_0 -- PWM output mode: 0 - OUT bit value
     * 
     * Note: ~<BIT> indicates that <BIT> has value zero
     */
    TACCTL0 = CM_0 + CCIS_0 + OUTMOD_0;
    34ae:	82 43 62 01 	mov	#0,	&0x0162	;r3 As==00

    /* TACCR0, Timer_A Capture/Compare Register 0 */
    TACCR0 = 4001; //2ms
    34b2:	b2 40 a1 0f 	mov	#4001,	&0x0172	;#0x0fa1
    34b6:	72 01 

    TACCTL1 = CM_0 + CCIS_0 + OUTMOD_7;
    34b8:	b2 40 e0 00 	mov	#224,	&0x0164	;#0x00e0
    34bc:	64 01 

    TACTL = TASSEL_1 + ID_3 + MC_1 + TAIE;
    34be:	b2 40 d2 01 	mov	#466,	&0x0160	;#0x01d2
    34c2:	60 01 
    TACCR1 = 0;
    34c4:	82 43 74 01 	mov	#0,	&0x0174	;r3 As==00

    P2SEL |= 0x08;
    34c8:	f2 d2 2e 00 	bis.b	#8,	&0x002e	;r2 As==11
    P2DIR |= 0x08;
    34cc:	f2 d2 2a 00 	bis.b	#8,	&0x002a	;r2 As==11
}
    34d0:	30 41       	ret			
    34d2:	da 32       	jn	$-586    	;abs 0x3288
    34d4:	d0 31       	jn	$+930    	;abs 0x3876
    34d6:	ec 32       	jn	$-550    	;abs 0x32b0
    34d8:	c8 32       	jn	$-622    	;abs 0x326a
    34da:	90 32       	jn	$-734    	;abs 0x31fc
    34dc:	52 32       	jn	$-858    	;abs 0x3182
    34de:	fc 32       	jn	$-518    	;abs 0x32d8

000034e0 <TIMERA1_ISR_HOOK>:

interrupt (TIMERA1_VECTOR) TIMERA1_ISR_HOOK(void){ // 1ms
    34e0:	0f 12       	push	r15		
    34e2:	0e 12       	push	r14		
    int i = TIMEDELAY_LEN;
    34e4:	3e 40 0f 00 	mov	#15,	r14	;#0x000f
 
    do{
        i--;
    34e8:	3e 53       	add	#-1,	r14	;r3 As==11
        if(TimeDelay[i] > 0){
    34ea:	0f 4e       	mov	r14,	r15	
    34ec:	0f 5f       	rla	r15		
    34ee:	3f 50 3a 11 	add	#4410,	r15	;#0x113a
    34f2:	8f 93 00 00 	tst	0(r15)		;0x0000(r15)
    34f6:	02 24       	jz	$+6      	;abs 0x34fc
            TimeDelay[i]--;
    34f8:	bf 53 00 00 	add	#-1,	0(r15)	;r3 As==11, 0x0000(r15)
        }
    }while(i);
    34fc:	0e 93       	tst	r14		
    34fe:	f4 23       	jnz	$-22     	;abs 0x34e8

    TACTL &= ~0x01;
    3500:	b2 f0 fe ff 	and	#-2,	&0x0160	;#0xfffe
    3504:	60 01 
}
    3506:	3e 41       	pop	r14		
    3508:	3f 41       	pop	r15		
    350a:	00 13       	reti			
    350c:	0a 0d       	mova	@r13,	r10	
    350e:	53 74       	.word	0x7453;	????	Illegal as 2-op instr
    3510:	61 62       	addc.b	#4,	r1	;r2 As==10
    3512:	2e 20       	jnz	$+94     	;abs 0x3570
    3514:	54 69 6d 65 	addc.b	25965(r9),r4	;0x656d(r9)
    3518:	3a 20       	jnz	$+118    	;abs 0x358e
    351a:	49 6e       	addc.b	r14,	r9	
    351c:	66 6f       	addc.b	@r15,	r6	
    351e:	72 6d       	addc.b	@r13+,	r2	
    3520:	65 20       	jnz	$+204    	;abs 0x35ec
    3522:	75 6d       	addc.b	@r13+,	r5	
    3524:	20 76       	subc	@r6,	r0	
    3526:	61 6c       	addc.b	@r12,	r1	
    3528:	6f 72       	subc.b	#4,	r15	;r2 As==10
    352a:	20 64       	addc	@r4,	r0	
    352c:	65 20       	jnz	$+204    	;abs 0x35f8
    352e:	31 20       	jnz	$+100    	;abs 0x3592
    3530:	61 20       	jnz	$+196    	;abs 0x35f4
    3532:	31 30       	jn	$+100    	;abs 0x3596
    3534:	30 3a       	jl	$-926    	;abs 0x3196
    3536:	20 00 0a 0d 	bra	&0x00d0a	
    353a:	49 6e       	addc.b	r14,	r9	
    353c:	63 72       	.word	0x7263;	????	Illegal as 2-op instr
    353e:	65 6d       	addc.b	@r13,	r5	
    3540:	65 6e       	addc.b	@r14,	r5	
    3542:	74 3a       	jl	$-790    	;abs 0x322c
    3544:	20 49       	br	@r9		
    3546:	6e 66       	addc.b	@r6,	r14	
    3548:	6f 72       	subc.b	#4,	r15	;r2 As==10
    354a:	6d 65       	addc.b	@r5,	r13	
    354c:	20 75       	subc	@r5,	r0	
    354e:	6d 20       	jnz	$+220    	;abs 0x362a
    3550:	76 61       	addc.b	@r1+,	r6	
    3552:	6c 6f       	addc.b	@r15,	r12	
    3554:	72 20       	jnz	$+230    	;abs 0x363a
    3556:	64 65       	addc.b	@r5,	r4	
    3558:	20 31       	jn	$+578    	;abs 0x379a
    355a:	20 61       	addc	@r1,	r0	
    355c:	20 32       	jn	$-958    	;abs 0x319e
    355e:	30 30       	jn	$+98     	;abs 0x35c0
    3560:	3a 20       	jnz	$+118    	;abs 0x35d6
    3562:	00 0a       	bra	@r10		
    3564:	0d 54       	add	r4,	r13	
    3566:	65 73       	subc.b	#2,	r5	;r3 As==10
    3568:	74 69       	addc.b	@r9+,	r4	
    356a:	6e 67       	addc.b	@r7,	r14	
    356c:	2e 2e       	jc	$-930    	;abs 0x31ca
    356e:	2e 00 0a 0d 	mova	&0x00d0a,r14	
    3572:	43 61       	.word	0x6143;	????	Illegal as 2-op instr
    3574:	6c 69       	addc.b	@r9,	r12	
    3576:	62 72       	subc.b	#4,	r2	;r2 As==10
    3578:	61 6e       	addc.b	@r14,	r1	
    357a:	64 6f       	addc.b	@r15,	r4	
    357c:	20 45       	br	@r5		
    357e:	53 43       	.word	0x4353;	????	Illegal as 2-op instr
    3580:	2e 2e       	jc	$-930    	;abs 0x31de
    3582:	2e 00 0a 0d 	mova	&0x00d0a,r14	
    3586:	43 61       	.word	0x6143;	????	Illegal as 2-op instr
    3588:	6c 69       	addc.b	@r9,	r12	
    358a:	62 72       	subc.b	#4,	r2	;r2 As==10
    358c:	61 6e       	addc.b	@r14,	r1	
    358e:	64 6f       	addc.b	@r15,	r4	
    3590:	20 43       	br	#2		;r3 As==10
    3592:	65 6c       	addc.b	@r12,	r5	
    3594:	75 6c       	addc.b	@r12+,	r5	
    3596:	61 20       	jnz	$+196    	;abs 0x365a
    3598:	64 65       	addc.b	@r5,	r4	
    359a:	20 63       	addc	#2,	r0	;r3 As==10
    359c:	61 72       	subc.b	#4,	r1	;r2 As==10
    359e:	67 61       	addc.b	@r1,	r7	
    35a0:	2e 2e       	jc	$-930    	;abs 0x31fe
    35a2:	2e 00 0a 0d 	mova	&0x00d0a,r14	
    35a6:	43 61       	.word	0x6143;	????	Illegal as 2-op instr
    35a8:	6c 69       	addc.b	@r9,	r12	
    35aa:	62 72       	subc.b	#4,	r2	;r2 As==10
    35ac:	61 6e       	addc.b	@r14,	r1	
    35ae:	64 6f       	addc.b	@r15,	r4	
    35b0:	20 53       	incd	r0		
    35b2:	65 6e       	addc.b	@r14,	r5	
    35b4:	73 6f       	.word	0x6f73;	????	Illegal as 2-op instr
    35b6:	72 20       	jnz	$+230    	;abs 0x369c
    35b8:	64 65       	addc.b	@r5,	r4	
    35ba:	20 63       	addc	#2,	r0	;r3 As==10
    35bc:	6f 72       	subc.b	#4,	r15	;r2 As==10
    35be:	72 65       	addc.b	@r5+,	r2	
    35c0:	6e 74       	subc.b	@r4,	r14	
    35c2:	65 2e       	jc	$-820    	;abs 0x328e
    35c4:	2e 2e       	jc	$-930    	;abs 0x3222
    35c6:	00 0a       	bra	@r10		
    35c8:	0d 43       	clr	r13		
    35ca:	61 6c       	addc.b	@r12,	r1	
    35cc:	69 62       	addc.b	#4,	r9	;r2 As==10
    35ce:	72 61       	addc.b	@r1+,	r2	
    35d0:	6e 64       	addc.b	@r4,	r14	
    35d2:	6f 20       	jnz	$+224    	;abs 0x36b2
    35d4:	53 65       	.word	0x6553;	????	Illegal as 2-op instr
    35d6:	6e 73       	subc.b	#2,	r14	;r3 As==10
    35d8:	6f 72       	subc.b	#4,	r15	;r2 As==10
    35da:	20 64       	addc	@r4,	r0	
    35dc:	65 20       	jnz	$+204    	;abs 0x36a8
    35de:	72 6f       	addc.b	@r15+,	r2	
    35e0:	74 61       	addc.b	@r1+,	r4	
    35e2:	63 61       	.word	0x6163;	????	Illegal as 2-op instr
    35e4:	6f 2e       	jc	$-800    	;abs 0x32c4
    35e6:	2e 2e       	jc	$-930    	;abs 0x3244
    35e8:	00 0a       	bra	@r10		
    35ea:	0d 4d       	mov	r13,	r13	
    35ec:	4f 54       	add.b	r4,	r15	
    35ee:	4f 52       	add.b	r2,	r15	
    35f0:	20 54       	add	@r4,	r0	
    35f2:	45 53       	add.b	#0,	r5	;r3 As==00
    35f4:	54 45 52 20 	mov.b	8274(r5),r4	;0x2052(r5)
    35f8:	62 79       	subc.b	@r9,	r2	
    35fa:	20 66       	addc	@r6,	r0	
    35fc:	6c 61       	addc.b	@r1,	r12	
    35fe:	76 69       	addc.b	@r9+,	r6	
    3600:	6f 68       	addc.b	@r8,	r15	
    3602:	70 6f       	addc.b	@r15+,	r0	
    3604:	20 61       	addc	@r1,	r0	
    3606:	6e 64       	addc.b	@r4,	r14	
    3608:	20 4a       	br	@r10		
    360a:	43 4c       	.word	0x4c43;	????	Illegal as 2-op instr
    360c:	69 6d       	addc.b	@r13,	r9	
    360e:	61 0a 0d 00 	mova	r10,	&0x1000d
    3612:	0a 0d       	mova	@r13,	r10	
    3614:	50 61 72 61 	addc.b	24946(r1),r0	;0x6172(r1)
    3618:	6d 65       	addc.b	@r5,	r13	
    361a:	74 72       	subc.b	#8,	r4	;r2 As==11
    361c:	6f 73       	subc.b	#2,	r15	;r3 As==10
    361e:	20 73       	subc	#2,	r0	;r3 As==10
    3620:	61 6c       	addc.b	@r12,	r1	
    3622:	76 6f       	addc.b	@r15+,	r6	
    3624:	73 2e       	jc	$-792    	;abs 0x330c
    3626:	2e 00 0a 0d 	mova	&0x00d0a,r14	
    362a:	50 61 72 61 	addc.b	24946(r1),r0	;0x6172(r1)
    362e:	6d 65       	addc.b	@r5,	r13	
    3630:	74 72       	subc.b	#8,	r4	;r2 As==11
    3632:	6f 73       	subc.b	#2,	r15	;r3 As==10
    3634:	20 6e       	addc	@r14,	r0	
    3636:	61 6f       	addc.b	@r15,	r1	
    3638:	20 66       	addc	@r6,	r0	
    363a:	6f 72       	subc.b	#4,	r15	;r2 As==10
    363c:	61 6d       	addc.b	@r13,	r1	
    363e:	20 73       	subc	#2,	r0	;r3 As==10
    3640:	61 6c       	addc.b	@r12,	r1	
    3642:	76 6f       	addc.b	@r15+,	r6	
    3644:	73 2e       	jc	$-792    	;abs 0x332c
    3646:	2e 00 0a 0d 	mova	&0x00d0a,r14	
    364a:	53 54       	.word	0x5453;	????	Illegal as 2-op instr
    364c:	41 52       	add.b	r2,	r1	
    364e:	54 3a       	jl	$-854    	;abs 0x32f8
    3650:	20 41       	br	@r1		
    3652:	0a 0d       	mova	@r13,	r10	
    3654:	43 41       	.word	0x4143;	????	Illegal as 2-op instr
    3656:	4c 49       	mov.b	r9,	r12	
    3658:	42 52       	rla.b	r2		
    365a:	41 54       	add.b	r4,	r1	
    365c:	45 20       	jnz	$+140    	;abs 0x36e8
    365e:	41 4e       	mov.b	r14,	r1	
    3660:	41 4c       	mov.b	r12,	r1	
    3662:	4f 47       	mov.b	r7,	r15	
    3664:	3a 20       	jnz	$+118    	;abs 0x36da
    3666:	43 0a       	rlam.a	#3,	#0	;r3 As==00
    3668:	0d 43       	clr	r13		
    366a:	41 4c       	mov.b	r12,	r1	
    366c:	49 42       	mov.b	r2,	r9	
    366e:	52 41 54 45 	mov.b	17748(r1),r2	;0x4554(r1)
    3672:	20 45       	br	@r5		
    3674:	53 43       	.word	0x4353;	????	Illegal as 2-op instr
    3676:	3a 20       	jnz	$+118    	;abs 0x36ec
    3678:	44 0a       	rlam.a	#3,	r4	
    367a:	0d 53       	add	#0,	r13	;r3 As==00
    367c:	45 54       	add.b	r4,	r5	
    367e:	20 4d       	br	@r13		
    3680:	4f 54       	add.b	r4,	r15	
    3682:	4f 52       	add.b	r2,	r15	
    3684:	20 49       	br	@r9		
    3686:	4e 43       	clr.b	r14		
    3688:	3a 20       	jnz	$+118    	;abs 0x36fe
    368a:	45 0a       	rlam.a	#3,	r5	
    368c:	0d 53       	add	#0,	r13	;r3 As==00
    368e:	45 54       	add.b	r4,	r5	
    3690:	20 4d       	br	@r13		
    3692:	4f 54       	add.b	r4,	r15	
    3694:	4f 52       	add.b	r2,	r15	
    3696:	20 53       	incd	r0		
    3698:	54 41 42 3a 	mov.b	14914(r1),r4	;0x3a42(r1)
    369c:	20 46       	br	@r6		
    369e:	0a 0d       	mova	@r13,	r10	
    36a0:	53 41       	.word	0x4153;	????	Illegal as 2-op instr
    36a2:	56 45 20 50 	mov.b	20512(r5),r6	;0x5020(r5)
    36a6:	41 52       	add.b	r2,	r1	
    36a8:	41 4d       	mov.b	r13,	r1	
    36aa:	53 3a       	jl	$-856    	;abs 0x3352
    36ac:	20 47       	br	@r7		
    36ae:	00 0a       	bra	@r10		
    36b0:	0d 45       	mov	r5,	r13	
    36b2:	45 50       	add.b	r0,	r5	
    36b4:	52 4f 4d 20 	mov.b	8269(r15),r2	;0x204d(r15)
    36b8:	6e 6f       	addc.b	@r15,	r14	
    36ba:	74 20       	jnz	$+234    	;abs 0x37a4
    36bc:	66 6f       	addc.b	@r15,	r6	
    36be:	75 6e       	addc.b	@r14+,	r5	
    36c0:	64 2e       	jc	$-822    	;abs 0x338a
	...

000036c4 <delay2us>:
{
  unsigned int tempo = 6;

  do (tempo--);
  while (tempo != 0);
}
    36c4:	30 41       	ret			

000036c6 <delay5us>:
{
  unsigned int tempo = 17;

  do (tempo--);
  while (tempo != 0);
}
    36c6:	30 41       	ret			

000036c8 <delayus>:
//
void delayus(unsigned int tempo)
{
  int i;
    
  for(i = 0; i < tempo; i++) nop();
    36c8:	0f 93       	tst	r15		
    36ca:	05 24       	jz	$+12     	;abs 0x36d6
    36cc:	0e 43       	clr	r14		
    36ce:	03 43       	nop			
    36d0:	1e 53       	inc	r14		
    36d2:	0e 9f       	cmp	r15,	r14	
    36d4:	fc 2b       	jnc	$-6      	;abs 0x36ce
    36d6:	30 41       	ret			

000036d8 <delayms>:
}

// Aproximadamente 1ms...
//
void delayms(unsigned int tempo)
{
    36d8:	0b 12       	push	r11		
    36da:	0a 12       	push	r10		
    36dc:	0a 4f       	mov	r15,	r10	
  int i;
    
  for(i = 0; i < tempo; i++) delayus(3420);
    36de:	0f 93       	tst	r15		
    36e0:	08 24       	jz	$+18     	;abs 0x36f2
    36e2:	0b 43       	clr	r11		
    36e4:	3f 40 5c 0d 	mov	#3420,	r15	;#0x0d5c
    36e8:	b0 12 c8 36 	call	#0x36c8	
    36ec:	1b 53       	inc	r11		
    36ee:	0b 9a       	cmp	r10,	r11	
    36f0:	f9 2b       	jnc	$-12     	;abs 0x36e4
}
    36f2:	3a 41       	pop	r10		
    36f4:	3b 41       	pop	r11		
    36f6:	30 41       	ret			

000036f8 <set_delay>:

void set_delay(DELAY_INDEX index, unsigned int time){
    TimeDelay[index]=time;
    36f8:	0f 5f       	rla	r15		
    36fa:	8f 4e 3a 11 	mov	r14,	4410(r15);0x113a(r15)
}
    36fe:	30 41       	ret			

00003700 <get_delay>:

unsigned char get_delay(DELAY_INDEX index){
    if(TimeDelay[index] == 0){
    3700:	0e 4f       	mov	r15,	r14	
    3702:	0e 5e       	rla	r14		
        return 1;
    3704:	5f 43       	mov.b	#1,	r15	;r3 As==01
    3706:	8e 93 3a 11 	tst	4410(r14)	;0x113a(r14)
    370a:	01 24       	jz	$+4      	;abs 0x370e
    370c:	4f 43       	clr.b	r15		
    }
    return 0;
}
    370e:	30 41       	ret			

00003710 <i2c_config>:
// **  I   C                                                     **
// **                                    (C) by JCLima, 2010/1   **
// **                                                            **
// ****************************************************************
//
#include "delay.h"
    3710:	f2 40 c1 ff 	mov.b	#-63,	&0x0069	;#0xffc1
    3714:	69 00 
#include "msp430f2618.h"
    3716:	f2 40 0f 00 	mov.b	#15,	&0x0068	;#0x000f
    371a:	68 00 
#include "i2c.h"

//
    371c:	f2 43 6a 00 	mov.b	#-1,	&0x006a	;r3 As==11
// ****************************************************************
    3720:	c2 43 6b 00 	mov.b	#0,	&0x006b	;r3 As==00
// ** V A R I A V E I S                                          **
// ****************************************************************
    3724:	f2 d0 06 00 	bis.b	#6,	&0x001b	;#0x0006
    3728:	1b 00 
//
    372a:	f2 f0 f9 ff 	and.b	#-7,	&0x001a	;#0xfff9
    372e:	1a 00 
 char i2c_slave_address = 0x3a;    

//
    3730:	12 c3       	clrc			
    3732:	4f 10       	rrc.b	r15		
    3734:	0e 4f       	mov	r15,	r14	
    3736:	3e f0 7f 00 	and	#127,	r14	;#0x007f
    373a:	82 4e 1a 01 	mov	r14,	&0x011a	
// ****************************************************************
    373e:	f2 40 c0 ff 	mov.b	#-64,	&0x0069	;#0xffc0
    3742:	69 00 
// ** P R I M I T I V A S                                        **
// ****************************************************************
//
    3744:	f2 d0 14 00 	bis.b	#20,	&0x0069	;#0x0014
    3748:	69 00 
void i2c_config( char slave_addr)
    374a:	5f 42 69 00 	mov.b	&0x0069,r15	
    374e:	2f f2       	and	#4,	r15	;r2 As==10
    3750:	fc 27       	jz	$-6      	;abs 0x374a
{
    3752:	30 41       	ret			

00003754 <i2c_change_slaveaddress>:
  i2c_init();
  i2c_slave_address = slave_addr;
}

    3754:	12 c3       	clrc			
    3756:	4f 10       	rrc.b	r15		
    3758:	0e 4f       	mov	r15,	r14	
    375a:	3e f0 7f 00 	and	#127,	r14	;#0x007f
    375e:	82 4e 1a 01 	mov	r14,	&0x011a	
void i2c_change_address( char slave_addr)
    3762:	30 41       	ret			

00003764 <i2c_start_tx>:
  i2c_slave_address = slave_addr;
}

void i2c_init(void)
{
  SDA_OUT();
    3764:	f2 d0 12 00 	bis.b	#18,	&0x0069	;#0x0012
    3768:	69 00 
  sda_on;
    376a:	5f 42 69 00 	mov.b	&0x0069,r15	
    376e:	2f f3       	and	#2,	r15	;r3 As==10
    3770:	fc 27       	jz	$-6      	;abs 0x376a
  scl_on;
    3772:	30 41       	ret			

00003774 <i2c_start_rx>:
}

void i2c_start(void)
{
  sda_on;
  delay5us();
    3774:	f2 f0 ef ff 	and.b	#-17,	&0x0069	;#0xffef
    3778:	69 00 
  scl_on;
    377a:	e2 d3 69 00 	bis.b	#2,	&0x0069	;r3 As==10
  delay5us();
    377e:	5f 42 69 00 	mov.b	&0x0069,r15	
    3782:	2f f3       	and	#2,	r15	;r3 As==10
    3784:	fc 27       	jz	$-6      	;abs 0x377e

    3786:	30 41       	ret			

00003788 <i2c_stop_tx>:
  sda_off;
  delay5us();
  scl_off;
  delay5us();
}

    3788:	f2 d0 14 00 	bis.b	#20,	&0x0069	;#0x0014
    378c:	69 00 
void i2c_stop(void)
    378e:	5f 42 69 00 	mov.b	&0x0069,r15	
    3792:	2f f2       	and	#4,	r15	;r2 As==10
    3794:	fc 27       	jz	$-6      	;abs 0x378e
{
    3796:	30 41       	ret			

00003798 <i2c_stop_rx>:
  sda_off;
  delay5us();
  scl_on;
  delay5us();
  sda_on;
  delay5us();
    3798:	f2 f0 ef ff 	and.b	#-17,	&0x0069	;#0xffef
    379c:	69 00 
}
    379e:	e2 d2 69 00 	bis.b	#4,	&0x0069	;r2 As==10

    37a2:	5f 42 69 00 	mov.b	&0x0069,r15	
    37a6:	2f f2       	and	#4,	r15	;r2 As==10
    37a8:	fc 27       	jz	$-6      	;abs 0x37a2
 char i2c_recv_ack(void)
    37aa:	30 41       	ret			

000037ac <i2c_test>:
{
   char i;

  SDA_IN();
  delay5us();
  scl_on;
    37ac:	5f 42 6d 00 	mov.b	&0x006d,r15	
    37b0:	3f f0 10 00 	and	#16,	r15	;#0x0010
    37b4:	fb 23       	jnz	$-8      	;abs 0x37ac
  delay5us();
  if(sda_test) i=1; else i=0;
    37b6:	5f 42 6d 00 	mov.b	&0x006d,r15	
    37ba:	7f f2       	and.b	#8,	r15	;r2 As==11
    37bc:	30 41       	ret			

000037be <i2c_send>:
  delay5us();
  scl_off;
  delay5us();
  SDA_OUT();

  return i;
    37be:	c2 4f 6f 00 	mov.b	r15,	&0x006f	
}

    37c2:	5f 42 03 00 	mov.b	&0x0003,r15	
    37c6:	3f f2       	and	#8,	r15	;r2 As==11
    37c8:	fc 27       	jz	$-6      	;abs 0x37c2
void i2c_send_ack( char confirmation)
{
  SDA_OUT();
    37ca:	5f 42 6d 00 	mov.b	&0x006d,r15	
    37ce:	7f f2       	and.b	#8,	r15	;r2 As==11
    37d0:	30 41       	ret			

000037d2 <i2c_write_dummy>:
  i2c_slave_address = slave_addr;
}

void i2c_init(void)
{
  SDA_OUT();
    37d2:	f2 d0 12 00 	bis.b	#18,	&0x0069	;#0x0012
    37d6:	69 00 
  sda_on;
    37d8:	5f 42 69 00 	mov.b	&0x0069,r15	
    37dc:	2f f3       	and	#2,	r15	;r3 As==10
    37de:	fc 27       	jz	$-6      	;abs 0x37d8
  sda_off;
  delay5us();
  scl_off;
  delay5us();
}

    37e0:	f2 d0 14 00 	bis.b	#20,	&0x0069	;#0x0014
    37e4:	69 00 
void i2c_stop(void)
    37e6:	5f 42 69 00 	mov.b	&0x0069,r15	
    37ea:	2f f2       	and	#4,	r15	;r2 As==10
    37ec:	fc 27       	jz	$-6      	;abs 0x37e6
{
   char i;

  SDA_IN();
  delay5us();
  scl_on;
    37ee:	5f 42 6d 00 	mov.b	&0x006d,r15	
    37f2:	3f f0 10 00 	and	#16,	r15	;#0x0010
    37f6:	fb 23       	jnz	$-8      	;abs 0x37ee
  sda_off;
}

void i2c_bwrite( char b)
{
   char mask = 0x80;
    37f8:	5f 42 6d 00 	mov.b	&0x006d,r15	
    37fc:	7f f2       	and.b	#8,	r15	;r2 As==11
    37fe:	30 41       	ret			

00003800 <i2c_write_one>:
  i2c_slave_address = slave_addr;
}

void i2c_init(void)
{
  SDA_OUT();
    3800:	f2 d0 12 00 	bis.b	#18,	&0x0069	;#0x0012
    3804:	69 00 
  sda_on;
    3806:	5e 42 69 00 	mov.b	&0x0069,r14	
    380a:	2e f3       	and	#2,	r14	;r3 As==10
    380c:	fc 27       	jz	$-6      	;abs 0x3806
  delay5us();
  scl_off;
  delay5us();
  SDA_OUT();

  return i;
    380e:	c2 4f 6f 00 	mov.b	r15,	&0x006f	
}

    3812:	5f 42 03 00 	mov.b	&0x0003,r15	
    3816:	3f f2       	and	#8,	r15	;r2 As==11
    3818:	fc 27       	jz	$-6      	;abs 0x3812
void i2c_send_ack( char confirmation)
{
    381a:	5f 42 6d 00 	mov.b	&0x006d,r15	
    381e:	7f f2       	and.b	#8,	r15	;r2 As==11
  sda_off;
  delay5us();
  scl_off;
  delay5us();
}

    3820:	f2 d0 14 00 	bis.b	#20,	&0x0069	;#0x0014
    3824:	69 00 
void i2c_stop(void)
    3826:	5e 42 69 00 	mov.b	&0x0069,r14	
    382a:	2e f2       	and	#4,	r14	;r2 As==10
    382c:	fc 27       	jz	$-6      	;abs 0x3826
{
   char i;

  SDA_IN();
  delay5us();
  scl_on;
    382e:	5e 42 6d 00 	mov.b	&0x006d,r14	
    3832:	3e f0 10 00 	and	#16,	r14	;#0x0010
    3836:	fb 23       	jnz	$-8      	;abs 0x382e
  delay5us();
    3838:	5e 42 6d 00 	mov.b	&0x006d,r14	
    383c:	7e f2       	and.b	#8,	r14	;r2 As==11
    delay5us();
    scl_on;
    delay5us();
    scl_off;
    delay5us();
    mask >>= 1;
    383e:	4f 5e       	add.b	r14,	r15	
    3840:	30 41       	ret			

00003842 <i2c_write_one_data>:
  i2c_slave_address = slave_addr;
}

void i2c_init(void)
{
  SDA_OUT();
    3842:	f2 d0 12 00 	bis.b	#18,	&0x0069	;#0x0012
    3846:	69 00 
  sda_on;
    3848:	5d 42 69 00 	mov.b	&0x0069,r13	
    384c:	2d f3       	and	#2,	r13	;r3 As==10
    384e:	fc 27       	jz	$-6      	;abs 0x3848
  delay5us();
  scl_off;
  delay5us();
  SDA_OUT();

  return i;
    3850:	c2 4f 6f 00 	mov.b	r15,	&0x006f	
}

    3854:	5f 42 03 00 	mov.b	&0x0003,r15	
    3858:	3f f2       	and	#8,	r15	;r2 As==11
    385a:	fc 27       	jz	$-6      	;abs 0x3854
void i2c_send_ack( char confirmation)
{
    385c:	5d 42 6d 00 	mov.b	&0x006d,r13	
    3860:	7d f2       	and.b	#8,	r13	;r2 As==11
  delay5us();
  scl_off;
  delay5us();
  SDA_OUT();

  return i;
    3862:	c2 4e 6f 00 	mov.b	r14,	&0x006f	
}

    3866:	5f 42 03 00 	mov.b	&0x0003,r15	
    386a:	3f f2       	and	#8,	r15	;r2 As==11
    386c:	fc 27       	jz	$-6      	;abs 0x3866
void i2c_send_ack( char confirmation)
{
    386e:	5f 42 6d 00 	mov.b	&0x006d,r15	
    3872:	7f f2       	and.b	#8,	r15	;r2 As==11

 char i2c_bread(void)
{
   char i;
   char bin = 0;

    3874:	4f 5d       	add.b	r13,	r15	
  sda_off;
  delay5us();
  scl_off;
  delay5us();
}

    3876:	f2 d0 14 00 	bis.b	#20,	&0x0069	;#0x0014
    387a:	69 00 
void i2c_stop(void)
    387c:	5e 42 69 00 	mov.b	&0x0069,r14	
    3880:	2e f2       	and	#4,	r14	;r2 As==10
    3882:	fc 27       	jz	$-6      	;abs 0x387c
{
   char i;

  SDA_IN();
  delay5us();
  scl_on;
    3884:	5e 42 6d 00 	mov.b	&0x006d,r14	
    3888:	3e f0 10 00 	and	#16,	r14	;#0x0010
    388c:	fb 23       	jnz	$-8      	;abs 0x3884
  delay5us();
    388e:	5e 42 6d 00 	mov.b	&0x006d,r14	
    3892:	7e f2       	and.b	#8,	r14	;r2 As==11

  SDA_IN();
  for (i=0; i<8; i++)
  {
    bin <<= 1;
    scl_on;
    3894:	4f 5e       	add.b	r14,	r15	
    3896:	30 41       	ret			

00003898 <i2c_write_one_buffer>:
    delay5us();
    if (sda_test) bin += 1;
    delay5us();
    3898:	0b 12       	push	r11		
  i2c_slave_address = slave_addr;
}

void i2c_init(void)
{
  SDA_OUT();
    389a:	f2 d0 12 00 	bis.b	#18,	&0x0069	;#0x0012
    389e:	69 00 
  sda_on;
    38a0:	5c 42 69 00 	mov.b	&0x0069,r12	
    38a4:	2c f3       	and	#2,	r12	;r3 As==10
    38a6:	fc 27       	jz	$-6      	;abs 0x38a0
  delay5us();
  scl_off;
  delay5us();
  SDA_OUT();

  return i;
    38a8:	c2 4f 6f 00 	mov.b	r15,	&0x006f	
}

    38ac:	5f 42 03 00 	mov.b	&0x0003,r15	
    38b0:	3f f2       	and	#8,	r15	;r2 As==11
    38b2:	fc 27       	jz	$-6      	;abs 0x38ac
void i2c_send_ack( char confirmation)
{
    38b4:	5f 42 6d 00 	mov.b	&0x006d,r15	
    38b8:	7f f2       	and.b	#8,	r15	;r2 As==11
    delay5us();
    scl_off;
    delay5us();
  }

  return bin;
    38ba:	12 20       	jnz	$+38     	;abs 0x38e0
    38bc:	4d 9f       	cmp.b	r15,	r13	
    38be:	10 24       	jz	$+34     	;abs 0x38e0
    38c0:	0c 4e       	mov	r14,	r12	
  delay5us();
  scl_off;
  delay5us();
  SDA_OUT();

  return i;
    38c2:	e2 4c 6f 00 	mov.b	@r12,	&0x006f	
}

    38c6:	5f 42 03 00 	mov.b	&0x0003,r15	
    38ca:	3f f2       	and	#8,	r15	;r2 As==11
    38cc:	fc 27       	jz	$-6      	;abs 0x38c6
void i2c_send_ack( char confirmation)
{
    38ce:	5f 42 6d 00 	mov.b	&0x006d,r15	
    38d2:	7f f2       	and.b	#8,	r15	;r2 As==11
    delay5us();
    scl_off;
    delay5us();
  }

  return bin;
    38d4:	05 20       	jnz	$+12     	;abs 0x38e0
    38d6:	1c 53       	inc	r12		
    38d8:	4b 4c       	mov.b	r12,	r11	
    38da:	4b 8e       	sub.b	r14,	r11	
    38dc:	4b 9d       	cmp.b	r13,	r11	
    38de:	f1 2b       	jnc	$-28     	;abs 0x38c2
  sda_off;
  delay5us();
  scl_off;
  delay5us();
}

    38e0:	f2 d0 14 00 	bis.b	#20,	&0x0069	;#0x0014
    38e4:	69 00 
void i2c_stop(void)
    38e6:	5e 42 69 00 	mov.b	&0x0069,r14	
    38ea:	2e f2       	and	#4,	r14	;r2 As==10
    38ec:	fc 27       	jz	$-6      	;abs 0x38e6
{
   char i;

  SDA_IN();
  delay5us();
  scl_on;
    38ee:	5e 42 6d 00 	mov.b	&0x006d,r14	
    38f2:	3e f0 10 00 	and	#16,	r14	;#0x0010
    38f6:	fb 23       	jnz	$-8      	;abs 0x38ee
  delay5us();
    38f8:	5e 42 6d 00 	mov.b	&0x006d,r14	
    38fc:	7e f2       	and.b	#8,	r14	;r2 As==11
}

//
// ****************************************************************
// ** F U N   E S  D E R I V A D A S                           **
// ****************************************************************
    38fe:	4f 5e       	add.b	r14,	r15	
    3900:	3b 41       	pop	r11		
    3902:	30 41       	ret			

00003904 <i2c_write_two>:
  i2c_slave_address = slave_addr;
}

void i2c_init(void)
{
  SDA_OUT();
    3904:	f2 d0 12 00 	bis.b	#18,	&0x0069	;#0x0012
    3908:	69 00 
  sda_on;
    390a:	5d 42 69 00 	mov.b	&0x0069,r13	
    390e:	2d f3       	and	#2,	r13	;r3 As==10
    3910:	fc 27       	jz	$-6      	;abs 0x390a
  delay5us();
  scl_off;
  delay5us();
  SDA_OUT();

  return i;
    3912:	c2 4f 6f 00 	mov.b	r15,	&0x006f	
}

    3916:	5f 42 03 00 	mov.b	&0x0003,r15	
    391a:	3f f2       	and	#8,	r15	;r2 As==11
    391c:	fc 27       	jz	$-6      	;abs 0x3916
void i2c_send_ack( char confirmation)
{
    391e:	5d 42 6d 00 	mov.b	&0x006d,r13	
    3922:	7d f2       	and.b	#8,	r13	;r2 As==11
  delay5us();
  scl_off;
  delay5us();
  SDA_OUT();

  return i;
    3924:	c2 4e 6f 00 	mov.b	r14,	&0x006f	
}

    3928:	5f 42 03 00 	mov.b	&0x0003,r15	
    392c:	3f f2       	and	#8,	r15	;r2 As==11
    392e:	fc 27       	jz	$-6      	;abs 0x3928
void i2c_send_ack( char confirmation)
{
    3930:	5f 42 6d 00 	mov.b	&0x006d,r15	
    3934:	7f f2       	and.b	#8,	r15	;r2 As==11
{
   char status = 0;

  i2c_start();
  i2c_bwrite(i2c_slave_address);
  status = i2c_recv_ack();
    3936:	4f 5d       	add.b	r13,	r15	
  sda_off;
  delay5us();
  scl_off;
  delay5us();
}

    3938:	f2 d0 14 00 	bis.b	#20,	&0x0069	;#0x0014
    393c:	69 00 
void i2c_stop(void)
    393e:	5e 42 69 00 	mov.b	&0x0069,r14	
    3942:	2e f2       	and	#4,	r14	;r2 As==10
    3944:	fc 27       	jz	$-6      	;abs 0x393e
{
   char i;

  SDA_IN();
  delay5us();
  scl_on;
    3946:	5e 42 6d 00 	mov.b	&0x006d,r14	
    394a:	3e f0 10 00 	and	#16,	r14	;#0x0010
    394e:	fb 23       	jnz	$-8      	;abs 0x3946
  delay5us();
    3950:	5e 42 6d 00 	mov.b	&0x006d,r14	
    3954:	7e f2       	and.b	#8,	r14	;r2 As==11
  status = i2c_recv_ack();
  i2c_stop();

  return status;
}

    3956:	4f 5e       	add.b	r14,	r15	
    3958:	30 41       	ret			

0000395a <i2c_write_two_data>:
  i2c_slave_address = slave_addr;
}

void i2c_init(void)
{
  SDA_OUT();
    395a:	f2 d0 12 00 	bis.b	#18,	&0x0069	;#0x0012
    395e:	69 00 
  sda_on;
    3960:	5c 42 69 00 	mov.b	&0x0069,r12	
    3964:	2c f3       	and	#2,	r12	;r3 As==10
    3966:	fc 27       	jz	$-6      	;abs 0x3960
  delay5us();
  scl_off;
  delay5us();
  SDA_OUT();

  return i;
    3968:	c2 4f 6f 00 	mov.b	r15,	&0x006f	
}

    396c:	5f 42 03 00 	mov.b	&0x0003,r15	
    3970:	3f f2       	and	#8,	r15	;r2 As==11
    3972:	fc 27       	jz	$-6      	;abs 0x396c
void i2c_send_ack( char confirmation)
{
    3974:	5c 42 6d 00 	mov.b	&0x006d,r12	
    3978:	7c f2       	and.b	#8,	r12	;r2 As==11
  delay5us();
  scl_off;
  delay5us();
  SDA_OUT();

  return i;
    397a:	c2 4e 6f 00 	mov.b	r14,	&0x006f	
}

    397e:	5f 42 03 00 	mov.b	&0x0003,r15	
    3982:	3f f2       	and	#8,	r15	;r2 As==11
    3984:	fc 27       	jz	$-6      	;abs 0x397e
void i2c_send_ack( char confirmation)
{
    3986:	5e 42 6d 00 	mov.b	&0x006d,r14	
    398a:	7e f2       	and.b	#8,	r14	;r2 As==11
   char status = 0;

  i2c_start();
  i2c_bwrite(b);
  status = i2c_recv_ack();
  i2c_stop();
    398c:	4e 5c       	add.b	r12,	r14	
  delay5us();
  scl_off;
  delay5us();
  SDA_OUT();

  return i;
    398e:	c2 4d 6f 00 	mov.b	r13,	&0x006f	
}

    3992:	5f 42 03 00 	mov.b	&0x0003,r15	
    3996:	3f f2       	and	#8,	r15	;r2 As==11
    3998:	fc 27       	jz	$-6      	;abs 0x3992
void i2c_send_ack( char confirmation)
{
    399a:	5f 42 6d 00 	mov.b	&0x006d,r15	
    399e:	7f f2       	and.b	#8,	r15	;r2 As==11

  i2c_start();
  i2c_bwrite(b);
  status = i2c_recv_ack();
  i2c_stop();

    39a0:	4f 5e       	add.b	r14,	r15	
  sda_off;
  delay5us();
  scl_off;
  delay5us();
}

    39a2:	f2 d0 14 00 	bis.b	#20,	&0x0069	;#0x0014
    39a6:	69 00 
void i2c_stop(void)
    39a8:	5e 42 69 00 	mov.b	&0x0069,r14	
    39ac:	2e f2       	and	#4,	r14	;r2 As==10
    39ae:	fc 27       	jz	$-6      	;abs 0x39a8
{
   char i;

  SDA_IN();
  delay5us();
  scl_on;
    39b0:	5e 42 6d 00 	mov.b	&0x006d,r14	
    39b4:	3e f0 10 00 	and	#16,	r14	;#0x0010
    39b8:	fb 23       	jnz	$-8      	;abs 0x39b0
  delay5us();
    39ba:	5e 42 6d 00 	mov.b	&0x006d,r14	
    39be:	7e f2       	and.b	#8,	r14	;r2 As==11

  return status;
}

 char i2c_write_byte( char reg,  char dat)
{
    39c0:	4f 5e       	add.b	r14,	r15	
    39c2:	30 41       	ret			

000039c4 <i2c_write_two_buffer>:
   char status = 0;

  i2c_start();
    39c4:	0b 12       	push	r11		
  i2c_slave_address = slave_addr;
}

void i2c_init(void)
{
  SDA_OUT();
    39c6:	f2 d0 12 00 	bis.b	#18,	&0x0069	;#0x0012
    39ca:	69 00 
  sda_on;
    39cc:	5b 42 69 00 	mov.b	&0x0069,r11	
    39d0:	2b f3       	and	#2,	r11	;r3 As==10
    39d2:	fc 27       	jz	$-6      	;abs 0x39cc
  delay5us();
  scl_off;
  delay5us();
  SDA_OUT();

  return i;
    39d4:	c2 4f 6f 00 	mov.b	r15,	&0x006f	
}

    39d8:	5f 42 03 00 	mov.b	&0x0003,r15	
    39dc:	3f f2       	and	#8,	r15	;r2 As==11
    39de:	fc 27       	jz	$-6      	;abs 0x39d8
void i2c_send_ack( char confirmation)
{
    39e0:	5b 42 6d 00 	mov.b	&0x006d,r11	
    39e4:	7b f2       	and.b	#8,	r11	;r2 As==11
  delay5us();
  scl_off;
  delay5us();
  SDA_OUT();

  return i;
    39e6:	c2 4e 6f 00 	mov.b	r14,	&0x006f	
}

    39ea:	5f 42 03 00 	mov.b	&0x0003,r15	
    39ee:	3f f2       	and	#8,	r15	;r2 As==11
    39f0:	fc 27       	jz	$-6      	;abs 0x39ea
void i2c_send_ack( char confirmation)
{
    39f2:	5f 42 6d 00 	mov.b	&0x006d,r15	
    39f6:	7f f2       	and.b	#8,	r15	;r2 As==11
  i2c_start();
  i2c_bwrite(i2c_slave_address);
  status += i2c_recv_ack();
  i2c_bwrite(reg);
  status += i2c_recv_ack();
  i2c_bwrite(dat);
    39f8:	4f 5b       	add.b	r11,	r15	
  status += i2c_recv_ack();
    39fa:	12 20       	jnz	$+38     	;abs 0x3a20
    39fc:	4c 9f       	cmp.b	r15,	r12	
    39fe:	10 24       	jz	$+34     	;abs 0x3a20
    3a00:	0e 4d       	mov	r13,	r14	
  delay5us();
  scl_off;
  delay5us();
  SDA_OUT();

  return i;
    3a02:	e2 4e 6f 00 	mov.b	@r14,	&0x006f	
}

    3a06:	5f 42 03 00 	mov.b	&0x0003,r15	
    3a0a:	3f f2       	and	#8,	r15	;r2 As==11
    3a0c:	fc 27       	jz	$-6      	;abs 0x3a06
void i2c_send_ack( char confirmation)
{
    3a0e:	5f 42 6d 00 	mov.b	&0x006d,r15	
    3a12:	7f f2       	and.b	#8,	r15	;r2 As==11
  i2c_bwrite(i2c_slave_address);
  status += i2c_recv_ack();
  i2c_bwrite(reg);
  status += i2c_recv_ack();
  i2c_bwrite(dat);
  status += i2c_recv_ack();
    3a14:	05 20       	jnz	$+12     	;abs 0x3a20
    3a16:	1e 53       	inc	r14		
    3a18:	4b 4e       	mov.b	r14,	r11	
    3a1a:	4b 8d       	sub.b	r13,	r11	
    3a1c:	4b 9c       	cmp.b	r12,	r11	
    3a1e:	f1 2b       	jnc	$-28     	;abs 0x3a02
  sda_off;
  delay5us();
  scl_off;
  delay5us();
}

    3a20:	f2 d0 14 00 	bis.b	#20,	&0x0069	;#0x0014
    3a24:	69 00 
void i2c_stop(void)
    3a26:	5e 42 69 00 	mov.b	&0x0069,r14	
    3a2a:	2e f2       	and	#4,	r14	;r2 As==10
    3a2c:	fc 27       	jz	$-6      	;abs 0x3a26
{
   char i;

  SDA_IN();
  delay5us();
  scl_on;
    3a2e:	5e 42 6d 00 	mov.b	&0x006d,r14	
    3a32:	3e f0 10 00 	and	#16,	r14	;#0x0010
    3a36:	fb 23       	jnz	$-8      	;abs 0x3a2e
  delay5us();
    3a38:	5e 42 6d 00 	mov.b	&0x006d,r14	
    3a3c:	7e f2       	and.b	#8,	r14	;r2 As==11
  status += i2c_recv_ack();
  i2c_stop();

  return status;
}

    3a3e:	4f 5e       	add.b	r14,	r15	
    3a40:	3b 41       	pop	r11		
    3a42:	30 41       	ret			

00003a44 <i2c_write_buffer>:
char i2c_write_multiples( char reg,  char dat[],  int len)
{
  int i = 0, status = 0;
    3a44:	0b 12       	push	r11		
  i2c_slave_address = slave_addr;
}

void i2c_init(void)
{
  SDA_OUT();
    3a46:	f2 d0 12 00 	bis.b	#18,	&0x0069	;#0x0012
    3a4a:	69 00 
  sda_on;
    3a4c:	5d 42 69 00 	mov.b	&0x0069,r13	
    3a50:	2d f3       	and	#2,	r13	;r3 As==10
    3a52:	fc 27       	jz	$-6      	;abs 0x3a4c
{
  int i = 0, status = 0;

  i2c_start();
  i2c_bwrite(i2c_slave_address);
  status += i2c_recv_ack();
    3a54:	4e 93       	tst.b	r14		
    3a56:	22 24       	jz	$+70     	;abs 0x3a9c
    3a58:	0c 4f       	mov	r15,	r12	
  delay5us();
  scl_off;
  delay5us();
  SDA_OUT();

  return i;
    3a5a:	e2 4c 6f 00 	mov.b	@r12,	&0x006f	
}

    3a5e:	5d 42 03 00 	mov.b	&0x0003,r13	
    3a62:	3d f2       	and	#8,	r13	;r2 As==11
    3a64:	fc 27       	jz	$-6      	;abs 0x3a5e
void i2c_send_ack( char confirmation)
{
    3a66:	5d 42 6d 00 	mov.b	&0x006d,r13	
    3a6a:	7d f2       	and.b	#8,	r13	;r2 As==11
{
  int i = 0, status = 0;

  i2c_start();
  i2c_bwrite(i2c_slave_address);
  status += i2c_recv_ack();
    3a6c:	05 20       	jnz	$+12     	;abs 0x3a78
    3a6e:	1c 53       	inc	r12		
    3a70:	4b 4c       	mov.b	r12,	r11	
    3a72:	4b 8f       	sub.b	r15,	r11	
    3a74:	4b 9e       	cmp.b	r14,	r11	
    3a76:	f1 2b       	jnc	$-28     	;abs 0x3a5a
  sda_off;
  delay5us();
  scl_off;
  delay5us();
}

    3a78:	f2 d0 14 00 	bis.b	#20,	&0x0069	;#0x0014
    3a7c:	69 00 
void i2c_stop(void)
    3a7e:	5e 42 69 00 	mov.b	&0x0069,r14	
    3a82:	2e f2       	and	#4,	r14	;r2 As==10
    3a84:	fc 27       	jz	$-6      	;abs 0x3a7e
{
   char i;

  SDA_IN();
  delay5us();
  scl_on;
    3a86:	5e 42 6d 00 	mov.b	&0x006d,r14	
    3a8a:	3e f0 10 00 	and	#16,	r14	;#0x0010
    3a8e:	fb 23       	jnz	$-8      	;abs 0x3a86
  delay5us();
    3a90:	5f 42 6d 00 	mov.b	&0x006d,r15	
    3a94:	7f f2       	and.b	#8,	r15	;r2 As==11
  status += i2c_recv_ack();
  i2c_bwrite(reg);
  status += i2c_recv_ack();
  while((!status) && (i<len))
  {
    i2c_bwrite(dat[i++]);
    3a96:	4f 5d       	add.b	r13,	r15	
    3a98:	3b 41       	pop	r11		
    3a9a:	30 41       	ret			
{
  int i = 0, status = 0;

  i2c_start();
  i2c_bwrite(i2c_slave_address);
  status += i2c_recv_ack();
    3a9c:	4d 4e       	mov.b	r14,	r13	
    3a9e:	ec 3f       	jmp	$-38     	;abs 0x3a78

00003aa0 <i2c_read_data>:
  while((!status) && (i<len))
  {
    i2c_bwrite(dat[i++]);
    status += i2c_recv_ack();
  }
  i2c_stop();
    3aa0:	0b 12       	push	r11		
    3aa2:	0a 12       	push	r10		
    3aa4:	0b 4f       	mov	r15,	r11	


  return status;
    3aa6:	b0 12 74 37 	call	#0x3774	
}

    3aaa:	5e 42 6d 00 	mov.b	&0x006d,r14	
    3aae:	3e f2       	and	#8,	r14	;r2 As==11
    3ab0:	5a 43       	mov.b	#1,	r10	;r3 As==01
    3ab2:	15 24       	jz	$+44     	;abs 0x3ade
 char i2c_write16_byte( int reg,  char dat)
    3ab4:	5e 42 03 00 	mov.b	&0x0003,r14	
    3ab8:	2e f2       	and	#4,	r14	;r2 As==10
    3aba:	fc 27       	jz	$-6      	;abs 0x3ab4
{
    3abc:	db 42 6e 00 	mov.b	&0x006e,0(r11)	;0x0000(r11)
    3ac0:	00 00 
  char status = 0;

    3ac2:	b0 12 98 37 	call	#0x3798	
{
   char i;

  SDA_IN();
  delay5us();
  scl_on;
    3ac6:	5e 42 6d 00 	mov.b	&0x006d,r14	
    3aca:	3e f0 10 00 	and	#16,	r14	;#0x0010
    3ace:	fb 23       	jnz	$-8      	;abs 0x3ac6
  delay5us();
    3ad0:	5f 42 6d 00 	mov.b	&0x006d,r15	
    3ad4:	7f f2       	and.b	#8,	r15	;r2 As==11
  char status = 0;

  i2c_start();
  i2c_bwrite(i2c_slave_address);
  status += i2c_recv_ack();
  i2c_bwrite(reg/256);
    3ad6:	4f 5a       	add.b	r10,	r15	
    3ad8:	3a 41       	pop	r10		
    3ada:	3b 41       	pop	r11		
    3adc:	30 41       	ret			
  i2c_stop();


  return status;
}

    3ade:	4a 4e       	mov.b	r14,	r10	
    3ae0:	e9 3f       	jmp	$-44     	;abs 0x3ab4

00003ae2 <i2c_read_buffer>:
  i2c_bwrite(i2c_slave_address);
  status += i2c_recv_ack();
  i2c_bwrite(reg/256);
  status += i2c_recv_ack();
  i2c_bwrite(reg%256);
  status += i2c_recv_ack();
    3ae2:	0b 12       	push	r11		
    3ae4:	0a 12       	push	r10		
    3ae6:	09 12       	push	r9		
    3ae8:	09 4f       	mov	r15,	r9	
    3aea:	4a 4e       	mov.b	r14,	r10	
  i2c_bwrite(dat);
  status += i2c_recv_ack();
  i2c_stop();
    3aec:	b0 12 74 37 	call	#0x3774	

  return status;
}

    3af0:	4a 93       	tst.b	r10		
    3af2:	13 24       	jz	$+40     	;abs 0x3b1a
    3af4:	0b 49       	mov	r9,	r11	
 char i2c_write16_multiples( int reg,  char dat[], int len)
{
   int i = 0, status = 0;
    3af6:	5c 42 6d 00 	mov.b	&0x006d,r12	
    3afa:	3c f2       	and	#8,	r12	;r2 As==11

  i2c_start();
    3afc:	5d 42 03 00 	mov.b	&0x0003,r13	
    3b00:	2d f2       	and	#4,	r13	;r2 As==10
    3b02:	fc 27       	jz	$-6      	;abs 0x3afc
  i2c_bwrite(i2c_slave_address);
  status += i2c_recv_ack();
    3b04:	db 42 6e 00 	mov.b	&0x006e,0(r11)	;0x0000(r11)
    3b08:	00 00 
  status += i2c_recv_ack();
  i2c_stop();

  return status;
}

    3b0a:	0c 93       	tst	r12		
    3b0c:	15 20       	jnz	$+44     	;abs 0x3b38
    3b0e:	1b 53       	inc	r11		
    3b10:	4d 4b       	mov.b	r11,	r13	
    3b12:	4d 89       	sub.b	r9,	r13	
    3b14:	4d 9a       	cmp.b	r10,	r13	
    3b16:	ef 2b       	jnc	$-32     	;abs 0x3af6
    3b18:	4a 4c       	mov.b	r12,	r10	
  i2c_bwrite(i2c_slave_address);
  status += i2c_recv_ack();
  i2c_bwrite(reg/256);
  status += i2c_recv_ack();
  i2c_bwrite(reg%256);
  status += i2c_recv_ack();
    3b1a:	b0 12 98 37 	call	#0x3798	
{
   char i;

  SDA_IN();
  delay5us();
  scl_on;
    3b1e:	5e 42 6d 00 	mov.b	&0x006d,r14	
    3b22:	3e f0 10 00 	and	#16,	r14	;#0x0010
    3b26:	fb 23       	jnz	$-8      	;abs 0x3b1e
  delay5us();
    3b28:	5f 42 6d 00 	mov.b	&0x006d,r15	
    3b2c:	7f f2       	and.b	#8,	r15	;r2 As==11
  i2c_bwrite(reg%256);
  status += i2c_recv_ack();
  while((!status) && (i<len))
  {
    i2c_bwrite(dat[i++]);
    status += i2c_recv_ack();
    3b2e:	4f 5a       	add.b	r10,	r15	
    3b30:	39 41       	pop	r9		
    3b32:	3a 41       	pop	r10		
    3b34:	3b 41       	pop	r11		
    3b36:	30 41       	ret			
  status += i2c_recv_ack();
  i2c_stop();

  return status;
}

    3b38:	5a 43       	mov.b	#1,	r10	;r3 As==01
    3b3a:	ef 3f       	jmp	$-32     	;abs 0x3b1a

00003b3c <i2c_wread_one_data>:
    i2c_bwrite(dat[i++]);
    status += i2c_recv_ack();
  }
  i2c_stop();


    3b3c:	0b 12       	push	r11		
    3b3e:	0a 12       	push	r10		
    3b40:	0a 4e       	mov	r14,	r10	
  i2c_slave_address = slave_addr;
}

void i2c_init(void)
{
  SDA_OUT();
    3b42:	f2 d0 12 00 	bis.b	#18,	&0x0069	;#0x0012
    3b46:	69 00 
  sda_on;
    3b48:	5d 42 69 00 	mov.b	&0x0069,r13	
    3b4c:	2d f3       	and	#2,	r13	;r3 As==10
    3b4e:	fc 27       	jz	$-6      	;abs 0x3b48
  delay5us();
  scl_off;
  delay5us();
  SDA_OUT();

  return i;
    3b50:	c2 4f 6f 00 	mov.b	r15,	&0x006f	
}

    3b54:	5f 42 03 00 	mov.b	&0x0003,r15	
    3b58:	3f f2       	and	#8,	r15	;r2 As==11
    3b5a:	fc 27       	jz	$-6      	;abs 0x3b54
void i2c_send_ack( char confirmation)
{
    3b5c:	5b 42 6d 00 	mov.b	&0x006d,r11	
    3b60:	7b f2       	and.b	#8,	r11	;r2 As==11

  return status;
}

 char i2c_read_byte( char reg,  char *dat)
{
    3b62:	b0 12 74 37 	call	#0x3774	
   char status = 0;

    3b66:	5d 42 6d 00 	mov.b	&0x006d,r13	
    3b6a:	3d f2       	and	#8,	r13	;r2 As==11
    3b6c:	01 24       	jz	$+4      	;abs 0x3b70
    3b6e:	5b 53       	inc.b	r11		
  i2c_start();
    3b70:	5d 42 03 00 	mov.b	&0x0003,r13	
    3b74:	2d f2       	and	#4,	r13	;r2 As==10
    3b76:	fc 27       	jz	$-6      	;abs 0x3b70
  i2c_bwrite(i2c_slave_address);
    3b78:	da 42 6e 00 	mov.b	&0x006e,0(r10)	;0x0000(r10)
    3b7c:	00 00 
  status += i2c_recv_ack();
  i2c_bwrite(reg);
    3b7e:	b0 12 98 37 	call	#0x3798	
{
   char i;

  SDA_IN();
  delay5us();
  scl_on;
    3b82:	5e 42 6d 00 	mov.b	&0x006d,r14	
    3b86:	3e f0 10 00 	and	#16,	r14	;#0x0010
    3b8a:	fb 23       	jnz	$-8      	;abs 0x3b82
  delay5us();
    3b8c:	5f 42 6d 00 	mov.b	&0x006d,r15	
    3b90:	7f f2       	and.b	#8,	r15	;r2 As==11
  status += i2c_recv_ack();
  i2c_bwrite(reg);
  status += i2c_recv_ack();
  i2c_start();
  i2c_bwrite(i2c_slave_address+1);
  status += i2c_recv_ack();
    3b92:	4f 5b       	add.b	r11,	r15	
    3b94:	3a 41       	pop	r10		
    3b96:	3b 41       	pop	r11		
    3b98:	30 41       	ret			

00003b9a <i2c_wread_one_buffer>:
  *dat = i2c_bread();
  i2c_send_ack(NACK);
  i2c_stop();
    3b9a:	0b 12       	push	r11		
    3b9c:	0a 12       	push	r10		
    3b9e:	09 12       	push	r9		
    3ba0:	08 12       	push	r8		
    3ba2:	07 12       	push	r7		
    3ba4:	09 4e       	mov	r14,	r9	
    3ba6:	48 4d       	mov.b	r13,	r8	
  i2c_slave_address = slave_addr;
}

void i2c_init(void)
{
  SDA_OUT();
    3ba8:	f2 d0 12 00 	bis.b	#18,	&0x0069	;#0x0012
    3bac:	69 00 
  sda_on;
    3bae:	5c 42 69 00 	mov.b	&0x0069,r12	
    3bb2:	2c f3       	and	#2,	r12	;r3 As==10
    3bb4:	fc 27       	jz	$-6      	;abs 0x3bae
  delay5us();
  scl_off;
  delay5us();
  SDA_OUT();

  return i;
    3bb6:	c2 4f 6f 00 	mov.b	r15,	&0x006f	
}

    3bba:	5f 42 03 00 	mov.b	&0x0003,r15	
    3bbe:	3f f2       	and	#8,	r15	;r2 As==11
    3bc0:	fc 27       	jz	$-6      	;abs 0x3bba
void i2c_send_ack( char confirmation)
{
    3bc2:	57 42 6d 00 	mov.b	&0x006d,r7	
    3bc6:	77 f2       	and.b	#8,	r7	;r2 As==11
  i2c_stop();

  return status;
}

 char i2c_read_multiples( char reg,  char dat[], int len)
    3bc8:	b0 12 74 37 	call	#0x3774	
{
   int i = 0, status = 0;

  i2c_start();
    3bcc:	47 93       	tst.b	r7		
    3bce:	14 20       	jnz	$+42     	;abs 0x3bf8
    3bd0:	48 97       	cmp.b	r7,	r8	
    3bd2:	12 24       	jz	$+38     	;abs 0x3bf8
    3bd4:	0a 49       	mov	r9,	r10	
  i2c_bwrite(i2c_slave_address);
  status += i2c_recv_ack();
  i2c_bwrite(reg);
    3bd6:	5b 42 6d 00 	mov.b	&0x006d,r11	
    3bda:	3b f2       	and	#8,	r11	;r2 As==11
  status += i2c_recv_ack();
  i2c_start();
    3bdc:	5c 42 03 00 	mov.b	&0x0003,r12	
    3be0:	2c f2       	and	#4,	r12	;r2 As==10
    3be2:	fc 27       	jz	$-6      	;abs 0x3bdc
  i2c_bwrite(i2c_slave_address+1);
  status += i2c_recv_ack();
    3be4:	da 42 6e 00 	mov.b	&0x006e,0(r10)	;0x0000(r10)
    3be8:	00 00 

 char i2c_read_multiples( char reg,  char dat[], int len)
{
   int i = 0, status = 0;

  i2c_start();
    3bea:	0b 93       	tst	r11		
    3bec:	16 20       	jnz	$+46     	;abs 0x3c1a
    3bee:	1a 53       	inc	r10		
    3bf0:	4c 4a       	mov.b	r10,	r12	
    3bf2:	4c 89       	sub.b	r9,	r12	
    3bf4:	4c 98       	cmp.b	r8,	r12	
    3bf6:	ef 2b       	jnc	$-32     	;abs 0x3bd6
  i2c_bwrite(i2c_slave_address+1);
  status += i2c_recv_ack();

  while((!status) && (i<len-1))
  {  
    dat[i] = i2c_bread();
    3bf8:	b0 12 98 37 	call	#0x3798	
{
   char i;

  SDA_IN();
  delay5us();
  scl_on;
    3bfc:	5e 42 6d 00 	mov.b	&0x006d,r14	
    3c00:	3e f0 10 00 	and	#16,	r14	;#0x0010
    3c04:	fb 23       	jnz	$-8      	;abs 0x3bfc
  delay5us();
    3c06:	5f 42 6d 00 	mov.b	&0x006d,r15	
    3c0a:	7f f2       	and.b	#8,	r15	;r2 As==11
  {  
    dat[i] = i2c_bread();
    i2c_send_ack(ACK);
    i++;
  }
  dat[i] = i2c_bread();
    3c0c:	4f 57       	add.b	r7,	r15	
    3c0e:	37 41       	pop	r7		
    3c10:	38 41       	pop	r8		
    3c12:	39 41       	pop	r9		
    3c14:	3a 41       	pop	r10		
    3c16:	3b 41       	pop	r11		
    3c18:	30 41       	ret			
   int i = 0, status = 0;

  i2c_start();
  i2c_bwrite(i2c_slave_address);
  status += i2c_recv_ack();
  i2c_bwrite(reg);
    3c1a:	57 43       	mov.b	#1,	r7	;r3 As==01
    3c1c:	ed 3f       	jmp	$-36     	;abs 0x3bf8

00003c1e <i2c_wread_two_data>:
    i++;
  }
  dat[i] = i2c_bread();
  i2c_send_ack(NACK);
  i2c_stop();

    3c1e:	0b 12       	push	r11		
    3c20:	0a 12       	push	r10		
    3c22:	0a 4d       	mov	r13,	r10	
  i2c_slave_address = slave_addr;
}

void i2c_init(void)
{
  SDA_OUT();
    3c24:	f2 d0 12 00 	bis.b	#18,	&0x0069	;#0x0012
    3c28:	69 00 
  sda_on;
    3c2a:	5c 42 69 00 	mov.b	&0x0069,r12	
    3c2e:	2c f3       	and	#2,	r12	;r3 As==10
    3c30:	fc 27       	jz	$-6      	;abs 0x3c2a
  delay5us();
  scl_off;
  delay5us();
  SDA_OUT();

  return i;
    3c32:	c2 4f 6f 00 	mov.b	r15,	&0x006f	
}

    3c36:	5f 42 03 00 	mov.b	&0x0003,r15	
    3c3a:	3f f2       	and	#8,	r15	;r2 As==11
    3c3c:	fc 27       	jz	$-6      	;abs 0x3c36
void i2c_send_ack( char confirmation)
{
    3c3e:	5d 42 6d 00 	mov.b	&0x006d,r13	
    3c42:	7d f2       	and.b	#8,	r13	;r2 As==11
  delay5us();
  scl_off;
  delay5us();
  SDA_OUT();

  return i;
    3c44:	c2 4e 6f 00 	mov.b	r14,	&0x006f	
}

    3c48:	5f 42 03 00 	mov.b	&0x0003,r15	
    3c4c:	3f f2       	and	#8,	r15	;r2 As==11
    3c4e:	fc 27       	jz	$-6      	;abs 0x3c48
void i2c_send_ack( char confirmation)
{
    3c50:	5b 42 6d 00 	mov.b	&0x006d,r11	
    3c54:	7b f2       	and.b	#8,	r11	;r2 As==11

  return status;
}

 char i2c_read16_byte( int reg,  char *dat)
{
    3c56:	4b 5d       	add.b	r13,	r11	
   char status = 0;
    3c58:	b0 12 74 37 	call	#0x3774	

  i2c_start();
    3c5c:	5f 42 6d 00 	mov.b	&0x006d,r15	
    3c60:	3f f2       	and	#8,	r15	;r2 As==11
    3c62:	01 24       	jz	$+4      	;abs 0x3c66
    3c64:	5b 53       	inc.b	r11		
  i2c_bwrite(i2c_slave_address);
    3c66:	5e 42 03 00 	mov.b	&0x0003,r14	
    3c6a:	2e f2       	and	#4,	r14	;r2 As==10
    3c6c:	fc 27       	jz	$-6      	;abs 0x3c66
  status += i2c_recv_ack();
    3c6e:	da 42 6e 00 	mov.b	&0x006e,0(r10)	;0x0000(r10)
    3c72:	00 00 
  i2c_bwrite(reg/256);
  status += i2c_recv_ack();
    3c74:	b0 12 98 37 	call	#0x3798	
{
   char i;

  SDA_IN();
  delay5us();
  scl_on;
    3c78:	5e 42 6d 00 	mov.b	&0x006d,r14	
    3c7c:	3e f0 10 00 	and	#16,	r14	;#0x0010
    3c80:	fb 23       	jnz	$-8      	;abs 0x3c78
  delay5us();
    3c82:	5f 42 6d 00 	mov.b	&0x006d,r15	
    3c86:	7f f2       	and.b	#8,	r15	;r2 As==11
  i2c_bwrite(reg/256);
  status += i2c_recv_ack();
  i2c_bwrite(reg%256);
  status += i2c_recv_ack();
  i2c_start();
  i2c_bwrite(i2c_slave_address+1);
    3c88:	4f 5b       	add.b	r11,	r15	
    3c8a:	3a 41       	pop	r10		
    3c8c:	3b 41       	pop	r11		
    3c8e:	30 41       	ret			

00003c90 <i2c_wread_two_buffer>:
  status += i2c_recv_ack();
  *dat = i2c_bread();
  i2c_send_ack(NACK);
    3c90:	0b 12       	push	r11		
    3c92:	0a 12       	push	r10		
    3c94:	09 12       	push	r9		
    3c96:	08 12       	push	r8		
    3c98:	07 12       	push	r7		
    3c9a:	09 4d       	mov	r13,	r9	
    3c9c:	48 4c       	mov.b	r12,	r8	
  i2c_slave_address = slave_addr;
}

void i2c_init(void)
{
  SDA_OUT();
    3c9e:	f2 d0 12 00 	bis.b	#18,	&0x0069	;#0x0012
    3ca2:	69 00 
  sda_on;
    3ca4:	5b 42 69 00 	mov.b	&0x0069,r11	
    3ca8:	2b f3       	and	#2,	r11	;r3 As==10
    3caa:	fc 27       	jz	$-6      	;abs 0x3ca4
  delay5us();
  scl_off;
  delay5us();
  SDA_OUT();

  return i;
    3cac:	c2 4f 6f 00 	mov.b	r15,	&0x006f	
}

    3cb0:	5f 42 03 00 	mov.b	&0x0003,r15	
    3cb4:	3f f2       	and	#8,	r15	;r2 As==11
    3cb6:	fc 27       	jz	$-6      	;abs 0x3cb0
void i2c_send_ack( char confirmation)
{
    3cb8:	5d 42 6d 00 	mov.b	&0x006d,r13	
    3cbc:	7d f2       	and.b	#8,	r13	;r2 As==11
  delay5us();
  scl_off;
  delay5us();
  SDA_OUT();

  return i;
    3cbe:	c2 4e 6f 00 	mov.b	r14,	&0x006f	
}

    3cc2:	5f 42 03 00 	mov.b	&0x0003,r15	
    3cc6:	3f f2       	and	#8,	r15	;r2 As==11
    3cc8:	fc 27       	jz	$-6      	;abs 0x3cc2
void i2c_send_ack( char confirmation)
{
    3cca:	57 42 6d 00 	mov.b	&0x006d,r7	
    3cce:	77 f2       	and.b	#8,	r7	;r2 As==11
  i2c_send_ack(NACK);
  i2c_stop();

  return status;
}

    3cd0:	47 5d       	add.b	r13,	r7	
 char i2c_read16_multiples( int reg, char dat[], int len)
    3cd2:	b0 12 74 37 	call	#0x3774	
{
   int i = 0, status = 0;

  i2c_start();
    3cd6:	47 93       	tst.b	r7		
    3cd8:	14 20       	jnz	$+42     	;abs 0x3d02
    3cda:	48 97       	cmp.b	r7,	r8	
    3cdc:	12 24       	jz	$+38     	;abs 0x3d02
    3cde:	0a 49       	mov	r9,	r10	
  i2c_bwrite(i2c_slave_address);
  status += i2c_recv_ack();
  i2c_bwrite(reg/256);
    3ce0:	5b 42 6d 00 	mov.b	&0x006d,r11	
    3ce4:	3b f2       	and	#8,	r11	;r2 As==11
  status += i2c_recv_ack();
  i2c_bwrite(reg%256);
    3ce6:	5e 42 03 00 	mov.b	&0x0003,r14	
    3cea:	2e f2       	and	#4,	r14	;r2 As==10
    3cec:	fc 27       	jz	$-6      	;abs 0x3ce6
  status += i2c_recv_ack();
  i2c_start();
    3cee:	da 42 6e 00 	mov.b	&0x006e,0(r10)	;0x0000(r10)
    3cf2:	00 00 

 char i2c_read16_multiples( int reg, char dat[], int len)
{
   int i = 0, status = 0;

  i2c_start();
    3cf4:	0b 93       	tst	r11		
    3cf6:	16 20       	jnz	$+46     	;abs 0x3d24
    3cf8:	1a 53       	inc	r10		
    3cfa:	4e 4a       	mov.b	r10,	r14	
    3cfc:	4e 89       	sub.b	r9,	r14	
    3cfe:	4e 98       	cmp.b	r8,	r14	
    3d00:	ef 2b       	jnc	$-32     	;abs 0x3ce0
  status += i2c_recv_ack();
  i2c_start();
  i2c_bwrite(i2c_slave_address+1);
  status += i2c_recv_ack();

  while((!status) && (i<len-1))
    3d02:	b0 12 98 37 	call	#0x3798	
{
   char i;

  SDA_IN();
  delay5us();
  scl_on;
    3d06:	5e 42 6d 00 	mov.b	&0x006d,r14	
    3d0a:	3e f0 10 00 	and	#16,	r14	;#0x0010
    3d0e:	fb 23       	jnz	$-8      	;abs 0x3d06
  delay5us();
    3d10:	5f 42 6d 00 	mov.b	&0x006d,r15	
    3d14:	7f f2       	and.b	#8,	r15	;r2 As==11

  while((!status) && (i<len-1))
  {  
    dat[i] = i2c_bread();
    i2c_send_ack(ACK);
    i++;
    3d16:	4f 57       	add.b	r7,	r15	
    3d18:	37 41       	pop	r7		
    3d1a:	38 41       	pop	r8		
    3d1c:	39 41       	pop	r9		
    3d1e:	3a 41       	pop	r10		
    3d20:	3b 41       	pop	r11		
    3d22:	30 41       	ret			
   int i = 0, status = 0;

  i2c_start();
  i2c_bwrite(i2c_slave_address);
  status += i2c_recv_ack();
  i2c_bwrite(reg/256);
    3d24:	57 43       	mov.b	#1,	r7	;r3 As==01
    3d26:	ed 3f       	jmp	$-36     	;abs 0x3d02

00003d28 <i2c_find_device>:
void i2c_config( char slave_addr)
{
  i2c_init();
  i2c_slave_address = slave_addr;
}

    3d28:	12 c3       	clrc			
    3d2a:	4f 10       	rrc.b	r15		
    3d2c:	0e 4f       	mov	r15,	r14	
    3d2e:	3e f0 7f 00 	and	#127,	r14	;#0x007f
    3d32:	82 4e 1a 01 	mov	r14,	&0x011a	
    i++;
  }
  dat[i] = i2c_bread();
  i2c_send_ack(NACK);
  i2c_stop();

    3d36:	b0 12 d2 37 	call	#0x37d2	
  return status;
    3d3a:	30 41       	ret			

00003d3c <analog_init>:

int AnalogOffset[8] = {0,0,0,0,0,0,0,0};
int AnalogValue[8] = {0,0,0,0,0,0,0,0}; 

void analog_init(void){
    P6SEL = ANALOG_ENABLE;
    3d3c:	f2 43 37 00 	mov.b	#-1,	&0x0037	;r3 As==11
    
    ADC12CTL0 &= ~ENC;
    3d40:	b2 f0 fd ff 	and	#-3,	&0x01a0	;#0xfffd
    3d44:	a0 01 
    ADC12CTL0 = REFON + ADC12ON;
    3d46:	b2 40 30 00 	mov	#48,	&0x01a0	;#0x0030
    3d4a:	a0 01 
    ADC12CTL1 = SHP;
    3d4c:	b2 40 00 02 	mov	#512,	&0x01a2	;#0x0200
    3d50:	a2 01 
    ADC12CTL0 |= ENC;
    3d52:	a2 d3 a0 01 	bis	#2,	&0x01a0	;r3 As==10
}
    3d56:	30 41       	ret			

00003d58 <analog_calibrate_channel>:

void analog_calibrate_channel(int i){
    3d58:	0b 12       	push	r11		
    3d5a:	0a 12       	push	r10		
    3d5c:	09 12       	push	r9		
    3d5e:	08 12       	push	r8		
    int k = 0;
    
    if((0x01 << i) & P6SEL){
    3d60:	5e 42 37 00 	mov.b	&0x0037,r14	
    3d64:	0d 4f       	mov	r15,	r13	
    3d66:	0d 93       	tst	r13		
    3d68:	03 24       	jz	$+8      	;abs 0x3d70
    3d6a:	0e 11       	rra	r14		
    3d6c:	1d 83       	dec	r13		
    3d6e:	fd 23       	jnz	$-4      	;abs 0x3d6a
    3d70:	1e f3       	and	#1,	r14	;r3 As==01
    3d72:	26 24       	jz	$+78     	;abs 0x3dc0
        AnalogOffset[i] = 0;
    3d74:	0a 4f       	mov	r15,	r10	
    3d76:	0a 5a       	rla	r10		
    3d78:	3a 50 1a 11 	add	#4378,	r10	;#0x111a
    3d7c:	8a 43 00 00 	mov	#0,	0(r10)	;r3 As==00, 0x0000(r10)
    3d80:	48 4f       	mov.b	r15,	r8	
    3d82:	39 42       	mov	#8,	r9	;r2 As==11
        for(k = 0; k < 8; k++ ){
            ADC12CTL0 &= ~ENC;
    3d84:	b2 f0 fd ff 	and	#-3,	&0x01a0	;#0xfffd
    3d88:	a0 01 
            ADC12MCTL0 = i;
    3d8a:	c2 48 80 00 	mov.b	r8,	&0x0080	
            ADC12CTL0 |= ENC;
    3d8e:	a2 d3 a0 01 	bis	#2,	&0x01a0	;r3 As==10
            ADC12CTL0 |= ADC12SC;
    3d92:	92 d3 a0 01 	bis	#1,	&0x01a0	;r3 As==01
            while(ADC12CTL1 & ADC12BUSY);
    3d96:	1b 42 a2 01 	mov	&0x01a2,r11	
    3d9a:	1b f3       	and	#1,	r11	;r3 As==01
    3d9c:	fc 23       	jnz	$-6      	;abs 0x3d96
            delayms(30);
    3d9e:	3f 40 1e 00 	mov	#30,	r15	;#0x001e
    3da2:	b0 12 d8 36 	call	#0x36d8	
            AnalogOffset[i] += ADC12MEM0;
    3da6:	1e 42 40 01 	mov	&0x0140,r14	
    3daa:	2e 5a       	add	@r10,	r14	
    3dac:	8a 4e 00 00 	mov	r14,	0(r10)	;0x0000(r10)
    3db0:	39 53       	add	#-1,	r9	;r3 As==11
void analog_calibrate_channel(int i){
    int k = 0;
    
    if((0x01 << i) & P6SEL){
        AnalogOffset[i] = 0;
        for(k = 0; k < 8; k++ ){
    3db2:	09 9b       	cmp	r11,	r9	
    3db4:	e7 23       	jnz	$-48     	;abs 0x3d84
            ADC12CTL0 |= ADC12SC;
            while(ADC12CTL1 & ADC12BUSY);
            delayms(30);
            AnalogOffset[i] += ADC12MEM0;
        }
        AnalogOffset[i] = AnalogOffset[i] >> 3;
    3db6:	0e 11       	rra	r14		
    3db8:	0e 11       	rra	r14		
    3dba:	0e 11       	rra	r14		
    3dbc:	8a 4e 00 00 	mov	r14,	0(r10)	;0x0000(r10)
    }
}
    3dc0:	38 41       	pop	r8		
    3dc2:	39 41       	pop	r9		
    3dc4:	3a 41       	pop	r10		
    3dc6:	3b 41       	pop	r11		
    3dc8:	30 41       	ret			

00003dca <analog_refresh_all>:

inline void analog_refresh_all(void){
    int i;
    for(i = 0; i < 8; i++){
    3dca:	3d 40 2a 11 	mov	#4394,	r13	;#0x112a
    3dce:	0e 43       	clr	r14		
        if((0x01 << i) & P6SEL){
    3dd0:	5f 42 37 00 	mov.b	&0x0037,r15	
    3dd4:	0c 4e       	mov	r14,	r12	
    3dd6:	0c 93       	tst	r12		
    3dd8:	03 24       	jz	$+8      	;abs 0x3de0
    3dda:	0f 11       	rra	r15		
    3ddc:	1c 83       	dec	r12		
    3dde:	fd 23       	jnz	$-4      	;abs 0x3dda
    3de0:	1f f3       	and	#1,	r15	;r3 As==01
    3de2:	14 24       	jz	$+42     	;abs 0x3e0c
            ADC12CTL0 &= ~ENC;
    3de4:	b2 f0 fd ff 	and	#-3,	&0x01a0	;#0xfffd
    3de8:	a0 01 
            ADC12MCTL0 = i;
    3dea:	c2 4e 80 00 	mov.b	r14,	&0x0080	
            ADC12CTL0 |= ENC;
    3dee:	a2 d3 a0 01 	bis	#2,	&0x01a0	;r3 As==10
            ADC12CTL0 |= ADC12SC;
    3df2:	92 d3 a0 01 	bis	#1,	&0x01a0	;r3 As==01
            while(ADC12CTL1 & ADC12BUSY);
    3df6:	92 b3 a2 01 	bit	#1,	&0x01a2	;r3 As==01
    3dfa:	fd 23       	jnz	$-4      	;abs 0x3df6
            AnalogValue[i] = ADC12MEM0;   
    3dfc:	9d 42 40 01 	mov	&0x0140,0(r13)	;0x0000(r13)
    3e00:	00 00 
    }
}

inline void analog_refresh_all(void){
    int i;
    for(i = 0; i < 8; i++){
    3e02:	1e 53       	inc	r14		
    3e04:	2d 53       	incd	r13		
    3e06:	3e 92       	cmp	#8,	r14	;r2 As==11
    3e08:	e3 23       	jnz	$-56     	;abs 0x3dd0
        }
        else{
            AnalogValue[i] = 0;
        }
    }
}
    3e0a:	30 41       	ret			
            ADC12CTL0 |= ADC12SC;
            while(ADC12CTL1 & ADC12BUSY);
            AnalogValue[i] = ADC12MEM0;   
        }
        else{
            AnalogValue[i] = 0;
    3e0c:	8d 4f 00 00 	mov	r15,	0(r13)	;0x0000(r13)
    3e10:	f8 3f       	jmp	$-14     	;abs 0x3e02

00003e12 <analog_refresh_channel>:
        }
    }
}

inline void analog_refresh_channel(int i){
    if((0x01 << i) & P6SEL){
    3e12:	5e 42 37 00 	mov.b	&0x0037,r14	
    3e16:	0d 4f       	mov	r15,	r13	
    3e18:	0d 93       	tst	r13		
    3e1a:	03 24       	jz	$+8      	;abs 0x3e22
    3e1c:	0e 11       	rra	r14		
    3e1e:	1d 83       	dec	r13		
    3e20:	fd 23       	jnz	$-4      	;abs 0x3e1c
    3e22:	1e f3       	and	#1,	r14	;r3 As==01
    3e24:	11 24       	jz	$+36     	;abs 0x3e48
        ADC12CTL0 &= ~ENC;
    3e26:	b2 f0 fd ff 	and	#-3,	&0x01a0	;#0xfffd
    3e2a:	a0 01 
        ADC12MCTL0 = i;
    3e2c:	c2 4f 80 00 	mov.b	r15,	&0x0080	
        ADC12CTL0 |= ENC;
    3e30:	a2 d3 a0 01 	bis	#2,	&0x01a0	;r3 As==10
        ADC12CTL0 |= ADC12SC;
    3e34:	92 d3 a0 01 	bis	#1,	&0x01a0	;r3 As==01
        while(ADC12CTL1 & ADC12BUSY);
    3e38:	92 b3 a2 01 	bit	#1,	&0x01a2	;r3 As==01
    3e3c:	fd 23       	jnz	$-4      	;abs 0x3e38
        AnalogValue[i] = ADC12MEM0;   
    3e3e:	0f 5f       	rla	r15		
    3e40:	9f 42 40 01 	mov	&0x0140,4394(r15);0x112a(r15)
    3e44:	2a 11 
    3e46:	30 41       	ret			
    }
    else{
        AnalogValue[i] = 0;
    3e48:	0f 5f       	rla	r15		
    3e4a:	8f 4e 2a 11 	mov	r14,	4394(r15);0x112a(r15)
    3e4e:	30 41       	ret			

00003e50 <UART_init>:
    3e50:	d2 d3 61 00 	bis.b	#1,	&0x0061	;r3 As==01
    3e54:	c2 43 60 00 	mov.b	#0,	&0x0060	;r3 As==00
    3e58:	f2 d0 40 00 	bis.b	#64,	&0x0061	;#0x0040
    3e5c:	61 00 
    3e5e:	f2 40 82 ff 	mov.b	#-126,	&0x0062	;#0xff82
    3e62:	62 00 
    3e64:	f2 40 06 00 	mov.b	#6,	&0x0063	;#0x0006
    3e68:	63 00 
    3e6a:	c2 43 64 00 	mov.b	#0,	&0x0064	;r3 As==00
    3e6e:	f2 f0 fe ff 	and.b	#-2,	&0x0061	;#0xfffe
    3e72:	61 00 
    3e74:	f2 d0 30 00 	bis.b	#48,	&0x001b	;#0x0030
    3e78:	1b 00 
    3e7a:	f2 d0 30 00 	bis.b	#48,	&0x001a	;#0x0030
    3e7e:	1a 00 
    3e80:	30 41       	ret			

00003e82 <UART_putchar>:
    3e82:	5e 42 03 00 	mov.b	&0x0003,r14	
    3e86:	2e f3       	and	#2,	r14	;r3 As==10
    3e88:	fc 27       	jz	$-6      	;abs 0x3e82
    3e8a:	c2 4f 67 00 	mov.b	r15,	&0x0067	
    3e8e:	4f 43       	clr.b	r15		
    3e90:	30 41       	ret			

00003e92 <printf>:
    3e92:	0d 41       	mov	r1,	r13	
    3e94:	2d 52       	add	#4,	r13	;r2 As==10
    3e96:	1e 41 02 00 	mov	2(r1),	r14	;0x0002(r1)
    3e9a:	3f 40 4a 33 	mov	#13130,	r15	;#0x334a
    3e9e:	b0 12 be 3f 	call	#0x3fbe	
    3ea2:	30 41       	ret			

00003ea4 <vprintf>:
    3ea4:	0d 4e       	mov	r14,	r13	
    3ea6:	0e 4f       	mov	r15,	r14	
    3ea8:	3f 40 4a 33 	mov	#13130,	r15	;#0x334a
    3eac:	b0 12 be 3f 	call	#0x3fbe	
    3eb0:	30 41       	ret			

00003eb2 <print_field>:
    3eb2:	0b 12       	push	r11		
    3eb4:	0a 12       	push	r10		
    3eb6:	09 12       	push	r9		
    3eb8:	08 12       	push	r8		
    3eba:	07 12       	push	r7		
    3ebc:	06 12       	push	r6		
    3ebe:	05 12       	push	r5		
    3ec0:	04 12       	push	r4		
    3ec2:	21 83       	decd	r1		
    3ec4:	0a 4f       	mov	r15,	r10	
    3ec6:	08 4e       	mov	r14,	r8	
    3ec8:	07 4d       	mov	r13,	r7	
    3eca:	0f 4c       	mov	r12,	r15	
    3ecc:	8f 10       	swpb	r15		
    3ece:	8f 11       	sxt	r15		
    3ed0:	4d 4c       	mov.b	r12,	r13	
    3ed2:	4e 4c       	mov.b	r12,	r14	
    3ed4:	7e f0 10 00 	and.b	#16,	r14	;#0x0010
    3ed8:	10 24       	jz	$+34     	;abs 0x3efa
    3eda:	f1 40 30 00 	mov.b	#48,	0(r1)	;#0x0030, 0x0000(r1)
    3ede:	00 00 
    3ee0:	7d f0 40 00 	and.b	#64,	r13	;#0x0040
    3ee4:	03 24       	jz	$+8      	;abs 0x3eec
    3ee6:	7f 40 58 00 	mov.b	#88,	r15	;#0x0058
    3eea:	02 3c       	jmp	$+6      	;abs 0x3ef0
    3eec:	7f 40 78 00 	mov.b	#120,	r15	;#0x0078
    3ef0:	c1 4f 01 00 	mov.b	r15,	1(r1)	;0x0001(r1)
    3ef4:	06 41       	mov	r1,	r6	
    3ef6:	26 53       	incd	r6		
    3ef8:	08 3c       	jmp	$+18     	;abs 0x3f0a
    3efa:	4f 9e       	cmp.b	r14,	r15	
    3efc:	05 24       	jz	$+12     	;abs 0x3f08
    3efe:	c1 4f 00 00 	mov.b	r15,	0(r1)	;0x0000(r1)
    3f02:	06 41       	mov	r1,	r6	
    3f04:	16 53       	inc	r6		
    3f06:	01 3c       	jmp	$+4      	;abs 0x3f0a
    3f08:	06 41       	mov	r1,	r6	
    3f0a:	06 81       	sub	r1,	r6	
    3f0c:	6c b2       	bit.b	#4,	r12	;r2 As==10
    3f0e:	2b 20       	jnz	$+88     	;abs 0x3f66
    3f10:	0f 48       	mov	r8,	r15	
    3f12:	3f 53       	add	#-1,	r15	;r3 As==11
    3f14:	1f 53       	inc	r15		
    3f16:	cf 93 00 00 	tst.b	0(r15)		;0x0000(r15)
    3f1a:	fc 23       	jnz	$-6      	;abs 0x3f14
    3f1c:	05 4f       	mov	r15,	r5	
    3f1e:	05 88       	sub	r8,	r5	
    3f20:	07 96       	cmp	r6,	r7	
    3f22:	02 28       	jnc	$+6      	;abs 0x3f28
    3f24:	07 86       	sub	r6,	r7	
    3f26:	01 3c       	jmp	$+4      	;abs 0x3f2a
    3f28:	07 43       	clr	r7		
    3f2a:	7c f0 20 00 	and.b	#32,	r12	;#0x0020
    3f2e:	0e 24       	jz	$+30     	;abs 0x3f4c
    3f30:	09 43       	clr	r9		
    3f32:	06 3c       	jmp	$+14     	;abs 0x3f40
    3f34:	0f 41       	mov	r1,	r15	
    3f36:	0f 59       	add	r9,	r15	
    3f38:	6f 4f       	mov.b	@r15,	r15	
    3f3a:	8f 11       	sxt	r15		
    3f3c:	19 53       	inc	r9		
    3f3e:	8a 12       	call	r10		
    3f40:	09 96       	cmp	r6,	r9	
    3f42:	f8 3b       	jl	$-14     	;abs 0x3f34
    3f44:	0b 46       	mov	r6,	r11	
    3f46:	74 40 30 00 	mov.b	#48,	r4	;#0x0030
    3f4a:	0a 3c       	jmp	$+22     	;abs 0x3f60
    3f4c:	74 40 20 00 	mov.b	#32,	r4	;#0x0020
    3f50:	09 43       	clr	r9		
    3f52:	0b 49       	mov	r9,	r11	
    3f54:	05 3c       	jmp	$+12     	;abs 0x3f60
    3f56:	4f 44       	mov.b	r4,	r15	
    3f58:	8f 11       	sxt	r15		
    3f5a:	8a 12       	call	r10		
    3f5c:	1b 53       	inc	r11		
    3f5e:	15 53       	inc	r5		
    3f60:	05 97       	cmp	r7,	r5	
    3f62:	f9 2b       	jnc	$-12     	;abs 0x3f56
    3f64:	02 3c       	jmp	$+6      	;abs 0x3f6a
    3f66:	09 43       	clr	r9		
    3f68:	0b 49       	mov	r9,	r11	
    3f6a:	09 51       	add	r1,	r9	
    3f6c:	05 3c       	jmp	$+12     	;abs 0x3f78
    3f6e:	1b 53       	inc	r11		
    3f70:	6f 49       	mov.b	@r9,	r15	
    3f72:	8f 11       	sxt	r15		
    3f74:	8a 12       	call	r10		
    3f76:	19 53       	inc	r9		
    3f78:	0f 49       	mov	r9,	r15	
    3f7a:	0f 81       	sub	r1,	r15	
    3f7c:	0f 96       	cmp	r6,	r15	
    3f7e:	f7 3b       	jl	$-16     	;abs 0x3f6e
    3f80:	05 3c       	jmp	$+12     	;abs 0x3f8c
    3f82:	6f 48       	mov.b	@r8,	r15	
    3f84:	8f 11       	sxt	r15		
    3f86:	8a 12       	call	r10		
    3f88:	18 53       	inc	r8		
    3f8a:	1b 53       	inc	r11		
    3f8c:	c8 93 00 00 	tst.b	0(r8)		;0x0000(r8)
    3f90:	f8 23       	jnz	$-14     	;abs 0x3f82
    3f92:	04 3c       	jmp	$+10     	;abs 0x3f9c
    3f94:	3f 40 20 00 	mov	#32,	r15	;#0x0020
    3f98:	8a 12       	call	r10		
    3f9a:	1b 53       	inc	r11		
    3f9c:	0b 97       	cmp	r7,	r11	
    3f9e:	fa 2b       	jnc	$-10     	;abs 0x3f94
    3fa0:	0f 4b       	mov	r11,	r15	
    3fa2:	21 53       	incd	r1		
    3fa4:	34 41       	pop	r4		
    3fa6:	35 41       	pop	r5		
    3fa8:	36 41       	pop	r6		
    3faa:	37 41       	pop	r7		
    3fac:	38 41       	pop	r8		
    3fae:	39 41       	pop	r9		
    3fb0:	3a 41       	pop	r10		
    3fb2:	3b 41       	pop	r11		
    3fb4:	30 41       	ret			
    3fb6:	28 6e       	addc	@r14,	r8	
    3fb8:	75 6c       	addc.b	@r12+,	r5	
    3fba:	6c 29       	jnc	$+730    	;abs 0x4294
	...

00003fbe <vuprintf>:
    3fbe:	0b 12       	push	r11		
    3fc0:	0a 12       	push	r10		
    3fc2:	09 12       	push	r9		
    3fc4:	08 12       	push	r8		
    3fc6:	07 12       	push	r7		
    3fc8:	06 12       	push	r6		
    3fca:	05 12       	push	r5		
    3fcc:	04 12       	push	r4		
    3fce:	31 50 de ff 	add	#-34,	r1	;#0xffde
    3fd2:	81 4f 18 00 	mov	r15,	24(r1)	;0x0018(r1)
    3fd6:	81 4e 1a 00 	mov	r14,	26(r1)	;0x001a(r1)
    3fda:	81 4d 0e 00 	mov	r13,	14(r1)	;0x000e(r1)
    3fde:	81 43 10 00 	mov	#0,	16(r1)	;r3 As==00, 0x0010(r1)
    3fe2:	1a 41 10 00 	mov	16(r1),	r10	;0x0010(r1)
    3fe6:	81 4a 12 00 	mov	r10,	18(r1)	;0x0012(r1)
    3fea:	30 40 00 43 	br	#0x4300	
    3fee:	0a 93       	tst	r10		
    3ff0:	0b 20       	jnz	$+24     	;abs 0x4008
    3ff2:	7e 90 25 00 	cmp.b	#37,	r14	;#0x0025
    3ff6:	02 24       	jz	$+6      	;abs 0x3ffc
    3ff8:	30 40 ea 42 	br	#0x42ea	
    3ffc:	81 4a 00 00 	mov	r10,	0(r1)	;0x0000(r1)
    4000:	81 4a 10 00 	mov	r10,	16(r1)	;0x0010(r1)
    4004:	30 40 fa 42 	br	#0x42fa	
    4008:	7e 90 63 00 	cmp.b	#99,	r14	;#0x0063
    400c:	a3 24       	jz	$+328    	;abs 0x4154
    400e:	7f 40 63 00 	mov.b	#99,	r15	;#0x0063
    4012:	4f 9e       	cmp.b	r14,	r15	
    4014:	2a 38       	jl	$+86     	;abs 0x406a
    4016:	7e 90 30 00 	cmp.b	#48,	r14	;#0x0030
    401a:	78 24       	jz	$+242    	;abs 0x410c
    401c:	7f 50 cd ff 	add.b	#-51,	r15	;#0xffcd
    4020:	4f 9e       	cmp.b	r14,	r15	
    4022:	19 38       	jl	$+52     	;abs 0x4056
    4024:	7e 90 2a 00 	cmp.b	#42,	r14	;#0x002a
    4028:	5b 24       	jz	$+184    	;abs 0x40e0
    402a:	7f 50 fa ff 	add.b	#-6,	r15	;#0xfffa
    402e:	4f 9e       	cmp.b	r14,	r15	
    4030:	09 38       	jl	$+20     	;abs 0x4044
    4032:	7e 90 20 00 	cmp.b	#32,	r14	;#0x0020
    4036:	49 24       	jz	$+148    	;abs 0x40ca
    4038:	7e 90 23 00 	cmp.b	#35,	r14	;#0x0023
    403c:	02 24       	jz	$+6      	;abs 0x4042
    403e:	30 40 ea 42 	br	#0x42ea	
    4042:	32 3c       	jmp	$+102    	;abs 0x40a8
    4044:	7e 90 2b 00 	cmp.b	#43,	r14	;#0x002b
    4048:	3b 24       	jz	$+120    	;abs 0x40c0
    404a:	7e 90 2d 00 	cmp.b	#45,	r14	;#0x002d
    404e:	02 24       	jz	$+6      	;abs 0x4054
    4050:	30 40 ea 42 	br	#0x42ea	
    4054:	31 3c       	jmp	$+100    	;abs 0x40b8
    4056:	7f 40 39 00 	mov.b	#57,	r15	;#0x0039
    405a:	4f 9e       	cmp.b	r14,	r15	
    405c:	6c 34       	jge	$+218    	;abs 0x4136
    405e:	7e 90 58 00 	cmp.b	#88,	r14	;#0x0058
    4062:	02 24       	jz	$+6      	;abs 0x4068
    4064:	30 40 ea 42 	br	#0x42ea	
    4068:	a9 3c       	jmp	$+340    	;abs 0x41bc
    406a:	7e 90 70 00 	cmp.b	#112,	r14	;#0x0070
    406e:	8f 24       	jz	$+288    	;abs 0x418e
    4070:	7f 40 70 00 	mov.b	#112,	r15	;#0x0070
    4074:	4f 9e       	cmp.b	r14,	r15	
    4076:	0c 38       	jl	$+26     	;abs 0x4090
    4078:	7e 90 69 00 	cmp.b	#105,	r14	;#0x0069
    407c:	a3 24       	jz	$+328    	;abs 0x41c4
    407e:	7e 90 6c 00 	cmp.b	#108,	r14	;#0x006c
    4082:	16 24       	jz	$+46     	;abs 0x40b0
    4084:	7e 90 64 00 	cmp.b	#100,	r14	;#0x0064
    4088:	02 24       	jz	$+6      	;abs 0x408e
    408a:	30 40 ea 42 	br	#0x42ea	
    408e:	9a 3c       	jmp	$+310    	;abs 0x41c4
    4090:	7e 90 75 00 	cmp.b	#117,	r14	;#0x0075
    4094:	99 24       	jz	$+308    	;abs 0x41c8
    4096:	7e 90 78 00 	cmp.b	#120,	r14	;#0x0078
    409a:	99 24       	jz	$+308    	;abs 0x41ce
    409c:	7e 90 73 00 	cmp.b	#115,	r14	;#0x0073
    40a0:	02 24       	jz	$+6      	;abs 0x40a6
    40a2:	30 40 ea 42 	br	#0x42ea	
    40a6:	5d 3c       	jmp	$+188    	;abs 0x4162
    40a8:	f1 d2 00 00 	bis.b	#8,	0(r1)	;r2 As==11, 0x0000(r1)
    40ac:	30 40 fa 42 	br	#0x42fa	
    40b0:	d1 d3 00 00 	bis.b	#1,	0(r1)	;r3 As==01, 0x0000(r1)
    40b4:	30 40 fa 42 	br	#0x42fa	
    40b8:	e1 d2 00 00 	bis.b	#4,	0(r1)	;r2 As==10, 0x0000(r1)
    40bc:	30 40 fa 42 	br	#0x42fa	
    40c0:	f1 40 2b 00 	mov.b	#43,	1(r1)	;#0x002b, 0x0001(r1)
    40c4:	01 00 
    40c6:	30 40 fa 42 	br	#0x42fa	
    40ca:	f1 90 2b 00 	cmp.b	#43,	1(r1)	;#0x002b, 0x0001(r1)
    40ce:	01 00 
    40d0:	02 20       	jnz	$+6      	;abs 0x40d6
    40d2:	30 40 fa 42 	br	#0x42fa	
    40d6:	f1 40 20 00 	mov.b	#32,	1(r1)	;#0x0020, 0x0001(r1)
    40da:	01 00 
    40dc:	30 40 fa 42 	br	#0x42fa	
    40e0:	1c 41 0e 00 	mov	14(r1),	r12	;0x000e(r1)
    40e4:	2c 53       	incd	r12		
    40e6:	1f 41 0e 00 	mov	14(r1),	r15	;0x000e(r1)
    40ea:	2e 4f       	mov	@r15,	r14	
    40ec:	0e 93       	tst	r14		
    40ee:	03 38       	jl	$+8      	;abs 0x40f6
    40f0:	81 4e 10 00 	mov	r14,	16(r1)	;0x0010(r1)
    40f4:	07 3c       	jmp	$+16     	;abs 0x4104
    40f6:	e1 d2 00 00 	bis.b	#4,	0(r1)	;r2 As==10, 0x0000(r1)
    40fa:	3e e3       	inv	r14		
    40fc:	81 4e 10 00 	mov	r14,	16(r1)	;0x0010(r1)
    4100:	91 53 10 00 	inc	16(r1)		;0x0010(r1)
    4104:	81 4c 0e 00 	mov	r12,	14(r1)	;0x000e(r1)
    4108:	30 40 fa 42 	br	#0x42fa	
    410c:	81 93 10 00 	tst	16(r1)		;0x0010(r1)
    4110:	12 20       	jnz	$+38     	;abs 0x4136
    4112:	6b 41       	mov.b	@r1,	r11	
    4114:	6b f2       	and.b	#4,	r11	;r2 As==10
    4116:	5a 43       	mov.b	#1,	r10	;r3 As==01
    4118:	02 24       	jz	$+6      	;abs 0x411e
    411a:	5a 41 10 00 	mov.b	16(r1),	r10	;0x0010(r1)
    411e:	5a f3       	and.b	#1,	r10	;r3 As==01
    4120:	4a 5a       	rla.b	r10		
    4122:	4a 5a       	rla.b	r10		
    4124:	4a 5a       	rla.b	r10		
    4126:	4a 5a       	rla.b	r10		
    4128:	4a 5a       	rla.b	r10		
    412a:	6b 41       	mov.b	@r1,	r11	
    412c:	7b f0 df ff 	and.b	#-33,	r11	;#0xffdf
    4130:	4b da       	bis.b	r10,	r11	
    4132:	c1 4b 00 00 	mov.b	r11,	0(r1)	;0x0000(r1)
    4136:	1b 41 10 00 	mov	16(r1),	r11	;0x0010(r1)
    413a:	0b 5b       	rla	r11		
    413c:	0b 5b       	rla	r11		
    413e:	1b 51 10 00 	add	16(r1),	r11	;0x0010(r1)
    4142:	0b 5b       	rla	r11		
    4144:	8e 11       	sxt	r14		
    4146:	3e 50 d0 ff 	add	#-48,	r14	;#0xffd0
    414a:	81 4e 10 00 	mov	r14,	16(r1)	;0x0010(r1)
    414e:	81 5b 10 00 	add	r11,	16(r1)	;0x0010(r1)
    4152:	d3 3c       	jmp	$+424    	;abs 0x42fa
    4154:	1f 41 0e 00 	mov	14(r1),	r15	;0x000e(r1)
    4158:	6e 4f       	mov.b	@r15,	r14	
    415a:	2f 53       	incd	r15		
    415c:	81 4f 0e 00 	mov	r15,	14(r1)	;0x000e(r1)
    4160:	c4 3c       	jmp	$+394    	;abs 0x42ea
    4162:	1b 41 0e 00 	mov	14(r1),	r11	;0x000e(r1)
    4166:	2b 53       	incd	r11		
    4168:	1f 41 0e 00 	mov	14(r1),	r15	;0x000e(r1)
    416c:	2e 4f       	mov	@r15,	r14	
    416e:	0e 93       	tst	r14		
    4170:	02 20       	jnz	$+6      	;abs 0x4176
    4172:	3e 40 b6 3f 	mov	#16310,	r14	;#0x3fb6
    4176:	2c 41       	mov	@r1,	r12	
    4178:	1d 41 10 00 	mov	16(r1),	r13	;0x0010(r1)
    417c:	1f 41 18 00 	mov	24(r1),	r15	;0x0018(r1)
    4180:	b0 12 b2 3e 	call	#0x3eb2	
    4184:	81 5f 12 00 	add	r15,	18(r1)	;0x0012(r1)
    4188:	81 4b 0e 00 	mov	r11,	14(r1)	;0x000e(r1)
    418c:	b4 3c       	jmp	$+362    	;abs 0x42f6
    418e:	1f 41 0e 00 	mov	14(r1),	r15	;0x000e(r1)
    4192:	a1 4f 14 00 	mov	@r15,	20(r1)	;0x0014(r1)
    4196:	1f 41 14 00 	mov	20(r1),	r15	;0x0014(r1)
    419a:	8f 10       	swpb	r15		
    419c:	8f 11       	sxt	r15		
    419e:	8f 10       	swpb	r15		
    41a0:	8f 11       	sxt	r15		
    41a2:	81 4f 16 00 	mov	r15,	22(r1)	;0x0016(r1)
    41a6:	15 41 14 00 	mov	20(r1),	r5	;0x0014(r1)
    41aa:	16 41 16 00 	mov	22(r1),	r6	;0x0016(r1)
    41ae:	35 f3       	and	#-1,	r5	;r3 As==11
    41b0:	06 f3       	and	#0,	r6	;r3 As==00
    41b2:	f1 d2 00 00 	bis.b	#8,	0(r1)	;r2 As==11, 0x0000(r1)
    41b6:	a1 53 0e 00 	incd	14(r1)		;0x000e(r1)
    41ba:	30 3c       	jmp	$+98     	;abs 0x421c
    41bc:	f1 d0 40 00 	bis.b	#64,	0(r1)	;#0x0040, 0x0000(r1)
    41c0:	00 00 
    41c2:	05 3c       	jmp	$+12     	;abs 0x41ce
    41c4:	e1 d3 00 00 	bis.b	#2,	0(r1)	;r3 As==10, 0x0000(r1)
    41c8:	34 40 0a 00 	mov	#10,	r4	;#0x000a
    41cc:	02 3c       	jmp	$+6      	;abs 0x41d2
    41ce:	34 40 10 00 	mov	#16,	r4	;#0x0010
    41d2:	6b 41       	mov.b	@r1,	r11	
    41d4:	4c 4b       	mov.b	r11,	r12	
    41d6:	5c f3       	and.b	#1,	r12	;r3 As==01
    41d8:	09 24       	jz	$+20     	;abs 0x41ec
    41da:	1f 41 0e 00 	mov	14(r1),	r15	;0x000e(r1)
    41de:	25 4f       	mov	@r15,	r5	
    41e0:	16 4f 02 00 	mov	2(r15),	r6	;0x0002(r15)
    41e4:	2f 52       	add	#4,	r15	;r2 As==10
    41e6:	81 4f 0e 00 	mov	r15,	14(r1)	;0x000e(r1)
    41ea:	15 3c       	jmp	$+44     	;abs 0x4216
    41ec:	6b f3       	and.b	#2,	r11	;r3 As==10
    41ee:	1a 41 0e 00 	mov	14(r1),	r10	;0x000e(r1)
    41f2:	2a 53       	incd	r10		
    41f4:	4b 9c       	cmp.b	r12,	r11	
    41f6:	09 24       	jz	$+20     	;abs 0x420a
    41f8:	1f 41 0e 00 	mov	14(r1),	r15	;0x000e(r1)
    41fc:	25 4f       	mov	@r15,	r5	
    41fe:	06 45       	mov	r5,	r6	
    4200:	86 10       	swpb	r6		
    4202:	86 11       	sxt	r6		
    4204:	86 10       	swpb	r6		
    4206:	86 11       	sxt	r6		
    4208:	04 3c       	jmp	$+10     	;abs 0x4212
    420a:	1f 41 0e 00 	mov	14(r1),	r15	;0x000e(r1)
    420e:	25 4f       	mov	@r15,	r5	
    4210:	06 43       	clr	r6		
    4212:	81 4a 0e 00 	mov	r10,	14(r1)	;0x000e(r1)
    4216:	34 90 10 00 	cmp	#16,	r4	;#0x0010
    421a:	0c 20       	jnz	$+26     	;abs 0x4234
    421c:	05 93       	tst	r5		
    421e:	02 20       	jnz	$+6      	;abs 0x4224
    4220:	06 93       	tst	r6		
    4222:	06 24       	jz	$+14     	;abs 0x4230
    4224:	f1 b2 00 00 	bit.b	#8,	0(r1)	;r2 As==11, 0x0000(r1)
    4228:	03 24       	jz	$+8      	;abs 0x4230
    422a:	f1 d0 10 00 	bis.b	#16,	0(r1)	;#0x0010, 0x0000(r1)
    422e:	00 00 
    4230:	34 40 10 00 	mov	#16,	r4	;#0x0010
    4234:	e1 b3 00 00 	bit.b	#2,	0(r1)	;r3 As==10, 0x0000(r1)
    4238:	09 24       	jz	$+20     	;abs 0x424c
    423a:	06 93       	tst	r6		
    423c:	07 34       	jge	$+16     	;abs 0x424c
    423e:	f1 40 2d 00 	mov.b	#45,	1(r1)	;#0x002d, 0x0001(r1)
    4242:	01 00 
    4244:	35 e3       	inv	r5		
    4246:	36 e3       	inv	r6		
    4248:	15 53       	inc	r5		
    424a:	06 63       	adc	r6		
    424c:	c1 43 0d 00 	mov.b	#0,	13(r1)	;r3 As==00, 0x000d(r1)
    4250:	6f 41       	mov.b	@r1,	r15	
    4252:	7f f0 40 00 	and.b	#64,	r15	;#0x0040
    4256:	c1 4f 1e 00 	mov.b	r15,	30(r1)	;0x001e(r1)
    425a:	07 41       	mov	r1,	r7	
    425c:	37 50 0b 00 	add	#11,	r7	;#0x000b
    4260:	0f 44       	mov	r4,	r15	
    4262:	8f 10       	swpb	r15		
    4264:	8f 11       	sxt	r15		
    4266:	8f 10       	swpb	r15		
    4268:	8f 11       	sxt	r15		
    426a:	81 4f 1c 00 	mov	r15,	28(r1)	;0x001c(r1)
    426e:	0f 47       	mov	r7,	r15	
    4270:	1f 53       	inc	r15		
    4272:	81 4f 20 00 	mov	r15,	32(r1)	;0x0020(r1)
    4276:	0c 45       	mov	r5,	r12	
    4278:	0d 46       	mov	r6,	r13	
    427a:	0a 44       	mov	r4,	r10	
    427c:	1b 41 1c 00 	mov	28(r1),	r11	;0x001c(r1)
    4280:	b0 12 7a 43 	call	#0x437a	
    4284:	3f 40 09 00 	mov	#9,	r15	;#0x0009
    4288:	0f 9e       	cmp	r14,	r15	
    428a:	05 38       	jl	$+12     	;abs 0x4296
    428c:	7e 50 30 00 	add.b	#48,	r14	;#0x0030
    4290:	c7 4e 01 00 	mov.b	r14,	1(r7)	;0x0001(r7)
    4294:	0b 3c       	jmp	$+24     	;abs 0x42ac
    4296:	c1 93 1e 00 	tst.b	30(r1)		;0x001e(r1)
    429a:	03 24       	jz	$+8      	;abs 0x42a2
    429c:	7f 40 37 00 	mov.b	#55,	r15	;#0x0037
    42a0:	02 3c       	jmp	$+6      	;abs 0x42a6
    42a2:	7f 40 57 00 	mov.b	#87,	r15	;#0x0057
    42a6:	4f 5e       	add.b	r14,	r15	
    42a8:	c7 4f 01 00 	mov.b	r15,	1(r7)	;0x0001(r7)
    42ac:	0c 45       	mov	r5,	r12	
    42ae:	0d 46       	mov	r6,	r13	
    42b0:	0a 44       	mov	r4,	r10	
    42b2:	1b 41 1c 00 	mov	28(r1),	r11	;0x001c(r1)
    42b6:	b0 12 7a 43 	call	#0x437a	
    42ba:	05 4c       	mov	r12,	r5	
    42bc:	06 4d       	mov	r13,	r6	
    42be:	37 53       	add	#-1,	r7	;r3 As==11
    42c0:	0c 93       	tst	r12		
    42c2:	d5 23       	jnz	$-84     	;abs 0x426e
    42c4:	06 93       	tst	r6		
    42c6:	d3 23       	jnz	$-88     	;abs 0x426e
    42c8:	34 90 0a 00 	cmp	#10,	r4	;#0x000a
    42cc:	02 24       	jz	$+6      	;abs 0x42d2
    42ce:	c1 43 01 00 	mov.b	#0,	1(r1)	;r3 As==00, 0x0001(r1)
    42d2:	2c 41       	mov	@r1,	r12	
    42d4:	1d 41 10 00 	mov	16(r1),	r13	;0x0010(r1)
    42d8:	1e 41 20 00 	mov	32(r1),	r14	;0x0020(r1)
    42dc:	1f 41 18 00 	mov	24(r1),	r15	;0x0018(r1)
    42e0:	b0 12 b2 3e 	call	#0x3eb2	
    42e4:	81 5f 12 00 	add	r15,	18(r1)	;0x0012(r1)
    42e8:	06 3c       	jmp	$+14     	;abs 0x42f6
    42ea:	8e 11       	sxt	r14		
    42ec:	0f 4e       	mov	r14,	r15	
    42ee:	91 12 1a 00 	call	26(r1)		;0x001a(r1)
    42f2:	91 53 12 00 	inc	18(r1)		;0x0012(r1)
    42f6:	0a 43       	clr	r10		
    42f8:	01 3c       	jmp	$+4      	;abs 0x42fc
    42fa:	1a 43       	mov	#1,	r10	;r3 As==01
    42fc:	91 53 1a 00 	inc	26(r1)		;0x001a(r1)
    4300:	1f 41 1a 00 	mov	26(r1),	r15	;0x001a(r1)
    4304:	6e 4f       	mov.b	@r15,	r14	
    4306:	4e 93       	tst.b	r14		
    4308:	02 24       	jz	$+6      	;abs 0x430e
    430a:	30 40 ee 3f 	br	#0x3fee	
    430e:	1f 41 12 00 	mov	18(r1),	r15	;0x0012(r1)
    4312:	31 50 22 00 	add	#34,	r1	;#0x0022
    4316:	34 41       	pop	r4		
    4318:	35 41       	pop	r5		
    431a:	36 41       	pop	r6		
    431c:	37 41       	pop	r7		
    431e:	38 41       	pop	r8		
    4320:	39 41       	pop	r9		
    4322:	3a 41       	pop	r10		
    4324:	3b 41       	pop	r11		
    4326:	30 41       	ret			

00004328 <__divmodhi4>:
    4328:	0d 43       	clr	r13		
    432a:	3c b0 00 80 	bit	#-32768,r12	;#0x8000
    432e:	03 28       	jnc	$+8      	;abs 0x4336
    4330:	3c e3       	inv	r12		
    4332:	1c 53       	inc	r12		
    4334:	2d d2       	bis	#4,	r13	;r2 As==10
    4336:	3a b0 00 80 	bit	#-32768,r10	;#0x8000
    433a:	03 28       	jnc	$+8      	;abs 0x4342
    433c:	3a e3       	inv	r10		
    433e:	1a 53       	inc	r10		
    4340:	3d d2       	bis	#8,	r13	;r2 As==11
    4342:	b0 12 5e 43 	call	#0x435e	
    4346:	0d 10       	rrc	r13		
    4348:	2d b2       	bit	#4,	r13	;r2 As==10
    434a:	04 28       	jnc	$+10     	;abs 0x4354
    434c:	3e e3       	inv	r14		
    434e:	1e 53       	inc	r14		
    4350:	3c e3       	inv	r12		
    4352:	1c 53       	inc	r12		
    4354:	3d b2       	bit	#8,	r13	;r2 As==11
    4356:	02 28       	jnc	$+6      	;abs 0x435c
    4358:	3c e3       	inv	r12		
    435a:	1c 53       	inc	r12		
    435c:	30 41       	ret			

0000435e <__udivmodhi4>:
    435e:	0e ee       	xor	r14,	r14	
    4360:	3b 40 11 00 	mov	#17,	r11	;#0x0011
    4364:	05 3c       	jmp	$+12     	;abs 0x4370
    4366:	0d 10       	rrc	r13		
    4368:	0e 6e       	rlc	r14		
    436a:	0e 9a       	cmp	r10,	r14	
    436c:	01 28       	jnc	$+4      	;abs 0x4370
    436e:	0e 8a       	sub	r10,	r14	
    4370:	0c 6c       	rlc	r12		
    4372:	0d 6d       	rlc	r13		
    4374:	1b 83       	dec	r11		
    4376:	f7 23       	jnz	$-16     	;abs 0x4366
    4378:	30 41       	ret			

0000437a <__udivmodsi4>:
    437a:	0f ef       	xor	r15,	r15	
    437c:	0e ee       	xor	r14,	r14	
    437e:	39 40 21 00 	mov	#33,	r9	;#0x0021
    4382:	0a 3c       	jmp	$+22     	;abs 0x4398
    4384:	08 10       	rrc	r8		
    4386:	0e 6e       	rlc	r14		
    4388:	0f 6f       	rlc	r15		
    438a:	0f 9b       	cmp	r11,	r15	
    438c:	05 28       	jnc	$+12     	;abs 0x4398
    438e:	02 20       	jnz	$+6      	;abs 0x4394
    4390:	0e 9a       	cmp	r10,	r14	
    4392:	02 28       	jnc	$+6      	;abs 0x4398
    4394:	0e 8a       	sub	r10,	r14	
    4396:	0f 7b       	subc	r11,	r15	
    4398:	0c 6c       	rlc	r12		
    439a:	0d 6d       	rlc	r13		
    439c:	08 68       	rlc	r8		
    439e:	19 83       	dec	r9		
    43a0:	f1 23       	jnz	$-28     	;abs 0x4384
    43a2:	30 41       	ret			

000043a4 <_unexpected_>:
    43a4:	00 13       	reti			

Disassembly of section .data:

00001100 <__data_start>:
    1100:	0c 35       	jge	$+538    	;abs 0x131a

00001102 <motor_inc_txt>:
    1102:	38 35       	jge	$+626    	;abs 0x1374

00001104 <testing_txt>:
    1104:	63 35       	jge	$+712    	;abs 0x13cc

00001106 <calibrate_esc_txt>:
    1106:	70 35       	jge	$+738    	;abs 0x13e8

00001108 <calibrate_load_txt>:
    1108:	84 35       	jge	$+778    	;abs 0x1412

0000110a <calibrate_current_txt>:
    110a:	a4 35       	jge	$+842    	;abs 0x1454

0000110c <calibrate_light_txt>:
    110c:	c7 35       	jge	$+912    	;abs 0x149c

0000110e <startup_txt>:
    110e:	e9 35       	jge	$+980    	;abs 0x14e2

00001110 <params_saved_txt>:
    1110:	12 36       	jge	$-986    	;abs 0xd36

00001112 <params_not_saved_txt>:
    1112:	28 36       	jge	$-942    	;abs 0xd64

00001114 <showmenu_txt>:
    1114:	48 36       	jge	$-878    	;abs 0xda6

00001116 <eeprom_not_found_txt>:
    1116:	af 36       	jge	$-672    	;abs 0xe76

Disassembly of section .bss:

00001118 <EEPROMFound>:
	...

0000111a <AnalogOffset>:
	...

0000112a <AnalogValue>:
	...

0000113a <TimeDelay>:
	...

Disassembly of section .vectors:

0000ffc0 <__ivtbl_32>:
    ffc0:	46 33       	jn	$-370    	;abs 0xfe4e
    ffc2:	46 33       	jn	$-370    	;abs 0xfe50
    ffc4:	46 33       	jn	$-370    	;abs 0xfe52
    ffc6:	46 33       	jn	$-370    	;abs 0xfe54
    ffc8:	46 33       	jn	$-370    	;abs 0xfe56
    ffca:	46 33       	jn	$-370    	;abs 0xfe58
    ffcc:	46 33       	jn	$-370    	;abs 0xfe5a
    ffce:	46 33       	jn	$-370    	;abs 0xfe5c
    ffd0:	46 33       	jn	$-370    	;abs 0xfe5e
    ffd2:	46 33       	jn	$-370    	;abs 0xfe60
    ffd4:	46 33       	jn	$-370    	;abs 0xfe62
    ffd6:	46 33       	jn	$-370    	;abs 0xfe64
    ffd8:	46 33       	jn	$-370    	;abs 0xfe66
    ffda:	46 33       	jn	$-370    	;abs 0xfe68
    ffdc:	46 33       	jn	$-370    	;abs 0xfe6a
    ffde:	46 33       	jn	$-370    	;abs 0xfe6c
    ffe0:	46 33       	jn	$-370    	;abs 0xfe6e
    ffe2:	46 33       	jn	$-370    	;abs 0xfe70
    ffe4:	46 33       	jn	$-370    	;abs 0xfe72
    ffe6:	46 33       	jn	$-370    	;abs 0xfe74
    ffe8:	46 33       	jn	$-370    	;abs 0xfe76
    ffea:	46 33       	jn	$-370    	;abs 0xfe78
    ffec:	46 33       	jn	$-370    	;abs 0xfe7a
    ffee:	46 33       	jn	$-370    	;abs 0xfe7c
    fff0:	e0 34       	jge	$+450    	;abs 0x1b2
    fff2:	46 33       	jn	$-370    	;abs 0xfe80
    fff4:	46 33       	jn	$-370    	;abs 0xfe82
    fff6:	46 33       	jn	$-370    	;abs 0xfe84
    fff8:	46 33       	jn	$-370    	;abs 0xfe86
    fffa:	46 33       	jn	$-370    	;abs 0xfe88
    fffc:	46 33       	jn	$-370    	;abs 0xfe8a
    fffe:	00 31       	jn	$+514    	;abs 0x200

Disassembly of section .debug_aranges:

00000000 <.debug_aranges>:
   0:	14 00       	mova	#0x00000,r4	
   2:	00 00       	bra	@r0		
   4:	02 00       	mova	@r0,	r2	
   6:	00 00       	bra	@r0		
   8:	00 00       	bra	@r0		
   a:	02 00       	mova	@r0,	r2	
   c:	4a 33       	jn	$-362    	;abs 0xfea2
   e:	79 03 38 31 	mova	#0,	12600(r9);r3 As==00, 0x3138(r9)
  12:	08 02       	mova	#4,	r8	;r2 As==10
  14:	00 00       	bra	@r0		
  16:	00 00       	bra	@r0		
  18:	10 00       	bra	#0x00000	
  1a:	00 00       	bra	@r0		
  1c:	02 00       	mova	@r0,	r2	
  1e:	4d 08       	rrcm.a	#3,	r13	
  20:	00 00       	bra	@r0		
  22:	02 00       	mova	@r0,	r2	
  24:	c4 36       	jge	$-630    	;abs 0xfdae
  26:	4c 00       	rrcm.a	#1,	r12	
  28:	00 00       	bra	@r0		
  2a:	00 00       	bra	@r0		
  2c:	10 00       	bra	#0x00000	
  2e:	00 00       	bra	@r0		
  30:	02 00       	mova	@r0,	r2	
  32:	0c 0a       	mova	@r10,	r12	
  34:	00 00       	bra	@r0		
  36:	02 00       	mova	@r0,	r2	
  38:	10 37       	jge	$-478    	;abs 0xfe5a
  3a:	2c 06 00 00 	mova	&0x60000,r12	
  3e:	00 00       	bra	@r0		
  40:	10 00       	bra	#0x00000	
  42:	00 00       	bra	@r0		
  44:	02 00       	mova	@r0,	r2	
  46:	dd 14       	pushm.a	#14,	r13	
  48:	00 00       	bra	@r0		
  4a:	02 00       	mova	@r0,	r2	
  4c:	3c 3d       	jmp	$+634    	;abs 0x2c6
  4e:	14 01       	mova	@r1+,	r4	
  50:	00 00       	bra	@r0		
  52:	00 00       	bra	@r0		
  54:	10 00       	bra	#0x00000	
  56:	00 00       	bra	@r0		
  58:	02 00       	mova	@r0,	r2	
  5a:	98 16       	popm.a	#10,	r1	
  5c:	00 00       	bra	@r0		
  5e:	02 00       	mova	@r0,	r2	
  60:	50 3e       	jmp	$-862    	;abs 0xfd02
  62:	42 00       	rrcm.a	#1,	r2	
  64:	00 00       	bra	@r0		
  66:	00 00       	bra	@r0		
  68:	10 00       	bra	#0x00000	
  6a:	00 00       	bra	@r0		
  6c:	02 00       	mova	@r0,	r2	
  6e:	3e 18       	.word	0x183e;	????	
  70:	00 00       	bra	@r0		
  72:	02 00       	mova	@r0,	r2	
  74:	92 3e       	jmp	$-730    	;abs 0xfd9a
  76:	20 00 00 00 	bra	&0x00000	
  7a:	00 00       	bra	@r0		
  7c:	10 00       	bra	#0x00000	
  7e:	00 00       	bra	@r0		
  80:	02 00       	mova	@r0,	r2	
  82:	41 19       	.word	0x1941;	????	
  84:	00 00       	bra	@r0		
  86:	02 00       	mova	@r0,	r2	
  88:	b2 3e       	jmp	$-666    	;abs 0xfdee
  8a:	76 04 00 00 	mova	r4,	0(r6)	;0x0000(r6)
	...

Disassembly of section .debug_pubnames:

00000000 <.debug_pubnames>:
   0:	92 01 00 00 	cmpa	#0x10000,r2	
   4:	02 00       	mova	@r0,	r2	
   6:	00 00       	bra	@r0		
   8:	00 00       	bra	@r0		
   a:	4d 08       	rrcm.a	#3,	r13	
   c:	00 00       	bra	@r0		
   e:	04 01       	mova	@r1,	r4	
  10:	00 00       	bra	@r0		
  12:	70 75       	subc.b	@r5+,	r0	
  14:	74 63       	addc.b	#-1,	r4	;r3 As==11
  16:	68 61       	addc.b	@r1,	r8	
  18:	72 00 2a 01 	mova	r0,	&0x012a	
  1c:	00 00       	bra	@r0		
  1e:	6c 6f       	addc.b	@r15,	r12	
  20:	61 64       	addc.b	@r4,	r1	
  22:	5f 70 61 72 	subc.b	0x7261,	r15	;PC rel. 0x07287
  26:	61 6d       	addc.b	@r13,	r1	
  28:	73 00       	.word	0x0073;	????	Illegal as address instr
  2a:	60 01 00 00 	mova	r1,	&0x00000
  2e:	73 61       	.word	0x6173;	????	Illegal as 2-op instr
  30:	76 65       	addc.b	@r5+,	r6	
  32:	5f 70 61 72 	subc.b	0x7261,	r15	;PC rel. 0x07297
  36:	61 6d       	addc.b	@r13,	r1	
  38:	73 00       	.word	0x0073;	????	Illegal as address instr
  3a:	75 01 00 00 	mova	r1,	0(r5)	;0x0000(r5)
  3e:	63 6c       	.word	0x6c63;	????	Illegal as 2-op instr
  40:	6f 63       	addc.b	#2,	r15	;r3 As==10
  42:	6b 5f       	add.b	@r15,	r11	
  44:	69 6e       	addc.b	@r14,	r9	
  46:	69 74       	subc.b	@r4,	r9	
  48:	00 81       	sub	r1,	r0	
  4a:	01 00       	mova	@r0,	r1	
  4c:	00 73       	sbc	r0		
  4e:	65 6e       	addc.b	@r14,	r5	
  50:	64 5f       	add.b	@r15,	r4	
  52:	64 61       	addc.b	@r1,	r4	
  54:	74 61       	addc.b	@r1+,	r4	
  56:	00 a6       	dadd	r6,	r0	
  58:	01 00       	mova	@r0,	r1	
  5a:	00 63       	adc	r0		
  5c:	61 6c       	addc.b	@r12,	r1	
  5e:	69 62       	addc.b	#4,	r9	;r2 As==10
  60:	72 61       	addc.b	@r1+,	r2	
  62:	74 65       	addc.b	@r5+,	r4	
  64:	5f 65 73 63 	addc.b	25459(r5),r15	;0x6373(r5)
  68:	00 b2       	bit	r2,	r0	
  6a:	01 00       	mova	@r0,	r1	
  6c:	00 74       	subc	r4,	r0	
  6e:	69 6d       	addc.b	@r13,	r9	
  70:	65 72       	subc.b	#4,	r5	;r2 As==10
  72:	5f 69 6e 69 	addc.b	26990(r9),r15	;0x696e(r9)
  76:	74 00 c3 01 	mova	r0,	451(r4)	;0x01c3(r4)
  7a:	00 00       	bra	@r0		
  7c:	6d 61       	addc.b	@r1,	r13	
  7e:	69 6e       	addc.b	@r14,	r9	
  80:	00 42       	br	r2		
  82:	02 00       	mova	@r0,	r2	
  84:	00 54       	add	r4,	r0	
  86:	49 4d       	mov.b	r13,	r9	
  88:	45 52       	add.b	r2,	r5	
  8a:	41 31       	jn	$+644    	;abs 0x30e
  8c:	5f 49 53 52 	mov.b	21075(r9),r15	;0x5253(r9)
  90:	5f 48 4f 4f 	mov.b	20303(r8),r15	;0x4f4f(r8)
  94:	4b 00       	rrcm.a	#1,	r11	
  96:	8c 07 00 00 	mova	#0x70000,r12	
  9a:	6d 6f       	addc.b	@r15,	r13	
  9c:	74 6f       	addc.b	@r15+,	r4	
  9e:	72 5f       	add.b	@r15+,	r2	
  a0:	73 74       	.word	0x7473;	????	Illegal as 2-op instr
  a2:	61 62       	addc.b	#4,	r1	;r2 As==10
  a4:	5f 74 78 74 	subc.b	29816(r4),r15	;0x7478(r4)
  a8:	00 9c       	cmp	r12,	r0	
  aa:	07 00       	mova	@r0,	r7	
  ac:	00 6d       	addc	r13,	r0	
  ae:	6f 74       	subc.b	@r4,	r15	
  b0:	6f 72       	subc.b	#4,	r15	;r2 As==10
  b2:	5f 69 6e 63 	addc.b	25454(r9),r15	;0x636e(r9)
  b6:	5f 74 78 74 	subc.b	29816(r4),r15	;0x7478(r4)
  ba:	00 ac       	dadd	r12,	r0	
  bc:	07 00       	mova	@r0,	r7	
  be:	00 74       	subc	r4,	r0	
  c0:	65 73       	subc.b	#2,	r5	;r3 As==10
  c2:	74 69       	addc.b	@r9+,	r4	
  c4:	6e 67       	addc.b	@r7,	r14	
  c6:	5f 74 78 74 	subc.b	29816(r4),r15	;0x7478(r4)
  ca:	00 bc       	bit	r12,	r0	
  cc:	07 00       	mova	@r0,	r7	
  ce:	00 63       	adc	r0		
  d0:	61 6c       	addc.b	@r12,	r1	
  d2:	69 62       	addc.b	#4,	r9	;r2 As==10
  d4:	72 61       	addc.b	@r1+,	r2	
  d6:	74 65       	addc.b	@r5+,	r4	
  d8:	5f 65 73 63 	addc.b	25459(r5),r15	;0x6373(r5)
  dc:	5f 74 78 74 	subc.b	29816(r4),r15	;0x7478(r4)
  e0:	00 cc       	bic	r12,	r0	
  e2:	07 00       	mova	@r0,	r7	
  e4:	00 63       	adc	r0		
  e6:	61 6c       	addc.b	@r12,	r1	
  e8:	69 62       	addc.b	#4,	r9	;r2 As==10
  ea:	72 61       	addc.b	@r1+,	r2	
  ec:	74 65       	addc.b	@r5+,	r4	
  ee:	5f 6c 6f 61 	addc.b	24943(r12),r15	;0x616f(r12)
  f2:	64 5f       	add.b	@r15,	r4	
  f4:	74 78       	subc.b	@r8+,	r4	
  f6:	74 00 dc 07 	mova	r0,	2012(r4);0x07dc(r4)
  fa:	00 00       	bra	@r0		
  fc:	63 61       	.word	0x6163;	????	Illegal as 2-op instr
  fe:	6c 69       	addc.b	@r9,	r12	
 100:	62 72       	subc.b	#4,	r2	;r2 As==10
 102:	61 74       	subc.b	@r4,	r1	
 104:	65 5f       	add.b	@r15,	r5	
 106:	63 75       	.word	0x7563;	????	Illegal as 2-op instr
 108:	72 72       	subc.b	#8,	r2	;r2 As==11
 10a:	65 6e       	addc.b	@r14,	r5	
 10c:	74 5f       	add.b	@r15+,	r4	
 10e:	74 78       	subc.b	@r8+,	r4	
 110:	74 00 ec 07 	mova	r0,	2028(r4);0x07ec(r4)
 114:	00 00       	bra	@r0		
 116:	63 61       	.word	0x6163;	????	Illegal as 2-op instr
 118:	6c 69       	addc.b	@r9,	r12	
 11a:	62 72       	subc.b	#4,	r2	;r2 As==10
 11c:	61 74       	subc.b	@r4,	r1	
 11e:	65 5f       	add.b	@r15,	r5	
 120:	6c 69       	addc.b	@r9,	r12	
 122:	67 68       	addc.b	@r8,	r7	
 124:	74 5f       	add.b	@r15+,	r4	
 126:	74 78       	subc.b	@r8+,	r4	
 128:	74 00 fc 07 	mova	r0,	2044(r4);0x07fc(r4)
 12c:	00 00       	bra	@r0		
 12e:	73 74       	.word	0x7473;	????	Illegal as 2-op instr
 130:	61 72       	subc.b	#4,	r1	;r2 As==10
 132:	74 75       	subc.b	@r5+,	r4	
 134:	70 5f       	add.b	@r15+,	r0	
 136:	74 78       	subc.b	@r8+,	r4	
 138:	74 00 0c 08 	mova	r0,	2060(r4);0x080c(r4)
 13c:	00 00       	bra	@r0		
 13e:	70 61       	addc.b	@r1+,	r0	
 140:	72 61       	addc.b	@r1+,	r2	
 142:	6d 73       	subc.b	#2,	r13	;r3 As==10
 144:	5f 73       	subc.b	#1,	r15	;r3 As==01
 146:	61 76       	subc.b	@r6,	r1	
 148:	65 64       	addc.b	@r4,	r5	
 14a:	5f 74 78 74 	subc.b	29816(r4),r15	;0x7478(r4)
 14e:	00 1c       	.word	0x1c00;	????	
 150:	08 00       	mova	@r0,	r8	
 152:	00 70       	subc	r0,	r0	
 154:	61 72       	subc.b	#4,	r1	;r2 As==10
 156:	61 6d       	addc.b	@r13,	r1	
 158:	73 5f       	.word	0x5f73;	????	Illegal as 2-op instr
 15a:	6e 6f       	addc.b	@r15,	r14	
 15c:	74 5f       	add.b	@r15+,	r4	
 15e:	73 61       	.word	0x6173;	????	Illegal as 2-op instr
 160:	76 65       	addc.b	@r5+,	r6	
 162:	64 5f       	add.b	@r15,	r4	
 164:	74 78       	subc.b	@r8+,	r4	
 166:	74 00 2c 08 	mova	r0,	2092(r4);0x082c(r4)
 16a:	00 00       	bra	@r0		
 16c:	73 68       	.word	0x6873;	????	Illegal as 2-op instr
 16e:	6f 77       	subc.b	@r7,	r15	
 170:	6d 65       	addc.b	@r5,	r13	
 172:	6e 75       	subc.b	@r5,	r14	
 174:	5f 74 78 74 	subc.b	29816(r4),r15	;0x7478(r4)
 178:	00 3c       	jmp	$+2      	;abs 0x17a
 17a:	08 00       	mova	@r0,	r8	
 17c:	00 65       	addc	r5,	r0	
 17e:	65 70       	subc.b	@r0,	r5	
 180:	72 6f       	addc.b	@r15+,	r2	
 182:	6d 5f       	add.b	@r15,	r13	
 184:	6e 6f       	addc.b	@r15,	r14	
 186:	74 5f       	add.b	@r15+,	r4	
 188:	66 6f       	addc.b	@r15,	r6	
 18a:	75 6e       	addc.b	@r14+,	r5	
 18c:	64 5f       	add.b	@r15,	r4	
 18e:	74 78       	subc.b	@r8+,	r4	
 190:	74 00 00 00 	mova	r0,	0(r4)	;0x0000(r4)
 194:	00 00       	bra	@r0		
 196:	6a 00 00 00 	mova	r0,	&0xa0000
 19a:	02 00       	mova	@r0,	r2	
 19c:	4d 08       	rrcm.a	#3,	r13	
 19e:	00 00       	bra	@r0		
 1a0:	6a 01 00 00 	mova	r1,	&0xa0000
 1a4:	21 00 00 00 	mova	&0x00000,r1	
 1a8:	64 65       	addc.b	@r5,	r4	
 1aa:	6c 61       	addc.b	@r1,	r12	
 1ac:	79 32       	jn	$-780    	;abs 0xfea0
 1ae:	75 73       	subc.b	#-1,	r5	;r3 As==11
 1b0:	00 49       	br	r9		
 1b2:	00 00       	bra	@r0		
 1b4:	00 64       	addc	r4,	r0	
 1b6:	65 6c       	addc.b	@r12,	r5	
 1b8:	61 79       	subc.b	@r9,	r1	
 1ba:	35 75       	subc	@r5+,	r5	
 1bc:	73 00       	.word	0x0073;	????	Illegal as address instr
 1be:	6a 00 00 00 	mova	r0,	&0xa0000
 1c2:	64 65       	addc.b	@r5,	r4	
 1c4:	6c 61       	addc.b	@r1,	r12	
 1c6:	79 75       	subc.b	@r5+,	r9	
 1c8:	73 00       	.word	0x0073;	????	Illegal as address instr
 1ca:	a0 00 00 00 	adda	#0x00000,r0	
 1ce:	64 65       	addc.b	@r5,	r4	
 1d0:	6c 61       	addc.b	@r1,	r12	
 1d2:	79 6d       	addc.b	@r13+,	r9	
 1d4:	73 00       	.word	0x0073;	????	Illegal as address instr
 1d6:	d2 00       	cmpa	r0,	r2	
 1d8:	00 00       	bra	@r0		
 1da:	73 65       	.word	0x6573;	????	Illegal as 2-op instr
 1dc:	74 5f       	add.b	@r15+,	r4	
 1de:	64 65       	addc.b	@r5,	r4	
 1e0:	6c 61       	addc.b	@r1,	r12	
 1e2:	79 00 03 01 	mova	r0,	259(r9)	;0x0103(r9)
 1e6:	00 00       	bra	@r0		
 1e8:	67 65       	addc.b	@r5,	r7	
 1ea:	74 5f       	add.b	@r15+,	r4	
 1ec:	64 65       	addc.b	@r5,	r4	
 1ee:	6c 61       	addc.b	@r1,	r12	
 1f0:	79 00 54 01 	mova	r0,	340(r9)	;0x0154(r9)
 1f4:	00 00       	bra	@r0		
 1f6:	54 69 6d 65 	addc.b	25965(r9),r4	;0x656d(r9)
 1fa:	44 65       	addc.b	r5,	r4	
 1fc:	6c 61       	addc.b	@r1,	r12	
 1fe:	79 00 00 00 	mova	r0,	0(r9)	;0x0000(r9)
 202:	00 00       	bra	@r0		
 204:	1e 00       	mova	#0x00000,r14	
 206:	00 00       	bra	@r0		
 208:	02 00       	mova	@r0,	r2	
 20a:	b7 09 00 00 	suba	#0x90000,r7	
 20e:	55 00       	rrcm	#1,	r5	
 210:	00 00       	bra	@r0		
 212:	44 00       	rrcm.a	#1,	r4	
 214:	00 00       	bra	@r0		
 216:	45 45       	mov.b	r5,	r5	
 218:	50 52 4f 4d 	add.b	&0x4d4f,r0	
 21c:	46 6f       	addc.b	r15,	r6	
 21e:	75 6e       	addc.b	@r14+,	r5	
 220:	64 00 00 00 	mova	r0,	&0x40000
 224:	00 00       	bra	@r0		
 226:	dc 01       	cmpa	r1,	r12	
 228:	00 00       	bra	@r0		
 22a:	02 00       	mova	@r0,	r2	
 22c:	0c 0a       	mova	@r10,	r12	
 22e:	00 00       	bra	@r0		
 230:	d1 0a       	cmpa	r10,	r1	
 232:	00 00       	bra	@r0		
 234:	80 00 00 00 	bra	#0x00000	
 238:	69 32       	jn	$-812    	;abs 0xff0c
 23a:	63 5f       	.word	0x5f63;	????	Illegal as 2-op instr
 23c:	63 6f       	.word	0x6f63;	????	Illegal as 2-op instr
 23e:	6e 66       	addc.b	@r6,	r14	
 240:	69 67       	addc.b	@r7,	r9	
 242:	00 a4       	dadd	r4,	r0	
 244:	00 00       	bra	@r0		
 246:	00 69       	addc	r9,	r0	
 248:	32 63       	addc	#-1,	r2	;r3 As==11
 24a:	5f 63       	addc.b	#1,	r15	;r3 As==01
 24c:	68 61       	addc.b	@r1,	r8	
 24e:	6e 67       	addc.b	@r7,	r14	
 250:	65 5f       	add.b	@r15,	r5	
 252:	73 6c       	.word	0x6c73;	????	Illegal as 2-op instr
 254:	61 76       	subc.b	@r6,	r1	
 256:	65 61       	addc.b	@r1,	r5	
 258:	64 64       	addc.b	@r4,	r4	
 25a:	72 65       	addc.b	@r5+,	r2	
 25c:	73 73       	.word	0x7373;	????	Illegal as 2-op instr
 25e:	00 be       	bit	r14,	r0	
 260:	00 00       	bra	@r0		
 262:	00 69       	addc	r9,	r0	
 264:	32 63       	addc	#-1,	r2	;r3 As==11
 266:	5f 73       	subc.b	#1,	r15	;r3 As==01
 268:	74 61       	addc.b	@r1+,	r4	
 26a:	72 74       	subc.b	@r4+,	r2	
 26c:	5f 74 78 00 	subc.b	120(r4),r15	;0x0078(r4)
 270:	ca 00       	mova	r0,	r10	
 272:	00 00       	bra	@r0		
 274:	69 32       	jn	$-812    	;abs 0xff48
 276:	63 5f       	.word	0x5f63;	????	Illegal as 2-op instr
 278:	73 74       	.word	0x7473;	????	Illegal as 2-op instr
 27a:	61 72       	subc.b	#4,	r1	;r2 As==10
 27c:	74 5f       	add.b	@r15+,	r4	
 27e:	72 78       	subc.b	@r8+,	r2	
 280:	00 da       	bis	r10,	r0	
 282:	00 00       	bra	@r0		
 284:	00 69       	addc	r9,	r0	
 286:	32 63       	addc	#-1,	r2	;r3 As==11
 288:	5f 73       	subc.b	#1,	r15	;r3 As==01
 28a:	74 6f       	addc.b	@r15+,	r4	
 28c:	70 5f       	add.b	@r15+,	r0	
 28e:	74 78       	subc.b	@r8+,	r4	
 290:	00 e6       	xor	r6,	r0	
 292:	00 00       	bra	@r0		
 294:	00 69       	addc	r9,	r0	
 296:	32 63       	addc	#-1,	r2	;r3 As==11
 298:	5f 73       	subc.b	#1,	r15	;r3 As==01
 29a:	74 6f       	addc.b	@r15+,	r4	
 29c:	70 5f       	add.b	@r15+,	r0	
 29e:	72 78       	subc.b	@r8+,	r2	
 2a0:	00 f6       	and	r6,	r0	
 2a2:	00 00       	bra	@r0		
 2a4:	00 69       	addc	r9,	r0	
 2a6:	32 63       	addc	#-1,	r2	;r3 As==11
 2a8:	5f 74 65 73 	subc.b	29541(r4),r15	;0x7365(r4)
 2ac:	74 00 02 01 	mova	r0,	258(r4)	;0x0102(r4)
 2b0:	00 00       	bra	@r0		
 2b2:	69 32       	jn	$-812    	;abs 0xff86
 2b4:	63 5f       	.word	0x5f63;	????	Illegal as 2-op instr
 2b6:	73 65       	.word	0x6573;	????	Illegal as 2-op instr
 2b8:	6e 64       	addc.b	@r4,	r14	
 2ba:	00 1c       	.word	0x1c00;	????	
 2bc:	01 00       	mova	@r0,	r1	
 2be:	00 69       	addc	r9,	r0	
 2c0:	32 63       	addc	#-1,	r2	;r3 As==11
 2c2:	5f 77 72 69 	subc.b	26994(r7),r15	;0x6972(r7)
 2c6:	74 65       	addc.b	@r5+,	r4	
 2c8:	5f 64 75 6d 	addc.b	28021(r4),r15	;0x6d75(r4)
 2cc:	6d 79       	subc.b	@r9,	r13	
 2ce:	00 65       	addc	r5,	r0	
 2d0:	01 00       	mova	@r0,	r1	
 2d2:	00 69       	addc	r9,	r0	
 2d4:	32 63       	addc	#-1,	r2	;r3 As==11
 2d6:	5f 77 72 69 	subc.b	26994(r7),r15	;0x6972(r7)
 2da:	74 65       	addc.b	@r5+,	r4	
 2dc:	5f 6f 6e 65 	addc.b	25966(r15),r15	;0x656e(r15)
 2e0:	00 d5       	bis	r5,	r0	
 2e2:	01 00       	mova	@r0,	r1	
 2e4:	00 69       	addc	r9,	r0	
 2e6:	32 63       	addc	#-1,	r2	;r3 As==11
 2e8:	5f 77 72 69 	subc.b	26994(r7),r15	;0x6972(r7)
 2ec:	74 65       	addc.b	@r5+,	r4	
 2ee:	5f 6f 6e 65 	addc.b	25966(r15),r15	;0x656e(r15)
 2f2:	5f 64 61 74 	addc.b	29793(r4),r15	;0x7461(r4)
 2f6:	61 00 6d 02 	mova	r0,	&0x1026d
 2fa:	00 00       	bra	@r0		
 2fc:	69 32       	jn	$-812    	;abs 0xffd0
 2fe:	63 5f       	.word	0x5f63;	????	Illegal as 2-op instr
 300:	77 72       	subc.b	#8,	r7	;r2 As==11
 302:	69 74       	subc.b	@r4,	r9	
 304:	65 5f       	add.b	@r15,	r5	
 306:	6f 6e       	addc.b	@r14,	r15	
 308:	65 5f       	add.b	@r15,	r5	
 30a:	62 75       	subc.b	@r5,	r2	
 30c:	66 66       	addc.b	@r6,	r6	
 30e:	65 72       	subc.b	#4,	r5	;r2 As==10
 310:	00 26       	jz	$-1022   	;abs 0xff12
 312:	03 00       	.word	0x0003;	????	Illegal as address instr
 314:	00 69       	addc	r9,	r0	
 316:	32 63       	addc	#-1,	r2	;r3 As==11
 318:	5f 77 72 69 	subc.b	26994(r7),r15	;0x6972(r7)
 31c:	74 65       	addc.b	@r5+,	r4	
 31e:	5f 74 77 6f 	subc.b	28535(r4),r15	;0x6f77(r4)
 322:	00 bd       	bit	r13,	r0	
 324:	03 00       	.word	0x0003;	????	Illegal as address instr
 326:	00 69       	addc	r9,	r0	
 328:	32 63       	addc	#-1,	r2	;r3 As==11
 32a:	5f 77 72 69 	subc.b	26994(r7),r15	;0x6972(r7)
 32e:	74 65       	addc.b	@r5+,	r4	
 330:	5f 74 77 6f 	subc.b	28535(r4),r15	;0x6f77(r4)
 334:	5f 64 61 74 	addc.b	29793(r4),r15	;0x7461(r4)
 338:	61 00 78 04 	mova	r0,	&0x10478
 33c:	00 00       	bra	@r0		
 33e:	69 32       	jn	$-812    	;abs 0x12
 340:	63 5f       	.word	0x5f63;	????	Illegal as 2-op instr
 342:	77 72       	subc.b	#8,	r7	;r2 As==11
 344:	69 74       	subc.b	@r4,	r9	
 346:	65 5f       	add.b	@r15,	r5	
 348:	74 77       	subc.b	@r7+,	r4	
 34a:	6f 5f       	add.b	@r15,	r15	
 34c:	62 75       	subc.b	@r5,	r2	
 34e:	66 66       	addc.b	@r6,	r6	
 350:	65 72       	subc.b	#4,	r5	;r2 As==10
 352:	00 50       	rla	r0		
 354:	05 00       	mova	@r0,	r5	
 356:	00 69       	addc	r9,	r0	
 358:	32 63       	addc	#-1,	r2	;r3 As==11
 35a:	5f 77 72 69 	subc.b	26994(r7),r15	;0x6972(r7)
 35e:	74 65       	addc.b	@r5+,	r4	
 360:	5f 62 75 66 	addc.b	&0x6675,r15	
 364:	66 65       	addc.b	@r5,	r6	
 366:	72 00 de 05 	mova	r0,	&0x05de	
 36a:	00 00       	bra	@r0		
 36c:	69 32       	jn	$-812    	;abs 0x40
 36e:	63 5f       	.word	0x5f63;	????	Illegal as 2-op instr
 370:	72 65       	addc.b	@r5+,	r2	
 372:	61 64       	addc.b	@r4,	r1	
 374:	5f 64 61 74 	addc.b	29793(r4),r15	;0x7461(r4)
 378:	61 00 21 06 	mova	r0,	&0x10621
 37c:	00 00       	bra	@r0		
 37e:	69 32       	jn	$-812    	;abs 0x52
 380:	63 5f       	.word	0x5f63;	????	Illegal as 2-op instr
 382:	72 65       	addc.b	@r5+,	r2	
 384:	61 64       	addc.b	@r4,	r1	
 386:	5f 62 75 66 	addc.b	&0x6675,r15	
 38a:	66 65       	addc.b	@r5,	r6	
 38c:	72 00 80 06 	mova	r0,	&0x0680	
 390:	00 00       	bra	@r0		
 392:	69 32       	jn	$-812    	;abs 0x66
 394:	63 5f       	.word	0x5f63;	????	Illegal as 2-op instr
 396:	77 72       	subc.b	#8,	r7	;r2 As==11
 398:	65 61       	addc.b	@r1,	r5	
 39a:	64 5f       	add.b	@r15,	r4	
 39c:	6f 6e       	addc.b	@r14,	r15	
 39e:	65 5f       	add.b	@r15,	r5	
 3a0:	64 61       	addc.b	@r1,	r4	
 3a2:	74 61       	addc.b	@r1+,	r4	
 3a4:	00 f5       	and	r5,	r0	
 3a6:	06 00       	mova	@r0,	r6	
 3a8:	00 69       	addc	r9,	r0	
 3aa:	32 63       	addc	#-1,	r2	;r3 As==11
 3ac:	5f 77 72 65 	subc.b	25970(r7),r15	;0x6572(r7)
 3b0:	61 64       	addc.b	@r4,	r1	
 3b2:	5f 6f 6e 65 	addc.b	25966(r15),r15	;0x656e(r15)
 3b6:	5f 62 75 66 	addc.b	&0x6675,r15	
 3ba:	66 65       	addc.b	@r5,	r6	
 3bc:	72 00 88 07 	mova	r0,	&0x0788	
 3c0:	00 00       	bra	@r0		
 3c2:	69 32       	jn	$-812    	;abs 0x96
 3c4:	63 5f       	.word	0x5f63;	????	Illegal as 2-op instr
 3c6:	77 72       	subc.b	#8,	r7	;r2 As==11
 3c8:	65 61       	addc.b	@r1,	r5	
 3ca:	64 5f       	add.b	@r15,	r4	
 3cc:	74 77       	subc.b	@r7+,	r4	
 3ce:	6f 5f       	add.b	@r15,	r15	
 3d0:	64 61       	addc.b	@r1,	r4	
 3d2:	74 61       	addc.b	@r1+,	r4	
 3d4:	00 2d       	jc	$+514    	;abs 0x5d6
 3d6:	08 00       	mova	@r0,	r8	
 3d8:	00 69       	addc	r9,	r0	
 3da:	32 63       	addc	#-1,	r2	;r3 As==11
 3dc:	5f 77 72 65 	subc.b	25970(r7),r15	;0x6572(r7)
 3e0:	61 64       	addc.b	@r4,	r1	
 3e2:	5f 74 77 6f 	subc.b	28535(r4),r15	;0x6f77(r4)
 3e6:	5f 62 75 66 	addc.b	&0x6675,r15	
 3ea:	66 65       	addc.b	@r5,	r6	
 3ec:	72 00 f0 08 	mova	r0,	&0x08f0	
 3f0:	00 00       	bra	@r0		
 3f2:	69 32       	jn	$-812    	;abs 0xc6
 3f4:	63 5f       	.word	0x5f63;	????	Illegal as 2-op instr
 3f6:	66 69       	addc.b	@r9,	r6	
 3f8:	6e 64       	addc.b	@r4,	r14	
 3fa:	5f 64 65 76 	addc.b	30309(r4),r15	;0x7665(r4)
 3fe:	69 63       	addc.b	#2,	r9	;r3 As==10
 400:	65 00 00 00 	mova	r0,	&0x50000
 404:	00 00       	bra	@r0		
 406:	8e 00 00 00 	mova	#0x00000,r14	
 40a:	02 00       	mova	@r0,	r2	
 40c:	dd 14       	pushm.a	#14,	r13	
 40e:	00 00       	bra	@r0		
 410:	bb 01 00 00 	suba	#0x10000,r11	
 414:	21 00 00 00 	mova	&0x00000,r1	
 418:	61 6e       	addc.b	@r14,	r1	
 41a:	61 6c       	addc.b	@r12,	r1	
 41c:	6f 67       	addc.b	@r7,	r15	
 41e:	5f 69 6e 69 	addc.b	26990(r9),r15	;0x696e(r9)
 422:	74 00 31 00 	mova	r0,	49(r4)	;0x0031(r4)
 426:	00 00       	bra	@r0		
 428:	61 6e       	addc.b	@r14,	r1	
 42a:	61 6c       	addc.b	@r12,	r1	
 42c:	6f 67       	addc.b	@r7,	r15	
 42e:	5f 63       	addc.b	#1,	r15	;r3 As==01
 430:	61 6c       	addc.b	@r12,	r1	
 432:	69 62       	addc.b	#4,	r9	;r2 As==10
 434:	72 61       	addc.b	@r1+,	r2	
 436:	74 65       	addc.b	@r5+,	r4	
 438:	5f 63       	addc.b	#1,	r15	;r3 As==01
 43a:	68 61       	addc.b	@r1,	r8	
 43c:	6e 6e       	addc.b	@r14,	r14	
 43e:	65 6c       	addc.b	@r12,	r5	
 440:	00 68       	addc	r8,	r0	
 442:	00 00       	bra	@r0		
 444:	00 61       	addc	r1,	r0	
 446:	6e 61       	addc.b	@r1,	r14	
 448:	6c 6f       	addc.b	@r15,	r12	
 44a:	67 5f       	add.b	@r15,	r7	
 44c:	72 65       	addc.b	@r5+,	r2	
 44e:	66 72       	subc.b	#4,	r6	;r2 As==10
 450:	65 73       	subc.b	#2,	r5	;r3 As==10
 452:	68 5f       	add.b	@r15,	r8	
 454:	61 6c       	addc.b	@r12,	r1	
 456:	6c 00 8a 00 	mova	r0,	&0xc008a
 45a:	00 00       	bra	@r0		
 45c:	61 6e       	addc.b	@r14,	r1	
 45e:	61 6c       	addc.b	@r12,	r1	
 460:	6f 67       	addc.b	@r7,	r15	
 462:	5f 72 65 66 	subc.b	&0x6665,r15	
 466:	72 65       	addc.b	@r5+,	r2	
 468:	73 68       	.word	0x6873;	????	Illegal as 2-op instr
 46a:	5f 63       	addc.b	#1,	r15	;r3 As==01
 46c:	68 61       	addc.b	@r1,	r8	
 46e:	6e 6e       	addc.b	@r14,	r14	
 470:	65 6c       	addc.b	@r12,	r5	
 472:	00 9a       	cmp	r10,	r0	
 474:	01 00       	mova	@r0,	r1	
 476:	00 41       	br	r1		
 478:	6e 61       	addc.b	@r1,	r14	
 47a:	6c 6f       	addc.b	@r15,	r12	
 47c:	67 4f       	mov.b	@r15,	r7	
 47e:	66 66       	addc.b	@r6,	r6	
 480:	73 65       	.word	0x6573;	????	Illegal as 2-op instr
 482:	74 00 aa 01 	mova	r0,	426(r4)	;0x01aa(r4)
 486:	00 00       	bra	@r0		
 488:	41 6e       	addc.b	r14,	r1	
 48a:	61 6c       	addc.b	@r12,	r1	
 48c:	6f 67       	addc.b	@r7,	r15	
 48e:	56 61 6c 75 	addc.b	30060(r1),r6	;0x756c(r1)
 492:	65 00 00 00 	mova	r0,	&0x50000
 496:	00 00       	bra	@r0		
 498:	2d 00 00 00 	mova	&0x00000,r13	
 49c:	02 00       	mova	@r0,	r2	
 49e:	98 16       	popm.a	#10,	r1	
 4a0:	00 00       	bra	@r0		
 4a2:	a6 01 00 00 	adda	#0x10000,r6	
 4a6:	21 00 00 00 	mova	&0x00000,r1	
 4aa:	55 41 52 54 	mov.b	21586(r1),r5	;0x5452(r1)
 4ae:	5f 69 6e 69 	addc.b	26990(r9),r15	;0x696e(r9)
 4b2:	74 00 31 00 	mova	r0,	49(r4)	;0x0031(r4)
 4b6:	00 00       	bra	@r0		
 4b8:	55 41 52 54 	mov.b	21586(r1),r5	;0x5452(r1)
 4bc:	5f 70 75 74 	subc.b	0x7475,	r15	;PC rel. 0x07935
 4c0:	63 68       	.word	0x6863;	????	Illegal as 2-op instr
 4c2:	61 72       	subc.b	#4,	r1	;r2 As==10
 4c4:	00 00       	bra	@r0		
 4c6:	00 00       	bra	@r0		
 4c8:	00 25       	jz	$+514    	;abs 0x6ca
 4ca:	00 00       	bra	@r0		
 4cc:	00 02       	bra	#4		;r2 As==10
 4ce:	00 3e       	jmp	$-1022   	;abs 0xd0
 4d0:	18 00       	mova	#0x00000,r8	
 4d2:	00 03       	bra	#2		;r3 As==10
 4d4:	01 00       	mova	@r0,	r1	
 4d6:	00 8e       	sub	r14,	r0	
 4d8:	00 00       	bra	@r0		
 4da:	00 70       	subc	r0,	r0	
 4dc:	72 69       	addc.b	@r9+,	r2	
 4de:	6e 74       	subc.b	@r4,	r14	
 4e0:	66 00 cf 00 	mova	r0,	&0x600cf
 4e4:	00 00       	bra	@r0		
 4e6:	76 70 72 69 	subc.b	#26994,	r6	;#0x6972
 4ea:	6e 74       	subc.b	@r4,	r14	
 4ec:	66 00 00 00 	mova	r0,	&0x60000
 4f0:	00 00       	bra	@r0		
 4f2:	1b 00       	mova	#0x00000,r11	
 4f4:	00 00       	bra	@r0		
 4f6:	02 00       	mova	@r0,	r2	
 4f8:	41 19       	.word	0x1941;	????	
 4fa:	00 00       	bra	@r0		
 4fc:	b5 03 00 00 	suba	#0x30000,r5	
 500:	79 02 00 00 	mova	r2,	0(r9)	;0x0000(r9)
 504:	76 75       	subc.b	@r5+,	r6	
 506:	70 72       	subc.b	#8,	r0	;r2 As==11
 508:	69 6e       	addc.b	@r14,	r9	
 50a:	74 66       	addc.b	@r6+,	r4	
 50c:	00 00       	bra	@r0		
 50e:	00 00       	bra	@r0		
	...

Disassembly of section .debug_info:

00000000 <.debug_info>:
       0:	49 08       	rrcm.a	#3,	r9	
       2:	00 00       	bra	@r0		
       4:	02 00       	mova	@r0,	r2	
       6:	00 00       	bra	@r0		
       8:	00 00       	bra	@r0		
       a:	02 01       	mova	@r1,	r2	
       c:	9e 03 00 00 	cmpa	#0x30000,r14	
      10:	01 48       	mov	r8,	r1	
      12:	00 00       	bra	@r0		
      14:	00 26       	jz	$-1022   	;abs 0xfc16
      16:	03 00       	.word	0x0003;	????	Illegal as address instr
	...
      24:	00 02       	bra	#4		;r2 As==10
      26:	04 05       	mova	@r5,	r4	
      28:	77 00 00 00 	mova	r0,	0(r7)	;0x0000(r7)
      2c:	02 02       	mova	#4,	r2	;r2 As==10
      2e:	07 31       	jn	$+528    	;abs 0x23e
      30:	00 00       	bra	@r0		
      32:	00 03       	bra	#2		;r3 As==10
      34:	02 05       	mova	@r5,	r2	
      36:	69 6e       	addc.b	@r14,	r9	
      38:	74 00 02 01 	mova	r0,	258(r4)	;0x0102(r4)
      3c:	06 6f       	addc	r15,	r6	
      3e:	02 00       	mova	@r0,	r2	
      40:	00 02       	bra	#4		;r2 As==10
      42:	08 05       	mova	@r5,	r8	
      44:	72 00 00 00 	mova	r0,	&0x0000	
      48:	02 01       	mova	@r1,	r2	
      4a:	08 6d       	addc	r13,	r8	
      4c:	02 00       	mova	@r0,	r2	
      4e:	00 02       	bra	#4		;r2 As==10
      50:	04 07       	mova	@r7,	r4	
      52:	2c 00 00 00 	mova	&0x00000,r12	
      56:	02 08       	mova	@r8,	r2	
      58:	07 27       	jz	$-496    	;abs 0xfe68
      5a:	00 00       	bra	@r0		
      5c:	00 02       	bra	#4		;r2 As==10
      5e:	02 07       	mova	@r7,	r2	
      60:	8f 01 00 00 	mova	#0x10000,r15	
      64:	02 01       	mova	@r1,	r2	
      66:	06 76       	subc	r6,	r6	
      68:	02 00       	mova	@r0,	r2	
      6a:	00 04       	bra	@r4		
      6c:	02 71       	subc	r1,	r2	
      6e:	00 00       	bra	@r0		
      70:	00 05       	bra	@r5		
      72:	64 00 00 00 	mova	r0,	&0x40000
      76:	02 04       	mova	@r4,	r2	
      78:	04 51       	add	r1,	r4	
      7a:	02 00       	mova	@r0,	r2	
      7c:	00 06       	bra	@r6		
      7e:	02 01       	mova	@r1,	r2	
      80:	3c be       	bit	@r14+,	r12	
      82:	00 00       	bra	@r0		
      84:	00 07       	bra	@r7		
      86:	27 02 00 00 	mova	&0x20000,r7	
      8a:	c1 00       	mova	r0,	r1	
      8c:	07 9f       	cmp	r15,	r7	
      8e:	02 00       	mova	@r0,	r2	
      90:	00 c2       	bic	r2,	r0	
      92:	00 07       	bra	@r7		
      94:	40 02       	rlam.a	#1,	r0	
      96:	00 00       	bra	@r0		
      98:	c3 00       	.word	0x00c3;	????	Illegal as address instr
      9a:	07 46       	mov	r6,	r7	
      9c:	01 00       	mova	@r0,	r1	
      9e:	00 c4       	bic	r4,	r0	
      a0:	00 07       	bra	@r7		
      a2:	be 01 00 00 	suba	#0x10000,r14	
      a6:	c5 00       	mova	r0,	r5	
      a8:	07 df       	bis	r15,	r7	
      aa:	01 00       	mova	@r0,	r1	
      ac:	00 c6       	bic	r6,	r0	
      ae:	00 07       	bra	@r7		
      b0:	ee 01       	adda	r1,	r14	
      b2:	00 00       	bra	@r0		
      b4:	c7 00       	mova	r0,	r7	
      b6:	07 00       	mova	@r0,	r7	
      b8:	00 00       	bra	@r0		
      ba:	00 c8       	bic	r8,	r0	
      bc:	00 00       	bra	@r0		
      be:	08 c9       	bic	r9,	r8	
      c0:	00 00       	bra	@r0		
      c2:	00 01       	bra	@r1		
      c4:	45 7d       	subc.b	r13,	r5	
      c6:	00 00       	bra	@r0		
      c8:	00 06       	bra	@r6		
      ca:	02 01       	mova	@r1,	r2	
      cc:	47 e4       	xor.b	r4,	r7	
      ce:	00 00       	bra	@r0		
      d0:	00 07       	bra	@r7		
      d2:	05 00       	mova	@r0,	r5	
      d4:	00 00       	bra	@r0		
      d6:	00 07       	bra	@r7		
      d8:	eb 00       	adda	r0,	r11	
      da:	00 00       	bra	@r0		
      dc:	01 07       	mova	@r7,	r1	
      de:	eb 02       	adda	r2,	r11	
      e0:	00 00       	bra	@r0		
      e2:	02 00       	mova	@r0,	r2	
      e4:	08 03       	mova	#2,	r8	;r3 As==10
      e6:	03 00       	.word	0x0003;	????	Illegal as address instr
      e8:	00 01       	bra	@r1		
      ea:	4b c9       	bic.b	r9,	r11	
      ec:	00 00       	bra	@r0		
      ee:	00 09       	bra	@r9		
      f0:	01 54       	add	r4,	r1	
      f2:	01 00       	mova	@r0,	r1	
      f4:	00 01       	bra	@r1		
      f6:	f8 01       	suba	r1,	r8	
      f8:	01 0a       	mova	@r10,	r1	
      fa:	01 aa       	dadd	r10,	r1	
      fc:	03 00       	.word	0x0003;	????	Illegal as address instr
      fe:	00 01       	bra	@r1		
     100:	03 01       	.word	0x0103;	????	Illegal as address instr
     102:	01 01       	mova	@r1,	r1	
     104:	0b 01       	mova	@r1,	r11	
     106:	f9 06       	suba	r6,	r9	
     108:	00 00       	bra	@r0		
     10a:	02 3b       	jl	$-506    	;abs 0xff10
     10c:	01 33       	jn	$-508    	;abs 0xff10
     10e:	00 00       	bra	@r0		
     110:	00 4a       	br	r10		
     112:	33 52       	.word	0x5233;	????	Illegal as 2-op instr
     114:	33 02       	.word	0x0233;	????	Illegal as address instr
     116:	71 02 2a 01 	mova	r2,	298(r1)	;0x012a(r1)
     11a:	00 00       	bra	@r0		
     11c:	0c 63       	adc	r12		
     11e:	00 01       	bra	@r1		
     120:	55 33       	jn	$-340    	;abs 0xffcc
	...
     12a:	0d 01       	mova	@r1,	r13	
     12c:	57 02       	rlam	#1,	r7	
     12e:	00 00       	bra	@r0		
     130:	01 d7       	bis	r7,	r1	
     132:	01 48       	mov	r8,	r1	
     134:	00 00       	bra	@r0		
     136:	00 7c       	subc	r12,	r0	
     138:	33 f6       	.word	0xf633;	????	Illegal as 2-op instr
     13a:	33 0b       	.word	0x0b33;	????	Illegal as address instr
     13c:	00 00       	bra	@r0		
     13e:	00 50       	rla	r0		
     140:	01 00       	mova	@r0,	r1	
     142:	00 0e       	bra	@r14		
     144:	63 00 01 d8 	mova	r0,	&0x3d801
     148:	50 01       	rram	#1,	r0	
     14a:	00 00       	bra	@r0		
     14c:	02 91       	cmp	r1,	r2	
     14e:	00 00       	bra	@r0		
     150:	0f 48       	mov	r8,	r15	
     152:	00 00       	bra	@r0		
     154:	00 60       	rlc	r0		
     156:	01 00       	mova	@r0,	r1	
     158:	00 10       	rrc	r0		
     15a:	2c 00 00 00 	mova	&0x00000,r12	
     15e:	00 00       	bra	@r0		
     160:	11 01       	mova	@r1+,	r1	
     162:	ad 02 00 00 	adda	#0x20000,r13	
     166:	01 ea       	xor	r10,	r1	
     168:	01 48       	mov	r8,	r1	
     16a:	00 00       	bra	@r0		
     16c:	00 f6       	and	r6,	r0	
     16e:	33 2e       	jc	$-920    	;abs 0xfdd6
     170:	34 6f       	addc	@r15+,	r4	
     172:	00 00       	bra	@r0		
     174:	00 12       	push	r0		
     176:	ef 00       	adda	r0,	r15	
     178:	00 00       	bra	@r0		
     17a:	2e 34       	jge	$+94     	;abs 0x1d8
     17c:	46 34       	jge	$+142    	;abs 0x20a
     17e:	02 71       	subc	r1,	r2	
     180:	02 13       	reti			;return from interupt
     182:	01 5f       	add	r15,	r1	
     184:	01 00       	mova	@r0,	r1	
     186:	00 01       	bra	@r1		
     188:	ff 01       	suba	r1,	r15	
     18a:	4a 34       	jge	$+150    	;abs 0x220
     18c:	58 34       	jge	$+178    	;abs 0x23e
     18e:	8b 00 00 00 	mova	#0x00000,r11	
     192:	a6 01 00 00 	adda	#0x10000,r6	
     196:	14 0f       	mova	@r15+,	r4	
     198:	02 00       	mova	@r0,	r2	
     19a:	00 01       	bra	@r1		
     19c:	ff 33       	jn	$+0      	;abs 0x19c
     19e:	00 00       	bra	@r0		
     1a0:	00 af       	dadd	r15,	r0	
     1a2:	00 00       	bra	@r0		
     1a4:	00 00       	bra	@r0		
     1a6:	12 f9 00 00 	and	0(r9),	r2	;0x0000(r9)
     1aa:	00 58       	add	r8,	r0	
     1ac:	34 5a       	add	@r10+,	r4	
     1ae:	34 02 71 02 	mova	&0x0271,r4	
     1b2:	15 01       	mova	@r1+,	r5	
     1b4:	a2 01 00 00 	adda	#0x10000,r2	
     1b8:	01 0d       	mova	@r13,	r1	
     1ba:	01 01       	mova	@r1,	r1	
     1bc:	5a 34       	jge	$+182    	;abs 0x272
     1be:	d2 34       	jge	$+422    	;abs 0x364
     1c0:	02 71       	subc	r1,	r2	
     1c2:	02 0d       	mova	@r13,	r2	
     1c4:	01 c1       	bic	r1,	r1	
     1c6:	03 00       	.word	0x0003;	????	Illegal as address instr
     1c8:	00 01       	bra	@r1		
     1ca:	59 01       	rram	#1,	r9	
     1cc:	33 00       	.word	0x0033;	????	Illegal as address instr
     1ce:	00 00       	bra	@r0		
     1d0:	38 31       	jn	$+626    	;abs 0x442
     1d2:	40 33       	jn	$-382    	;abs 0x54
     1d4:	ba 00 00 00 	suba	#0x00000,r10	
     1d8:	42 02       	rlam.a	#1,	r2	
     1da:	00 00       	bra	@r0		
     1dc:	16 cc 01 00 	bic	1(r12),	r6	;0x0001(r12)
     1e0:	00 01       	bra	@r1		
     1e2:	5c 2c       	jc	$+186    	;abs 0x29c
     1e4:	00 00       	bra	@r0		
     1e6:	00 36       	jge	$-1022   	;abs 0xfde8
     1e8:	01 00       	mova	@r0,	r1	
     1ea:	00 16       	popm.a	#1,	r0	
     1ec:	d5 01       	cmpa	r1,	r5	
     1ee:	00 00       	bra	@r0		
     1f0:	01 5d       	add	r13,	r1	
     1f2:	2c 00 00 00 	mova	&0x00000,r12	
     1f6:	58 01       	rram	#1,	r8	
     1f8:	00 00       	bra	@r0		
     1fa:	16 3e       	jmp	$-978    	;abs 0xfe28
     1fc:	00 00       	bra	@r0		
     1fe:	00 01       	bra	@r1		
     200:	5e 2c       	jc	$+190    	;abs 0x2be
     202:	00 00       	bra	@r0		
     204:	00 7a       	subc	r10,	r0	
     206:	01 00       	mova	@r0,	r1	
     208:	00 16       	popm.a	#1,	r0	
     20a:	75 01 00 00 	mova	r1,	0(r5)	;0x0000(r5)
     20e:	01 60       	addc	r0,	r1	
     210:	33 00       	.word	0x0033;	????	Illegal as address instr
     212:	00 00       	bra	@r0		
     214:	8d 01 00 00 	mova	#0x10000,r13	
     218:	16 fd 02 00 	and	2(r13),	r6	;0x0002(r13)
     21c:	00 01       	bra	@r1		
     21e:	62 e4       	xor.b	@r4,	r2	
     220:	00 00       	bra	@r0		
     222:	00 c1       	bic	r1,	r0	
     224:	01 00       	mova	@r0,	r1	
     226:	00 17       	popm	#1,	r0	
     228:	43 6d       	.word	0x6d43;	????	Illegal as 2-op instr
     22a:	64 00 01 63 	mova	r0,	&0x46301
     22e:	be 00 00 00 	suba	#0x00000,r14	
     232:	2b 02 00 00 	mova	&0x20000,r11	
     236:	18 ef 00 00 	xor	0(r15),	r8	;0x0000(r15)
     23a:	00 3e       	jmp	$-1022   	;abs 0xfe3c
     23c:	31 54       	add	@r4+,	r1	
     23e:	31 01 65 00 	mova	101(r1),r1	;0x0065(r1)
     242:	19 01       	mova	@r1+,	r9	
     244:	15 03       	mova	#-1,	r5	;r3 As==11
     246:	00 00       	bra	@r0		
     248:	01 50       	add	r0,	r1	
     24a:	01 01       	mova	@r1,	r1	
     24c:	e0 34       	jge	$+450    	;abs 0x40e
     24e:	0c 35       	jge	$+538    	;abs 0x468
     250:	68 02 00 00 	mova	r2,	&0x80000
     254:	67 02 00 00 	mova	r2,	&0x70000
     258:	1a 69 00 01 	addc	256(r9),r10	;0x0100(r9)
     25c:	51 01       	rram	#1,	r1	
     25e:	33 00       	.word	0x0033;	????	Illegal as address instr
     260:	00 00       	bra	@r0		
     262:	84 02 00 00 	mova	#0x20000,r4	
     266:	00 1b       	.word	0x1b00;	????	
     268:	6d 00 00 00 	mova	r0,	&0xd0000
     26c:	03 a6       	.word	0xa603;	????	Illegal as 2-op instr
     26e:	6a 00 00 00 	mova	r0,	&0xa0000
     272:	78 02 00 00 	mova	r2,	0(r8)	;0x0000(r8)
     276:	01 01       	mova	@r1,	r1	
     278:	1c 48 00 00 	mov	0(r8),	r12	;0x0000(r8)
     27c:	00 1d       	.word	0x1d00;	????	
     27e:	85 03 00 00 	mova	#0x30000,r5	
     282:	03 c4       	.word	0xc403;	????	Illegal as 2-op instr
     284:	01 82       	sub	r2,	r1	
     286:	03 00       	.word	0x0003;	????	Illegal as address instr
     288:	00 78       	subc	r8,	r0	
     28a:	02 00       	mova	@r0,	r2	
     28c:	00 01       	bra	@r1		
     28e:	01 1d       	.word	0x1d01;	????	
     290:	6f 03 00 00 	mova	#0,	&0xf0000;r3 As==00
     294:	03 c6       	.word	0xc603;	????	Illegal as 2-op instr
     296:	01 6c       	addc	r12,	r1	
     298:	03 00       	.word	0x0003;	????	Illegal as address instr
     29a:	00 78       	subc	r8,	r0	
     29c:	02 00       	mova	@r0,	r2	
     29e:	00 01       	bra	@r1		
     2a0:	01 1d       	.word	0x1d01;	????	
     2a2:	7a 03 00 00 	mova	#0,	0(r10)	;r3 As==00, 0x0000(r10)
     2a6:	03 c8       	.word	0xc803;	????	Illegal as 2-op instr
     2a8:	01 77       	subc	r7,	r1	
     2aa:	03 00       	.word	0x0003;	????	Illegal as address instr
     2ac:	00 78       	subc	r8,	r0	
     2ae:	02 00       	mova	@r0,	r2	
     2b0:	00 01       	bra	@r1		
     2b2:	01 1d       	.word	0x1d01;	????	
     2b4:	83 00       	.word	0x0083;	????	Illegal as address instr
     2b6:	00 00       	bra	@r0		
     2b8:	03 ca       	.word	0xca03;	????	Illegal as 2-op instr
     2ba:	01 80       	sub	r0,	r1	
     2bc:	00 00       	bra	@r0		
     2be:	00 78       	subc	r8,	r0	
     2c0:	02 00       	mova	@r0,	r2	
     2c2:	00 01       	bra	@r1		
     2c4:	01 1d       	.word	0x1d01;	????	
     2c6:	8e 00 00 00 	mova	#0x00000,r14	
     2ca:	03 80       	.word	0x8003;	????	Illegal as 2-op instr
     2cc:	03 8b       	.word	0x8b03;	????	Illegal as 2-op instr
     2ce:	00 00       	bra	@r0		
     2d0:	00 78       	subc	r8,	r0	
     2d2:	02 00       	mova	@r0,	r2	
     2d4:	00 01       	bra	@r1		
     2d6:	01 1d       	.word	0x1d01;	????	
     2d8:	98 03 00 00 	cmpa	#0x30000,r8	
     2dc:	03 88       	.word	0x8803;	????	Illegal as 2-op instr
     2de:	03 95       	.word	0x9503;	????	Illegal as 2-op instr
     2e0:	03 00       	.word	0x0003;	????	Illegal as address instr
     2e2:	00 78       	subc	r8,	r0	
     2e4:	02 00       	mova	@r0,	r2	
     2e6:	00 01       	bra	@r1		
     2e8:	01 1d       	.word	0x1d01;	????	
     2ea:	bb 03 00 00 	suba	#0x30000,r11	
     2ee:	03 a2       	.word	0xa203;	????	Illegal as 2-op instr
     2f0:	03 b8       	.word	0xb803;	????	Illegal as 2-op instr
     2f2:	03 00       	.word	0x0003;	????	Illegal as address instr
     2f4:	00 78       	subc	r8,	r0	
     2f6:	02 00       	mova	@r0,	r2	
     2f8:	00 01       	bra	@r1		
     2fa:	01 1d       	.word	0x1d01;	????	
     2fc:	a7 02 00 00 	adda	#0x20000,r7	
     300:	03 a4       	.word	0xa403;	????	Illegal as 2-op instr
     302:	03 a4       	.word	0xa403;	????	Illegal as 2-op instr
     304:	02 00       	mova	@r0,	r2	
     306:	00 78       	subc	r8,	r0	
     308:	02 00       	mova	@r0,	r2	
     30a:	00 01       	bra	@r1		
     30c:	01 1d       	.word	0x1d01;	????	
     30e:	7e 02 00 00 	mova	r2,	0(r14)	;0x0000(r14)
     312:	03 09       	.word	0x0903;	????	Illegal as address instr
     314:	04 7b       	subc	r11,	r4	
     316:	02 00       	mova	@r0,	r2	
     318:	00 1f       	.word	0x1f00;	????	
     31a:	03 00       	.word	0x0003;	????	Illegal as address instr
     31c:	00 01       	bra	@r1		
     31e:	01 1c       	.word	0x1c01;	????	
     320:	2c 00 00 00 	mova	&0x00000,r12	
     324:	1d 59 03 00 	add	3(r9),	r13	;0x0003(r9)
     328:	00 03       	bra	#2		;r3 As==10
     32a:	0b 04       	mova	@r4,	r11	
     32c:	56 03       	rrum	#1,	r6	
     32e:	00 00       	bra	@r0		
     330:	1f 03       	mova	#-1,	r15	;r3 As==11
     332:	00 00       	bra	@r0		
     334:	01 01       	mova	@r1,	r1	
     336:	1d 64 03 00 	addc	3(r4),	r13	;0x0003(r4)
     33a:	00 03       	bra	#2		;r3 As==10
     33c:	0d 04       	mova	@r4,	r13	
     33e:	61 03 00 00 	mova	#0,	&0x10000;r3 As==00
     342:	1f 03       	mova	#-1,	r15	;r3 As==11
     344:	00 00       	bra	@r0		
     346:	01 01       	mova	@r1,	r1	
     348:	1d 59 00 00 	add	0(r9),	r13	;0x0000(r9)
     34c:	00 03       	bra	#2		;r3 As==10
     34e:	13 04       	.word	0x0413;	????	Illegal as address instr
     350:	56 00       	rrcm	#1,	r6	
     352:	00 00       	bra	@r0		
     354:	1f 03       	mova	#-1,	r15	;r3 As==11
     356:	00 00       	bra	@r0		
     358:	01 01       	mova	@r1,	r1	
     35a:	1d 63       	addc	#1,	r13	;r3 As==01
     35c:	00 00       	bra	@r0		
     35e:	00 03       	bra	#2		;r3 As==10
     360:	15 04       	mova	@r4+,	r5	
     362:	60 00 00 00 	mova	r0,	&0x00000
     366:	1f 03       	mova	#-1,	r15	;r3 As==11
     368:	00 00       	bra	@r0		
     36a:	01 01       	mova	@r1,	r1	
     36c:	1d 8f 03 00 	sub	3(r15),	r13	;0x0003(r15)
     370:	00 03       	bra	#2		;r3 As==10
     372:	6f 04 8c 03 	mova	r4,	&0xf038c
     376:	00 00       	bra	@r0		
     378:	1f 03       	mova	#-1,	r15	;r3 As==11
     37a:	00 00       	bra	@r0		
     37c:	01 01       	mova	@r1,	r1	
     37e:	1d f3       	and	#1,	r13	;r3 As==01
     380:	00 00       	bra	@r0		
     382:	00 03       	bra	#2		;r3 As==10
     384:	73 04       	.word	0x0473;	????	Illegal as address instr
     386:	f0 00       	suba	r0,	r0	
     388:	00 00       	bra	@r0		
     38a:	1f 03       	mova	#-1,	r15	;r3 As==11
     38c:	00 00       	bra	@r0		
     38e:	01 01       	mova	@r1,	r1	
     390:	1d fe 00 00 	and	0(r14),	r13	;0x0000(r14)
     394:	00 03       	bra	#2		;r3 As==10
     396:	75 04 fb 00 	mova	r4,	251(r5)	;0x00fb(r5)
     39a:	00 00       	bra	@r0		
     39c:	1f 03       	mova	#-1,	r15	;r3 As==11
     39e:	00 00       	bra	@r0		
     3a0:	01 01       	mova	@r1,	r1	
     3a2:	1d 09       	mova	@r9+,	r13	
     3a4:	01 00       	mova	@r0,	r1	
     3a6:	00 03       	bra	#2		;r3 As==10
     3a8:	77 04 06 01 	mova	r4,	262(r7)	;0x0106(r7)
     3ac:	00 00       	bra	@r0		
     3ae:	1f 03       	mova	#-1,	r15	;r3 As==11
     3b0:	00 00       	bra	@r0		
     3b2:	01 01       	mova	@r1,	r1	
     3b4:	1d 1f       	.word	0x1f1d;	????	
     3b6:	01 00       	mova	@r0,	r1	
     3b8:	00 03       	bra	#2		;r3 As==10
     3ba:	79 04 1c 01 	mova	r4,	284(r9)	;0x011c(r9)
     3be:	00 00       	bra	@r0		
     3c0:	1f 03       	mova	#-1,	r15	;r3 As==11
     3c2:	00 00       	bra	@r0		
     3c4:	01 01       	mova	@r1,	r1	
     3c6:	1d 14       	pushm.a	#2,	r13	
     3c8:	01 00       	mova	@r0,	r1	
     3ca:	00 03       	bra	#2		;r3 As==10
     3cc:	7b 04 11 01 	mova	r4,	273(r11);0x0111(r11)
     3d0:	00 00       	bra	@r0		
     3d2:	1f 03       	mova	#-1,	r15	;r3 As==11
     3d4:	00 00       	bra	@r0		
     3d6:	01 01       	mova	@r1,	r1	
     3d8:	1d 3e       	jmp	$-964    	;abs 0x14
     3da:	01 00       	mova	@r0,	r1	
     3dc:	00 03       	bra	#2		;r3 As==10
     3de:	7d 04 3b 01 	mova	r4,	315(r13);0x013b(r13)
     3e2:	00 00       	bra	@r0		
     3e4:	1f 03       	mova	#-1,	r15	;r3 As==11
     3e6:	00 00       	bra	@r0		
     3e8:	01 01       	mova	@r1,	r1	
     3ea:	1d bc 02 00 	bit	2(r12),	r13	;0x0002(r12)
     3ee:	00 03       	bra	#2		;r3 As==10
     3f0:	81 04 b9 02 	mova	#0x402b9,r1	
     3f4:	00 00       	bra	@r0		
     3f6:	1f 03       	mova	#-1,	r15	;r3 As==11
     3f8:	00 00       	bra	@r0		
     3fa:	01 01       	mova	@r1,	r1	
     3fc:	1d c6 02 00 	bic	2(r6),	r13	;0x0002(r6)
     400:	00 03       	bra	#2		;r3 As==10
     402:	83 04       	.word	0x0483;	????	Illegal as address instr
     404:	c3 02       	.word	0x02c3;	????	Illegal as address instr
     406:	00 00       	bra	@r0		
     408:	1f 03       	mova	#-1,	r15	;r3 As==11
     40a:	00 00       	bra	@r0		
     40c:	01 01       	mova	@r1,	r1	
     40e:	1d d0 02 00 	bis	0x0002,	r13	;PC rel. 0x00414
     412:	00 03       	bra	#2		;r3 As==10
     414:	85 04 cd 02 	mova	#0x402cd,r5	
     418:	00 00       	bra	@r0		
     41a:	1f 03       	mova	#-1,	r15	;r3 As==11
     41c:	00 00       	bra	@r0		
     41e:	01 01       	mova	@r1,	r1	
     420:	1d da 02 00 	bis	2(r10),	r13	;0x0002(r10)
     424:	00 03       	bra	#2		;r3 As==10
     426:	87 04 d7 02 	mova	#0x402d7,r7	
     42a:	00 00       	bra	@r0		
     42c:	1f 03       	mova	#-1,	r15	;r3 As==11
     42e:	00 00       	bra	@r0		
     430:	01 01       	mova	@r1,	r1	
     432:	1d e4 02 00 	xor	2(r4),	r13	;0x0002(r4)
     436:	00 03       	bra	#2		;r3 As==10
     438:	89 04 e1 02 	mova	#0x402e1,r9	
     43c:	00 00       	bra	@r0		
     43e:	1f 03       	mova	#-1,	r15	;r3 As==11
     440:	00 00       	bra	@r0		
     442:	01 01       	mova	@r1,	r1	
     444:	1d 20       	jnz	$+60     	;abs 0x480
     446:	00 00       	bra	@r0		
     448:	00 03       	bra	#2		;r3 As==10
     44a:	8b 04 1d 00 	mova	#0x4001d,r11	
     44e:	00 00       	bra	@r0		
     450:	1f 03       	mova	#-1,	r15	;r3 As==11
     452:	00 00       	bra	@r0		
     454:	01 01       	mova	@r1,	r1	
     456:	1d f6 02 00 	and	2(r6),	r13	;0x0002(r6)
     45a:	00 03       	bra	#2		;r3 As==10
     45c:	8d 04 f3 02 	mova	#0x402f3,r13	
     460:	00 00       	bra	@r0		
     462:	1f 03       	mova	#-1,	r15	;r3 As==11
     464:	00 00       	bra	@r0		
     466:	01 01       	mova	@r1,	r1	
     468:	1d e1 00 00 	xor	0(r1),	r13	;0x0000(r1)
     46c:	00 03       	bra	#2		;r3 As==10
     46e:	dc 04       	cmpa	r4,	r12	
     470:	de 00       	cmpa	r0,	r14	
     472:	00 00       	bra	@r0		
     474:	7a 04 00 00 	mova	r4,	0(r10)	;0x0000(r10)
     478:	01 01       	mova	@r1,	r1	
     47a:	05 78       	subc	r8,	r5	
     47c:	02 00       	mova	@r0,	r2	
     47e:	00 1d       	.word	0x1d00;	????	
     480:	97 00 00 00 	cmpa	#0x00000,r7	
     484:	03 d9       	.word	0xd903;	????	Illegal as 2-op instr
     486:	05 94       	cmp	r4,	r5	
     488:	00 00       	bra	@r0		
     48a:	00 1f       	.word	0x1f00;	????	
     48c:	03 00       	.word	0x0003;	????	Illegal as address instr
     48e:	00 01       	bra	@r1		
     490:	01 0f       	mova	@r15,	r1	
     492:	2c 00 00 00 	mova	&0x00000,r12	
     496:	a1 04 00 00 	adda	#0x40000,r1	
     49a:	10 2c       	jc	$+34     	;abs 0x4bc
     49c:	00 00       	bra	@r0		
     49e:	00 0e       	bra	@r14		
     4a0:	00 1e       	.word	0x1e00;	????	
     4a2:	63 02 00 00 	mova	r2,	&0x30000
     4a6:	04 0f       	mova	@r15,	r4	
     4a8:	ae 04 00 00 	adda	#0x40000,r14	
     4ac:	01 01       	mova	@r1,	r1	
     4ae:	1c 91 04 00 	cmp	4(r1),	r12	;0x0004(r1)
     4b2:	00 0f       	bra	@r15		
     4b4:	33 00       	.word	0x0033;	????	Illegal as address instr
     4b6:	00 00       	bra	@r0		
     4b8:	c3 04       	.word	0x04c3;	????	Illegal as address instr
     4ba:	00 00       	bra	@r0		
     4bc:	10 2c       	jc	$+34     	;abs 0x4de
     4be:	00 00       	bra	@r0		
     4c0:	00 07       	bra	@r7		
     4c2:	00 1e       	.word	0x1e00;	????	
     4c4:	82 01 00 00 	mova	#0x10000,r2	
     4c8:	05 06       	mova	@r6,	r5	
     4ca:	b3 04       	.word	0x04b3;	????	Illegal as address instr
     4cc:	00 00       	bra	@r0		
     4ce:	01 01       	mova	@r1,	r1	
     4d0:	1e 09       	mova	@r9+,	r14	
     4d2:	03 00       	.word	0x0003;	????	Illegal as address instr
     4d4:	00 05       	bra	@r5		
     4d6:	07 b3       	bit	#0,	r7	;r3 As==00
     4d8:	04 00       	mova	@r0,	r4	
     4da:	00 01       	bra	@r1		
     4dc:	01 1e       	.word	0x1e01;	????	
     4de:	90 02 00 00 	cmpa	#0x20000,r0	
     4e2:	06 01       	mova	@r1,	r6	
     4e4:	6b 00 00 00 	mova	r0,	&0xb0000
     4e8:	01 01       	mova	@r1,	r1	
     4ea:	1e 0f       	mova	@r15+,	r14	
     4ec:	00 00       	bra	@r0		
     4ee:	00 06       	bra	@r6		
     4f0:	02 6b       	addc	r11,	r2	
     4f2:	00 00       	bra	@r0		
     4f4:	00 01       	bra	@r1		
     4f6:	01 1e       	.word	0x1e01;	????	
     4f8:	69 01 00 00 	mova	r1,	&0x90000
     4fc:	06 03       	mova	#2,	r6	;r3 As==10
     4fe:	6b 00 00 00 	mova	r0,	&0xb0000
     502:	01 01       	mova	@r1,	r1	
     504:	1e 15       	pushm	#2,	r14	
     506:	02 00       	mova	@r0,	r2	
     508:	00 06       	bra	@r6		
     50a:	04 6b       	addc	r11,	r4	
     50c:	00 00       	bra	@r0		
     50e:	00 01       	bra	@r1		
     510:	01 1e       	.word	0x1e01;	????	
     512:	84 02 00 00 	mova	#0x20000,r4	
     516:	06 08       	mova	@r8,	r6	
     518:	6b 00 00 00 	mova	r0,	&0xb0000
     51c:	01 01       	mova	@r1,	r1	
     51e:	1e ad 01 00 	dadd	1(r13),	r14	;0x0001(r13)
     522:	00 06       	bra	@r6		
     524:	09 6b       	addc	r11,	r9	
     526:	00 00       	bra	@r0		
     528:	00 01       	bra	@r1		
     52a:	01 1e       	.word	0x1e01;	????	
     52c:	d1 00       	cmpa	r0,	r1	
     52e:	00 00       	bra	@r0		
     530:	06 0b       	mova	@r11,	r6	
     532:	6b 00 00 00 	mova	r0,	&0xb0000
     536:	01 01       	mova	@r1,	r1	
     538:	1e fa 01 00 	and	1(r10),	r14	;0x0001(r10)
     53c:	00 06       	bra	@r6		
     53e:	0c 6b       	addc	r11,	r12	
     540:	00 00       	bra	@r0		
     542:	00 01       	bra	@r1		
     544:	01 1b       	.word	0x1b01;	????	
     546:	6d 00 00 00 	mova	r0,	&0xd0000
     54a:	03 a6       	.word	0xa603;	????	Illegal as 2-op instr
     54c:	6a 00 00 00 	mova	r0,	&0xa0000
     550:	78 02 00 00 	mova	r2,	0(r8)	;0x0000(r8)
     554:	01 01       	mova	@r1,	r1	
     556:	1d 85 03 00 	sub	3(r5),	r13	;0x0003(r5)
     55a:	00 03       	bra	#2		;r3 As==10
     55c:	c4 01       	mova	r1,	r4	
     55e:	82 03 00 00 	mova	#0x30000,r2	
     562:	78 02 00 00 	mova	r2,	0(r8)	;0x0000(r8)
     566:	01 01       	mova	@r1,	r1	
     568:	1d 6f 03 00 	addc	3(r15),	r13	;0x0003(r15)
     56c:	00 03       	bra	#2		;r3 As==10
     56e:	c6 01       	mova	r1,	r6	
     570:	6c 03 00 00 	mova	#0,	&0xc0000;r3 As==00
     574:	78 02 00 00 	mova	r2,	0(r8)	;0x0000(r8)
     578:	01 01       	mova	@r1,	r1	
     57a:	1d 7a 03 00 	subc	3(r10),	r13	;0x0003(r10)
     57e:	00 03       	bra	#2		;r3 As==10
     580:	c8 01       	mova	r1,	r8	
     582:	77 03 00 00 	mova	#0,	0(r7)	;r3 As==00, 0x0000(r7)
     586:	78 02 00 00 	mova	r2,	0(r8)	;0x0000(r8)
     58a:	01 01       	mova	@r1,	r1	
     58c:	1d 83       	dec	r13		
     58e:	00 00       	bra	@r0		
     590:	00 03       	bra	#2		;r3 As==10
     592:	ca 01       	mova	r1,	r10	
     594:	80 00 00 00 	bra	#0x00000	
     598:	78 02 00 00 	mova	r2,	0(r8)	;0x0000(r8)
     59c:	01 01       	mova	@r1,	r1	
     59e:	1d 8e 00 00 	sub	0(r14),	r13	;0x0000(r14)
     5a2:	00 03       	bra	#2		;r3 As==10
     5a4:	80 03 8b 00 	bra	#0x3008b	
     5a8:	00 00       	bra	@r0		
     5aa:	78 02 00 00 	mova	r2,	0(r8)	;0x0000(r8)
     5ae:	01 01       	mova	@r1,	r1	
     5b0:	1d 98 03 00 	cmp	3(r8),	r13	;0x0003(r8)
     5b4:	00 03       	bra	#2		;r3 As==10
     5b6:	88 03 95 03 	mova	#0x30395,r8	
     5ba:	00 00       	bra	@r0		
     5bc:	78 02 00 00 	mova	r2,	0(r8)	;0x0000(r8)
     5c0:	01 01       	mova	@r1,	r1	
     5c2:	1d bb 03 00 	bit	3(r11),	r13	;0x0003(r11)
     5c6:	00 03       	bra	#2		;r3 As==10
     5c8:	a2 03 b8 03 	adda	#0x303b8,r2	
     5cc:	00 00       	bra	@r0		
     5ce:	78 02 00 00 	mova	r2,	0(r8)	;0x0000(r8)
     5d2:	01 01       	mova	@r1,	r1	
     5d4:	1d a7 02 00 	dadd	2(r7),	r13	;0x0002(r7)
     5d8:	00 03       	bra	#2		;r3 As==10
     5da:	a4 03 a4 02 	adda	#0x302a4,r4	
     5de:	00 00       	bra	@r0		
     5e0:	78 02 00 00 	mova	r2,	0(r8)	;0x0000(r8)
     5e4:	01 01       	mova	@r1,	r1	
     5e6:	1d 7e 02 00 	subc	2(r14),	r13	;0x0002(r14)
     5ea:	00 03       	bra	#2		;r3 As==10
     5ec:	09 04       	mova	@r4,	r9	
     5ee:	7b 02 00 00 	mova	r2,	0(r11)	;0x0000(r11)
     5f2:	1f 03       	mova	#-1,	r15	;r3 As==11
     5f4:	00 00       	bra	@r0		
     5f6:	01 01       	mova	@r1,	r1	
     5f8:	1d 59 03 00 	add	3(r9),	r13	;0x0003(r9)
     5fc:	00 03       	bra	#2		;r3 As==10
     5fe:	0b 04       	mova	@r4,	r11	
     600:	56 03       	rrum	#1,	r6	
     602:	00 00       	bra	@r0		
     604:	1f 03       	mova	#-1,	r15	;r3 As==11
     606:	00 00       	bra	@r0		
     608:	01 01       	mova	@r1,	r1	
     60a:	1d 64 03 00 	addc	3(r4),	r13	;0x0003(r4)
     60e:	00 03       	bra	#2		;r3 As==10
     610:	0d 04       	mova	@r4,	r13	
     612:	61 03 00 00 	mova	#0,	&0x10000;r3 As==00
     616:	1f 03       	mova	#-1,	r15	;r3 As==11
     618:	00 00       	bra	@r0		
     61a:	01 01       	mova	@r1,	r1	
     61c:	1d 59 00 00 	add	0(r9),	r13	;0x0000(r9)
     620:	00 03       	bra	#2		;r3 As==10
     622:	13 04       	.word	0x0413;	????	Illegal as address instr
     624:	56 00       	rrcm	#1,	r6	
     626:	00 00       	bra	@r0		
     628:	1f 03       	mova	#-1,	r15	;r3 As==11
     62a:	00 00       	bra	@r0		
     62c:	01 01       	mova	@r1,	r1	
     62e:	1d 63       	addc	#1,	r13	;r3 As==01
     630:	00 00       	bra	@r0		
     632:	00 03       	bra	#2		;r3 As==10
     634:	15 04       	mova	@r4+,	r5	
     636:	60 00 00 00 	mova	r0,	&0x00000
     63a:	1f 03       	mova	#-1,	r15	;r3 As==11
     63c:	00 00       	bra	@r0		
     63e:	01 01       	mova	@r1,	r1	
     640:	1d 8f 03 00 	sub	3(r15),	r13	;0x0003(r15)
     644:	00 03       	bra	#2		;r3 As==10
     646:	6f 04 8c 03 	mova	r4,	&0xf038c
     64a:	00 00       	bra	@r0		
     64c:	1f 03       	mova	#-1,	r15	;r3 As==11
     64e:	00 00       	bra	@r0		
     650:	01 01       	mova	@r1,	r1	
     652:	1d f3       	and	#1,	r13	;r3 As==01
     654:	00 00       	bra	@r0		
     656:	00 03       	bra	#2		;r3 As==10
     658:	73 04       	.word	0x0473;	????	Illegal as address instr
     65a:	f0 00       	suba	r0,	r0	
     65c:	00 00       	bra	@r0		
     65e:	1f 03       	mova	#-1,	r15	;r3 As==11
     660:	00 00       	bra	@r0		
     662:	01 01       	mova	@r1,	r1	
     664:	1d fe 00 00 	and	0(r14),	r13	;0x0000(r14)
     668:	00 03       	bra	#2		;r3 As==10
     66a:	75 04 fb 00 	mova	r4,	251(r5)	;0x00fb(r5)
     66e:	00 00       	bra	@r0		
     670:	1f 03       	mova	#-1,	r15	;r3 As==11
     672:	00 00       	bra	@r0		
     674:	01 01       	mova	@r1,	r1	
     676:	1d 09       	mova	@r9+,	r13	
     678:	01 00       	mova	@r0,	r1	
     67a:	00 03       	bra	#2		;r3 As==10
     67c:	77 04 06 01 	mova	r4,	262(r7)	;0x0106(r7)
     680:	00 00       	bra	@r0		
     682:	1f 03       	mova	#-1,	r15	;r3 As==11
     684:	00 00       	bra	@r0		
     686:	01 01       	mova	@r1,	r1	
     688:	1d 1f       	.word	0x1f1d;	????	
     68a:	01 00       	mova	@r0,	r1	
     68c:	00 03       	bra	#2		;r3 As==10
     68e:	79 04 1c 01 	mova	r4,	284(r9)	;0x011c(r9)
     692:	00 00       	bra	@r0		
     694:	1f 03       	mova	#-1,	r15	;r3 As==11
     696:	00 00       	bra	@r0		
     698:	01 01       	mova	@r1,	r1	
     69a:	1d 14       	pushm.a	#2,	r13	
     69c:	01 00       	mova	@r0,	r1	
     69e:	00 03       	bra	#2		;r3 As==10
     6a0:	7b 04 11 01 	mova	r4,	273(r11);0x0111(r11)
     6a4:	00 00       	bra	@r0		
     6a6:	1f 03       	mova	#-1,	r15	;r3 As==11
     6a8:	00 00       	bra	@r0		
     6aa:	01 01       	mova	@r1,	r1	
     6ac:	1d 3e       	jmp	$-964    	;abs 0x2e8
     6ae:	01 00       	mova	@r0,	r1	
     6b0:	00 03       	bra	#2		;r3 As==10
     6b2:	7d 04 3b 01 	mova	r4,	315(r13);0x013b(r13)
     6b6:	00 00       	bra	@r0		
     6b8:	1f 03       	mova	#-1,	r15	;r3 As==11
     6ba:	00 00       	bra	@r0		
     6bc:	01 01       	mova	@r1,	r1	
     6be:	1d bc 02 00 	bit	2(r12),	r13	;0x0002(r12)
     6c2:	00 03       	bra	#2		;r3 As==10
     6c4:	81 04 b9 02 	mova	#0x402b9,r1	
     6c8:	00 00       	bra	@r0		
     6ca:	1f 03       	mova	#-1,	r15	;r3 As==11
     6cc:	00 00       	bra	@r0		
     6ce:	01 01       	mova	@r1,	r1	
     6d0:	1d c6 02 00 	bic	2(r6),	r13	;0x0002(r6)
     6d4:	00 03       	bra	#2		;r3 As==10
     6d6:	83 04       	.word	0x0483;	????	Illegal as address instr
     6d8:	c3 02       	.word	0x02c3;	????	Illegal as address instr
     6da:	00 00       	bra	@r0		
     6dc:	1f 03       	mova	#-1,	r15	;r3 As==11
     6de:	00 00       	bra	@r0		
     6e0:	01 01       	mova	@r1,	r1	
     6e2:	1d d0 02 00 	bis	0x0002,	r13	;PC rel. 0x006e8
     6e6:	00 03       	bra	#2		;r3 As==10
     6e8:	85 04 cd 02 	mova	#0x402cd,r5	
     6ec:	00 00       	bra	@r0		
     6ee:	1f 03       	mova	#-1,	r15	;r3 As==11
     6f0:	00 00       	bra	@r0		
     6f2:	01 01       	mova	@r1,	r1	
     6f4:	1d da 02 00 	bis	2(r10),	r13	;0x0002(r10)
     6f8:	00 03       	bra	#2		;r3 As==10
     6fa:	87 04 d7 02 	mova	#0x402d7,r7	
     6fe:	00 00       	bra	@r0		
     700:	1f 03       	mova	#-1,	r15	;r3 As==11
     702:	00 00       	bra	@r0		
     704:	01 01       	mova	@r1,	r1	
     706:	1d e4 02 00 	xor	2(r4),	r13	;0x0002(r4)
     70a:	00 03       	bra	#2		;r3 As==10
     70c:	89 04 e1 02 	mova	#0x402e1,r9	
     710:	00 00       	bra	@r0		
     712:	1f 03       	mova	#-1,	r15	;r3 As==11
     714:	00 00       	bra	@r0		
     716:	01 01       	mova	@r1,	r1	
     718:	1d 20       	jnz	$+60     	;abs 0x754
     71a:	00 00       	bra	@r0		
     71c:	00 03       	bra	#2		;r3 As==10
     71e:	8b 04 1d 00 	mova	#0x4001d,r11	
     722:	00 00       	bra	@r0		
     724:	1f 03       	mova	#-1,	r15	;r3 As==11
     726:	00 00       	bra	@r0		
     728:	01 01       	mova	@r1,	r1	
     72a:	1d f6 02 00 	and	2(r6),	r13	;0x0002(r6)
     72e:	00 03       	bra	#2		;r3 As==10
     730:	8d 04 f3 02 	mova	#0x402f3,r13	
     734:	00 00       	bra	@r0		
     736:	1f 03       	mova	#-1,	r15	;r3 As==11
     738:	00 00       	bra	@r0		
     73a:	01 01       	mova	@r1,	r1	
     73c:	1d e1 00 00 	xor	0(r1),	r13	;0x0000(r1)
     740:	00 03       	bra	#2		;r3 As==10
     742:	dc 04       	cmpa	r4,	r12	
     744:	de 00       	cmpa	r0,	r14	
     746:	00 00       	bra	@r0		
     748:	7a 04 00 00 	mova	r4,	0(r10)	;0x0000(r10)
     74c:	01 01       	mova	@r1,	r1	
     74e:	1d 97 00 00 	cmp	0(r7),	r13	;0x0000(r7)
     752:	00 03       	bra	#2		;r3 As==10
     754:	d9 05       	cmpa	r5,	r9	
     756:	94 00 00 00 	cmpa	#0x00000,r4	
     75a:	1f 03       	mova	#-1,	r15	;r3 As==11
     75c:	00 00       	bra	@r0		
     75e:	01 01       	mova	@r1,	r1	
     760:	1e 63       	addc	#1,	r14	;r3 As==01
     762:	02 00       	mova	@r0,	r2	
     764:	00 04       	bra	@r4		
     766:	0f 6d       	addc	r13,	r15	
     768:	07 00       	mova	@r0,	r7	
     76a:	00 01       	bra	@r1		
     76c:	01 1c       	.word	0x1c01;	????	
     76e:	91 04 00 00 	cmpa	#0x40000,r1	
     772:	1e 82 01 00 	sub	&0x0001,r14	
     776:	00 05       	bra	@r5		
     778:	06 b3       	bit	#0,	r6	;r3 As==00
     77a:	04 00       	mova	@r0,	r4	
     77c:	00 01       	bra	@r1		
     77e:	01 1e       	.word	0x1e01;	????	
     780:	09 03       	mova	#2,	r9	;r3 As==10
     782:	00 00       	bra	@r0		
     784:	05 07       	mova	@r7,	r5	
     786:	b3 04       	.word	0x04b3;	????	Illegal as address instr
     788:	00 00       	bra	@r0		
     78a:	01 01       	mova	@r1,	r1	
     78c:	1f 90 02 00 	cmp	0x0002,	r15	;PC rel. 0x00792
     790:	00 06       	bra	@r6		
     792:	01 6b       	addc	r11,	r1	
     794:	00 00       	bra	@r0		
     796:	00 01       	bra	@r1		
     798:	03 03       	.word	0x0303;	????	Illegal as address instr
     79a:	00 11       	rra	r0		
     79c:	1f 0f       	mova	@r15+,	r15	
     79e:	00 00       	bra	@r0		
     7a0:	00 06       	bra	@r6		
     7a2:	02 6b       	addc	r11,	r2	
     7a4:	00 00       	bra	@r0		
     7a6:	00 01       	bra	@r1		
     7a8:	03 03       	.word	0x0303;	????	Illegal as address instr
     7aa:	02 11       	rra	r2		
     7ac:	1f 69 01 00 	addc	1(r9),	r15	;0x0001(r9)
     7b0:	00 06       	bra	@r6		
     7b2:	03 6b       	.word	0x6b03;	????	Illegal as 2-op instr
     7b4:	00 00       	bra	@r0		
     7b6:	00 01       	bra	@r1		
     7b8:	03 03       	.word	0x0303;	????	Illegal as address instr
     7ba:	04 11       	rra	r4		
     7bc:	1f 15       	pushm	#2,	r15	
     7be:	02 00       	mova	@r0,	r2	
     7c0:	00 06       	bra	@r6		
     7c2:	04 6b       	addc	r11,	r4	
     7c4:	00 00       	bra	@r0		
     7c6:	00 01       	bra	@r1		
     7c8:	03 03       	.word	0x0303;	????	Illegal as address instr
     7ca:	06 11       	rra	r6		
     7cc:	1f 2d       	jc	$+576    	;abs 0xa0c
     7ce:	02 00       	mova	@r0,	r2	
     7d0:	00 06       	bra	@r6		
     7d2:	05 6b       	addc	r11,	r5	
     7d4:	00 00       	bra	@r0		
     7d6:	00 01       	bra	@r1		
     7d8:	03 03       	.word	0x0303;	????	Illegal as address instr
     7da:	08 11       	rra	r8		
     7dc:	1f 9e 00 00 	cmp	0(r14),	r15	;0x0000(r14)
     7e0:	00 06       	bra	@r6		
     7e2:	06 6b       	addc	r11,	r6	
     7e4:	00 00       	bra	@r0		
     7e6:	00 01       	bra	@r1		
     7e8:	03 03       	.word	0x0303;	????	Illegal as address instr
     7ea:	0a 11       	rra	r10		
     7ec:	1f 27       	jz	$-448    	;abs 0x62c
     7ee:	01 00       	mova	@r0,	r1	
     7f0:	00 06       	bra	@r6		
     7f2:	07 6b       	addc	r11,	r7	
     7f4:	00 00       	bra	@r0		
     7f6:	00 01       	bra	@r1		
     7f8:	03 03       	.word	0x0303;	????	Illegal as address instr
     7fa:	0c 11       	rra	r12		
     7fc:	1f 84 02 00 	sub	2(r4),	r15	;0x0002(r4)
     800:	00 06       	bra	@r6		
     802:	08 6b       	addc	r11,	r8	
     804:	00 00       	bra	@r0		
     806:	00 01       	bra	@r1		
     808:	03 03       	.word	0x0303;	????	Illegal as address instr
     80a:	0e 11       	rra	r14		
     80c:	1f ad 01 00 	dadd	1(r13),	r15	;0x0001(r13)
     810:	00 06       	bra	@r6		
     812:	09 6b       	addc	r11,	r9	
     814:	00 00       	bra	@r0		
     816:	00 01       	bra	@r1		
     818:	03 03       	.word	0x0303;	????	Illegal as address instr
     81a:	10 11 1f b4 	rra	0xb41f		;PC rel. 0xfbc3d
     81e:	00 00       	bra	@r0		
     820:	00 06       	bra	@r6		
     822:	0a 6b       	addc	r11,	r10	
     824:	00 00       	bra	@r0		
     826:	00 01       	bra	@r1		
     828:	03 03       	.word	0x0303;	????	Illegal as address instr
     82a:	12 11 1f d1 	rra	&0xd11f	
     82e:	00 00       	bra	@r0		
     830:	00 06       	bra	@r6		
     832:	0b 6b       	rlc	r11		
     834:	00 00       	bra	@r0		
     836:	00 01       	bra	@r1		
     838:	03 03       	.word	0x0303;	????	Illegal as address instr
     83a:	14 11 1f fa 	rra	-1505(r4)	;0xfa1f(r4)
     83e:	01 00       	mova	@r0,	r1	
     840:	00 06       	bra	@r6		
     842:	0c 6b       	addc	r11,	r12	
     844:	00 00       	bra	@r0		
     846:	00 01       	bra	@r1		
     848:	03 03       	.word	0x0303;	????	Illegal as address instr
     84a:	16 11 00 66 	rra	26112(r6)	;0x6600(r6)
     84e:	01 00       	mova	@r0,	r1	
     850:	00 02       	bra	#4		;r2 As==10
     852:	00 e6       	xor	r6,	r0	
     854:	01 00       	mova	@r0,	r1	
     856:	00 02       	bra	#4		;r2 As==10
     858:	01 9e       	cmp	r14,	r1	
     85a:	03 00       	.word	0x0003;	????	Illegal as address instr
     85c:	00 01       	bra	@r1		
     85e:	29 04 00 00 	mova	&0x40000,r9	
     862:	cc 03       	mova	#0,	r12	;r3 As==00
     864:	00 00       	bra	@r0		
     866:	c4 36       	jge	$-630    	;abs 0x5f0
     868:	10 37       	jge	$-478    	;abs 0x68a
     86a:	4c 04       	rrcm.a	#2,	r12	
     86c:	00 00       	bra	@r0		
     86e:	02 01       	mova	@r1,	r2	
     870:	44 04       	rrcm.a	#2,	r4	
     872:	00 00       	bra	@r0		
     874:	01 11       	rra	r1		
     876:	01 c4       	bic	r4,	r1	
     878:	36 c6       	bic	@r6+,	r6	
     87a:	36 02 71 02 	mova	&0x0271,r6	
     87e:	42 00       	rrcm.a	#1,	r2	
     880:	00 00       	bra	@r0		
     882:	03 c6       	.word	0xc603;	????	Illegal as 2-op instr
     884:	03 00       	.word	0x0003;	????	Illegal as address instr
     886:	00 01       	bra	@r1		
     888:	13 42       	.word	0x4213;	????	Illegal as 2-op instr
     88a:	00 00       	bra	@r0		
     88c:	00 05       	bra	@r5		
     88e:	00 04       	bra	@r4		
     890:	02 07       	mova	@r7,	r2	
     892:	31 00 00 00 	mova	0x0000,	r1	;PC rel. 0x00894
     896:	02 01       	mova	@r1,	r2	
     898:	13 04       	.word	0x0413;	????	Illegal as address instr
     89a:	00 00       	bra	@r0		
     89c:	01 19 01 c6 	.rpt	#1
				bicx	r6,	r1	
     8a0:	36 c8       	bic	@r8+,	r6	
     8a2:	36 02 71 02 	mova	&0x0271,r6	
     8a6:	6a 00 00 00 	mova	r0,	&0xa0000
     8aa:	03 c6       	.word	0xc603;	????	Illegal as 2-op instr
     8ac:	03 00       	.word	0x0003;	????	Illegal as address instr
     8ae:	00 01       	bra	@r1		
     8b0:	1b 42 00 00 	mov	&0x0000,r11	
     8b4:	00 10       	rrc	r0		
     8b6:	00 02       	bra	#4		;r2 As==10
     8b8:	01 21       	jnz	$+516    	;abs 0xabc
     8ba:	04 00       	mova	@r0,	r4	
     8bc:	00 01       	bra	@r1		
     8be:	23 01       	.word	0x0123;	????	Illegal as address instr
     8c0:	c8 36       	jge	$-622    	;abs 0x652
     8c2:	d8 36       	jge	$-590    	;abs 0x674
     8c4:	02 71       	subc	r1,	r2	
     8c6:	02 99       	cmp	r9,	r2	
     8c8:	00 00       	bra	@r0		
     8ca:	00 05       	bra	@r5		
     8cc:	c6 03       	mova	#0,	r6	;r3 As==00
     8ce:	00 00       	bra	@r0		
     8d0:	01 23       	jnz	$-508    	;abs 0x6d4
     8d2:	42 00       	rrcm.a	#1,	r2	
     8d4:	00 00       	bra	@r0		
     8d6:	01 5f       	add	r15,	r1	
     8d8:	06 69       	addc	r9,	r6	
     8da:	00 01       	bra	@r1		
     8dc:	25 99       	cmp	@r9,	r5	
     8de:	00 00       	bra	@r0		
     8e0:	00 9e       	cmp	r14,	r0	
     8e2:	02 00       	mova	@r0,	r2	
     8e4:	00 00       	bra	@r0		
     8e6:	07 02       	mova	#4,	r7	;r2 As==10
     8e8:	05 69       	addc	r9,	r5	
     8ea:	6e 74       	subc.b	@r4,	r14	
     8ec:	00 08       	bra	@r8		
     8ee:	01 0b       	mova	@r11,	r1	
     8f0:	04 00       	mova	@r0,	r4	
     8f2:	00 01       	bra	@r1		
     8f4:	2c 01 d8 36 	mova	&0x136d8,r12	
     8f8:	f8 36       	jge	$-526    	;abs 0x6ea
     8fa:	b1 02 00 00 	suba	#0x20000,r1	
     8fe:	d2 00       	cmpa	r0,	r2	
     900:	00 00       	bra	@r0		
     902:	09 c6       	bic	r6,	r9	
     904:	03 00       	.word	0x0003;	????	Illegal as address instr
     906:	00 01       	bra	@r1		
     908:	2c 42       	mov	#4,	r12	;r2 As==10
     90a:	00 00       	bra	@r0		
     90c:	00 cd       	bic	r13,	r0	
     90e:	02 00       	mova	@r0,	r2	
     910:	00 06       	bra	@r6		
     912:	69 00 01 2e 	mova	r0,	&0x92e01
     916:	99 00 00 00 	cmpa	#0x00000,r9	
     91a:	df 02       	cmpa	r2,	r15	
     91c:	00 00       	bra	@r0		
     91e:	00 02       	bra	#4		;r2 As==10
     920:	01 01       	mova	@r1,	r1	
     922:	04 00       	mova	@r0,	r4	
     924:	00 01       	bra	@r1		
     926:	33 01       	.word	0x0133;	????	Illegal as address instr
     928:	f8 36       	jge	$-526    	;abs 0x71a
     92a:	00 37       	jge	$-510    	;abs 0x72c
     92c:	02 71       	subc	r1,	r2	
     92e:	02 03       	mova	#2,	r2	;r3 As==10
     930:	01 00       	mova	@r0,	r1	
     932:	00 09       	bra	@r9		
     934:	31 04 00 00 	mova	0(r4),	r1	;0x0000(r4)
     938:	01 33       	jn	$-508    	;abs 0x73c
     93a:	42 00       	rrcm.a	#1,	r2	
     93c:	00 00       	bra	@r0		
     93e:	f2 02       	suba	r2,	r2	
     940:	00 00       	bra	@r0		
     942:	05 1c       	.word	0x1c05;	????	
     944:	04 00       	mova	@r0,	r4	
     946:	00 01       	bra	@r1		
     948:	33 42       	.word	0x4233;	????	Illegal as 2-op instr
     94a:	00 00       	bra	@r0		
     94c:	00 01       	bra	@r1		
     94e:	5e 00       	rrcm	#1,	r14	
     950:	0a 01       	mova	@r1,	r10	
     952:	3a 04 00 00 	mova	0(r4),	r10	;0x0000(r4)
     956:	01 37       	jge	$-508    	;abs 0x75a
     958:	01 2b       	jnc	$-508    	;abs 0x75c
     95a:	01 00       	mova	@r0,	r1	
     95c:	00 00       	bra	@r0		
     95e:	37 10       	rrc	@r7+		
     960:	37 02 71 02 	mova	&0x0271,r7	
     964:	2b 01 00 00 	mova	&0x10000,r11	
     968:	09 31       	jn	$+532    	;abs 0xb7c
     96a:	04 00       	mova	@r0,	r4	
     96c:	00 01       	bra	@r1		
     96e:	37 42       	mov	#8,	r7	;r2 As==11
     970:	00 00       	bra	@r0		
     972:	00 fd       	and	r13,	r0	
     974:	02 00       	mova	@r0,	r2	
     976:	00 00       	bra	@r0		
     978:	04 01       	mova	@r1,	r4	
     97a:	08 6d       	addc	r13,	r8	
     97c:	02 00       	mova	@r0,	r2	
     97e:	00 0b       	bra	@r11		
     980:	42 00       	rrcm.a	#1,	r2	
     982:	00 00       	bra	@r0		
     984:	42 01       	rram.a	#1,	r2	
     986:	00 00       	bra	@r0		
     988:	0c 42       	mov	r2,	r12	
     98a:	00 00       	bra	@r0		
     98c:	00 0e       	bra	@r14		
     98e:	00 0d       	bra	@r13		
     990:	63 02 00 00 	mova	r2,	&0x30000
     994:	02 13       	reti			;return from interupt
     996:	4f 01       	rram.a	#1,	r15	
     998:	00 00       	bra	@r0		
     99a:	01 01       	mova	@r1,	r1	
     99c:	0e 32       	jn	$-994    	;abs 0x5ba
     99e:	01 00       	mova	@r0,	r1	
     9a0:	00 0f       	bra	@r15		
     9a2:	63 02 00 00 	mova	r2,	&0x30000
     9a6:	01 0f       	mova	@r15,	r1	
     9a8:	64 01 00 00 	mova	r1,	&0x40000
     9ac:	01 03       	mova	#2,	r1	;r3 As==10
     9ae:	03 3a       	jl	$-1016   	;abs 0x5b6
     9b0:	11 0e       	mova	@r14+,	r1	
     9b2:	32 01 00 00 	mova	0(r1),	r2	;0x0000(r1)
     9b6:	00 51       	add	r1,	r0	
     9b8:	00 00       	bra	@r0		
     9ba:	00 02       	bra	#4		;r2 As==10
     9bc:	00 ce       	bic	r14,	r0	
     9be:	02 00       	mova	@r0,	r2	
     9c0:	00 02       	bra	#4		;r2 As==10
     9c2:	01 9e       	cmp	r14,	r1	
     9c4:	03 00       	.word	0x0003;	????	Illegal as address instr
     9c6:	00 01       	bra	@r1		
     9c8:	4d 04       	rrcm.a	#2,	r13	
     9ca:	00 00       	bra	@r0		
     9cc:	cc 03       	mova	#0,	r12	;r3 As==00
     9ce:	00 00       	bra	@r0		
     9d0:	10 37       	jge	$-478    	;abs 0x7f2
     9d2:	10 37       	jge	$-478    	;abs 0x7f4
     9d4:	f0 04       	suba	r4,	r0	
     9d6:	00 00       	bra	@r0		
     9d8:	02 04       	mova	@r4,	r2	
     9da:	04 51       	add	r1,	r4	
     9dc:	02 00       	mova	@r0,	r2	
     9de:	00 02       	bra	#4		;r2 As==10
     9e0:	02 07       	mova	@r7,	r2	
     9e2:	31 00 00 00 	mova	0x0000,	r1	;PC rel. 0x009e4
     9e6:	02 01       	mova	@r1,	r2	
     9e8:	06 76       	subc	r6,	r6	
     9ea:	02 00       	mova	@r0,	r2	
     9ec:	00 03       	bra	#2		;r3 As==10
     9ee:	02 05       	mova	@r5,	r2	
     9f0:	69 6e       	addc.b	@r14,	r9	
     9f2:	74 00 02 01 	mova	r0,	258(r4)	;0x0102(r4)
     9f6:	08 6d       	addc	r13,	r8	
     9f8:	02 00       	mova	@r0,	r2	
     9fa:	00 04       	bra	@r4		
     9fc:	56 04       	rrcm	#2,	r6	
     9fe:	00 00       	bra	@r0		
     a00:	01 03       	mova	#2,	r1	;r3 As==10
     a02:	3d 00 00 00 	mova	0x0000,	r13	;PC rel. 0x00a04
     a06:	01 03       	mova	#2,	r1	;r3 As==10
     a08:	03 18       	.word	0x1803;	????	
     a0a:	11 00       	mova	#0x00000,r1	
     a0c:	cd 0a       	mova	r10,	r13	
     a0e:	00 00       	bra	@r0		
     a10:	02 00       	mova	@r0,	r2	
     a12:	09 03       	mova	#2,	r9	;r3 As==10
     a14:	00 00       	bra	@r0		
     a16:	02 01       	mova	@r1,	r2	
     a18:	9e 03 00 00 	cmpa	#0x30000,r14	
     a1c:	01 59       	add	r9,	r1	
     a1e:	05 00       	mova	@r0,	r5	
     a20:	00 cc       	bic	r12,	r0	
     a22:	03 00       	.word	0x0003;	????	Illegal as address instr
     a24:	00 10       	rrc	r0		
     a26:	37 3c       	jmp	$+112    	;abs 0xa96
     a28:	3d 1e       	.word	0x1e3d;	????	
     a2a:	05 00       	mova	@r0,	r5	
     a2c:	00 02       	bra	#4		;r2 As==10
     a2e:	01 62       	addc	r2,	r1	
     a30:	04 00       	mova	@r0,	r4	
     a32:	00 01       	bra	@r1		
     a34:	24 01 01 02 	mova	&0x10201,r4	
     a38:	01 8f       	sub	r15,	r1	
     a3a:	04 00       	mova	@r0,	r4	
     a3c:	00 01       	bra	@r1		
     a3e:	36 01 01 03 	mova	769(r1),r6	;0x0301(r1)
     a42:	01 3f       	jmp	$-508    	;abs 0x846
     a44:	06 00       	mova	@r0,	r6	
     a46:	00 01       	bra	@r1		
     a48:	47 01       	rram.a	#1,	r7	
     a4a:	43 00       	rrcm.a	#1,	#0	;r3 As==00
     a4c:	00 00       	bra	@r0		
     a4e:	01 04       	mova	@r4,	r1	
     a50:	01 08       	mova	@r8,	r1	
     a52:	6d 02 00 00 	mova	r2,	&0xd0000
     a56:	05 01       	mova	@r1,	r5	
     a58:	48 06       	rlam.a	#2,	r8	
     a5a:	00 00       	bra	@r0		
     a5c:	01 4f       	mov	r15,	r1	
     a5e:	01 43       	clr	r1		
     a60:	00 00       	bra	@r0		
     a62:	00 01       	bra	@r1		
     a64:	66 00 00 00 	mova	r0,	&0x60000
     a68:	06 62       	addc	r2,	r6	
     a6a:	00 01       	bra	@r1		
     a6c:	4f 43       	clr.b	r15		
     a6e:	00 00       	bra	@r0		
     a70:	00 00       	bra	@r0		
     a72:	07 01       	mova	@r1,	r7	
     a74:	b3 05       	.word	0x05b3;	????	Illegal as address instr
     a76:	00 00       	bra	@r0		
     a78:	01 1c       	.word	0x1c01;	????	
     a7a:	01 01       	mova	@r1,	r1	
     a7c:	80 00 00 00 	bra	#0x00000	
     a80:	08 12       	push	r8		
     a82:	06 00       	mova	@r0,	r6	
     a84:	00 01       	bra	@r1		
     a86:	1c 43       	mov	#1,	r12	;r3 As==01
     a88:	00 00       	bra	@r0		
     a8a:	00 00       	bra	@r0		
     a8c:	09 01       	mova	@r1,	r9	
     a8e:	c3 04       	.word	0x04c3;	????	Illegal as address instr
     a90:	00 00       	bra	@r0		
     a92:	01 06       	mova	@r6,	r1	
     a94:	01 10       	rrc	r1		
     a96:	37 54       	add	@r4+,	r7	
     a98:	37 02 71 02 	mova	&0x0271,r7	
     a9c:	a4 00 00 00 	adda	#0x00000,r4	
     aa0:	0a 12       	push	r10		
     aa2:	06 00       	mova	@r0,	r6	
     aa4:	00 01       	bra	@r1		
     aa6:	06 43       	clr	r6		
     aa8:	00 00       	bra	@r0		
     aaa:	00 08       	bra	@r8		
     aac:	03 00       	.word	0x0003;	????	Illegal as address instr
     aae:	00 00       	bra	@r0		
     ab0:	0b 66       	addc	r6,	r11	
     ab2:	00 00       	bra	@r0		
     ab4:	00 54       	add	r4,	r0	
     ab6:	37 64       	addc	@r4+,	r7	
     ab8:	37 02 71 02 	mova	&0x0271,r7	
     abc:	be 00 00 00 	suba	#0x00000,r14	
     ac0:	0c 74       	subc	r4,	r12	
     ac2:	00 00       	bra	@r0		
     ac4:	00 13       	reti			
     ac6:	03 00       	.word	0x0003;	????	Illegal as address instr
     ac8:	00 00       	bra	@r0		
     aca:	0d 21       	jnz	$+540    	;abs 0xce6
     acc:	00 00       	bra	@r0		
     ace:	00 64       	addc	r4,	r0	
     ad0:	37 74       	subc	@r4+,	r7	
     ad2:	37 02 71 02 	mova	&0x0271,r7	
     ad6:	0e 01       	mova	@r1,	r14	
     ad8:	51 06       	rlam	#2,	r1	
     ada:	00 00       	bra	@r0		
     adc:	01 2d       	jc	$+516    	;abs 0xce0
     ade:	01 74       	subc	r4,	r1	
     ae0:	37 88       	sub	@r8+,	r7	
     ae2:	37 02 71 02 	mova	&0x0271,r7	
     ae6:	0d 2b       	jnc	$-484    	;abs 0x902
     ae8:	00 00       	bra	@r0		
     aea:	00 88       	sub	r8,	r0	
     aec:	37 98       	cmp	@r8+,	r7	
     aee:	37 02 71 02 	mova	&0x0271,r7	
     af2:	0e 01       	mova	@r1,	r14	
     af4:	7a 04 00 00 	mova	r4,	0(r10)	;0x0000(r10)
     af8:	01 3e       	jmp	$-1020   	;abs 0x6fc
     afa:	01 98       	cmp	r8,	r1	
     afc:	37 ac       	dadd	@r12+,	r7	
     afe:	37 02 71 02 	mova	&0x0271,r7	
     b02:	0d 35       	jge	$+540    	;abs 0xd1e
     b04:	00 00       	bra	@r0		
     b06:	00 ac       	dadd	r12,	r0	
     b08:	37 be       	bit	@r14+,	r7	
     b0a:	37 02 71 02 	mova	&0x0271,r7	
     b0e:	0b 4a       	mov	r10,	r11	
     b10:	00 00       	bra	@r0		
     b12:	00 be       	bit	r14,	r0	
     b14:	37 d2       	bis	#8,	r7	;r2 As==11
     b16:	37 02 71 02 	mova	&0x0271,r7	
     b1a:	1c 01       	mova	@r1+,	r12	
     b1c:	00 00       	bra	@r0		
     b1e:	0c 5c       	rla	r12		
     b20:	00 00       	bra	@r0		
     b22:	00 1e       	.word	0x1e00;	????	
     b24:	03 00       	.word	0x0003;	????	Illegal as address instr
     b26:	00 00       	bra	@r0		
     b28:	0f 01       	mova	@r1,	r15	
     b2a:	d8 05       	cmpa	r5,	r8	
     b2c:	00 00       	bra	@r0		
     b2e:	01 58       	add	r8,	r1	
     b30:	01 43       	clr	r1		
     b32:	00 00       	bra	@r0		
     b34:	00 d2       	bis	r2,	r0	
     b36:	37 00 38 02 	mova	0x0238,	r7	;PC rel. 0x00d70
     b3a:	71 02 65 01 	mova	r2,	357(r1)	;0x0165(r1)
     b3e:	00 00       	bra	@r0		
     b40:	10 bc 04 00 	bit	4(r12),	r0	;0x0004(r12)
     b44:	00 01       	bra	@r1		
     b46:	5a 43       	mov.b	#1,	r10	;r3 As==01
     b48:	00 00       	bra	@r0		
     b4a:	00 29       	jnc	$+514    	;abs 0xd4c
     b4c:	03 00       	.word	0x0003;	????	Illegal as address instr
     b4e:	00 11       	rra	r0		
     b50:	21 00 00 00 	mova	&0x00000,r1	
     b54:	d2 37       	jge	$-90     	;abs 0xafa
     b56:	e0 37       	jge	$-62     	;abs 0xb18
     b58:	01 5c       	add	r12,	r1	
     b5a:	11 2b       	jnc	$-476    	;abs 0x97e
     b5c:	00 00       	bra	@r0		
     b5e:	00 e0       	xor	r0,	r0	
     b60:	37 ee       	xor	@r14+,	r7	
     b62:	37 01 5d 11 	mova	4445(r1),r7	;0x115d(r1)
     b66:	35 00 00 00 	mova	0x0000,	r5	;PC rel. 0x00b68
     b6a:	ee 37       	jge	$-34     	;abs 0xb48
     b6c:	f8 37       	jge	$-14     	;abs 0xb5e
     b6e:	01 5e       	add	r14,	r1	
     b70:	00 0f       	bra	@r15		
     b72:	01 1c       	.word	0x1c01;	????	
     b74:	06 00       	mova	@r0,	r6	
     b76:	00 01       	bra	@r1		
     b78:	63 01 43 00 	mova	r1,	&0x30043
     b7c:	00 00       	bra	@r0		
     b7e:	00 38       	jl	$+2      	;abs 0xb80
     b80:	42 38       	jl	$+134    	;abs 0xc06
     b82:	02 71       	subc	r1,	r2	
     b84:	02 d5       	bis	r5,	r2	
     b86:	01 00       	mova	@r0,	r1	
     b88:	00 12       	push	r0		
     b8a:	62 31       	jn	$+710    	;abs 0xe50
     b8c:	00 01       	bra	@r1		
     b8e:	63 43       	.word	0x4363;	????	Illegal as 2-op instr
     b90:	00 00       	bra	@r0		
     b92:	00 35       	jge	$+514    	;abs 0xd94
     b94:	03 00       	.word	0x0003;	????	Illegal as address instr
     b96:	00 10       	rrc	r0		
     b98:	bc 04 00 00 	suba	#0x40000,r12	
     b9c:	01 65       	addc	r5,	r1	
     b9e:	43 00       	rrcm.a	#1,	#0	;r3 As==00
     ba0:	00 00       	bra	@r0		
     ba2:	40 03       	rrum.a	#1,	r0	
     ba4:	00 00       	bra	@r0		
     ba6:	11 21       	jnz	$+548    	;abs 0xdca
     ba8:	00 00       	bra	@r0		
     baa:	00 00       	bra	@r0		
     bac:	38 0e 38 01 	mova	312(r14),r8	;0x0138(r14)
     bb0:	67 13       	calla	@r7		
     bb2:	4a 00       	rrcm.a	#1,	r10	
     bb4:	00 00       	bra	@r0		
     bb6:	0e 38       	jl	$+30     	;abs 0xbd4
     bb8:	20 38       	jl	$+66     	;abs 0xbfa
     bba:	01 68       	addc	r8,	r1	
     bbc:	be 01 00 00 	suba	#0x10000,r14	
     bc0:	0c 5c       	rla	r12		
     bc2:	00 00       	bra	@r0		
     bc4:	00 53       	add	#0,	r0	;r3 As==00
     bc6:	03 00       	.word	0x0003;	????	Illegal as address instr
     bc8:	00 00       	bra	@r0		
     bca:	11 2b       	jnc	$-476    	;abs 0x9ee
     bcc:	00 00       	bra	@r0		
     bce:	00 20       	jnz	$+2      	;abs 0xbd0
     bd0:	38 2e       	jc	$-910    	;abs 0x842
     bd2:	38 01 69 11 	mova	4457(r1),r8	;0x1169(r1)
     bd6:	35 00 00 00 	mova	0x0000,	r5	;PC rel. 0x00bd8
     bda:	2e 38       	jl	$+94     	;abs 0xc38
     bdc:	3e 38       	jl	$+126    	;abs 0xc5a
     bde:	01 6a       	addc	r10,	r1	
     be0:	00 0f       	bra	@r15		
     be2:	01 19       	.word	0x1901;	????	
     be4:	05 00       	mova	@r0,	r5	
     be6:	00 01       	bra	@r1		
     be8:	6f 01 43 00 	mova	r1,	&0xf0043
     bec:	00 00       	bra	@r0		
     bee:	42 38       	jl	$+134    	;abs 0xc74
     bf0:	98 38       	jl	$+306    	;abs 0xd22
     bf2:	02 71       	subc	r1,	r2	
     bf4:	02 6d       	addc	r13,	r2	
     bf6:	02 00       	mova	@r0,	r2	
     bf8:	00 12       	push	r0		
     bfa:	62 31       	jn	$+710    	;abs 0xec0
     bfc:	00 01       	bra	@r1		
     bfe:	6f 43       	mov.b	#2,	r15	;r3 As==10
     c00:	00 00       	bra	@r0		
     c02:	00 5e       	add	r14,	r0	
     c04:	03 00       	.word	0x0003;	????	Illegal as address instr
     c06:	00 12       	push	r0		
     c08:	64 61       	addc.b	@r1,	r4	
     c0a:	74 00 01 6f 	mova	r0,	28417(r4);0x6f01(r4)
     c0e:	43 00       	rrcm.a	#1,	#0	;r3 As==00
     c10:	00 00       	bra	@r0		
     c12:	69 03 00 00 	mova	#0,	&0x90000;r3 As==00
     c16:	10 bc 04 00 	bit	4(r12),	r0	;0x0004(r12)
     c1a:	00 01       	bra	@r1		
     c1c:	71 43       	mov.b	#-1,	r1	;r3 As==11
     c1e:	00 00       	bra	@r0		
     c20:	00 74       	subc	r4,	r0	
     c22:	03 00       	.word	0x0003;	????	Illegal as address instr
     c24:	00 11       	rra	r0		
     c26:	21 00 00 00 	mova	&0x00000,r1	
     c2a:	42 38       	jl	$+134    	;abs 0xcb0
     c2c:	50 38       	jl	$+162    	;abs 0xcce
     c2e:	01 73       	sbc	r1		
     c30:	13 4a       	.word	0x4a13;	????	Illegal as 2-op instr
     c32:	00 00       	bra	@r0		
     c34:	00 50       	rla	r0		
     c36:	38 62       	addc	#8,	r8	;r2 As==11
     c38:	38 01 74 3d 	mova	15732(r1),r8	;0x3d74(r1)
     c3c:	02 00       	mova	@r0,	r2	
     c3e:	00 0c       	bra	@r12		
     c40:	5c 00       	rrcm	#1,	r12	
     c42:	00 00       	bra	@r0		
     c44:	8e 03 00 00 	mova	#0x30000,r14	
     c48:	00 13       	reti			
     c4a:	4a 00       	rrcm.a	#1,	r10	
     c4c:	00 00       	bra	@r0		
     c4e:	62 38       	jl	$+198    	;abs 0xd14
     c50:	74 38       	jl	$+234    	;abs 0xd3a
     c52:	01 75       	subc	r5,	r1	
     c54:	56 02       	rlam	#1,	r6	
     c56:	00 00       	bra	@r0		
     c58:	0c 5c       	rla	r12		
     c5a:	00 00       	bra	@r0		
     c5c:	00 99       	cmp	r9,	r0	
     c5e:	03 00       	.word	0x0003;	????	Illegal as address instr
     c60:	00 00       	bra	@r0		
     c62:	11 2b       	jnc	$-476    	;abs 0xa86
     c64:	00 00       	bra	@r0		
     c66:	00 76       	subc	r6,	r0	
     c68:	38 84       	sub	@r4+,	r8	
     c6a:	38 01 76 11 	mova	4470(r1),r8	;0x1176(r1)
     c6e:	35 00 00 00 	mova	0x0000,	r5	;PC rel. 0x00c70
     c72:	84 38       	jl	$+266    	;abs 0xd7c
     c74:	94 38       	jl	$+298    	;abs 0xd9e
     c76:	01 77       	subc	r7,	r1	
     c78:	00 14       	pushm.a	#1,	r0	
     c7a:	01 ce       	bic	r14,	r1	
     c7c:	04 00       	mova	@r0,	r4	
     c7e:	00 01       	bra	@r1		
     c80:	7c 01 43 00 	mova	r1,	67(r12)	;0x0043(r12)
     c84:	00 00       	bra	@r0		
     c86:	98 38       	jl	$+306    	;abs 0xdb8
     c88:	04 39       	jl	$+522    	;abs 0xe92
     c8a:	a4 03 00 00 	adda	#0x30000,r4	
     c8e:	20 03 00 00 	bra	&0x30000	
     c92:	12 62 31 00 	addc	&0x0031,r2	
     c96:	01 7c       	subc	r12,	r1	
     c98:	43 00       	rrcm.a	#1,	#0	;r3 As==00
     c9a:	00 00       	bra	@r0		
     c9c:	b8 03 00 00 	suba	#0x30000,r8	
     ca0:	12 64 61 74 	addc	29793(r4),r2	;0x7461(r4)
     ca4:	00 01       	bra	@r1		
     ca6:	7c 20       	jnz	$+250    	;abs 0xda0
     ca8:	03 00       	.word	0x0003;	????	Illegal as address instr
     caa:	00 c3       	bic	#0,	r0	;r3 As==00
     cac:	03 00       	.word	0x0003;	????	Illegal as address instr
     cae:	00 15       	pushm	#1,	r0	
     cb0:	6c 65       	addc.b	@r5,	r12	
     cb2:	6e 00 01 7c 	mova	r0,	&0xe7c01
     cb6:	43 00       	rrcm.a	#1,	#0	;r3 As==00
     cb8:	00 00       	bra	@r0		
     cba:	01 5d       	add	r13,	r1	
     cbc:	16 69 00 01 	addc	256(r9),r6	;0x0100(r9)
     cc0:	7e 43       	mov.b	#-1,	r14	;r3 As==11
     cc2:	00 00       	bra	@r0		
     cc4:	00 ce       	bic	r14,	r0	
     cc6:	03 00       	.word	0x0003;	????	Illegal as address instr
     cc8:	00 10       	rrc	r0		
     cca:	bc 04 00 00 	suba	#0x40000,r12	
     cce:	01 7e       	subc	r14,	r1	
     cd0:	43 00       	rrcm.a	#1,	#0	;r3 As==00
     cd2:	00 00       	bra	@r0		
     cd4:	da 03       	tsta	r10		
     cd6:	00 00       	bra	@r0		
     cd8:	11 21       	jnz	$+548    	;abs 0xefc
     cda:	00 00       	bra	@r0		
     cdc:	00 9a       	cmp	r10,	r0	
     cde:	38 a8       	dadd	@r8+,	r8	
     ce0:	38 01 80 13 	mova	4992(r1),r8	;0x1380(r1)
     ce4:	4a 00       	rrcm.a	#1,	r10	
     ce6:	00 00       	bra	@r0		
     ce8:	a8 38       	jl	$+338    	;abs 0xe3a
     cea:	ba 38       	jl	$+374    	;abs 0xe60
     cec:	01 81       	sub	r1,	r1	
     cee:	f0 02       	suba	r2,	r0	
     cf0:	00 00       	bra	@r0		
     cf2:	0c 5c       	rla	r12		
     cf4:	00 00       	bra	@r0		
     cf6:	00 f4       	and	r4,	r0	
     cf8:	03 00       	.word	0x0003;	????	Illegal as address instr
     cfa:	00 00       	bra	@r0		
     cfc:	13 4a       	.word	0x4a13;	????	Illegal as 2-op instr
     cfe:	00 00       	bra	@r0		
     d00:	00 c2       	bic	r2,	r0	
     d02:	38 d4       	bis	@r4+,	r8	
     d04:	38 01 83 09 	mova	2435(r1),r8	;0x0983(r1)
     d08:	03 00       	.word	0x0003;	????	Illegal as address instr
     d0a:	00 0c       	bra	@r12		
     d0c:	5c 00       	rrcm	#1,	r12	
     d0e:	00 00       	bra	@r0		
     d10:	ff 03       	decda	r15		
     d12:	00 00       	bra	@r0		
     d14:	00 11       	rra	r0		
     d16:	2b 00 00 00 	mova	&0x00000,r11	
     d1a:	e0 38       	jl	$+450    	;abs 0xedc
     d1c:	ee 38       	jl	$+478    	;abs 0xefa
     d1e:	01 84       	sub	r4,	r1	
     d20:	11 35       	jge	$+548    	;abs 0xf44
     d22:	00 00       	bra	@r0		
     d24:	00 ee       	xor	r14,	r0	
     d26:	38 fe       	and	@r14+,	r8	
     d28:	38 01 85 00 	mova	133(r1),r8	;0x0085(r1)
     d2c:	17 02       	mova	#8,	r7	;r2 As==11
     d2e:	43 00       	rrcm.a	#1,	#0	;r3 As==00
     d30:	00 00       	bra	@r0		
     d32:	0f 01       	mova	@r1,	r15	
     d34:	f8 04       	suba	r4,	r8	
     d36:	00 00       	bra	@r0		
     d38:	01 8a       	sub	r10,	r1	
     d3a:	01 43       	clr	r1		
     d3c:	00 00       	bra	@r0		
     d3e:	00 04       	bra	@r4		
     d40:	39 5a       	add	@r10+,	r9	
     d42:	39 02 71 02 	mova	&0x0271,r9	
     d46:	bd 03 00 00 	suba	#0x30000,r13	
     d4a:	12 62 31 00 	addc	&0x0031,r2	
     d4e:	01 8a       	sub	r10,	r1	
     d50:	43 00       	rrcm.a	#1,	#0	;r3 As==00
     d52:	00 00       	bra	@r0		
     d54:	13 04       	.word	0x0413;	????	Illegal as address instr
     d56:	00 00       	bra	@r0		
     d58:	12 62 32 00 	addc	&0x0032,r2	
     d5c:	01 8a       	sub	r10,	r1	
     d5e:	43 00       	rrcm.a	#1,	#0	;r3 As==00
     d60:	00 00       	bra	@r0		
     d62:	1e 04       	mova	@r4+,	r14	
     d64:	00 00       	bra	@r0		
     d66:	10 bc 04 00 	bit	4(r12),	r0	;0x0004(r12)
     d6a:	00 01       	bra	@r1		
     d6c:	8c 43 00 00 	mov	#0,	0(r12)	;r3 As==00, 0x0000(r12)
     d70:	00 29       	jnc	$+514    	;abs 0xf72
     d72:	04 00       	mova	@r0,	r4	
     d74:	00 11       	rra	r0		
     d76:	21 00 00 00 	mova	&0x00000,r1	
     d7a:	04 39       	jl	$+522    	;abs 0xf84
     d7c:	12 39       	jl	$+550    	;abs 0xfa2
     d7e:	01 8e       	sub	r14,	r1	
     d80:	13 4a       	.word	0x4a13;	????	Illegal as 2-op instr
     d82:	00 00       	bra	@r0		
     d84:	00 12       	push	r0		
     d86:	39 24       	jz	$+116    	;abs 0xdfa
     d88:	39 01 8f 8d 	mova	-29297(r1),r9	;0x8d8f(r1)
     d8c:	03 00       	.word	0x0003;	????	Illegal as address instr
     d8e:	00 0c       	bra	@r12		
     d90:	5c 00       	rrcm	#1,	r12	
     d92:	00 00       	bra	@r0		
     d94:	43 04       	rrcm.a	#2,	#0	;r3 As==00
     d96:	00 00       	bra	@r0		
     d98:	00 13       	reti			
     d9a:	4a 00       	rrcm.a	#1,	r10	
     d9c:	00 00       	bra	@r0		
     d9e:	24 39       	jl	$+586    	;abs 0xfe8
     da0:	36 39       	jl	$+622    	;abs 0x100e
     da2:	01 90       	cmp	r0,	r1	
     da4:	a6 03 00 00 	adda	#0x30000,r6	
     da8:	0c 5c       	rla	r12		
     daa:	00 00       	bra	@r0		
     dac:	00 4e       	br	r14		
     dae:	04 00       	mova	@r0,	r4	
     db0:	00 00       	bra	@r0		
     db2:	11 2b       	jnc	$-476    	;abs 0xbd6
     db4:	00 00       	bra	@r0		
     db6:	00 38       	jl	$+2      	;abs 0xdb8
     db8:	39 46       	mov	@r6+,	r9	
     dba:	39 01 91 11 	mova	4497(r1),r9	;0x1191(r1)
     dbe:	35 00 00 00 	mova	0x0000,	r5	;PC rel. 0x00dc0
     dc2:	46 39       	jl	$+654    	;abs 0x1050
     dc4:	56 39       	jl	$+686    	;abs 0x1072
     dc6:	01 92       	cmp	r2,	r1	
     dc8:	00 0f       	bra	@r15		
     dca:	01 38       	jl	$+4      	;abs 0xdce
     dcc:	05 00       	mova	@r0,	r5	
     dce:	00 01       	bra	@r1		
     dd0:	97 01 43 00 	cmpa	#0x10043,r7	
     dd4:	00 00       	bra	@r0		
     dd6:	5a 39       	jl	$+694    	;abs 0x108c
     dd8:	c4 39       	jl	$+906    	;abs 0x1162
     dda:	02 71       	subc	r1,	r2	
     ddc:	02 78       	subc	r8,	r2	
     dde:	04 00       	mova	@r0,	r4	
     de0:	00 12       	push	r0		
     de2:	62 31       	jn	$+710    	;abs 0x10a8
     de4:	00 01       	bra	@r1		
     de6:	97 43 00 00 	mov	#1,	0(r7)	;r3 As==01, 0x0000(r7)
     dea:	00 59       	add	r9,	r0	
     dec:	04 00       	mova	@r0,	r4	
     dee:	00 12       	push	r0		
     df0:	62 32       	jn	$-826    	;abs 0xab6
     df2:	00 01       	bra	@r1		
     df4:	97 43 00 00 	mov	#1,	0(r7)	;r3 As==01, 0x0000(r7)
     df8:	00 64       	addc	r4,	r0	
     dfa:	04 00       	mova	@r0,	r4	
     dfc:	00 15       	pushm	#1,	r0	
     dfe:	64 61       	addc.b	@r1,	r4	
     e00:	74 00 01 97 	mova	r0,	-26879(r4);0x9701(r4)
     e04:	43 00       	rrcm.a	#1,	#0	;r3 As==00
     e06:	00 00       	bra	@r0		
     e08:	01 5d       	add	r13,	r1	
     e0a:	10 bc 04 00 	bit	4(r12),	r0	;0x0004(r12)
     e0e:	00 01       	bra	@r1		
     e10:	99 43 00 00 	mov	#1,	0(r9)	;r3 As==01, 0x0000(r9)
     e14:	00 6f       	addc	r15,	r0	
     e16:	04 00       	mova	@r0,	r4	
     e18:	00 11       	rra	r0		
     e1a:	21 00 00 00 	mova	&0x00000,r1	
     e1e:	5a 39       	jl	$+694    	;abs 0x10d4
     e20:	68 39       	jl	$+722    	;abs 0x10f2
     e22:	01 9b       	cmp	r11,	r1	
     e24:	13 4a       	.word	0x4a13;	????	Illegal as 2-op instr
     e26:	00 00       	bra	@r0		
     e28:	00 68       	addc	r8,	r0	
     e2a:	39 7a       	subc	@r10+,	r9	
     e2c:	39 01 9c 31 	mova	12700(r1),r9	;0x319c(r1)
     e30:	04 00       	mova	@r0,	r4	
     e32:	00 0c       	bra	@r12		
     e34:	5c 00       	rrcm	#1,	r12	
     e36:	00 00       	bra	@r0		
     e38:	90 04 00 00 	cmpa	#0x40000,r0	
     e3c:	00 13       	reti			
     e3e:	4a 00       	rrcm.a	#1,	r10	
     e40:	00 00       	bra	@r0		
     e42:	7a 39       	jl	$+758    	;abs 0x1138
     e44:	8c 39       	jl	$+794    	;abs 0x115e
     e46:	01 9d       	cmp	r13,	r1	
     e48:	4a 04       	rrcm.a	#2,	r10	
     e4a:	00 00       	bra	@r0		
     e4c:	0c 5c       	rla	r12		
     e4e:	00 00       	bra	@r0		
     e50:	00 9b       	cmp	r11,	r0	
     e52:	04 00       	mova	@r0,	r4	
     e54:	00 00       	bra	@r0		
     e56:	13 4a       	.word	0x4a13;	????	Illegal as 2-op instr
     e58:	00 00       	bra	@r0		
     e5a:	00 8e       	sub	r14,	r0	
     e5c:	39 a0 39 01 	dadd	#313,	r9	;#0x0139
     e60:	9e 61 04 00 	addc	4(r1),	6144(r14);0x0004(r1), 0x1800(r14)
     e64:	00 18 
     e66:	5c 00       	rrcm	#1,	r12	
     e68:	00 00       	bra	@r0		
     e6a:	01 5d       	add	r13,	r1	
     e6c:	00 11       	rra	r0		
     e6e:	2b 00 00 00 	mova	&0x00000,r11	
     e72:	a2 39       	jl	$+838    	;abs 0x11b8
     e74:	b0 39       	jl	$+866    	;abs 0x11d6
     e76:	01 9f       	cmp	r15,	r1	
     e78:	11 35       	jge	$+548    	;abs 0x109c
     e7a:	00 00       	bra	@r0		
     e7c:	00 b0       	bit	r0,	r0	
     e7e:	39 c0 39 01 	bic	#313,	r9	;#0x0139
     e82:	a0 00 14 01 	adda	#0x00114,r0	
     e86:	a7 04 00 00 	adda	#0x40000,r7	
     e8a:	01 a5       	dadd	r5,	r1	
     e8c:	01 43       	clr	r1		
     e8e:	00 00       	bra	@r0		
     e90:	00 c4       	bic	r4,	r0	
     e92:	39 44       	mov	@r4+,	r9	
     e94:	3a a6       	dadd	@r6+,	r10	
     e96:	04 00       	mova	@r0,	r4	
     e98:	00 50       	rla	r0		
     e9a:	05 00       	mova	@r0,	r5	
     e9c:	00 12       	push	r0		
     e9e:	62 31       	jn	$+710    	;abs 0x1164
     ea0:	00 01       	bra	@r1		
     ea2:	a5 43 00 00 	mov	#2,	0(r5)	;r3 As==10, 0x0000(r5)
     ea6:	00 ba       	bit	r10,	r0	
     ea8:	04 00       	mova	@r0,	r4	
     eaa:	00 12       	push	r0		
     eac:	62 32       	jn	$-826    	;abs 0xb72
     eae:	00 01       	bra	@r1		
     eb0:	a5 43 00 00 	mov	#2,	0(r5)	;r3 As==10, 0x0000(r5)
     eb4:	00 c5       	bic	r5,	r0	
     eb6:	04 00       	mova	@r0,	r4	
     eb8:	00 15       	pushm	#1,	r0	
     eba:	64 61       	addc.b	@r1,	r4	
     ebc:	74 00 01 a5 	mova	r0,	-23295(r4);0xa501(r4)
     ec0:	20 03 00 00 	bra	&0x30000	
     ec4:	01 5d       	add	r13,	r1	
     ec6:	15 6c 65 6e 	addc	28261(r12),r5	;0x6e65(r12)
     eca:	00 01       	bra	@r1		
     ecc:	a5 43 00 00 	mov	#2,	0(r5)	;r3 As==10, 0x0000(r5)
     ed0:	00 01       	bra	@r1		
     ed2:	5c 16       	popm.a	#6,	r1	
     ed4:	69 00 01 a7 	mova	r0,	&0x9a701
     ed8:	43 00       	rrcm.a	#1,	#0	;r3 As==00
     eda:	00 00       	bra	@r0		
     edc:	d0 04       	cmpa	r4,	r0	
     ede:	00 00       	bra	@r0		
     ee0:	10 bc 04 00 	bit	4(r12),	r0	;0x0004(r12)
     ee4:	00 01       	bra	@r1		
     ee6:	a7 43 00 00 	mov	#2,	0(r7)	;r3 As==10, 0x0000(r7)
     eea:	00 dc       	bis	r12,	r0	
     eec:	04 00       	mova	@r0,	r4	
     eee:	00 11       	rra	r0		
     ef0:	21 00 00 00 	mova	&0x00000,r1	
     ef4:	c6 39       	jl	$+910    	;abs 0x1282
     ef6:	d4 39       	jl	$+938    	;abs 0x12a0
     ef8:	01 a9       	dadd	r9,	r1	
     efa:	13 4a       	.word	0x4a13;	????	Illegal as 2-op instr
     efc:	00 00       	bra	@r0		
     efe:	00 d4       	bis	r4,	r0	
     f00:	39 e6       	xor	@r6+,	r9	
     f02:	39 01 aa 07 	mova	1962(r1),r9	;0x07aa(r1)
     f06:	05 00       	mova	@r0,	r5	
     f08:	00 0c       	bra	@r12		
     f0a:	5c 00       	rrcm	#1,	r12	
     f0c:	00 00       	bra	@r0		
     f0e:	fd 04       	suba	r4,	r13	
     f10:	00 00       	bra	@r0		
     f12:	00 13       	reti			
     f14:	4a 00       	rrcm.a	#1,	r10	
     f16:	00 00       	bra	@r0		
     f18:	e6 39       	jl	$+974    	;abs 0x12e6
     f1a:	f8 39       	jl	$+1010   	;abs 0x130c
     f1c:	01 ab       	dadd	r11,	r1	
     f1e:	20 05 00 00 	bra	&0x50000	
     f22:	0c 5c       	rla	r12		
     f24:	00 00       	bra	@r0		
     f26:	00 08       	bra	@r8		
     f28:	05 00       	mova	@r0,	r5	
     f2a:	00 00       	bra	@r0		
     f2c:	13 4a       	.word	0x4a13;	????	Illegal as 2-op instr
     f2e:	00 00       	bra	@r0		
     f30:	00 02       	bra	#4		;r2 As==10
     f32:	3a 14       	pushm.a	#4,	r10	
     f34:	3a 01 ac 39 	mova	14764(r1),r10	;0x39ac(r1)
     f38:	05 00       	mova	@r0,	r5	
     f3a:	00 0c       	bra	@r12		
     f3c:	5c 00       	rrcm	#1,	r12	
     f3e:	00 00       	bra	@r0		
     f40:	13 05       	.word	0x0513;	????	Illegal as address instr
     f42:	00 00       	bra	@r0		
     f44:	00 11       	rra	r0		
     f46:	2b 00 00 00 	mova	&0x00000,r11	
     f4a:	20 3a       	jl	$-958    	;abs 0xb8c
     f4c:	2e 3a       	jl	$-930    	;abs 0xbaa
     f4e:	01 ad       	dadd	r13,	r1	
     f50:	11 35       	jge	$+548    	;abs 0x1174
     f52:	00 00       	bra	@r0		
     f54:	00 2e       	jc	$-1022   	;abs 0xb56
     f56:	3a 3e       	jmp	$-906    	;abs 0xbcc
     f58:	3a 01 ae 00 	mova	174(r1),r10	;0x00ae(r1)
     f5c:	14 01       	mova	@r1+,	r4	
     f5e:	a2 05 00 00 	adda	#0x50000,r2	
     f62:	01 b3       	bit	#0,	r1	;r3 As==00
     f64:	01 43       	clr	r1		
     f66:	00 00       	bra	@r0		
     f68:	00 44       	br	r4		
     f6a:	3a a0 3a 27 	dadd	#10042,	r10	;#0x273a
     f6e:	05 00       	mova	@r0,	r5	
     f70:	00 de       	bis	r14,	r0	
     f72:	05 00       	mova	@r0,	r5	
     f74:	00 12       	push	r0		
     f76:	64 61       	addc.b	@r1,	r4	
     f78:	74 00 01 b3 	mova	r0,	-19711(r4);0xb301(r4)
     f7c:	20 03 00 00 	bra	&0x30000	
     f80:	3b 05 00 00 	mova	0(r5),	r11	;0x0000(r5)
     f84:	12 6c 65 6e 	addc	28261(r12),r2	;0x6e65(r12)
     f88:	00 01       	bra	@r1		
     f8a:	b3 43       	mov	#-1,	#1	;r3 As==11, r3 As==01
     f8c:	00 00       	bra	@r0		
     f8e:	00 4d       	br	r13		
     f90:	05 00       	mova	@r0,	r5	
     f92:	00 16       	popm.a	#1,	r0	
     f94:	69 00 01 b5 	mova	r0,	&0x9b501
     f98:	43 00       	rrcm.a	#1,	#0	;r3 As==00
     f9a:	00 00       	bra	@r0		
     f9c:	5f 05       	rram	#2,	r15	
     f9e:	00 00       	bra	@r0		
     fa0:	10 bc 04 00 	bit	4(r12),	r0	;0x0004(r12)
     fa4:	00 01       	bra	@r1		
     fa6:	b5 43 00 00 	mov	#-1,	0(r5)	;r3 As==11, 0x0000(r5)
     faa:	00 73       	sbc	r0		
     fac:	05 00       	mova	@r0,	r5	
     fae:	00 11       	rra	r0		
     fb0:	21 00 00 00 	mova	&0x00000,r1	
     fb4:	46 3a       	jl	$-882    	;abs 0xc42
     fb6:	54 3a       	jl	$-854    	;abs 0xc60
     fb8:	01 b7       	bit	r7,	r1	
     fba:	13 4a       	.word	0x4a13;	????	Illegal as 2-op instr
     fbc:	00 00       	bra	@r0		
     fbe:	00 5a       	add	r10,	r0	
     fc0:	3a 6c       	addc	@r12+,	r10	
     fc2:	3a 01 b8 c7 	mova	-14408(r1),r10	;0xc7b8(r1)
     fc6:	05 00       	mova	@r0,	r5	
     fc8:	00 0c       	bra	@r12		
     fca:	5c 00       	rrcm	#1,	r12	
     fcc:	00 00       	bra	@r0		
     fce:	8e 05 00 00 	mova	#0x50000,r14	
     fd2:	00 11       	rra	r0		
     fd4:	2b 00 00 00 	mova	&0x00000,r11	
     fd8:	78 3a       	jl	$-782    	;abs 0xcca
     fda:	86 3a       	jl	$-754    	;abs 0xce8
     fdc:	01 b9       	bit	r9,	r1	
     fde:	11 35       	jge	$+548    	;abs 0x1202
     fe0:	00 00       	bra	@r0		
     fe2:	00 86       	sub	r6,	r0	
     fe4:	3a 96       	cmp	@r6+,	r10	
     fe6:	3a 01 ba 00 	mova	186(r1),r10	;0x00ba(r1)
     fea:	14 01       	mova	@r1+,	r4	
     fec:	4b 05       	rram.a	#2,	r11	
     fee:	00 00       	bra	@r0		
     ff0:	01 bf       	bit	r15,	r1	
     ff2:	01 43       	clr	r1		
     ff4:	00 00       	bra	@r0		
     ff6:	00 a0       	dadd	r0,	r0	
     ff8:	3a e2       	xor	#8,	r10	;r2 As==11
     ffa:	3a a2       	dadd	#8,	r10	;r2 As==11
     ffc:	05 00       	mova	@r0,	r5	
     ffe:	00 21       	jnz	$+514    	;abs 0x1200
    1000:	06 00       	mova	@r0,	r6	
    1002:	00 12       	push	r0		
    1004:	64 61       	addc.b	@r1,	r4	
    1006:	74 00 01 bf 	mova	r0,	-16639(r4);0xbf01(r4)
    100a:	20 03 00 00 	bra	&0x30000	
    100e:	be 05 00 00 	suba	#0x50000,r14	
    1012:	10 bc 04 00 	bit	4(r12),	r0	;0x0004(r12)
    1016:	00 01       	bra	@r1		
    1018:	c1 43 00 00 	mov.b	#0,	0(r1)	;r3 As==00, 0x0000(r1)
    101c:	00 d7       	bis	r7,	r0	
    101e:	05 00       	mova	@r0,	r5	
    1020:	00 11       	rra	r0		
    1022:	35 00 00 00 	mova	0x0000,	r5	;PC rel. 0x01024
    1026:	c6 3a       	jl	$-626    	;abs 0xdb4
    1028:	d6 3a       	jl	$-594    	;abs 0xdd6
    102a:	01 ca       	bic	r10,	r1	
    102c:	00 14       	pushm.a	#1,	r0	
    102e:	01 6a       	addc	r10,	r1	
    1030:	05 00       	mova	@r0,	r5	
    1032:	00 01       	bra	@r1		
    1034:	cf 01       	mova	r1,	r15	
    1036:	43 00       	rrcm.a	#1,	#0	;r3 As==00
    1038:	00 00       	bra	@r0		
    103a:	e2 3a       	jl	$-570    	;abs 0xe00
    103c:	3c 3b       	jl	$-390    	;abs 0xeb6
    103e:	f2 05       	suba	r5,	r2	
    1040:	00 00       	bra	@r0		
    1042:	80 06 00 00 	bra	#0x60000	
    1046:	12 64 61 74 	addc	29793(r4),r2	;0x7461(r4)
    104a:	00 01       	bra	@r1		
    104c:	cf 20       	jnz	$+416    	;abs 0x11ec
    104e:	03 00       	.word	0x0003;	????	Illegal as address instr
    1050:	00 16       	popm.a	#1,	r0	
    1052:	06 00       	mova	@r0,	r6	
    1054:	00 12       	push	r0		
    1056:	6c 65       	addc.b	@r5,	r12	
    1058:	6e 00 01 cf 	mova	r0,	&0xecf01
    105c:	43 00       	rrcm.a	#1,	#0	;r3 As==00
    105e:	00 00       	bra	@r0		
    1060:	2f 06 00 00 	mova	&0x60000,r15	
    1064:	16 69 00 01 	addc	256(r9),r6	;0x0100(r9)
    1068:	d1 43 00 00 	mov.b	#1,	0(r1)	;r3 As==01, 0x0000(r1)
    106c:	00 48       	br	r8		
    106e:	06 00       	mova	@r0,	r6	
    1070:	00 10       	rrc	r0		
    1072:	bc 04 00 00 	suba	#0x40000,r12	
    1076:	01 d1       	bis	r1,	r1	
    1078:	43 00       	rrcm.a	#1,	#0	;r3 As==00
    107a:	00 00       	bra	@r0		
    107c:	54 06       	rlam	#2,	r4	
    107e:	00 00       	bra	@r0		
    1080:	11 35       	jge	$+548    	;abs 0x12a4
    1082:	00 00       	bra	@r0		
    1084:	00 1e       	.word	0x1e00;	????	
    1086:	3b 2e       	jc	$-904    	;abs 0xcfe
    1088:	3b 01 e3 00 	mova	227(r1),r11	;0x00e3(r1)
    108c:	14 01       	mova	@r1+,	r4	
    108e:	8f 05 00 00 	mova	#0x50000,r15	
    1092:	01 e9       	xor	r9,	r1	
    1094:	01 43       	clr	r1		
    1096:	00 00       	bra	@r0		
    1098:	00 3c       	jmp	$+2      	;abs 0x109a
    109a:	3b 9a       	cmp	@r10+,	r11	
    109c:	3b 76       	subc	@r6+,	r11	
    109e:	06 00       	mova	@r0,	r6	
    10a0:	00 f5       	and	r5,	r0	
    10a2:	06 00       	mova	@r0,	r6	
    10a4:	00 12       	push	r0		
    10a6:	62 31       	jn	$+710    	;abs 0x136c
    10a8:	00 01       	bra	@r1		
    10aa:	e9 43 00 00 	mov.b	#2,	0(r9)	;r3 As==10, 0x0000(r9)
    10ae:	00 92       	cmp	r2,	r0	
    10b0:	06 00       	mova	@r0,	r6	
    10b2:	00 12       	push	r0		
    10b4:	64 61       	addc.b	@r1,	r4	
    10b6:	74 00 01 e9 	mova	r0,	-5887(r4);0xe901(r4)
    10ba:	20 03 00 00 	bra	&0x30000	
    10be:	9d 06 00 00 	cmpa	#0x60000,r13	
    10c2:	10 bc 04 00 	bit	4(r12),	r0	;0x0004(r12)
    10c6:	00 01       	bra	@r1		
    10c8:	eb 43 00 00 	mov.b	#2,	0(r11)	;r3 As==10, 0x0000(r11)
    10cc:	00 af       	dadd	r15,	r0	
    10ce:	06 00       	mova	@r0,	r6	
    10d0:	00 11       	rra	r0		
    10d2:	21 00 00 00 	mova	&0x00000,r1	
    10d6:	42 3b       	jl	$-378    	;abs 0xf5c
    10d8:	50 3b       	jl	$-350    	;abs 0xf7a
    10da:	01 ed       	xor	r13,	r1	
    10dc:	13 4a       	.word	0x4a13;	????	Illegal as 2-op instr
    10de:	00 00       	bra	@r0		
    10e0:	00 50       	rla	r0		
    10e2:	3b 62       	addc	#8,	r11	;r2 As==11
    10e4:	3b 01 ee e9 	mova	-5650(r1),r11	;0xe9ee(r1)
    10e8:	06 00       	mova	@r0,	r6	
    10ea:	00 0c       	bra	@r12		
    10ec:	5c 00       	rrcm	#1,	r12	
    10ee:	00 00       	bra	@r0		
    10f0:	c9 06       	mova	r6,	r9	
    10f2:	00 00       	bra	@r0		
    10f4:	00 11       	rra	r0		
    10f6:	35 00 00 00 	mova	0x0000,	r5	;PC rel. 0x010f8
    10fa:	82 3b       	jl	$-250    	;abs 0x1000
    10fc:	92 3b       	jl	$-218    	;abs 0x1022
    10fe:	01 f6       	and	r6,	r1	
    1100:	00 14       	pushm.a	#1,	r0	
    1102:	01 2a       	jnc	$-1020   	;abs 0xd06
    1104:	06 00       	mova	@r0,	r6	
    1106:	00 01       	bra	@r1		
    1108:	fb 01       	suba	r1,	r11	
    110a:	43 00       	rrcm.a	#1,	#0	;r3 As==00
    110c:	00 00       	bra	@r0		
    110e:	9a 3b       	jl	$-202    	;abs 0x1044
    1110:	1e 3c       	jmp	$+62     	;abs 0x114e
    1112:	d4 06       	cmpa	r6,	r4	
    1114:	00 00       	bra	@r0		
    1116:	88 07 00 00 	mova	#0x70000,r8	
    111a:	12 62 31 00 	addc	&0x0031,r2	
    111e:	01 fb       	and	r11,	r1	
    1120:	43 00       	rrcm.a	#1,	#0	;r3 As==00
    1122:	00 00       	bra	@r0		
    1124:	08 07       	mova	@r7,	r8	
    1126:	00 00       	bra	@r0		
    1128:	12 64 61 74 	addc	29793(r4),r2	;0x7461(r4)
    112c:	00 01       	bra	@r1		
    112e:	fb 20       	jnz	$+504    	;abs 0x1326
    1130:	03 00       	.word	0x0003;	????	Illegal as address instr
    1132:	00 13       	reti			
    1134:	07 00       	mova	@r0,	r7	
    1136:	00 12       	push	r0		
    1138:	6c 65       	addc.b	@r5,	r12	
    113a:	6e 00 01 fb 	mova	r0,	&0xefb01
    113e:	43 00       	rrcm.a	#1,	#0	;r3 As==00
    1140:	00 00       	bra	@r0		
    1142:	2c 07 00 00 	mova	&0x70000,r12	
    1146:	16 69 00 01 	addc	256(r9),r6	;0x0100(r9)
    114a:	fd 43 00 00 	mov.b	#-1,	0(r13)	;r3 As==11, 0x0000(r13)
    114e:	00 45       	br	r5		
    1150:	07 00       	mova	@r0,	r7	
    1152:	00 10       	rrc	r0		
    1154:	bc 04 00 00 	suba	#0x40000,r12	
    1158:	01 fd       	and	r13,	r1	
    115a:	43 00       	rrcm.a	#1,	#0	;r3 As==00
    115c:	00 00       	bra	@r0		
    115e:	51 07       	rrum	#2,	r1	
    1160:	00 00       	bra	@r0		
    1162:	11 21       	jnz	$+548    	;abs 0x1386
    1164:	00 00       	bra	@r0		
    1166:	00 a8       	dadd	r8,	r0	
    1168:	3b b6       	bit	@r6+,	r11	
    116a:	3b 01 ff 19 	mova	6655(r1),r11	;0x19ff(r1)
    116e:	4a 00       	rrcm.a	#1,	r10	
    1170:	00 00       	bra	@r0		
    1172:	b6 3b       	jl	$-146    	;abs 0x10e0
    1174:	c8 3b       	jl	$-110    	;abs 0x1106
    1176:	01 00       	mova	@r0,	r1	
    1178:	01 7b       	subc	r11,	r1	
    117a:	07 00       	mova	@r0,	r7	
    117c:	00 0c       	bra	@r12		
    117e:	5c 00       	rrcm	#1,	r12	
    1180:	00 00       	bra	@r0		
    1182:	7a 07 00 00 	mova	r7,	0(r10)	;0x0000(r10)
    1186:	00 1a       	.word	0x1a00;	????	
    1188:	35 00 00 00 	mova	0x0000,	r5	;PC rel. 0x0118a
    118c:	fc 3b       	jl	$-6      	;abs 0x1186
    118e:	0c 3c       	jmp	$+26     	;abs 0x11a8
    1190:	01 11       	rra	r1		
    1192:	01 00       	mova	@r0,	r1	
    1194:	1b 01       	mova	@r1+,	r11	
    1196:	06 05       	mova	@r5,	r6	
    1198:	00 00       	bra	@r0		
    119a:	01 16       	popm.a	#1,	r1	
    119c:	01 01       	mova	@r1,	r1	
    119e:	43 00       	rrcm.a	#1,	#0	;r3 As==00
    11a0:	00 00       	bra	@r0		
    11a2:	1e 3c       	jmp	$+62     	;abs 0x11e0
    11a4:	90 3c       	jmp	$+290    	;abs 0x12c6
    11a6:	85 07 00 00 	mova	#0x70000,r5	
    11aa:	2d 08 00 00 	mova	&0x80000,r13	
    11ae:	1c 62 31 00 	addc	&0x0031,r12	
    11b2:	01 16       	popm.a	#1,	r1	
    11b4:	01 43       	clr	r1		
    11b6:	00 00       	bra	@r0		
    11b8:	00 a1       	dadd	r1,	r0	
    11ba:	07 00       	mova	@r0,	r7	
    11bc:	00 1c       	.word	0x1c00;	????	
    11be:	62 32       	jn	$-826    	;abs 0xe84
    11c0:	00 01       	bra	@r1		
    11c2:	16 01       	mova	@r1+,	r6	
    11c4:	43 00       	rrcm.a	#1,	#0	;r3 As==00
    11c6:	00 00       	bra	@r0		
    11c8:	ac 07 00 00 	adda	#0x70000,r12	
    11cc:	1c 64 61 74 	addc	29793(r4),r12	;0x7461(r4)
    11d0:	00 01       	bra	@r1		
    11d2:	16 01       	mova	@r1+,	r6	
    11d4:	20 03 00 00 	bra	&0x30000	
    11d8:	b7 07 00 00 	suba	#0x70000,r7	
    11dc:	1d bc 04 00 	bit	4(r12),	r13	;0x0004(r12)
    11e0:	00 01       	bra	@r1		
    11e2:	18 01       	mova	@r1+,	r8	
    11e4:	43 00       	rrcm.a	#1,	#0	;r3 As==00
    11e6:	00 00       	bra	@r0		
    11e8:	c9 07       	mova	r7,	r9	
    11ea:	00 00       	bra	@r0		
    11ec:	1a 21       	jnz	$+566    	;abs 0x1422
    11ee:	00 00       	bra	@r0		
    11f0:	00 24       	jz	$+2      	;abs 0x11f2
    11f2:	3c 32       	jn	$-902    	;abs 0xe6c
    11f4:	3c 01 1a 01 	mova	282(r1),r12	;0x011a(r1)
    11f8:	19 4a 00 00 	mov	0(r10),	r9	;0x0000(r10)
    11fc:	00 32       	jn	$-1022   	;abs 0xdfe
    11fe:	3c 44       	mov	@r4+,	r12	
    1200:	3c 01 1b 01 	mova	283(r1),r12	;0x011b(r1)
    1204:	06 08       	mova	@r8,	r6	
    1206:	00 00       	bra	@r0		
    1208:	0c 5c       	rla	r12		
    120a:	00 00       	bra	@r0		
    120c:	00 ea       	xor	r10,	r0	
    120e:	07 00       	mova	@r0,	r7	
    1210:	00 00       	bra	@r0		
    1212:	19 4a 00 00 	mov	0(r10),	r9	;0x0000(r10)
    1216:	00 44       	br	r4		
    1218:	3c 56       	add	@r6+,	r12	
    121a:	3c 01 1c 01 	mova	284(r1),r12	;0x011c(r1)
    121e:	20 08 00 00 	bra	&0x80000	
    1222:	0c 5c       	rla	r12		
    1224:	00 00       	bra	@r0		
    1226:	00 f5       	and	r5,	r0	
    1228:	07 00       	mova	@r0,	r7	
    122a:	00 00       	bra	@r0		
    122c:	1a 35       	jge	$+566    	;abs 0x1462
    122e:	00 00       	bra	@r0		
    1230:	00 78       	subc	r8,	r0	
    1232:	3c 88       	sub	@r8+,	r12	
    1234:	3c 01 24 01 	mova	292(r1),r12	;0x0124(r1)
    1238:	00 1b 01 7a 	subcx	r10,	r1	
    123c:	05 00       	mova	@r0,	r5	
    123e:	00 01       	bra	@r1		
    1240:	29 01 01 43 	mova	&0x14301,r9	
    1244:	00 00       	bra	@r0		
    1246:	00 90       	cmp	r0,	r0	
    1248:	3c 28       	jnc	$+122    	;abs 0x12c2
    124a:	3d 00 08 00 	mova	0x0008,	r13	;PC rel. 0x01254
    124e:	00 f0       	and	r0,	r0	
    1250:	08 00       	mova	@r0,	r8	
    1252:	00 1c       	.word	0x1c00;	????	
    1254:	62 31       	jn	$+710    	;abs 0x151a
    1256:	00 01       	bra	@r1		
    1258:	29 01 43 00 	mova	&0x10043,r9	
    125c:	00 00       	bra	@r0		
    125e:	34 08 00 00 	mova	0(r8),	r4	;0x0000(r8)
    1262:	1c 62 32 00 	addc	&0x0032,r12	
    1266:	01 29       	jnc	$+516    	;abs 0x146a
    1268:	01 43       	clr	r1		
    126a:	00 00       	bra	@r0		
    126c:	00 3f       	jmp	$-510    	;abs 0x106e
    126e:	08 00       	mova	@r0,	r8	
    1270:	00 1c 64 61 	addcx.a	@r1,	r4	
    1274:	74 00 01 29 	mova	r0,	10497(r4);0x2901(r4)
    1278:	01 20       	jnz	$+4      	;abs 0x127c
    127a:	03 00       	.word	0x0003;	????	Illegal as address instr
    127c:	00 4a       	br	r10		
    127e:	08 00       	mova	@r0,	r8	
    1280:	00 1c 6c 65 	addcx.a	@r5,	r12	
    1284:	6e 00 01 29 	mova	r0,	&0xe2901
    1288:	01 43       	clr	r1		
    128a:	00 00       	bra	@r0		
    128c:	00 63       	adc	r0		
    128e:	08 00       	mova	@r0,	r8	
    1290:	00 1e       	.word	0x1e00;	????	
    1292:	69 00 01 2b 	mova	r0,	&0x92b01
    1296:	01 43       	clr	r1		
    1298:	00 00       	bra	@r0		
    129a:	00 7c       	subc	r12,	r0	
    129c:	08 00       	mova	@r0,	r8	
    129e:	00 1d       	.word	0x1d00;	????	
    12a0:	bc 04 00 00 	suba	#0x40000,r12	
    12a4:	01 2b       	jnc	$-508    	;abs 0x10a8
    12a6:	01 43       	clr	r1		
    12a8:	00 00       	bra	@r0		
    12aa:	00 88       	sub	r8,	r0	
    12ac:	08 00       	mova	@r0,	r8	
    12ae:	00 1a       	.word	0x1a00;	????	
    12b0:	21 00 00 00 	mova	&0x00000,r1	
    12b4:	9e 3c       	jmp	$+318    	;abs 0x13f2
    12b6:	ac 3c       	jmp	$+346    	;abs 0x1410
    12b8:	01 2d       	jc	$+516    	;abs 0x14bc
    12ba:	01 19       	.word	0x1901;	????	
    12bc:	4a 00       	rrcm.a	#1,	r10	
    12be:	00 00       	bra	@r0		
    12c0:	ac 3c       	jmp	$+346    	;abs 0x141a
    12c2:	be 3c       	jmp	$+382    	;abs 0x1440
    12c4:	01 2e       	jc	$-1020   	;abs 0xec8
    12c6:	01 c9       	bic	r9,	r1	
    12c8:	08 00       	mova	@r0,	r8	
    12ca:	00 0c       	bra	@r12		
    12cc:	5c 00       	rrcm	#1,	r12	
    12ce:	00 00       	bra	@r0		
    12d0:	b8 08 00 00 	suba	#0x80000,r8	
    12d4:	00 19       	.word	0x1900;	????	
    12d6:	4a 00       	rrcm.a	#1,	r10	
    12d8:	00 00       	bra	@r0		
    12da:	be 3c       	jmp	$+382    	;abs 0x1458
    12dc:	d0 3c       	jmp	$+418    	;abs 0x147e
    12de:	01 2f       	jc	$-508    	;abs 0x10e2
    12e0:	01 e3       	xor	#0,	r1	;r3 As==00
    12e2:	08 00       	mova	@r0,	r8	
    12e4:	00 0c       	bra	@r12		
    12e6:	5c 00       	rrcm	#1,	r12	
    12e8:	00 00       	bra	@r0		
    12ea:	c3 08       	.word	0x08c3;	????	Illegal as address instr
    12ec:	00 00       	bra	@r0		
    12ee:	00 1a       	.word	0x1a00;	????	
    12f0:	35 00 00 00 	mova	0x0000,	r5	;PC rel. 0x012f2
    12f4:	06 3d       	jmp	$+526    	;abs 0x1502
    12f6:	16 3d       	jmp	$+558    	;abs 0x1524
    12f8:	01 40       	mov	r0,	r1	
    12fa:	01 00       	mova	@r0,	r1	
    12fc:	1f 01       	mova	@r1+,	r15	
    12fe:	02 06       	mova	@r6,	r2	
    1300:	00 00       	bra	@r0		
    1302:	01 45       	mov	r5,	r1	
    1304:	01 01       	mova	@r1,	r1	
    1306:	43 00       	rrcm.a	#1,	#0	;r3 As==00
    1308:	00 00       	bra	@r0		
    130a:	28 3d       	jmp	$+594    	;abs 0x155c
    130c:	3c 3d       	jmp	$+634    	;abs 0x1586
    130e:	02 71       	subc	r1,	r2	
    1310:	02 30       	jn	$+6      	;abs 0x1316
    1312:	09 00       	mova	@r0,	r9	
    1314:	00 20       	jnz	$+2      	;abs 0x1316
    1316:	c3 05       	.word	0x05c3;	????	Illegal as address instr
    1318:	00 00       	bra	@r0		
    131a:	01 45       	mov	r5,	r1	
    131c:	01 43       	clr	r1		
    131e:	00 00       	bra	@r0		
    1320:	00 ce       	bic	r14,	r0	
    1322:	08 00       	mova	@r0,	r8	
    1324:	00 21       	jnz	$+514    	;abs 0x1526
    1326:	66 00 00 00 	mova	r0,	&0x60000
    132a:	28 3d       	jmp	$+594    	;abs 0x157c
    132c:	36 3d       	jmp	$+622    	;abs 0x159a
    132e:	01 47       	mov	r7,	r1	
    1330:	01 0c       	mova	@r12,	r1	
    1332:	74 00 00 00 	mova	r0,	0(r4)	;0x0000(r4)
    1336:	d9 08       	cmpa	r8,	r9	
    1338:	00 00       	bra	@r0		
    133a:	00 00       	bra	@r0		
    133c:	22 6d       	addc	@r13,	r2	
    133e:	00 00       	bra	@r0		
    1340:	00 02       	bra	#4		;r2 As==10
    1342:	a6 6a 00 00 	addc	@r10,	0(r6)	;0x0000(r6)
    1346:	00 41       	br	r1		
    1348:	09 00       	mova	@r0,	r9	
    134a:	00 01       	bra	@r1		
    134c:	01 23       	jnz	$-508    	;abs 0x1150
    134e:	43 00       	rrcm.a	#1,	#0	;r3 As==00
    1350:	00 00       	bra	@r0		
    1352:	24 f2       	and	#4,	r4	;r2 As==10
    1354:	04 00       	mova	@r0,	r4	
    1356:	00 02       	bra	#4		;r2 As==10
    1358:	97 03 ef 04 	cmpa	#0x304ef,r7	
    135c:	00 00       	bra	@r0		
    135e:	41 09       	rram.a	#3,	r1	
    1360:	00 00       	bra	@r0		
    1362:	01 01       	mova	@r1,	r1	
    1364:	24 89       	sub	@r9,	r4	
    1366:	04 00       	mova	@r0,	r4	
    1368:	00 02       	bra	#4		;r2 As==10
    136a:	99 03 86 04 	cmpa	#0x30486,r9	
    136e:	00 00       	bra	@r0		
    1370:	41 09       	rram.a	#3,	r1	
    1372:	00 00       	bra	@r0		
    1374:	01 01       	mova	@r1,	r1	
    1376:	24 9e       	cmp	@r14,	r4	
    1378:	04 00       	mova	@r0,	r4	
    137a:	00 02       	bra	#4		;r2 As==10
    137c:	e9 04       	adda	r4,	r9	
    137e:	9b 04 00 00 	cmpa	#0x40000,r11	
    1382:	41 09       	rram.a	#3,	r1	
    1384:	00 00       	bra	@r0		
    1386:	01 01       	mova	@r1,	r1	
    1388:	24 2f       	jc	$-438    	;abs 0x11d2
    138a:	05 00       	mova	@r0,	r5	
    138c:	00 02       	bra	#4		;r2 As==10
    138e:	eb 04       	adda	r4,	r11	
    1390:	2c 05 00 00 	mova	&0x50000,r12	
    1394:	41 09       	rram.a	#3,	r1	
    1396:	00 00       	bra	@r0		
    1398:	01 01       	mova	@r1,	r1	
    139a:	24 72       	subc	#4,	r4	;r2 As==10
    139c:	04 00       	mova	@r0,	r4	
    139e:	00 02       	bra	#4		;r2 As==10
    13a0:	ed 04       	adda	r4,	r13	
    13a2:	6f 04 00 00 	mova	r4,	&0xf0000
    13a6:	41 09       	rram.a	#3,	r1	
    13a8:	00 00       	bra	@r0		
    13aa:	01 01       	mova	@r1,	r1	
    13ac:	24 62       	addc	#4,	r4	;r2 As==10
    13ae:	05 00       	mova	@r0,	r5	
    13b0:	00 02       	bra	#4		;r2 As==10
    13b2:	ef 04       	adda	r4,	r15	
    13b4:	5f 05       	rram	#2,	r15	
    13b6:	00 00       	bra	@r0		
    13b8:	41 09       	rram.a	#3,	r1	
    13ba:	00 00       	bra	@r0		
    13bc:	01 01       	mova	@r1,	r1	
    13be:	24 e6       	xor	@r6,	r4	
    13c0:	04 00       	mova	@r0,	r4	
    13c2:	00 02       	bra	#4		;r2 As==10
    13c4:	f3 04       	.word	0x04f3;	????	Illegal as address instr
    13c6:	e3 04       	.word	0x04e3;	????	Illegal as address instr
    13c8:	00 00       	bra	@r0		
    13ca:	41 09       	rram.a	#3,	r1	
    13cc:	00 00       	bra	@r0		
    13ce:	01 01       	mova	@r1,	r1	
    13d0:	24 f8       	and	@r8,	r4	
    13d2:	05 00       	mova	@r0,	r5	
    13d4:	00 02       	bra	#4		;r2 As==10
    13d6:	f5 04       	suba	r4,	r5	
    13d8:	f5 05       	suba	r5,	r5	
    13da:	00 00       	bra	@r0		
    13dc:	d6 09       	cmpa	r9,	r6	
    13de:	00 00       	bra	@r0		
    13e0:	01 01       	mova	@r1,	r1	
    13e2:	25 41       	mov	@r1,	r5	
    13e4:	09 00       	mova	@r0,	r9	
    13e6:	00 24       	jz	$+2      	;abs 0x13e8
    13e8:	ce 05       	mova	r5,	r14	
    13ea:	00 00       	bra	@r0		
    13ec:	02 f7       	and	r7,	r2	
    13ee:	04 cb       	bic	r11,	r4	
    13f0:	05 00       	mova	@r0,	r5	
    13f2:	00 41       	br	r1		
    13f4:	09 00       	mova	@r0,	r9	
    13f6:	00 01       	bra	@r1		
    13f8:	01 24       	jz	$+4      	;abs 0x13fc
    13fa:	eb 05       	adda	r5,	r11	
    13fc:	00 00       	bra	@r0		
    13fe:	02 fb       	and	r11,	r2	
    1400:	04 e8       	xor	r8,	r4	
    1402:	05 00       	mova	@r0,	r5	
    1404:	00 ff       	and	r15,	r0	
    1406:	09 00       	mova	@r0,	r9	
    1408:	00 01       	bra	@r1		
    140a:	01 23       	jnz	$-508    	;abs 0x120e
    140c:	04 0a       	mova	@r10,	r4	
    140e:	00 00       	bra	@r0		
    1410:	04 02       	mova	#4,	r4	;r2 As==10
    1412:	07 31       	jn	$+528    	;abs 0x1622
    1414:	00 00       	bra	@r0		
    1416:	00 22       	jnz	$-1022   	;abs 0x1018
    1418:	6d 00 00 00 	mova	r0,	&0xd0000
    141c:	02 a6       	dadd	r6,	r2	
    141e:	6a 00 00 00 	mova	r0,	&0xa0000
    1422:	41 09       	rram.a	#3,	r1	
    1424:	00 00       	bra	@r0		
    1426:	01 01       	mova	@r1,	r1	
    1428:	24 f2       	and	#4,	r4	;r2 As==10
    142a:	04 00       	mova	@r0,	r4	
    142c:	00 02       	bra	#4		;r2 As==10
    142e:	97 03 ef 04 	cmpa	#0x304ef,r7	
    1432:	00 00       	bra	@r0		
    1434:	41 09       	rram.a	#3,	r1	
    1436:	00 00       	bra	@r0		
    1438:	01 01       	mova	@r1,	r1	
    143a:	24 89       	sub	@r9,	r4	
    143c:	04 00       	mova	@r0,	r4	
    143e:	00 02       	bra	#4		;r2 As==10
    1440:	99 03 86 04 	cmpa	#0x30486,r9	
    1444:	00 00       	bra	@r0		
    1446:	41 09       	rram.a	#3,	r1	
    1448:	00 00       	bra	@r0		
    144a:	01 01       	mova	@r1,	r1	
    144c:	24 9e       	cmp	@r14,	r4	
    144e:	04 00       	mova	@r0,	r4	
    1450:	00 02       	bra	#4		;r2 As==10
    1452:	e9 04       	adda	r4,	r9	
    1454:	9b 04 00 00 	cmpa	#0x40000,r11	
    1458:	41 09       	rram.a	#3,	r1	
    145a:	00 00       	bra	@r0		
    145c:	01 01       	mova	@r1,	r1	
    145e:	24 2f       	jc	$-438    	;abs 0x12a8
    1460:	05 00       	mova	@r0,	r5	
    1462:	00 02       	bra	#4		;r2 As==10
    1464:	eb 04       	adda	r4,	r11	
    1466:	2c 05 00 00 	mova	&0x50000,r12	
    146a:	41 09       	rram.a	#3,	r1	
    146c:	00 00       	bra	@r0		
    146e:	01 01       	mova	@r1,	r1	
    1470:	24 72       	subc	#4,	r4	;r2 As==10
    1472:	04 00       	mova	@r0,	r4	
    1474:	00 02       	bra	#4		;r2 As==10
    1476:	ed 04       	adda	r4,	r13	
    1478:	6f 04 00 00 	mova	r4,	&0xf0000
    147c:	41 09       	rram.a	#3,	r1	
    147e:	00 00       	bra	@r0		
    1480:	01 01       	mova	@r1,	r1	
    1482:	24 62       	addc	#4,	r4	;r2 As==10
    1484:	05 00       	mova	@r0,	r5	
    1486:	00 02       	bra	#4		;r2 As==10
    1488:	ef 04       	adda	r4,	r15	
    148a:	5f 05       	rram	#2,	r15	
    148c:	00 00       	bra	@r0		
    148e:	41 09       	rram.a	#3,	r1	
    1490:	00 00       	bra	@r0		
    1492:	01 01       	mova	@r1,	r1	
    1494:	24 e6       	xor	@r6,	r4	
    1496:	04 00       	mova	@r0,	r4	
    1498:	00 02       	bra	#4		;r2 As==10
    149a:	f3 04       	.word	0x04f3;	????	Illegal as address instr
    149c:	e3 04       	.word	0x04e3;	????	Illegal as address instr
    149e:	00 00       	bra	@r0		
    14a0:	41 09       	rram.a	#3,	r1	
    14a2:	00 00       	bra	@r0		
    14a4:	01 01       	mova	@r1,	r1	
    14a6:	24 f8       	and	@r8,	r4	
    14a8:	05 00       	mova	@r0,	r5	
    14aa:	00 02       	bra	#4		;r2 As==10
    14ac:	f5 04       	suba	r4,	r5	
    14ae:	f5 05       	suba	r5,	r5	
    14b0:	00 00       	bra	@r0		
    14b2:	d6 09       	cmpa	r9,	r6	
    14b4:	00 00       	bra	@r0		
    14b6:	01 01       	mova	@r1,	r1	
    14b8:	24 ce       	bic	@r14,	r4	
    14ba:	05 00       	mova	@r0,	r5	
    14bc:	00 02       	bra	#4		;r2 As==10
    14be:	f7 04       	suba	r4,	r7	
    14c0:	cb 05       	mova	r5,	r11	
    14c2:	00 00       	bra	@r0		
    14c4:	41 09       	rram.a	#3,	r1	
    14c6:	00 00       	bra	@r0		
    14c8:	01 01       	mova	@r1,	r1	
    14ca:	24 eb       	xor	@r11,	r4	
    14cc:	05 00       	mova	@r0,	r5	
    14ce:	00 02       	bra	#4		;r2 As==10
    14d0:	fb 04       	suba	r4,	r11	
    14d2:	e8 05       	adda	r5,	r8	
    14d4:	00 00       	bra	@r0		
    14d6:	ff 09       	suba	r9,	r15	
    14d8:	00 00       	bra	@r0		
    14da:	01 01       	mova	@r1,	r1	
    14dc:	00 b7       	bit	r7,	r0	
    14de:	01 00       	mova	@r0,	r1	
    14e0:	00 02       	bra	#4		;r2 As==10
    14e2:	00 61       	addc	r1,	r0	
    14e4:	05 00       	mova	@r0,	r5	
    14e6:	00 02       	bra	#4		;r2 As==10
    14e8:	01 9e       	cmp	r14,	r1	
    14ea:	03 00       	.word	0x0003;	????	Illegal as address instr
    14ec:	00 01       	bra	@r1		
    14ee:	b5 06 00 00 	suba	#0x60000,r5	
    14f2:	cc 03       	mova	#0,	r12	;r3 As==00
    14f4:	00 00       	bra	@r0		
    14f6:	3c 3d       	jmp	$+634    	;abs 0x1770
    14f8:	50 3e       	jmp	$-862    	;abs 0x119a
    14fa:	20 0c 00 00 	bra	&0xc0000	
    14fe:	02 01       	mova	@r1,	r2	
    1500:	82 06 00 00 	mova	#0x60000,r2	
    1504:	01 08       	mova	@r8,	r1	
    1506:	01 3c       	jmp	$+4      	;abs 0x150a
    1508:	3d 58       	add	@r8+,	r13	
    150a:	3d 02 71 02 	mova	&0x0271,r13	
    150e:	03 01       	.word	0x0103;	????	Illegal as address instr
    1510:	8e 06 00 00 	mova	#0x60000,r14	
    1514:	01 11       	rra	r1		
    1516:	01 58       	add	r8,	r1	
    1518:	3d ca       	bic	@r10+,	r13	
    151a:	3d e4       	xor	@r4+,	r13	
    151c:	08 00       	mova	@r0,	r8	
    151e:	00 61       	addc	r1,	r0	
    1520:	00 00       	bra	@r0		
    1522:	00 04       	bra	@r4		
    1524:	69 00 01 11 	mova	r0,	&0x91101
    1528:	61 00 00 00 	mova	r0,	&0x10000
    152c:	10 09       	bra	@r9+		
    152e:	00 00       	bra	@r0		
    1530:	05 6b       	addc	r11,	r5	
    1532:	00 01       	bra	@r1		
    1534:	12 61 00 00 	addc	0(r1),	r2	;0x0000(r1)
    1538:	00 1b       	.word	0x1b00;	????	
    153a:	09 00       	mova	@r0,	r9	
    153c:	00 00       	bra	@r0		
    153e:	06 02       	mova	#4,	r6	;r2 As==10
    1540:	05 69       	addc	r9,	r5	
    1542:	6e 74       	subc.b	@r4,	r14	
    1544:	00 07       	bra	@r7		
    1546:	01 be       	bit	r14,	r1	
    1548:	06 00       	mova	@r0,	r6	
    154a:	00 01       	bra	@r1		
    154c:	23 01       	.word	0x0123;	????	Illegal as address instr
    154e:	ca 3d       	jmp	$+918    	;abs 0x18e4
    1550:	12 3e       	jmp	$-986    	;abs 0x1176
    1552:	02 71       	subc	r1,	r2	
    1554:	02 8a       	sub	r10,	r2	
    1556:	00 00       	bra	@r0		
    1558:	00 05       	bra	@r5		
    155a:	69 00 01 24 	mova	r0,	&0x92401
    155e:	61 00 00 00 	mova	r0,	&0x10000
    1562:	27 09 00 00 	mova	&0x90000,r7	
    1566:	00 07       	bra	@r7		
    1568:	01 5e       	add	r14,	r1	
    156a:	06 00       	mova	@r0,	r6	
    156c:	00 01       	bra	@r1		
    156e:	34 01 12 3e 	mova	15890(r1),r4	;0x3e12(r1)
    1572:	50 3e       	jmp	$-862    	;abs 0x1214
    1574:	02 71       	subc	r1,	r2	
    1576:	02 ac       	dadd	r12,	r2	
    1578:	00 00       	bra	@r0		
    157a:	00 04       	bra	@r4		
    157c:	69 00 01 34 	mova	r0,	&0x93401
    1580:	61 00 00 00 	mova	r0,	&0x10000
    1584:	3a 09 00 00 	mova	0(r9),	r10	;0x0000(r9)
    1588:	00 08       	bra	@r8		
    158a:	d4 06       	cmpa	r6,	r4	
    158c:	00 00       	bra	@r0		
    158e:	02 c1       	bic	r1,	r2	
    1590:	d1 06       	cmpa	r6,	r1	
    1592:	00 00       	bra	@r0		
    1594:	bd 00 00 00 	suba	#0x00000,r13	
    1598:	01 01       	mova	@r1,	r1	
    159a:	09 c2       	bic	r2,	r9	
    159c:	00 00       	bra	@r0		
    159e:	00 0a       	bra	@r10		
    15a0:	02 07       	mova	@r7,	r2	
    15a2:	31 00 00 00 	mova	0x0000,	r1	;PC rel. 0x015a4
    15a6:	08 e1       	xor	r1,	r8	
    15a8:	06 00       	mova	@r0,	r6	
    15aa:	00 02       	bra	#4		;r2 As==10
    15ac:	c3 de       	bis.b	r14,	#1	;r3 As==01
    15ae:	06 00       	mova	@r0,	r6	
    15b0:	00 bd       	bit	r13,	r0	
    15b2:	00 00       	bra	@r0		
    15b4:	00 01       	bra	@r1		
    15b6:	01 08       	mova	@r8,	r1	
    15b8:	78 06 00 00 	mova	r6,	0(r8)	;0x0000(r8)
    15bc:	02 d2       	bis	r2,	r2	
    15be:	75 06 00 00 	mova	r6,	0(r5)	;0x0000(r5)
    15c2:	bd 00 00 00 	suba	#0x00000,r13	
    15c6:	01 01       	mova	@r1,	r1	
    15c8:	08 aa       	dadd	r10,	r8	
    15ca:	06 00       	mova	@r0,	r6	
    15cc:	00 02       	bra	#4		;r2 As==10
    15ce:	f9 a7 06 00 	dadd.b	@r7+,	6(r9)	;0x0006(r9)
    15d2:	00 fc       	and	r12,	r0	
    15d4:	00 00       	bra	@r0		
    15d6:	00 01       	bra	@r1		
    15d8:	01 09       	mova	@r9,	r1	
    15da:	01 01       	mova	@r1,	r1	
    15dc:	00 00       	bra	@r0		
    15de:	0a 01       	mova	@r1,	r10	
    15e0:	08 6d       	addc	r13,	r8	
    15e2:	02 00       	mova	@r0,	r2	
    15e4:	00 0b       	bra	@r11		
    15e6:	ee 06       	adda	r6,	r14	
    15e8:	00 00       	bra	@r0		
    15ea:	02 c0       	bic	r0,	r2	
    15ec:	03 eb       	.word	0xeb03;	????	Illegal as 2-op instr
    15ee:	06 00       	mova	@r0,	r6	
    15f0:	00 fc       	and	r12,	r0	
    15f2:	00 00       	bra	@r0		
    15f4:	00 01       	bra	@r1		
    15f6:	01 0c       	mova	@r12,	r1	
    15f8:	61 00 00 00 	mova	r0,	&0x10000
    15fc:	2a 01 00 00 	mova	&0x10000,r10	
    1600:	0d c2       	bic	r2,	r13	
    1602:	00 00       	bra	@r0		
    1604:	00 07       	bra	@r7		
    1606:	00 0e       	bra	@r14		
    1608:	82 01 00 00 	mova	#0x10000,r2	
    160c:	03 06       	.word	0x0603;	????	Illegal as address instr
    160e:	1a 01       	mova	@r1+,	r10	
    1610:	00 00       	bra	@r0		
    1612:	01 01       	mova	@r1,	r1	
    1614:	0e 09       	mova	@r9,	r14	
    1616:	03 00       	.word	0x0003;	????	Illegal as address instr
    1618:	00 03       	bra	#2		;r3 As==10
    161a:	07 1a       	.word	0x1a07;	????	
    161c:	01 00       	mova	@r0,	r1	
    161e:	00 01       	bra	@r1		
    1620:	01 08       	mova	@r8,	r1	
    1622:	d4 06       	cmpa	r6,	r4	
    1624:	00 00       	bra	@r0		
    1626:	02 c1       	bic	r1,	r2	
    1628:	d1 06       	cmpa	r6,	r1	
    162a:	00 00       	bra	@r0		
    162c:	bd 00 00 00 	suba	#0x00000,r13	
    1630:	01 01       	mova	@r1,	r1	
    1632:	08 e1       	xor	r1,	r8	
    1634:	06 00       	mova	@r0,	r6	
    1636:	00 02       	bra	#4		;r2 As==10
    1638:	c3 de       	bis.b	r14,	#1	;r3 As==01
    163a:	06 00       	mova	@r0,	r6	
    163c:	00 bd       	bit	r13,	r0	
    163e:	00 00       	bra	@r0		
    1640:	00 01       	bra	@r1		
    1642:	01 08       	mova	@r8,	r1	
    1644:	78 06 00 00 	mova	r6,	0(r8)	;0x0000(r8)
    1648:	02 d2       	bis	r2,	r2	
    164a:	75 06 00 00 	mova	r6,	0(r5)	;0x0000(r5)
    164e:	bd 00 00 00 	suba	#0x00000,r13	
    1652:	01 01       	mova	@r1,	r1	
    1654:	08 aa       	dadd	r10,	r8	
    1656:	06 00       	mova	@r0,	r6	
    1658:	00 02       	bra	#4		;r2 As==10
    165a:	f9 a7 06 00 	dadd.b	@r7+,	6(r9)	;0x0006(r9)
    165e:	00 fc       	and	r12,	r0	
    1660:	00 00       	bra	@r0		
    1662:	00 01       	bra	@r1		
    1664:	01 0b       	mova	@r11,	r1	
    1666:	ee 06       	adda	r6,	r14	
    1668:	00 00       	bra	@r0		
    166a:	02 c0       	bic	r0,	r2	
    166c:	03 eb       	.word	0xeb03;	????	Illegal as 2-op instr
    166e:	06 00       	mova	@r0,	r6	
    1670:	00 fc       	and	r12,	r0	
    1672:	00 00       	bra	@r0		
    1674:	00 01       	bra	@r1		
    1676:	01 0f       	mova	@r15,	r1	
    1678:	82 01 00 00 	mova	#0x10000,r2	
    167c:	01 05       	mova	@r5,	r1	
    167e:	1a 01       	mova	@r1+,	r10	
    1680:	00 00       	bra	@r0		
    1682:	01 03       	mova	#2,	r1	;r3 As==10
    1684:	03 1a       	.word	0x1a03;	????	
    1686:	11 0f       	mova	@r15+,	r1	
    1688:	09 03       	mova	#2,	r9	;r3 As==10
    168a:	00 00       	bra	@r0		
    168c:	01 06       	mova	@r6,	r1	
    168e:	1a 01       	mova	@r1+,	r10	
    1690:	00 00       	bra	@r0		
    1692:	01 03       	mova	#2,	r1	;r3 As==10
    1694:	03 2a       	jnc	$-1016   	;abs 0x129c
    1696:	11 00       	mova	#0x00000,r1	
    1698:	a2 01 00 00 	adda	#0x10000,r2	
    169c:	02 00       	mova	@r0,	r2	
    169e:	4f 06       	rlam.a	#2,	r15	
    16a0:	00 00       	bra	@r0		
    16a2:	02 01       	mova	@r1,	r2	
    16a4:	9e 03 00 00 	cmpa	#0x30000,r14	
    16a8:	01 23       	jnz	$-508    	;abs 0x14ac
    16aa:	07 00       	mova	@r0,	r7	
    16ac:	00 2a       	jnc	$-1022   	;abs 0x12ae
    16ae:	07 00       	mova	@r0,	r7	
    16b0:	00 50       	rla	r0		
    16b2:	3e 92       	cmp	#8,	r14	;r2 As==11
    16b4:	3e a2       	dadd	#8,	r14	;r2 As==11
    16b6:	0d 00       	mova	@r0,	r13	
    16b8:	00 02       	bra	#4		;r2 As==10
    16ba:	01 88       	sub	r8,	r1	
    16bc:	07 00       	mova	@r0,	r7	
    16be:	00 01       	bra	@r1		
    16c0:	05 01       	mova	@r1,	r5	
    16c2:	50 3e       	jmp	$-862    	;abs 0x1364
    16c4:	82 3e       	jmp	$-762    	;abs 0x13ca
    16c6:	02 71       	subc	r1,	r2	
    16c8:	02 03       	mova	#2,	r2	;r3 As==10
    16ca:	01 f4       	and	r4,	r1	
    16cc:	06 00       	mova	@r0,	r6	
    16ce:	00 01       	bra	@r1		
    16d0:	12 01       	mova	@r1+,	r2	
    16d2:	57 00       	rrcm	#1,	r7	
    16d4:	00 00       	bra	@r0		
    16d6:	82 3e       	jmp	$-762    	;abs 0x13dc
    16d8:	92 3e       	jmp	$-730    	;abs 0x13fe
    16da:	02 71       	subc	r1,	r2	
    16dc:	02 57       	add	r7,	r2	
    16de:	00 00       	bra	@r0		
    16e0:	00 04       	bra	@r4		
    16e2:	63 00 01 12 	mova	r0,	&0x31201
    16e6:	57 00       	rrcm	#1,	r7	
    16e8:	00 00       	bra	@r0		
    16ea:	45 09       	rram.a	#3,	r5	
    16ec:	00 00       	bra	@r0		
    16ee:	00 05       	bra	@r5		
    16f0:	01 08       	mova	@r8,	r1	
    16f2:	6d 02 00 00 	mova	r2,	&0xd0000
    16f6:	06 6d       	addc	r13,	r6	
    16f8:	00 00       	bra	@r0		
    16fa:	00 02       	bra	#4		;r2 As==10
    16fc:	a6 6a 00 00 	addc	@r10,	0(r6)	;0x0000(r6)
    1700:	00 6f       	addc	r15,	r0	
    1702:	00 00       	bra	@r0		
    1704:	00 01       	bra	@r1		
    1706:	01 07       	mova	@r7,	r1	
    1708:	57 00       	rrcm	#1,	r7	
    170a:	00 00       	bra	@r0		
    170c:	08 f2       	and	r2,	r8	
    170e:	04 00       	mova	@r0,	r4	
    1710:	00 02       	bra	#4		;r2 As==10
    1712:	97 03 ef 04 	cmpa	#0x304ef,r7	
    1716:	00 00       	bra	@r0		
    1718:	6f 00 00 00 	mova	r0,	&0xf0000
    171c:	01 01       	mova	@r1,	r1	
    171e:	08 89       	sub	r9,	r8	
    1720:	04 00       	mova	@r0,	r4	
    1722:	00 02       	bra	#4		;r2 As==10
    1724:	99 03 86 04 	cmpa	#0x30486,r9	
    1728:	00 00       	bra	@r0		
    172a:	6f 00 00 00 	mova	r0,	&0xf0000
    172e:	01 01       	mova	@r1,	r1	
    1730:	08 73       	sbc	r8		
    1732:	07 00       	mova	@r0,	r7	
    1734:	00 02       	bra	#4		;r2 As==10
    1736:	d0 04       	cmpa	r4,	r0	
    1738:	70 07 00 00 	mova	r7,	0x0000	;PC rel. 0x0173a
    173c:	6f 00 00 00 	mova	r0,	&0xf0000
    1740:	01 01       	mova	@r1,	r1	
    1742:	08 7f       	subc	r15,	r8	
    1744:	07 00       	mova	@r0,	r7	
    1746:	00 02       	bra	#4		;r2 As==10
    1748:	d2 04       	cmpa	r4,	r2	
    174a:	7c 07 00 00 	mova	r7,	0(r12)	;0x0000(r12)
    174e:	6f 00 00 00 	mova	r0,	&0xf0000
    1752:	01 01       	mova	@r1,	r1	
    1754:	08 04       	mova	@r4,	r8	
    1756:	07 00       	mova	@r0,	r7	
    1758:	00 02       	bra	#4		;r2 As==10
    175a:	d4 04       	cmpa	r4,	r4	
    175c:	01 07       	mova	@r7,	r1	
    175e:	00 00       	bra	@r0		
    1760:	6f 00 00 00 	mova	r0,	&0xf0000
    1764:	01 01       	mova	@r1,	r1	
    1766:	08 0f       	mova	@r15,	r8	
    1768:	07 00       	mova	@r0,	r7	
    176a:	00 02       	bra	#4		;r2 As==10
    176c:	d6 04       	cmpa	r4,	r6	
    176e:	0c 07       	mova	@r7,	r12	
    1770:	00 00       	bra	@r0		
    1772:	6f 00 00 00 	mova	r0,	&0xf0000
    1776:	01 01       	mova	@r1,	r1	
    1778:	08 1a       	.word	0x1a08;	????	
    177a:	07 00       	mova	@r0,	r7	
    177c:	00 02       	bra	#4		;r2 As==10
    177e:	d8 04       	cmpa	r4,	r8	
    1780:	17 07       	mova	@r7+,	r7	
    1782:	00 00       	bra	@r0		
    1784:	6f 00 00 00 	mova	r0,	&0xf0000
    1788:	01 01       	mova	@r1,	r1	
    178a:	08 66       	addc	r6,	r8	
    178c:	07 00       	mova	@r0,	r7	
    178e:	00 02       	bra	#4		;r2 As==10
    1790:	de 04       	cmpa	r4,	r14	
    1792:	63 07 00 00 	mova	r7,	&0x30000
    1796:	6f 00 00 00 	mova	r0,	&0xf0000
    179a:	01 01       	mova	@r1,	r1	
    179c:	06 6d       	addc	r13,	r6	
    179e:	00 00       	bra	@r0		
    17a0:	00 02       	bra	#4		;r2 As==10
    17a2:	a6 6a 00 00 	addc	@r10,	0(r6)	;0x0000(r6)
    17a6:	00 6f       	addc	r15,	r0	
    17a8:	00 00       	bra	@r0		
    17aa:	00 01       	bra	@r1		
    17ac:	01 08       	mova	@r8,	r1	
    17ae:	f2 04       	suba	r4,	r2	
    17b0:	00 00       	bra	@r0		
    17b2:	02 97       	cmp	r7,	r2	
    17b4:	03 ef       	.word	0xef03;	????	Illegal as 2-op instr
    17b6:	04 00       	mova	@r0,	r4	
    17b8:	00 6f       	addc	r15,	r0	
    17ba:	00 00       	bra	@r0		
    17bc:	00 01       	bra	@r1		
    17be:	01 08       	mova	@r8,	r1	
    17c0:	89 04 00 00 	mova	#0x40000,r9	
    17c4:	02 99       	cmp	r9,	r2	
    17c6:	03 86       	.word	0x8603;	????	Illegal as 2-op instr
    17c8:	04 00       	mova	@r0,	r4	
    17ca:	00 6f       	addc	r15,	r0	
    17cc:	00 00       	bra	@r0		
    17ce:	00 01       	bra	@r1		
    17d0:	01 08       	mova	@r8,	r1	
    17d2:	73 07       	.word	0x0773;	????	Illegal as address instr
    17d4:	00 00       	bra	@r0		
    17d6:	02 d0       	bis	r0,	r2	
    17d8:	04 70       	subc	r0,	r4	
    17da:	07 00       	mova	@r0,	r7	
    17dc:	00 6f       	addc	r15,	r0	
    17de:	00 00       	bra	@r0		
    17e0:	00 01       	bra	@r1		
    17e2:	01 08       	mova	@r8,	r1	
    17e4:	7f 07 00 00 	mova	r7,	0(r15)	;0x0000(r15)
    17e8:	02 d2       	bis	r2,	r2	
    17ea:	04 7c       	subc	r12,	r4	
    17ec:	07 00       	mova	@r0,	r7	
    17ee:	00 6f       	addc	r15,	r0	
    17f0:	00 00       	bra	@r0		
    17f2:	00 01       	bra	@r1		
    17f4:	01 08       	mova	@r8,	r1	
    17f6:	04 07       	mova	@r7,	r4	
    17f8:	00 00       	bra	@r0		
    17fa:	02 d4       	bis	r4,	r2	
    17fc:	04 01       	mova	@r1,	r4	
    17fe:	07 00       	mova	@r0,	r7	
    1800:	00 6f       	addc	r15,	r0	
    1802:	00 00       	bra	@r0		
    1804:	00 01       	bra	@r1		
    1806:	01 08       	mova	@r8,	r1	
    1808:	0f 07       	mova	@r7,	r15	
    180a:	00 00       	bra	@r0		
    180c:	02 d6       	bis	r6,	r2	
    180e:	04 0c       	mova	@r12,	r4	
    1810:	07 00       	mova	@r0,	r7	
    1812:	00 6f       	addc	r15,	r0	
    1814:	00 00       	bra	@r0		
    1816:	00 01       	bra	@r1		
    1818:	01 08       	mova	@r8,	r1	
    181a:	1a 07       	mova	@r7+,	r10	
    181c:	00 00       	bra	@r0		
    181e:	02 d8       	bis	r8,	r2	
    1820:	04 17       	popm	#1,	r4	
    1822:	07 00       	mova	@r0,	r7	
    1824:	00 6f       	addc	r15,	r0	
    1826:	00 00       	bra	@r0		
    1828:	00 01       	bra	@r1		
    182a:	01 08       	mova	@r8,	r1	
    182c:	66 07 00 00 	mova	r7,	&0x60000
    1830:	02 de       	bis	r14,	r2	
    1832:	04 63       	adc	r4		
    1834:	07 00       	mova	@r0,	r7	
    1836:	00 6f       	addc	r15,	r0	
    1838:	00 00       	bra	@r0		
    183a:	00 01       	bra	@r1		
    183c:	01 00       	mova	@r0,	r1	
    183e:	ff 00       	suba	r0,	r15	
    1840:	00 00       	bra	@r0		
    1842:	02 00       	mova	@r0,	r2	
    1844:	da 06       	cmpa	r6,	r10	
    1846:	00 00       	bra	@r0		
    1848:	02 01       	mova	@r1,	r2	
    184a:	9e 03 00 00 	cmpa	#0x30000,r14	
    184e:	01 d2       	bis	r2,	r1	
    1850:	07 00       	mova	@r0,	r7	
    1852:	00 a4       	dadd	r4,	r0	
    1854:	07 00       	mova	@r0,	r7	
    1856:	00 92       	cmp	r2,	r0	
    1858:	3e b2       	bit	#8,	r14	;r2 As==11
    185a:	3e 7a       	subc	@r10+,	r14	
    185c:	0e 00       	mova	@r0,	r14	
    185e:	00 02       	bra	#4		;r2 As==10
    1860:	04 05       	mova	@r5,	r4	
    1862:	77 00 00 00 	mova	r0,	0(r7)	;0x0000(r7)
    1866:	02 02       	mova	#4,	r2	;r2 As==10
    1868:	07 31       	jn	$+528    	;abs 0x1a78
    186a:	00 00       	bra	@r0		
    186c:	00 03       	bra	#2		;r3 As==10
    186e:	02 05       	mova	@r5,	r2	
    1870:	69 6e       	addc.b	@r14,	r9	
    1872:	74 00 02 01 	mova	r0,	258(r4)	;0x0102(r4)
    1876:	06 6f       	addc	r15,	r6	
    1878:	02 00       	mova	@r0,	r2	
    187a:	00 02       	bra	#4		;r2 As==10
    187c:	08 05       	mova	@r5,	r8	
    187e:	72 00 00 00 	mova	r0,	&0x0000	
    1882:	02 01       	mova	@r1,	r2	
    1884:	08 6d       	addc	r13,	r8	
    1886:	02 00       	mova	@r0,	r2	
    1888:	00 02       	bra	#4		;r2 As==10
    188a:	04 07       	mova	@r7,	r4	
    188c:	2c 00 00 00 	mova	&0x00000,r12	
    1890:	02 08       	mova	@r8,	r2	
    1892:	07 27       	jz	$-496    	;abs 0x16a2
    1894:	00 00       	bra	@r0		
    1896:	00 02       	bra	#4		;r2 As==10
    1898:	02 07       	mova	@r7,	r2	
    189a:	8f 01 00 00 	mova	#0x10000,r15	
    189e:	02 01       	mova	@r1,	r2	
    18a0:	06 76       	subc	r6,	r6	
    18a2:	02 00       	mova	@r0,	r2	
    18a4:	00 04       	bra	@r4		
    18a6:	02 6d       	addc	r13,	r2	
    18a8:	00 00       	bra	@r0		
    18aa:	00 05       	bra	@r5		
    18ac:	60 00 00 00 	mova	r0,	&0x00000
    18b0:	06 e4       	xor	r4,	r6	
    18b2:	07 00       	mova	@r0,	r7	
    18b4:	00 02       	bra	#4		;r2 As==10
    18b6:	28 7d       	subc	@r13,	r8	
    18b8:	00 00       	bra	@r0		
    18ba:	00 07       	bra	@r7		
    18bc:	02 92       	cmp	r2,	r2	
    18be:	07 00       	mova	@r0,	r7	
    18c0:	00 06       	bra	@r6		
    18c2:	eb 07       	adda	r7,	r11	
    18c4:	00 00       	bra	@r0		
    18c6:	02 66       	addc	r6,	r2	
    18c8:	72 00 00 00 	mova	r0,	&0x0000	
    18cc:	08 01       	mova	@r1,	r8	
    18ce:	e6 08       	adda	r8,	r6	
    18d0:	00 00       	bra	@r0		
    18d2:	01 24       	jz	$+4      	;abs 0x18d6
    18d4:	01 2f       	jc	$-508    	;abs 0x16d8
    18d6:	00 00       	bra	@r0		
    18d8:	00 92       	cmp	r2,	r0	
    18da:	3e a4       	dadd	@r4+,	r14	
    18dc:	3e 02 71 02 	mova	&0x0271,r14	
    18e0:	cf 00       	mova	r0,	r15	
    18e2:	00 00       	bra	@r0		
    18e4:	09 66       	addc	r6,	r9	
    18e6:	6d 74       	subc.b	@r4,	r13	
    18e8:	00 01       	bra	@r1		
    18ea:	24 67       	addc	@r7,	r4	
    18ec:	00 00       	bra	@r0		
    18ee:	00 02       	bra	#4		;r2 As==10
    18f0:	91 02 0a 0b 	cmpa	#0x20b0a,r1	
    18f4:	f3 07       	.word	0x07f3;	????	Illegal as address instr
    18f6:	00 00       	bra	@r0		
    18f8:	01 26       	jz	$-1020   	;abs 0x14fc
    18fa:	83 00       	.word	0x0083;	????	Illegal as address instr
    18fc:	00 00       	bra	@r0		
    18fe:	03 91       	.word	0x9103;	????	Illegal as 2-op instr
    1900:	02 9f       	cmp	r15,	r2	
    1902:	0c 72       	subc	r2,	r12	
    1904:	63 00 01 27 	mova	r0,	&0x32701
    1908:	2f 00 00 00 	mova	&0x00000,r15	
    190c:	00 0d       	bra	@r13		
    190e:	01 ca       	bic	r10,	r1	
    1910:	07 00       	mova	@r0,	r7	
    1912:	00 01       	bra	@r1		
    1914:	30 01 2f 00 	bra	47(r1)		;0x002f(r1)
    1918:	00 00       	bra	@r0		
    191a:	a4 3e       	jmp	$-694    	;abs 0x1664
    191c:	b2 3e       	jmp	$-666    	;abs 0x1682
    191e:	02 71       	subc	r1,	r2	
    1920:	02 0e       	mova	@r14,	r2	
    1922:	66 6d       	addc.b	@r13,	r6	
    1924:	74 00 01 30 	mova	r0,	12289(r4);0x3001(r4)
    1928:	67 00 00 00 	mova	r0,	&0x70000
    192c:	50 09       	rram	#3,	r0	
    192e:	00 00       	bra	@r0		
    1930:	0f f3       	and	#0,	r15	;r3 As==00
    1932:	07 00       	mova	@r0,	r7	
    1934:	00 01       	bra	@r1		
    1936:	30 83       	sub	#-1,	r0	;r3 As==11
    1938:	00 00       	bra	@r0		
    193a:	00 62       	addc	r2,	r0	
    193c:	09 00       	mova	@r0,	r9	
    193e:	00 00       	bra	@r0		
    1940:	00 b1       	bit	r1,	r0	
    1942:	03 00       	.word	0x0003;	????	Illegal as address instr
    1944:	00 02       	bra	#4		;r2 As==10
    1946:	00 a8       	dadd	r8,	r0	
    1948:	07 00       	mova	@r0,	r7	
    194a:	00 02       	bra	#4		;r2 As==10
    194c:	01 9e       	cmp	r14,	r1	
    194e:	03 00       	.word	0x0003;	????	Illegal as address instr
    1950:	00 01       	bra	@r1		
    1952:	09 09       	mova	@r9,	r9	
    1954:	00 00       	bra	@r0		
    1956:	a4 07 00 00 	adda	#0x70000,r4	
    195a:	b2 3e       	jmp	$-666    	;abs 0x16c0
    195c:	28 43       	mov	#2,	r8	;r3 As==10
    195e:	10 0f       	bra	@r15+		
    1960:	00 00       	bra	@r0		
    1962:	02 04       	mova	@r4,	r2	
    1964:	05 77       	subc	r7,	r5	
    1966:	00 00       	bra	@r0		
    1968:	00 02       	bra	#4		;r2 As==10
    196a:	02 07       	mova	@r7,	r2	
    196c:	31 00 00 00 	mova	0x0000,	r1	;PC rel. 0x0196e
    1970:	03 02       	.word	0x0203;	????	Illegal as address instr
    1972:	05 69       	addc	r9,	r5	
    1974:	6e 74       	subc.b	@r4,	r14	
    1976:	00 02       	bra	#4		;r2 As==10
    1978:	01 06       	mova	@r6,	r1	
    197a:	6f 02 00 00 	mova	r2,	&0xf0000
    197e:	04 c2       	bic	r2,	r4	
    1980:	08 00       	mova	@r0,	r8	
    1982:	00 02       	bra	#4		;r2 As==10
    1984:	27 2f       	jc	$-432    	;abs 0x17d4
    1986:	00 00       	bra	@r0		
    1988:	00 02       	bra	#4		;r2 As==10
    198a:	08 05       	mova	@r5,	r8	
    198c:	72 00 00 00 	mova	r0,	&0x0000	
    1990:	02 01       	mova	@r1,	r2	
    1992:	08 6d       	addc	r13,	r8	
    1994:	02 00       	mova	@r0,	r2	
    1996:	00 02       	bra	#4		;r2 As==10
    1998:	04 07       	mova	@r7,	r4	
    199a:	2c 00 00 00 	mova	&0x00000,r12	
    199e:	02 08       	mova	@r8,	r2	
    19a0:	07 27       	jz	$-496    	;abs 0x17b0
    19a2:	00 00       	bra	@r0		
    19a4:	00 04       	bra	@r4		
    19a6:	f8 07       	suba	r7,	r8	
    19a8:	00 00       	bra	@r0		
    19aa:	02 56       	add	r6,	r2	
    19ac:	3d 00 00 00 	mova	0x0000,	r13	;PC rel. 0x019ae
    19b0:	02 02       	mova	#4,	r2	;r2 As==10
    19b2:	07 8f       	sub	r15,	r7	
    19b4:	01 00       	mova	@r0,	r1	
    19b6:	00 05       	bra	@r5		
    19b8:	02 7c       	subc	r12,	r2	
    19ba:	00 00       	bra	@r0		
    19bc:	00 02       	bra	#4		;r2 As==10
    19be:	01 06       	mova	@r6,	r1	
    19c0:	76 02 00 00 	mova	r2,	0(r6)	;0x0000(r6)
    19c4:	05 02       	mova	#4,	r5	;r2 As==10
    19c6:	89 00 00 00 	mova	#0x00000,r9	
    19ca:	06 7c       	subc	r12,	r6	
    19cc:	00 00       	bra	@r0		
    19ce:	00 04       	bra	@r4		
    19d0:	e4 07       	adda	r7,	r4	
    19d2:	00 00       	bra	@r0		
    19d4:	03 28       	jnc	$+8      	;abs 0x19dc
    19d6:	99 00 00 00 	cmpa	#0x00000,r9	
    19da:	07 02       	mova	#4,	r7	;r2 As==10
    19dc:	92 07 00 00 	cmpa	#0x70000,r2	
    19e0:	04 eb       	xor	r11,	r4	
    19e2:	07 00       	mova	@r0,	r7	
    19e4:	00 03       	bra	#2		;r3 As==10
    19e6:	66 8e       	sub.b	@r14,	r6	
    19e8:	00 00       	bra	@r0		
    19ea:	00 08       	bra	@r8		
    19ec:	02 01       	mova	@r1,	r2	
    19ee:	34 38       	jl	$+106    	;abs 0x1a58
    19f0:	01 00       	mova	@r0,	r1	
    19f2:	00 09       	bra	@r9		
    19f4:	6d 08 00 00 	mova	r8,	&0xd0000
    19f8:	01 36       	jge	$-1020   	;abs 0x15fc
    19fa:	28 00 00 00 	mova	&0x00000,r8	
    19fe:	02 01       	mova	@r1,	r2	
    1a00:	0f 02       	mova	#4,	r15	;r2 As==10
    1a02:	23 00       	.word	0x0023;	????	Illegal as address instr
    1a04:	09 ed       	xor	r13,	r9	
    1a06:	08 00       	mova	@r0,	r8	
    1a08:	00 01       	bra	@r1		
    1a0a:	37 28       	jnc	$+112    	;abs 0x1a7a
    1a0c:	00 00       	bra	@r0		
    1a0e:	00 02       	bra	#4		;r2 As==10
    1a10:	01 0e       	mova	@r14,	r1	
    1a12:	02 23       	jnz	$-506    	;abs 0x1818
    1a14:	00 09       	bra	@r9		
    1a16:	58 08       	rrcm	#3,	r8	
    1a18:	00 00       	bra	@r0		
    1a1a:	01 38       	jl	$+4      	;abs 0x1a1e
    1a1c:	28 00 00 00 	mova	&0x00000,r8	
    1a20:	02 01       	mova	@r1,	r2	
    1a22:	0d 02       	mova	#4,	r13	;r2 As==10
    1a24:	23 00       	.word	0x0023;	????	Illegal as address instr
    1a26:	09 46       	mov	r6,	r9	
    1a28:	08 00       	mova	@r0,	r8	
    1a2a:	00 01       	bra	@r1		
    1a2c:	39 28       	jnc	$+116    	;abs 0x1aa0
    1a2e:	00 00       	bra	@r0		
    1a30:	00 02       	bra	#4		;r2 As==10
    1a32:	01 0c       	mova	@r12,	r1	
    1a34:	02 23       	jnz	$-506    	;abs 0x183a
    1a36:	00 09       	bra	@r9		
    1a38:	1e 08       	mova	@r8+,	r14	
    1a3a:	00 00       	bra	@r0		
    1a3c:	01 3a       	jl	$-1020   	;abs 0x1640
    1a3e:	28 00 00 00 	mova	&0x00000,r8	
    1a42:	02 01       	mova	@r1,	r2	
    1a44:	0b 02       	mova	#4,	r11	;r2 As==10
    1a46:	23 00       	.word	0x0023;	????	Illegal as address instr
    1a48:	09 ff       	and	r15,	r9	
    1a4a:	08 00       	mova	@r0,	r8	
    1a4c:	00 01       	bra	@r1		
    1a4e:	3b 28       	jnc	$+120    	;abs 0x1ac6
    1a50:	00 00       	bra	@r0		
    1a52:	00 02       	bra	#4		;r2 As==10
    1a54:	01 0a       	mova	@r10,	r1	
    1a56:	02 23       	jnz	$-506    	;abs 0x185c
    1a58:	00 09       	bra	@r9		
    1a5a:	63 08 00 00 	mova	r8,	&0x30000
    1a5e:	01 3c       	jmp	$+4      	;abs 0x1a62
    1a60:	28 00 00 00 	mova	&0x00000,r8	
    1a64:	02 01       	mova	@r1,	r2	
    1a66:	09 02       	mova	#4,	r9	;r2 As==10
    1a68:	23 00       	.word	0x0023;	????	Illegal as address instr
    1a6a:	0a da       	bis	r10,	r10	
    1a6c:	08 00       	mova	@r0,	r8	
    1a6e:	00 01       	bra	@r1		
    1a70:	3d 7c       	subc	@r12+,	r13	
    1a72:	00 00       	bra	@r0		
    1a74:	00 02       	bra	#4		;r2 As==10
    1a76:	23 01       	.word	0x0123;	????	Illegal as address instr
    1a78:	00 04       	bra	@r4		
    1a7a:	f7 08       	suba	r8,	r7	
    1a7c:	00 00       	bra	@r0		
    1a7e:	01 3e       	jmp	$-1020   	;abs 0x1682
    1a80:	aa 00 00 00 	adda	#0x00000,r10	
    1a84:	0b 4d       	mov	r13,	r11	
    1a86:	09 00       	mova	@r0,	r9	
    1a88:	00 01       	bra	@r1		
    1a8a:	4b 01       	rram.a	#1,	r11	
    1a8c:	2f 00 00 00 	mova	&0x00000,r15	
    1a90:	01 74       	subc	r4,	r1	
    1a92:	01 00       	mova	@r0,	r1	
    1a94:	00 0c       	bra	@r12		
    1a96:	ae 08 00 00 	adda	#0x80000,r14	
    1a9a:	01 4b       	mov	r11,	r1	
    1a9c:	76 00 00 00 	mova	r0,	0(r6)	;0x0000(r6)
    1aa0:	0c a3       	dadc	r12		
    1aa2:	08 00       	mova	@r0,	r8	
    1aa4:	00 01       	bra	@r1		
    1aa6:	4b 38       	jl	$+152    	;abs 0x1b3e
    1aa8:	01 00       	mova	@r0,	r1	
    1aaa:	00 0d       	bra	@r13		
    1aac:	70 00 01 4d 	mova	r0,	0x4d01	;PC rel. 0x067af
    1ab0:	76 00 00 00 	mova	r0,	0(r6)	;0x0000(r6)
    1ab4:	00 0e       	bra	@r14		
    1ab6:	7f 08 00 00 	mova	r8,	0(r15)	;0x0000(r15)
    1aba:	01 63       	adc	r1		
    1abc:	01 2f       	jc	$-508    	;abs 0x18c0
    1abe:	00 00       	bra	@r0		
    1ac0:	00 b2       	bit	r2,	r0	
    1ac2:	3e b6       	bit	@r6+,	r14	
    1ac4:	3f 74       	subc	@r4+,	r15	
    1ac6:	09 00       	mova	@r0,	r9	
    1ac8:	00 53       	add	#0,	r0	;r3 As==00
    1aca:	02 00       	mova	@r0,	r2	
    1acc:	00 0f       	bra	@r15		
    1ace:	13 08       	.word	0x0813;	????	Illegal as address instr
    1ad0:	00 00       	bra	@r0		
    1ad2:	01 63       	adc	r1		
    1ad4:	63 02 00 00 	mova	r2,	&0x30000
    1ad8:	c8 09       	mova	r9,	r8	
    1ada:	00 00       	bra	@r0		
    1adc:	0f 39       	jl	$+544    	;abs 0x1cfc
    1ade:	08 00       	mova	@r0,	r8	
    1ae0:	00 01       	bra	@r1		
    1ae2:	63 83       	decd.b	#0		;r3 As==00
    1ae4:	00 00       	bra	@r0		
    1ae6:	00 da       	bis	r10,	r0	
    1ae8:	09 00       	mova	@r0,	r9	
    1aea:	00 0f       	bra	@r15		
    1aec:	40 08       	rrcm.a	#3,	r0	
    1aee:	00 00       	bra	@r0		
    1af0:	01 63       	adc	r1		
    1af2:	28 00 00 00 	mova	&0x00000,r8	
    1af6:	f3 09       	.word	0x09f3;	????	Illegal as address instr
    1af8:	00 00       	bra	@r0		
    1afa:	0f a3       	dadc	r15		
    1afc:	08 00       	mova	@r0,	r8	
    1afe:	00 01       	bra	@r1		
    1b00:	64 38       	jl	$+202    	;abs 0x1bca
    1b02:	01 00       	mova	@r0,	r1	
    1b04:	00 13       	reti			
    1b06:	0a 00       	mova	@r0,	r10	
    1b08:	00 10       	rrc	r0		
    1b0a:	23 09       	.word	0x0923;	????	Illegal as address instr
    1b0c:	00 00       	bra	@r0		
    1b0e:	01 66       	addc	r6,	r1	
    1b10:	2f 00 00 00 	mova	&0x00000,r15	
    1b14:	1e 0a       	mova	@r10+,	r14	
    1b16:	00 00       	bra	@r0		
    1b18:	11 ae 08 00 	dadd	8(r14),	r1	;0x0008(r14)
    1b1c:	00 01       	bra	@r1		
    1b1e:	67 69       	addc.b	@r9,	r7	
    1b20:	02 00       	mova	@r0,	r2	
    1b22:	00 02       	bra	#4		;r2 As==10
    1b24:	91 00 10 98 	cmpa	#0x09810,r1	
    1b28:	08 00       	mova	@r0,	r8	
    1b2a:	00 01       	bra	@r1		
    1b2c:	68 2f       	jc	$-302    	;abs 0x19fe
    1b2e:	00 00       	bra	@r0		
    1b30:	00 71       	subc	r1,	r0	
    1b32:	0a 00       	mova	@r0,	r10	
    1b34:	00 11       	rra	r0		
    1b36:	2e 08 00 00 	mova	&0x80000,r14	
    1b3a:	01 69       	addc	r9,	r1	
    1b3c:	2f 00 00 00 	mova	&0x00000,r15	
    1b40:	01 56       	add	r6,	r1	
    1b42:	12 43       	mov	#1,	r2	;r3 As==01
    1b44:	01 00       	mova	@r0,	r1	
    1b46:	00 d0       	bis	r0,	r0	
    1b48:	3e 0c 3f 01 	mova	319(r12),r14	;0x013f(r12)
    1b4c:	69 2e       	jc	$-812    	;abs 0x1820
    1b4e:	02 00       	mova	@r0,	r2	
    1b50:	00 13       	reti			
    1b52:	5f 01       	rram	#1,	r15	
    1b54:	00 00       	bra	@r0		
    1b56:	14 54 01 00 	add	1(r4),	r4	;0x0001(r4)
    1b5a:	00 b0       	bit	r0,	r0	
    1b5c:	0a 00       	mova	@r0,	r10	
    1b5e:	00 15       	pushm	#1,	r0	
    1b60:	d0 3e       	jmp	$-606    	;abs 0x1902
    1b62:	0c 3f       	jmp	$-486    	;abs 0x197c
    1b64:	16 6a 01 00 	addc	1(r10),	r6	;0x0001(r10)
    1b68:	00 c4       	bic	r4,	r0	
    1b6a:	0a 00       	mova	@r0,	r10	
    1b6c:	00 00       	bra	@r0		
    1b6e:	00 17       	popm	#1,	r0	
    1b70:	0c 00       	mova	@r0,	r12	
    1b72:	00 00       	bra	@r0		
    1b74:	10 06       	bra	@r6+		
    1b76:	08 00       	mova	@r0,	r8	
    1b78:	00 01       	bra	@r1		
    1b7a:	6e 7c       	subc.b	@r12,	r14	
    1b7c:	00 00       	bra	@r0		
    1b7e:	00 ff       	and	r15,	r0	
    1b80:	0a 00       	mova	@r0,	r10	
    1b82:	00 18 6c 65 	addcx.a	@r5,	r12	
    1b86:	6e 00 01 6f 	mova	r0,	&0xe6f01
    1b8a:	28 00 00 00 	mova	&0x00000,r8	
    1b8e:	1a 0b       	mova	@r11+,	r10	
    1b90:	00 00       	bra	@r0		
    1b92:	00 00       	bra	@r0		
    1b94:	19 01       	mova	@r1+,	r9	
    1b96:	2f 00 00 00 	mova	&0x00000,r15	
    1b9a:	63 02 00 00 	mova	r2,	&0x30000
    1b9e:	1a 2f       	jc	$-458    	;abs 0x19d4
    1ba0:	00 00       	bra	@r0		
    1ba2:	00 00       	bra	@r0		
    1ba4:	05 02       	mova	#4,	r5	;r2 As==10
    1ba6:	53 02       	rlam	#1,	#0	;r3 As==00
    1ba8:	00 00       	bra	@r0		
    1baa:	1b 7c 00 00 	subc	0(r12),	r11	;0x0000(r12)
    1bae:	00 79       	subc	r9,	r0	
    1bb0:	02 00       	mova	@r0,	r2	
    1bb2:	00 1c       	.word	0x1c00;	????	
    1bb4:	28 00 00 00 	mova	&0x00000,r8	
    1bb8:	01 00       	mova	@r0,	r1	
    1bba:	1d 01       	mova	@r1+,	r13	
    1bbc:	e4 08       	adda	r8,	r4	
    1bbe:	00 00       	bra	@r0		
    1bc0:	01 c5       	bic	r5,	r1	
    1bc2:	01 2f       	jc	$-508    	;abs 0x19c6
    1bc4:	00 00       	bra	@r0		
    1bc6:	00 be       	bit	r14,	r0	
    1bc8:	3f 28       	jnc	$+128    	;abs 0x1c48
    1bca:	43 2c       	jc	$+136    	;abs 0x1c52
    1bcc:	0b 00       	mova	@r0,	r11	
    1bce:	00 a8       	dadd	r8,	r0	
    1bd0:	03 00       	.word	0x0003;	????	Illegal as address instr
    1bd2:	00 0f       	bra	@r15		
    1bd4:	13 08       	.word	0x0813;	????	Illegal as address instr
    1bd6:	00 00       	bra	@r0		
    1bd8:	01 c5       	bic	r5,	r1	
    1bda:	63 02 00 00 	mova	r2,	&0x30000
    1bde:	80 0b 00 00 	bra	#0xb0000	
    1be2:	0f 46       	mov	r6,	r15	
    1be4:	09 00       	mova	@r0,	r9	
    1be6:	00 01       	bra	@r1		
    1be8:	c5 83 00 00 	sub.b	#0,	0(r5)	;r3 As==00, 0x0000(r5)
    1bec:	00 93       	tst	r0		
    1bee:	0b 00       	mova	@r0,	r11	
    1bf0:	00 0f       	bra	@r15		
    1bf2:	a9 08 00 00 	adda	#0x80000,r9	
    1bf6:	01 c5       	bic	r5,	r1	
    1bf8:	9f 00 00 00 	cmpa	#0x00000,r15	
    1bfc:	ad 0b 00 00 	adda	#0xb0000,r13	
    1c00:	10 23       	jnz	$-478    	;abs 0x1a22
    1c02:	09 00       	mova	@r0,	r9	
    1c04:	00 01       	bra	@r1		
    1c06:	c7 2f       	jc	$-112    	;abs 0x1b96
    1c08:	00 00       	bra	@r0		
    1c0a:	00 28       	jnc	$+2      	;abs 0x1c0c
    1c0c:	0c 00       	mova	@r0,	r12	
    1c0e:	00 1e       	.word	0x1e00;	????	
    1c10:	02 01       	mova	@r1,	r2	
    1c12:	c9 e3 02 00 	xor.b	#0,	2(r9)	;r3 As==00, 0x0002(r9)
    1c16:	00 1f       	.word	0x1f00;	????	
    1c18:	33 09       	.word	0x0933;	????	Illegal as address instr
    1c1a:	00 00       	bra	@r0		
    1c1c:	00 1f       	.word	0x1f00;	????	
    1c1e:	75 08 00 00 	mova	r8,	0(r5)	;0x0000(r5)
    1c22:	01 00       	mova	@r0,	r1	
    1c24:	10 01       	reta			
    1c26:	08 00       	mova	@r0,	r8	
    1c28:	00 01       	bra	@r1		
    1c2a:	c9 ce 02 00 	bic.b	r14,	2(r9)	;0x0002(r9)
    1c2e:	00 44       	br	r4		
    1c30:	0c 00       	mova	@r0,	r12	
    1c32:	00 10       	rrc	r0		
    1c34:	40 08       	rrcm.a	#3,	r0	
    1c36:	00 00       	bra	@r0		
    1c38:	01 ca       	bic	r10,	r1	
    1c3a:	28 00 00 00 	mova	&0x00000,r8	
    1c3e:	a1 0c 00 00 	adda	#0xc0000,r1	
    1c42:	11 a3       	dadd	#1,	r1	;r3 As==01
    1c44:	08 00       	mova	@r0,	r8	
    1c46:	00 01       	bra	@r1		
    1c48:	cb 38       	jl	$+408    	;abs 0x1de0
    1c4a:	01 00       	mova	@r0,	r1	
    1c4c:	00 02       	bra	#4		;r2 As==10
    1c4e:	91 00 10 39 	cmpa	#0x03910,r1	
    1c52:	08 00       	mova	@r0,	r8	
    1c54:	00 01       	bra	@r1		
    1c56:	cc 76 00 00 	subc.b	r6,	0(r12)	;0x0000(r12)
    1c5a:	00 f5       	and	r5,	r0	
    1c5c:	0c 00       	mova	@r0,	r12	
    1c5e:	00 10       	rrc	r0		
    1c60:	d0 08       	cmpa	r8,	r0	
    1c62:	00 00       	bra	@r0		
    1c64:	01 cd       	bic	r13,	r1	
    1c66:	7c 00 00 00 	mova	r0,	0(r12)	;0x0000(r12)
    1c6a:	32 0d 00 00 	mova	0(r13),	r2	;0x0000(r13)
    1c6e:	10 bc 08 00 	bit	8(r12),	r0	;0x0008(r12)
    1c72:	00 01       	bra	@r1		
    1c74:	ce 2f       	jc	$-98     	;abs 0x1c12
    1c76:	00 00       	bra	@r0		
    1c78:	00 81       	sub	r1,	r0	
    1c7a:	0d 00       	mova	@r0,	r13	
    1c7c:	00 10       	rrc	r0		
    1c7e:	91 08 00 00 	cmpa	#0x80000,r1	
    1c82:	01 cf       	bic	r15,	r1	
    1c84:	21 00 00 00 	mova	&0x00000,r1	
    1c88:	94 0d 00 00 	cmpa	#0xd0000,r4	
    1c8c:	11 73       	subc	#1,	r1	;r3 As==01
    1c8e:	05 00       	mova	@r0,	r5	
    1c90:	00 01       	bra	@r1		
    1c92:	d0 a8 03 00 	dadd.b	3(r8),	0x0200	;0x0003(r8), PC rel. 0x01e98
    1c96:	00 02 
    1c98:	91 02 20 ca 	cmpa	#0x2ca20,r1	
    1c9c:	08 00       	mova	@r0,	r8	
    1c9e:	00 01       	bra	@r1		
    1ca0:	a0 01 ea 42 	adda	#0x142ea,r0	
    1ca4:	20 3a       	jl	$-958    	;abs 0x18e6
    1ca6:	09 00       	mova	@r0,	r9	
    1ca8:	00 01       	bra	@r1		
    1caa:	71 01 16 42 	mova	r1,	16918(r1);0x4216(r1)
    1cae:	20 8b       	sub	@r11,	r0	
    1cb0:	08 00       	mova	@r0,	r8	
    1cb2:	00 01       	bra	@r1		
    1cb4:	5f 01       	rram	#1,	r15	
    1cb6:	d2 41 21 e0 	mov.b	-8159(r1),&0x0c40	;0xe021(r1)
    1cba:	40 0c 
    1cbc:	41 91       	cmp.b	r1,	r1	
    1cbe:	03 00       	.word	0x0003;	????	Illegal as address instr
    1cc0:	00 22       	jnz	$-1022   	;abs 0x18c2
    1cc2:	76 61       	addc.b	@r1+,	r6	
    1cc4:	6c 00 01 0d 	mova	r0,	&0xc0d01
    1cc8:	01 2f       	jc	$-508    	;abs 0x1acc
    1cca:	00 00       	bra	@r0		
    1ccc:	00 f1       	and	r1,	r0	
    1cce:	0d 00       	mova	@r0,	r13	
    1cd0:	00 00       	bra	@r0		
    1cd2:	15 50 42 c0 	add	0xc042,	r5	;PC rel. 0xfdd18
    1cd6:	42 23       	jnz	$-378    	;abs 0x1b5c
    1cd8:	1d 09       	mova	@r9+,	r13	
    1cda:	00 00       	bra	@r0		
    1cdc:	01 83       	sub	#0,	r1	;r3 As==00
    1cde:	01 2f       	jc	$-508    	;abs 0x1ae2
    1ce0:	00 00       	bra	@r0		
    1ce2:	00 fe       	and	r14,	r0	
    1ce4:	0d 00       	mova	@r0,	r13	
    1ce6:	00 00       	bra	@r0		
    1ce8:	00 24       	jz	$+2      	;abs 0x1cea
    1cea:	7c 00 00 00 	mova	r0,	0(r12)	;0x0000(r12)
    1cee:	1c 28       	jnc	$+58     	;abs 0x1d28
    1cf0:	00 00       	bra	@r0		
    1cf2:	00 0b       	bra	@r11		
	...

Disassembly of section .debug_abbrev:

00000000 <.debug_abbrev>:
   0:	01 11       	rra	r1		
   2:	01 25       	jz	$+516    	;abs 0x206
   4:	0e 13       	reti			;return from interupt
   6:	0b 03       	mova	#2,	r11	;r3 As==10
   8:	0e 1b 0e 11 	.rpt	#14
				rrax	r14		
   c:	01 52       	add	r2,	r1	
   e:	01 55       	add	r5,	r1	
  10:	06 10       	rrc	r6		
  12:	06 00       	mova	@r0,	r6	
  14:	00 02       	bra	#4		;r2 As==10
  16:	24 00 0b 0b 	mova	&0x00b0b,r4	
  1a:	3e 0b 03 0e 	mova	3587(r11),r14	;0x0e03(r11)
  1e:	00 00       	bra	@r0		
  20:	03 24       	jz	$+8      	;abs 0x28
  22:	00 0b       	bra	@r11		
  24:	0b 3e       	jmp	$-1000   	;abs 0xfc3c
  26:	0b 03       	mova	#2,	r11	;r3 As==10
  28:	08 00       	mova	@r0,	r8	
  2a:	00 04       	bra	@r4		
  2c:	0f 00       	mova	@r0,	r15	
  2e:	0b 0b       	mova	@r11,	r11	
  30:	49 13       	calla	r9		
  32:	00 00       	bra	@r0		
  34:	05 26       	jz	$-1012   	;abs 0xfc40
  36:	00 49       	br	r9		
  38:	13 00       	.word	0x0013;	????	Illegal as address instr
  3a:	00 06       	bra	@r6		
  3c:	04 01       	mova	@r1,	r4	
  3e:	0b 0b       	mova	@r11,	r11	
  40:	3a 0b 3b 0b 	mova	2875(r11),r10	;0x0b3b(r11)
  44:	01 13       	reti			;return from interupt
  46:	00 00       	bra	@r0		
  48:	07 28       	jnc	$+16     	;abs 0x58
  4a:	00 03       	bra	#2		;r3 As==10
  4c:	0e 1c       	.word	0x1c0e;	????	
  4e:	0d 00       	mova	@r0,	r13	
  50:	00 08       	bra	@r8		
  52:	16 00       	mova	#0x00000,r6	
  54:	03 0e       	.word	0x0e03;	????	Illegal as address instr
  56:	3a 0b 3b 0b 	mova	2875(r11),r10	;0x0b3b(r11)
  5a:	49 13       	calla	r9		
  5c:	00 00       	bra	@r0		
  5e:	09 2e       	jc	$-1004   	;abs 0xfc72
  60:	00 3f       	jmp	$-510    	;abs 0xfe62
  62:	0c 03       	mova	#2,	r12	;r3 As==10
  64:	0e 3a       	jl	$-994    	;abs 0xfc82
  66:	0b 3b       	jl	$-488    	;abs 0xfe7e
  68:	0b 27       	jz	$-488    	;abs 0xfe80
  6a:	0c 20       	jnz	$+26     	;abs 0x84
  6c:	0b 00       	mova	@r0,	r11	
  6e:	00 0a       	bra	@r10		
  70:	2e 00 3f 0c 	mova	&0x00c3f,r14	
  74:	03 0e       	.word	0x0e03;	????	Illegal as address instr
  76:	3a 0b 3b 05 	mova	1339(r11),r10	;0x053b(r11)
  7a:	27 0c 20 0b 	mova	&0xc0b20,r7	
  7e:	00 00       	bra	@r0		
  80:	0b 2e       	jc	$-1000   	;abs 0xfc98
  82:	01 3f       	jmp	$-508    	;abs 0xfe86
  84:	0c 03       	mova	#2,	r12	;r3 As==10
  86:	0e 3a       	jl	$-994    	;abs 0xfca4
  88:	0b 3b       	jl	$-488    	;abs 0xfea0
  8a:	0b 27       	jz	$-488    	;abs 0xfea2
  8c:	0c 49       	mov	r9,	r12	
  8e:	13 11       	rra	#1		;r3 As==01
  90:	01 12       	push	r1		
  92:	01 40       	mov	r0,	r1	
  94:	0a 01       	mova	@r1,	r10	
  96:	13 00       	.word	0x0013;	????	Illegal as address instr
  98:	00 0c       	bra	@r12		
  9a:	05 00       	mova	@r0,	r5	
  9c:	03 08       	.word	0x0803;	????	Illegal as address instr
  9e:	3a 0b 3b 0b 	mova	2875(r11),r10	;0x0b3b(r11)
  a2:	49 13       	calla	r9		
  a4:	02 06       	mova	@r6,	r2	
  a6:	00 00       	bra	@r0		
  a8:	0d 2e       	jc	$-996    	;abs 0xfcc4
  aa:	01 3f       	jmp	$-508    	;abs 0xfeae
  ac:	0c 03       	mova	#2,	r12	;r3 As==10
  ae:	0e 3a       	jl	$-994    	;abs 0xfccc
  b0:	0b 3b       	jl	$-488    	;abs 0xfec8
  b2:	0b 27       	jz	$-488    	;abs 0xfeca
  b4:	0c 49       	mov	r9,	r12	
  b6:	13 11       	rra	#1		;r3 As==01
  b8:	01 12       	push	r1		
  ba:	01 40       	mov	r0,	r1	
  bc:	06 01       	mova	@r1,	r6	
  be:	13 00       	.word	0x0013;	????	Illegal as address instr
  c0:	00 0e       	bra	@r14		
  c2:	34 00 03 08 	mova	0x0803,	r4	;PC rel. 0x008c7
  c6:	3a 0b 3b 0b 	mova	2875(r11),r10	;0x0b3b(r11)
  ca:	49 13       	calla	r9		
  cc:	02 0a       	mova	@r10,	r2	
  ce:	00 00       	bra	@r0		
  d0:	0f 01       	mova	@r1,	r15	
  d2:	01 49       	mov	r9,	r1	
  d4:	13 01       	.word	0x0113;	????	Illegal as address instr
  d6:	13 00       	.word	0x0013;	????	Illegal as address instr
  d8:	00 10       	rrc	r0		
  da:	21 00 49 13 	mova	&0x01349,r1	
  de:	2f 0b 00 00 	mova	&0xb0000,r15	
  e2:	11 2e       	jc	$-988    	;abs 0xfd06
  e4:	00 3f       	jmp	$-510    	;abs 0xfee6
  e6:	0c 03       	mova	#2,	r12	;r3 As==10
  e8:	0e 3a       	jl	$-994    	;abs 0xfd06
  ea:	0b 3b       	jl	$-488    	;abs 0xff02
  ec:	0b 27       	jz	$-488    	;abs 0xff04
  ee:	0c 49       	mov	r9,	r12	
  f0:	13 11       	rra	#1		;r3 As==01
  f2:	01 12       	push	r1		
  f4:	01 40       	mov	r0,	r1	
  f6:	06 00       	mova	@r0,	r6	
  f8:	00 12       	push	r0		
  fa:	2e 00 31 13 	mova	&0x01331,r14	
  fe:	11 01       	mova	@r1+,	r1	
 100:	12 01       	mova	@r1+,	r2	
 102:	40 0a       	rlam.a	#3,	r0	
 104:	00 00       	bra	@r0		
 106:	13 2e       	jc	$-984    	;abs 0xfd2e
 108:	01 3f       	jmp	$-508    	;abs 0xff0c
 10a:	0c 03       	mova	#2,	r12	;r3 As==10
 10c:	0e 3a       	jl	$-994    	;abs 0xfd2a
 10e:	0b 3b       	jl	$-488    	;abs 0xff26
 110:	0b 27       	jz	$-488    	;abs 0xff28
 112:	0c 11       	rra	r12		
 114:	01 12       	push	r1		
 116:	01 40       	mov	r0,	r1	
 118:	06 01       	mova	@r1,	r6	
 11a:	13 00       	.word	0x0013;	????	Illegal as address instr
 11c:	00 14       	pushm.a	#1,	r0	
 11e:	05 00       	mova	@r0,	r5	
 120:	03 0e       	.word	0x0e03;	????	Illegal as address instr
 122:	3a 0b 3b 0b 	mova	2875(r11),r10	;0x0b3b(r11)
 126:	49 13       	calla	r9		
 128:	02 06       	mova	@r6,	r2	
 12a:	00 00       	bra	@r0		
 12c:	15 2e       	jc	$-980    	;abs 0xfd58
 12e:	00 3f       	jmp	$-510    	;abs 0xff30
 130:	0c 03       	mova	#2,	r12	;r3 As==10
 132:	0e 3a       	jl	$-994    	;abs 0xfd50
 134:	0b 3b       	jl	$-488    	;abs 0xff4c
 136:	05 27       	jz	$-500    	;abs 0xff42
 138:	0c 11       	rra	r12		
 13a:	01 12       	push	r1		
 13c:	01 40       	mov	r0,	r1	
 13e:	0a 00       	mova	@r0,	r10	
 140:	00 16       	popm.a	#1,	r0	
 142:	34 00 03 0e 	mova	0x0e03,	r4	;PC rel. 0x00f47
 146:	3a 0b 3b 0b 	mova	2875(r11),r10	;0x0b3b(r11)
 14a:	49 13       	calla	r9		
 14c:	02 06       	mova	@r6,	r2	
 14e:	00 00       	bra	@r0		
 150:	17 34       	jge	$+48     	;abs 0x180
 152:	00 03       	bra	#2		;r3 As==10
 154:	08 3a       	jl	$-1006   	;abs 0xfd66
 156:	0b 3b       	jl	$-488    	;abs 0xff6e
 158:	0b 49       	mov	r9,	r11	
 15a:	13 02       	.word	0x0213;	????	Illegal as address instr
 15c:	06 00       	mova	@r0,	r6	
 15e:	00 18       	.word	0x1800;	????	
 160:	1d 00       	mova	#0x00000,r13	
 162:	31 13       	reti			;return from interupt
 164:	11 01       	mova	@r1+,	r1	
 166:	12 01       	mova	@r1+,	r2	
 168:	58 0b       	rrum	#3,	r8	
 16a:	59 0b       	rrum	#3,	r9	
 16c:	00 00       	bra	@r0		
 16e:	19 2e       	jc	$-972    	;abs 0xfda2
 170:	01 3f       	jmp	$-508    	;abs 0xff74
 172:	0c 03       	mova	#2,	r12	;r3 As==10
 174:	0e 3a       	jl	$-994    	;abs 0xfd92
 176:	0b 3b       	jl	$-488    	;abs 0xff8e
 178:	05 27       	jz	$-500    	;abs 0xff84
 17a:	0c 11       	rra	r12		
 17c:	01 12       	push	r1		
 17e:	01 40       	mov	r0,	r1	
 180:	06 01       	mova	@r1,	r6	
 182:	13 00       	.word	0x0013;	????	Illegal as address instr
 184:	00 1a       	.word	0x1a00;	????	
 186:	34 00 03 08 	mova	0x0803,	r4	;PC rel. 0x0098b
 18a:	3a 0b 3b 05 	mova	1339(r11),r10	;0x053b(r11)
 18e:	49 13       	calla	r9		
 190:	02 06       	mova	@r6,	r2	
 192:	00 00       	bra	@r0		
 194:	1b 34       	jge	$+56     	;abs 0x1cc
 196:	00 03       	bra	#2		;r3 As==10
 198:	0e 3a       	jl	$-994    	;abs 0xfdb6
 19a:	0b 3b       	jl	$-488    	;abs 0xffb2
 19c:	0b 87       	sub	r7,	r11	
 19e:	40 0e       	rlam.a	#4,	r0	
 1a0:	49 13       	calla	r9		
 1a2:	3f 0c 3c 0c 	mova	3132(r12),r15	;0x0c3c(r12)
 1a6:	00 00       	bra	@r0		
 1a8:	1c 35       	jge	$+570    	;abs 0x3e2
 1aa:	00 49       	br	r9		
 1ac:	13 00       	.word	0x0013;	????	Illegal as address instr
 1ae:	00 1d       	.word	0x1d00;	????	
 1b0:	34 00 03 0e 	mova	0x0e03,	r4	;PC rel. 0x00fb5
 1b4:	3a 0b 3b 05 	mova	1339(r11),r10	;0x053b(r11)
 1b8:	87 40 0e 49 	mov	r0,	18702(r7);0x490e(r7)
 1bc:	13 3f       	jmp	$-472    	;abs 0xffe4
 1be:	0c 3c       	jmp	$+26     	;abs 0x1d8
 1c0:	0c 00       	mova	@r0,	r12	
 1c2:	00 1e       	.word	0x1e00;	????	
 1c4:	34 00 03 0e 	mova	0x0e03,	r4	;PC rel. 0x00fc9
 1c8:	3a 0b 3b 0b 	mova	2875(r11),r10	;0x0b3b(r11)
 1cc:	49 13       	calla	r9		
 1ce:	3f 0c 3c 0c 	mova	3132(r12),r15	;0x0c3c(r12)
 1d2:	00 00       	bra	@r0		
 1d4:	1f 34       	jge	$+64     	;abs 0x214
 1d6:	00 03       	bra	#2		;r3 As==10
 1d8:	0e 3a       	jl	$-994    	;abs 0xfdf6
 1da:	0b 3b       	jl	$-488    	;abs 0xfff2
 1dc:	0b 49       	mov	r9,	r11	
 1de:	13 3f       	jmp	$-472    	;abs 0x6
 1e0:	0c 02       	mova	#4,	r12	;r2 As==10
 1e2:	0a 00       	mova	@r0,	r10	
 1e4:	00 00       	bra	@r0		
 1e6:	01 11       	rra	r1		
 1e8:	01 25       	jz	$+516    	;abs 0x3ec
 1ea:	0e 13       	reti			;return from interupt
 1ec:	0b 03       	mova	#2,	r11	;r3 As==10
 1ee:	0e 1b 0e 11 	.rpt	#14
				rrax	r14		
 1f2:	01 12       	push	r1		
 1f4:	01 10       	rrc	r1		
 1f6:	06 00       	mova	@r0,	r6	
 1f8:	00 02       	bra	#4		;r2 As==10
 1fa:	2e 01 3f 0c 	mova	&0x10c3f,r14	
 1fe:	03 0e       	.word	0x0e03;	????	Illegal as address instr
 200:	3a 0b 3b 0b 	mova	2875(r11),r10	;0x0b3b(r11)
 204:	27 0c 11 01 	mova	&0xc0111,r7	
 208:	12 01       	mova	@r1+,	r2	
 20a:	40 0a       	rlam.a	#3,	r0	
 20c:	01 13       	reti			;return from interupt
 20e:	00 00       	bra	@r0		
 210:	03 34       	jge	$+8      	;abs 0x218
 212:	00 03       	bra	#2		;r3 As==10
 214:	0e 3a       	jl	$-994    	;abs 0xfe32
 216:	0b 3b       	jl	$-488    	;abs 0x2e
 218:	0b 49       	mov	r9,	r11	
 21a:	13 1c       	.word	0x1c13;	????	
 21c:	0b 00       	mova	@r0,	r11	
 21e:	00 04       	bra	@r4		
 220:	24 00 0b 0b 	mova	&0x00b0b,r4	
 224:	3e 0b 03 0e 	mova	3587(r11),r14	;0x0e03(r11)
 228:	00 00       	bra	@r0		
 22a:	05 05       	mova	@r5,	r5	
 22c:	00 03       	bra	#2		;r3 As==10
 22e:	0e 3a       	jl	$-994    	;abs 0xfe4c
 230:	0b 3b       	jl	$-488    	;abs 0x48
 232:	0b 49       	mov	r9,	r11	
 234:	13 02       	.word	0x0213;	????	Illegal as address instr
 236:	0a 00       	mova	@r0,	r10	
 238:	00 06       	bra	@r6		
 23a:	34 00 03 08 	mova	0x0803,	r4	;PC rel. 0x00a3f
 23e:	3a 0b 3b 0b 	mova	2875(r11),r10	;0x0b3b(r11)
 242:	49 13       	calla	r9		
 244:	02 06       	mova	@r6,	r2	
 246:	00 00       	bra	@r0		
 248:	07 24       	jz	$+16     	;abs 0x258
 24a:	00 0b       	bra	@r11		
 24c:	0b 3e       	jmp	$-1000   	;abs 0xfe64
 24e:	0b 03       	mova	#2,	r11	;r3 As==10
 250:	08 00       	mova	@r0,	r8	
 252:	00 08       	bra	@r8		
 254:	2e 01 3f 0c 	mova	&0x10c3f,r14	
 258:	03 0e       	.word	0x0e03;	????	Illegal as address instr
 25a:	3a 0b 3b 0b 	mova	2875(r11),r10	;0x0b3b(r11)
 25e:	27 0c 11 01 	mova	&0xc0111,r7	
 262:	12 01       	mova	@r1+,	r2	
 264:	40 06       	rlam.a	#2,	r0	
 266:	01 13       	reti			;return from interupt
 268:	00 00       	bra	@r0		
 26a:	09 05       	mova	@r5,	r9	
 26c:	00 03       	bra	#2		;r3 As==10
 26e:	0e 3a       	jl	$-994    	;abs 0xfe8c
 270:	0b 3b       	jl	$-488    	;abs 0x88
 272:	0b 49       	mov	r9,	r11	
 274:	13 02       	.word	0x0213;	????	Illegal as address instr
 276:	06 00       	mova	@r0,	r6	
 278:	00 0a       	bra	@r10		
 27a:	2e 01 3f 0c 	mova	&0x10c3f,r14	
 27e:	03 0e       	.word	0x0e03;	????	Illegal as address instr
 280:	3a 0b 3b 0b 	mova	2875(r11),r10	;0x0b3b(r11)
 284:	27 0c 49 13 	mova	&0xc1349,r7	
 288:	11 01       	mova	@r1+,	r1	
 28a:	12 01       	mova	@r1+,	r2	
 28c:	40 0a       	rlam.a	#3,	r0	
 28e:	01 13       	reti			;return from interupt
 290:	00 00       	bra	@r0		
 292:	0b 01       	mova	@r1,	r11	
 294:	01 49       	mov	r9,	r1	
 296:	13 01       	.word	0x0113;	????	Illegal as address instr
 298:	13 00       	.word	0x0013;	????	Illegal as address instr
 29a:	00 0c       	bra	@r12		
 29c:	21 00 49 13 	mova	&0x01349,r1	
 2a0:	2f 0b 00 00 	mova	&0xb0000,r15	
 2a4:	0d 34       	jge	$+28     	;abs 0x2c0
 2a6:	00 03       	bra	#2		;r3 As==10
 2a8:	0e 3a       	jl	$-994    	;abs 0xfec6
 2aa:	0b 3b       	jl	$-488    	;abs 0xc2
 2ac:	0b 49       	mov	r9,	r11	
 2ae:	13 3f       	jmp	$-472    	;abs 0xd6
 2b0:	0c 3c       	jmp	$+26     	;abs 0x2ca
 2b2:	0c 00       	mova	@r0,	r12	
 2b4:	00 0e       	bra	@r14		
 2b6:	35 00 49 13 	mova	0x1349,	r5	;PC rel. 0x01601
 2ba:	00 00       	bra	@r0		
 2bc:	0f 34       	jge	$+32     	;abs 0x2dc
 2be:	00 03       	bra	#2		;r3 As==10
 2c0:	0e 3a       	jl	$-994    	;abs 0xfede
 2c2:	0b 3b       	jl	$-488    	;abs 0xda
 2c4:	0b 49       	mov	r9,	r11	
 2c6:	13 3f       	jmp	$-472    	;abs 0xee
 2c8:	0c 02       	mova	#4,	r12	;r2 As==10
 2ca:	0a 00       	mova	@r0,	r10	
 2cc:	00 00       	bra	@r0		
 2ce:	01 11       	rra	r1		
 2d0:	01 25       	jz	$+516    	;abs 0x4d4
 2d2:	0e 13       	reti			;return from interupt
 2d4:	0b 03       	mova	#2,	r11	;r3 As==10
 2d6:	0e 1b 0e 11 	.rpt	#14
				rrax	r14		
 2da:	01 12       	push	r1		
 2dc:	01 10       	rrc	r1		
 2de:	06 00       	mova	@r0,	r6	
 2e0:	00 02       	bra	#4		;r2 As==10
 2e2:	24 00 0b 0b 	mova	&0x00b0b,r4	
 2e6:	3e 0b 03 0e 	mova	3587(r11),r14	;0x0e03(r11)
 2ea:	00 00       	bra	@r0		
 2ec:	03 24       	jz	$+8      	;abs 0x2f4
 2ee:	00 0b       	bra	@r11		
 2f0:	0b 3e       	jmp	$-1000   	;abs 0xff08
 2f2:	0b 03       	mova	#2,	r11	;r3 As==10
 2f4:	08 00       	mova	@r0,	r8	
 2f6:	00 04       	bra	@r4		
 2f8:	34 00 03 0e 	mova	0x0e03,	r4	;PC rel. 0x010fd
 2fc:	3a 0b 3b 0b 	mova	2875(r11),r10	;0x0b3b(r11)
 300:	49 13       	calla	r9		
 302:	3f 0c 02 0a 	mova	2562(r12),r15	;0x0a02(r12)
 306:	00 00       	bra	@r0		
 308:	00 01       	bra	@r1		
 30a:	11 01       	mova	@r1+,	r1	
 30c:	25 0e 13 0b 	mova	&0xe0b13,r5	
 310:	03 0e       	.word	0x0e03;	????	Illegal as address instr
 312:	1b 0e       	mova	@r14+,	r11	
 314:	11 01       	mova	@r1+,	r1	
 316:	12 01       	mova	@r1+,	r2	
 318:	10 06       	bra	@r6+		
 31a:	00 00       	bra	@r0		
 31c:	02 2e       	jc	$-1018   	;abs 0xff22
 31e:	00 3f       	jmp	$-510    	;abs 0x120
 320:	0c 03       	mova	#2,	r12	;r3 As==10
 322:	0e 3a       	jl	$-994    	;abs 0xff40
 324:	0b 3b       	jl	$-488    	;abs 0x13c
 326:	0b 27       	jz	$-488    	;abs 0x13e
 328:	0c 20       	jnz	$+26     	;abs 0x342
 32a:	0b 00       	mova	@r0,	r11	
 32c:	00 03       	bra	#2		;r3 As==10
 32e:	2e 00 3f 0c 	mova	&0x00c3f,r14	
 332:	03 0e       	.word	0x0e03;	????	Illegal as address instr
 334:	3a 0b 3b 0b 	mova	2875(r11),r10	;0x0b3b(r11)
 338:	27 0c 49 13 	mova	&0xc1349,r7	
 33c:	20 0b 00 00 	bra	&0xb0000	
 340:	04 24       	jz	$+10     	;abs 0x34a
 342:	00 0b       	bra	@r11		
 344:	0b 3e       	jmp	$-1000   	;abs 0xff5c
 346:	0b 03       	mova	#2,	r11	;r3 As==10
 348:	0e 00       	mova	@r0,	r14	
 34a:	00 05       	bra	@r5		
 34c:	2e 01 3f 0c 	mova	&0x10c3f,r14	
 350:	03 0e       	.word	0x0e03;	????	Illegal as address instr
 352:	3a 0b 3b 0b 	mova	2875(r11),r10	;0x0b3b(r11)
 356:	27 0c 49 13 	mova	&0xc1349,r7	
 35a:	20 0b 01 13 	bra	&0xb1301	
 35e:	00 00       	bra	@r0		
 360:	06 05       	mova	@r5,	r6	
 362:	00 03       	bra	#2		;r3 As==10
 364:	08 3a       	jl	$-1006   	;abs 0xff76
 366:	0b 3b       	jl	$-488    	;abs 0x17e
 368:	0b 49       	mov	r9,	r11	
 36a:	13 00       	.word	0x0013;	????	Illegal as address instr
 36c:	00 07       	bra	@r7		
 36e:	2e 01 3f 0c 	mova	&0x10c3f,r14	
 372:	03 0e       	.word	0x0e03;	????	Illegal as address instr
 374:	3a 0b 3b 0b 	mova	2875(r11),r10	;0x0b3b(r11)
 378:	27 0c 20 0b 	mova	&0xc0b20,r7	
 37c:	01 13       	reti			;return from interupt
 37e:	00 00       	bra	@r0		
 380:	08 05       	mova	@r5,	r8	
 382:	00 03       	bra	#2		;r3 As==10
 384:	0e 3a       	jl	$-994    	;abs 0xffa2
 386:	0b 3b       	jl	$-488    	;abs 0x19e
 388:	0b 49       	mov	r9,	r11	
 38a:	13 00       	.word	0x0013;	????	Illegal as address instr
 38c:	00 09       	bra	@r9		
 38e:	2e 01 3f 0c 	mova	&0x10c3f,r14	
 392:	03 0e       	.word	0x0e03;	????	Illegal as address instr
 394:	3a 0b 3b 0b 	mova	2875(r11),r10	;0x0b3b(r11)
 398:	27 0c 11 01 	mova	&0xc0111,r7	
 39c:	12 01       	mova	@r1+,	r2	
 39e:	40 0a       	rlam.a	#3,	r0	
 3a0:	01 13       	reti			;return from interupt
 3a2:	00 00       	bra	@r0		
 3a4:	0a 05       	mova	@r5,	r10	
 3a6:	00 03       	bra	#2		;r3 As==10
 3a8:	0e 3a       	jl	$-994    	;abs 0xffc6
 3aa:	0b 3b       	jl	$-488    	;abs 0x1c2
 3ac:	0b 49       	mov	r9,	r11	
 3ae:	13 02       	.word	0x0213;	????	Illegal as address instr
 3b0:	06 00       	mova	@r0,	r6	
 3b2:	00 0b       	bra	@r11		
 3b4:	2e 01 31 13 	mova	&0x11331,r14	
 3b8:	11 01       	mova	@r1+,	r1	
 3ba:	12 01       	mova	@r1+,	r2	
 3bc:	40 0a       	rlam.a	#3,	r0	
 3be:	01 13       	reti			;return from interupt
 3c0:	00 00       	bra	@r0		
 3c2:	0c 05       	mova	@r5,	r12	
 3c4:	00 31       	jn	$+514    	;abs 0x5c6
 3c6:	13 02       	.word	0x0213;	????	Illegal as address instr
 3c8:	06 00       	mova	@r0,	r6	
 3ca:	00 0d       	bra	@r13		
 3cc:	2e 00 31 13 	mova	&0x01331,r14	
 3d0:	11 01       	mova	@r1+,	r1	
 3d2:	12 01       	mova	@r1+,	r2	
 3d4:	40 0a       	rlam.a	#3,	r0	
 3d6:	00 00       	bra	@r0		
 3d8:	0e 2e       	jc	$-994    	;abs 0xfff6
 3da:	00 3f       	jmp	$-510    	;abs 0x1dc
 3dc:	0c 03       	mova	#2,	r12	;r3 As==10
 3de:	0e 3a       	jl	$-994    	;abs 0xfffc
 3e0:	0b 3b       	jl	$-488    	;abs 0x1f8
 3e2:	0b 27       	jz	$-488    	;abs 0x1fa
 3e4:	0c 11       	rra	r12		
 3e6:	01 12       	push	r1		
 3e8:	01 40       	mov	r0,	r1	
 3ea:	0a 00       	mova	@r0,	r10	
 3ec:	00 0f       	bra	@r15		
 3ee:	2e 01 3f 0c 	mova	&0x10c3f,r14	
 3f2:	03 0e       	.word	0x0e03;	????	Illegal as address instr
 3f4:	3a 0b 3b 0b 	mova	2875(r11),r10	;0x0b3b(r11)
 3f8:	27 0c 49 13 	mova	&0xc1349,r7	
 3fc:	11 01       	mova	@r1+,	r1	
 3fe:	12 01       	mova	@r1+,	r2	
 400:	40 0a       	rlam.a	#3,	r0	
 402:	01 13       	reti			;return from interupt
 404:	00 00       	bra	@r0		
 406:	10 34       	jge	$+34     	;abs 0x428
 408:	00 03       	bra	#2		;r3 As==10
 40a:	0e 3a       	jl	$-994    	;abs 0x28
 40c:	0b 3b       	jl	$-488    	;abs 0x224
 40e:	0b 49       	mov	r9,	r11	
 410:	13 02       	.word	0x0213;	????	Illegal as address instr
 412:	06 00       	mova	@r0,	r6	
 414:	00 11       	rra	r0		
 416:	1d 00       	mova	#0x00000,r13	
 418:	31 13       	reti			;return from interupt
 41a:	11 01       	mova	@r1+,	r1	
 41c:	12 01       	mova	@r1+,	r2	
 41e:	58 0b       	rrum	#3,	r8	
 420:	59 0b       	rrum	#3,	r9	
 422:	00 00       	bra	@r0		
 424:	12 05       	mova	@r5+,	r2	
 426:	00 03       	bra	#2		;r3 As==10
 428:	08 3a       	jl	$-1006   	;abs 0x3a
 42a:	0b 3b       	jl	$-488    	;abs 0x242
 42c:	0b 49       	mov	r9,	r11	
 42e:	13 02       	.word	0x0213;	????	Illegal as address instr
 430:	06 00       	mova	@r0,	r6	
 432:	00 13       	reti			
 434:	1d 01       	mova	@r1+,	r13	
 436:	31 13       	reti			;return from interupt
 438:	11 01       	mova	@r1+,	r1	
 43a:	12 01       	mova	@r1+,	r2	
 43c:	58 0b       	rrum	#3,	r8	
 43e:	59 0b       	rrum	#3,	r9	
 440:	01 13       	reti			;return from interupt
 442:	00 00       	bra	@r0		
 444:	14 2e       	jc	$-982    	;abs 0x6e
 446:	01 3f       	jmp	$-508    	;abs 0x24a
 448:	0c 03       	mova	#2,	r12	;r3 As==10
 44a:	0e 3a       	jl	$-994    	;abs 0x68
 44c:	0b 3b       	jl	$-488    	;abs 0x264
 44e:	0b 27       	jz	$-488    	;abs 0x266
 450:	0c 49       	mov	r9,	r12	
 452:	13 11       	rra	#1		;r3 As==01
 454:	01 12       	push	r1		
 456:	01 40       	mov	r0,	r1	
 458:	06 01       	mova	@r1,	r6	
 45a:	13 00       	.word	0x0013;	????	Illegal as address instr
 45c:	00 15       	pushm	#1,	r0	
 45e:	05 00       	mova	@r0,	r5	
 460:	03 08       	.word	0x0803;	????	Illegal as address instr
 462:	3a 0b 3b 0b 	mova	2875(r11),r10	;0x0b3b(r11)
 466:	49 13       	calla	r9		
 468:	02 0a       	mova	@r10,	r2	
 46a:	00 00       	bra	@r0		
 46c:	16 34       	jge	$+46     	;abs 0x49a
 46e:	00 03       	bra	#2		;r3 As==10
 470:	08 3a       	jl	$-1006   	;abs 0x82
 472:	0b 3b       	jl	$-488    	;abs 0x28a
 474:	0b 49       	mov	r9,	r11	
 476:	13 02       	.word	0x0213;	????	Illegal as address instr
 478:	06 00       	mova	@r0,	r6	
 47a:	00 17       	popm	#1,	r0	
 47c:	0f 00       	mova	@r0,	r15	
 47e:	0b 0b       	mova	@r11,	r11	
 480:	49 13       	calla	r9		
 482:	00 00       	bra	@r0		
 484:	18 05       	mova	@r5+,	r8	
 486:	00 31       	jn	$+514    	;abs 0x688
 488:	13 02       	.word	0x0213;	????	Illegal as address instr
 48a:	0a 00       	mova	@r0,	r10	
 48c:	00 19       	.word	0x1900;	????	
 48e:	1d 01       	mova	@r1+,	r13	
 490:	31 13       	reti			;return from interupt
 492:	11 01       	mova	@r1+,	r1	
 494:	12 01       	mova	@r1+,	r2	
 496:	58 0b       	rrum	#3,	r8	
 498:	59 05       	rram	#2,	r9	
 49a:	01 13       	reti			;return from interupt
 49c:	00 00       	bra	@r0		
 49e:	1a 1d       	.word	0x1d1a;	????	
 4a0:	00 31       	jn	$+514    	;abs 0x6a2
 4a2:	13 11       	rra	#1		;r3 As==01
 4a4:	01 12       	push	r1		
 4a6:	01 58       	add	r8,	r1	
 4a8:	0b 59       	add	r9,	r11	
 4aa:	05 00       	mova	@r0,	r5	
 4ac:	00 1b       	.word	0x1b00;	????	
 4ae:	2e 01 3f 0c 	mova	&0x10c3f,r14	
 4b2:	03 0e       	.word	0x0e03;	????	Illegal as address instr
 4b4:	3a 0b 3b 05 	mova	1339(r11),r10	;0x053b(r11)
 4b8:	27 0c 49 13 	mova	&0xc1349,r7	
 4bc:	11 01       	mova	@r1+,	r1	
 4be:	12 01       	mova	@r1+,	r2	
 4c0:	40 06       	rlam.a	#2,	r0	
 4c2:	01 13       	reti			;return from interupt
 4c4:	00 00       	bra	@r0		
 4c6:	1c 05       	mova	@r5+,	r12	
 4c8:	00 03       	bra	#2		;r3 As==10
 4ca:	08 3a       	jl	$-1006   	;abs 0xdc
 4cc:	0b 3b       	jl	$-488    	;abs 0x2e4
 4ce:	05 49       	mov	r9,	r5	
 4d0:	13 02       	.word	0x0213;	????	Illegal as address instr
 4d2:	06 00       	mova	@r0,	r6	
 4d4:	00 1d       	.word	0x1d00;	????	
 4d6:	34 00 03 0e 	mova	0x0e03,	r4	;PC rel. 0x012db
 4da:	3a 0b 3b 05 	mova	1339(r11),r10	;0x053b(r11)
 4de:	49 13       	calla	r9		
 4e0:	02 06       	mova	@r6,	r2	
 4e2:	00 00       	bra	@r0		
 4e4:	1e 34       	jge	$+62     	;abs 0x522
 4e6:	00 03       	bra	#2		;r3 As==10
 4e8:	08 3a       	jl	$-1006   	;abs 0xfa
 4ea:	0b 3b       	jl	$-488    	;abs 0x302
 4ec:	05 49       	mov	r9,	r5	
 4ee:	13 02       	.word	0x0213;	????	Illegal as address instr
 4f0:	06 00       	mova	@r0,	r6	
 4f2:	00 1f       	.word	0x1f00;	????	
 4f4:	2e 01 3f 0c 	mova	&0x10c3f,r14	
 4f8:	03 0e       	.word	0x0e03;	????	Illegal as address instr
 4fa:	3a 0b 3b 05 	mova	1339(r11),r10	;0x053b(r11)
 4fe:	27 0c 49 13 	mova	&0xc1349,r7	
 502:	11 01       	mova	@r1+,	r1	
 504:	12 01       	mova	@r1+,	r2	
 506:	40 0a       	rlam.a	#3,	r0	
 508:	01 13       	reti			;return from interupt
 50a:	00 00       	bra	@r0		
 50c:	20 05 00 03 	bra	&0x50300	
 510:	0e 3a       	jl	$-994    	;abs 0x12e
 512:	0b 3b       	jl	$-488    	;abs 0x32a
 514:	05 49       	mov	r9,	r5	
 516:	13 02       	.word	0x0213;	????	Illegal as address instr
 518:	06 00       	mova	@r0,	r6	
 51a:	00 21       	jnz	$+514    	;abs 0x71c
 51c:	1d 01       	mova	@r1+,	r13	
 51e:	31 13       	reti			;return from interupt
 520:	11 01       	mova	@r1+,	r1	
 522:	12 01       	mova	@r1+,	r2	
 524:	58 0b       	rrum	#3,	r8	
 526:	59 05       	rram	#2,	r9	
 528:	00 00       	bra	@r0		
 52a:	22 34       	jge	$+70     	;abs 0x570
 52c:	00 03       	bra	#2		;r3 As==10
 52e:	0e 3a       	jl	$-994    	;abs 0x14c
 530:	0b 3b       	jl	$-488    	;abs 0x348
 532:	0b 87       	sub	r7,	r11	
 534:	40 0e       	rlam.a	#4,	r0	
 536:	49 13       	calla	r9		
 538:	3f 0c 3c 0c 	mova	3132(r12),r15	;0x0c3c(r12)
 53c:	00 00       	bra	@r0		
 53e:	23 35       	jge	$+584    	;abs 0x786
 540:	00 49       	br	r9		
 542:	13 00       	.word	0x0013;	????	Illegal as address instr
 544:	00 24       	jz	$+2      	;abs 0x546
 546:	34 00 03 0e 	mova	0x0e03,	r4	;PC rel. 0x0134b
 54a:	3a 0b 3b 05 	mova	1339(r11),r10	;0x053b(r11)
 54e:	87 40 0e 49 	mov	r0,	18702(r7);0x490e(r7)
 552:	13 3f       	jmp	$-472    	;abs 0x37a
 554:	0c 3c       	jmp	$+26     	;abs 0x56e
 556:	0c 00       	mova	@r0,	r12	
 558:	00 25       	jz	$+514    	;abs 0x75a
 55a:	26 00 49 13 	mova	&0x01349,r6	
 55e:	00 00       	bra	@r0		
 560:	00 01       	bra	@r1		
 562:	11 01       	mova	@r1+,	r1	
 564:	25 0e 13 0b 	mova	&0xe0b13,r5	
 568:	03 0e       	.word	0x0e03;	????	Illegal as address instr
 56a:	1b 0e       	mova	@r14+,	r11	
 56c:	11 01       	mova	@r1+,	r1	
 56e:	12 01       	mova	@r1+,	r2	
 570:	10 06       	bra	@r6+		
 572:	00 00       	bra	@r0		
 574:	02 2e       	jc	$-1018   	;abs 0x17a
 576:	00 3f       	jmp	$-510    	;abs 0x378
 578:	0c 03       	mova	#2,	r12	;r3 As==10
 57a:	0e 3a       	jl	$-994    	;abs 0x198
 57c:	0b 3b       	jl	$-488    	;abs 0x394
 57e:	0b 27       	jz	$-488    	;abs 0x396
 580:	0c 11       	rra	r12		
 582:	01 12       	push	r1		
 584:	01 40       	mov	r0,	r1	
 586:	0a 00       	mova	@r0,	r10	
 588:	00 03       	bra	#2		;r3 As==10
 58a:	2e 01 3f 0c 	mova	&0x10c3f,r14	
 58e:	03 0e       	.word	0x0e03;	????	Illegal as address instr
 590:	3a 0b 3b 0b 	mova	2875(r11),r10	;0x0b3b(r11)
 594:	27 0c 11 01 	mova	&0xc0111,r7	
 598:	12 01       	mova	@r1+,	r2	
 59a:	40 06       	rlam.a	#2,	r0	
 59c:	01 13       	reti			;return from interupt
 59e:	00 00       	bra	@r0		
 5a0:	04 05       	mova	@r5,	r4	
 5a2:	00 03       	bra	#2		;r3 As==10
 5a4:	08 3a       	jl	$-1006   	;abs 0x1b6
 5a6:	0b 3b       	jl	$-488    	;abs 0x3be
 5a8:	0b 49       	mov	r9,	r11	
 5aa:	13 02       	.word	0x0213;	????	Illegal as address instr
 5ac:	06 00       	mova	@r0,	r6	
 5ae:	00 05       	bra	@r5		
 5b0:	34 00 03 08 	mova	0x0803,	r4	;PC rel. 0x00db5
 5b4:	3a 0b 3b 0b 	mova	2875(r11),r10	;0x0b3b(r11)
 5b8:	49 13       	calla	r9		
 5ba:	02 06       	mova	@r6,	r2	
 5bc:	00 00       	bra	@r0		
 5be:	06 24       	jz	$+14     	;abs 0x5cc
 5c0:	00 0b       	bra	@r11		
 5c2:	0b 3e       	jmp	$-1000   	;abs 0x1da
 5c4:	0b 03       	mova	#2,	r11	;r3 As==10
 5c6:	08 00       	mova	@r0,	r8	
 5c8:	00 07       	bra	@r7		
 5ca:	2e 01 3f 0c 	mova	&0x10c3f,r14	
 5ce:	03 0e       	.word	0x0e03;	????	Illegal as address instr
 5d0:	3a 0b 3b 0b 	mova	2875(r11),r10	;0x0b3b(r11)
 5d4:	27 0c 11 01 	mova	&0xc0111,r7	
 5d8:	12 01       	mova	@r1+,	r2	
 5da:	40 0a       	rlam.a	#3,	r0	
 5dc:	01 13       	reti			;return from interupt
 5de:	00 00       	bra	@r0		
 5e0:	08 34       	jge	$+18     	;abs 0x5f2
 5e2:	00 03       	bra	#2		;r3 As==10
 5e4:	0e 3a       	jl	$-994    	;abs 0x202
 5e6:	0b 3b       	jl	$-488    	;abs 0x3fe
 5e8:	0b 87       	sub	r7,	r11	
 5ea:	40 0e       	rlam.a	#4,	r0	
 5ec:	49 13       	calla	r9		
 5ee:	3f 0c 3c 0c 	mova	3132(r12),r15	;0x0c3c(r12)
 5f2:	00 00       	bra	@r0		
 5f4:	09 35       	jge	$+532    	;abs 0x808
 5f6:	00 49       	br	r9		
 5f8:	13 00       	.word	0x0013;	????	Illegal as address instr
 5fa:	00 0a       	bra	@r10		
 5fc:	24 00 0b 0b 	mova	&0x00b0b,r4	
 600:	3e 0b 03 0e 	mova	3587(r11),r14	;0x0e03(r11)
 604:	00 00       	bra	@r0		
 606:	0b 34       	jge	$+24     	;abs 0x61e
 608:	00 03       	bra	#2		;r3 As==10
 60a:	0e 3a       	jl	$-994    	;abs 0x228
 60c:	0b 3b       	jl	$-488    	;abs 0x424
 60e:	05 87       	sub	r7,	r5	
 610:	40 0e       	rlam.a	#4,	r0	
 612:	49 13       	calla	r9		
 614:	3f 0c 3c 0c 	mova	3132(r12),r15	;0x0c3c(r12)
 618:	00 00       	bra	@r0		
 61a:	0c 01       	mova	@r1,	r12	
 61c:	01 49       	mov	r9,	r1	
 61e:	13 01       	.word	0x0113;	????	Illegal as address instr
 620:	13 00       	.word	0x0013;	????	Illegal as address instr
 622:	00 0d       	bra	@r13		
 624:	21 00 49 13 	mova	&0x01349,r1	
 628:	2f 0b 00 00 	mova	&0xb0000,r15	
 62c:	0e 34       	jge	$+30     	;abs 0x64a
 62e:	00 03       	bra	#2		;r3 As==10
 630:	0e 3a       	jl	$-994    	;abs 0x24e
 632:	0b 3b       	jl	$-488    	;abs 0x44a
 634:	0b 49       	mov	r9,	r11	
 636:	13 3f       	jmp	$-472    	;abs 0x45e
 638:	0c 3c       	jmp	$+26     	;abs 0x652
 63a:	0c 00       	mova	@r0,	r12	
 63c:	00 0f       	bra	@r15		
 63e:	34 00 03 0e 	mova	0x0e03,	r4	;PC rel. 0x01443
 642:	3a 0b 3b 0b 	mova	2875(r11),r10	;0x0b3b(r11)
 646:	49 13       	calla	r9		
 648:	3f 0c 02 0a 	mova	2562(r12),r15	;0x0a02(r12)
 64c:	00 00       	bra	@r0		
 64e:	00 01       	bra	@r1		
 650:	11 01       	mova	@r1+,	r1	
 652:	25 0e 13 0b 	mova	&0xe0b13,r5	
 656:	03 0e       	.word	0x0e03;	????	Illegal as address instr
 658:	1b 0e       	mova	@r14+,	r11	
 65a:	11 01       	mova	@r1+,	r1	
 65c:	12 01       	mova	@r1+,	r2	
 65e:	10 06       	bra	@r6+		
 660:	00 00       	bra	@r0		
 662:	02 2e       	jc	$-1018   	;abs 0x268
 664:	00 3f       	jmp	$-510    	;abs 0x466
 666:	0c 03       	mova	#2,	r12	;r3 As==10
 668:	0e 3a       	jl	$-994    	;abs 0x286
 66a:	0b 3b       	jl	$-488    	;abs 0x482
 66c:	0b 27       	jz	$-488    	;abs 0x484
 66e:	0c 11       	rra	r12		
 670:	01 12       	push	r1		
 672:	01 40       	mov	r0,	r1	
 674:	0a 00       	mova	@r0,	r10	
 676:	00 03       	bra	#2		;r3 As==10
 678:	2e 01 3f 0c 	mova	&0x10c3f,r14	
 67c:	03 0e       	.word	0x0e03;	????	Illegal as address instr
 67e:	3a 0b 3b 0b 	mova	2875(r11),r10	;0x0b3b(r11)
 682:	27 0c 49 13 	mova	&0xc1349,r7	
 686:	11 01       	mova	@r1+,	r1	
 688:	12 01       	mova	@r1+,	r2	
 68a:	40 0a       	rlam.a	#3,	r0	
 68c:	01 13       	reti			;return from interupt
 68e:	00 00       	bra	@r0		
 690:	04 05       	mova	@r5,	r4	
 692:	00 03       	bra	#2		;r3 As==10
 694:	08 3a       	jl	$-1006   	;abs 0x2a6
 696:	0b 3b       	jl	$-488    	;abs 0x4ae
 698:	0b 49       	mov	r9,	r11	
 69a:	13 02       	.word	0x0213;	????	Illegal as address instr
 69c:	06 00       	mova	@r0,	r6	
 69e:	00 05       	bra	@r5		
 6a0:	24 00 0b 0b 	mova	&0x00b0b,r4	
 6a4:	3e 0b 03 0e 	mova	3587(r11),r14	;0x0e03(r11)
 6a8:	00 00       	bra	@r0		
 6aa:	06 34       	jge	$+14     	;abs 0x6b8
 6ac:	00 03       	bra	#2		;r3 As==10
 6ae:	0e 3a       	jl	$-994    	;abs 0x2cc
 6b0:	0b 3b       	jl	$-488    	;abs 0x4c8
 6b2:	0b 87       	sub	r7,	r11	
 6b4:	40 0e       	rlam.a	#4,	r0	
 6b6:	49 13       	calla	r9		
 6b8:	3f 0c 3c 0c 	mova	3132(r12),r15	;0x0c3c(r12)
 6bc:	00 00       	bra	@r0		
 6be:	07 35       	jge	$+528    	;abs 0x8ce
 6c0:	00 49       	br	r9		
 6c2:	13 00       	.word	0x0013;	????	Illegal as address instr
 6c4:	00 08       	bra	@r8		
 6c6:	34 00 03 0e 	mova	0x0e03,	r4	;PC rel. 0x014cb
 6ca:	3a 0b 3b 05 	mova	1339(r11),r10	;0x053b(r11)
 6ce:	87 40 0e 49 	mov	r0,	18702(r7);0x490e(r7)
 6d2:	13 3f       	jmp	$-472    	;abs 0x4fa
 6d4:	0c 3c       	jmp	$+26     	;abs 0x6ee
 6d6:	0c 00       	mova	@r0,	r12	
 6d8:	00 00       	bra	@r0		
 6da:	01 11       	rra	r1		
 6dc:	01 25       	jz	$+516    	;abs 0x8e0
 6de:	0e 13       	reti			;return from interupt
 6e0:	0b 03       	mova	#2,	r11	;r3 As==10
 6e2:	0e 1b 0e 11 	.rpt	#14
				rrax	r14		
 6e6:	01 12       	push	r1		
 6e8:	01 10       	rrc	r1		
 6ea:	06 00       	mova	@r0,	r6	
 6ec:	00 02       	bra	#4		;r2 As==10
 6ee:	24 00 0b 0b 	mova	&0x00b0b,r4	
 6f2:	3e 0b 03 0e 	mova	3587(r11),r14	;0x0e03(r11)
 6f6:	00 00       	bra	@r0		
 6f8:	03 24       	jz	$+8      	;abs 0x700
 6fa:	00 0b       	bra	@r11		
 6fc:	0b 3e       	jmp	$-1000   	;abs 0x314
 6fe:	0b 03       	mova	#2,	r11	;r3 As==10
 700:	08 00       	mova	@r0,	r8	
 702:	00 04       	bra	@r4		
 704:	0f 00       	mova	@r0,	r15	
 706:	0b 0b       	mova	@r11,	r11	
 708:	49 13       	calla	r9		
 70a:	00 00       	bra	@r0		
 70c:	05 26       	jz	$-1012   	;abs 0x318
 70e:	00 49       	br	r9		
 710:	13 00       	.word	0x0013;	????	Illegal as address instr
 712:	00 06       	bra	@r6		
 714:	16 00       	mova	#0x00000,r6	
 716:	03 0e       	.word	0x0e03;	????	Illegal as address instr
 718:	3a 0b 3b 0b 	mova	2875(r11),r10	;0x0b3b(r11)
 71c:	49 13       	calla	r9		
 71e:	00 00       	bra	@r0		
 720:	07 0f       	mova	@r15,	r7	
 722:	00 0b       	bra	@r11		
 724:	0b 03       	mova	#2,	r11	;r3 As==10
 726:	0e 00       	mova	@r0,	r14	
 728:	00 08       	bra	@r8		
 72a:	2e 01 3f 0c 	mova	&0x10c3f,r14	
 72e:	03 0e       	.word	0x0e03;	????	Illegal as address instr
 730:	3a 0b 3b 0b 	mova	2875(r11),r10	;0x0b3b(r11)
 734:	27 0c 49 13 	mova	&0xc1349,r7	
 738:	11 01       	mova	@r1+,	r1	
 73a:	12 01       	mova	@r1+,	r2	
 73c:	40 0a       	rlam.a	#3,	r0	
 73e:	01 13       	reti			;return from interupt
 740:	00 00       	bra	@r0		
 742:	09 05       	mova	@r5,	r9	
 744:	00 03       	bra	#2		;r3 As==10
 746:	08 3a       	jl	$-1006   	;abs 0x358
 748:	0b 3b       	jl	$-488    	;abs 0x560
 74a:	0b 49       	mov	r9,	r11	
 74c:	13 02       	.word	0x0213;	????	Illegal as address instr
 74e:	0a 00       	mova	@r0,	r10	
 750:	00 0a       	bra	@r10		
 752:	18 00       	mova	#0x00000,r8	
 754:	00 00       	bra	@r0		
 756:	0b 34       	jge	$+24     	;abs 0x76e
 758:	00 03       	bra	#2		;r3 As==10
 75a:	0e 3a       	jl	$-994    	;abs 0x378
 75c:	0b 3b       	jl	$-488    	;abs 0x574
 75e:	0b 49       	mov	r9,	r11	
 760:	13 02       	.word	0x0213;	????	Illegal as address instr
 762:	0a 00       	mova	@r0,	r10	
 764:	00 0c       	bra	@r12		
 766:	34 00 03 08 	mova	0x0803,	r4	;PC rel. 0x00f6b
 76a:	3a 0b 3b 0b 	mova	2875(r11),r10	;0x0b3b(r11)
 76e:	49 13       	calla	r9		
 770:	00 00       	bra	@r0		
 772:	0d 2e       	jc	$-996    	;abs 0x38e
 774:	01 3f       	jmp	$-508    	;abs 0x578
 776:	0c 03       	mova	#2,	r12	;r3 As==10
 778:	0e 3a       	jl	$-994    	;abs 0x396
 77a:	0b 3b       	jl	$-488    	;abs 0x592
 77c:	0b 27       	jz	$-488    	;abs 0x594
 77e:	0c 49       	mov	r9,	r12	
 780:	13 11       	rra	#1		;r3 As==01
 782:	01 12       	push	r1		
 784:	01 40       	mov	r0,	r1	
 786:	0a 00       	mova	@r0,	r10	
 788:	00 0e       	bra	@r14		
 78a:	05 00       	mova	@r0,	r5	
 78c:	03 08       	.word	0x0803;	????	Illegal as address instr
 78e:	3a 0b 3b 0b 	mova	2875(r11),r10	;0x0b3b(r11)
 792:	49 13       	calla	r9		
 794:	02 06       	mova	@r6,	r2	
 796:	00 00       	bra	@r0		
 798:	0f 05       	mova	@r5,	r15	
 79a:	00 03       	bra	#2		;r3 As==10
 79c:	0e 3a       	jl	$-994    	;abs 0x3ba
 79e:	0b 3b       	jl	$-488    	;abs 0x5b6
 7a0:	0b 49       	mov	r9,	r11	
 7a2:	13 02       	.word	0x0213;	????	Illegal as address instr
 7a4:	06 00       	mova	@r0,	r6	
 7a6:	00 00       	bra	@r0		
 7a8:	01 11       	rra	r1		
 7aa:	01 25       	jz	$+516    	;abs 0x9ae
 7ac:	0e 13       	reti			;return from interupt
 7ae:	0b 03       	mova	#2,	r11	;r3 As==10
 7b0:	0e 1b 0e 11 	.rpt	#14
				rrax	r14		
 7b4:	01 12       	push	r1		
 7b6:	01 10       	rrc	r1		
 7b8:	06 00       	mova	@r0,	r6	
 7ba:	00 02       	bra	#4		;r2 As==10
 7bc:	24 00 0b 0b 	mova	&0x00b0b,r4	
 7c0:	3e 0b 03 0e 	mova	3587(r11),r14	;0x0e03(r11)
 7c4:	00 00       	bra	@r0		
 7c6:	03 24       	jz	$+8      	;abs 0x7ce
 7c8:	00 0b       	bra	@r11		
 7ca:	0b 3e       	jmp	$-1000   	;abs 0x3e2
 7cc:	0b 03       	mova	#2,	r11	;r3 As==10
 7ce:	08 00       	mova	@r0,	r8	
 7d0:	00 04       	bra	@r4		
 7d2:	16 00       	mova	#0x00000,r6	
 7d4:	03 0e       	.word	0x0e03;	????	Illegal as address instr
 7d6:	3a 0b 3b 0b 	mova	2875(r11),r10	;0x0b3b(r11)
 7da:	49 13       	calla	r9		
 7dc:	00 00       	bra	@r0		
 7de:	05 0f       	mova	@r15,	r5	
 7e0:	00 0b       	bra	@r11		
 7e2:	0b 49       	mov	r9,	r11	
 7e4:	13 00       	.word	0x0013;	????	Illegal as address instr
 7e6:	00 06       	bra	@r6		
 7e8:	26 00 49 13 	mova	&0x01349,r6	
 7ec:	00 00       	bra	@r0		
 7ee:	07 0f       	mova	@r15,	r7	
 7f0:	00 0b       	bra	@r11		
 7f2:	0b 03       	mova	#2,	r11	;r3 As==10
 7f4:	0e 00       	mova	@r0,	r14	
 7f6:	00 08       	bra	@r8		
 7f8:	13 01       	.word	0x0113;	????	Illegal as address instr
 7fa:	0b 0b       	mova	@r11,	r11	
 7fc:	3a 0b 3b 0b 	mova	2875(r11),r10	;0x0b3b(r11)
 800:	01 13       	reti			;return from interupt
 802:	00 00       	bra	@r0		
 804:	09 0d       	mova	@r13,	r9	
 806:	00 03       	bra	#2		;r3 As==10
 808:	0e 3a       	jl	$-994    	;abs 0x426
 80a:	0b 3b       	jl	$-488    	;abs 0x622
 80c:	0b 49       	mov	r9,	r11	
 80e:	13 0b       	.word	0x0b13;	????	Illegal as address instr
 810:	0b 0d       	mova	@r13,	r11	
 812:	0b 0c       	mova	@r12,	r11	
 814:	0b 38       	jl	$+24     	;abs 0x82c
 816:	0a 00       	mova	@r0,	r10	
 818:	00 0a       	bra	@r10		
 81a:	0d 00       	mova	@r0,	r13	
 81c:	03 0e       	.word	0x0e03;	????	Illegal as address instr
 81e:	3a 0b 3b 0b 	mova	2875(r11),r10	;0x0b3b(r11)
 822:	49 13       	calla	r9		
 824:	38 0a 00 00 	mova	0(r10),	r8	;0x0000(r10)
 828:	0b 2e       	jc	$-1000   	;abs 0x440
 82a:	01 03       	mova	#2,	r1	;r3 As==10
 82c:	0e 3a       	jl	$-994    	;abs 0x44a
 82e:	0b 3b       	jl	$-488    	;abs 0x646
 830:	0b 27       	jz	$-488    	;abs 0x648
 832:	0c 49       	mov	r9,	r12	
 834:	13 20       	jnz	$+40     	;abs 0x85c
 836:	0b 01       	mova	@r1,	r11	
 838:	13 00       	.word	0x0013;	????	Illegal as address instr
 83a:	00 0c       	bra	@r12		
 83c:	05 00       	mova	@r0,	r5	
 83e:	03 0e       	.word	0x0e03;	????	Illegal as address instr
 840:	3a 0b 3b 0b 	mova	2875(r11),r10	;0x0b3b(r11)
 844:	49 13       	calla	r9		
 846:	00 00       	bra	@r0		
 848:	0d 34       	jge	$+28     	;abs 0x864
 84a:	00 03       	bra	#2		;r3 As==10
 84c:	08 3a       	jl	$-1006   	;abs 0x45e
 84e:	0b 3b       	jl	$-488    	;abs 0x666
 850:	0b 49       	mov	r9,	r11	
 852:	13 00       	.word	0x0013;	????	Illegal as address instr
 854:	00 0e       	bra	@r14		
 856:	2e 01 03 0e 	mova	&0x10e03,r14	
 85a:	3a 0b 3b 0b 	mova	2875(r11),r10	;0x0b3b(r11)
 85e:	27 0c 49 13 	mova	&0xc1349,r7	
 862:	11 01       	mova	@r1+,	r1	
 864:	12 01       	mova	@r1+,	r2	
 866:	40 06       	rlam.a	#2,	r0	
 868:	01 13       	reti			;return from interupt
 86a:	00 00       	bra	@r0		
 86c:	0f 05       	mova	@r5,	r15	
 86e:	00 03       	bra	#2		;r3 As==10
 870:	0e 3a       	jl	$-994    	;abs 0x48e
 872:	0b 3b       	jl	$-488    	;abs 0x68a
 874:	0b 49       	mov	r9,	r11	
 876:	13 02       	.word	0x0213;	????	Illegal as address instr
 878:	06 00       	mova	@r0,	r6	
 87a:	00 10       	rrc	r0		
 87c:	34 00 03 0e 	mova	0x0e03,	r4	;PC rel. 0x01681
 880:	3a 0b 3b 0b 	mova	2875(r11),r10	;0x0b3b(r11)
 884:	49 13       	calla	r9		
 886:	02 06       	mova	@r6,	r2	
 888:	00 00       	bra	@r0		
 88a:	11 34       	jge	$+36     	;abs 0x8ae
 88c:	00 03       	bra	#2		;r3 As==10
 88e:	0e 3a       	jl	$-994    	;abs 0x4ac
 890:	0b 3b       	jl	$-488    	;abs 0x6a8
 892:	0b 49       	mov	r9,	r11	
 894:	13 02       	.word	0x0213;	????	Illegal as address instr
 896:	0a 00       	mova	@r0,	r10	
 898:	00 12       	push	r0		
 89a:	1d 01       	mova	@r1+,	r13	
 89c:	31 13       	reti			;return from interupt
 89e:	11 01       	mova	@r1+,	r1	
 8a0:	12 01       	mova	@r1+,	r2	
 8a2:	58 0b       	rrum	#3,	r8	
 8a4:	59 0b       	rrum	#3,	r9	
 8a6:	01 13       	reti			;return from interupt
 8a8:	00 00       	bra	@r0		
 8aa:	13 05       	.word	0x0513;	????	Illegal as address instr
 8ac:	00 31       	jn	$+514    	;abs 0xaae
 8ae:	13 00       	.word	0x0013;	????	Illegal as address instr
 8b0:	00 14       	pushm.a	#1,	r0	
 8b2:	05 00       	mova	@r0,	r5	
 8b4:	31 13       	reti			;return from interupt
 8b6:	02 06       	mova	@r6,	r2	
 8b8:	00 00       	bra	@r0		
 8ba:	15 0b       	mova	@r11+,	r5	
 8bc:	01 11       	rra	r1		
 8be:	01 12       	push	r1		
 8c0:	01 00       	mova	@r0,	r1	
 8c2:	00 16       	popm.a	#1,	r0	
 8c4:	34 00 31 13 	mova	0x1331,	r4	;PC rel. 0x01bf7
 8c8:	02 06       	mova	@r6,	r2	
 8ca:	00 00       	bra	@r0		
 8cc:	17 0b       	mova	@r11+,	r7	
 8ce:	01 55       	add	r5,	r1	
 8d0:	06 00       	mova	@r0,	r6	
 8d2:	00 18       	.word	0x1800;	????	
 8d4:	34 00 03 08 	mova	0x0803,	r4	;PC rel. 0x010d9
 8d8:	3a 0b 3b 0b 	mova	2875(r11),r10	;0x0b3b(r11)
 8dc:	49 13       	calla	r9		
 8de:	02 06       	mova	@r6,	r2	
 8e0:	00 00       	bra	@r0		
 8e2:	19 15       	pushm	#2,	r9	
 8e4:	01 27       	jz	$-508    	;abs 0x6e8
 8e6:	0c 49       	mov	r9,	r12	
 8e8:	13 01       	.word	0x0113;	????	Illegal as address instr
 8ea:	13 00       	.word	0x0013;	????	Illegal as address instr
 8ec:	00 1a       	.word	0x1a00;	????	
 8ee:	05 00       	mova	@r0,	r5	
 8f0:	49 13       	calla	r9		
 8f2:	00 00       	bra	@r0		
 8f4:	1b 01       	mova	@r1+,	r11	
 8f6:	01 49       	mov	r9,	r1	
 8f8:	13 01       	.word	0x0113;	????	Illegal as address instr
 8fa:	13 00       	.word	0x0013;	????	Illegal as address instr
 8fc:	00 1c       	.word	0x1c00;	????	
 8fe:	21 00 49 13 	mova	&0x01349,r1	
 902:	2f 0b 00 00 	mova	&0xb0000,r15	
 906:	1d 2e       	jc	$-964    	;abs 0x542
 908:	01 3f       	jmp	$-508    	;abs 0x70c
 90a:	0c 03       	mova	#2,	r12	;r3 As==10
 90c:	0e 3a       	jl	$-994    	;abs 0x52a
 90e:	0b 3b       	jl	$-488    	;abs 0x726
 910:	0b 27       	jz	$-488    	;abs 0x728
 912:	0c 49       	mov	r9,	r12	
 914:	13 11       	rra	#1		;r3 As==01
 916:	01 12       	push	r1		
 918:	01 40       	mov	r0,	r1	
 91a:	06 01       	mova	@r1,	r6	
 91c:	13 00       	.word	0x0013;	????	Illegal as address instr
 91e:	00 1e       	.word	0x1e00;	????	
 920:	04 01       	mova	@r1,	r4	
 922:	0b 0b       	mova	@r11,	r11	
 924:	3a 0b 3b 0b 	mova	2875(r11),r10	;0x0b3b(r11)
 928:	01 13       	reti			;return from interupt
 92a:	00 00       	bra	@r0		
 92c:	1f 28       	jnc	$+64     	;abs 0x96c
 92e:	00 03       	bra	#2		;r3 As==10
 930:	0e 1c       	.word	0x1c0e;	????	
 932:	0d 00       	mova	@r0,	r13	
 934:	00 20       	jnz	$+2      	;abs 0x936
 936:	0a 00       	mova	@r0,	r10	
 938:	03 0e       	.word	0x0e03;	????	Illegal as address instr
 93a:	3a 0b 3b 05 	mova	1339(r11),r10	;0x053b(r11)
 93e:	11 01       	mova	@r1+,	r1	
 940:	00 00       	bra	@r0		
 942:	21 0b 01 11 	mova	&0xb1101,r1	
 946:	01 12       	push	r1		
 948:	01 01       	mova	@r1,	r1	
 94a:	13 00       	.word	0x0013;	????	Illegal as address instr
 94c:	00 22       	jnz	$-1022   	;abs 0x54e
 94e:	34 00 03 08 	mova	0x0803,	r4	;PC rel. 0x01153
 952:	3a 0b 3b 05 	mova	1339(r11),r10	;0x053b(r11)
 956:	49 13       	calla	r9		
 958:	02 06       	mova	@r6,	r2	
 95a:	00 00       	bra	@r0		
 95c:	23 34       	jge	$+72     	;abs 0x9a4
 95e:	00 03       	bra	#2		;r3 As==10
 960:	0e 3a       	jl	$-994    	;abs 0x57e
 962:	0b 3b       	jl	$-488    	;abs 0x77a
 964:	05 49       	mov	r9,	r5	
 966:	13 02       	.word	0x0213;	????	Illegal as address instr
 968:	06 00       	mova	@r0,	r6	
 96a:	00 24       	jz	$+2      	;abs 0x96c
 96c:	01 01       	mova	@r1,	r1	
 96e:	49 13       	calla	r9		
 970:	00 00       	bra	@r0		
	...

Disassembly of section .debug_line:

00000000 <.debug_line>:
       0:	48 04       	rrcm.a	#2,	r8	
       2:	00 00       	bra	@r0		
       4:	02 00       	mova	@r0,	r2	
       6:	a4 00 00 00 	adda	#0x00000,r4	
       a:	01 01       	mova	@r1,	r1	
       c:	f6 f5 0a 00 	and.b	@r5+,	10(r6)	;0x000a(r6)
      10:	01 01       	mova	@r1,	r1	
      12:	01 01       	mova	@r1,	r1	
      14:	00 00       	bra	@r0		
      16:	00 01       	bra	@r1		
      18:	63 3a       	jl	$-824    	;abs 0xfce0
      1a:	5c 6d 73 70 	addc.b	28787(r13),r12	;0x7073(r13)
      1e:	67 63       	addc.b	#2,	r7	;r3 As==10
      20:	63 5c       	.word	0x5c63;	????	Illegal as 2-op instr
      22:	62 69       	addc.b	@r9,	r2	
      24:	6e 5c       	add.b	@r12,	r14	
      26:	2e 2e       	jc	$-930    	;abs 0xfc84
      28:	2f 6c       	addc	@r12,	r15	
      2a:	69 62       	addc.b	#4,	r9	;r2 As==10
      2c:	2f 67       	addc	@r7,	r15	
      2e:	63 63       	.word	0x6363;	????	Illegal as 2-op instr
      30:	2f 6d       	addc	@r13,	r15	
      32:	73 70       	.word	0x7073;	????	Illegal as 2-op instr
      34:	34 33       	jn	$-406    	;abs 0xfe9e
      36:	30 2f       	jc	$-414    	;abs 0xfe98
      38:	34 2e       	jc	$-918    	;abs 0xfca2
      3a:	35 2e       	jc	$-916    	;abs 0xfca6
      3c:	33 2f       	jc	$-408    	;abs 0xfea4
      3e:	2e 2e       	jc	$-930    	;abs 0xfc9c
      40:	2f 2e       	jc	$-928    	;abs 0xfca0
      42:	2e 2f       	jc	$-418    	;abs 0xfea0
      44:	2e 2e       	jc	$-930    	;abs 0xfca2
      46:	2f 2e       	jc	$-928    	;abs 0xfca6
      48:	2e 2f       	jc	$-418    	;abs 0xfea6
      4a:	6d 73       	subc.b	#2,	r13	;r3 As==10
      4c:	70 34       	jge	$+226    	;abs 0x12e
      4e:	33 30       	jn	$+104    	;abs 0xb6
      50:	2f 69       	addc	@r9,	r15	
      52:	6e 63       	addc.b	#2,	r14	;r3 As==10
      54:	6c 75       	subc.b	@r5,	r12	
      56:	64 65       	addc.b	@r5,	r4	
      58:	00 00       	bra	@r0		
      5a:	6d 6f       	addc.b	@r15,	r13	
      5c:	74 6f       	addc.b	@r15+,	r4	
      5e:	72 74       	subc.b	@r4+,	r2	
      60:	65 73       	subc.b	#2,	r5	;r3 As==10
      62:	74 65       	addc.b	@r5+,	r4	
      64:	72 2e       	jc	$-794    	;abs 0xfd4a
      66:	63 00 00 00 	mova	r0,	&0x30000
      6a:	00 73       	sbc	r0		
      6c:	74 64       	addc.b	@r4+,	r4	
      6e:	69 6f       	addc.b	@r15,	r9	
      70:	2e 68       	addc	@r8,	r14	
      72:	00 01       	bra	@r1		
      74:	00 00       	bra	@r0		
      76:	6d 73       	subc.b	#2,	r13	;r3 As==10
      78:	70 34       	jge	$+226    	;abs 0x15a
      7a:	33 30       	jn	$+104    	;abs 0xe2
      7c:	66 32       	jn	$-818    	;abs 0xfd4a
      7e:	36 31       	jn	$+622    	;abs 0x2ec
      80:	38 2e       	jc	$-910    	;abs 0xfcf2
      82:	68 00 01 00 	mova	r0,	&0x80001
      86:	00 64       	addc	r4,	r0	
      88:	65 6c       	addc.b	@r12,	r5	
      8a:	61 79       	subc.b	@r9,	r1	
      8c:	2e 68       	addc	@r8,	r14	
      8e:	00 00       	bra	@r0		
      90:	00 00       	bra	@r0		
      92:	61 6e       	addc.b	@r14,	r1	
      94:	61 6c       	addc.b	@r12,	r1	
      96:	6f 67       	addc.b	@r7,	r15	
      98:	2e 68       	addc	@r8,	r14	
      9a:	00 00       	bra	@r0		
      9c:	00 00       	bra	@r0		
      9e:	72 65       	addc.b	@r5+,	r2	
      a0:	73 6f       	.word	0x6f73;	????	Illegal as 2-op instr
      a2:	75 72       	subc.b	#8,	r5	;r2 As==11
      a4:	63 65       	.word	0x6563;	????	Illegal as 2-op instr
      a6:	73 2e       	jc	$-792    	;abs 0xfd8e
      a8:	68 00 00 00 	mova	r0,	&0x80000
      ac:	00 00       	bra	@r0		
      ae:	00 03       	bra	#2		;r3 As==10
      b0:	02 4a       	mov	r10,	r2	
      b2:	33 68       	.word	0x6833;	????	Illegal as 2-op instr
      b4:	00 03       	bra	#2		;r3 As==10
      b6:	02 4a       	mov	r10,	r2	
      b8:	33 15       	pushm	#4,	#0	;r3 As==00
      ba:	00 03       	bra	#2		;r3 As==10
      bc:	02 4e       	mov	r14,	r2	
      be:	33 15       	pushm	#4,	#0	;r3 As==00
      c0:	00 03       	bra	#2		;r3 As==10
      c2:	02 7c       	subc	r12,	r2	
      c4:	33 94       	.word	0x9433;	????	Illegal as 2-op instr
      c6:	00 03       	bra	#2		;r3 As==10
      c8:	02 7e       	subc	r14,	r2	
      ca:	33 16       	popm.a	#4,	r6	
      cc:	00 03       	bra	#2		;r3 As==10
      ce:	02 86       	sub	r6,	r2	
      d0:	33 15       	pushm	#4,	#0	;r3 As==00
      d2:	00 03       	bra	#2		;r3 As==10
      d4:	02 8e       	sub	r14,	r2	
      d6:	33 15       	pushm	#4,	#0	;r3 As==00
      d8:	00 03       	bra	#2		;r3 As==10
      da:	02 96       	cmp	r6,	r2	
      dc:	33 15       	pushm	#4,	#0	;r3 As==00
      de:	00 03       	bra	#2		;r3 As==10
      e0:	02 a2       	dadd	r2,	r2	
      e2:	33 18       	.word	0x1833;	????	
      e4:	00 03       	bra	#2		;r3 As==10
      e6:	02 ac       	dadd	r12,	r2	
      e8:	33 16       	popm.a	#4,	r6	
      ea:	00 03       	bra	#2		;r3 As==10
      ec:	02 b4       	bit	r4,	r2	
      ee:	33 15       	pushm	#4,	#0	;r3 As==00
      f0:	00 03       	bra	#2		;r3 As==10
      f2:	02 be       	bit	r14,	r2	
      f4:	33 15       	pushm	#4,	#0	;r3 As==00
      f6:	00 03       	bra	#2		;r3 As==10
      f8:	02 cc       	bic	r12,	r2	
      fa:	33 15       	pushm	#4,	#0	;r3 As==00
      fc:	00 03       	bra	#2		;r3 As==10
      fe:	02 d6       	bis	r6,	r2	
     100:	33 15       	pushm	#4,	#0	;r3 As==00
     102:	00 03       	bra	#2		;r3 As==10
     104:	02 e2       	xor	r2,	r2	
     106:	33 16       	popm.a	#4,	r6	
     108:	00 03       	bra	#2		;r3 As==10
     10a:	02 ea       	xor	r10,	r2	
     10c:	33 03       	.word	0x0333;	????	Illegal as address instr
     10e:	75 01 00 03 	mova	r1,	768(r5)	;0x0300(r5)
     112:	02 f6       	and	r6,	r2	
     114:	33 21       	jnz	$+616    	;abs 0x37c
     116:	00 03       	bra	#2		;r3 As==10
     118:	02 f6       	and	r6,	r2	
     11a:	33 16       	popm.a	#4,	r6	
     11c:	00 03       	bra	#2		;r3 As==10
     11e:	02 fe       	and	r14,	r2	
     120:	33 15       	pushm	#4,	#0	;r3 As==00
     122:	00 03       	bra	#2		;r3 As==10
     124:	02 0a       	mova	@r10,	r2	
     126:	34 19       	.word	0x1934;	????	
     128:	00 03       	bra	#2		;r3 As==10
     12a:	02 12       	push	r2		
     12c:	34 15       	pushm	#4,	r4	
     12e:	00 03       	bra	#2		;r3 As==10
     130:	02 1c       	.word	0x1c02;	????	
     132:	34 17       	popm	#4,	r7	
     134:	00 03       	bra	#2		;r3 As==10
     136:	02 20       	jnz	$+6      	;abs 0x13c
     138:	34 0c 00 03 	mova	768(r12),r4	;0x0300(r12)
     13c:	02 2a       	jnc	$-1018   	;abs 0xfd42
     13e:	34 1c       	.word	0x1c34;	????	
     140:	00 03       	bra	#2		;r3 As==10
     142:	02 2e       	jc	$-1018   	;abs 0xfd48
     144:	34 16       	popm.a	#4,	r7	
     146:	00 03       	bra	#2		;r3 As==10
     148:	02 2e       	jc	$-1018   	;abs 0xfd4e
     14a:	34 15       	pushm	#4,	r4	
     14c:	00 03       	bra	#2		;r3 As==10
     14e:	02 32       	jn	$-1018   	;abs 0xfd54
     150:	34 15       	pushm	#4,	r4	
     152:	00 03       	bra	#2		;r3 As==10
     154:	02 38       	jl	$+6      	;abs 0x15a
     156:	34 15       	pushm	#4,	r4	
     158:	00 03       	bra	#2		;r3 As==10
     15a:	02 3e       	jmp	$-1018   	;abs 0xfd60
     15c:	34 15       	pushm	#4,	r4	
     15e:	00 03       	bra	#2		;r3 As==10
     160:	02 44       	mov	r4,	r2	
     162:	34 15       	pushm	#4,	r4	
     164:	00 03       	bra	#2		;r3 As==10
     166:	02 4a       	mov	r10,	r2	
     168:	34 16       	popm.a	#4,	r7	
     16a:	00 03       	bra	#2		;r3 As==10
     16c:	02 4a       	mov	r10,	r2	
     16e:	34 15       	pushm	#4,	r4	
     170:	00 03       	bra	#2		;r3 As==10
     172:	02 56       	add	r6,	r2	
     174:	34 15       	pushm	#4,	r4	
     176:	00 03       	bra	#2		;r3 As==10
     178:	02 58       	add	r8,	r2	
     17a:	34 16       	popm.a	#4,	r7	
     17c:	00 03       	bra	#2		;r3 As==10
     17e:	02 58       	add	r8,	r2	
     180:	34 1c       	.word	0x1c34;	????	
     182:	00 03       	bra	#2		;r3 As==10
     184:	02 5a       	add	r10,	r2	
     186:	34 16       	popm.a	#4,	r7	
     188:	00 03       	bra	#2		;r3 As==10
     18a:	02 5a       	add	r10,	r2	
     18c:	34 1d       	.word	0x1d34;	????	
     18e:	00 03       	bra	#2		;r3 As==10
     190:	02 60       	addc	r0,	r2	
     192:	34 15       	pushm	#4,	r4	
     194:	00 03       	bra	#2		;r3 As==10
     196:	02 66       	addc	r6,	r2	
     198:	34 15       	pushm	#4,	r4	
     19a:	00 03       	bra	#2		;r3 As==10
     19c:	02 6c       	addc	r12,	r2	
     19e:	34 15       	pushm	#4,	r4	
     1a0:	00 03       	bra	#2		;r3 As==10
     1a2:	02 72       	subc	r2,	r2	
     1a4:	34 15       	pushm	#4,	r4	
     1a6:	00 03       	bra	#2		;r3 As==10
     1a8:	02 78       	subc	r8,	r2	
     1aa:	34 15       	pushm	#4,	r4	
     1ac:	00 03       	bra	#2		;r3 As==10
     1ae:	02 7e       	subc	r14,	r2	
     1b0:	34 17       	popm	#4,	r7	
     1b2:	00 03       	bra	#2		;r3 As==10
     1b4:	02 84       	sub	r4,	r2	
     1b6:	34 17       	popm	#4,	r7	
     1b8:	00 03       	bra	#2		;r3 As==10
     1ba:	02 88       	sub	r8,	r2	
     1bc:	34 15       	pushm	#4,	r4	
     1be:	00 03       	bra	#2		;r3 As==10
     1c0:	02 8c       	sub	r12,	r2	
     1c2:	34 15       	pushm	#4,	r4	
     1c4:	00 03       	bra	#2		;r3 As==10
     1c6:	02 90       	cmp	r0,	r2	
     1c8:	34 15       	pushm	#4,	r4	
     1ca:	00 03       	bra	#2		;r3 As==10
     1cc:	02 94       	cmp	r4,	r2	
     1ce:	34 15       	pushm	#4,	r4	
     1d0:	00 03       	bra	#2		;r3 As==10
     1d2:	02 98       	cmp	r8,	r2	
     1d4:	34 15       	pushm	#4,	r4	
     1d6:	00 03       	bra	#2		;r3 As==10
     1d8:	02 9c       	cmp	r12,	r2	
     1da:	34 1e       	.word	0x1e34;	????	
     1dc:	00 03       	bra	#2		;r3 As==10
     1de:	02 a2       	dadd	r2,	r2	
     1e0:	34 17       	popm	#4,	r7	
     1e2:	00 03       	bra	#2		;r3 As==10
     1e4:	02 a8       	dadd	r8,	r2	
     1e6:	34 15       	pushm	#4,	r4	
     1e8:	00 03       	bra	#2		;r3 As==10
     1ea:	02 ae       	dadd	r14,	r2	
     1ec:	34 22       	jnz	$-918    	;abs 0xfe56
     1ee:	00 03       	bra	#2		;r3 As==10
     1f0:	02 b2       	bit	r2,	r2	
     1f2:	34 17       	popm	#4,	r7	
     1f4:	00 03       	bra	#2		;r3 As==10
     1f6:	02 b8       	bit	r8,	r2	
     1f8:	34 16       	popm.a	#4,	r7	
     1fa:	00 03       	bra	#2		;r3 As==10
     1fc:	02 be       	bit	r14,	r2	
     1fe:	34 16       	popm.a	#4,	r7	
     200:	00 03       	bra	#2		;r3 As==10
     202:	02 c4       	bic	r4,	r2	
     204:	34 15       	pushm	#4,	r4	
     206:	00 03       	bra	#2		;r3 As==10
     208:	02 c8       	bic	r8,	r2	
     20a:	34 16       	popm.a	#4,	r7	
     20c:	00 03       	bra	#2		;r3 As==10
     20e:	02 cc       	bic	r12,	r2	
     210:	34 15       	pushm	#4,	r4	
     212:	00 03       	bra	#2		;r3 As==10
     214:	02 d0       	bis	r0,	r2	
     216:	34 15       	pushm	#4,	r4	
     218:	00 03       	bra	#2		;r3 As==10
     21a:	02 e0       	xor	r0,	r2	
     21c:	34 16       	popm.a	#4,	r7	
     21e:	00 03       	bra	#2		;r3 As==10
     220:	02 e4       	xor	r4,	r2	
     222:	34 15       	pushm	#4,	r4	
     224:	00 03       	bra	#2		;r3 As==10
     226:	02 e8       	xor	r8,	r2	
     228:	34 17       	popm	#4,	r7	
     22a:	00 03       	bra	#2		;r3 As==10
     22c:	02 ea       	xor	r10,	r2	
     22e:	34 15       	pushm	#4,	r4	
     230:	00 03       	bra	#2		;r3 As==10
     232:	02 f8       	and	r8,	r2	
     234:	34 15       	pushm	#4,	r4	
     236:	00 03       	bra	#2		;r3 As==10
     238:	02 fc       	and	r12,	r2	
     23a:	34 16       	popm.a	#4,	r7	
     23c:	00 03       	bra	#2		;r3 As==10
     23e:	02 00       	mova	@r0,	r2	
     240:	35 16       	popm.a	#4,	r8	
     242:	00 03       	bra	#2		;r3 As==10
     244:	02 06       	mova	@r6,	r2	
     246:	35 15       	pushm	#4,	r5	
     248:	00 03       	bra	#2		;r3 As==10
     24a:	02 c3       	bic	#0,	r2	;r3 As==00
     24c:	36 00 01 01 	mova	0x0101,	r6	;PC rel. 0x0034f
     250:	00 03       	bra	#2		;r3 As==10
     252:	02 38       	jl	$+6      	;abs 0x258
     254:	31 6c       	addc	@r12+,	r1	
     256:	00 03       	bra	#2		;r3 As==10
     258:	02 38       	jl	$+6      	;abs 0x25e
     25a:	31 15       	pushm	#4,	r1	
     25c:	00 03       	bra	#2		;r3 As==10
     25e:	02 3e       	jmp	$-1018   	;abs 0xfe64
     260:	31 b3       	bit	#-1,	r1	;r3 As==11
     262:	00 03       	bra	#2		;r3 As==10
     264:	02 42       	mov	r2,	r2	
     266:	31 15       	pushm	#4,	r1	
     268:	00 03       	bra	#2		;r3 As==10
     26a:	02 48       	mov	r8,	r2	
     26c:	31 15       	pushm	#4,	r1	
     26e:	00 03       	bra	#2		;r3 As==10
     270:	02 4e       	mov	r14,	r2	
     272:	31 15       	pushm	#4,	r1	
     274:	00 03       	bra	#2		;r3 As==10
     276:	02 54       	add	r4,	r2	
     278:	31 03 ea 7e 	mova	#1,	r1	;r3 As==01
     27c:	01 00       	mova	@r0,	r1	
     27e:	03 02       	.word	0x0203;	????	Illegal as address instr
     280:	58 31       	jn	$+690    	;abs 0x532
     282:	15 00       	mova	#0x00000,r5	
     284:	03 02       	.word	0x0203;	????	Illegal as address instr
     286:	5c 31       	jn	$+698    	;abs 0x540
     288:	15 00       	mova	#0x00000,r5	
     28a:	03 02       	.word	0x0203;	????	Illegal as address instr
     28c:	60 31       	jn	$+706    	;abs 0x54e
     28e:	15 00       	mova	#0x00000,r5	
     290:	03 02       	.word	0x0203;	????	Illegal as address instr
     292:	68 31       	jn	$+722    	;abs 0x564
     294:	15 00       	mova	#0x00000,r5	
     296:	03 02       	.word	0x0203;	????	Illegal as address instr
     298:	6e 31       	jn	$+734    	;abs 0x576
     29a:	17 00       	mova	#0x00000,r7	
     29c:	03 02       	.word	0x0203;	????	Illegal as address instr
     29e:	70 31       	jn	$+738    	;abs 0x580
     2a0:	16 00       	mova	#0x00000,r6	
     2a2:	03 02       	.word	0x0203;	????	Illegal as address instr
     2a4:	78 31       	jn	$+754    	;abs 0x596
     2a6:	16 00       	mova	#0x00000,r6	
     2a8:	03 02       	.word	0x0203;	????	Illegal as address instr
     2aa:	82 31       	jn	$+774    	;abs 0x5b0
     2ac:	03 72       	.word	0x7203;	????	Illegal as 2-op instr
     2ae:	01 00       	mova	@r0,	r1	
     2b0:	03 02       	.word	0x0203;	????	Illegal as address instr
     2b2:	86 31       	jn	$+782    	;abs 0x5c0
     2b4:	13 00       	.word	0x0013;	????	Illegal as address instr
     2b6:	03 02       	.word	0x0203;	????	Illegal as address instr
     2b8:	88 31       	jn	$+786    	;abs 0x5ca
     2ba:	12 00       	mova	#0x00000,r2	
     2bc:	03 02       	.word	0x0203;	????	Illegal as address instr
     2be:	8a 31       	jn	$+790    	;abs 0x5d4
     2c0:	11 00       	mova	#0x00000,r1	
     2c2:	03 02       	.word	0x0203;	????	Illegal as address instr
     2c4:	8e 31       	jn	$+798    	;abs 0x5e2
     2c6:	13 00       	.word	0x0013;	????	Illegal as address instr
     2c8:	03 02       	.word	0x0203;	????	Illegal as address instr
     2ca:	92 31       	jn	$+806    	;abs 0x5f0
     2cc:	39 00 03 02 	mova	0x0203,	r9	;PC rel. 0x004d1
     2d0:	96 31       	jn	$+814    	;abs 0x5fe
     2d2:	03 74       	.word	0x7403;	????	Illegal as 2-op instr
     2d4:	01 00       	mova	@r0,	r1	
     2d6:	03 02       	.word	0x0203;	????	Illegal as address instr
     2d8:	9e 31       	jn	$+830    	;abs 0x616
     2da:	15 00       	mova	#0x00000,r5	
     2dc:	03 02       	.word	0x0203;	????	Illegal as address instr
     2de:	a2 31       	jn	$+838    	;abs 0x624
     2e0:	17 00       	mova	#0x00000,r7	
     2e2:	03 02       	.word	0x0203;	????	Illegal as address instr
     2e4:	aa 31       	jn	$+854    	;abs 0x63a
     2e6:	16 00       	mova	#0x00000,r6	
     2e8:	03 02       	.word	0x0203;	????	Illegal as address instr
     2ea:	b4 31       	jn	$+874    	;abs 0x654
     2ec:	15 00       	mova	#0x00000,r5	
     2ee:	03 02       	.word	0x0203;	????	Illegal as address instr
     2f0:	b6 31       	jn	$+878    	;abs 0x65e
     2f2:	0d 00       	mova	@r0,	r13	
     2f4:	03 02       	.word	0x0203;	????	Illegal as address instr
     2f6:	be 31       	jn	$+894    	;abs 0x674
     2f8:	18 00       	mova	#0x00000,r8	
     2fa:	03 02       	.word	0x0203;	????	Illegal as address instr
     2fc:	c2 31       	jn	$+902    	;abs 0x682
     2fe:	1b 00       	mova	#0x00000,r11	
     300:	03 02       	.word	0x0203;	????	Illegal as address instr
     302:	c8 31       	jn	$+914    	;abs 0x694
     304:	15 00       	mova	#0x00000,r5	
     306:	03 02       	.word	0x0203;	????	Illegal as address instr
     308:	d0 31       	jn	$+930    	;abs 0x6aa
     30a:	44 00       	rrcm.a	#1,	r4	
     30c:	03 02       	.word	0x0203;	????	Illegal as address instr
     30e:	d6 31       	jn	$+942    	;abs 0x6bc
     310:	03 48       	.word	0x4803;	????	Illegal as 2-op instr
     312:	01 00       	mova	@r0,	r1	
     314:	03 02       	.word	0x0203;	????	Illegal as address instr
     316:	da 31       	jn	$+950    	;abs 0x6cc
     318:	50 00       	rrcm	#1,	r0	
     31a:	03 02       	.word	0x0203;	????	Illegal as address instr
     31c:	e0 31       	jn	$+962    	;abs 0x6de
     31e:	16 00       	mova	#0x00000,r6	
     320:	03 02       	.word	0x0203;	????	Illegal as address instr
     322:	e2 31       	jn	$+966    	;abs 0x6e8
     324:	20 00 03 02 	bra	&0x00203	
     328:	e6 31       	jn	$+974    	;abs 0x6f6
     32a:	16 00       	mova	#0x00000,r6	
     32c:	03 02       	.word	0x0203;	????	Illegal as address instr
     32e:	f8 31       	jn	$+1010   	;abs 0x720
     330:	15 00       	mova	#0x00000,r5	
     332:	03 02       	.word	0x0203;	????	Illegal as address instr
     334:	04 32       	jn	$-1014   	;abs 0xff3e
     336:	16 00       	mova	#0x00000,r6	
     338:	03 02       	.word	0x0203;	????	Illegal as address instr
     33a:	0e 32       	jn	$-994    	;abs 0xff58
     33c:	15 00       	mova	#0x00000,r5	
     33e:	03 02       	.word	0x0203;	????	Illegal as address instr
     340:	16 32       	jn	$-978    	;abs 0xff6e
     342:	15 00       	mova	#0x00000,r5	
     344:	03 02       	.word	0x0203;	????	Illegal as address instr
     346:	1e 32       	jn	$-962    	;abs 0xff84
     348:	18 00       	mova	#0x00000,r8	
     34a:	03 02       	.word	0x0203;	????	Illegal as address instr
     34c:	24 32       	jn	$-950    	;abs 0xff96
     34e:	16 00       	mova	#0x00000,r6	
     350:	03 02       	.word	0x0203;	????	Illegal as address instr
     352:	32 32       	jn	$-922    	;abs 0xffb8
     354:	01 00       	mova	@r0,	r1	
     356:	03 02       	.word	0x0203;	????	Illegal as address instr
     358:	40 32       	jn	$-894    	;abs 0xffda
     35a:	01 00       	mova	@r0,	r1	
     35c:	03 02       	.word	0x0203;	????	Illegal as address instr
     35e:	46 32       	jn	$-882    	;abs 0xffec
     360:	01 00       	mova	@r0,	r1	
     362:	03 02       	.word	0x0203;	????	Illegal as address instr
     364:	4c 32       	jn	$-870    	;abs 0xfffe
     366:	03 b1       	.word	0xb103;	????	Illegal as 2-op instr
     368:	7f 01 00 03 	mova	r1,	768(r15);0x0300(r15)
     36c:	02 52       	rla	r2		
     36e:	32 30       	jn	$+102    	;abs 0x3d4
     370:	00 03       	bra	#2		;r3 As==10
     372:	02 5c       	add	r12,	r2	
     374:	32 15       	pushm	#4,	r2	
     376:	00 03       	bra	#2		;r3 As==10
     378:	02 64       	addc	r4,	r2	
     37a:	32 16       	popm.a	#4,	r5	
     37c:	00 03       	bra	#2		;r3 As==10
     37e:	02 7e       	subc	r14,	r2	
     380:	32 01 00 03 	mova	768(r1),r2	;0x0300(r1)
     384:	02 88       	sub	r8,	r2	
     386:	32 25       	jz	$+614    	;abs 0x5ec
     388:	00 03       	bra	#2		;r3 As==10
     38a:	02 8c       	sub	r12,	r2	
     38c:	32 0e 00 03 	mova	768(r14),r2	;0x0300(r14)
     390:	02 90       	cmp	r0,	r2	
     392:	32 03 6a 01 	mova	#1,	r2	;r3 As==01
     396:	00 03       	bra	#2		;r3 As==10
     398:	02 9a       	cmp	r10,	r2	
     39a:	32 15       	pushm	#4,	r2	
     39c:	00 03       	bra	#2		;r3 As==10
     39e:	02 a2       	dadd	r2,	r2	
     3a0:	32 16       	popm.a	#4,	r5	
     3a2:	00 03       	bra	#2		;r3 As==10
     3a4:	02 bc       	bit	r12,	r2	
     3a6:	32 01 00 03 	mova	768(r1),r2	;0x0300(r1)
     3aa:	02 c8       	bic	r8,	r2	
     3ac:	32 0b 00 03 	mova	768(r11),r2	;0x0300(r11)
     3b0:	02 d2       	bis	r2,	r2	
     3b2:	32 36       	jge	$-922    	;abs 0x18
     3b4:	00 03       	bra	#2		;r3 As==10
     3b6:	02 d6       	bis	r6,	r2	
     3b8:	32 03 60 01 	mova	#1,	r2	;r3 As==01
     3bc:	00 03       	bra	#2		;r3 As==10
     3be:	02 d8       	bis	r8,	r2	
     3c0:	32 15       	pushm	#4,	r2	
     3c2:	00 03       	bra	#2		;r3 As==10
     3c4:	02 da       	bis	r10,	r2	
     3c6:	32 03 71 01 	mova	#1,	r2	;r3 As==01
     3ca:	00 03       	bra	#2		;r3 As==10
     3cc:	02 e4       	xor	r4,	r2	
     3ce:	32 42       	mov	#8,	r2	;r2 As==11
     3d0:	00 03       	bra	#2		;r3 As==10
     3d2:	02 e8       	xor	r8,	r2	
     3d4:	32 03 53 01 	mova	#1,	r2	;r3 As==01
     3d8:	00 03       	bra	#2		;r3 As==10
     3da:	02 ea       	xor	r10,	r2	
     3dc:	32 15       	pushm	#4,	r2	
     3de:	00 03       	bra	#2		;r3 As==10
     3e0:	02 ec       	xor	r12,	r2	
     3e2:	32 10       	rrc	#8		;r2 As==11
     3e4:	00 03       	bra	#2		;r3 As==10
     3e6:	02 ee       	xor	r14,	r2	
     3e8:	32 1c       	.word	0x1c32;	????	
     3ea:	00 03       	bra	#2		;r3 As==10
     3ec:	02 f4       	and	r4,	r2	
     3ee:	32 13       	reti			;return from interupt
     3f0:	00 03       	bra	#2		;r3 As==10
     3f2:	02 fc       	and	r12,	r2	
     3f4:	32 31       	jn	$+614    	;abs 0x65a
     3f6:	00 03       	bra	#2		;r3 As==10
     3f8:	02 04       	mova	@r4,	r2	
     3fa:	33 15       	pushm	#4,	#0	;r3 As==00
     3fc:	00 03       	bra	#2		;r3 As==10
     3fe:	02 0e       	mova	@r14,	r2	
     400:	33 1f       	.word	0x1f33;	????	
     402:	00 03       	bra	#2		;r3 As==10
     404:	02 12       	push	r2		
     406:	33 0e       	.word	0x0e33;	????	Illegal as address instr
     408:	00 03       	bra	#2		;r3 As==10
     40a:	02 16       	popm.a	#1,	r2	
     40c:	33 39       	jl	$+616    	;abs 0x674
     40e:	00 03       	bra	#2		;r3 As==10
     410:	02 1c       	.word	0x1c02;	????	
     412:	33 0f       	.word	0x0f33;	????	Illegal as address instr
     414:	00 03       	bra	#2		;r3 As==10
     416:	02 20       	jnz	$+6      	;abs 0x41c
     418:	33 19       	.word	0x1933;	????	
     41a:	00 03       	bra	#2		;r3 As==10
     41c:	02 26       	jz	$-1018   	;abs 0x22
     41e:	33 03       	.word	0x0333;	????	Illegal as address instr
     420:	61 01 00 03 	mova	r1,	&0x10300
     424:	02 2a       	jnc	$-1018   	;abs 0x2a
     426:	33 03       	.word	0x0333;	????	Illegal as address instr
     428:	70 01 00 03 	mova	r1,	0x0300	;PC rel. 0x0072a
     42c:	02 2c       	jc	$+6      	;abs 0x432
     42e:	33 13       	reti			;return from interupt
     430:	00 03       	bra	#2		;r3 As==10
     432:	02 32       	jn	$-1018   	;abs 0x38
     434:	33 25       	jz	$+616    	;abs 0x69c
     436:	00 03       	bra	#2		;r3 As==10
     438:	02 36       	jge	$-1018   	;abs 0x3e
     43a:	33 03       	.word	0x0333;	????	Illegal as address instr
     43c:	68 01 00 03 	mova	r1,	&0x80300
     440:	02 38       	jl	$+6      	;abs 0x446
     442:	33 13       	reti			;return from interupt
     444:	00 03       	bra	#2		;r3 As==10
     446:	02 40       	mov	r0,	r2	
     448:	33 00       	.word	0x0033;	????	Illegal as address instr
     44a:	01 01       	mova	@r1,	r1	
     44c:	a0 00 00 00 	adda	#0x00000,r0	
     450:	02 00       	mova	@r0,	r2	
     452:	26 00 00 00 	mova	&0x00000,r6	
     456:	01 01       	mova	@r1,	r1	
     458:	f6 f5 0a 00 	and.b	@r5+,	10(r6)	;0x000a(r6)
     45c:	01 01       	mova	@r1,	r1	
     45e:	01 01       	mova	@r1,	r1	
     460:	00 00       	bra	@r0		
     462:	00 01       	bra	@r1		
     464:	00 64       	addc	r4,	r0	
     466:	65 6c       	addc.b	@r12,	r5	
     468:	61 79       	subc.b	@r9,	r1	
     46a:	2e 63       	addc	#2,	r14	;r3 As==10
     46c:	00 00       	bra	@r0		
     46e:	00 00       	bra	@r0		
     470:	64 65       	addc.b	@r5,	r4	
     472:	6c 61       	addc.b	@r1,	r12	
     474:	79 2e       	jc	$-780    	;abs 0x168
     476:	68 00 00 00 	mova	r0,	&0x80000
     47a:	00 00       	bra	@r0		
     47c:	00 03       	bra	#2		;r3 As==10
     47e:	02 c4       	bic	r4,	r2	
     480:	36 25       	jz	$+622    	;abs 0x6ee
     482:	00 03       	bra	#2		;r3 As==10
     484:	02 c4       	bic	r4,	r2	
     486:	36 19       	.word	0x1936;	????	
     488:	00 03       	bra	#2		;r3 As==10
     48a:	02 c6       	bic	r6,	r2	
     48c:	36 17       	popm	#4,	r9	
     48e:	00 03       	bra	#2		;r3 As==10
     490:	02 c6       	bic	r6,	r2	
     492:	36 19       	.word	0x1936;	????	
     494:	00 03       	bra	#2		;r3 As==10
     496:	02 c8       	bic	r8,	r2	
     498:	36 19       	.word	0x1936;	????	
     49a:	00 03       	bra	#2		;r3 As==10
     49c:	02 c8       	bic	r8,	r2	
     49e:	36 17       	popm	#4,	r9	
     4a0:	00 03       	bra	#2		;r3 As==10
     4a2:	02 cc       	bic	r12,	r2	
     4a4:	36 01 00 03 	mova	768(r1),r6	;0x0300(r1)
     4a8:	02 d8       	bis	r8,	r2	
     4aa:	36 1a       	.word	0x1a36;	????	
     4ac:	00 03       	bra	#2		;r3 As==10
     4ae:	02 de       	bis	r14,	r2	
     4b0:	36 17       	popm	#4,	r9	
     4b2:	00 03       	bra	#2		;r3 As==10
     4b4:	02 e2       	xor	r2,	r2	
     4b6:	36 01 00 03 	mova	768(r1),r6	;0x0300(r1)
     4ba:	02 f2       	and	r2,	r2	
     4bc:	36 15       	pushm	#4,	r6	
     4be:	00 03       	bra	#2		;r3 As==10
     4c0:	02 f8       	and	r8,	r2	
     4c2:	36 16       	popm.a	#4,	r9	
     4c4:	00 03       	bra	#2		;r3 As==10
     4c6:	02 f8       	and	r8,	r2	
     4c8:	36 15       	pushm	#4,	r6	
     4ca:	00 03       	bra	#2		;r3 As==10
     4cc:	02 fe       	and	r14,	r2	
     4ce:	36 15       	pushm	#4,	r6	
     4d0:	00 03       	bra	#2		;r3 As==10
     4d2:	02 00       	mova	@r0,	r2	
     4d4:	37 16       	popm.a	#4,	r10	
     4d6:	00 03       	bra	#2		;r3 As==10
     4d8:	02 00       	mova	@r0,	r2	
     4da:	37 15       	pushm	#4,	r7	
     4dc:	00 03       	bra	#2		;r3 As==10
     4de:	02 04       	mova	@r4,	r2	
     4e0:	37 15       	pushm	#4,	r7	
     4e2:	00 03       	bra	#2		;r3 As==10
     4e4:	02 0e       	mova	@r14,	r2	
     4e6:	37 17       	popm	#4,	r10	
     4e8:	00 03       	bra	#2		;r3 As==10
     4ea:	02 10       	rrc	r2		
     4ec:	37 00 01 01 	mova	0x0101,	r7	;PC rel. 0x005ef
     4f0:	2a 00 00 00 	mova	&0x00000,r10	
     4f4:	02 00       	mova	@r0,	r2	
     4f6:	1c 00       	mova	#0x00000,r12	
     4f8:	00 00       	bra	@r0		
     4fa:	01 01       	mova	@r1,	r1	
     4fc:	f6 f5 0a 00 	and.b	@r5+,	10(r6)	;0x000a(r6)
     500:	01 01       	mova	@r1,	r1	
     502:	01 01       	mova	@r1,	r1	
     504:	00 00       	bra	@r0		
     506:	00 01       	bra	@r1		
     508:	00 65       	addc	r5,	r0	
     50a:	65 70       	subc.b	@r0,	r5	
     50c:	72 6f       	addc.b	@r15+,	r2	
     50e:	6d 2e       	jc	$-804    	;abs 0x1ea
     510:	63 00 00 00 	mova	r0,	&0x30000
     514:	00 00       	bra	@r0		
     516:	00 03       	bra	#2		;r3 As==10
     518:	02 10       	rrc	r2		
     51a:	37 00 01 01 	mova	0x0101,	r7	;PC rel. 0x0061d
     51e:	fe 06       	suba	r6,	r14	
     520:	00 00       	bra	@r0		
     522:	02 00       	mova	@r0,	r2	
     524:	6b 00 00 00 	mova	r0,	&0xb0000
     528:	01 01       	mova	@r1,	r1	
     52a:	f6 f5 0a 00 	and.b	@r5+,	10(r6)	;0x000a(r6)
     52e:	01 01       	mova	@r1,	r1	
     530:	01 01       	mova	@r1,	r1	
     532:	00 00       	bra	@r0		
     534:	00 01       	bra	@r1		
     536:	63 3a       	jl	$-824    	;abs 0x1fe
     538:	5c 6d 73 70 	addc.b	28787(r13),r12	;0x7073(r13)
     53c:	67 63       	addc.b	#2,	r7	;r3 As==10
     53e:	63 5c       	.word	0x5c63;	????	Illegal as 2-op instr
     540:	62 69       	addc.b	@r9,	r2	
     542:	6e 5c       	add.b	@r12,	r14	
     544:	2e 2e       	jc	$-930    	;abs 0x1a2
     546:	2f 6c       	addc	@r12,	r15	
     548:	69 62       	addc.b	#4,	r9	;r2 As==10
     54a:	2f 67       	addc	@r7,	r15	
     54c:	63 63       	.word	0x6363;	????	Illegal as 2-op instr
     54e:	2f 6d       	addc	@r13,	r15	
     550:	73 70       	.word	0x7073;	????	Illegal as 2-op instr
     552:	34 33       	jn	$-406    	;abs 0x3bc
     554:	30 2f       	jc	$-414    	;abs 0x3b6
     556:	34 2e       	jc	$-918    	;abs 0x1c0
     558:	35 2e       	jc	$-916    	;abs 0x1c4
     55a:	33 2f       	jc	$-408    	;abs 0x3c2
     55c:	2e 2e       	jc	$-930    	;abs 0x1ba
     55e:	2f 2e       	jc	$-928    	;abs 0x1be
     560:	2e 2f       	jc	$-418    	;abs 0x3be
     562:	2e 2e       	jc	$-930    	;abs 0x1c0
     564:	2f 2e       	jc	$-928    	;abs 0x1c4
     566:	2e 2f       	jc	$-418    	;abs 0x3c4
     568:	6d 73       	subc.b	#2,	r13	;r3 As==10
     56a:	70 34       	jge	$+226    	;abs 0x64c
     56c:	33 30       	jn	$+104    	;abs 0x5d4
     56e:	2f 69       	addc	@r9,	r15	
     570:	6e 63       	addc.b	#2,	r14	;r3 As==10
     572:	6c 75       	subc.b	@r5,	r12	
     574:	64 65       	addc.b	@r5,	r4	
     576:	00 00       	bra	@r0		
     578:	69 32       	jn	$-812    	;abs 0x24c
     57a:	63 2e       	jc	$-824    	;abs 0x242
     57c:	63 00 00 00 	mova	r0,	&0x30000
     580:	00 6d       	addc	r13,	r0	
     582:	73 70       	.word	0x7073;	????	Illegal as 2-op instr
     584:	34 33       	jn	$-406    	;abs 0x3ee
     586:	30 66       	addc	@r6+,	r0	
     588:	32 36       	jge	$-922    	;abs 0x1ee
     58a:	31 38       	jl	$+100    	;abs 0x5ee
     58c:	2e 68       	addc	@r8,	r14	
     58e:	00 01       	bra	@r1		
     590:	00 00       	bra	@r0		
     592:	00 00       	bra	@r0		
     594:	03 02       	.word	0x0203;	????	Illegal as address instr
     596:	10 37       	jge	$-478    	;abs 0x3b8
     598:	1a 00       	mova	#0x00000,r10	
     59a:	03 02       	.word	0x0203;	????	Illegal as address instr
     59c:	10 37       	jge	$-478    	;abs 0x3be
     59e:	16 00       	mova	#0x00000,r6	
     5a0:	03 02       	.word	0x0203;	????	Illegal as address instr
     5a2:	16 37       	jge	$-466    	;abs 0x3d0
     5a4:	15 00       	mova	#0x00000,r5	
     5a6:	03 02       	.word	0x0203;	????	Illegal as address instr
     5a8:	1c 37       	jge	$-454    	;abs 0x3e2
     5aa:	17 00       	mova	#0x00000,r7	
     5ac:	03 02       	.word	0x0203;	????	Illegal as address instr
     5ae:	20 37       	jge	$-446    	;abs 0x3f0
     5b0:	15 00       	mova	#0x00000,r5	
     5b2:	03 02       	.word	0x0203;	????	Illegal as address instr
     5b4:	24 37       	jge	$-438    	;abs 0x3fe
     5b6:	16 00       	mova	#0x00000,r6	
     5b8:	03 02       	.word	0x0203;	????	Illegal as address instr
     5ba:	2a 37       	jge	$-426    	;abs 0x410
     5bc:	15 00       	mova	#0x00000,r5	
     5be:	03 02       	.word	0x0203;	????	Illegal as address instr
     5c0:	30 37       	jge	$-414    	;abs 0x422
     5c2:	17 00       	mova	#0x00000,r7	
     5c4:	03 02       	.word	0x0203;	????	Illegal as address instr
     5c6:	3e 37       	jge	$-386    	;abs 0x444
     5c8:	15 00       	mova	#0x00000,r5	
     5ca:	03 02       	.word	0x0203;	????	Illegal as address instr
     5cc:	44 37       	jge	$-374    	;abs 0x456
     5ce:	17 00       	mova	#0x00000,r7	
     5d0:	03 02       	.word	0x0203;	????	Illegal as address instr
     5d2:	4a 37       	jge	$-362    	;abs 0x468
     5d4:	15 00       	mova	#0x00000,r5	
     5d6:	03 02       	.word	0x0203;	????	Illegal as address instr
     5d8:	52 37       	jge	$-346    	;abs 0x47e
     5da:	15 00       	mova	#0x00000,r5	
     5dc:	03 02       	.word	0x0203;	????	Illegal as address instr
     5de:	54 37       	jge	$-342    	;abs 0x488
     5e0:	17 00       	mova	#0x00000,r7	
     5e2:	03 02       	.word	0x0203;	????	Illegal as address instr
     5e4:	54 37       	jge	$-342    	;abs 0x48e
     5e6:	15 00       	mova	#0x00000,r5	
     5e8:	03 02       	.word	0x0203;	????	Illegal as address instr
     5ea:	62 37       	jge	$-314    	;abs 0x4b0
     5ec:	15 00       	mova	#0x00000,r5	
     5ee:	03 02       	.word	0x0203;	????	Illegal as address instr
     5f0:	64 37       	jge	$-310    	;abs 0x4ba
     5f2:	1a 00       	mova	#0x00000,r10	
     5f4:	03 02       	.word	0x0203;	????	Illegal as address instr
     5f6:	64 37       	jge	$-310    	;abs 0x4c0
     5f8:	15 00       	mova	#0x00000,r5	
     5fa:	03 02       	.word	0x0203;	????	Illegal as address instr
     5fc:	6a 37       	jge	$-298    	;abs 0x4d2
     5fe:	15 00       	mova	#0x00000,r5	
     600:	03 02       	.word	0x0203;	????	Illegal as address instr
     602:	72 37       	jge	$-282    	;abs 0x4e8
     604:	15 00       	mova	#0x00000,r5	
     606:	03 02       	.word	0x0203;	????	Illegal as address instr
     608:	74 37       	jge	$-278    	;abs 0x4f2
     60a:	1a 00       	mova	#0x00000,r10	
     60c:	03 02       	.word	0x0203;	????	Illegal as address instr
     60e:	74 37       	jge	$-278    	;abs 0x4f8
     610:	15 00       	mova	#0x00000,r5	
     612:	03 02       	.word	0x0203;	????	Illegal as address instr
     614:	7a 37       	jge	$-266    	;abs 0x50a
     616:	15 00       	mova	#0x00000,r5	
     618:	03 02       	.word	0x0203;	????	Illegal as address instr
     61a:	7e 37       	jge	$-258    	;abs 0x518
     61c:	15 00       	mova	#0x00000,r5	
     61e:	03 02       	.word	0x0203;	????	Illegal as address instr
     620:	86 37       	jge	$-242    	;abs 0x52e
     622:	15 00       	mova	#0x00000,r5	
     624:	03 02       	.word	0x0203;	????	Illegal as address instr
     626:	88 37       	jge	$-238    	;abs 0x538
     628:	19 00       	mova	#0x00000,r9	
     62a:	03 02       	.word	0x0203;	????	Illegal as address instr
     62c:	88 37       	jge	$-238    	;abs 0x53e
     62e:	15 00       	mova	#0x00000,r5	
     630:	03 02       	.word	0x0203;	????	Illegal as address instr
     632:	8e 37       	jge	$-226    	;abs 0x550
     634:	15 00       	mova	#0x00000,r5	
     636:	03 02       	.word	0x0203;	????	Illegal as address instr
     638:	96 37       	jge	$-210    	;abs 0x566
     63a:	15 00       	mova	#0x00000,r5	
     63c:	03 02       	.word	0x0203;	????	Illegal as address instr
     63e:	98 37       	jge	$-206    	;abs 0x570
     640:	19 00       	mova	#0x00000,r9	
     642:	03 02       	.word	0x0203;	????	Illegal as address instr
     644:	98 37       	jge	$-206    	;abs 0x576
     646:	15 00       	mova	#0x00000,r5	
     648:	03 02       	.word	0x0203;	????	Illegal as address instr
     64a:	9e 37       	jge	$-194    	;abs 0x588
     64c:	15 00       	mova	#0x00000,r5	
     64e:	03 02       	.word	0x0203;	????	Illegal as address instr
     650:	a2 37       	jge	$-186    	;abs 0x596
     652:	15 00       	mova	#0x00000,r5	
     654:	03 02       	.word	0x0203;	????	Illegal as address instr
     656:	aa 37       	jge	$-170    	;abs 0x5ac
     658:	15 00       	mova	#0x00000,r5	
     65a:	03 02       	.word	0x0203;	????	Illegal as address instr
     65c:	ac 37       	jge	$-166    	;abs 0x5b6
     65e:	19 00       	mova	#0x00000,r9	
     660:	03 02       	.word	0x0203;	????	Illegal as address instr
     662:	ac 37       	jge	$-166    	;abs 0x5bc
     664:	15 00       	mova	#0x00000,r5	
     666:	03 02       	.word	0x0203;	????	Illegal as address instr
     668:	b6 37       	jge	$-146    	;abs 0x5d6
     66a:	16 00       	mova	#0x00000,r6	
     66c:	03 02       	.word	0x0203;	????	Illegal as address instr
     66e:	be 37       	jge	$-130    	;abs 0x5ec
     670:	19 00       	mova	#0x00000,r9	
     672:	03 02       	.word	0x0203;	????	Illegal as address instr
     674:	be 37       	jge	$-130    	;abs 0x5f2
     676:	15 00       	mova	#0x00000,r5	
     678:	03 02       	.word	0x0203;	????	Illegal as address instr
     67a:	c2 37       	jge	$-122    	;abs 0x600
     67c:	16 00       	mova	#0x00000,r6	
     67e:	03 02       	.word	0x0203;	????	Illegal as address instr
     680:	ca 37       	jge	$-106    	;abs 0x616
     682:	17 00       	mova	#0x00000,r7	
     684:	03 02       	.word	0x0203;	????	Illegal as address instr
     686:	d2 37       	jge	$-90     	;abs 0x62c
     688:	17 00       	mova	#0x00000,r7	
     68a:	03 02       	.word	0x0203;	????	Illegal as address instr
     68c:	d2 37       	jge	$-90     	;abs 0x632
     68e:	03 4d       	.word	0x4d03;	????	Illegal as 2-op instr
     690:	01 00       	mova	@r0,	r1	
     692:	03 02       	.word	0x0203;	????	Illegal as address instr
     694:	d8 37       	jge	$-78     	;abs 0x646
     696:	15 00       	mova	#0x00000,r5	
     698:	03 02       	.word	0x0203;	????	Illegal as address instr
     69a:	e0 37       	jge	$-62     	;abs 0x65c
     69c:	25 00 03 02 	mova	&0x00203,r5	
     6a0:	e6 37       	jge	$-50     	;abs 0x66e
     6a2:	15 00       	mova	#0x00000,r5	
     6a4:	03 02       	.word	0x0203;	????	Illegal as address instr
     6a6:	ee 37       	jge	$-34     	;abs 0x684
     6a8:	24 00 03 02 	mova	&0x00203,r4	
     6ac:	f8 37       	jge	$-14     	;abs 0x69e
     6ae:	2c 00 03 02 	mova	&0x00203,r12	
     6b2:	00 38       	jl	$+2      	;abs 0x6b4
     6b4:	17 00       	mova	#0x00000,r7	
     6b6:	03 02       	.word	0x0203;	????	Illegal as address instr
     6b8:	00 38       	jl	$+2      	;abs 0x6ba
     6ba:	03 42       	.word	0x4203;	????	Illegal as 2-op instr
     6bc:	01 00       	mova	@r0,	r1	
     6be:	03 02       	.word	0x0203;	????	Illegal as address instr
     6c0:	06 38       	jl	$+14     	;abs 0x6ce
     6c2:	15 00       	mova	#0x00000,r5	
     6c4:	03 02       	.word	0x0203;	????	Illegal as address instr
     6c6:	0e 38       	jl	$+30     	;abs 0x6e4
     6c8:	3e 00 03 02 	mova	0x0203,	r14	;PC rel. 0x008cd
     6cc:	12 38       	jl	$+38     	;abs 0x6f2
     6ce:	16 00       	mova	#0x00000,r6	
     6d0:	03 02       	.word	0x0203;	????	Illegal as address instr
     6d2:	1a 38       	jl	$+54     	;abs 0x708
     6d4:	16 00       	mova	#0x00000,r6	
     6d6:	03 02       	.word	0x0203;	????	Illegal as address instr
     6d8:	20 38       	jl	$+66     	;abs 0x71a
     6da:	03 63       	adc	#0		;r3 As==00
     6dc:	01 00       	mova	@r0,	r1	
     6de:	03 02       	.word	0x0203;	????	Illegal as address instr
     6e0:	26 38       	jl	$+78     	;abs 0x72e
     6e2:	15 00       	mova	#0x00000,r5	
     6e4:	03 02       	.word	0x0203;	????	Illegal as address instr
     6e6:	2e 38       	jl	$+94     	;abs 0x744
     6e8:	24 00 03 02 	mova	&0x00203,r4	
     6ec:	38 38       	jl	$+114    	;abs 0x75e
     6ee:	15 00       	mova	#0x00000,r5	
     6f0:	03 02       	.word	0x0203;	????	Illegal as address instr
     6f2:	3e 38       	jl	$+126    	;abs 0x770
     6f4:	37 00 03 02 	mova	0x0203,	r7	;PC rel. 0x008f9
     6f8:	42 38       	jl	$+134    	;abs 0x77e
     6fa:	17 00       	mova	#0x00000,r7	
     6fc:	03 02       	.word	0x0203;	????	Illegal as address instr
     6fe:	42 38       	jl	$+134    	;abs 0x784
     700:	03 b6       	.word	0xb603;	????	Illegal as 2-op instr
     702:	7f 01 00 03 	mova	r1,	768(r15);0x0300(r15)
     706:	02 48       	mov	r8,	r2	
     708:	38 15       	pushm	#4,	r8	
     70a:	00 03       	bra	#2		;r3 As==10
     70c:	02 50       	add	r0,	r2	
     70e:	38 3e       	jmp	$-910    	;abs 0x380
     710:	00 03       	bra	#2		;r3 As==10
     712:	02 54       	add	r4,	r2	
     714:	38 16       	popm.a	#4,	r11	
     716:	00 03       	bra	#2		;r3 As==10
     718:	02 5c       	add	r12,	r2	
     71a:	38 16       	popm.a	#4,	r11	
     71c:	00 03       	bra	#2		;r3 As==10
     71e:	02 62       	rlc	r2		
     720:	38 10       	rrc	@r8+		
     722:	00 03       	bra	#2		;r3 As==10
     724:	02 66       	addc	r6,	r2	
     726:	38 16       	popm.a	#4,	r11	
     728:	00 03       	bra	#2		;r3 As==10
     72a:	02 6e       	addc	r14,	r2	
     72c:	38 16       	popm.a	#4,	r11	
     72e:	00 03       	bra	#2		;r3 As==10
     730:	02 74       	subc	r4,	r2	
     732:	38 34       	jge	$+114    	;abs 0x7a4
     734:	00 03       	bra	#2		;r3 As==10
     736:	02 76       	subc	r6,	r2	
     738:	38 03 43 01 	mova	#1,	r8	;r3 As==01
     73c:	00 03       	bra	#2		;r3 As==10
     73e:	02 7c       	subc	r12,	r2	
     740:	38 15       	pushm	#4,	r8	
     742:	00 03       	bra	#2		;r3 As==10
     744:	02 84       	sub	r4,	r2	
     746:	38 24       	jz	$+114    	;abs 0x7b8
     748:	00 03       	bra	#2		;r3 As==10
     74a:	02 8e       	sub	r14,	r2	
     74c:	38 15       	pushm	#4,	r8	
     74e:	00 03       	bra	#2		;r3 As==10
     750:	02 94       	cmp	r4,	r2	
     752:	38 44       	mov	@r4+,	r8	
     754:	00 03       	bra	#2		;r3 As==10
     756:	02 98       	cmp	r8,	r2	
     758:	38 17       	popm	#4,	r11	
     75a:	00 03       	bra	#2		;r3 As==10
     75c:	02 9a       	cmp	r10,	r2	
     75e:	38 03 a9 7f 	mova	#1,	r8	;r3 As==01
     762:	01 00       	mova	@r0,	r1	
     764:	03 02       	.word	0x0203;	????	Illegal as address instr
     766:	a0 38       	jl	$+322    	;abs 0x8a8
     768:	15 00       	mova	#0x00000,r5	
     76a:	03 02       	.word	0x0203;	????	Illegal as address instr
     76c:	a8 38       	jl	$+338    	;abs 0x8be
     76e:	3e 00 03 02 	mova	0x0203,	r14	;PC rel. 0x00973
     772:	ac 38       	jl	$+346    	;abs 0x8cc
     774:	16 00       	mova	#0x00000,r6	
     776:	03 02       	.word	0x0203;	????	Illegal as address instr
     778:	b4 38       	jl	$+362    	;abs 0x8e2
     77a:	16 00       	mova	#0x00000,r6	
     77c:	03 02       	.word	0x0203;	????	Illegal as address instr
     77e:	ba 38       	jl	$+374    	;abs 0x8f4
     780:	41 00       	rrcm.a	#1,	r1	
     782:	03 02       	.word	0x0203;	????	Illegal as address instr
     784:	c2 38       	jl	$+390    	;abs 0x90a
     786:	03 4f       	.word	0x4f03;	????	Illegal as 2-op instr
     788:	01 00       	mova	@r0,	r1	
     78a:	03 02       	.word	0x0203;	????	Illegal as address instr
     78c:	c6 38       	jl	$+398    	;abs 0x91a
     78e:	16 00       	mova	#0x00000,r6	
     790:	03 02       	.word	0x0203;	????	Illegal as address instr
     792:	ce 38       	jl	$+414    	;abs 0x930
     794:	16 00       	mova	#0x00000,r6	
     796:	03 02       	.word	0x0203;	????	Illegal as address instr
     798:	d4 38       	jl	$+426    	;abs 0x942
     79a:	41 00       	rrcm.a	#1,	r1	
     79c:	03 02       	.word	0x0203;	????	Illegal as address instr
     79e:	d6 38       	jl	$+430    	;abs 0x94c
     7a0:	01 00       	mova	@r0,	r1	
     7a2:	03 02       	.word	0x0203;	????	Illegal as address instr
     7a4:	e0 38       	jl	$+450    	;abs 0x966
     7a6:	03 b6       	.word	0xb603;	????	Illegal as 2-op instr
     7a8:	7f 01 00 03 	mova	r1,	768(r15);0x0300(r15)
     7ac:	02 e6       	xor	r6,	r2	
     7ae:	38 15       	pushm	#4,	r8	
     7b0:	00 03       	bra	#2		;r3 As==10
     7b2:	02 ee       	xor	r14,	r2	
     7b4:	38 24       	jz	$+114    	;abs 0x826
     7b6:	00 03       	bra	#2		;r3 As==10
     7b8:	02 f8       	and	r8,	r2	
     7ba:	38 15       	pushm	#4,	r8	
     7bc:	00 03       	bra	#2		;r3 As==10
     7be:	02 fe       	and	r14,	r2	
     7c0:	38 52       	add	#8,	r8	;r2 As==11
     7c2:	00 03       	bra	#2		;r3 As==10
     7c4:	02 04       	mova	@r4,	r2	
     7c6:	39 17       	popm	#4,	r12	
     7c8:	00 03       	bra	#2		;r3 As==10
     7ca:	02 04       	mova	@r4,	r2	
     7cc:	39 03 9b 7f 	mova	#1,	r9	;r3 As==01
     7d0:	01 00       	mova	@r0,	r1	
     7d2:	03 02       	.word	0x0203;	????	Illegal as address instr
     7d4:	0a 39       	jl	$+534    	;abs 0x9ea
     7d6:	15 00       	mova	#0x00000,r5	
     7d8:	03 02       	.word	0x0203;	????	Illegal as address instr
     7da:	12 39       	jl	$+550    	;abs 0xa00
     7dc:	3e 00 03 02 	mova	0x0203,	r14	;PC rel. 0x009e1
     7e0:	16 39       	jl	$+558    	;abs 0xa0e
     7e2:	16 00       	mova	#0x00000,r6	
     7e4:	03 02       	.word	0x0203;	????	Illegal as address instr
     7e6:	1e 39       	jl	$+574    	;abs 0xa24
     7e8:	16 00       	mova	#0x00000,r6	
     7ea:	03 02       	.word	0x0203;	????	Illegal as address instr
     7ec:	24 39       	jl	$+586    	;abs 0xa36
     7ee:	10 00       	bra	#0x00000	
     7f0:	03 02       	.word	0x0203;	????	Illegal as address instr
     7f2:	28 39       	jl	$+594    	;abs 0xa44
     7f4:	16 00       	mova	#0x00000,r6	
     7f6:	03 02       	.word	0x0203;	????	Illegal as address instr
     7f8:	30 39       	jl	$+610    	;abs 0xa5a
     7fa:	16 00       	mova	#0x00000,r6	
     7fc:	03 02       	.word	0x0203;	????	Illegal as address instr
     7fe:	36 39       	jl	$+622    	;abs 0xa6c
     800:	4f 00       	rrcm.a	#1,	r15	
     802:	03 02       	.word	0x0203;	????	Illegal as address instr
     804:	38 39       	jl	$+626    	;abs 0xa76
     806:	03 a8       	.word	0xa803;	????	Illegal as 2-op instr
     808:	7f 01 00 03 	mova	r1,	768(r15);0x0300(r15)
     80c:	02 3e       	jmp	$-1018   	;abs 0x412
     80e:	39 15       	pushm	#4,	r9	
     810:	00 03       	bra	#2		;r3 As==10
     812:	02 46       	mov	r6,	r2	
     814:	39 24       	jz	$+116    	;abs 0x888
     816:	00 03       	bra	#2		;r3 As==10
     818:	02 50       	add	r0,	r2	
     81a:	39 15       	pushm	#4,	r9	
     81c:	00 03       	bra	#2		;r3 As==10
     81e:	02 56       	add	r6,	r2	
     820:	39 5f       	add	@r15+,	r9	
     822:	00 03       	bra	#2		;r3 As==10
     824:	02 5a       	add	r10,	r2	
     826:	39 17       	popm	#4,	r12	
     828:	00 03       	bra	#2		;r3 As==10
     82a:	02 5a       	add	r10,	r2	
     82c:	39 03 8e 7f 	mova	#1,	r9	;r3 As==01
     830:	01 00       	mova	@r0,	r1	
     832:	03 02       	.word	0x0203;	????	Illegal as address instr
     834:	60 39       	jl	$+706    	;abs 0xaf6
     836:	15 00       	mova	#0x00000,r5	
     838:	03 02       	.word	0x0203;	????	Illegal as address instr
     83a:	68 39       	jl	$+722    	;abs 0xb0c
     83c:	3e 00 03 02 	mova	0x0203,	r14	;PC rel. 0x00a41
     840:	6c 39       	jl	$+730    	;abs 0xb1a
     842:	16 00       	mova	#0x00000,r6	
     844:	03 02       	.word	0x0203;	????	Illegal as address instr
     846:	74 39       	jl	$+746    	;abs 0xb30
     848:	16 00       	mova	#0x00000,r6	
     84a:	03 02       	.word	0x0203;	????	Illegal as address instr
     84c:	7a 39       	jl	$+758    	;abs 0xb42
     84e:	10 00       	bra	#0x00000	
     850:	03 02       	.word	0x0203;	????	Illegal as address instr
     852:	7e 39       	jl	$+766    	;abs 0xb50
     854:	16 00       	mova	#0x00000,r6	
     856:	03 02       	.word	0x0203;	????	Illegal as address instr
     858:	86 39       	jl	$+782    	;abs 0xb66
     85a:	16 00       	mova	#0x00000,r6	
     85c:	03 02       	.word	0x0203;	????	Illegal as address instr
     85e:	8c 39       	jl	$+794    	;abs 0xb78
     860:	5c 00       	rrcm	#1,	r12	
     862:	03 02       	.word	0x0203;	????	Illegal as address instr
     864:	8e 39       	jl	$+798    	;abs 0xb82
     866:	03 b4       	.word	0xb403;	????	Illegal as 2-op instr
     868:	7f 01 00 03 	mova	r1,	768(r15);0x0300(r15)
     86c:	02 92       	cmp	r2,	r2	
     86e:	39 16       	popm.a	#4,	r12	
     870:	00 03       	bra	#2		;r3 As==10
     872:	02 9a       	cmp	r10,	r2	
     874:	39 16       	popm.a	#4,	r12	
     876:	00 03       	bra	#2		;r3 As==10
     878:	02 a0       	dadd	r0,	r2	
     87a:	39 5d       	add	@r13+,	r9	
     87c:	00 03       	bra	#2		;r3 As==10
     87e:	02 a2       	dadd	r2,	r2	
     880:	39 03 9a 7f 	mova	#1,	r9	;r3 As==01
     884:	01 00       	mova	@r0,	r1	
     886:	03 02       	.word	0x0203;	????	Illegal as address instr
     888:	a8 39       	jl	$+850    	;abs 0xbda
     88a:	15 00       	mova	#0x00000,r5	
     88c:	03 02       	.word	0x0203;	????	Illegal as address instr
     88e:	b0 39       	jl	$+866    	;abs 0xbf0
     890:	24 00 03 02 	mova	&0x00203,r4	
     894:	ba 39       	jl	$+886    	;abs 0xc0a
     896:	15 00       	mova	#0x00000,r5	
     898:	03 02       	.word	0x0203;	????	Illegal as address instr
     89a:	c0 39       	jl	$+898    	;abs 0xc1c
     89c:	6d 00 03 02 	mova	r0,	&0xd0203
     8a0:	c4 39       	jl	$+906    	;abs 0xc2a
     8a2:	17 00       	mova	#0x00000,r7	
     8a4:	03 02       	.word	0x0203;	????	Illegal as address instr
     8a6:	c6 39       	jl	$+910    	;abs 0xc34
     8a8:	03 80       	.word	0x8003;	????	Illegal as 2-op instr
     8aa:	7f 01 00 03 	mova	r1,	768(r15);0x0300(r15)
     8ae:	02 cc       	bic	r12,	r2	
     8b0:	39 15       	pushm	#4,	r9	
     8b2:	00 03       	bra	#2		;r3 As==10
     8b4:	02 d4       	bis	r4,	r2	
     8b6:	39 3e       	jmp	$-908    	;abs 0x52a
     8b8:	00 03       	bra	#2		;r3 As==10
     8ba:	02 d8       	bis	r8,	r2	
     8bc:	39 16       	popm.a	#4,	r12	
     8be:	00 03       	bra	#2		;r3 As==10
     8c0:	02 e0       	xor	r0,	r2	
     8c2:	39 16       	popm.a	#4,	r12	
     8c4:	00 03       	bra	#2		;r3 As==10
     8c6:	02 e6       	xor	r6,	r2	
     8c8:	39 10       	rrc	@r9+		
     8ca:	00 03       	bra	#2		;r3 As==10
     8cc:	02 ea       	xor	r10,	r2	
     8ce:	39 16       	popm.a	#4,	r12	
     8d0:	00 03       	bra	#2		;r3 As==10
     8d2:	02 f2       	and	r2,	r2	
     8d4:	39 16       	popm.a	#4,	r12	
     8d6:	00 03       	bra	#2		;r3 As==10
     8d8:	02 f8       	and	r8,	r2	
     8da:	39 6a       	addc	@r10+,	r9	
     8dc:	00 03       	bra	#2		;r3 As==10
     8de:	02 fa       	and	r10,	r2	
     8e0:	39 15       	pushm	#4,	r9	
     8e2:	00 03       	bra	#2		;r3 As==10
     8e4:	02 02       	mova	#4,	r2	;r2 As==10
     8e6:	3a 03 a5 7f 	mova	#1,	r10	;r3 As==01
     8ea:	01 00       	mova	@r0,	r1	
     8ec:	03 02       	.word	0x0203;	????	Illegal as address instr
     8ee:	06 3a       	jl	$-1010   	;abs 0x4fc
     8f0:	16 00       	mova	#0x00000,r6	
     8f2:	03 02       	.word	0x0203;	????	Illegal as address instr
     8f4:	0e 3a       	jl	$-994    	;abs 0x512
     8f6:	16 00       	mova	#0x00000,r6	
     8f8:	03 02       	.word	0x0203;	????	Illegal as address instr
     8fa:	14 3a       	jl	$-982    	;abs 0x524
     8fc:	6b 00 03 02 	mova	r0,	&0xb0203
     900:	16 3a       	jl	$-978    	;abs 0x52e
     902:	01 00       	mova	@r0,	r1	
     904:	03 02       	.word	0x0203;	????	Illegal as address instr
     906:	20 3a       	jl	$-958    	;abs 0x548
     908:	03 8c       	.word	0x8c03;	????	Illegal as 2-op instr
     90a:	7f 01 00 03 	mova	r1,	768(r15);0x0300(r15)
     90e:	02 26       	jz	$-1018   	;abs 0x514
     910:	3a 15       	pushm	#4,	r10	
     912:	00 03       	bra	#2		;r3 As==10
     914:	02 2e       	jc	$-1018   	;abs 0x51a
     916:	3a 24       	jz	$+118    	;abs 0x98c
     918:	00 03       	bra	#2		;r3 As==10
     91a:	02 38       	jl	$+6      	;abs 0x920
     91c:	3a 15       	pushm	#4,	r10	
     91e:	00 03       	bra	#2		;r3 As==10
     920:	02 3e       	jmp	$-1018   	;abs 0x526
     922:	3a 7b       	subc	@r11+,	r10	
     924:	00 03       	bra	#2		;r3 As==10
     926:	02 44       	mov	r4,	r2	
     928:	3a 17       	popm	#4,	r13	
     92a:	00 03       	bra	#2		;r3 As==10
     92c:	02 46       	mov	r6,	r2	
     92e:	3a 03 f2 7e 	mova	#1,	r10	;r3 As==01
     932:	01 00       	mova	@r0,	r1	
     934:	03 02       	.word	0x0203;	????	Illegal as address instr
     936:	4c 3a       	jl	$-870    	;abs 0x5d0
     938:	15 00       	mova	#0x00000,r5	
     93a:	03 02       	.word	0x0203;	????	Illegal as address instr
     93c:	54 3a       	jl	$-854    	;abs 0x5e6
     93e:	a5 00 03 02 	adda	#0x00203,r5	
     942:	5a 3a       	jl	$-842    	;abs 0x5f8
     944:	03 99       	.word	0x9903;	????	Illegal as 2-op instr
     946:	7f 01 00 03 	mova	r1,	768(r15);0x0300(r15)
     94a:	02 5e       	add	r14,	r2	
     94c:	3a 16       	popm.a	#4,	r13	
     94e:	00 03       	bra	#2		;r3 As==10
     950:	02 66       	addc	r6,	r2	
     952:	3a 16       	popm.a	#4,	r13	
     954:	00 03       	bra	#2		;r3 As==10
     956:	02 6c       	addc	r12,	r2	
     958:	3a 77       	subc	@r7+,	r10	
     95a:	00 03       	bra	#2		;r3 As==10
     95c:	02 6e       	addc	r14,	r2	
     95e:	3a 01 00 03 	mova	768(r1),r10	;0x0300(r1)
     962:	02 78       	subc	r8,	r2	
     964:	3a 03 80 7f 	mova	#1,	r10	;r3 As==01
     968:	01 00       	mova	@r0,	r1	
     96a:	03 02       	.word	0x0203;	????	Illegal as address instr
     96c:	7e 3a       	jl	$-770    	;abs 0x66a
     96e:	15 00       	mova	#0x00000,r5	
     970:	03 02       	.word	0x0203;	????	Illegal as address instr
     972:	86 3a       	jl	$-754    	;abs 0x680
     974:	24 00 03 02 	mova	&0x00203,r4	
     978:	90 3a       	jl	$-734    	;abs 0x69a
     97a:	15 00       	mova	#0x00000,r5	
     97c:	03 02       	.word	0x0203;	????	Illegal as address instr
     97e:	96 3a       	jl	$-722    	;abs 0x6ac
     980:	87 00 03 02 	mova	#0x00203,r7	
     984:	9c 3a       	jl	$-710    	;abs 0x6be
     986:	0f 00       	mova	@r0,	r15	
     988:	03 02       	.word	0x0203;	????	Illegal as address instr
     98a:	a0 3a       	jl	$-702    	;abs 0x6cc
     98c:	1c 00       	mova	#0x00000,r12	
     98e:	03 02       	.word	0x0203;	????	Illegal as address instr
     990:	a6 3a       	jl	$-690    	;abs 0x6de
     992:	17 00       	mova	#0x00000,r7	
     994:	03 02       	.word	0x0203;	????	Illegal as address instr
     996:	aa 3a       	jl	$-682    	;abs 0x6ec
     998:	16 00       	mova	#0x00000,r6	
     99a:	03 02       	.word	0x0203;	????	Illegal as address instr
     99c:	b4 3a       	jl	$-662    	;abs 0x706
     99e:	15 00       	mova	#0x00000,r5	
     9a0:	03 02       	.word	0x0203;	????	Illegal as address instr
     9a2:	bc 3a       	jl	$-646    	;abs 0x71c
     9a4:	15 00       	mova	#0x00000,r5	
     9a6:	03 02       	.word	0x0203;	????	Illegal as address instr
     9a8:	c2 3a       	jl	$-634    	;abs 0x72e
     9aa:	16 00       	mova	#0x00000,r6	
     9ac:	03 02       	.word	0x0203;	????	Illegal as address instr
     9ae:	c6 3a       	jl	$-626    	;abs 0x73c
     9b0:	03 80       	.word	0x8003;	????	Illegal as 2-op instr
     9b2:	7f 01 00 03 	mova	r1,	768(r15);0x0300(r15)
     9b6:	02 d0       	bis	r0,	r2	
     9b8:	3a 15       	pushm	#4,	r10	
     9ba:	00 03       	bra	#2		;r3 As==10
     9bc:	02 d6       	bis	r6,	r2	
     9be:	3a 97       	cmp	@r7+,	r10	
     9c0:	00 03       	bra	#2		;r3 As==10
     9c2:	02 de       	bis	r14,	r2	
     9c4:	3a 0c 00 03 	mova	768(r12),r10	;0x0300(r12)
     9c8:	02 e2       	xor	r2,	r2	
     9ca:	3a 1f       	.word	0x1f3a;	????	
     9cc:	00 03       	bra	#2		;r3 As==10
     9ce:	02 ec       	xor	r12,	r2	
     9d0:	3a 17       	popm	#4,	r13	
     9d2:	00 03       	bra	#2		;r3 As==10
     9d4:	02 f0       	and	r0,	r2	
     9d6:	3a 18       	.word	0x183a;	????	
     9d8:	00 03       	bra	#2		;r3 As==10
     9da:	02 f6       	and	r6,	r2	
     9dc:	3a 17       	popm	#4,	r13	
     9de:	00 03       	bra	#2		;r3 As==10
     9e0:	02 fc       	and	r12,	r2	
     9e2:	3a 16       	popm.a	#4,	r13	
     9e4:	00 03       	bra	#2		;r3 As==10
     9e6:	02 04       	mova	@r4,	r2	
     9e8:	3b 16       	popm.a	#4,	r14	
     9ea:	00 03       	bra	#2		;r3 As==10
     9ec:	02 0a       	mova	@r10,	r2	
     9ee:	3b 0d 00 03 	mova	768(r13),r11	;0x0300(r13)
     9f2:	02 0e       	mova	@r14,	r2	
     9f4:	3b 01 00 03 	mova	768(r1),r11	;0x0300(r1)
     9f8:	02 18       	.word	0x1802;	????	
     9fa:	3b 01 00 03 	mova	768(r1),r11	;0x0300(r1)
     9fe:	02 1a       	.word	0x1a02;	????	
     a00:	3b 1f       	.word	0x1f3b;	????	
     a02:	00 03       	bra	#2		;r3 As==10
     a04:	02 1e       	.word	0x1e02;	????	
     a06:	3b 03 e7 7e 	mova	#1,	r11	;r3 As==01
     a0a:	01 00       	mova	@r0,	r1	
     a0c:	03 02       	.word	0x0203;	????	Illegal as address instr
     a0e:	28 3b       	jl	$-430    	;abs 0x860
     a10:	15 00       	mova	#0x00000,r5	
     a12:	03 02       	.word	0x0203;	????	Illegal as address instr
     a14:	2e 3b       	jl	$-418    	;abs 0x872
     a16:	b0 00 03 02 	suba	#0x00203,r0	
     a1a:	38 3b       	jl	$-398    	;abs 0x88c
     a1c:	03 71       	.word	0x7103;	????	Illegal as 2-op instr
     a1e:	01 00       	mova	@r0,	r1	
     a20:	03 02       	.word	0x0203;	????	Illegal as address instr
     a22:	3c 3b       	jl	$-390    	;abs 0x89c
     a24:	27 00 03 02 	mova	&0x00203,r7	
     a28:	42 3b       	jl	$-378    	;abs 0x8ae
     a2a:	03 bc       	.word	0xbc03;	????	Illegal as 2-op instr
     a2c:	7e 01 00 03 	mova	r1,	768(r14);0x0300(r14)
     a30:	02 48       	mov	r8,	r2	
     a32:	3b 15       	pushm	#4,	r11	
     a34:	00 03       	bra	#2		;r3 As==10
     a36:	02 50       	add	r0,	r2	
     a38:	3b 3e       	jmp	$-904    	;abs 0x6b0
     a3a:	00 03       	bra	#2		;r3 As==10
     a3c:	02 54       	add	r4,	r2	
     a3e:	3b 16       	popm.a	#4,	r14	
     a40:	00 03       	bra	#2		;r3 As==10
     a42:	02 5c       	add	r12,	r2	
     a44:	3b 16       	popm.a	#4,	r14	
     a46:	00 03       	bra	#2		;r3 As==10
     a48:	02 62       	rlc	r2		
     a4a:	3b ae       	dadd	@r14+,	r11	
     a4c:	00 03       	bra	#2		;r3 As==10
     a4e:	02 66       	addc	r6,	r2	
     a50:	3b 16       	popm.a	#4,	r14	
     a52:	00 03       	bra	#2		;r3 As==10
     a54:	02 6e       	addc	r14,	r2	
     a56:	3b 01 00 03 	mova	768(r1),r11	;0x0300(r1)
     a5a:	02 70       	subc	r0,	r2	
     a5c:	3b 15       	pushm	#4,	r11	
     a5e:	00 03       	bra	#2		;r3 As==10
     a60:	02 78       	subc	r8,	r2	
     a62:	3b 15       	pushm	#4,	r11	
     a64:	00 03       	bra	#2		;r3 As==10
     a66:	02 7e       	subc	r14,	r2	
     a68:	3b 16       	popm.a	#4,	r14	
     a6a:	00 03       	bra	#2		;r3 As==10
     a6c:	02 82       	sub	r2,	r2	
     a6e:	3b 03 d4 7e 	mova	#1,	r11	;r3 As==01
     a72:	01 00       	mova	@r0,	r1	
     a74:	03 02       	.word	0x0203;	????	Illegal as address instr
     a76:	8c 3b       	jl	$-230    	;abs 0x990
     a78:	15 00       	mova	#0x00000,r5	
     a7a:	03 02       	.word	0x0203;	????	Illegal as address instr
     a7c:	92 3b       	jl	$-218    	;abs 0x9a2
     a7e:	c3 00       	.word	0x00c3;	????	Illegal as address instr
     a80:	03 02       	.word	0x0203;	????	Illegal as address instr
     a82:	9a 3b       	jl	$-202    	;abs 0x9b8
     a84:	17 00       	mova	#0x00000,r7	
     a86:	03 02       	.word	0x0203;	????	Illegal as address instr
     a88:	a8 3b       	jl	$-174    	;abs 0x9da
     a8a:	03 aa       	.word	0xaa03;	????	Illegal as 2-op instr
     a8c:	7e 01 00 03 	mova	r1,	768(r14);0x0300(r14)
     a90:	02 ae       	dadd	r14,	r2	
     a92:	3b 15       	pushm	#4,	r11	
     a94:	00 03       	bra	#2		;r3 As==10
     a96:	02 b6       	bit	r6,	r2	
     a98:	3b 3e       	jmp	$-904    	;abs 0x710
     a9a:	00 03       	bra	#2		;r3 As==10
     a9c:	02 ba       	bit	r10,	r2	
     a9e:	3b 16       	popm.a	#4,	r14	
     aa0:	00 03       	bra	#2		;r3 As==10
     aa2:	02 c2       	bic	r2,	r2	
     aa4:	3b 16       	popm.a	#4,	r14	
     aa6:	00 03       	bra	#2		;r3 As==10
     aa8:	02 c8       	bic	r8,	r2	
     aaa:	3b c0 00 03 	bic	#768,	r11	;#0x0300
     aae:	02 cc       	bic	r12,	r2	
     ab0:	3b 18       	.word	0x183b;	????	
     ab2:	00 03       	bra	#2		;r3 As==10
     ab4:	02 d6       	bis	r6,	r2	
     ab6:	3b 17       	popm	#4,	r14	
     ab8:	00 03       	bra	#2		;r3 As==10
     aba:	02 dc       	bis	r12,	r2	
     abc:	3b 16       	popm.a	#4,	r14	
     abe:	00 03       	bra	#2		;r3 As==10
     ac0:	02 e4       	xor	r4,	r2	
     ac2:	3b 16       	popm.a	#4,	r14	
     ac4:	00 03       	bra	#2		;r3 As==10
     ac6:	02 ea       	xor	r10,	r2	
     ac8:	3b 0d 00 03 	mova	768(r13),r11	;0x0300(r13)
     acc:	02 ee       	xor	r14,	r2	
     ace:	3b 01 00 03 	mova	768(r1),r11	;0x0300(r1)
     ad2:	02 f8       	and	r8,	r2	
     ad4:	3b 1f       	.word	0x1f3b;	????	
     ad6:	00 03       	bra	#2		;r3 As==10
     ad8:	02 fc       	and	r12,	r2	
     ada:	3b 03 b9 7e 	mova	#1,	r11	;r3 As==01
     ade:	01 00       	mova	@r0,	r1	
     ae0:	03 02       	.word	0x0203;	????	Illegal as address instr
     ae2:	06 3c       	jmp	$+14     	;abs 0xaf0
     ae4:	15 00       	mova	#0x00000,r5	
     ae6:	03 02       	.word	0x0203;	????	Illegal as address instr
     ae8:	0c 3c       	jmp	$+26     	;abs 0xb02
     aea:	de 00       	cmpa	r0,	r14	
     aec:	03 02       	.word	0x0203;	????	Illegal as address instr
     aee:	1a 3c       	jmp	$+54     	;abs 0xb24
     af0:	03 74       	.word	0x7403;	????	Illegal as 2-op instr
     af2:	01 00       	mova	@r0,	r1	
     af4:	03 02       	.word	0x0203;	????	Illegal as address instr
     af6:	1e 3c       	jmp	$+62     	;abs 0xb34
     af8:	23 00       	.word	0x0023;	????	Illegal as address instr
     afa:	03 02       	.word	0x0203;	????	Illegal as address instr
     afc:	24 3c       	jmp	$+74     	;abs 0xb46
     afe:	03 8f       	.word	0x8f03;	????	Illegal as 2-op instr
     b00:	7e 01 00 03 	mova	r1,	768(r14);0x0300(r14)
     b04:	02 2a       	jnc	$-1018   	;abs 0x70a
     b06:	3c 15       	pushm	#4,	r12	
     b08:	00 03       	bra	#2		;r3 As==10
     b0a:	02 32       	jn	$-1018   	;abs 0x710
     b0c:	3c 3e       	jmp	$-902    	;abs 0x786
     b0e:	00 03       	bra	#2		;r3 As==10
     b10:	02 36       	jge	$-1018   	;abs 0x716
     b12:	3c 16       	popm.a	#4,	r15	
     b14:	00 03       	bra	#2		;r3 As==10
     b16:	02 3e       	jmp	$-1018   	;abs 0x71c
     b18:	3c 16       	popm.a	#4,	r15	
     b1a:	00 03       	bra	#2		;r3 As==10
     b1c:	02 44       	mov	r4,	r2	
     b1e:	3c 10       	rrc	@r12+		
     b20:	00 03       	bra	#2		;r3 As==10
     b22:	02 48       	mov	r8,	r2	
     b24:	3c 16       	popm.a	#4,	r15	
     b26:	00 03       	bra	#2		;r3 As==10
     b28:	02 50       	add	r0,	r2	
     b2a:	3c 16       	popm.a	#4,	r15	
     b2c:	00 03       	bra	#2		;r3 As==10
     b2e:	02 56       	add	r6,	r2	
     b30:	3c db       	bis	@r11+,	r12	
     b32:	00 03       	bra	#2		;r3 As==10
     b34:	02 58       	add	r8,	r2	
     b36:	3c 15       	pushm	#4,	r12	
     b38:	00 03       	bra	#2		;r3 As==10
     b3a:	02 5c       	add	r12,	r2	
     b3c:	3c 16       	popm.a	#4,	r15	
     b3e:	00 03       	bra	#2		;r3 As==10
     b40:	02 64       	addc	r4,	r2	
     b42:	3c 01 00 03 	mova	768(r1),r12	;0x0300(r1)
     b46:	02 66       	addc	r6,	r2	
     b48:	3c 15       	pushm	#4,	r12	
     b4a:	00 03       	bra	#2		;r3 As==10
     b4c:	02 6e       	addc	r14,	r2	
     b4e:	3c 15       	pushm	#4,	r12	
     b50:	00 03       	bra	#2		;r3 As==10
     b52:	02 74       	subc	r4,	r2	
     b54:	3c 16       	popm.a	#4,	r15	
     b56:	00 03       	bra	#2		;r3 As==10
     b58:	02 78       	subc	r8,	r2	
     b5a:	3c 03 a6 7e 	mova	#1,	r12	;r3 As==01
     b5e:	01 00       	mova	@r0,	r1	
     b60:	03 02       	.word	0x0203;	????	Illegal as address instr
     b62:	82 3c       	jmp	$+262    	;abs 0xc68
     b64:	15 00       	mova	#0x00000,r5	
     b66:	03 02       	.word	0x0203;	????	Illegal as address instr
     b68:	88 3c       	jmp	$+274    	;abs 0xc7a
     b6a:	f1 00       	suba	r0,	r1	
     b6c:	03 02       	.word	0x0203;	????	Illegal as address instr
     b6e:	90 3c       	jmp	$+290    	;abs 0xc90
     b70:	17 00       	mova	#0x00000,r7	
     b72:	03 02       	.word	0x0203;	????	Illegal as address instr
     b74:	9e 3c       	jmp	$+318    	;abs 0xcb2
     b76:	03 fc       	.word	0xfc03;	????	Illegal as 2-op instr
     b78:	7d 01 00 03 	mova	r1,	768(r13);0x0300(r13)
     b7c:	02 a4       	dadd	r4,	r2	
     b7e:	3c 15       	pushm	#4,	r12	
     b80:	00 03       	bra	#2		;r3 As==10
     b82:	02 ac       	dadd	r12,	r2	
     b84:	3c 3e       	jmp	$-902    	;abs 0x7fe
     b86:	00 03       	bra	#2		;r3 As==10
     b88:	02 b0       	bit	r0,	r2	
     b8a:	3c 16       	popm.a	#4,	r15	
     b8c:	00 03       	bra	#2		;r3 As==10
     b8e:	02 b8       	bit	r8,	r2	
     b90:	3c 16       	popm.a	#4,	r15	
     b92:	00 03       	bra	#2		;r3 As==10
     b94:	02 be       	bit	r14,	r2	
     b96:	3c 10       	rrc	@r12+		
     b98:	00 03       	bra	#2		;r3 As==10
     b9a:	02 c2       	bic	r2,	r2	
     b9c:	3c 16       	popm.a	#4,	r15	
     b9e:	00 03       	bra	#2		;r3 As==10
     ba0:	02 ca       	bic	r10,	r2	
     ba2:	3c 16       	popm.a	#4,	r15	
     ba4:	00 03       	bra	#2		;r3 As==10
     ba6:	02 d0       	bis	r0,	r2	
     ba8:	3c ee       	xor	@r14+,	r12	
     baa:	00 03       	bra	#2		;r3 As==10
     bac:	02 d2       	bis	r2,	r2	
     bae:	3c 15       	pushm	#4,	r12	
     bb0:	00 03       	bra	#2		;r3 As==10
     bb2:	02 d6       	bis	r6,	r2	
     bb4:	3c 18       	.word	0x183c;	????	
     bb6:	00 03       	bra	#2		;r3 As==10
     bb8:	02 e0       	xor	r0,	r2	
     bba:	3c 17       	popm	#4,	r15	
     bbc:	00 03       	bra	#2		;r3 As==10
     bbe:	02 e6       	xor	r6,	r2	
     bc0:	3c 16       	popm.a	#4,	r15	
     bc2:	00 03       	bra	#2		;r3 As==10
     bc4:	02 ee       	xor	r14,	r2	
     bc6:	3c 16       	popm.a	#4,	r15	
     bc8:	00 03       	bra	#2		;r3 As==10
     bca:	02 f4       	and	r4,	r2	
     bcc:	3c 0d 00 03 	mova	768(r13),r12	;0x0300(r13)
     bd0:	02 f8       	and	r8,	r2	
     bd2:	3c 01 00 03 	mova	768(r1),r12	;0x0300(r1)
     bd6:	02 02       	mova	#4,	r2	;r2 As==10
     bd8:	3d 1f       	.word	0x1f3d;	????	
     bda:	00 03       	bra	#2		;r3 As==10
     bdc:	02 06       	mova	@r6,	r2	
     bde:	3d 03 8a 7e 	mova	#1,	r13	;r3 As==01
     be2:	01 00       	mova	@r0,	r1	
     be4:	03 02       	.word	0x0203;	????	Illegal as address instr
     be6:	10 3d       	jmp	$+546    	;abs 0xe08
     be8:	15 00       	mova	#0x00000,r5	
     bea:	03 02       	.word	0x0203;	????	Illegal as address instr
     bec:	16 3d       	jmp	$+558    	;abs 0xe1a
     bee:	03 f9       	.word	0xf903;	????	Illegal as 2-op instr
     bf0:	01 01       	mova	@r1,	r1	
     bf2:	00 03       	bra	#2		;r3 As==10
     bf4:	02 24       	jz	$+6      	;abs 0xbfa
     bf6:	3d 03 74 01 	mova	#1,	r13	;r3 As==01
     bfa:	00 03       	bra	#2		;r3 As==10
     bfc:	02 28       	jnc	$+6      	;abs 0xc02
     bfe:	3d 23       	jnz	$-388    	;abs 0xa7a
     c00:	00 03       	bra	#2		;r3 As==10
     c02:	02 28       	jnc	$+6      	;abs 0xc08
     c04:	3d 03 d8 7d 	mova	#1,	r13	;r3 As==01
     c08:	01 00       	mova	@r0,	r1	
     c0a:	03 02       	.word	0x0203;	????	Illegal as address instr
     c0c:	36 3d       	jmp	$+622    	;abs 0xe7a
     c0e:	03 aa       	.word	0xaa03;	????	Illegal as 2-op instr
     c10:	02 01       	mova	@r1,	r2	
     c12:	00 03       	bra	#2		;r3 As==10
     c14:	02 3a       	jl	$-1018   	;abs 0x81a
     c16:	3d 15       	pushm	#4,	r13	
     c18:	00 03       	bra	#2		;r3 As==10
     c1a:	02 3c       	jmp	$+6      	;abs 0xc20
     c1c:	3d 00 01 01 	mova	0x0101,	r13	;PC rel. 0x00d1f
     c20:	7e 01 00 00 	mova	r1,	0(r14)	;0x0000(r14)
     c24:	02 00       	mova	@r0,	r2	
     c26:	7a 00 00 00 	mova	r0,	0(r10)	;0x0000(r10)
     c2a:	01 01       	mova	@r1,	r1	
     c2c:	f6 f5 0a 00 	and.b	@r5+,	10(r6)	;0x000a(r6)
     c30:	01 01       	mova	@r1,	r1	
     c32:	01 01       	mova	@r1,	r1	
     c34:	00 00       	bra	@r0		
     c36:	00 01       	bra	@r1		
     c38:	63 3a       	jl	$-824    	;abs 0x900
     c3a:	5c 6d 73 70 	addc.b	28787(r13),r12	;0x7073(r13)
     c3e:	67 63       	addc.b	#2,	r7	;r3 As==10
     c40:	63 5c       	.word	0x5c63;	????	Illegal as 2-op instr
     c42:	62 69       	addc.b	@r9,	r2	
     c44:	6e 5c       	add.b	@r12,	r14	
     c46:	2e 2e       	jc	$-930    	;abs 0x8a4
     c48:	2f 6c       	addc	@r12,	r15	
     c4a:	69 62       	addc.b	#4,	r9	;r2 As==10
     c4c:	2f 67       	addc	@r7,	r15	
     c4e:	63 63       	.word	0x6363;	????	Illegal as 2-op instr
     c50:	2f 6d       	addc	@r13,	r15	
     c52:	73 70       	.word	0x7073;	????	Illegal as 2-op instr
     c54:	34 33       	jn	$-406    	;abs 0xabe
     c56:	30 2f       	jc	$-414    	;abs 0xab8
     c58:	34 2e       	jc	$-918    	;abs 0x8c2
     c5a:	35 2e       	jc	$-916    	;abs 0x8c6
     c5c:	33 2f       	jc	$-408    	;abs 0xac4
     c5e:	2e 2e       	jc	$-930    	;abs 0x8bc
     c60:	2f 2e       	jc	$-928    	;abs 0x8c0
     c62:	2e 2f       	jc	$-418    	;abs 0xac0
     c64:	2e 2e       	jc	$-930    	;abs 0x8c2
     c66:	2f 2e       	jc	$-928    	;abs 0x8c6
     c68:	2e 2f       	jc	$-418    	;abs 0xac6
     c6a:	6d 73       	subc.b	#2,	r13	;r3 As==10
     c6c:	70 34       	jge	$+226    	;abs 0xd4e
     c6e:	33 30       	jn	$+104    	;abs 0xcd6
     c70:	2f 69       	addc	@r9,	r15	
     c72:	6e 63       	addc.b	#2,	r14	;r3 As==10
     c74:	6c 75       	subc.b	@r5,	r12	
     c76:	64 65       	addc.b	@r5,	r4	
     c78:	00 00       	bra	@r0		
     c7a:	61 6e       	addc.b	@r14,	r1	
     c7c:	61 6c       	addc.b	@r12,	r1	
     c7e:	6f 67       	addc.b	@r7,	r15	
     c80:	2e 63       	addc	#2,	r14	;r3 As==10
     c82:	00 00       	bra	@r0		
     c84:	00 00       	bra	@r0		
     c86:	6d 73       	subc.b	#2,	r13	;r3 As==10
     c88:	70 34       	jge	$+226    	;abs 0xd6a
     c8a:	33 30       	jn	$+104    	;abs 0xcf2
     c8c:	66 32       	jn	$-818    	;abs 0x95a
     c8e:	36 31       	jn	$+622    	;abs 0xefc
     c90:	38 2e       	jc	$-910    	;abs 0x902
     c92:	68 00 01 00 	mova	r0,	&0x80001
     c96:	00 61       	addc	r1,	r0	
     c98:	6e 61       	addc.b	@r1,	r14	
     c9a:	6c 6f       	addc.b	@r15,	r12	
     c9c:	67 2e       	jc	$-816    	;abs 0x96c
     c9e:	68 00 00 00 	mova	r0,	&0x80000
     ca2:	00 00       	bra	@r0		
     ca4:	00 03       	bra	#2		;r3 As==10
     ca6:	02 3c       	jmp	$+6      	;abs 0xcac
     ca8:	3d 1b       	.word	0x1b3d;	????	
     caa:	00 03       	bra	#2		;r3 As==10
     cac:	02 3c       	jmp	$+6      	;abs 0xcb2
     cae:	3d 15       	pushm	#4,	r13	
     cb0:	00 03       	bra	#2		;r3 As==10
     cb2:	02 40       	mov	r0,	r2	
     cb4:	3d 16       	popm.a	#4,	r0	
     cb6:	00 03       	bra	#2		;r3 As==10
     cb8:	02 46       	mov	r6,	r2	
     cba:	3d 15       	pushm	#4,	r13	
     cbc:	00 03       	bra	#2		;r3 As==10
     cbe:	02 4c       	mov	r12,	r2	
     cc0:	3d 15       	pushm	#4,	r13	
     cc2:	00 03       	bra	#2		;r3 As==10
     cc4:	02 52       	rla	r2		
     cc6:	3d 15       	pushm	#4,	r13	
     cc8:	00 03       	bra	#2		;r3 As==10
     cca:	02 56       	add	r6,	r2	
     ccc:	3d 15       	pushm	#4,	r13	
     cce:	00 03       	bra	#2		;r3 As==10
     cd0:	02 58       	add	r8,	r2	
     cd2:	3d 16       	popm.a	#4,	r0	
     cd4:	00 03       	bra	#2		;r3 As==10
     cd6:	02 60       	addc	r0,	r2	
     cd8:	3d 17       	popm	#4,	r0	
     cda:	00 03       	bra	#2		;r3 As==10
     cdc:	02 74       	subc	r4,	r2	
     cde:	3d 15       	pushm	#4,	r13	
     ce0:	00 03       	bra	#2		;r3 As==10
     ce2:	02 84       	sub	r4,	r2	
     ce4:	3d 16       	popm.a	#4,	r0	
     ce6:	00 03       	bra	#2		;r3 As==10
     ce8:	02 8a       	sub	r10,	r2	
     cea:	3d 15       	pushm	#4,	r13	
     cec:	00 03       	bra	#2		;r3 As==10
     cee:	02 8e       	sub	r14,	r2	
     cf0:	3d 15       	pushm	#4,	r13	
     cf2:	00 03       	bra	#2		;r3 As==10
     cf4:	02 92       	cmp	r2,	r2	
     cf6:	3d 15       	pushm	#4,	r13	
     cf8:	00 03       	bra	#2		;r3 As==10
     cfa:	02 96       	cmp	r6,	r2	
     cfc:	3d 15       	pushm	#4,	r13	
     cfe:	00 03       	bra	#2		;r3 As==10
     d00:	02 9e       	cmp	r14,	r2	
     d02:	3d 15       	pushm	#4,	r13	
     d04:	00 03       	bra	#2		;r3 As==10
     d06:	02 a6       	dadd	r6,	r2	
     d08:	3d 15       	pushm	#4,	r13	
     d0a:	00 03       	bra	#2		;r3 As==10
     d0c:	02 b2       	bit	r2,	r2	
     d0e:	3d 0d 00 03 	mova	768(r13),r13	;0x0300(r13)
     d12:	02 b6       	bit	r6,	r2	
     d14:	3d 1d       	.word	0x1d3d;	????	
     d16:	00 03       	bra	#2		;r3 As==10
     d18:	02 c0       	bic	r0,	r2	
     d1a:	3d 16       	popm.a	#4,	r0	
     d1c:	00 03       	bra	#2		;r3 As==10
     d1e:	02 ca       	bic	r10,	r2	
     d20:	3d 16       	popm.a	#4,	r0	
     d22:	00 03       	bra	#2		;r3 As==10
     d24:	02 ca       	bic	r10,	r2	
     d26:	3d 16       	popm.a	#4,	r0	
     d28:	00 03       	bra	#2		;r3 As==10
     d2a:	02 d0       	bis	r0,	r2	
     d2c:	3d 15       	pushm	#4,	r13	
     d2e:	00 03       	bra	#2		;r3 As==10
     d30:	02 e4       	xor	r4,	r2	
     d32:	3d 15       	pushm	#4,	r13	
     d34:	00 03       	bra	#2		;r3 As==10
     d36:	02 ea       	xor	r10,	r2	
     d38:	3d 15       	pushm	#4,	r13	
     d3a:	00 03       	bra	#2		;r3 As==10
     d3c:	02 ee       	xor	r14,	r2	
     d3e:	3d 15       	pushm	#4,	r13	
     d40:	00 03       	bra	#2		;r3 As==10
     d42:	02 f2       	and	r2,	r2	
     d44:	3d 15       	pushm	#4,	r13	
     d46:	00 03       	bra	#2		;r3 As==10
     d48:	02 f6       	and	r6,	r2	
     d4a:	3d 15       	pushm	#4,	r13	
     d4c:	00 03       	bra	#2		;r3 As==10
     d4e:	02 fc       	and	r12,	r2	
     d50:	3d 15       	pushm	#4,	r13	
     d52:	00 03       	bra	#2		;r3 As==10
     d54:	02 02       	mova	#4,	r2	;r2 As==10
     d56:	3e 0d 00 03 	mova	768(r13),r14	;0x0300(r13)
     d5a:	02 0a       	mova	@r10,	r2	
     d5c:	3e 21       	jnz	$+638    	;abs 0xfda
     d5e:	00 03       	bra	#2		;r3 As==10
     d60:	02 0c       	mova	@r12,	r2	
     d62:	3e 11       	rra	@r14+		
     d64:	00 03       	bra	#2		;r3 As==10
     d66:	02 12       	push	r2		
     d68:	3e 19       	.word	0x193e;	????	
     d6a:	00 03       	bra	#2		;r3 As==10
     d6c:	02 12       	push	r2		
     d6e:	3e 15       	pushm	#4,	r14	
     d70:	00 03       	bra	#2		;r3 As==10
     d72:	02 26       	jz	$-1018   	;abs 0x978
     d74:	3e 15       	pushm	#4,	r14	
     d76:	00 03       	bra	#2		;r3 As==10
     d78:	02 2c       	jc	$+6      	;abs 0xd7e
     d7a:	3e 15       	pushm	#4,	r14	
     d7c:	00 03       	bra	#2		;r3 As==10
     d7e:	02 30       	jn	$+6      	;abs 0xd84
     d80:	3e 15       	pushm	#4,	r14	
     d82:	00 03       	bra	#2		;r3 As==10
     d84:	02 34       	jge	$+6      	;abs 0xd8a
     d86:	3e 15       	pushm	#4,	r14	
     d88:	00 03       	bra	#2		;r3 As==10
     d8a:	02 38       	jl	$+6      	;abs 0xd90
     d8c:	3e 15       	pushm	#4,	r14	
     d8e:	00 03       	bra	#2		;r3 As==10
     d90:	02 3e       	jmp	$-1018   	;abs 0x996
     d92:	3e 15       	pushm	#4,	r14	
     d94:	00 03       	bra	#2		;r3 As==10
     d96:	02 48       	mov	r8,	r2	
     d98:	3e 17       	popm	#4,	r1	
     d9a:	00 03       	bra	#2		;r3 As==10
     d9c:	02 50       	add	r0,	r2	
     d9e:	3e 00 01 01 	mova	0x0101,	r14	;PC rel. 0x00ea1
     da2:	d4 00       	cmpa	r0,	r4	
     da4:	00 00       	bra	@r0		
     da6:	02 00       	mova	@r0,	r2	
     da8:	6c 00 00 00 	mova	r0,	&0xc0000
     dac:	01 01       	mova	@r1,	r1	
     dae:	f6 f5 0a 00 	and.b	@r5+,	10(r6)	;0x000a(r6)
     db2:	01 01       	mova	@r1,	r1	
     db4:	01 01       	mova	@r1,	r1	
     db6:	00 00       	bra	@r0		
     db8:	00 01       	bra	@r1		
     dba:	63 3a       	jl	$-824    	;abs 0xa82
     dbc:	5c 6d 73 70 	addc.b	28787(r13),r12	;0x7073(r13)
     dc0:	67 63       	addc.b	#2,	r7	;r3 As==10
     dc2:	63 5c       	.word	0x5c63;	????	Illegal as 2-op instr
     dc4:	62 69       	addc.b	@r9,	r2	
     dc6:	6e 5c       	add.b	@r12,	r14	
     dc8:	2e 2e       	jc	$-930    	;abs 0xa26
     dca:	2f 6c       	addc	@r12,	r15	
     dcc:	69 62       	addc.b	#4,	r9	;r2 As==10
     dce:	2f 67       	addc	@r7,	r15	
     dd0:	63 63       	.word	0x6363;	????	Illegal as 2-op instr
     dd2:	2f 6d       	addc	@r13,	r15	
     dd4:	73 70       	.word	0x7073;	????	Illegal as 2-op instr
     dd6:	34 33       	jn	$-406    	;abs 0xc40
     dd8:	30 2f       	jc	$-414    	;abs 0xc3a
     dda:	34 2e       	jc	$-918    	;abs 0xa44
     ddc:	35 2e       	jc	$-916    	;abs 0xa48
     dde:	33 2f       	jc	$-408    	;abs 0xc46
     de0:	2e 2e       	jc	$-930    	;abs 0xa3e
     de2:	2f 2e       	jc	$-928    	;abs 0xa42
     de4:	2e 2f       	jc	$-418    	;abs 0xc42
     de6:	2e 2e       	jc	$-930    	;abs 0xa44
     de8:	2f 2e       	jc	$-928    	;abs 0xa48
     dea:	2e 2f       	jc	$-418    	;abs 0xc48
     dec:	6d 73       	subc.b	#2,	r13	;r3 As==10
     dee:	70 34       	jge	$+226    	;abs 0xed0
     df0:	33 30       	jn	$+104    	;abs 0xe58
     df2:	2f 69       	addc	@r9,	r15	
     df4:	6e 63       	addc.b	#2,	r14	;r3 As==10
     df6:	6c 75       	subc.b	@r5,	r12	
     df8:	64 65       	addc.b	@r5,	r4	
     dfa:	00 00       	bra	@r0		
     dfc:	75 61       	addc.b	@r1+,	r5	
     dfe:	72 74       	subc.b	@r4+,	r2	
     e00:	2e 63       	addc	#2,	r14	;r3 As==10
     e02:	00 00       	bra	@r0		
     e04:	00 00       	bra	@r0		
     e06:	6d 73       	subc.b	#2,	r13	;r3 As==10
     e08:	70 34       	jge	$+226    	;abs 0xeea
     e0a:	33 30       	jn	$+104    	;abs 0xe72
     e0c:	66 32       	jn	$-818    	;abs 0xada
     e0e:	36 31       	jn	$+622    	;abs 0x107c
     e10:	39 2e       	jc	$-908    	;abs 0xa84
     e12:	68 00 01 00 	mova	r0,	&0x80001
     e16:	00 00       	bra	@r0		
     e18:	00 03       	bra	#2		;r3 As==10
     e1a:	02 50       	add	r0,	r2	
     e1c:	3e 18       	.word	0x183e;	????	
     e1e:	00 03       	bra	#2		;r3 As==10
     e20:	02 50       	add	r0,	r2	
     e22:	3e 15       	pushm	#4,	r14	
     e24:	00 03       	bra	#2		;r3 As==10
     e26:	02 54       	add	r4,	r2	
     e28:	3e 15       	pushm	#4,	r14	
     e2a:	00 03       	bra	#2		;r3 As==10
     e2c:	02 58       	add	r8,	r2	
     e2e:	3e 15       	pushm	#4,	r14	
     e30:	00 03       	bra	#2		;r3 As==10
     e32:	02 5e       	add	r14,	r2	
     e34:	3e 15       	pushm	#4,	r14	
     e36:	00 03       	bra	#2		;r3 As==10
     e38:	02 64       	addc	r4,	r2	
     e3a:	3e 15       	pushm	#4,	r14	
     e3c:	00 03       	bra	#2		;r3 As==10
     e3e:	02 6a       	addc	r10,	r2	
     e40:	3e 15       	pushm	#4,	r14	
     e42:	00 03       	bra	#2		;r3 As==10
     e44:	02 6e       	addc	r14,	r2	
     e46:	3e 15       	pushm	#4,	r14	
     e48:	00 03       	bra	#2		;r3 As==10
     e4a:	02 74       	subc	r4,	r2	
     e4c:	3e 16       	popm.a	#4,	r1	
     e4e:	00 03       	bra	#2		;r3 As==10
     e50:	02 7a       	subc	r10,	r2	
     e52:	3e 15       	pushm	#4,	r14	
     e54:	00 03       	bra	#2		;r3 As==10
     e56:	02 80       	sub	r0,	r2	
     e58:	3e 15       	pushm	#4,	r14	
     e5a:	00 03       	bra	#2		;r3 As==10
     e5c:	02 82       	sub	r2,	r2	
     e5e:	3e 16       	popm.a	#4,	r1	
     e60:	00 03       	bra	#2		;r3 As==10
     e62:	02 82       	sub	r2,	r2	
     e64:	3e 15       	pushm	#4,	r14	
     e66:	00 03       	bra	#2		;r3 As==10
     e68:	02 8a       	sub	r10,	r2	
     e6a:	3e 15       	pushm	#4,	r14	
     e6c:	00 03       	bra	#2		;r3 As==10
     e6e:	02 8e       	sub	r14,	r2	
     e70:	3e 16       	popm.a	#4,	r1	
     e72:	00 03       	bra	#2		;r3 As==10
     e74:	02 92       	cmp	r2,	r2	
     e76:	3e 00 01 01 	mova	0x0101,	r14	;PC rel. 0x00f79
     e7a:	92 00 00 00 	cmpa	#0x00000,r2	
     e7e:	02 00       	mova	@r0,	r2	
     e80:	60 00 00 00 	mova	r0,	&0x00000
     e84:	01 01       	mova	@r1,	r1	
     e86:	f6 f5 0a 00 	and.b	@r5+,	10(r6)	;0x000a(r6)
     e8a:	01 01       	mova	@r1,	r1	
     e8c:	01 01       	mova	@r1,	r1	
     e8e:	00 00       	bra	@r0		
     e90:	00 01       	bra	@r1		
     e92:	2f 6f       	addc	@r15,	r15	
     e94:	70 74       	subc.b	@r4+,	r0	
     e96:	2f 6d       	addc	@r13,	r15	
     e98:	73 70       	.word	0x7073;	????	Illegal as 2-op instr
     e9a:	67 63       	addc.b	#2,	r7	;r3 As==10
     e9c:	63 34       	jge	$+200    	;abs 0xf64
     e9e:	2f 62       	addc	#4,	r15	;r2 As==10
     ea0:	69 6e       	addc.b	@r14,	r9	
     ea2:	2f 2e       	jc	$-928    	;abs 0xb02
     ea4:	2e 2f       	jc	$-418    	;abs 0xd02
     ea6:	6c 69       	addc.b	@r9,	r12	
     ea8:	62 2f       	jc	$-314    	;abs 0xd6e
     eaa:	67 63       	addc.b	#2,	r7	;r3 As==10
     eac:	63 2f       	jc	$-312    	;abs 0xd74
     eae:	6d 73       	subc.b	#2,	r13	;r3 As==10
     eb0:	70 34       	jge	$+226    	;abs 0xf92
     eb2:	33 30       	jn	$+104    	;abs 0xf1a
     eb4:	2f 34       	jge	$+96     	;abs 0xf14
     eb6:	2e 35       	jge	$+606    	;abs 0x1114
     eb8:	2e 33       	jn	$-418    	;abs 0xd16
     eba:	2f 69       	addc	@r9,	r15	
     ebc:	6e 63       	addc.b	#2,	r14	;r3 As==10
     ebe:	6c 75       	subc.b	@r5,	r12	
     ec0:	64 65       	addc.b	@r5,	r4	
     ec2:	00 73       	sbc	r0		
     ec4:	74 64       	addc.b	@r4+,	r4	
     ec6:	6c 69       	addc.b	@r9,	r12	
     ec8:	62 00 00 70 	mova	r0,	&0x27000
     ecc:	72 69       	addc.b	@r9+,	r2	
     ece:	6e 74       	subc.b	@r4,	r14	
     ed0:	66 2e       	jc	$-818    	;abs 0xb9e
     ed2:	63 00 02 00 	mova	r0,	&0x30002
     ed6:	00 73       	sbc	r0		
     ed8:	74 64       	addc.b	@r4+,	r4	
     eda:	61 72       	subc.b	#4,	r1	;r2 As==10
     edc:	67 2e       	jc	$-816    	;abs 0xbac
     ede:	68 00 01 00 	mova	r0,	&0x80001
     ee2:	00 00       	bra	@r0		
     ee4:	00 03       	bra	#2		;r3 As==10
     ee6:	02 92       	cmp	r2,	r2	
     ee8:	3e 38       	jl	$+126    	;abs 0xf66
     eea:	00 03       	bra	#2		;r3 As==10
     eec:	02 92       	cmp	r2,	r2	
     eee:	3e 19       	.word	0x193e;	????	
     ef0:	00 03       	bra	#2		;r3 As==10
     ef2:	02 a2       	dadd	r2,	r2	
     ef4:	3e 17       	popm	#4,	r1	
     ef6:	00 03       	bra	#2		;r3 As==10
     ef8:	02 a4       	dadd	r4,	r2	
     efa:	3e 18       	.word	0x183e;	????	
     efc:	00 03       	bra	#2		;r3 As==10
     efe:	02 a4       	dadd	r4,	r2	
     f00:	3e 15       	pushm	#4,	r14	
     f02:	00 03       	bra	#2		;r3 As==10
     f04:	02 b0       	bit	r0,	r2	
     f06:	3e 15       	pushm	#4,	r14	
     f08:	00 03       	bra	#2		;r3 As==10
     f0a:	02 b2       	bit	r2,	r2	
     f0c:	3e 00 01 01 	mova	0x0101,	r14	;PC rel. 0x0100f
     f10:	58 03       	rrum	#1,	r8	
     f12:	00 00       	bra	@r0		
     f14:	02 00       	mova	@r0,	r2	
     f16:	79 00 00 00 	mova	r0,	0(r9)	;0x0000(r9)
     f1a:	01 01       	mova	@r1,	r1	
     f1c:	f6 f5 0a 00 	and.b	@r5+,	10(r6)	;0x000a(r6)
     f20:	01 01       	mova	@r1,	r1	
     f22:	01 01       	mova	@r1,	r1	
     f24:	00 00       	bra	@r0		
     f26:	00 01       	bra	@r1		
     f28:	2e 2e       	jc	$-930    	;abs 0xb86
     f2a:	2f 69       	addc	@r9,	r15	
     f2c:	6e 63       	addc.b	#2,	r14	;r3 As==10
     f2e:	6c 75       	subc.b	@r5,	r12	
     f30:	64 65       	addc.b	@r5,	r4	
     f32:	00 2f       	jc	$-510    	;abs 0xd34
     f34:	6f 70       	subc.b	@r0,	r15	
     f36:	74 2f       	jc	$-278    	;abs 0xe20
     f38:	6d 73       	subc.b	#2,	r13	;r3 As==10
     f3a:	70 67       	addc.b	@r7+,	r0	
     f3c:	63 63       	.word	0x6363;	????	Illegal as 2-op instr
     f3e:	34 2f       	jc	$-406    	;abs 0xda8
     f40:	62 69       	addc.b	@r9,	r2	
     f42:	6e 2f       	jc	$-290    	;abs 0xe20
     f44:	2e 2e       	jc	$-930    	;abs 0xba2
     f46:	2f 6c       	addc	@r12,	r15	
     f48:	69 62       	addc.b	#4,	r9	;r2 As==10
     f4a:	2f 67       	addc	@r7,	r15	
     f4c:	63 63       	.word	0x6363;	????	Illegal as 2-op instr
     f4e:	2f 6d       	addc	@r13,	r15	
     f50:	73 70       	.word	0x7073;	????	Illegal as 2-op instr
     f52:	34 33       	jn	$-406    	;abs 0xdbc
     f54:	30 2f       	jc	$-414    	;abs 0xdb6
     f56:	34 2e       	jc	$-918    	;abs 0xbc0
     f58:	35 2e       	jc	$-916    	;abs 0xbc4
     f5a:	33 2f       	jc	$-408    	;abs 0xdc2
     f5c:	69 6e       	addc.b	@r14,	r9	
     f5e:	63 6c       	.word	0x6c63;	????	Illegal as 2-op instr
     f60:	75 64       	addc.b	@r4+,	r5	
     f62:	65 00 73 74 	mova	r0,	&0x57473
     f66:	64 6c       	addc.b	@r12,	r4	
     f68:	69 62       	addc.b	#4,	r9	;r2 As==10
     f6a:	00 00       	bra	@r0		
     f6c:	76 75       	subc.b	@r5+,	r6	
     f6e:	70 72       	subc.b	#8,	r0	;r2 As==11
     f70:	69 6e       	addc.b	@r14,	r9	
     f72:	74 66       	addc.b	@r6+,	r4	
     f74:	2e 63       	addc	#2,	r14	;r3 As==10
     f76:	00 03       	bra	#2		;r3 As==10
     f78:	00 00       	bra	@r0		
     f7a:	73 74       	.word	0x7473;	????	Illegal as 2-op instr
     f7c:	64 69       	addc.b	@r9,	r4	
     f7e:	6e 74       	subc.b	@r4,	r14	
     f80:	2e 68       	addc	@r8,	r14	
     f82:	00 01       	bra	@r1		
     f84:	00 00       	bra	@r0		
     f86:	73 74       	.word	0x7473;	????	Illegal as 2-op instr
     f88:	64 61       	addc.b	@r1,	r4	
     f8a:	72 67       	addc.b	@r7+,	r2	
     f8c:	2e 68       	addc	@r8,	r14	
     f8e:	00 02       	bra	#4		;r2 As==10
     f90:	00 00       	bra	@r0		
     f92:	00 00       	bra	@r0		
     f94:	03 02       	.word	0x0203;	????	Illegal as address instr
     f96:	b2 3e       	jmp	$-666    	;abs 0xcfc
     f98:	78 00 03 02 	mova	r0,	515(r8)	;0x0203(r8)
     f9c:	ca 3e       	jmp	$-618    	;abs 0xd32
     f9e:	15 00       	mova	#0x00000,r5	
     fa0:	03 02       	.word	0x0203;	????	Illegal as address instr
     fa2:	d0 3e       	jmp	$-606    	;abs 0xd44
     fa4:	03 68       	.word	0x6803;	????	Illegal as 2-op instr
     fa6:	01 00       	mova	@r0,	r1	
     fa8:	03 02       	.word	0x0203;	????	Illegal as address instr
     faa:	da 3e       	jmp	$-586    	;abs 0xd60
     fac:	16 00       	mova	#0x00000,r6	
     fae:	03 02       	.word	0x0203;	????	Illegal as address instr
     fb0:	e0 3e       	jmp	$-574    	;abs 0xd72
     fb2:	15 00       	mova	#0x00000,r5	
     fb4:	03 02       	.word	0x0203;	????	Illegal as address instr
     fb6:	fa 3e       	jmp	$-522    	;abs 0xdac
     fb8:	16 00       	mova	#0x00000,r6	
     fba:	03 02       	.word	0x0203;	????	Illegal as address instr
     fbc:	fe 3e       	jmp	$-514    	;abs 0xdba
     fbe:	15 00       	mova	#0x00000,r5	
     fc0:	03 02       	.word	0x0203;	????	Illegal as address instr
     fc2:	08 3f       	jmp	$-494    	;abs 0xdd4
     fc4:	0d 00       	mova	@r0,	r13	
     fc6:	03 02       	.word	0x0203;	????	Illegal as address instr
     fc8:	0a 3f       	jmp	$-490    	;abs 0xdde
     fca:	1c 00       	mova	#0x00000,r12	
     fcc:	03 02       	.word	0x0203;	????	Illegal as address instr
     fce:	0c 3f       	jmp	$-486    	;abs 0xde8
     fd0:	2b 00 03 02 	mova	&0x00203,r11	
     fd4:	10 3f       	jmp	$-478    	;abs 0xdf6
     fd6:	17 00       	mova	#0x00000,r7	
     fd8:	03 02       	.word	0x0203;	????	Illegal as address instr
     fda:	20 3f       	jmp	$-446    	;abs 0xe1c
     fdc:	16 00       	mova	#0x00000,r6	
     fde:	03 02       	.word	0x0203;	????	Illegal as address instr
     fe0:	24 3f       	jmp	$-438    	;abs 0xe2a
     fe2:	15 00       	mova	#0x00000,r5	
     fe4:	03 02       	.word	0x0203;	????	Illegal as address instr
     fe6:	28 3f       	jmp	$-430    	;abs 0xe38
     fe8:	16 00       	mova	#0x00000,r6	
     fea:	03 02       	.word	0x0203;	????	Illegal as address instr
     fec:	2a 3f       	jmp	$-426    	;abs 0xe42
     fee:	17 00       	mova	#0x00000,r7	
     ff0:	03 02       	.word	0x0203;	????	Illegal as address instr
     ff2:	30 3f       	jmp	$-414    	;abs 0xe54
     ff4:	01 00       	mova	@r0,	r1	
     ff6:	03 02       	.word	0x0203;	????	Illegal as address instr
     ff8:	34 3f       	jmp	$-406    	;abs 0xe62
     ffa:	03 6c       	.word	0x6c03;	????	Illegal as 2-op instr
     ffc:	01 00       	mova	@r0,	r1	
     ffe:	03 02       	.word	0x0203;	????	Illegal as address instr
    1000:	38 3f       	jmp	$-398    	;abs 0xe72
    1002:	2d 00 03 02 	mova	&0x00203,r13	
    1006:	40 3f       	jmp	$-382    	;abs 0xe88
    1008:	13 00       	.word	0x0013;	????	Illegal as address instr
    100a:	03 02       	.word	0x0203;	????	Illegal as address instr
    100c:	44 3f       	jmp	$-374    	;abs 0xe96
    100e:	01 00       	mova	@r0,	r1	
    1010:	03 02       	.word	0x0203;	????	Illegal as address instr
    1012:	46 3f       	jmp	$-370    	;abs 0xea0
    1014:	12 00       	mova	#0x00000,r2	
    1016:	03 02       	.word	0x0203;	????	Illegal as address instr
    1018:	4c 3f       	jmp	$-358    	;abs 0xeb2
    101a:	03 75       	.word	0x7503;	????	Illegal as 2-op instr
    101c:	01 00       	mova	@r0,	r1	
    101e:	03 02       	.word	0x0203;	????	Illegal as address instr
    1020:	50 3f       	jmp	$-350    	;abs 0xec2
    1022:	0e 00       	mova	@r0,	r14	
    1024:	03 02       	.word	0x0203;	????	Illegal as address instr
    1026:	52 3f       	jmp	$-346    	;abs 0xecc
    1028:	12 00       	mova	#0x00000,r2	
    102a:	03 02       	.word	0x0203;	????	Illegal as address instr
    102c:	56 3f       	jmp	$-338    	;abs 0xeda
    102e:	2f 00 03 02 	mova	&0x00203,r15	
    1032:	5c 3f       	jmp	$-326    	;abs 0xeec
    1034:	15 00       	mova	#0x00000,r5	
    1036:	03 02       	.word	0x0203;	????	Illegal as address instr
    1038:	5e 3f       	jmp	$-322    	;abs 0xef6
    103a:	15 00       	mova	#0x00000,r5	
    103c:	03 02       	.word	0x0203;	????	Illegal as address instr
    103e:	60 3f       	jmp	$-318    	;abs 0xf00
    1040:	10 00       	bra	#0x00000	
    1042:	03 02       	.word	0x0203;	????	Illegal as address instr
    1044:	66 3f       	jmp	$-306    	;abs 0xf12
    1046:	03 69       	.word	0x6903;	????	Illegal as 2-op instr
    1048:	01 00       	mova	@r0,	r1	
    104a:	03 02       	.word	0x0203;	????	Illegal as address instr
    104c:	68 3f       	jmp	$-302    	;abs 0xf1e
    104e:	12 00       	mova	#0x00000,r2	
    1050:	03 02       	.word	0x0203;	????	Illegal as address instr
    1052:	6a 3f       	jmp	$-298    	;abs 0xf28
    1054:	11 00       	mova	#0x00000,r1	
    1056:	03 02       	.word	0x0203;	????	Illegal as address instr
    1058:	6e 3f       	jmp	$-290    	;abs 0xf36
    105a:	3b 00 03 02 	mova	0x0203,	r11	;PC rel. 0x0125f
    105e:	70 3f       	jmp	$-286    	;abs 0xf40
    1060:	15 00       	mova	#0x00000,r5	
    1062:	03 02       	.word	0x0203;	????	Illegal as address instr
    1064:	78 3f       	jmp	$-270    	;abs 0xf56
    1066:	03 58       	.word	0x5803;	????	Illegal as 2-op instr
    1068:	01 00       	mova	@r0,	r1	
    106a:	03 02       	.word	0x0203;	????	Illegal as address instr
    106c:	7c 3f       	jmp	$-262    	;abs 0xf66
    106e:	39 00 03 02 	mova	0x0203,	r9	;PC rel. 0x01273
    1072:	82 3f       	jmp	$-250    	;abs 0xf78
    1074:	1d 00       	mova	#0x00000,r13	
    1076:	03 02       	.word	0x0203;	????	Illegal as address instr
    1078:	88 3f       	jmp	$-238    	;abs 0xf8a
    107a:	15 00       	mova	#0x00000,r5	
    107c:	03 02       	.word	0x0203;	????	Illegal as address instr
    107e:	8a 3f       	jmp	$-234    	;abs 0xf94
    1080:	15 00       	mova	#0x00000,r5	
    1082:	03 02       	.word	0x0203;	????	Illegal as address instr
    1084:	8c 3f       	jmp	$-230    	;abs 0xf9e
    1086:	10 00       	bra	#0x00000	
    1088:	03 02       	.word	0x0203;	????	Illegal as address instr
    108a:	94 3f       	jmp	$-214    	;abs 0xfb4
    108c:	1d 00       	mova	#0x00000,r13	
    108e:	03 02       	.word	0x0203;	????	Illegal as address instr
    1090:	9a 3f       	jmp	$-202    	;abs 0xfc6
    1092:	15 00       	mova	#0x00000,r5	
    1094:	03 02       	.word	0x0203;	????	Illegal as address instr
    1096:	9c 3f       	jmp	$-198    	;abs 0xfd0
    1098:	11 00       	mova	#0x00000,r1	
    109a:	03 02       	.word	0x0203;	????	Illegal as address instr
    109c:	a0 3f       	jmp	$-190    	;abs 0xfde
    109e:	1b 00       	mova	#0x00000,r11	
    10a0:	03 02       	.word	0x0203;	????	Illegal as address instr
    10a2:	be 3f       	jmp	$-130    	;abs 0x1020
    10a4:	3d 00 03 02 	mova	0x0203,	r13	;PC rel. 0x012a9
    10a8:	de 3f       	jmp	$-66     	;abs 0x1066
    10aa:	18 00       	mova	#0x00000,r8	
    10ac:	03 02       	.word	0x0203;	????	Illegal as address instr
    10ae:	e2 3f       	jmp	$-58     	;abs 0x1074
    10b0:	13 00       	.word	0x0013;	????	Illegal as address instr
    10b2:	03 02       	.word	0x0203;	????	Illegal as address instr
    10b4:	e6 3f       	jmp	$-50     	;abs 0x1082
    10b6:	12 00       	mova	#0x00000,r2	
    10b8:	03 02       	.word	0x0203;	????	Illegal as address instr
    10ba:	ea 3f       	jmp	$-42     	;abs 0x1090
    10bc:	1f 00       	mova	#0x00000,r15	
    10be:	03 02       	.word	0x0203;	????	Illegal as address instr
    10c0:	ee 3f       	jmp	$-34     	;abs 0x109e
    10c2:	16 00       	mova	#0x00000,r6	
    10c4:	03 02       	.word	0x0203;	????	Illegal as address instr
    10c6:	f2 3f       	jmp	$-26     	;abs 0x10ac
    10c8:	18 00       	mova	#0x00000,r8	
    10ca:	03 02       	.word	0x0203;	????	Illegal as address instr
    10cc:	fc 3f       	jmp	$-6      	;abs 0x10c6
    10ce:	17 00       	mova	#0x00000,r7	
    10d0:	03 02       	.word	0x0203;	????	Illegal as address instr
    10d2:	00 40       	br	r0		
    10d4:	13 00       	.word	0x0013;	????	Illegal as address instr
    10d6:	03 02       	.word	0x0203;	????	Illegal as address instr
    10d8:	08 40       	mov	r0,	r8	
    10da:	20 00 03 02 	bra	&0x00203	
    10de:	a8 40 1c 00 	mov	@r0,	28(r8)	;0x001c(r8)
    10e2:	03 02       	.word	0x0203;	????	Illegal as address instr
    10e4:	b0 40 19 00 	mov	#25,	0x0203	;#0x0019, PC rel. 0x012ed
    10e8:	03 02 
    10ea:	b8 40 19 00 	mov	#25,	515(r8)	;#0x0019, 0x0203(r8)
    10ee:	03 02 
    10f0:	c0 40 19 00 	mov.b	r0,	0x0019	;PC rel. 0x0110d
    10f4:	03 02       	.word	0x0203;	????	Illegal as address instr
    10f6:	ca 40 1a 00 	mov.b	r0,	26(r10)	;0x001a(r10)
    10fa:	03 02       	.word	0x0203;	????	Illegal as address instr
    10fc:	d6 40 16 00 	mov.b	0x0016,	515(r6)	;PC rel. 0x01116, 0x0203(r6)
    1100:	03 02 
    1102:	e0 40 1c 00 	mov.b	@r0,	0x001c	;PC rel. 0x01122
    1106:	03 02       	.word	0x0203;	????	Illegal as address instr
    1108:	ec 40 16 00 	mov.b	@r0,	22(r12)	;0x0016(r12)
    110c:	03 02       	.word	0x0203;	????	Illegal as address instr
    110e:	f0 40 15 00 	mov.b	#21,	0x0203	;#0x0015, PC rel. 0x01317
    1112:	03 02 
    1114:	f6 40 17 00 	mov.b	#23,	515(r6)	;#0x0017, 0x0203(r6)
    1118:	03 02 
    111a:	fa 40 15 00 	mov.b	#21,	515(r10);#0x0015, 0x0203(r10)
    111e:	03 02 
    1120:	04 41       	mov	r1,	r4	
    1122:	0d 00       	mova	@r0,	r13	
    1124:	03 02       	.word	0x0203;	????	Illegal as address instr
    1126:	0c 41       	mov	r1,	r12	
    1128:	27 00 03 02 	mova	&0x00203,r7	
    112c:	12 41 16 00 	mov	22(r1),	r2	;0x0016(r1)
    1130:	03 02       	.word	0x0203;	????	Illegal as address instr
    1132:	36 41       	pop	r6		
    1134:	20 00 03 02 	bra	&0x00203	
    1138:	44 41       	mov.b	r1,	r4	
    113a:	15 00       	mova	#0x00000,r5	
    113c:	03 02       	.word	0x0203;	????	Illegal as address instr
    113e:	54 41 19 00 	mov.b	25(r1),	r4	;0x0019(r1)
    1142:	03 02       	.word	0x0203;	????	Illegal as address instr
    1144:	60 41       	br	@r1		
    1146:	15 00       	mova	#0x00000,r5	
    1148:	03 02       	.word	0x0203;	????	Illegal as address instr
    114a:	62 41       	mov.b	@r1,	r2	
    114c:	19 00       	mova	#0x00000,r9	
    114e:	03 02       	.word	0x0203;	????	Illegal as address instr
    1150:	6e 41       	mov.b	@r1,	r14	
    1152:	17 00       	mova	#0x00000,r7	
    1154:	03 02       	.word	0x0203;	????	Illegal as address instr
    1156:	76 41       	pop.b	r6		
    1158:	01 00       	mova	@r0,	r1	
    115a:	03 02       	.word	0x0203;	????	Illegal as address instr
    115c:	88 41 11 00 	mov	r1,	17(r8)	;0x0011(r8)
    1160:	03 02       	.word	0x0203;	????	Illegal as address instr
    1162:	8e 41 22 00 	mov	r1,	34(r14)	;0x0022(r14)
    1166:	03 02       	.word	0x0203;	????	Illegal as address instr
    1168:	a6 41 15 00 	mov	@r1,	21(r6)	;0x0015(r6)
    116c:	03 02       	.word	0x0203;	????	Illegal as address instr
    116e:	b2 41 16 00 	pop	&0x0016	
    1172:	03 02       	.word	0x0203;	????	Illegal as address instr
    1174:	b6 41 11 00 	pop	17(r6)		;0x0011(r6)
    1178:	03 02       	.word	0x0203;	????	Illegal as address instr
    117a:	bc 41 1c 00 	pop	28(r12)	;0x001c(r12)
    117e:	03 02       	.word	0x0203;	????	Illegal as address instr
    1180:	c4 41 1d 00 	mov.b	r1,	29(r4)	;0x001d(r4)
    1184:	03 02       	.word	0x0203;	????	Illegal as address instr
    1186:	c8 41 18 00 	mov.b	r1,	24(r8)	;0x0018(r8)
    118a:	03 02       	.word	0x0203;	????	Illegal as address instr
    118c:	ce 41 0a 00 	mov.b	r1,	10(r14)	;0x000a(r14)
    1190:	03 02       	.word	0x0203;	????	Illegal as address instr
    1192:	d2 41 21 00 	mov.b	33(r1),	&0x0203	;0x0021(r1)
    1196:	03 02 
    1198:	da 41 16 00 	mov.b	22(r1),	515(r10);0x0016(r1), 0x0203(r10)
    119c:	03 02 
    119e:	ec 41 18 00 	mov.b	@r1,	24(r12)	;0x0018(r12)
    11a2:	03 02       	.word	0x0203;	????	Illegal as address instr
    11a4:	f8 41 16 00 	pop.b	22(r8)		;0x0016(r8)
    11a8:	03 02       	.word	0x0203;	????	Illegal as address instr
    11aa:	0a 42       	mov	r2,	r10	
    11ac:	18 00       	mova	#0x00000,r8	
    11ae:	03 02       	.word	0x0203;	????	Illegal as address instr
    11b0:	16 42 1b 00 	mov	&0x001b,r6	
    11b4:	03 02       	.word	0x0203;	????	Illegal as address instr
    11b6:	1c 42 01 00 	mov	&0x0001,r12	
    11ba:	03 02       	.word	0x0203;	????	Illegal as address instr
    11bc:	2a 42       	mov	#4,	r10	;r2 As==10
    11be:	15 00       	mova	#0x00000,r5	
    11c0:	03 02       	.word	0x0203;	????	Illegal as address instr
    11c2:	30 42       	br	#8		;r2 As==11
    11c4:	13 00       	.word	0x0013;	????	Illegal as address instr
    11c6:	03 02       	.word	0x0203;	????	Illegal as address instr
    11c8:	34 42       	mov	#8,	r4	;r2 As==11
    11ca:	16 00       	mova	#0x00000,r6	
    11cc:	03 02       	.word	0x0203;	????	Illegal as address instr
    11ce:	3a 42       	mov	#8,	r10	;r2 As==11
    11d0:	01 00       	mova	@r0,	r1	
    11d2:	03 02       	.word	0x0203;	????	Illegal as address instr
    11d4:	3e 42       	mov	#8,	r14	;r2 As==11
    11d6:	17 00       	mova	#0x00000,r7	
    11d8:	03 02       	.word	0x0203;	????	Illegal as address instr
    11da:	44 42       	mov.b	r2,	r4	
    11dc:	15 00       	mova	#0x00000,r5	
    11de:	03 02       	.word	0x0203;	????	Illegal as address instr
    11e0:	4c 42       	mov.b	r2,	r12	
    11e2:	19 00       	mova	#0x00000,r9	
    11e4:	03 02       	.word	0x0203;	????	Illegal as address instr
    11e6:	50 42 21 00 	br	&0x0021	
    11ea:	03 02       	.word	0x0203;	????	Illegal as address instr
    11ec:	60 42       	br	#4		;r2 As==10
    11ee:	0c 00       	mova	@r0,	r12	
    11f0:	03 02       	.word	0x0203;	????	Illegal as address instr
    11f2:	6e 42       	mov.b	#4,	r14	;r2 As==10
    11f4:	03 c2       	.word	0xc203;	????	Illegal as 2-op instr
    11f6:	7e 01 00 03 	mova	r1,	768(r14);0x0300(r14)
    11fa:	02 76       	subc	r6,	r2	
    11fc:	42 d2       	bis.b	r2,	r2	
    11fe:	00 03       	bra	#2		;r3 As==10
    1200:	02 84       	sub	r4,	r2	
    1202:	42 15       	pushm	#5,	r2	
    1204:	00 03       	bra	#2		;r3 As==10
    1206:	02 8c       	sub	r12,	r2	
    1208:	42 16       	popm.a	#5,	r6	
    120a:	00 03       	bra	#2		;r3 As==10
    120c:	02 96       	cmp	r6,	r2	
    120e:	42 18       	.word	0x1842;	????	
    1210:	00 03       	bra	#2		;r3 As==10
    1212:	02 a6       	dadd	r6,	r2	
    1214:	42 01       	rram.a	#1,	r2	
    1216:	00 03       	bra	#2		;r3 As==10
    1218:	02 ac       	dadd	r12,	r2	
    121a:	42 17       	popm	#5,	r6	
    121c:	00 03       	bra	#2		;r3 As==10
    121e:	02 c0       	bic	r0,	r2	
    1220:	42 16       	popm.a	#5,	r6	
    1222:	00 03       	bra	#2		;r3 As==10
    1224:	02 c8       	bic	r8,	r2	
    1226:	42 17       	popm	#5,	r6	
    1228:	00 03       	bra	#2		;r3 As==10
    122a:	02 ce       	bic	r14,	r2	
    122c:	42 16       	popm.a	#5,	r6	
    122e:	00 03       	bra	#2		;r3 As==10
    1230:	02 d2       	bis	r2,	r2	
    1232:	42 18       	.word	0x1842;	????	
    1234:	00 03       	bra	#2		;r3 As==10
    1236:	02 ea       	xor	r10,	r2	
    1238:	42 1d       	.word	0x1d42;	????	
    123a:	00 03       	bra	#2		;r3 As==10
    123c:	02 f2       	and	r2,	r2	
    123e:	42 15       	pushm	#5,	r2	
    1240:	00 03       	bra	#2		;r3 As==10
    1242:	02 f6       	and	r6,	r2	
    1244:	42 15       	pushm	#5,	r2	
    1246:	00 03       	bra	#2		;r3 As==10
    1248:	02 fa       	and	r10,	r2	
    124a:	42 03       	rrum.a	#1,	r2	
    124c:	e0 7e 01 00 	subc.b	@r14,	0x0001	;PC rel. 0x01251
    1250:	03 02       	.word	0x0203;	????	Illegal as address instr
    1252:	fc 42 b7 00 	mov.b	#8,	183(r12);r2 As==11, 0x00b7(r12)
    1256:	03 02       	.word	0x0203;	????	Illegal as address instr
    1258:	00 43       	clr	r0		
    125a:	03 ac       	.word	0xac03;	????	Illegal as 2-op instr
    125c:	7e 01 00 03 	mova	r1,	768(r14);0x0300(r14)
    1260:	02 0e       	mova	@r14,	r2	
    1262:	43 eb       	.word	0xeb43;	????	Illegal as 2-op instr
    1264:	00 03       	bra	#2		;r3 As==10
    1266:	02 28       	jnc	$+6      	;abs 0x126c
    1268:	43 00       	rrcm.a	#1,	#0	;r3 As==00
    126a:	01 01       	mova	@r1,	r1	

Disassembly of section .debug_frame:

00000000 <.debug_frame>:
   0:	0e 00       	mova	@r0,	r14	
   2:	00 00       	bra	@r0		
   4:	ff ff ff ff 	and.b	@r15+,	-1(r15)	;0xffff(r15)
   8:	01 00       	mova	@r0,	r1	
   a:	01 7e       	subc	r14,	r1	
   c:	00 0c       	bra	@r12		
   e:	01 02       	mova	#4,	r1	;r2 As==10
  10:	80 01 08 00 	bra	#0x10008	
  14:	00 00       	bra	@r0		
  16:	00 00       	bra	@r0		
  18:	00 00       	bra	@r0		
  1a:	4a 33       	jn	$-362    	;abs 0xfeb0
  1c:	08 00       	mova	@r0,	r8	
  1e:	3c 00 00 00 	mova	0x0000,	r12	;PC rel. 0x00020
  22:	00 00       	bra	@r0		
  24:	00 00       	bra	@r0		
  26:	7c 33       	jn	$-262    	;abs 0xff20
  28:	7a 00 42 0e 	mova	r0,	3650(r10);0x0e42(r10)
  2c:	04 68       	addc	r8,	r4	
  2e:	0e 06       	mova	@r6,	r14	
  30:	40 2e       	jc	$-894    	;abs 0xfcb2
  32:	02 46       	mov	r6,	r2	
  34:	0e 04       	mova	@r4,	r14	
  36:	44 2e       	jc	$-886    	;abs 0xfcc0
  38:	00 52       	add	r2,	r0	
  3a:	0e 06       	mova	@r6,	r14	
  3c:	44 0e       	rlam.a	#4,	r4	
  3e:	08 40       	mov	r0,	r8	
  40:	2e 04 46 0e 	mova	&0x40e46,r14	
  44:	04 46       	mov	r6,	r4	
  46:	2e 00 48 0e 	mova	&0x00e48,r14	
  4a:	06 44       	mov	r4,	r6	
  4c:	0e 08       	mova	@r8,	r14	
  4e:	40 2e       	jc	$-894    	;abs 0xfcd0
  50:	04 4c       	mov	r12,	r4	
  52:	0e 04       	mova	@r4,	r14	
  54:	44 0e       	rlam.a	#4,	r4	
  56:	06 40       	mov	r0,	r6	
  58:	2e 02 46 0e 	mova	&0x20e46,r14	
  5c:	04 00       	mova	@r0,	r4	
  5e:	12 00       	mova	#0x00000,r2	
  60:	00 00       	bra	@r0		
  62:	00 00       	bra	@r0		
  64:	00 00       	bra	@r0		
  66:	f6 33       	jn	$-18     	;abs 0x54
  68:	38 00 6e 0e 	mova	0x0e6e,	r8	;PC rel. 0x00ed8
  6c:	04 40       	mov	r0,	r4	
  6e:	2e 02 46 0e 	mova	&0x20e46,r14	
  72:	02 00       	mova	@r0,	r2	
  74:	08 00       	mova	@r0,	r8	
  76:	00 00       	bra	@r0		
  78:	00 00       	bra	@r0		
  7a:	00 00       	bra	@r0		
  7c:	2e 34       	jge	$+94     	;abs 0xda
  7e:	18 00       	mova	#0x00000,r8	
  80:	14 00       	mova	#0x00000,r4	
  82:	00 00       	bra	@r0		
  84:	00 00       	bra	@r0		
  86:	00 00       	bra	@r0		
  88:	4a 34       	jge	$+150    	;abs 0x11e
  8a:	0e 00       	mova	@r0,	r14	
  8c:	42 0e       	rlam.a	#4,	r2	
  8e:	04 44       	mov	r4,	r4	
  90:	0e 06       	mova	@r6,	r14	
  92:	40 2e       	jc	$-894    	;abs 0xfd14
  94:	04 46       	mov	r6,	r4	
  96:	0e 02       	mova	#4,	r14	;r2 As==10
  98:	08 00       	mova	@r0,	r8	
  9a:	00 00       	bra	@r0		
  9c:	00 00       	bra	@r0		
  9e:	00 00       	bra	@r0		
  a0:	58 34       	jge	$+178    	;abs 0x152
  a2:	02 00       	mova	@r0,	r2	
  a4:	08 00       	mova	@r0,	r8	
  a6:	00 00       	bra	@r0		
  a8:	00 00       	bra	@r0		
  aa:	00 00       	bra	@r0		
  ac:	5a 34       	jge	$+182    	;abs 0x162
  ae:	78 00 44 00 	mova	r0,	68(r8)	;0x0044(r8)
  b2:	00 00       	bra	@r0		
  b4:	00 00       	bra	@r0		
  b6:	00 00       	bra	@r0		
  b8:	38 31       	jn	$+626    	;abs 0x32a
  ba:	08 02       	mova	#4,	r8	;r2 As==10
  bc:	02 44       	mov	r4,	r2	
  be:	0e 04       	mova	@r4,	r14	
  c0:	40 2e       	jc	$-894    	;abs 0xfd42
  c2:	02 46       	mov	r6,	r2	
  c4:	0e 02       	mova	#4,	r14	;r2 As==10
  c6:	6c 0e 04 46 	mova	r14,	&0xc4604
  ca:	0e 02       	mova	#4,	r14	;r2 As==10
  cc:	6e 2e       	jc	$-802    	;abs 0xfdaa
  ce:	00 02       	bra	#4		;r2 As==10
  d0:	74 0e 04 40 	mova	r14,	16388(r4);0x4004(r4)
  d4:	2e 02 46 0e 	mova	&0x20e46,r14	
  d8:	02 78       	subc	r8,	r2	
  da:	0e 04       	mova	@r4,	r14	
  dc:	46 0e       	rlam.a	#4,	r6	
  de:	02 72       	subc	r2,	r2	
  e0:	0e 04       	mova	@r4,	r14	
  e2:	46 0e       	rlam.a	#4,	r6	
  e4:	02 4c       	mov	r12,	r2	
  e6:	0e 04       	mova	@r4,	r14	
  e8:	46 0e       	rlam.a	#4,	r6	
  ea:	02 4c       	mov	r12,	r2	
  ec:	2e 00 58 0e 	mova	&0x00e58,r14	
  f0:	04 40       	mov	r0,	r4	
  f2:	2e 02 46 0e 	mova	&0x20e46,r14	
  f6:	02 00       	mova	@r0,	r2	
  f8:	12 00       	mova	#0x00000,r2	
  fa:	00 00       	bra	@r0		
  fc:	00 00       	bra	@r0		
  fe:	00 00       	bra	@r0		
 100:	e0 34       	jge	$+450    	;abs 0x2c2
 102:	2c 00 42 0e 	mova	&0x00e42,r12	
 106:	04 42       	mov	r2,	r4	
 108:	0e 06       	mova	@r6,	r14	
 10a:	8e 03 8f 02 	mova	#0x3028f,r14	
 10e:	0e 00       	mova	@r0,	r14	
 110:	00 00       	bra	@r0		
 112:	ff ff ff ff 	and.b	@r15+,	-1(r15)	;0xffff(r15)
 116:	01 00       	mova	@r0,	r1	
 118:	01 7e       	subc	r14,	r1	
 11a:	00 0c       	bra	@r12		
 11c:	01 02       	mova	#4,	r1	;r2 As==10
 11e:	80 01 08 00 	bra	#0x10008	
 122:	00 00       	bra	@r0		
 124:	0e 01       	mova	@r1,	r14	
 126:	00 00       	bra	@r0		
 128:	c4 36       	jge	$-630    	;abs 0xfeb2
 12a:	02 00       	mova	@r0,	r2	
 12c:	08 00       	mova	@r0,	r8	
 12e:	00 00       	bra	@r0		
 130:	0e 01       	mova	@r1,	r14	
 132:	00 00       	bra	@r0		
 134:	c6 36       	jge	$-626    	;abs 0xfec2
 136:	02 00       	mova	@r0,	r2	
 138:	08 00       	mova	@r0,	r8	
 13a:	00 00       	bra	@r0		
 13c:	0e 01       	mova	@r1,	r14	
 13e:	00 00       	bra	@r0		
 140:	c8 36       	jge	$-622    	;abs 0xfed2
 142:	10 00       	bra	#0x00000	
 144:	12 00       	mova	#0x00000,r2	
 146:	00 00       	bra	@r0		
 148:	0e 01       	mova	@r1,	r14	
 14a:	00 00       	bra	@r0		
 14c:	d8 36       	jge	$-590    	;abs 0xfefe
 14e:	20 00 42 0e 	bra	&0x00e42	
 152:	04 42       	mov	r2,	r4	
 154:	0e 06       	mova	@r6,	r14	
 156:	8a 03 8b 02 	mova	#0x3028b,r10	
 15a:	08 00       	mova	@r0,	r8	
 15c:	00 00       	bra	@r0		
 15e:	0e 01       	mova	@r1,	r14	
 160:	00 00       	bra	@r0		
 162:	f8 36       	jge	$-526    	;abs 0xff54
 164:	08 00       	mova	@r0,	r8	
 166:	08 00       	mova	@r0,	r8	
 168:	00 00       	bra	@r0		
 16a:	0e 01       	mova	@r1,	r14	
 16c:	00 00       	bra	@r0		
 16e:	00 37       	jge	$-510    	;abs 0xff70
 170:	10 00       	bra	#0x00000	
 172:	0e 00       	mova	@r0,	r14	
 174:	00 00       	bra	@r0		
 176:	ff ff ff ff 	and.b	@r15+,	-1(r15)	;0xffff(r15)
 17a:	01 00       	mova	@r0,	r1	
 17c:	01 7e       	subc	r14,	r1	
 17e:	00 0c       	bra	@r12		
 180:	01 02       	mova	#4,	r1	;r2 As==10
 182:	80 01 08 00 	bra	#0x10008	
 186:	00 00       	bra	@r0		
 188:	72 01 00 00 	mova	r1,	&0x0000	
 18c:	10 37       	jge	$-478    	;abs 0xffae
 18e:	44 00       	rrcm.a	#1,	r4	
 190:	08 00       	mova	@r0,	r8	
 192:	00 00       	bra	@r0		
 194:	72 01 00 00 	mova	r1,	&0x0000	
 198:	54 37       	jge	$-342    	;abs 0x42
 19a:	10 00       	bra	#0x00000	
 19c:	08 00       	mova	@r0,	r8	
 19e:	00 00       	bra	@r0		
 1a0:	72 01 00 00 	mova	r1,	&0x0000	
 1a4:	64 37       	jge	$-310    	;abs 0x6e
 1a6:	10 00       	bra	#0x00000	
 1a8:	08 00       	mova	@r0,	r8	
 1aa:	00 00       	bra	@r0		
 1ac:	72 01 00 00 	mova	r1,	&0x0000	
 1b0:	74 37       	jge	$-278    	;abs 0x9a
 1b2:	14 00       	mova	#0x00000,r4	
 1b4:	08 00       	mova	@r0,	r8	
 1b6:	00 00       	bra	@r0		
 1b8:	72 01 00 00 	mova	r1,	&0x0000	
 1bc:	88 37       	jge	$-238    	;abs 0xce
 1be:	10 00       	bra	#0x00000	
 1c0:	08 00       	mova	@r0,	r8	
 1c2:	00 00       	bra	@r0		
 1c4:	72 01 00 00 	mova	r1,	&0x0000	
 1c8:	98 37       	jge	$-206    	;abs 0xfa
 1ca:	14 00       	mova	#0x00000,r4	
 1cc:	08 00       	mova	@r0,	r8	
 1ce:	00 00       	bra	@r0		
 1d0:	72 01 00 00 	mova	r1,	&0x0000	
 1d4:	ac 37       	jge	$-166    	;abs 0x12e
 1d6:	12 00       	mova	#0x00000,r2	
 1d8:	08 00       	mova	@r0,	r8	
 1da:	00 00       	bra	@r0		
 1dc:	72 01 00 00 	mova	r1,	&0x0000	
 1e0:	be 37       	jge	$-130    	;abs 0x15e
 1e2:	14 00       	mova	#0x00000,r4	
 1e4:	08 00       	mova	@r0,	r8	
 1e6:	00 00       	bra	@r0		
 1e8:	72 01 00 00 	mova	r1,	&0x0000	
 1ec:	d2 37       	jge	$-90     	;abs 0x192
 1ee:	2e 00 08 00 	mova	&0x00008,r14	
 1f2:	00 00       	bra	@r0		
 1f4:	72 01 00 00 	mova	r1,	&0x0000	
 1f8:	00 38       	jl	$+2      	;abs 0x1fa
 1fa:	42 00       	rrcm.a	#1,	r2	
 1fc:	08 00       	mova	@r0,	r8	
 1fe:	00 00       	bra	@r0		
 200:	72 01 00 00 	mova	r1,	&0x0000	
 204:	42 38       	jl	$+134    	;abs 0x28a
 206:	56 00       	rrcm	#1,	r6	
 208:	0e 00       	mova	@r0,	r14	
 20a:	00 00       	bra	@r0		
 20c:	72 01 00 00 	mova	r1,	&0x0000	
 210:	98 38       	jl	$+306    	;abs 0x342
 212:	6c 00 42 0e 	mova	r0,	&0xc0e42
 216:	04 8b       	sub	r11,	r4	
 218:	02 00       	mova	@r0,	r2	
 21a:	08 00       	mova	@r0,	r8	
 21c:	00 00       	bra	@r0		
 21e:	72 01 00 00 	mova	r1,	&0x0000	
 222:	04 39       	jl	$+522    	;abs 0x42c
 224:	56 00       	rrcm	#1,	r6	
 226:	08 00       	mova	@r0,	r8	
 228:	00 00       	bra	@r0		
 22a:	72 01 00 00 	mova	r1,	&0x0000	
 22e:	5a 39       	jl	$+694    	;abs 0x4e4
 230:	6a 00 0e 00 	mova	r0,	&0xa000e
 234:	00 00       	bra	@r0		
 236:	72 01 00 00 	mova	r1,	&0x0000	
 23a:	c4 39       	jl	$+906    	;abs 0x5c4
 23c:	80 00 42 0e 	bra	#0x00e42	
 240:	04 8b       	sub	r11,	r4	
 242:	02 00       	mova	@r0,	r2	
 244:	0e 00       	mova	@r0,	r14	
 246:	00 00       	bra	@r0		
 248:	72 01 00 00 	mova	r1,	&0x0000	
 24c:	44 3a       	jl	$-886    	;abs 0xfed6
 24e:	5c 00       	rrcm	#1,	r12	
 250:	42 0e       	rlam.a	#4,	r2	
 252:	04 8b       	sub	r11,	r4	
 254:	02 00       	mova	@r0,	r2	
 256:	12 00       	mova	#0x00000,r2	
 258:	00 00       	bra	@r0		
 25a:	72 01 00 00 	mova	r1,	&0x0000	
 25e:	a0 3a       	jl	$-702    	;abs 0xffa0
 260:	42 00       	rrcm.a	#1,	r2	
 262:	42 0e       	rlam.a	#4,	r2	
 264:	04 42       	mov	r2,	r4	
 266:	0e 06       	mova	@r6,	r14	
 268:	8a 03 8b 02 	mova	#0x3028b,r10	
 26c:	18 00       	mova	#0x00000,r8	
 26e:	00 00       	bra	@r0		
 270:	72 01 00 00 	mova	r1,	&0x0000	
 274:	e2 3a       	jl	$-570    	;abs 0x3a
 276:	5a 00       	rrcm	#1,	r10	
 278:	42 0e       	rlam.a	#4,	r2	
 27a:	04 42       	mov	r2,	r4	
 27c:	0e 06       	mova	@r6,	r14	
 27e:	42 0e       	rlam.a	#4,	r2	
 280:	08 89       	sub	r9,	r8	
 282:	04 8a       	sub	r10,	r4	
 284:	03 8b       	.word	0x8b03;	????	Illegal as 2-op instr
 286:	02 00       	mova	@r0,	r2	
 288:	12 00       	mova	#0x00000,r2	
 28a:	00 00       	bra	@r0		
 28c:	72 01 00 00 	mova	r1,	&0x0000	
 290:	3c 3b       	jl	$-390    	;abs 0x10a
 292:	5e 00       	rrcm	#1,	r14	
 294:	42 0e       	rlam.a	#4,	r2	
 296:	04 42       	mov	r2,	r4	
 298:	0e 06       	mova	@r6,	r14	
 29a:	8a 03 8b 02 	mova	#0x3028b,r10	
 29e:	22 00 00 00 	mova	&0x00000,r2	
 2a2:	72 01 00 00 	mova	r1,	&0x0000	
 2a6:	9a 3b       	jl	$-202    	;abs 0x1dc
 2a8:	84 00 42 0e 	mova	#0x00e42,r4	
 2ac:	04 42       	mov	r2,	r4	
 2ae:	0e 06       	mova	@r6,	r14	
 2b0:	42 0e       	rlam.a	#4,	r2	
 2b2:	08 42       	mov	r2,	r8	
 2b4:	0e 0a       	mova	@r10,	r14	
 2b6:	42 0e       	rlam.a	#4,	r2	
 2b8:	0c 87       	sub	r7,	r12	
 2ba:	06 88       	sub	r8,	r6	
 2bc:	05 89       	sub	r9,	r5	
 2be:	04 8a       	sub	r10,	r4	
 2c0:	03 8b       	.word	0x8b03;	????	Illegal as 2-op instr
 2c2:	02 00       	mova	@r0,	r2	
 2c4:	12 00       	mova	#0x00000,r2	
 2c6:	00 00       	bra	@r0		
 2c8:	72 01 00 00 	mova	r1,	&0x0000	
 2cc:	1e 3c       	jmp	$+62     	;abs 0x30a
 2ce:	72 00 42 0e 	mova	r0,	&0x0e42	
 2d2:	04 42       	mov	r2,	r4	
 2d4:	0e 06       	mova	@r6,	r14	
 2d6:	8a 03 8b 02 	mova	#0x3028b,r10	
 2da:	22 00 00 00 	mova	&0x00000,r2	
 2de:	72 01 00 00 	mova	r1,	&0x0000	
 2e2:	90 3c       	jmp	$+290    	;abs 0x404
 2e4:	98 00 42 0e 	cmpa	#0x00e42,r8	
 2e8:	04 42       	mov	r2,	r4	
 2ea:	0e 06       	mova	@r6,	r14	
 2ec:	42 0e       	rlam.a	#4,	r2	
 2ee:	08 42       	mov	r2,	r8	
 2f0:	0e 0a       	mova	@r10,	r14	
 2f2:	42 0e       	rlam.a	#4,	r2	
 2f4:	0c 87       	sub	r7,	r12	
 2f6:	06 88       	sub	r8,	r6	
 2f8:	05 89       	sub	r9,	r5	
 2fa:	04 8a       	sub	r10,	r4	
 2fc:	03 8b       	.word	0x8b03;	????	Illegal as 2-op instr
 2fe:	02 00       	mova	@r0,	r2	
 300:	08 00       	mova	@r0,	r8	
 302:	00 00       	bra	@r0		
 304:	72 01 00 00 	mova	r1,	&0x0000	
 308:	28 3d       	jmp	$+594    	;abs 0x55a
 30a:	14 00       	mova	#0x00000,r4	
 30c:	0e 00       	mova	@r0,	r14	
 30e:	00 00       	bra	@r0		
 310:	ff ff ff ff 	and.b	@r15+,	-1(r15)	;0xffff(r15)
 314:	01 00       	mova	@r0,	r1	
 316:	01 7e       	subc	r14,	r1	
 318:	00 0c       	bra	@r12		
 31a:	01 02       	mova	#4,	r1	;r2 As==10
 31c:	80 01 08 00 	bra	#0x10008	
 320:	00 00       	bra	@r0		
 322:	0c 03       	mova	#2,	r12	;r3 As==10
 324:	00 00       	bra	@r0		
 326:	3c 3d       	jmp	$+634    	;abs 0x5a0
 328:	1c 00       	mova	#0x00000,r12	
 32a:	1c 00       	mova	#0x00000,r12	
 32c:	00 00       	bra	@r0		
 32e:	0c 03       	mova	#2,	r12	;r3 As==10
 330:	00 00       	bra	@r0		
 332:	58 3d       	jmp	$+690    	;abs 0x5e4
 334:	72 00 42 0e 	mova	r0,	&0x0e42	
 338:	04 42       	mov	r2,	r4	
 33a:	0e 06       	mova	@r6,	r14	
 33c:	42 0e       	rlam.a	#4,	r2	
 33e:	08 42       	mov	r2,	r8	
 340:	0e 0a       	mova	@r10,	r14	
 342:	88 05 89 04 	mova	#0x50489,r8	
 346:	8a 03 8b 02 	mova	#0x3028b,r10	
 34a:	08 00       	mova	@r0,	r8	
 34c:	00 00       	bra	@r0		
 34e:	0c 03       	mova	#2,	r12	;r3 As==10
 350:	00 00       	bra	@r0		
 352:	ca 3d       	jmp	$+918    	;abs 0x6e8
 354:	48 00       	rrcm.a	#1,	r8	
 356:	08 00       	mova	@r0,	r8	
 358:	00 00       	bra	@r0		
 35a:	0c 03       	mova	#2,	r12	;r3 As==10
 35c:	00 00       	bra	@r0		
 35e:	12 3e       	jmp	$-986    	;abs 0xff84
 360:	3e 00 0e 00 	mova	0x000e,	r14	;PC rel. 0x00370
 364:	00 00       	bra	@r0		
 366:	ff ff ff ff 	and.b	@r15+,	-1(r15)	;0xffff(r15)
 36a:	01 00       	mova	@r0,	r1	
 36c:	01 7e       	subc	r14,	r1	
 36e:	00 0c       	bra	@r12		
 370:	01 02       	mova	#4,	r1	;r2 As==10
 372:	80 01 08 00 	bra	#0x10008	
 376:	00 00       	bra	@r0		
 378:	62 03 00 00 	mova	#0,	&0x20000;r3 As==00
 37c:	50 3e       	jmp	$-862    	;abs 0x1e
 37e:	32 00 08 00 	mova	0x0008,	r2	;PC rel. 0x00388
 382:	00 00       	bra	@r0		
 384:	62 03 00 00 	mova	#0,	&0x20000;r3 As==00
 388:	82 3e       	jmp	$-762    	;abs 0x8e
 38a:	10 00       	bra	#0x00000	
 38c:	0e 00       	mova	@r0,	r14	
 38e:	00 00       	bra	@r0		
 390:	ff ff ff ff 	and.b	@r15+,	-1(r15)	;0xffff(r15)
 394:	01 00       	mova	@r0,	r1	
 396:	01 7e       	subc	r14,	r1	
 398:	00 0c       	bra	@r12		
 39a:	01 02       	mova	#4,	r1	;r2 As==10
 39c:	80 01 08 00 	bra	#0x10008	
 3a0:	00 00       	bra	@r0		
 3a2:	8c 03 00 00 	mova	#0x30000,r12	
 3a6:	92 3e       	jmp	$-730    	;abs 0xcc
 3a8:	12 00       	mova	#0x00000,r2	
 3aa:	08 00       	mova	@r0,	r8	
 3ac:	00 00       	bra	@r0		
 3ae:	8c 03 00 00 	mova	#0x30000,r12	
 3b2:	a4 3e       	jmp	$-694    	;abs 0xfc
 3b4:	0e 00       	mova	@r0,	r14	
 3b6:	0e 00       	mova	@r0,	r14	
 3b8:	00 00       	bra	@r0		
 3ba:	ff ff ff ff 	and.b	@r15+,	-1(r15)	;0xffff(r15)
 3be:	01 00       	mova	@r0,	r1	
 3c0:	01 7e       	subc	r14,	r1	
 3c2:	00 0c       	bra	@r12		
 3c4:	01 02       	mova	#4,	r1	;r2 As==10
 3c6:	80 01 34 00 	bra	#0x10034	
 3ca:	00 00       	bra	@r0		
 3cc:	b6 03 00 00 	suba	#0x30000,r6	
 3d0:	b2 3e       	jmp	$-666    	;abs 0x136
 3d2:	04 01       	mova	@r1,	r4	
 3d4:	42 0e       	rlam.a	#4,	r2	
 3d6:	04 42       	mov	r2,	r4	
 3d8:	0e 06       	mova	@r6,	r14	
 3da:	42 0e       	rlam.a	#4,	r2	
 3dc:	08 42       	mov	r2,	r8	
 3de:	0e 0a       	mova	@r10,	r14	
 3e0:	42 0e       	rlam.a	#4,	r2	
 3e2:	0c 42       	mov	r2,	r12	
 3e4:	0e 0e       	mova	@r14,	r14	
 3e6:	42 0e       	rlam.a	#4,	r2	
 3e8:	10 42 0e 12 	br	&0x120e	
 3ec:	42 0e       	rlam.a	#4,	r2	
 3ee:	14 84 09 85 	sub	-31479(r4),r4	;0x8509(r4)
 3f2:	08 86       	sub	r6,	r8	
 3f4:	07 87       	sub	r7,	r7	
 3f6:	06 88       	sub	r8,	r6	
 3f8:	05 89       	sub	r9,	r5	
 3fa:	04 8a       	sub	r10,	r4	
 3fc:	03 8b       	.word	0x8b03;	????	Illegal as 2-op instr
 3fe:	02 00       	mova	@r0,	r2	
 400:	34 00 00 00 	mova	0x0000,	r4	;PC rel. 0x00402
 404:	b6 03 00 00 	suba	#0x30000,r6	
 408:	be 3f       	jmp	$-130    	;abs 0x386
 40a:	6a 03 42 0e 	mova	#0,	&0xa0e42;r3 As==00
 40e:	04 42       	mov	r2,	r4	
 410:	0e 06       	mova	@r6,	r14	
 412:	42 0e       	rlam.a	#4,	r2	
 414:	08 42       	mov	r2,	r8	
 416:	0e 0a       	mova	@r10,	r14	
 418:	42 0e       	rlam.a	#4,	r2	
 41a:	0c 42       	mov	r2,	r12	
 41c:	0e 0e       	mova	@r14,	r14	
 41e:	42 0e       	rlam.a	#4,	r2	
 420:	10 42 0e 12 	br	&0x120e	
 424:	44 0e       	rlam.a	#4,	r4	
 426:	34 84       	sub	@r4+,	r4	
 428:	09 85       	sub	r5,	r9	
 42a:	08 86       	sub	r6,	r8	
 42c:	07 87       	sub	r7,	r7	
 42e:	06 88       	sub	r8,	r6	
 430:	05 89       	sub	r9,	r5	
 432:	04 8a       	sub	r10,	r4	
 434:	03 8b       	.word	0x8b03;	????	Illegal as 2-op instr
 436:	02 00       	mova	@r0,	r2	

Disassembly of section .debug_str:

00000000 <.debug_str>:
   0:	4e 4f       	mov.b	r15,	r14	
   2:	4e 45       	mov.b	r5,	r14	
   4:	00 53       	add	#0,	r0	;r3 As==00
   6:	48 4f       	mov.b	r15,	r8	
   8:	57 5f 4d 45 	add.b	17741(r15),r7	;0x454d(r15)
   c:	4e 55       	add.b	r5,	r14	
   e:	00 6d       	addc	r13,	r0	
  10:	6f 74       	subc.b	@r4,	r15	
  12:	6f 72       	subc.b	#4,	r15	;r2 As==10
  14:	5f 69 6e 63 	addc.b	25454(r9),r15	;0x636e(r9)
  18:	5f 74 78 74 	subc.b	29816(r4),r15	;0x7478(r4)
  1c:	00 2a       	jnc	$-1022   	;abs 0xfc1e
  1e:	5f 5f 54 42 	add.b	16980(r15),r15	;0x4254(r15)
  22:	43 43       	clr.b	#0		;r3 As==00
  24:	52 35       	jge	$+678    	;abs 0x2ca
  26:	00 6c       	addc	r12,	r0	
  28:	6f 6e       	addc.b	@r14,	r15	
  2a:	67 20       	jnz	$+208    	;abs 0xfa
  2c:	6c 6f       	addc.b	@r15,	r12	
  2e:	6e 67       	addc.b	@r7,	r14	
  30:	20 75       	subc	@r5,	r0	
  32:	6e 73       	subc.b	#2,	r14	;r3 As==10
  34:	69 67       	addc.b	@r7,	r9	
  36:	6e 65       	addc.b	@r5,	r14	
  38:	64 20       	jnz	$+202    	;abs 0x102
  3a:	69 6e       	addc.b	@r14,	r9	
  3c:	74 00 47 50 	mova	r0,	20551(r4);0x5047(r4)
  40:	43 6f       	.word	0x6f43;	????	Illegal as 2-op instr
  42:	75 6e       	addc.b	@r14+,	r5	
  44:	74 65       	addc.b	@r5+,	r4	
  46:	72 00 6d 6f 	mova	r0,	&0x6f6d	
  4a:	74 6f       	addc.b	@r15+,	r4	
  4c:	72 74       	subc.b	@r4+,	r2	
  4e:	65 73       	subc.b	#2,	r5	;r3 As==10
  50:	74 65       	addc.b	@r5+,	r4	
  52:	72 2e       	jc	$-794    	;abs 0xfd38
  54:	63 00 2a 5f 	mova	r0,	&0x35f2a
  58:	5f 54 41 43 	add.b	17217(r4),r15	;0x4341(r4)
  5c:	43 52       	.word	0x5243;	????	Illegal as 2-op instr
  5e:	30 00 2a 5f 	bra	0x5f2a		;PC rel. 0x05f8a
  62:	5f 54 41 43 	add.b	17217(r4),r15	;0x4341(r4)
  66:	43 52       	.word	0x5243;	????	Illegal as 2-op instr
  68:	31 00 2a 5f 	mova	0x5f2a,	r1	;PC rel. 0x05f94
  6c:	5f 49 46 47 	mov.b	18246(r9),r15	;0x4746(r9)
  70:	32 00 6c 6f 	mova	0x6f6c,	r2	;PC rel. 0x06fde
  74:	6e 67       	addc.b	@r7,	r14	
  76:	20 6c       	addc	@r12,	r0	
  78:	6f 6e       	addc.b	@r14,	r15	
  7a:	67 20       	jnz	$+208    	;abs 0x14a
  7c:	69 6e       	addc.b	@r14,	r9	
  7e:	74 00 2a 5f 	mova	r0,	24362(r4);0x5f2a(r4)
  82:	5f 42 43 53 	mov.b	&0x5343,r15	
  86:	43 54       	.word	0x5443;	????	Illegal as 2-op instr
  88:	4c 33       	jn	$-358    	;abs 0xff22
  8a:	00 2a       	jnc	$-1022   	;abs 0xfc8c
  8c:	5f 5f 50 32 	add.b	12880(r15),r15	;0x3250(r15)
  90:	44 49       	mov.b	r9,	r4	
  92:	52 00       	rrcm	#1,	r2	
  94:	2a 5f       	add	@r15,	r10	
  96:	5f 57 44 54 	add.b	21572(r7),r15	;0x5444(r7)
  9a:	43 54       	.word	0x5443;	????	Illegal as 2-op instr
  9c:	4c 00       	rrcm.a	#1,	r12	
  9e:	63 61       	.word	0x6163;	????	Illegal as 2-op instr
  a0:	6c 69       	addc.b	@r9,	r12	
  a2:	62 72       	subc.b	#4,	r2	;r2 As==10
  a4:	61 74       	subc.b	@r4,	r1	
  a6:	65 5f       	add.b	@r15,	r5	
  a8:	63 75       	.word	0x7563;	????	Illegal as 2-op instr
  aa:	72 72       	subc.b	#8,	r2	;r2 As==11
  ac:	65 6e       	addc.b	@r14,	r5	
  ae:	74 5f       	add.b	@r15+,	r4	
  b0:	74 78       	subc.b	@r8+,	r4	
  b2:	74 00 70 61 	mova	r0,	24944(r4);0x6170(r4)
  b6:	72 61       	addc.b	@r1+,	r2	
  b8:	6d 73       	subc.b	#2,	r13	;r3 As==10
  ba:	5f 6e 6f 74 	addc.b	29807(r14),r15	;0x746f(r14)
  be:	5f 73       	subc.b	#1,	r15	;r3 As==01
  c0:	61 76       	subc.b	@r6,	r1	
  c2:	65 64       	addc.b	@r4,	r5	
  c4:	5f 74 78 74 	subc.b	29816(r4),r15	;0x7478(r4)
  c8:	00 43       	clr	r0		
  ca:	4f 4d       	mov.b	r13,	r15	
  cc:	4d 41       	mov.b	r1,	r13	
  ce:	4e 44       	mov.b	r4,	r14	
  d0:	00 73       	sbc	r0		
  d2:	68 6f       	addc.b	@r15,	r8	
  d4:	77 6d       	addc.b	@r13+,	r7	
  d6:	65 6e       	addc.b	@r14,	r5	
  d8:	75 5f       	add.b	@r15+,	r5	
  da:	74 78       	subc.b	@r8+,	r4	
  dc:	74 00 2a 5f 	mova	r0,	24362(r4);0x5f2a(r4)
  e0:	5f 55 43 41 	add.b	16707(r5),r15	;0x4143(r5)
  e4:	30 52       	add	#8,	r0	;r2 As==11
  e6:	58 42 55 46 	mov.b	&0x4655,r8	
  ea:	00 49       	br	r9		
  ec:	44 4c       	mov.b	r12,	r4	
  ee:	45 00       	rrcm.a	#1,	r5	
  f0:	2a 5f       	add	@r15,	r10	
  f2:	5f 54 42 43 	add.b	17218(r4),r15	;0x4342(r4)
  f6:	43 54       	.word	0x5443;	????	Illegal as 2-op instr
  f8:	4c 31       	jn	$+666    	;abs 0x392
  fa:	00 2a       	jnc	$-1022   	;abs 0xfcfc
  fc:	5f 5f 54 42 	add.b	16980(r15),r15	;0x4254(r15)
 100:	43 43       	clr.b	#0		;r3 As==00
 102:	54 4c 32 00 	mov.b	50(r12),r4	;0x0032(r12)
 106:	2a 5f       	add	@r15,	r10	
 108:	5f 54 42 43 	add.b	17218(r4),r15	;0x4342(r4)
 10c:	43 54       	.word	0x5443;	????	Illegal as 2-op instr
 10e:	4c 33       	jn	$-358    	;abs 0xffa8
 110:	00 2a       	jnc	$-1022   	;abs 0xfd12
 112:	5f 5f 54 42 	add.b	16980(r15),r15	;0x4254(r15)
 116:	43 43       	clr.b	#0		;r3 As==00
 118:	54 4c 35 00 	mov.b	53(r12),r4	;0x0035(r12)
 11c:	2a 5f       	add	@r15,	r10	
 11e:	5f 54 42 43 	add.b	17218(r4),r15	;0x4342(r4)
 122:	43 54       	.word	0x5443;	????	Illegal as 2-op instr
 124:	4c 34       	jge	$+154    	;abs 0x1be
 126:	00 63       	adc	r0		
 128:	61 6c       	addc.b	@r12,	r1	
 12a:	69 62       	addc.b	#4,	r9	;r2 As==10
 12c:	72 61       	addc.b	@r1+,	r2	
 12e:	74 65       	addc.b	@r5+,	r4	
 130:	5f 6c 69 67 	addc.b	26473(r12),r15	;0x6769(r12)
 134:	68 74       	subc.b	@r4,	r8	
 136:	5f 74 78 74 	subc.b	29816(r4),r15	;0x7478(r4)
 13a:	00 2a       	jnc	$-1022   	;abs 0xfd3c
 13c:	5f 5f 54 42 	add.b	16980(r15),r15	;0x4254(r15)
 140:	43 43       	clr.b	#0		;r3 As==00
 142:	54 4c 36 00 	mov.b	54(r12),r4	;0x0036(r12)
 146:	43 41       	.word	0x4143;	????	Illegal as 2-op instr
 148:	4c 49       	mov.b	r9,	r12	
 14a:	42 52       	rla.b	r2		
 14c:	41 54       	add.b	r4,	r1	
 14e:	45 5f       	add.b	r15,	r5	
 150:	45 53       	add.b	#0,	r5	;r3 As==00
 152:	43 00       	rrcm.a	#1,	#0	;r3 As==00
 154:	63 6c       	.word	0x6c63;	????	Illegal as 2-op instr
 156:	6f 63       	addc.b	#2,	r15	;r3 As==10
 158:	6b 5f       	add.b	@r15,	r11	
 15a:	69 6e       	addc.b	@r14,	r9	
 15c:	69 74       	subc.b	@r4,	r9	
 15e:	00 73       	sbc	r0		
 160:	65 6e       	addc.b	@r14,	r5	
 162:	64 5f       	add.b	@r15,	r4	
 164:	64 61       	addc.b	@r1,	r4	
 166:	74 61       	addc.b	@r1+,	r4	
 168:	00 74       	subc	r4,	r0	
 16a:	65 73       	subc.b	#2,	r5	;r3 As==10
 16c:	74 69       	addc.b	@r9+,	r4	
 16e:	6e 67       	addc.b	@r7,	r14	
 170:	5f 74 78 74 	subc.b	29816(r4),r15	;0x7478(r4)
 174:	00 56       	add	r6,	r0	
 176:	61 6c       	addc.b	@r12,	r1	
 178:	6f 72       	subc.b	#4,	r15	;r2 As==10
 17a:	42 61       	addc.b	r1,	r2	
 17c:	6c 61       	addc.b	@r1,	r12	
 17e:	6e 63       	addc.b	#2,	r14	;r3 As==10
 180:	61 00 41 6e 	mova	r0,	&0x16e41
 184:	61 6c       	addc.b	@r12,	r1	
 186:	6f 67       	addc.b	@r7,	r15	
 188:	4f 66       	addc.b	r6,	r15	
 18a:	66 73       	subc.b	#2,	r6	;r3 As==10
 18c:	65 74       	subc.b	@r4,	r5	
 18e:	00 73       	sbc	r0		
 190:	68 6f       	addc.b	@r15,	r8	
 192:	72 74       	subc.b	@r4+,	r2	
 194:	20 75       	subc	@r5,	r0	
 196:	6e 73       	subc.b	#2,	r14	;r3 As==10
 198:	69 67       	addc.b	@r7,	r9	
 19a:	6e 65       	addc.b	@r5,	r14	
 19c:	64 20       	jnz	$+202    	;abs 0x266
 19e:	69 6e       	addc.b	@r14,	r9	
 1a0:	74 00 74 69 	mova	r0,	26996(r4);0x6974(r4)
 1a4:	6d 65       	addc.b	@r5,	r13	
 1a6:	72 5f       	add.b	@r15+,	r2	
 1a8:	69 6e       	addc.b	@r14,	r9	
 1aa:	69 74       	subc.b	@r4,	r9	
 1ac:	00 70       	subc	r0,	r0	
 1ae:	61 72       	subc.b	#4,	r1	;r2 As==10
 1b0:	61 6d       	addc.b	@r13,	r1	
 1b2:	73 5f       	.word	0x5f73;	????	Illegal as 2-op instr
 1b4:	73 61       	.word	0x6173;	????	Illegal as 2-op instr
 1b6:	76 65       	addc.b	@r5+,	r6	
 1b8:	64 5f       	add.b	@r15,	r4	
 1ba:	74 78       	subc.b	@r8+,	r4	
 1bc:	74 00 53 45 	mova	r0,	17747(r4);0x4553(r4)
 1c0:	54 5f 4d 4f 	add.b	20301(r15),r4	;0x4f4d(r15)
 1c4:	54 4f 52 5f 	mov.b	24402(r15),r4	;0x5f52(r15)
 1c8:	49 4e       	mov.b	r14,	r9	
 1ca:	43 00       	rrcm.a	#1,	#0	;r3 As==00
 1cc:	4d 6f       	addc.b	r15,	r13	
 1ce:	74 6f       	addc.b	@r15+,	r4	
 1d0:	72 49       	mov.b	@r9+,	r2	
 1d2:	6e 63       	addc.b	#2,	r14	;r3 As==10
 1d4:	00 4d       	br	r13		
 1d6:	6f 74       	subc.b	@r4,	r15	
 1d8:	6f 72       	subc.b	#4,	r15	;r2 As==10
 1da:	53 74       	.word	0x7453;	????	Illegal as 2-op instr
 1dc:	61 62       	addc.b	#4,	r1	;r2 As==10
 1de:	00 53       	add	#0,	r0	;r3 As==00
 1e0:	45 54       	add.b	r4,	r5	
 1e2:	5f 4d 4f 54 	mov.b	21583(r13),r15	;0x544f(r13)
 1e6:	4f 52       	add.b	r2,	r15	
 1e8:	5f 53       	inc.b	r15		
 1ea:	54 41 42 00 	mov.b	66(r1),	r4	;0x0042(r1)
 1ee:	53 41       	.word	0x4153;	????	Illegal as 2-op instr
 1f0:	56 45 5f 50 	mov.b	20575(r5),r6	;0x505f(r5)
 1f4:	41 52       	add.b	r2,	r1	
 1f6:	41 4d       	mov.b	r13,	r1	
 1f8:	53 00       	rrcm	#1,	#0	;r3 As==00
 1fa:	65 65       	addc.b	@r5,	r5	
 1fc:	70 72       	subc.b	#8,	r0	;r2 As==11
 1fe:	6f 6d       	addc.b	@r13,	r15	
 200:	5f 6e 6f 74 	addc.b	29807(r14),r15	;0x746f(r14)
 204:	5f 66 6f 75 	addc.b	30063(r6),r15	;0x756f(r6)
 208:	6e 64       	addc.b	@r4,	r14	
 20a:	5f 74 78 74 	subc.b	29816(r4),r15	;0x7478(r4)
 20e:	00 76       	subc	r6,	r0	
 210:	61 6c       	addc.b	@r12,	r1	
 212:	6f 72       	subc.b	#4,	r15	;r2 As==10
 214:	00 63       	adc	r0		
 216:	61 6c       	addc.b	@r12,	r1	
 218:	69 62       	addc.b	#4,	r9	;r2 As==10
 21a:	72 61       	addc.b	@r1+,	r2	
 21c:	74 65       	addc.b	@r5+,	r4	
 21e:	5f 65 73 63 	addc.b	25459(r5),r15	;0x6373(r5)
 222:	5f 74 78 74 	subc.b	29816(r4),r15	;0x7478(r4)
 226:	00 53       	add	#0,	r0	;r3 As==00
 228:	54 41 52 54 	mov.b	21586(r1),r4	;0x5452(r1)
 22c:	00 63       	adc	r0		
 22e:	61 6c       	addc.b	@r12,	r1	
 230:	69 62       	addc.b	#4,	r9	;r2 As==10
 232:	72 61       	addc.b	@r1+,	r2	
 234:	74 65       	addc.b	@r5+,	r4	
 236:	5f 6c 6f 61 	addc.b	24943(r12),r15	;0x616f(r12)
 23a:	64 5f       	add.b	@r15,	r4	
 23c:	74 78       	subc.b	@r8+,	r4	
 23e:	74 00 43 41 	mova	r0,	16707(r4);0x4143(r4)
 242:	4c 49       	mov.b	r9,	r12	
 244:	42 52       	rla.b	r2		
 246:	41 54       	add.b	r4,	r1	
 248:	45 5f       	add.b	r15,	r5	
 24a:	41 4e       	mov.b	r14,	r1	
 24c:	41 4c       	mov.b	r12,	r1	
 24e:	4f 47       	mov.b	r7,	r15	
 250:	00 66       	addc	r6,	r0	
 252:	6c 6f       	addc.b	@r15,	r12	
 254:	61 74       	subc.b	@r4,	r1	
 256:	00 6c       	addc	r12,	r0	
 258:	6f 61       	addc.b	@r1,	r15	
 25a:	64 5f       	add.b	@r15,	r4	
 25c:	70 61       	addc.b	@r1+,	r0	
 25e:	72 61       	addc.b	@r1+,	r2	
 260:	6d 73       	subc.b	#2,	r13	;r3 As==10
 262:	00 54       	add	r4,	r0	
 264:	69 6d       	addc.b	@r13,	r9	
 266:	65 44       	mov.b	@r4,	r5	
 268:	65 6c       	addc.b	@r12,	r5	
 26a:	61 79       	subc.b	@r9,	r1	
 26c:	00 75       	subc	r5,	r0	
 26e:	6e 73       	subc.b	#2,	r14	;r3 As==10
 270:	69 67       	addc.b	@r7,	r9	
 272:	6e 65       	addc.b	@r5,	r14	
 274:	64 20       	jnz	$+202    	;abs 0x33e
 276:	63 68       	.word	0x6863;	????	Illegal as 2-op instr
 278:	61 72       	subc.b	#4,	r1	;r2 As==10
 27a:	00 2a       	jnc	$-1022   	;abs 0xfe7c
 27c:	5f 5f 54 41 	add.b	16724(r15),r15	;0x4154(r15)
 280:	43 54       	.word	0x5443;	????	Illegal as 2-op instr
 282:	4c 00       	rrcm.a	#1,	r12	
 284:	73 74       	.word	0x7473;	????	Illegal as 2-op instr
 286:	61 72       	subc.b	#4,	r1	;r2 As==10
 288:	74 75       	subc.b	@r5+,	r4	
 28a:	70 5f       	add.b	@r15+,	r0	
 28c:	74 78       	subc.b	@r8+,	r4	
 28e:	74 00 6d 6f 	mova	r0,	28525(r4);0x6f6d(r4)
 292:	74 6f       	addc.b	@r15+,	r4	
 294:	72 5f       	add.b	@r15+,	r2	
 296:	73 74       	.word	0x7473;	????	Illegal as 2-op instr
 298:	61 62       	addc.b	#4,	r1	;r2 As==10
 29a:	5f 74 78 74 	subc.b	29816(r4),r15	;0x7478(r4)
 29e:	00 53       	add	#0,	r0	;r3 As==00
 2a0:	54 4f 50 00 	mov.b	80(r15),r4	;0x0050(r15)
 2a4:	2a 5f       	add	@r15,	r10	
 2a6:	5f 50 34 53 	add.b	0x5334,	r15	;PC rel. 0x055de
 2aa:	45 4c       	mov.b	r12,	r5	
 2ac:	00 73       	sbc	r0		
 2ae:	61 76       	subc.b	@r6,	r1	
 2b0:	65 5f       	add.b	@r15,	r5	
 2b2:	70 61       	addc.b	@r1+,	r0	
 2b4:	72 61       	addc.b	@r1+,	r2	
 2b6:	6d 73       	subc.b	#2,	r13	;r3 As==10
 2b8:	00 2a       	jnc	$-1022   	;abs 0xfeba
 2ba:	5f 5f 54 42 	add.b	16980(r15),r15	;0x4254(r15)
 2be:	43 43       	clr.b	#0		;r3 As==00
 2c0:	52 30       	jn	$+166    	;abs 0x366
 2c2:	00 2a       	jnc	$-1022   	;abs 0xfec4
 2c4:	5f 5f 54 42 	add.b	16980(r15),r15	;0x4254(r15)
 2c8:	43 43       	clr.b	#0		;r3 As==00
 2ca:	52 31       	jn	$+678    	;abs 0x570
 2cc:	00 2a       	jnc	$-1022   	;abs 0xfece
 2ce:	5f 5f 54 42 	add.b	16980(r15),r15	;0x4254(r15)
 2d2:	43 43       	clr.b	#0		;r3 As==00
 2d4:	52 32       	jn	$-858    	;abs 0xff7a
 2d6:	00 2a       	jnc	$-1022   	;abs 0xfed8
 2d8:	5f 5f 54 42 	add.b	16980(r15),r15	;0x4254(r15)
 2dc:	43 43       	clr.b	#0		;r3 As==00
 2de:	52 33       	jn	$-346    	;abs 0x184
 2e0:	00 2a       	jnc	$-1022   	;abs 0xfee2
 2e2:	5f 5f 54 42 	add.b	16980(r15),r15	;0x4254(r15)
 2e6:	43 43       	clr.b	#0		;r3 As==00
 2e8:	52 34       	jge	$+166    	;abs 0x38e
 2ea:	00 54       	add	r4,	r0	
 2ec:	45 53       	add.b	#0,	r5	;r3 As==00
 2ee:	54 49 4e 47 	mov.b	18254(r9),r4	;0x474e(r9)
 2f2:	00 2a       	jnc	$-1022   	;abs 0xfef4
 2f4:	5f 5f 54 42 	add.b	16980(r15),r15	;0x4254(r15)
 2f8:	43 43       	clr.b	#0		;r3 As==00
 2fa:	52 36       	jge	$-858    	;abs 0xffa0
 2fc:	00 53       	add	#0,	r0	;r3 As==00
 2fe:	74 61       	addc.b	@r1+,	r4	
 300:	74 65       	addc.b	@r5+,	r4	
 302:	00 53       	add	#0,	r0	;r3 As==00
 304:	54 41 54 45 	mov.b	17748(r1),r4	;0x4554(r1)
 308:	00 41       	br	r1		
 30a:	6e 61       	addc.b	@r1,	r14	
 30c:	6c 6f       	addc.b	@r15,	r12	
 30e:	67 56       	add.b	@r6,	r7	
 310:	61 6c       	addc.b	@r12,	r1	
 312:	75 65       	addc.b	@r5+,	r5	
 314:	00 54       	add	r4,	r0	
 316:	49 4d       	mov.b	r13,	r9	
 318:	45 52       	add.b	r2,	r5	
 31a:	41 31       	jn	$+644    	;abs 0x59e
 31c:	5f 49 53 52 	mov.b	21075(r9),r15	;0x5253(r9)
 320:	5f 48 4f 4f 	mov.b	20303(r8),r15	;0x4f4f(r8)
 324:	4b 00       	rrcm.a	#1,	r11	
 326:	43 3a       	jl	$-888    	;abs 0xffae
 328:	5c 55 73 65 	add.b	25971(r5),r12	;0x6573(r5)
 32c:	72 73       	subc.b	#-1,	r2	;r3 As==11
 32e:	5c 66 6c 61 	addc.b	24940(r6),r12	;0x616c(r6)
 332:	76 69       	addc.b	@r9+,	r6	
 334:	6f 68       	addc.b	@r8,	r15	
 336:	70 6f       	addc.b	@r15+,	r0	
 338:	5c 44 65 73 	mov.b	29541(r4),r12	;0x7365(r4)
 33c:	6b 74       	subc.b	@r4,	r11	
 33e:	6f 70       	subc.b	@r0,	r15	
 340:	5c 6d 69 6e 	addc.b	28265(r13),r12	;0x6e69(r13)
 344:	69 71       	subc.b	@r1,	r9	
 346:	75 61       	addc.b	@r1+,	r5	
 348:	64 5c       	add.b	@r12,	r4	
 34a:	6d 6f       	addc.b	@r15,	r13	
 34c:	74 6f       	addc.b	@r15+,	r4	
 34e:	72 74       	subc.b	@r4+,	r2	
 350:	65 73       	subc.b	#2,	r5	;r3 As==10
 352:	74 65       	addc.b	@r5+,	r4	
 354:	72 00 2a 5f 	mova	r0,	&0x5f2a	
 358:	5f 54 41 43 	add.b	17217(r4),r15	;0x4341(r4)
 35c:	43 54       	.word	0x5443;	????	Illegal as 2-op instr
 35e:	4c 30       	jn	$+154    	;abs 0x3f8
 360:	00 2a       	jnc	$-1022   	;abs 0xff62
 362:	5f 5f 54 41 	add.b	16724(r15),r15	;0x4154(r15)
 366:	43 43       	clr.b	#0		;r3 As==00
 368:	54 4c 31 00 	mov.b	49(r12),r4	;0x0031(r12)
 36c:	2a 5f       	add	@r15,	r10	
 36e:	5f 42 43 53 	mov.b	&0x5343,r15	
 372:	43 54       	.word	0x5443;	????	Illegal as 2-op instr
 374:	4c 31       	jn	$+666    	;abs 0x60e
 376:	00 2a       	jnc	$-1022   	;abs 0xff78
 378:	5f 5f 42 43 	add.b	17218(r15),r15	;0x4342(r15)
 37c:	53 43       	.word	0x4353;	????	Illegal as 2-op instr
 37e:	54 4c 32 00 	mov.b	50(r12),r4	;0x0032(r12)
 382:	2a 5f       	add	@r15,	r10	
 384:	5f 44 43 4f 	mov.b	20291(r4),r15	;0x4f43(r4)
 388:	43 54       	.word	0x5443;	????	Illegal as 2-op instr
 38a:	4c 00       	rrcm.a	#1,	r12	
 38c:	2a 5f       	add	@r15,	r10	
 38e:	5f 54 42 43 	add.b	17218(r4),r15	;0x4342(r4)
 392:	54 4c 00 2a 	mov.b	10752(r12),r4	;0x2a00(r12)
 396:	5f 5f 50 32 	add.b	12880(r15),r15	;0x3250(r15)
 39a:	53 45       	.word	0x4553;	????	Illegal as 2-op instr
 39c:	4c 00       	rrcm.a	#1,	r12	
 39e:	47 4e       	mov.b	r14,	r7	
 3a0:	55 20       	jnz	$+172    	;abs 0x44c
 3a2:	43 20       	jnz	$+136    	;abs 0x42a
 3a4:	34 2e       	jc	$-918    	;abs 0xe
 3a6:	35 2e       	jc	$-916    	;abs 0x12
 3a8:	33 00       	.word	0x0033;	????	Illegal as address instr
 3aa:	63 61       	.word	0x6163;	????	Illegal as 2-op instr
 3ac:	6c 69       	addc.b	@r9,	r12	
 3ae:	62 72       	subc.b	#4,	r2	;r2 As==10
 3b0:	61 74       	subc.b	@r4,	r1	
 3b2:	65 5f       	add.b	@r15,	r5	
 3b4:	65 73       	subc.b	#2,	r5	;r3 As==10
 3b6:	63 00 2a 5f 	mova	r0,	&0x35f2a
 3ba:	5f 50 34 44 	add.b	0x4434,	r15	;PC rel. 0x047f2
 3be:	49 52       	add.b	r2,	r9	
 3c0:	00 6d       	addc	r13,	r0	
 3c2:	61 69       	addc.b	@r9,	r1	
 3c4:	6e 00 74 65 	mova	r0,	&0xe6574
 3c8:	6d 70       	subc.b	@r0,	r13	
 3ca:	6f 00 43 3a 	mova	r0,	&0xf3a43
 3ce:	5c 55 73 65 	add.b	25971(r5),r12	;0x6573(r5)
 3d2:	72 73       	subc.b	#-1,	r2	;r3 As==11
 3d4:	5c 66 6c 61 	addc.b	24940(r6),r12	;0x616c(r6)
 3d8:	76 69       	addc.b	@r9+,	r6	
 3da:	6f 68       	addc.b	@r8,	r15	
 3dc:	70 6f       	addc.b	@r15+,	r0	
 3de:	5c 44 65 73 	mov.b	29541(r4),r12	;0x7365(r4)
 3e2:	6b 74       	subc.b	@r4,	r11	
 3e4:	6f 70       	subc.b	@r0,	r15	
 3e6:	5c 6d 69 6e 	addc.b	28265(r13),r12	;0x6e69(r13)
 3ea:	69 71       	subc.b	@r1,	r9	
 3ec:	75 61       	addc.b	@r1+,	r5	
 3ee:	64 5c       	add.b	@r12,	r4	
 3f0:	6d 69       	addc.b	@r9,	r13	
 3f2:	6e 69       	addc.b	@r9,	r14	
 3f4:	71 75       	subc.b	@r5+,	r1	
 3f6:	61 64       	addc.b	@r4,	r1	
 3f8:	5c 63       	addc.b	#1,	r12	;r3 As==01
 3fa:	75 72       	subc.b	#8,	r5	;r2 As==11
 3fc:	72 65       	addc.b	@r5+,	r2	
 3fe:	6e 74       	subc.b	@r4,	r14	
 400:	00 73       	sbc	r0		
 402:	65 74       	subc.b	@r4,	r5	
 404:	5f 64 65 6c 	addc.b	27749(r4),r15	;0x6c65(r4)
 408:	61 79       	subc.b	@r9,	r1	
 40a:	00 64       	addc	r4,	r0	
 40c:	65 6c       	addc.b	@r12,	r5	
 40e:	61 79       	subc.b	@r9,	r1	
 410:	6d 73       	subc.b	#2,	r13	;r3 As==10
 412:	00 64       	addc	r4,	r0	
 414:	65 6c       	addc.b	@r12,	r5	
 416:	61 79       	subc.b	@r9,	r1	
 418:	35 75       	subc	@r5+,	r5	
 41a:	73 00       	.word	0x0073;	????	Illegal as address instr
 41c:	74 69       	addc.b	@r9+,	r4	
 41e:	6d 65       	addc.b	@r5,	r13	
 420:	00 64       	addc	r4,	r0	
 422:	65 6c       	addc.b	@r12,	r5	
 424:	61 79       	subc.b	@r9,	r1	
 426:	75 73       	subc.b	#-1,	r5	;r3 As==11
 428:	00 64       	addc	r4,	r0	
 42a:	65 6c       	addc.b	@r12,	r5	
 42c:	61 79       	subc.b	@r9,	r1	
 42e:	2e 63       	addc	#2,	r14	;r3 As==10
 430:	00 70       	subc	r0,	r0	
 432:	6f 73       	subc.b	#2,	r15	;r3 As==10
 434:	69 74       	subc.b	@r4,	r9	
 436:	69 6f       	addc.b	@r15,	r9	
 438:	6e 00 67 65 	mova	r0,	&0xe6567
 43c:	74 5f       	add.b	@r15+,	r4	
 43e:	64 65       	addc.b	@r5,	r4	
 440:	6c 61       	addc.b	@r1,	r12	
 442:	79 00 64 65 	mova	r0,	25956(r9);0x6564(r9)
 446:	6c 61       	addc.b	@r1,	r12	
 448:	79 32       	jn	$-780    	;abs 0x13c
 44a:	75 73       	subc.b	#-1,	r5	;r3 As==11
 44c:	00 65       	addc	r5,	r0	
 44e:	65 70       	subc.b	@r0,	r5	
 450:	72 6f       	addc.b	@r15+,	r2	
 452:	6d 2e       	jc	$-804    	;abs 0x12e
 454:	63 00 45 45 	mova	r0,	&0x34545
 458:	50 52 4f 4d 	add.b	&0x4d4f,r0	
 45c:	46 6f       	addc.b	r15,	r6	
 45e:	75 6e       	addc.b	@r14+,	r5	
 460:	64 00 69 32 	mova	r0,	&0x43269
 464:	63 5f       	.word	0x5f63;	????	Illegal as 2-op instr
 466:	73 74       	.word	0x7473;	????	Illegal as 2-op instr
 468:	61 72       	subc.b	#4,	r1	;r2 As==10
 46a:	74 5f       	add.b	@r15+,	r4	
 46c:	74 78       	subc.b	@r8+,	r4	
 46e:	00 2a       	jnc	$-1022   	;abs 0x70
 470:	5f 5f 55 43 	add.b	17237(r15),r15	;0x4355(r15)
 474:	42 30       	jn	$+134    	;abs 0x4fa
 476:	42 52       	rla.b	r2		
 478:	30 00 69 32 	bra	0x3269		;PC rel. 0x036e3
 47c:	63 5f       	.word	0x5f63;	????	Illegal as 2-op instr
 47e:	73 74       	.word	0x7473;	????	Illegal as 2-op instr
 480:	6f 70       	subc.b	@r0,	r15	
 482:	5f 72 78 00 	subc.b	&0x0078,r15	
 486:	2a 5f       	add	@r15,	r10	
 488:	5f 50 33 53 	add.b	0x5333,	r15	;PC rel. 0x057bf
 48c:	45 4c       	mov.b	r12,	r5	
 48e:	00 69       	addc	r9,	r0	
 490:	32 63       	addc	#-1,	r2	;r3 As==11
 492:	5f 73       	subc.b	#1,	r15	;r3 As==01
 494:	74 6f       	addc.b	@r15+,	r4	
 496:	70 5f       	add.b	@r15+,	r0	
 498:	74 78       	subc.b	@r8+,	r4	
 49a:	00 2a       	jnc	$-1022   	;abs 0x9c
 49c:	5f 5f 55 43 	add.b	17237(r15),r15	;0x4355(r15)
 4a0:	42 30       	jn	$+134    	;abs 0x526
 4a2:	43 54       	.word	0x5443;	????	Illegal as 2-op instr
 4a4:	4c 30       	jn	$+154    	;abs 0x53e
 4a6:	00 69       	addc	r9,	r0	
 4a8:	32 63       	addc	#-1,	r2	;r3 As==11
 4aa:	5f 77 72 69 	subc.b	26994(r7),r15	;0x6972(r7)
 4ae:	74 65       	addc.b	@r5+,	r4	
 4b0:	5f 74 77 6f 	subc.b	28535(r4),r15	;0x6f77(r4)
 4b4:	5f 62 75 66 	addc.b	&0x6675,r15	
 4b8:	66 65       	addc.b	@r5,	r6	
 4ba:	72 00 73 74 	mova	r0,	&0x7473	
 4be:	61 74       	subc.b	@r4,	r1	
 4c0:	75 73       	subc.b	#-1,	r5	;r3 As==11
 4c2:	00 69       	addc	r9,	r0	
 4c4:	32 63       	addc	#-1,	r2	;r3 As==11
 4c6:	5f 63       	addc.b	#1,	r15	;r3 As==01
 4c8:	6f 6e       	addc.b	@r14,	r15	
 4ca:	66 69       	addc.b	@r9,	r6	
 4cc:	67 00 69 32 	mova	r0,	&0x73269
 4d0:	63 5f       	.word	0x5f63;	????	Illegal as 2-op instr
 4d2:	77 72       	subc.b	#8,	r7	;r2 As==11
 4d4:	69 74       	subc.b	@r4,	r9	
 4d6:	65 5f       	add.b	@r15,	r5	
 4d8:	6f 6e       	addc.b	@r14,	r15	
 4da:	65 5f       	add.b	@r15,	r5	
 4dc:	62 75       	subc.b	@r5,	r2	
 4de:	66 66       	addc.b	@r6,	r6	
 4e0:	65 72       	subc.b	#4,	r5	;r2 As==10
 4e2:	00 2a       	jnc	$-1022   	;abs 0xe4
 4e4:	5f 5f 55 43 	add.b	17237(r15),r15	;0x4355(r15)
 4e8:	42 30       	jn	$+134    	;abs 0x56e
 4ea:	53 54       	.word	0x5453;	????	Illegal as 2-op instr
 4ec:	41 54       	add.b	r4,	r1	
 4ee:	00 2a       	jnc	$-1022   	;abs 0xf0
 4f0:	5f 5f 50 33 	add.b	13136(r15),r15	;0x3350(r15)
 4f4:	44 49       	mov.b	r9,	r4	
 4f6:	52 00       	rrcm	#1,	r2	
 4f8:	69 32       	jn	$-812    	;abs 0x1cc
 4fa:	63 5f       	.word	0x5f63;	????	Illegal as 2-op instr
 4fc:	77 72       	subc.b	#8,	r7	;r2 As==11
 4fe:	69 74       	subc.b	@r4,	r9	
 500:	65 5f       	add.b	@r15,	r5	
 502:	74 77       	subc.b	@r7+,	r4	
 504:	6f 00 69 32 	mova	r0,	&0xf3269
 508:	63 5f       	.word	0x5f63;	????	Illegal as 2-op instr
 50a:	77 72       	subc.b	#8,	r7	;r2 As==11
 50c:	65 61       	addc.b	@r1,	r5	
 50e:	64 5f       	add.b	@r15,	r4	
 510:	74 77       	subc.b	@r7+,	r4	
 512:	6f 5f       	add.b	@r15,	r15	
 514:	64 61       	addc.b	@r1,	r4	
 516:	74 61       	addc.b	@r1+,	r4	
 518:	00 69       	addc	r9,	r0	
 51a:	32 63       	addc	#-1,	r2	;r3 As==11
 51c:	5f 77 72 69 	subc.b	26994(r7),r15	;0x6972(r7)
 520:	74 65       	addc.b	@r5+,	r4	
 522:	5f 6f 6e 65 	addc.b	25966(r15),r15	;0x656e(r15)
 526:	5f 64 61 74 	addc.b	29793(r4),r15	;0x7461(r4)
 52a:	61 00 2a 5f 	mova	r0,	&0x15f2a
 52e:	5f 55 43 42 	add.b	16963(r5),r15	;0x4243(r5)
 532:	30 43       	br	#-1		;r3 As==11
 534:	54 4c 31 00 	mov.b	49(r12),r4	;0x0031(r12)
 538:	69 32       	jn	$-812    	;abs 0x20c
 53a:	63 5f       	.word	0x5f63;	????	Illegal as 2-op instr
 53c:	77 72       	subc.b	#8,	r7	;r2 As==11
 53e:	69 74       	subc.b	@r4,	r9	
 540:	65 5f       	add.b	@r15,	r5	
 542:	74 77       	subc.b	@r7+,	r4	
 544:	6f 5f       	add.b	@r15,	r15	
 546:	64 61       	addc.b	@r1,	r4	
 548:	74 61       	addc.b	@r1+,	r4	
 54a:	00 69       	addc	r9,	r0	
 54c:	32 63       	addc	#-1,	r2	;r3 As==11
 54e:	5f 72 65 61 	subc.b	&0x6165,r15	
 552:	64 5f       	add.b	@r15,	r4	
 554:	64 61       	addc.b	@r1,	r4	
 556:	74 61       	addc.b	@r1+,	r4	
 558:	00 69       	addc	r9,	r0	
 55a:	32 63       	addc	#-1,	r2	;r3 As==11
 55c:	2e 63       	addc	#2,	r14	;r3 As==10
 55e:	00 2a       	jnc	$-1022   	;abs 0x160
 560:	5f 5f 55 43 	add.b	17237(r15),r15	;0x4355(r15)
 564:	42 30       	jn	$+134    	;abs 0x5ea
 566:	42 52       	rla.b	r2		
 568:	31 00 69 32 	mova	0x3269,	r1	;PC rel. 0x037d3
 56c:	63 5f       	.word	0x5f63;	????	Illegal as 2-op instr
 56e:	72 65       	addc.b	@r5+,	r2	
 570:	61 64       	addc.b	@r4,	r1	
 572:	5f 62 75 66 	addc.b	&0x6675,r15	
 576:	66 65       	addc.b	@r5,	r6	
 578:	72 00 69 32 	mova	r0,	&0x3269	
 57c:	63 5f       	.word	0x5f63;	????	Illegal as 2-op instr
 57e:	77 72       	subc.b	#8,	r7	;r2 As==11
 580:	65 61       	addc.b	@r1,	r5	
 582:	64 5f       	add.b	@r15,	r4	
 584:	74 77       	subc.b	@r7+,	r4	
 586:	6f 5f       	add.b	@r15,	r15	
 588:	62 75       	subc.b	@r5,	r2	
 58a:	66 66       	addc.b	@r6,	r6	
 58c:	65 72       	subc.b	#4,	r5	;r2 As==10
 58e:	00 69       	addc	r9,	r0	
 590:	32 63       	addc	#-1,	r2	;r3 As==11
 592:	5f 77 72 65 	subc.b	25970(r7),r15	;0x6572(r7)
 596:	61 64       	addc.b	@r4,	r1	
 598:	5f 6f 6e 65 	addc.b	25966(r15),r15	;0x656e(r15)
 59c:	5f 64 61 74 	addc.b	29793(r4),r15	;0x7461(r4)
 5a0:	61 00 69 32 	mova	r0,	&0x13269
 5a4:	63 5f       	.word	0x5f63;	????	Illegal as 2-op instr
 5a6:	77 72       	subc.b	#8,	r7	;r2 As==11
 5a8:	69 74       	subc.b	@r4,	r9	
 5aa:	65 5f       	add.b	@r15,	r5	
 5ac:	62 75       	subc.b	@r5,	r2	
 5ae:	66 66       	addc.b	@r6,	r6	
 5b0:	65 72       	subc.b	#4,	r5	;r2 As==10
 5b2:	00 69       	addc	r9,	r0	
 5b4:	32 63       	addc	#-1,	r2	;r3 As==11
 5b6:	5f 63       	addc.b	#1,	r15	;r3 As==01
 5b8:	68 61       	addc.b	@r1,	r8	
 5ba:	6e 67       	addc.b	@r7,	r14	
 5bc:	65 5f       	add.b	@r15,	r5	
 5be:	73 6c       	.word	0x6c73;	????	Illegal as 2-op instr
 5c0:	61 76       	subc.b	@r6,	r1	
 5c2:	65 61       	addc.b	@r1,	r5	
 5c4:	64 64       	addc.b	@r4,	r4	
 5c6:	72 65       	addc.b	@r5+,	r2	
 5c8:	73 73       	.word	0x7373;	????	Illegal as 2-op instr
 5ca:	00 2a       	jnc	$-1022   	;abs 0x1cc
 5cc:	5f 5f 55 43 	add.b	17237(r15),r15	;0x4355(r15)
 5d0:	42 30       	jn	$+134    	;abs 0x656
 5d2:	54 58 42 55 	add.b	21826(r8),r4	;0x5542(r8)
 5d6:	46 00       	rrcm.a	#1,	r6	
 5d8:	69 32       	jn	$-812    	;abs 0x2ac
 5da:	63 5f       	.word	0x5f63;	????	Illegal as 2-op instr
 5dc:	77 72       	subc.b	#8,	r7	;r2 As==11
 5de:	69 74       	subc.b	@r4,	r9	
 5e0:	65 5f       	add.b	@r15,	r5	
 5e2:	64 75       	subc.b	@r5,	r4	
 5e4:	6d 6d       	addc.b	@r13,	r13	
 5e6:	79 00 2a 5f 	mova	r0,	24362(r9);0x5f2a(r9)
 5ea:	5f 55 43 42 	add.b	16963(r5),r15	;0x4243(r5)
 5ee:	30 49       	br	@r9+		
 5f0:	32 43       	mov	#-1,	r2	;r3 As==11
 5f2:	53 41       	.word	0x4153;	????	Illegal as 2-op instr
 5f4:	00 2a       	jnc	$-1022   	;abs 0x1f6
 5f6:	5f 5f 55 43 	add.b	17237(r15),r15	;0x4355(r15)
 5fa:	42 30       	jn	$+134    	;abs 0x680
 5fc:	52 58 42 55 	add.b	21826(r8),r2	;0x5542(r8)
 600:	46 00       	rrcm.a	#1,	r6	
 602:	69 32       	jn	$-812    	;abs 0x2d6
 604:	63 5f       	.word	0x5f63;	????	Illegal as 2-op instr
 606:	66 69       	addc.b	@r9,	r6	
 608:	6e 64       	addc.b	@r4,	r14	
 60a:	5f 64 65 76 	addc.b	30309(r4),r15	;0x7665(r4)
 60e:	69 63       	addc.b	#2,	r9	;r3 As==10
 610:	65 00 73 6c 	mova	r0,	&0x56c73
 614:	61 76       	subc.b	@r6,	r1	
 616:	65 5f       	add.b	@r15,	r5	
 618:	61 64       	addc.b	@r4,	r1	
 61a:	64 00 69 32 	mova	r0,	&0x43269
 61e:	63 5f       	.word	0x5f63;	????	Illegal as 2-op instr
 620:	77 72       	subc.b	#8,	r7	;r2 As==11
 622:	69 74       	subc.b	@r4,	r9	
 624:	65 5f       	add.b	@r15,	r5	
 626:	6f 6e       	addc.b	@r14,	r15	
 628:	65 00 69 32 	mova	r0,	&0x53269
 62c:	63 5f       	.word	0x5f63;	????	Illegal as 2-op instr
 62e:	77 72       	subc.b	#8,	r7	;r2 As==11
 630:	65 61       	addc.b	@r1,	r5	
 632:	64 5f       	add.b	@r15,	r4	
 634:	6f 6e       	addc.b	@r14,	r15	
 636:	65 5f       	add.b	@r15,	r5	
 638:	62 75       	subc.b	@r5,	r2	
 63a:	66 66       	addc.b	@r6,	r6	
 63c:	65 72       	subc.b	#4,	r5	;r2 As==10
 63e:	00 69       	addc	r9,	r0	
 640:	32 63       	addc	#-1,	r2	;r3 As==11
 642:	5f 74 65 73 	subc.b	29541(r4),r15	;0x7365(r4)
 646:	74 00 69 32 	mova	r0,	12905(r4);0x3269(r4)
 64a:	63 5f       	.word	0x5f63;	????	Illegal as 2-op instr
 64c:	73 65       	.word	0x6573;	????	Illegal as 2-op instr
 64e:	6e 64       	addc.b	@r4,	r14	
 650:	00 69       	addc	r9,	r0	
 652:	32 63       	addc	#-1,	r2	;r3 As==11
 654:	5f 73       	subc.b	#1,	r15	;r3 As==01
 656:	74 61       	addc.b	@r1+,	r4	
 658:	72 74       	subc.b	@r4+,	r2	
 65a:	5f 72 78 00 	subc.b	&0x0078,r15	
 65e:	61 6e       	addc.b	@r14,	r1	
 660:	61 6c       	addc.b	@r12,	r1	
 662:	6f 67       	addc.b	@r7,	r15	
 664:	5f 72 65 66 	subc.b	&0x6665,r15	
 668:	72 65       	addc.b	@r5+,	r2	
 66a:	73 68       	.word	0x6873;	????	Illegal as 2-op instr
 66c:	5f 63       	addc.b	#1,	r15	;r3 As==01
 66e:	68 61       	addc.b	@r1,	r8	
 670:	6e 6e       	addc.b	@r14,	r14	
 672:	65 6c       	addc.b	@r12,	r5	
 674:	00 2a       	jnc	$-1022   	;abs 0x276
 676:	5f 5f 41 44 	add.b	17473(r15),r15	;0x4441(r15)
 67a:	43 31       	jn	$+648    	;abs 0x902
 67c:	32 4d       	mov	@r13+,	r2	
 67e:	45 4d       	mov.b	r13,	r5	
 680:	30 00 61 6e 	bra	0x6e61		;PC rel. 0x074e3
 684:	61 6c       	addc.b	@r12,	r1	
 686:	6f 67       	addc.b	@r7,	r15	
 688:	5f 69 6e 69 	addc.b	26990(r9),r15	;0x696e(r9)
 68c:	74 00 61 6e 	mova	r0,	28257(r4);0x6e61(r4)
 690:	61 6c       	addc.b	@r12,	r1	
 692:	6f 67       	addc.b	@r7,	r15	
 694:	5f 63       	addc.b	#1,	r15	;r3 As==01
 696:	61 6c       	addc.b	@r12,	r1	
 698:	69 62       	addc.b	#4,	r9	;r2 As==10
 69a:	72 61       	addc.b	@r1+,	r2	
 69c:	74 65       	addc.b	@r5+,	r4	
 69e:	5f 63       	addc.b	#1,	r15	;r3 As==01
 6a0:	68 61       	addc.b	@r1,	r8	
 6a2:	6e 6e       	addc.b	@r14,	r14	
 6a4:	65 6c       	addc.b	@r12,	r5	
 6a6:	00 2a       	jnc	$-1022   	;abs 0x2a8
 6a8:	5f 5f 41 44 	add.b	17473(r15),r15	;0x4441(r15)
 6ac:	43 31       	jn	$+648    	;abs 0x934
 6ae:	32 4d       	mov	@r13+,	r2	
 6b0:	43 54       	.word	0x5443;	????	Illegal as 2-op instr
 6b2:	4c 30       	jn	$+154    	;abs 0x74c
 6b4:	00 61       	addc	r1,	r0	
 6b6:	6e 61       	addc.b	@r1,	r14	
 6b8:	6c 6f       	addc.b	@r15,	r12	
 6ba:	67 2e       	jc	$-816    	;abs 0x38a
 6bc:	63 00 61 6e 	mova	r0,	&0x36e61
 6c0:	61 6c       	addc.b	@r12,	r1	
 6c2:	6f 67       	addc.b	@r7,	r15	
 6c4:	5f 72 65 66 	subc.b	&0x6665,r15	
 6c8:	72 65       	addc.b	@r5+,	r2	
 6ca:	73 68       	.word	0x6873;	????	Illegal as 2-op instr
 6cc:	5f 61 6c 6c 	addc.b	27756(r1),r15	;0x6c6c(r1)
 6d0:	00 2a       	jnc	$-1022   	;abs 0x2d2
 6d2:	5f 5f 41 44 	add.b	17473(r15),r15	;0x4441(r15)
 6d6:	43 31       	jn	$+648    	;abs 0x95e
 6d8:	32 43       	mov	#-1,	r2	;r3 As==11
 6da:	54 4c 30 00 	mov.b	48(r12),r4	;0x0030(r12)
 6de:	2a 5f       	add	@r15,	r10	
 6e0:	5f 41 44 43 	mov.b	17220(r1),r15	;0x4344(r1)
 6e4:	31 32       	jn	$-924    	;abs 0x348
 6e6:	43 54       	.word	0x5443;	????	Illegal as 2-op instr
 6e8:	4c 31       	jn	$+666    	;abs 0x982
 6ea:	00 2a       	jnc	$-1022   	;abs 0x2ec
 6ec:	5f 5f 50 36 	add.b	13904(r15),r15	;0x3650(r15)
 6f0:	53 45       	.word	0x4553;	????	Illegal as 2-op instr
 6f2:	4c 00       	rrcm.a	#1,	r12	
 6f4:	55 41 52 54 	mov.b	21586(r1),r5	;0x5452(r1)
 6f8:	5f 70 75 74 	subc.b	0x7475,	r15	;PC rel. 0x07b71
 6fc:	63 68       	.word	0x6863;	????	Illegal as 2-op instr
 6fe:	61 72       	subc.b	#4,	r1	;r2 As==10
 700:	00 2a       	jnc	$-1022   	;abs 0x302
 702:	5f 5f 55 43 	add.b	17237(r15),r15	;0x4355(r15)
 706:	41 30       	jn	$+132    	;abs 0x78a
 708:	42 52       	rla.b	r2		
 70a:	30 00 2a 5f 	bra	0x5f2a		;PC rel. 0x06636
 70e:	5f 55 43 41 	add.b	16707(r5),r15	;0x4143(r5)
 712:	30 42       	br	#8		;r2 As==11
 714:	52 31       	jn	$+678    	;abs 0x9ba
 716:	00 2a       	jnc	$-1022   	;abs 0x318
 718:	5f 5f 55 43 	add.b	17237(r15),r15	;0x4355(r15)
 71c:	41 30       	jn	$+132    	;abs 0x7a0
 71e:	4d 43       	clr.b	r13		
 720:	54 4c 00 75 	mov.b	29952(r12),r4	;0x7500(r12)
 724:	61 72       	subc.b	#4,	r1	;r2 As==10
 726:	74 2e       	jc	$-790    	;abs 0x410
 728:	63 00 43 3a 	mova	r0,	&0x33a43
 72c:	5c 55 73 65 	add.b	25971(r5),r12	;0x6573(r5)
 730:	72 73       	subc.b	#-1,	r2	;r3 As==11
 732:	5c 66 6c 61 	addc.b	24940(r6),r12	;0x616c(r6)
 736:	76 69       	addc.b	@r9+,	r6	
 738:	6f 68       	addc.b	@r8,	r15	
 73a:	70 6f       	addc.b	@r15+,	r0	
 73c:	5c 44 65 73 	mov.b	29541(r4),r12	;0x7365(r4)
 740:	6b 74       	subc.b	@r4,	r11	
 742:	6f 70       	subc.b	@r0,	r15	
 744:	5c 6d 69 6e 	addc.b	28265(r13),r12	;0x6e69(r13)
 748:	69 71       	subc.b	@r1,	r9	
 74a:	75 61       	addc.b	@r1+,	r5	
 74c:	64 5c       	add.b	@r12,	r4	
 74e:	6d 69       	addc.b	@r9,	r13	
 750:	6e 69       	addc.b	@r9,	r14	
 752:	71 75       	subc.b	@r5+,	r1	
 754:	61 64       	addc.b	@r4,	r1	
 756:	5c 6d 6f 74 	addc.b	29807(r13),r12	;0x746f(r13)
 75a:	6f 72       	subc.b	#4,	r15	;r2 As==10
 75c:	74 65       	addc.b	@r5+,	r4	
 75e:	73 74       	.word	0x7473;	????	Illegal as 2-op instr
 760:	65 72       	subc.b	#4,	r5	;r2 As==10
 762:	00 2a       	jnc	$-1022   	;abs 0x364
 764:	5f 5f 55 43 	add.b	17237(r15),r15	;0x4355(r15)
 768:	41 30       	jn	$+132    	;abs 0x7ec
 76a:	54 58 42 55 	add.b	21826(r8),r4	;0x5542(r8)
 76e:	46 00       	rrcm.a	#1,	r6	
 770:	2a 5f       	add	@r15,	r10	
 772:	5f 55 43 41 	add.b	16707(r5),r15	;0x4143(r5)
 776:	30 43       	br	#-1		;r3 As==11
 778:	54 4c 30 00 	mov.b	48(r12),r4	;0x0030(r12)
 77c:	2a 5f       	add	@r15,	r10	
 77e:	5f 55 43 41 	add.b	16707(r5),r15	;0x4143(r5)
 782:	30 43       	br	#-1		;r3 As==11
 784:	54 4c 31 00 	mov.b	49(r12),r4	;0x0031(r12)
 788:	55 41 52 54 	mov.b	21586(r1),r5	;0x5452(r1)
 78c:	5f 69 6e 69 	addc.b	26990(r9),r15	;0x696e(r9)
 790:	74 00 5f 5f 	mova	r0,	24415(r4);0x5f5f(r4)
 794:	62 75       	subc.b	@r5,	r2	
 796:	69 6c       	addc.b	@r12,	r9	
 798:	74 69       	addc.b	@r9+,	r4	
 79a:	6e 5f       	add.b	@r15,	r14	
 79c:	76 61       	addc.b	@r1+,	r6	
 79e:	5f 6c 69 73 	addc.b	29545(r12),r15	;0x7369(r12)
 7a2:	74 00 2f 72 	mova	r0,	29231(r4);0x722f(r4)
 7a6:	6f 6f       	addc.b	@r15,	r15	
 7a8:	74 2f       	jc	$-278    	;abs 0x692
 7aa:	6d 73       	subc.b	#2,	r13	;r3 As==10
 7ac:	70 67       	addc.b	@r7+,	r0	
 7ae:	63 63       	.word	0x6363;	????	Illegal as 2-op instr
 7b0:	2d 32       	jn	$-932    	;abs 0x40c
 7b2:	30 31       	jn	$+610    	;abs 0xa14
 7b4:	31 30       	jn	$+100    	;abs 0x818
 7b6:	37 31       	jn	$+624    	;abs 0xa26
 7b8:	36 2f       	jc	$-402    	;abs 0x626
 7ba:	6d 73       	subc.b	#2,	r13	;r3 As==10
 7bc:	70 34       	jge	$+226    	;abs 0x89e
 7be:	33 30       	jn	$+104    	;abs 0x826
 7c0:	2d 6c       	addc	@r12,	r13	
 7c2:	69 62       	addc.b	#4,	r9	;r2 As==10
 7c4:	63 2f       	jc	$-312    	;abs 0x68c
 7c6:	73 72       	.word	0x7273;	????	Illegal as 2-op instr
 7c8:	63 00 76 70 	mova	r0,	&0x37076
 7cc:	72 69       	addc.b	@r9+,	r2	
 7ce:	6e 74       	subc.b	@r4,	r14	
 7d0:	66 00 2e 2f 	mova	r0,	&0x62f2e
 7d4:	73 74       	.word	0x7473;	????	Illegal as 2-op instr
 7d6:	64 6c       	addc.b	@r12,	r4	
 7d8:	69 62       	addc.b	#4,	r9	;r2 As==10
 7da:	2f 70       	subc	@r0,	r15	
 7dc:	72 69       	addc.b	@r9+,	r2	
 7de:	6e 74       	subc.b	@r4,	r14	
 7e0:	66 2e       	jc	$-818    	;abs 0x4ae
 7e2:	63 00 5f 5f 	mova	r0,	&0x35f5f
 7e6:	67 6e       	addc.b	@r14,	r7	
 7e8:	75 63       	addc.b	#-1,	r5	;r3 As==11
 7ea:	5f 76 61 5f 	subc.b	24417(r6),r15	;0x5f61(r6)
 7ee:	6c 69       	addc.b	@r9,	r12	
 7f0:	73 74       	.word	0x7473;	????	Illegal as 2-op instr
 7f2:	00 61       	addc	r1,	r0	
 7f4:	72 67       	addc.b	@r7+,	r2	
 7f6:	70 00 69 6e 	mova	r0,	0x6e69	;PC rel. 0x07661
 7fa:	74 70 74 72 	subc.b	#29300,	r4	;#0x7274
 7fe:	5f 74 00 6d 	subc.b	27904(r4),r15	;0x6d00(r4)
 802:	6f 64       	addc.b	@r4,	r15	
 804:	65 00 6c 65 	mova	r0,	&0x5656c
 808:	61 64       	addc.b	@r4,	r1	
 80a:	69 6e       	addc.b	@r14,	r9	
 80c:	67 5f       	add.b	@r15,	r7	
 80e:	66 69       	addc.b	@r9,	r6	
 810:	6c 6c       	addc.b	@r12,	r12	
 812:	00 77       	subc	r7,	r0	
 814:	72 69       	addc.b	@r9+,	r2	
 816:	74 65       	addc.b	@r5+,	r4	
 818:	5f 63       	addc.b	#1,	r15	;r3 As==01
 81a:	68 61       	addc.b	@r1,	r8	
 81c:	72 00 65 6d 	mova	r0,	&0x6d65	
 820:	69 74       	subc.b	@r4,	r9	
 822:	5f 68 65 78 	addc.b	30821(r8),r15	;0x7865(r8)
 826:	5f 70 72 65 	subc.b	0x6572,	r15	;PC rel. 0x06d9c
 82a:	66 69       	addc.b	@r9,	r6	
 82c:	78 00 70 72 	mova	r0,	29296(r8);0x7270(r8)
 830:	65 66       	addc.b	@r6,	r5	
 832:	69 78       	subc.b	@r8,	r9	
 834:	5f 6c 65 6e 	addc.b	28261(r12),r15	;0x6e65(r12)
 838:	00 63       	adc	r0		
 83a:	68 61       	addc.b	@r1,	r8	
 83c:	72 5f       	add.b	@r15+,	r2	
 83e:	70 00 77 69 	mova	r0,	0x6977	;PC rel. 0x071b7
 842:	64 74       	subc.b	@r4,	r4	
 844:	68 00 69 73 	mova	r0,	&0x87369
 848:	5f 61 6c 74 	addc.b	29804(r1),r15	;0x746c(r1)
 84c:	65 72       	subc.b	#4,	r5	;r2 As==10
 84e:	6e 61       	addc.b	@r1,	r14	
 850:	74 65       	addc.b	@r5+,	r4	
 852:	5f 66 6f 72 	addc.b	29295(r6),r15	;0x726f(r6)
 856:	6d 00 6c 65 	mova	r0,	&0xd656c
 85a:	66 74       	subc.b	@r4,	r6	
 85c:	5f 61 6c 69 	addc.b	26988(r1),r15	;0x696c(r1)
 860:	67 6e       	addc.b	@r14,	r7	
 862:	00 75       	subc	r5,	r0	
 864:	70 70 65 72 	subc.b	#29285,	r0	;#0x7265
 868:	63 61       	.word	0x6163;	????	Illegal as 2-op instr
 86a:	73 65       	.word	0x6573;	????	Illegal as 2-op instr
 86c:	00 69       	addc	r9,	r0	
 86e:	73 5f       	.word	0x5f73;	????	Illegal as 2-op instr
 870:	6c 6f       	addc.b	@r15,	r12	
 872:	6e 67       	addc.b	@r7,	r14	
 874:	00 46       	br	r6		
 876:	4f 52       	add.b	r2,	r15	
 878:	4d 41       	mov.b	r1,	r13	
 87a:	54 49 4e 47 	mov.b	18254(r9),r4	;0x474e(r9)
 87e:	00 70       	subc	r0,	r0	
 880:	72 69       	addc.b	@r9+,	r2	
 882:	6e 74       	subc.b	@r4,	r14	
 884:	5f 66 69 65 	addc.b	25961(r6),r15	;0x6569(r6)
 888:	6c 64       	addc.b	@r4,	r12	
 88a:	00 66       	addc	r6,	r0	
 88c:	65 74       	subc.b	@r4,	r5	
 88e:	63 68       	.word	0x6863;	????	Illegal as 2-op instr
 890:	5f 6e 75 6d 	addc.b	28021(r14),r15	;0x6d75(r14)
 894:	62 65       	addc.b	@r5,	r2	
 896:	72 00 70 72 	mova	r0,	&0x7270	
 89a:	65 66       	addc.b	@r6,	r5	
 89c:	69 78       	subc.b	@r8,	r9	
 89e:	5f 69 64 78 	addc.b	30820(r9),r15	;0x7864(r9)
 8a2:	00 66       	addc	r6,	r0	
 8a4:	6c 61       	addc.b	@r1,	r12	
 8a6:	67 73       	subc.b	#2,	r7	;r3 As==10
 8a8:	00 61       	addc	r1,	r0	
 8aa:	72 67       	addc.b	@r7+,	r2	
 8ac:	73 00       	.word	0x0073;	????	Illegal as address instr
 8ae:	70 72       	subc.b	#8,	r0	;r2 As==11
 8b0:	65 66       	addc.b	@r6,	r5	
 8b2:	69 78       	subc.b	@r8,	r9	
 8b4:	5f 62 75 66 	addc.b	&0x6675,r15	
 8b8:	66 65       	addc.b	@r5,	r6	
 8ba:	72 00 72 61 	mova	r0,	&0x6172	
 8be:	64 69       	addc.b	@r9,	r4	
 8c0:	78 00 69 6e 	mova	r0,	28265(r8);0x6e69(r8)
 8c4:	74 31       	jn	$+746    	;abs 0xbae
 8c6:	36 5f       	add	@r15+,	r6	
 8c8:	74 00 77 72 	mova	r0,	29303(r4);0x7277(r4)
 8cc:	69 74       	subc.b	@r4,	r9	
 8ce:	65 5f       	add.b	@r15,	r5	
 8d0:	63 68       	.word	0x6863;	????	Illegal as 2-op instr
 8d2:	61 72       	subc.b	#4,	r1	;r2 As==10
 8d4:	61 63       	addc.b	#2,	r1	;r3 As==10
 8d6:	74 65       	addc.b	@r5+,	r4	
 8d8:	72 00 73 69 	mova	r0,	&0x6973	
 8dc:	67 6e       	addc.b	@r14,	r7	
 8de:	5f 63       	addc.b	#1,	r15	;r3 As==01
 8e0:	68 61       	addc.b	@r1,	r8	
 8e2:	72 00 76 75 	mova	r0,	&0x7576	
 8e6:	70 72       	subc.b	#8,	r0	;r2 As==11
 8e8:	69 6e       	addc.b	@r14,	r9	
 8ea:	74 66       	addc.b	@r6+,	r4	
 8ec:	00 69       	addc	r9,	r0	
 8ee:	73 5f       	.word	0x5f73;	????	Illegal as 2-op instr
 8f0:	73 69       	.word	0x6973;	????	Illegal as 2-op instr
 8f2:	67 6e       	addc.b	@r14,	r7	
 8f4:	65 64       	addc.b	@r4,	r5	
 8f6:	00 66       	addc	r6,	r0	
 8f8:	6c 61       	addc.b	@r1,	r12	
 8fa:	67 73       	subc.b	#2,	r7	;r3 As==10
 8fc:	5f 74 00 66 	subc.b	26112(r4),r15	;0x6600(r4)
 900:	69 6c       	addc.b	@r12,	r9	
 902:	6c 5f       	add.b	@r15,	r12	
 904:	7a 65       	addc.b	@r5+,	r10	
 906:	72 6f       	addc.b	@r15+,	r2	
 908:	00 2e       	jc	$-1022   	;abs 0x50a
 90a:	2f 73       	subc	#2,	r15	;r3 As==10
 90c:	74 64       	addc.b	@r4+,	r4	
 90e:	6c 69       	addc.b	@r9,	r12	
 910:	62 2f       	jc	$-314    	;abs 0x7d6
 912:	76 75       	subc.b	@r5+,	r6	
 914:	70 72       	subc.b	#8,	r0	;r2 As==11
 916:	69 6e       	addc.b	@r14,	r9	
 918:	74 66       	addc.b	@r6+,	r4	
 91a:	2e 63       	addc	#2,	r14	;r3 As==10
 91c:	00 64       	addc	r4,	r0	
 91e:	69 67       	addc.b	@r7,	r9	
 920:	69 74       	subc.b	@r4,	r9	
 922:	00 63       	adc	r0		
 924:	68 61       	addc.b	@r1,	r8	
 926:	72 61       	addc.b	@r1+,	r2	
 928:	63 74       	.word	0x7463;	????	Illegal as 2-op instr
 92a:	65 72       	subc.b	#4,	r5	;r2 As==10
 92c:	5f 63       	addc.b	#1,	r15	;r3 As==01
 92e:	6f 75       	subc.b	@r5,	r15	
 930:	6e 74       	subc.b	@r4,	r14	
 932:	00 44       	br	r4		
 934:	49 52       	add.b	r2,	r9	
 936:	45 43       	clr.b	r5		
 938:	54 00       	rrcm	#1,	r4	
 93a:	65 6d       	addc.b	@r13,	r5	
 93c:	69 74       	subc.b	@r4,	r9	
 93e:	5f 6e 75 6d 	addc.b	28021(r14),r15	;0x6d75(r14)
 942:	62 65       	addc.b	@r5,	r2	
 944:	72 00 66 6f 	mova	r0,	&0x6f66	
 948:	72 6d       	addc.b	@r13+,	r2	
 94a:	61 74       	subc.b	@r4,	r1	
 94c:	00 62       	addc	r2,	r0	
 94e:	75 69       	addc.b	@r9+,	r5	
 950:	6c 64       	addc.b	@r4,	r12	
 952:	5f 6e 75 6d 	addc.b	28021(r14),r15	;0x6d75(r14)
 956:	65 72       	subc.b	#4,	r5	;r2 As==10
 958:	69 63       	addc.b	#2,	r9	;r3 As==10
 95a:	5f 70 72 65 	subc.b	0x6572,	r15	;PC rel. 0x06ed0
 95e:	66 69       	addc.b	@r9,	r6	
 960:	78 00 02 78 	Address 0x00000962 is out of bounds.
mova	r0,	-1(r8)	;0xffff(r8)

Disassembly of section .debug_loc:

00000000 <.debug_loc>:
   0:	4a 33       	jn	$-362    	;abs 0xfe96
   2:	4d 33       	jn	$-356    	;abs 0xfe9e
   4:	01 00       	mova	@r0,	r1	
   6:	5f 00       	rrcm	#1,	r15	
   8:	00 00       	bra	@r0		
   a:	00 7c       	subc	r12,	r0	
   c:	33 7e       	.word	0x7e33;	????	Illegal as 2-op instr
   e:	33 02       	.word	0x0233;	????	Illegal as address instr
  10:	00 71       	subc	r1,	r0	
  12:	02 7e       	subc	r14,	r2	
  14:	33 a6       	.word	0xa633;	????	Illegal as 2-op instr
  16:	33 02       	.word	0x0233;	????	Illegal as address instr
  18:	00 71       	subc	r1,	r0	
  1a:	04 a6       	dadd	r6,	r4	
  1c:	33 ac       	.word	0xac33;	????	Illegal as 2-op instr
  1e:	33 02       	.word	0x0233;	????	Illegal as address instr
  20:	00 71       	subc	r1,	r0	
  22:	06 ac       	dadd	r12,	r6	
  24:	33 c2       	.word	0xc233;	????	Illegal as 2-op instr
  26:	33 02       	.word	0x0233;	????	Illegal as address instr
  28:	00 71       	subc	r1,	r0	
  2a:	04 c2       	bic	r2,	r4	
  2c:	33 c6       	.word	0xc633;	????	Illegal as 2-op instr
  2e:	33 02       	.word	0x0233;	????	Illegal as address instr
  30:	00 71       	subc	r1,	r0	
  32:	06 c6       	bic	r6,	r6	
  34:	33 cc       	.word	0xcc33;	????	Illegal as 2-op instr
  36:	33 02       	.word	0x0233;	????	Illegal as address instr
  38:	00 71       	subc	r1,	r0	
  3a:	08 cc       	bic	r12,	r8	
  3c:	33 da       	.word	0xda33;	????	Illegal as 2-op instr
  3e:	33 02       	.word	0x0233;	????	Illegal as address instr
  40:	00 71       	subc	r1,	r0	
  42:	04 da       	bis	r10,	r4	
  44:	33 de       	.word	0xde33;	????	Illegal as 2-op instr
  46:	33 02       	.word	0x0233;	????	Illegal as address instr
  48:	00 71       	subc	r1,	r0	
  4a:	06 de       	bis	r14,	r6	
  4c:	33 ea       	.word	0xea33;	????	Illegal as 2-op instr
  4e:	33 02       	.word	0x0233;	????	Illegal as address instr
  50:	00 71       	subc	r1,	r0	
  52:	08 ea       	xor	r10,	r8	
  54:	33 ee       	.word	0xee33;	????	Illegal as 2-op instr
  56:	33 02       	.word	0x0233;	????	Illegal as address instr
  58:	00 71       	subc	r1,	r0	
  5a:	04 ee       	xor	r14,	r4	
  5c:	33 f4       	.word	0xf433;	????	Illegal as 2-op instr
  5e:	33 02       	.word	0x0233;	????	Illegal as address instr
  60:	00 71       	subc	r1,	r0	
  62:	06 f4       	and	r4,	r6	
  64:	33 f6       	.word	0xf633;	????	Illegal as 2-op instr
  66:	33 02       	.word	0x0233;	????	Illegal as address instr
  68:	00 71       	subc	r1,	r0	
  6a:	04 00       	mova	@r0,	r4	
  6c:	00 00       	bra	@r0		
  6e:	00 f6       	and	r6,	r0	
  70:	33 24       	jz	$+104    	;abs 0xd8
  72:	34 02 00 71 	mova	&0x7100,r4	
  76:	02 24       	jz	$+6      	;abs 0x7c
  78:	34 2a       	jnc	$-918    	;abs 0xfce2
  7a:	34 02 00 71 	mova	&0x7100,r4	
  7e:	04 2a       	jnc	$-1014   	;abs 0xfc88
  80:	34 2e       	jc	$-918    	;abs 0xfcea
  82:	34 02 00 71 	mova	&0x7100,r4	
  86:	02 00       	mova	@r0,	r2	
  88:	00 00       	bra	@r0		
  8a:	00 4a       	br	r10		
  8c:	34 4c       	mov	@r12+,	r4	
  8e:	34 02 00 71 	mova	&0x7100,r4	
  92:	02 4c       	mov	r12,	r2	
  94:	34 50 34 02 	add	#564,	r4	;#0x0234
  98:	00 71       	subc	r1,	r0	
  9a:	04 50       	add	r0,	r4	
  9c:	34 56       	add	@r6+,	r4	
  9e:	34 02 00 71 	mova	&0x7100,r4	
  a2:	06 56       	rla	r6		
  a4:	34 58       	add	@r8+,	r4	
  a6:	34 02 00 71 	mova	&0x7100,r4	
  aa:	02 00       	mova	@r0,	r2	
  ac:	00 00       	bra	@r0		
  ae:	00 4a       	br	r10		
  b0:	34 53       	add	#-1,	r4	;r3 As==11
  b2:	34 01 00 5f 	mova	24320(r1),r4	;0x5f00(r1)
  b6:	00 00       	bra	@r0		
  b8:	00 00       	bra	@r0		
  ba:	38 31       	jn	$+626    	;abs 0x32c
  bc:	7c 31       	jn	$+762    	;abs 0x3b6
  be:	02 00       	mova	@r0,	r2	
  c0:	71 02 7c 31 	mova	r2,	12668(r1);0x317c(r1)
  c4:	82 31       	jn	$+774    	;abs 0x3ca
  c6:	02 00       	mova	@r0,	r2	
  c8:	71 04 82 31 	mova	r4,	12674(r1);0x3182(r1)
  cc:	ae 31       	jn	$+862    	;abs 0x42a
  ce:	02 00       	mova	@r0,	r2	
  d0:	71 02 ae 31 	mova	r2,	12718(r1);0x31ae(r1)
  d4:	b4 31       	jn	$+874    	;abs 0x43e
  d6:	02 00       	mova	@r0,	r2	
  d8:	71 04 b4 31 	mova	r4,	12724(r1);0x31b4(r1)
  dc:	56 32       	jn	$-850    	;abs 0xfd8a
  de:	02 00       	mova	@r0,	r2	
  e0:	71 02 56 32 	mova	r2,	12886(r1);0x3256(r1)
  e4:	5c 32       	jn	$-838    	;abs 0xfd9e
  e6:	02 00       	mova	@r0,	r2	
  e8:	71 04 5c 32 	mova	r4,	12892(r1);0x325c(r1)
  ec:	94 32       	jn	$-726    	;abs 0xfe16
  ee:	02 00       	mova	@r0,	r2	
  f0:	71 02 94 32 	mova	r2,	12948(r1);0x3294(r1)
  f4:	9a 32       	jn	$-714    	;abs 0xfe2a
  f6:	02 00       	mova	@r0,	r2	
  f8:	71 04 9a 32 	mova	r4,	12954(r1);0x329a(r1)
  fc:	cc 32       	jn	$-614    	;abs 0xfe96
  fe:	02 00       	mova	@r0,	r2	
 100:	71 02 cc 32 	mova	r2,	13004(r1);0x32cc(r1)
 104:	d2 32       	jn	$-602    	;abs 0xfeaa
 106:	02 00       	mova	@r0,	r2	
 108:	71 04 d2 32 	mova	r4,	13010(r1);0x32d2(r1)
 10c:	de 32       	jn	$-578    	;abs 0xfeca
 10e:	02 00       	mova	@r0,	r2	
 110:	71 02 de 32 	mova	r2,	13022(r1);0x32de(r1)
 114:	e4 32       	jn	$-566    	;abs 0xfede
 116:	02 00       	mova	@r0,	r2	
 118:	71 04 e4 32 	mova	r4,	13028(r1);0x32e4(r1)
 11c:	08 33       	jn	$-494    	;abs 0xff2e
 11e:	02 00       	mova	@r0,	r2	
 120:	71 02 08 33 	mova	r2,	13064(r1);0x3308(r1)
 124:	0e 33       	jn	$-482    	;abs 0xff42
 126:	02 00       	mova	@r0,	r2	
 128:	71 04 0e 33 	mova	r4,	13070(r1);0x330e(r1)
 12c:	40 33       	jn	$-382    	;abs 0xffae
 12e:	02 00       	mova	@r0,	r2	
 130:	71 02 00 00 	mova	r2,	0(r1)	;0x0000(r1)
 134:	00 00       	bra	@r0		
 136:	3e 31       	jn	$+638    	;abs 0x3b4
 138:	96 31       	jn	$+814    	;abs 0x466
 13a:	03 00       	.word	0x0003;	????	Illegal as address instr
 13c:	08 64       	addc	r4,	r8	
 13e:	9f 96 31 88 	cmp	-30671(r6),306(r15);0x8831(r6), 0x0132(r15)
 142:	32 01 
 144:	00 56       	add	r6,	r0	
 146:	90 32       	jn	$-734    	;abs 0xfe68
 148:	a2 32       	jn	$-698    	;abs 0xfe8e
 14a:	01 00       	mova	@r0,	r1	
 14c:	56 c8 32 32 	bic.b	12850(r8),r6	;0x3232(r8)
 150:	33 01       	.word	0x0133;	????	Illegal as address instr
 152:	00 56       	add	r6,	r0	
 154:	00 00       	bra	@r0		
 156:	00 00       	bra	@r0		
 158:	3e 31       	jn	$+638    	;abs 0x3d6
 15a:	96 31       	jn	$+814    	;abs 0x488
 15c:	03 00       	.word	0x0003;	????	Illegal as address instr
 15e:	08 c8       	bic	r8,	r8	
 160:	9f 96 31 64 	cmp	25649(r6),306(r15);0x6431(r6), 0x0132(r15)
 164:	32 01 
 166:	00 55       	add	r5,	r0	
 168:	90 32       	jn	$-734    	;abs 0xfe8a
 16a:	26 33       	jn	$-434    	;abs 0xffb8
 16c:	01 00       	mova	@r0,	r1	
 16e:	55 32       	jn	$-852    	;abs 0xfe1a
 170:	33 40       	.word	0x4033;	????	Illegal as 2-op instr
 172:	33 01       	.word	0x0133;	????	Illegal as address instr
 174:	00 55       	add	r5,	r0	
 176:	00 00       	bra	@r0		
 178:	00 00       	bra	@r0		
 17a:	3e 31       	jn	$+638    	;abs 0x3f8
 17c:	96 31       	jn	$+814    	;abs 0x4aa
 17e:	02 00       	mova	@r0,	r2	
 180:	30 9f       	cmp	@r15+,	r0	
 182:	f6 32       	jn	$-530    	;abs 0xff70
 184:	fc 32       	jn	$-518    	;abs 0xff7e
 186:	01 00       	mova	@r0,	r1	
 188:	5b 00       	rrcm	#1,	r11	
 18a:	00 00       	bra	@r0		
 18c:	00 3e       	jmp	$-1022   	;abs 0xfd8e
 18e:	31 96       	cmp	@r6+,	r1	
 190:	31 02 00 30 	mova	&0x3000,r1	
 194:	9f 96 31 f8 	cmp	-1999(r6),305(r15);0xf831(r6), 0x0131(r15)
 198:	31 01 
 19a:	00 57       	add	r7,	r0	
 19c:	f8 31       	jn	$+1010   	;abs 0x58e
 19e:	fa 31       	jn	$+1014   	;abs 0x594
 1a0:	06 00       	mova	@r0,	r6	
 1a2:	7c 00 7d 00 	mova	r0,	125(r12);0x007d(r12)
 1a6:	22 9f       	cmp	@r15,	r2	
 1a8:	fa 31       	jn	$+1014   	;abs 0x59e
 1aa:	02 32       	jn	$-1018   	;abs 0xfdb0
 1ac:	01 00       	mova	@r0,	r1	
 1ae:	5c 04       	rrcm	#2,	r12	
 1b0:	32 09 32 01 	mova	306(r9),r2	;0x0132(r9)
 1b4:	00 5c       	add	r12,	r0	
 1b6:	09 32       	jn	$-1004   	;abs 0xfdca
 1b8:	40 33       	jn	$-382    	;abs 0x3a
 1ba:	01 00       	mova	@r0,	r1	
 1bc:	57 00       	rrcm	#1,	r7	
 1be:	00 00       	bra	@r0		
 1c0:	00 3e       	jmp	$-1022   	;abs 0xfdc2
 1c2:	31 96       	cmp	@r6+,	r1	
 1c4:	31 02 00 30 	mova	&0x3000,r1	
 1c8:	9f 96 31 b4 	cmp	-19407(r6),305(r15);0xb431(r6), 0x0131(r15)
 1cc:	31 01 
 1ce:	00 59       	add	r9,	r0	
 1d0:	b4 31       	jn	$+874    	;abs 0x53a
 1d2:	b6 31       	jn	$+878    	;abs 0x540
 1d4:	02 00       	mova	@r0,	r2	
 1d6:	31 9f       	cmp	@r15+,	r1	
 1d8:	b6 31       	jn	$+878    	;abs 0x546
 1da:	e2 31       	jn	$+966    	;abs 0x5a0
 1dc:	01 00       	mova	@r0,	r1	
 1de:	59 e2 31 1e 	xor.b	&0x1e31,r9	
 1e2:	32 01 00 59 	mova	22784(r1),r2	;0x5900(r1)
 1e6:	1e 32       	jn	$-962    	;abs 0xfe24
 1e8:	8e 32       	jn	$-738    	;abs 0xff06
 1ea:	01 00       	mova	@r0,	r1	
 1ec:	59 90 32 d2 	cmp.b	0xd232,	r9	;PC rel. 0xfd422
 1f0:	32 01 00 59 	mova	22784(r1),r2	;0x5900(r1)
 1f4:	d2 32       	jn	$-602    	;abs 0xff9a
 1f6:	da 32       	jn	$-586    	;abs 0xffac
 1f8:	02 00       	mova	@r0,	r2	
 1fa:	30 9f       	cmp	@r15+,	r0	
 1fc:	da 32       	jn	$-586    	;abs 0xffb2
 1fe:	e4 32       	jn	$-566    	;abs 0xffc8
 200:	01 00       	mova	@r0,	r1	
 202:	59 e4 32 ec 	xor.b	-5070(r4),r9	;0xec32(r4)
 206:	32 02 00 32 	mova	&0x3200,r2	
 20a:	9f ec 32 14 	xor	5170(r12),307(r15);0x1432(r12), 0x0133(r15)
 20e:	33 01 
 210:	00 59       	add	r9,	r0	
 212:	16 33       	jn	$-466    	;abs 0x40
 214:	1e 33       	jn	$-450    	;abs 0x52
 216:	01 00       	mova	@r0,	r1	
 218:	59 20       	jnz	$+180    	;abs 0x2cc
 21a:	33 2c       	jc	$+104    	;abs 0x282
 21c:	33 01       	.word	0x0133;	????	Illegal as address instr
 21e:	00 59       	add	r9,	r0	
 220:	32 33       	jn	$-410    	;abs 0x86
 222:	38 33       	jn	$-398    	;abs 0x94
 224:	01 00       	mova	@r0,	r1	
 226:	59 00       	rrcm	#1,	r9	
 228:	00 00       	bra	@r0		
 22a:	00 3e       	jmp	$-1022   	;abs 0xfe2c
 22c:	31 96       	cmp	@r6+,	r1	
 22e:	31 03 00 08 	mova	#1,	r1	;r3 As==01
 232:	42 9f       	cmp.b	r15,	r2	
 234:	96 31       	jn	$+814    	;abs 0x562
 236:	a2 31       	jn	$+838    	;abs 0x57c
 238:	01 00       	mova	@r0,	r1	
 23a:	58 a2 31 cc 	dadd.b	&0xcc31,r8	
 23e:	31 01 00 58 	mova	22528(r1),r1	;0x5800(r1)
 242:	cc 31       	jn	$+922    	;abs 0x5dc
 244:	d0 31       	jn	$+930    	;abs 0x5e6
 246:	04 00       	mova	@r0,	r4	
 248:	78 c1       	bic.b	@r1+,	r8	
 24a:	00 9f       	cmp	r15,	r0	
 24c:	d6 31       	jn	$+942    	;abs 0x5fa
 24e:	4c 32       	jn	$-870    	;abs 0xfee8
 250:	01 00       	mova	@r0,	r1	
 252:	58 4c 32 4e 	mov.b	20018(r12),r8	;0x4e32(r12)
 256:	32 04 00 78 	mova	30720(r4),r2	;0x7800(r4)
 25a:	c1 00       	mova	r0,	r1	
 25c:	9f 16       	popm.a	#10,	r8	
 25e:	33 26       	jz	$-920    	;abs 0xfec6
 260:	33 01       	.word	0x0133;	????	Illegal as address instr
 262:	00 58       	add	r8,	r0	
 264:	00 00       	bra	@r0		
 266:	00 00       	bra	@r0		
 268:	e0 34       	jge	$+450    	;abs 0x42a
 26a:	e2 34       	jge	$+454    	;abs 0x430
 26c:	02 00       	mova	@r0,	r2	
 26e:	71 02 e2 34 	mova	r2,	13538(r1);0x34e2(r1)
 272:	e4 34       	jge	$+458    	;abs 0x43c
 274:	02 00       	mova	@r0,	r2	
 276:	71 04 e4 34 	mova	r4,	13540(r1);0x34e4(r1)
 27a:	0c 35       	jge	$+538    	;abs 0x494
 27c:	02 00       	mova	@r0,	r2	
 27e:	71 06 00 00 	mova	r6,	0(r1)	;0x0000(r1)
 282:	00 00       	bra	@r0		
 284:	e4 34       	jge	$+458    	;abs 0x44e
 286:	e8 34       	jge	$+466    	;abs 0x458
 288:	02 00       	mova	@r0,	r2	
 28a:	3f 9f       	cmp	@r15+,	r15	
 28c:	e8 34       	jge	$+466    	;abs 0x45e
 28e:	ea 34       	jge	$+470    	;abs 0x464
 290:	01 00       	mova	@r0,	r1	
 292:	5e ea 34 08 	xor.b	2100(r10),r14	;0x0834(r10)
 296:	35 01 00 5e 	mova	24064(r1),r5	;0x5e00(r1)
 29a:	00 00       	bra	@r0		
 29c:	00 00       	bra	@r0		
 29e:	04 00       	mova	@r0,	r4	
 2a0:	0a 00       	mova	@r0,	r10	
 2a2:	02 00       	mova	@r0,	r2	
 2a4:	30 9f       	cmp	@r15+,	r0	
 2a6:	0e 00       	mova	@r0,	r14	
 2a8:	12 00       	mova	#0x00000,r2	
 2aa:	01 00       	mova	@r0,	r1	
 2ac:	5e 00       	rrcm	#1,	r14	
 2ae:	00 00       	bra	@r0		
 2b0:	00 14       	pushm.a	#1,	r0	
 2b2:	00 16       	popm.a	#1,	r0	
 2b4:	00 02       	bra	#4		;r2 As==10
 2b6:	00 71       	subc	r1,	r0	
 2b8:	02 16       	popm.a	#1,	r2	
 2ba:	00 18       	.word	0x1800;	????	
 2bc:	00 02       	bra	#4		;r2 As==10
 2be:	00 71       	subc	r1,	r0	
 2c0:	04 18       	.word	0x1804;	????	
 2c2:	00 34       	jge	$+2      	;abs 0x2c4
 2c4:	00 02       	bra	#4		;r2 As==10
 2c6:	00 71       	subc	r1,	r0	
 2c8:	06 00       	mova	@r0,	r6	
 2ca:	00 00       	bra	@r0		
 2cc:	00 14       	pushm.a	#1,	r0	
 2ce:	00 1e       	.word	0x1e00;	????	
 2d0:	00 01       	bra	@r1		
 2d2:	00 5f       	add	r15,	r0	
 2d4:	1e 00       	mova	#0x00000,r14	
 2d6:	30 00 01 00 	bra	0x0001		;PC rel. 0x002d9
 2da:	5a 00       	rrcm	#1,	r10	
 2dc:	00 00       	bra	@r0		
 2de:	00 1a       	.word	0x1a00;	????	
 2e0:	00 20       	jnz	$+2      	;abs 0x2e2
 2e2:	00 02       	bra	#4		;r2 As==10
 2e4:	00 30       	jn	$+2      	;abs 0x2e6
 2e6:	9f 2a       	jnc	$-704    	;abs 0x26
 2e8:	00 2e       	jc	$-1022   	;abs 0xfeea
 2ea:	00 01       	bra	@r1		
 2ec:	00 5b       	add	r11,	r0	
 2ee:	00 00       	bra	@r0		
 2f0:	00 00       	bra	@r0		
 2f2:	34 00 36 00 	mova	0x0036,	r4	;PC rel. 0x0032a
 2f6:	01 00       	mova	@r0,	r1	
 2f8:	5f 00       	rrcm	#1,	r15	
 2fa:	00 00       	bra	@r0		
 2fc:	00 3c       	jmp	$+2      	;abs 0x2fe
 2fe:	00 42       	br	r2		
 300:	00 01       	bra	@r1		
 302:	00 5f       	add	r15,	r0	
 304:	00 00       	bra	@r0		
 306:	00 00       	bra	@r0		
 308:	00 00       	bra	@r0		
 30a:	24 00 01 00 	mova	&0x00001,r4	
 30e:	5f 00       	rrcm	#1,	r15	
 310:	00 00       	bra	@r0		
 312:	00 44       	br	r4		
 314:	00 48       	br	r8		
 316:	00 01       	bra	@r1		
 318:	00 5f       	add	r15,	r0	
 31a:	00 00       	bra	@r0		
 31c:	00 00       	bra	@r0		
 31e:	ae 00 b2 00 	adda	#0x000b2,r14	
 322:	01 00       	mova	@r0,	r1	
 324:	5f 00       	rrcm	#1,	r15	
 326:	00 00       	bra	@r0		
 328:	00 c2       	bic	r2,	r0	
 32a:	00 e8       	xor	r8,	r0	
 32c:	00 02       	bra	#4		;r2 As==10
 32e:	00 30       	jn	$+2      	;abs 0x330
 330:	9f 00 00 00 	cmpa	#0x00000,r15	
 334:	00 f0       	and	r0,	r0	
 336:	00 02       	bra	#4		;r2 As==10
 338:	01 01       	mova	@r1,	r1	
 33a:	00 5f       	add	r15,	r0	
 33c:	00 00       	bra	@r0		
 33e:	00 00       	bra	@r0		
 340:	f0 00       	suba	r0,	r0	
 342:	10 01       	reta			
 344:	02 00       	mova	@r0,	r2	
 346:	30 9f       	cmp	@r15+,	r0	
 348:	10 01       	reta			
 34a:	28 01 01 00 	mova	&0x10001,r8	
 34e:	5f 00       	rrcm	#1,	r15	
 350:	00 00       	bra	@r0		
 352:	00 fe       	and	r14,	r0	
 354:	00 02       	bra	#4		;r2 As==10
 356:	01 01       	mova	@r1,	r1	
 358:	00 5f       	add	r15,	r0	
 35a:	00 00       	bra	@r0		
 35c:	00 00       	bra	@r0		
 35e:	32 01 44 01 	mova	324(r1),r2	;0x0144(r1)
 362:	01 00       	mova	@r0,	r1	
 364:	5f 00       	rrcm	#1,	r15	
 366:	00 00       	bra	@r0		
 368:	00 32       	jn	$-1022   	;abs 0xff6a
 36a:	01 6c       	addc	r12,	r1	
 36c:	01 01       	mova	@r1,	r1	
 36e:	00 5e       	add	r14,	r0	
 370:	00 00       	bra	@r0		
 372:	00 00       	bra	@r0		
 374:	32 01 52 01 	mova	338(r1),r2	;0x0152(r1)
 378:	02 00       	mova	@r0,	r2	
 37a:	30 9f       	cmp	@r15+,	r0	
 37c:	52 01       	rram	#1,	r2	
 37e:	62 01 01 00 	mova	r1,	&0x20001
 382:	5d 66 01 7e 	addc.b	32257(r6),r13	;0x7e01(r6)
 386:	01 01       	mova	@r1,	r1	
 388:	00 5f       	add	r15,	r0	
 38a:	00 00       	bra	@r0		
 38c:	00 00       	bra	@r0		
 38e:	40 01       	rram.a	#1,	r0	
 390:	44 01       	rram.a	#1,	r4	
 392:	01 00       	mova	@r0,	r1	
 394:	5f 00       	rrcm	#1,	r15	
 396:	00 00       	bra	@r0		
 398:	00 52       	add	r2,	r0	
 39a:	01 6c       	addc	r12,	r1	
 39c:	01 01       	mova	@r1,	r1	
 39e:	00 5e       	add	r14,	r0	
 3a0:	00 00       	bra	@r0		
 3a2:	00 00       	bra	@r0		
 3a4:	88 01 8a 01 	mova	#0x1018a,r8	
 3a8:	02 00       	mova	@r0,	r2	
 3aa:	71 02 8a 01 	mova	r2,	394(r1)	;0x018a(r1)
 3ae:	f4 01       	suba	r1,	r4	
 3b0:	02 00       	mova	@r0,	r2	
 3b2:	71 04 00 00 	mova	r4,	0(r1)	;0x0000(r1)
 3b6:	00 00       	bra	@r0		
 3b8:	88 01 9c 01 	mova	#0x1019c,r8	
 3bc:	01 00       	mova	@r0,	r1	
 3be:	5f 00       	rrcm	#1,	r15	
 3c0:	00 00       	bra	@r0		
 3c2:	00 88       	sub	r8,	r0	
 3c4:	01 d6       	bis	r6,	r1	
 3c6:	01 01       	mova	@r1,	r1	
 3c8:	00 5e       	add	r14,	r0	
 3ca:	00 00       	bra	@r0		
 3cc:	00 00       	bra	@r0		
 3ce:	8a 01 b2 01 	mova	#0x101b2,r10	
 3d2:	02 00       	mova	@r0,	r2	
 3d4:	30 9f       	cmp	@r15+,	r0	
 3d6:	00 00       	bra	@r0		
 3d8:	00 00       	bra	@r0		
 3da:	8a 01 a8 01 	mova	#0x101a8,r10	
 3de:	02 00       	mova	@r0,	r2	
 3e0:	30 9f       	cmp	@r15+,	r0	
 3e2:	aa 01 b6 01 	adda	#0x101b6,r10	
 3e6:	01 00       	mova	@r0,	r1	
 3e8:	5f c4 01 e8 	bic.b	-6143(r4),r15	;0xe801(r4)
 3ec:	01 01       	mova	@r1,	r1	
 3ee:	00 5f       	add	r15,	r0	
 3f0:	00 00       	bra	@r0		
 3f2:	00 00       	bra	@r0		
 3f4:	98 01 9c 01 	cmpa	#0x1019c,r8	
 3f8:	01 00       	mova	@r0,	r1	
 3fa:	5f 00       	rrcm	#1,	r15	
 3fc:	00 00       	bra	@r0		
 3fe:	00 b2       	bit	r2,	r0	
 400:	01 c8       	bic	r8,	r1	
 402:	01 02       	mova	#4,	r1	;r2 As==10
 404:	00 7c       	subc	r12,	r0	
 406:	00 c8       	bic	r8,	r0	
 408:	01 d0       	bis	r0,	r1	
 40a:	01 02       	mova	#4,	r1	;r2 As==10
 40c:	00 7c       	subc	r12,	r0	
 40e:	7f 00 00 00 	mova	r0,	0(r15)	;0x0000(r15)
 412:	00 f4       	and	r4,	r0	
 414:	01 06       	mova	@r6,	r1	
 416:	02 01       	mova	@r1,	r2	
 418:	00 5f       	add	r15,	r0	
 41a:	00 00       	bra	@r0		
 41c:	00 00       	bra	@r0		
 41e:	f4 01       	suba	r1,	r4	
 420:	2e 02 01 00 	mova	&0x20001,r14	
 424:	5e 00       	rrcm	#1,	r14	
 426:	00 00       	bra	@r0		
 428:	00 f4       	and	r4,	r0	
 42a:	01 14       	pushm.a	#1,	r1	
 42c:	02 02       	mova	#4,	r2	;r2 As==10
 42e:	00 30       	jn	$+2      	;abs 0x430
 430:	9f 14       	pushm.a	#10,	r15	
 432:	02 24       	jz	$+6      	;abs 0x438
 434:	02 01       	mova	@r1,	r2	
 436:	00 5d       	add	r13,	r0	
 438:	28 02 40 02 	mova	&0x20240,r8	
 43c:	01 00       	mova	@r0,	r1	
 43e:	5f 00       	rrcm	#1,	r15	
 440:	00 00       	bra	@r0		
 442:	00 02       	bra	#4		;r2 As==10
 444:	02 06       	mova	@r6,	r2	
 446:	02 01       	mova	@r1,	r2	
 448:	00 5f       	add	r15,	r0	
 44a:	00 00       	bra	@r0		
 44c:	00 00       	bra	@r0		
 44e:	14 02       	mova	#8,	r4	;r2 As==11
 450:	2e 02 01 00 	mova	&0x20001,r14	
 454:	5e 00       	rrcm	#1,	r14	
 456:	00 00       	bra	@r0		
 458:	00 4a       	br	r10		
 45a:	02 5c       	add	r12,	r2	
 45c:	02 01       	mova	@r1,	r2	
 45e:	00 5f       	add	r15,	r0	
 460:	00 00       	bra	@r0		
 462:	00 00       	bra	@r0		
 464:	4a 02       	rlam.a	#1,	r10	
 466:	7a 02 01 00 	mova	r2,	1(r10)	;0x0001(r10)
 46a:	5e 00       	rrcm	#1,	r14	
 46c:	00 00       	bra	@r0		
 46e:	00 4a       	br	r10		
 470:	02 6a       	addc	r10,	r2	
 472:	02 02       	mova	#4,	r2	;r2 As==10
 474:	00 30       	jn	$+2      	;abs 0x476
 476:	9f 6a 02 7a 	addc	31234(r10),258(r15);0x7a02(r10), 0x0102(r15)
 47a:	02 01 
 47c:	00 5c       	add	r12,	r0	
 47e:	7e 02 8e 02 	mova	r2,	654(r14);0x028e(r14)
 482:	01 00       	mova	@r0,	r1	
 484:	5e 92 02 aa 	cmp.b	&0xaa02,r14	
 488:	02 01       	mova	@r1,	r2	
 48a:	00 5f       	add	r15,	r0	
 48c:	00 00       	bra	@r0		
 48e:	00 00       	bra	@r0		
 490:	58 02       	rlam	#1,	r8	
 492:	5c 02       	rlam	#1,	r12	
 494:	01 00       	mova	@r0,	r1	
 496:	5f 00       	rrcm	#1,	r15	
 498:	00 00       	bra	@r0		
 49a:	00 6a       	addc	r10,	r0	
 49c:	02 7a       	subc	r10,	r2	
 49e:	02 01       	mova	@r1,	r2	
 4a0:	00 5e       	add	r14,	r0	
 4a2:	00 00       	bra	@r0		
 4a4:	00 00       	bra	@r0		
 4a6:	b4 02 b6 02 	suba	#0x202b6,r4	
 4aa:	02 00       	mova	@r0,	r2	
 4ac:	71 02 b6 02 	mova	r2,	694(r1)	;0x02b6(r1)
 4b0:	34 03 02 00 	mova	#1,	r4	;r3 As==01
 4b4:	71 04 00 00 	mova	r4,	0(r1)	;0x0000(r1)
 4b8:	00 00       	bra	@r0		
 4ba:	b4 02 c8 02 	suba	#0x202c8,r4	
 4be:	01 00       	mova	@r0,	r1	
 4c0:	5f 00       	rrcm	#1,	r15	
 4c2:	00 00       	bra	@r0		
 4c4:	00 b4       	bit	r4,	r0	
 4c6:	02 f2       	and	r2,	r2	
 4c8:	02 01       	mova	@r1,	r2	
 4ca:	00 5e       	add	r14,	r0	
 4cc:	00 00       	bra	@r0		
 4ce:	00 00       	bra	@r0		
 4d0:	b6 02 f2 02 	suba	#0x202f2,r6	
 4d4:	02 00       	mova	@r0,	r2	
 4d6:	30 9f       	cmp	@r15+,	r0	
 4d8:	00 00       	bra	@r0		
 4da:	00 00       	bra	@r0		
 4dc:	b6 02 d6 02 	suba	#0x202d6,r6	
 4e0:	02 00       	mova	@r0,	r2	
 4e2:	30 9f       	cmp	@r15+,	r0	
 4e4:	d6 02       	cmpa	r2,	r6	
 4e6:	e6 02       	adda	r2,	r6	
 4e8:	01 00       	mova	@r0,	r1	
 4ea:	5b ea 02 f6 	xor.b	-2558(r10),r11	;0xf602(r10)
 4ee:	02 01       	mova	@r1,	r2	
 4f0:	00 5f       	add	r15,	r0	
 4f2:	04 03       	mova	#2,	r4	;r3 As==10
 4f4:	28 03 01 00 	mova	&0x30001,r8	
 4f8:	5f 00       	rrcm	#1,	r15	
 4fa:	00 00       	bra	@r0		
 4fc:	00 c4       	bic	r4,	r0	
 4fe:	02 c8       	bic	r8,	r2	
 500:	02 01       	mova	@r1,	r2	
 502:	00 5f       	add	r15,	r0	
 504:	00 00       	bra	@r0		
 506:	00 00       	bra	@r0		
 508:	d6 02       	cmpa	r2,	r6	
 50a:	f2 02       	suba	r2,	r2	
 50c:	01 00       	mova	@r0,	r1	
 50e:	5e 00       	rrcm	#1,	r14	
 510:	00 00       	bra	@r0		
 512:	00 f2       	and	r2,	r0	
 514:	02 08       	mova	@r8,	r2	
 516:	03 02       	.word	0x0203;	????	Illegal as address instr
 518:	00 7e       	subc	r14,	r0	
 51a:	00 08       	bra	@r8		
 51c:	03 10       	rrc	#0		;r3 As==00
 51e:	03 02       	.word	0x0203;	????	Illegal as address instr
 520:	00 7e       	subc	r14,	r0	
 522:	7f 00 00 00 	mova	r0,	0(r15)	;0x0000(r15)
 526:	00 34       	jge	$+2      	;abs 0x528
 528:	03 36       	jge	$-1016   	;abs 0x130
 52a:	03 02       	.word	0x0203;	????	Illegal as address instr
 52c:	00 71       	subc	r1,	r0	
 52e:	02 36       	jge	$-1018   	;abs 0x134
 530:	03 90       	.word	0x9003;	????	Illegal as 2-op instr
 532:	03 02       	.word	0x0203;	????	Illegal as address instr
 534:	00 71       	subc	r1,	r0	
 536:	04 00       	mova	@r0,	r4	
 538:	00 00       	bra	@r0		
 53a:	00 34       	jge	$+2      	;abs 0x53c
 53c:	03 84       	.word	0x8403;	????	Illegal as 2-op instr
 53e:	03 01       	.word	0x0103;	????	Illegal as address instr
 540:	00 5f       	add	r15,	r0	
 542:	8c 03 90 03 	mova	#0x30390,r12	
 546:	01 00       	mova	@r0,	r1	
 548:	5f 00       	rrcm	#1,	r15	
 54a:	00 00       	bra	@r0		
 54c:	00 34       	jge	$+2      	;abs 0x54e
 54e:	03 6e       	.word	0x6e03;	????	Illegal as 2-op instr
 550:	03 01       	.word	0x0103;	????	Illegal as address instr
 552:	00 5e       	add	r14,	r0	
 554:	8c 03 90 03 	mova	#0x30390,r12	
 558:	01 00       	mova	@r0,	r1	
 55a:	5e 00       	rrcm	#1,	r14	
 55c:	00 00       	bra	@r0		
 55e:	00 36       	jge	$-1022   	;abs 0x160
 560:	03 4a       	.word	0x4a03;	????	Illegal as 2-op instr
 562:	03 02       	.word	0x0203;	????	Illegal as address instr
 564:	00 30       	jn	$+2      	;abs 0x566
 566:	9f 8c 03 90 	sub	-28669(r12),515(r15);0x9003(r12), 0x0203(r15)
 56a:	03 02 
 56c:	00 30       	jn	$+2      	;abs 0x56e
 56e:	9f 00 00 00 	cmpa	#0x00000,r15	
 572:	00 36       	jge	$-1022   	;abs 0x174
 574:	03 4a       	.word	0x4a03;	????	Illegal as 2-op instr
 576:	03 02       	.word	0x0203;	????	Illegal as address instr
 578:	00 30       	jn	$+2      	;abs 0x57a
 57a:	9f 5c 03 68 	add	26627(r12),259(r15);0x6803(r12), 0x0103(r15)
 57e:	03 01 
 580:	00 5d       	add	r13,	r0	
 582:	8c 03 90 03 	mova	#0x30390,r12	
 586:	02 00       	mova	@r0,	r2	
 588:	30 9f       	cmp	@r15+,	r0	
 58a:	00 00       	bra	@r0		
 58c:	00 00       	bra	@r0		
 58e:	4a 03       	rrum.a	#1,	r10	
 590:	60 03 02 00 	mova	#0,	&0x00002;r3 As==00
 594:	7c 00 60 03 	mova	r0,	864(r12);0x0360(r12)
 598:	68 03 02 00 	mova	#0,	&0x80002;r3 As==00
 59c:	7c 7f       	subc.b	@r15+,	r12	
 59e:	00 00       	bra	@r0		
 5a0:	00 00       	bra	@r0		
 5a2:	90 03 92 03 	cmpa	#0x30392,r0	
 5a6:	02 00       	mova	@r0,	r2	
 5a8:	71 02 92 03 	mova	r2,	914(r1)	;0x0392(r1)
 5ac:	94 03 02 00 	cmpa	#0x30002,r4	
 5b0:	71 04 94 03 	mova	r4,	916(r1)	;0x0394(r1)
 5b4:	d2 03       	tsta	r2		
 5b6:	02 00       	mova	@r0,	r2	
 5b8:	71 06 00 00 	mova	r6,	0(r1)	;0x0000(r1)
 5bc:	00 00       	bra	@r0		
 5be:	90 03 99 03 	cmpa	#0x30399,r0	
 5c2:	01 00       	mova	@r0,	r1	
 5c4:	5f 99 03 cc 	cmp.b	-13309(r9),r15	;0xcc03(r9)
 5c8:	03 01       	.word	0x0103;	????	Illegal as address instr
 5ca:	00 5b       	add	r11,	r0	
 5cc:	ce 03       	mova	#0,	r14	;r3 As==00
 5ce:	d2 03       	tsta	r2		
 5d0:	01 00       	mova	@r0,	r1	
 5d2:	5b 00       	rrcm	#1,	r11	
 5d4:	00 00       	bra	@r0		
 5d6:	00 96       	cmp	r6,	r0	
 5d8:	03 a4       	.word	0xa403;	????	Illegal as 2-op instr
 5da:	03 02       	.word	0x0203;	????	Illegal as address instr
 5dc:	00 30       	jn	$+2      	;abs 0x5de
 5de:	9f a4 03 c0 	dadd	-16381(r4),259(r15);0xc003(r4), 0x0103(r15)
 5e2:	03 01 
 5e4:	00 5a       	add	r10,	r0	
 5e6:	ce 03       	mova	#0,	r14	;r3 As==00
 5e8:	d2 03       	tsta	r2		
 5ea:	02 00       	mova	@r0,	r2	
 5ec:	30 9f       	cmp	@r15+,	r0	
 5ee:	00 00       	bra	@r0		
 5f0:	00 00       	bra	@r0		
 5f2:	d2 03       	tsta	r2		
 5f4:	d4 03       	tsta	r4		
 5f6:	02 00       	mova	@r0,	r2	
 5f8:	71 02 d4 03 	mova	r2,	980(r1)	;0x03d4(r1)
 5fc:	d6 03       	tsta	r6		
 5fe:	02 00       	mova	@r0,	r2	
 600:	71 04 d6 03 	mova	r4,	982(r1)	;0x03d6(r1)
 604:	d8 03       	tsta	r8		
 606:	02 00       	mova	@r0,	r2	
 608:	71 06 d8 03 	mova	r6,	984(r1)	;0x03d8(r1)
 60c:	2c 04 02 00 	mova	&0x40002,r12	
 610:	71 08 00 00 	mova	r8,	0(r1)	;0x0000(r1)
 614:	00 00       	bra	@r0		
 616:	d2 03       	tsta	r2		
 618:	df 03       	tsta	r15		
 61a:	01 00       	mova	@r0,	r1	
 61c:	5f df 03 22 	bis.b	8707(r15),r15	;0x2203(r15)
 620:	04 01       	mova	@r1,	r4	
 622:	00 59       	add	r9,	r0	
 624:	28 04 2c 04 	mova	&0x4042c,r8	
 628:	01 00       	mova	@r0,	r1	
 62a:	59 00       	rrcm	#1,	r9	
 62c:	00 00       	bra	@r0		
 62e:	00 d2       	bis	r2,	r0	
 630:	03 df       	.word	0xdf03;	????	Illegal as 2-op instr
 632:	03 01       	.word	0x0103;	????	Illegal as address instr
 634:	00 5e       	add	r14,	r0	
 636:	df 03       	tsta	r15		
 638:	0a 04       	mova	@r4,	r10	
 63a:	01 00       	mova	@r0,	r1	
 63c:	5a 28       	jnc	$+182    	;abs 0x6f2
 63e:	04 2a       	jnc	$-1014   	;abs 0x248
 640:	04 01       	mova	@r1,	r4	
 642:	00 5a       	add	r10,	r0	
 644:	00 00       	bra	@r0		
 646:	00 00       	bra	@r0		
 648:	dc 03       	tsta	r12		
 64a:	e6 03       	incda	r6		
 64c:	02 00       	mova	@r0,	r2	
 64e:	30 9f       	cmp	@r15+,	r0	
 650:	00 00       	bra	@r0		
 652:	00 00       	bra	@r0		
 654:	dc 03       	tsta	r12		
 656:	e6 03       	incda	r6		
 658:	02 00       	mova	@r0,	r2	
 65a:	30 9f       	cmp	@r15+,	r0	
 65c:	ec 03       	incda	r12		
 65e:	0a 04       	mova	@r4,	r10	
 660:	05 00       	mova	@r0,	r5	
 662:	7c 00 30 2e 	mova	r0,	11824(r12);0x2e30(r12)
 666:	9f 28       	jnc	$+320    	;abs 0x7a6
 668:	04 2c       	jc	$+10     	;abs 0x672
 66a:	04 05       	mova	@r5,	r4	
 66c:	00 7c       	subc	r12,	r0	
 66e:	00 30       	jn	$+2      	;abs 0x670
 670:	2e 9f       	cmp	@r15,	r14	
 672:	00 00       	bra	@r0		
 674:	00 00       	bra	@r0		
 676:	2c 04 2e 04 	mova	&0x4042e,r12	
 67a:	02 00       	mova	@r0,	r2	
 67c:	71 02 2e 04 	mova	r2,	1070(r1);0x042e(r1)
 680:	30 04 02 00 	bra	2(r4)		;0x0002(r4)
 684:	71 04 30 04 	mova	r4,	1072(r1);0x0430(r1)
 688:	8a 04 02 00 	mova	#0x40002,r10	
 68c:	71 06 00 00 	mova	r6,	0(r1)	;0x0000(r1)
 690:	00 00       	bra	@r0		
 692:	2c 04 44 04 	mova	&0x40444,r12	
 696:	01 00       	mova	@r0,	r1	
 698:	5f 00       	rrcm	#1,	r15	
 69a:	00 00       	bra	@r0		
 69c:	00 2c       	jc	$+2      	;abs 0x69e
 69e:	04 38       	jl	$+10     	;abs 0x6a8
 6a0:	04 01       	mova	@r1,	r4	
 6a2:	00 5e       	add	r14,	r0	
 6a4:	38 04 86 04 	mova	1158(r4),r8	;0x0486(r4)
 6a8:	01 00       	mova	@r0,	r1	
 6aa:	5a 00       	rrcm	#1,	r10	
 6ac:	00 00       	bra	@r0		
 6ae:	00 32       	jn	$-1022   	;abs 0x2b0
 6b0:	04 50       	add	r0,	r4	
 6b2:	04 02       	mova	#4,	r4	;r2 As==10
 6b4:	00 30       	jn	$+2      	;abs 0x6b6
 6b6:	9f 52 04 60 	add	&0x6004,260(r15);0x0104(r15)
 6ba:	04 01 
 6bc:	00 5b       	add	r11,	r0	
 6be:	60 04 7c 04 	mova	r4,	&0x0047c
 6c2:	01 00       	mova	@r0,	r1	
 6c4:	5b 00       	rrcm	#1,	r11	
 6c6:	00 00       	bra	@r0		
 6c8:	00 40       	br	r0		
 6ca:	04 44       	mov	r4,	r4	
 6cc:	04 01       	mova	@r1,	r4	
 6ce:	00 5f       	add	r15,	r0	
 6d0:	00 00       	bra	@r0		
 6d2:	00 00       	bra	@r0		
 6d4:	8a 04 8c 04 	mova	#0x4048c,r10	
 6d8:	02 00       	mova	@r0,	r2	
 6da:	71 02 8c 04 	mova	r2,	1164(r1);0x048c(r1)
 6de:	8e 04 02 00 	mova	#0x40002,r14	
 6e2:	71 04 8e 04 	mova	r4,	1166(r1);0x048e(r1)
 6e6:	90 04 02 00 	cmpa	#0x40002,r0	
 6ea:	71 06 90 04 	mova	r6,	1168(r1);0x0490(r1)
 6ee:	92 04 02 00 	cmpa	#0x40002,r2	
 6f2:	71 08 92 04 	mova	r8,	1170(r1);0x0492(r1)
 6f6:	94 04 02 00 	cmpa	#0x40002,r4	
 6fa:	71 0a 94 04 	mova	r10,	1172(r1);0x0494(r1)
 6fe:	0e 05       	mova	@r5,	r14	
 700:	02 00       	mova	@r0,	r2	
 702:	71 0c 00 00 	mova	r12,	0(r1)	;0x0000(r1)
 706:	00 00       	bra	@r0		
 708:	8a 04 aa 04 	mova	#0x404aa,r10	
 70c:	01 00       	mova	@r0,	r1	
 70e:	5f 00       	rrcm	#1,	r15	
 710:	00 00       	bra	@r0		
 712:	00 8a       	sub	r10,	r0	
 714:	04 9e       	cmp	r14,	r4	
 716:	04 01       	mova	@r1,	r4	
 718:	00 5e       	add	r14,	r0	
 71a:	9e 04 04 05 	cmpa	#0x40504,r14	
 71e:	01 00       	mova	@r0,	r1	
 720:	59 0a       	rlam	#3,	r9	
 722:	05 0e       	mova	@r14,	r5	
 724:	05 01       	mova	@r1,	r5	
 726:	00 59       	add	r9,	r0	
 728:	00 00       	bra	@r0		
 72a:	00 00       	bra	@r0		
 72c:	8a 04 9e 04 	mova	#0x4049e,r10	
 730:	01 00       	mova	@r0,	r1	
 732:	5d 9e 04 02 	cmp.b	516(r14),r13	;0x0204(r14)
 736:	05 01       	mova	@r1,	r5	
 738:	00 58       	add	r8,	r0	
 73a:	0a 05       	mova	@r5,	r10	
 73c:	0e 05       	mova	@r5,	r14	
 73e:	01 00       	mova	@r0,	r1	
 740:	58 00       	rrcm	#1,	r8	
 742:	00 00       	bra	@r0		
 744:	00 98       	cmp	r8,	r0	
 746:	04 c6       	bic	r6,	r4	
 748:	04 02       	mova	#4,	r4	;r2 As==10
 74a:	00 30       	jn	$+2      	;abs 0x74c
 74c:	9f 00 00 00 	cmpa	#0x00000,r15	
 750:	00 98       	cmp	r8,	r0	
 752:	04 b6       	bit	r6,	r4	
 754:	04 02       	mova	#4,	r4	;r2 As==10
 756:	00 30       	jn	$+2      	;abs 0x758
 758:	9f b8 04 c6 	bit	-14844(r8),260(r15);0xc604(r8), 0x0104(r15)
 75c:	04 01 
 75e:	00 57       	add	r7,	r0	
 760:	cc 04       	mova	r4,	r12	
 762:	e8 04       	adda	r4,	r8	
 764:	05 00       	mova	@r0,	r5	
 766:	7b 00 30 2e 	mova	r0,	11824(r11);0x2e30(r11)
 76a:	9f 0a 05 0e 	cmpa	#0xa0e05,r15	
 76e:	05 05       	mova	@r5,	r5	
 770:	00 7b       	subc	r11,	r0	
 772:	00 30       	jn	$+2      	;abs 0x774
 774:	2e 9f       	cmp	@r15,	r14	
 776:	00 00       	bra	@r0		
 778:	00 00       	bra	@r0		
 77a:	a6 04 aa 04 	adda	#0x404aa,r6	
 77e:	01 00       	mova	@r0,	r1	
 780:	5f 00       	rrcm	#1,	r15	
 782:	00 00       	bra	@r0		
 784:	00 0e       	bra	@r14		
 786:	05 10       	rrc	r5		
 788:	05 02       	mova	#4,	r5	;r2 As==10
 78a:	00 71       	subc	r1,	r0	
 78c:	02 10       	rrc	r2		
 78e:	05 12       	push	r5		
 790:	05 02       	mova	#4,	r5	;r2 As==10
 792:	00 71       	subc	r1,	r0	
 794:	04 12       	push	r4		
 796:	05 80       	sub	r0,	r5	
 798:	05 02       	mova	#4,	r5	;r2 As==10
 79a:	00 71       	subc	r1,	r0	
 79c:	06 00       	mova	@r0,	r6	
 79e:	00 00       	bra	@r0		
 7a0:	00 0e       	bra	@r14		
 7a2:	05 26       	jz	$-1012   	;abs 0x3ae
 7a4:	05 01       	mova	@r1,	r5	
 7a6:	00 5f       	add	r15,	r0	
 7a8:	00 00       	bra	@r0		
 7aa:	00 00       	bra	@r0		
 7ac:	0e 05       	mova	@r5,	r14	
 7ae:	4b 05       	rram.a	#2,	r11	
 7b0:	01 00       	mova	@r0,	r1	
 7b2:	5e 00       	rrcm	#1,	r14	
 7b4:	00 00       	bra	@r0		
 7b6:	00 0e       	bra	@r14		
 7b8:	05 1a       	.word	0x1a05;	????	
 7ba:	05 01       	mova	@r1,	r5	
 7bc:	00 5d       	add	r13,	r0	
 7be:	1a 05       	mova	@r5+,	r10	
 7c0:	7c 05 01 00 	mova	r5,	1(r12)	;0x0001(r12)
 7c4:	5a 00       	rrcm	#1,	r10	
 7c6:	00 00       	bra	@r0		
 7c8:	00 14       	pushm.a	#1,	r0	
 7ca:	05 34       	jge	$+12     	;abs 0x7d6
 7cc:	05 02       	mova	#4,	r5	;r2 As==10
 7ce:	00 30       	jn	$+2      	;abs 0x7d0
 7d0:	9f 34       	jge	$+320    	;abs 0x910
 7d2:	05 44       	mov	r4,	r5	
 7d4:	05 01       	mova	@r1,	r5	
 7d6:	00 5d       	add	r13,	r0	
 7d8:	48 05       	rram.a	#2,	r8	
 7da:	56 05       	rram	#2,	r6	
 7dc:	01 00       	mova	@r0,	r1	
 7de:	5b 56 05 72 	add.b	29189(r6),r11	;0x7205(r6)
 7e2:	05 01       	mova	@r1,	r5	
 7e4:	00 5b       	add	r11,	r0	
 7e6:	00 00       	bra	@r0		
 7e8:	00 00       	bra	@r0		
 7ea:	22 05 26 05 	mova	&0x50526,r2	
 7ee:	01 00       	mova	@r0,	r1	
 7f0:	5f 00       	rrcm	#1,	r15	
 7f2:	00 00       	bra	@r0		
 7f4:	00 34       	jge	$+2      	;abs 0x7f6
 7f6:	05 4b       	mov	r11,	r5	
 7f8:	05 01       	mova	@r1,	r5	
 7fa:	00 5e       	add	r14,	r0	
 7fc:	00 00       	bra	@r0		
 7fe:	00 00       	bra	@r0		
 800:	80 05 82 05 	bra	#0x50582	
 804:	02 00       	mova	@r0,	r2	
 806:	71 02 82 05 	mova	r2,	1410(r1);0x0582(r1)
 80a:	84 05 02 00 	mova	#0x50002,r4	
 80e:	71 04 84 05 	mova	r4,	1412(r1);0x0584(r1)
 812:	86 05 02 00 	mova	#0x50002,r6	
 816:	71 06 86 05 	mova	r6,	1414(r1);0x0586(r1)
 81a:	88 05 02 00 	mova	#0x50002,r8	
 81e:	71 08 88 05 	mova	r8,	1416(r1);0x0588(r1)
 822:	8a 05 02 00 	mova	#0x50002,r10	
 826:	71 0a 8a 05 	mova	r10,	1418(r1);0x058a(r1)
 82a:	18 06       	mova	@r6+,	r8	
 82c:	02 00       	mova	@r0,	r2	
 82e:	71 0c 00 00 	mova	r12,	0(r1)	;0x0000(r1)
 832:	00 00       	bra	@r0		
 834:	80 05 a0 05 	bra	#0x505a0	
 838:	01 00       	mova	@r0,	r1	
 83a:	5f 00       	rrcm	#1,	r15	
 83c:	00 00       	bra	@r0		
 83e:	00 80       	sub	r0,	r0	
 840:	05 c5       	bic	r5,	r5	
 842:	05 01       	mova	@r1,	r5	
 844:	00 5e       	add	r14,	r0	
 846:	00 00       	bra	@r0		
 848:	00 00       	bra	@r0		
 84a:	80 05 94 05 	bra	#0x50594	
 84e:	01 00       	mova	@r0,	r1	
 850:	5d 94 05 0e 	cmp.b	3589(r4),r13	;0x0e05(r4)
 854:	06 01       	mova	@r1,	r6	
 856:	00 59       	add	r9,	r0	
 858:	14 06       	mova	@r6+,	r4	
 85a:	18 06       	mova	@r6+,	r8	
 85c:	01 00       	mova	@r0,	r1	
 85e:	59 00       	rrcm	#1,	r9	
 860:	00 00       	bra	@r0		
 862:	00 80       	sub	r0,	r0	
 864:	05 94       	cmp	r4,	r5	
 866:	05 01       	mova	@r1,	r5	
 868:	00 5c       	add	r12,	r0	
 86a:	94 05 0c 06 	cmpa	#0x5060c,r4	
 86e:	01 00       	mova	@r0,	r1	
 870:	58 14       	pushm.a	#6,	r8	
 872:	06 18       	.word	0x1806;	????	
 874:	06 01       	mova	@r1,	r6	
 876:	00 58       	add	r8,	r0	
 878:	00 00       	bra	@r0		
 87a:	00 00       	bra	@r0		
 87c:	8e 05 d0 05 	mova	#0x505d0,r14	
 880:	02 00       	mova	@r0,	r2	
 882:	30 9f       	cmp	@r15+,	r0	
 884:	00 00       	bra	@r0		
 886:	00 00       	bra	@r0		
 888:	8e 05 ae 05 	mova	#0x505ae,r14	
 88c:	02 00       	mova	@r0,	r2	
 88e:	30 9f       	cmp	@r15+,	r0	
 890:	ae 05 be 05 	adda	#0x505be,r14	
 894:	01 00       	mova	@r0,	r1	
 896:	5d c2 05 d0 	bic.b	&0xd005,r13	
 89a:	05 01       	mova	@r1,	r5	
 89c:	00 57       	add	r7,	r0	
 89e:	d6 05       	cmpa	r5,	r6	
 8a0:	f2 05       	suba	r5,	r2	
 8a2:	05 00       	mova	@r0,	r5	
 8a4:	7b 00 30 2e 	mova	r0,	11824(r11);0x2e30(r11)
 8a8:	9f 14       	pushm.a	#10,	r15	
 8aa:	06 18       	.word	0x1806;	????	
 8ac:	06 05       	mova	@r5,	r6	
 8ae:	00 7b       	subc	r11,	r0	
 8b0:	00 30       	jn	$+2      	;abs 0x8b2
 8b2:	2e 9f       	cmp	@r15,	r14	
 8b4:	00 00       	bra	@r0		
 8b6:	00 00       	bra	@r0		
 8b8:	9c 05 a0 05 	cmpa	#0x505a0,r12	
 8bc:	01 00       	mova	@r0,	r1	
 8be:	5f 00       	rrcm	#1,	r15	
 8c0:	00 00       	bra	@r0		
 8c2:	00 ae       	dadd	r14,	r0	
 8c4:	05 c5       	bic	r5,	r5	
 8c6:	05 01       	mova	@r1,	r5	
 8c8:	00 5e       	add	r14,	r0	
 8ca:	00 00       	bra	@r0		
 8cc:	00 00       	bra	@r0		
 8ce:	18 06       	mova	@r6+,	r8	
 8d0:	1c 06       	mova	@r6+,	r12	
 8d2:	01 00       	mova	@r0,	r1	
 8d4:	5f 00       	rrcm	#1,	r15	
 8d6:	00 00       	bra	@r0		
 8d8:	00 18       	.word	0x1800;	????	
 8da:	06 1c       	.word	0x1c06;	????	
 8dc:	06 01       	mova	@r1,	r6	
 8de:	00 5f       	add	r15,	r0	
 8e0:	00 00       	bra	@r0		
 8e2:	00 00       	bra	@r0		
 8e4:	1c 00       	mova	#0x00000,r12	
 8e6:	1e 00       	mova	#0x00000,r14	
 8e8:	02 00       	mova	@r0,	r2	
 8ea:	71 02 1e 00 	mova	r2,	30(r1)	;0x001e(r1)
 8ee:	20 00 02 00 	bra	&0x00002	
 8f2:	71 04 20 00 	mova	r4,	32(r1)	;0x0020(r1)
 8f6:	22 00 02 00 	mova	&0x00002,r2	
 8fa:	71 06 22 00 	mova	r6,	34(r1)	;0x0022(r1)
 8fe:	24 00 02 00 	mova	&0x00002,r4	
 902:	71 08 24 00 	mova	r8,	36(r1)	;0x0024(r1)
 906:	8e 00 02 00 	mova	#0x00002,r14	
 90a:	71 0a 00 00 	mova	r10,	0(r1)	;0x0000(r1)
 90e:	00 00       	bra	@r0		
 910:	1c 00       	mova	#0x00000,r12	
 912:	34 00 01 00 	mova	0x0001,	r4	;PC rel. 0x00915
 916:	5f 00       	rrcm	#1,	r15	
 918:	00 00       	bra	@r0		
 91a:	00 24       	jz	$+2      	;abs 0x91c
 91c:	00 48       	br	r8		
 91e:	00 02       	bra	#4		;r2 As==10
 920:	00 30       	jn	$+2      	;abs 0x922
 922:	9f 00 00 00 	cmpa	#0x00000,r15	
 926:	00 8e       	sub	r14,	r0	
 928:	00 94       	cmp	r4,	r0	
 92a:	00 02       	bra	#4		;r2 As==10
 92c:	00 30       	jn	$+2      	;abs 0x92e
 92e:	9f c8 00 d0 	bic	-12288(r8),256(r15);0xd000(r8), 0x0100(r15)
 932:	00 01 
 934:	00 5e       	add	r14,	r0	
 936:	00 00       	bra	@r0		
 938:	00 00       	bra	@r0		
 93a:	d6 00       	cmpa	r0,	r6	
 93c:	e6 00       	adda	r0,	r6	
 93e:	01 00       	mova	@r0,	r1	
 940:	5f 00       	rrcm	#1,	r15	
 942:	00 00       	bra	@r0		
 944:	00 32       	jn	$-1022   	;abs 0x546
 946:	00 40       	br	r0		
 948:	00 01       	bra	@r1		
 94a:	00 5f       	add	r15,	r0	
 94c:	00 00       	bra	@r0		
 94e:	00 00       	bra	@r0		
 950:	12 00       	mova	#0x00000,r2	
 952:	1a 00       	mova	#0x00000,r10	
 954:	01 00       	mova	@r0,	r1	
 956:	5f 1a       	.word	0x1a5f;	????	
 958:	00 1d       	.word	0x1d00;	????	
 95a:	00 01       	bra	@r1		
 95c:	00 5e       	add	r14,	r0	
 95e:	00 00       	bra	@r0		
 960:	00 00       	bra	@r0		
 962:	12 00       	mova	#0x00000,r2	
 964:	16 00       	mova	#0x00000,r6	
 966:	01 00       	mova	@r0,	r1	
 968:	5e 16       	popm.a	#6,	#0	;r3 As==00
 96a:	00 1d       	.word	0x1d00;	????	
 96c:	00 01       	bra	@r1		
 96e:	00 5d       	add	r13,	r0	
 970:	00 00       	bra	@r0		
 972:	00 00       	bra	@r0		
 974:	00 00       	bra	@r0		
 976:	02 00       	mova	@r0,	r2	
 978:	02 00       	mova	@r0,	r2	
 97a:	71 02 02 00 	mova	r2,	2(r1)	;0x0002(r1)
 97e:	04 00       	mova	@r0,	r4	
 980:	02 00       	mova	@r0,	r2	
 982:	71 04 04 00 	mova	r4,	4(r1)	;0x0004(r1)
 986:	06 00       	mova	@r0,	r6	
 988:	02 00       	mova	@r0,	r2	
 98a:	71 06 06 00 	mova	r6,	6(r1)	;0x0006(r1)
 98e:	08 00       	mova	@r0,	r8	
 990:	02 00       	mova	@r0,	r2	
 992:	71 08 08 00 	mova	r8,	8(r1)	;0x0008(r1)
 996:	0a 00       	mova	@r0,	r10	
 998:	02 00       	mova	@r0,	r2	
 99a:	71 0a 0a 00 	mova	r10,	10(r1)	;0x000a(r1)
 99e:	0c 00       	mova	@r0,	r12	
 9a0:	02 00       	mova	@r0,	r2	
 9a2:	71 0c 0c 00 	mova	r12,	12(r1)	;0x000c(r1)
 9a6:	0e 00       	mova	@r0,	r14	
 9a8:	02 00       	mova	@r0,	r2	
 9aa:	71 0e 0e 00 	mova	r14,	14(r1)	;0x000e(r1)
 9ae:	10 00       	bra	#0x00000	
 9b0:	02 00       	mova	@r0,	r2	
 9b2:	71 10       	rrc.b	@r1+		
 9b4:	10 00       	bra	#0x00000	
 9b6:	12 00       	mova	#0x00000,r2	
 9b8:	02 00       	mova	@r0,	r2	
 9ba:	71 12       	push.b	@r1+		
 9bc:	12 00       	mova	#0x00000,r2	
 9be:	04 01       	mova	@r1,	r4	
 9c0:	02 00       	mova	@r0,	r2	
 9c2:	71 14       	pushm.a	#8,	r1	
 9c4:	00 00       	bra	@r0		
 9c6:	00 00       	bra	@r0		
 9c8:	00 00       	bra	@r0		
 9ca:	1a 00       	mova	#0x00000,r10	
 9cc:	01 00       	mova	@r0,	r1	
 9ce:	5f 1a       	.word	0x1a5f;	????	
 9d0:	00 00       	bra	@r0		
 9d2:	01 01       	mova	@r1,	r1	
 9d4:	00 5a       	add	r10,	r0	
 9d6:	00 00       	bra	@r0		
 9d8:	00 00       	bra	@r0		
 9da:	00 00       	bra	@r0		
 9dc:	22 00 01 00 	mova	&0x00001,r2	
 9e0:	5e 22       	jnz	$-834    	;abs 0x69e
 9e2:	00 d8       	bis	r8,	r0	
 9e4:	00 01       	bra	@r1		
 9e6:	00 58       	add	r8,	r0	
 9e8:	d8 00       	cmpa	r0,	r8	
 9ea:	fc 00       	suba	r0,	r12	
 9ec:	01 00       	mova	@r0,	r1	
 9ee:	58 00       	rrcm	#1,	r8	
 9f0:	00 00       	bra	@r0		
 9f2:	00 00       	bra	@r0		
 9f4:	00 20       	jnz	$+2      	;abs 0x9f6
 9f6:	00 01       	bra	@r1		
 9f8:	00 5d       	add	r13,	r0	
 9fa:	20 00 74 00 	bra	&0x00074	
 9fe:	01 00       	mova	@r0,	r1	
 a00:	57 74 00 78 	subc.b	30720(r4),r7	;0x7800(r4)
 a04:	00 01       	bra	@r1		
 a06:	00 57       	add	r7,	r0	
 a08:	78 00 fa 00 	mova	r0,	250(r8)	;0x00fa(r8)
 a0c:	01 00       	mova	@r0,	r1	
 a0e:	57 00       	rrcm	#1,	r7	
 a10:	00 00       	bra	@r0		
 a12:	00 00       	bra	@r0		
 a14:	00 1c       	.word	0x1c00;	????	
 a16:	00 01       	bra	@r1		
 a18:	00 5c       	add	r12,	r0	
 a1a:	00 00       	bra	@r0		
 a1c:	00 00       	bra	@r0		
 a1e:	1e 00       	mova	#0x00000,r14	
 a20:	a4 00 02 00 	adda	#0x00002,r4	
 a24:	30 9f       	cmp	@r15+,	r0	
 a26:	a4 00 ac 00 	adda	#0x000ac,r4	
 a2a:	01 00       	mova	@r0,	r1	
 a2c:	5b ac 00 ae 	dadd.b	-20992(r12),r11	;0xae00(r12)
 a30:	00 01       	bra	@r1		
 a32:	00 5b       	add	r11,	r0	
 a34:	ae 00 b4 00 	adda	#0x000b4,r14	
 a38:	01 00       	mova	@r0,	r1	
 a3a:	5b b4 00 b8 	bit.b	-18432(r4),r11	;0xb800(r4)
 a3e:	00 02       	bra	#4		;r2 As==10
 a40:	00 30       	jn	$+2      	;abs 0xa42
 a42:	9f bc 00 be 	bit	-16896(r12),256(r15);0xbe00(r12), 0x0100(r15)
 a46:	00 01 
 a48:	00 5b       	add	r11,	r0	
 a4a:	be 00 c6 00 	suba	#0x000c6,r14	
 a4e:	01 00       	mova	@r0,	r1	
 a50:	5b c6 00 da 	bic.b	-9728(r6),r11	;0xda00(r6)
 a54:	00 01       	bra	@r1		
 a56:	00 5b       	add	r11,	r0	
 a58:	da 00       	cmpa	r0,	r10	
 a5a:	ea 00       	adda	r0,	r10	
 a5c:	01 00       	mova	@r0,	r1	
 a5e:	5b ea 00 02 	xor.b	512(r10),r11	;0x0200(r10)
 a62:	01 01       	mova	@r1,	r1	
 a64:	00 5b       	add	r11,	r0	
 a66:	02 01       	mova	@r1,	r2	
 a68:	04 01       	mova	@r1,	r4	
 a6a:	01 00       	mova	@r0,	r1	
 a6c:	5f 00       	rrcm	#1,	r15	
 a6e:	00 00       	bra	@r0		
 a70:	00 1e 00 82 	subx	r2,	r0	
 a74:	00 02       	bra	#4		;r2 As==10
 a76:	00 30       	jn	$+2      	;abs 0xa78
 a78:	9f 82 00 8c 	sub	&0x8c00,256(r15);0x0100(r15)
 a7c:	00 01 
 a7e:	00 59       	add	r9,	r0	
 a80:	8c 00 8e 00 	mova	#0x0008e,r12	
 a84:	01 00       	mova	@r0,	r1	
 a86:	59 8e 00 9a 	sub.b	-26112(r14),r9	;0x9a00(r14)
 a8a:	00 01       	bra	@r1		
 a8c:	00 59       	add	r9,	r0	
 a8e:	9a 00 a4 00 	cmpa	#0x000a4,r10	
 a92:	02 00       	mova	@r0,	r2	
 a94:	30 9f       	cmp	@r15+,	r0	
 a96:	a4 00 ae 00 	adda	#0x000ae,r4	
 a9a:	01 00       	mova	@r0,	r1	
 a9c:	59 ae 00 b4 	dadd.b	-19456(r14),r9	;0xb400(r14)
 aa0:	00 01       	bra	@r1		
 aa2:	00 59       	add	r9,	r0	
 aa4:	b4 00 b8 00 	suba	#0x000b8,r4	
 aa8:	02 00       	mova	@r0,	r2	
 aaa:	30 9f       	cmp	@r15+,	r0	
 aac:	00 00       	bra	@r0		
 aae:	00 00       	bra	@r0		
 ab0:	1e 00       	mova	#0x00000,r14	
 ab2:	f2 00       	suba	r0,	r2	
 ab4:	01 00       	mova	@r0,	r1	
 ab6:	51 f2 00 04 	and.b	&0x0400,r1	
 aba:	01 03       	mova	#2,	r1	;r3 As==10
 abc:	00 91       	cmp	r1,	r0	
 abe:	6c 9f       	cmp.b	@r15,	r12	
 ac0:	00 00       	bra	@r0		
 ac2:	00 00       	bra	@r0		
 ac4:	1e 00       	mova	#0x00000,r14	
 ac6:	2e 00 01 00 	mova	&0x00001,r14	
 aca:	51 2e       	jc	$-860    	;abs 0x76e
 acc:	00 42       	br	r2		
 ace:	00 03       	bra	#2		;r3 As==10
 ad0:	00 91       	cmp	r1,	r0	
 ad2:	6d 9f       	cmp.b	@r15,	r13	
 ad4:	42 00       	rrcm.a	#1,	r2	
 ad6:	48 00       	rrcm.a	#1,	r8	
 ad8:	03 00       	.word	0x0003;	????	Illegal as address instr
 ada:	91 6e 9f 48 	addc	18591(r14),20480(r1);0x489f(r14), 0x5000(r1)
 ade:	00 50 
 ae0:	00 01       	bra	@r1		
 ae2:	00 51       	add	r1,	r0	
 ae4:	50 00       	rrcm	#1,	r0	
 ae6:	56 00       	rrcm	#1,	r6	
 ae8:	03 00       	.word	0x0003;	????	Illegal as address instr
 aea:	91 6d 9f 56 	addc	22175(r13),22528(r1);0x569f(r13), 0x5800(r1)
 aee:	00 58 
 af0:	00 01       	bra	@r1		
 af2:	00 51       	add	r1,	r0	
 af4:	58 00       	rrcm	#1,	r8	
 af6:	5a 00       	rrcm	#1,	r10	
 af8:	01 00       	mova	@r0,	r1	
 afa:	56 00       	rrcm	#1,	r6	
 afc:	00 00       	bra	@r0		
 afe:	00 5e       	add	r14,	r0	
 b00:	00 a4       	dadd	r4,	r0	
 b02:	00 03       	bra	#2		;r3 As==10
 b04:	00 08       	bra	@r8		
 b06:	20 9f       	cmp	@r15,	r0	
 b08:	a4 00 ae 00 	adda	#0x000ae,r4	
 b0c:	01 00       	mova	@r0,	r1	
 b0e:	54 ae 00 b4 	dadd.b	-19456(r14),r4	;0xb400(r14)
 b12:	00 01       	bra	@r1		
 b14:	00 54       	add	r4,	r0	
 b16:	00 00       	bra	@r0		
 b18:	00 00       	bra	@r0		
 b1a:	6e 00 ae 00 	mova	r0,	&0xe00ae
 b1e:	01 00       	mova	@r0,	r1	
 b20:	55 ae 00 b4 	dadd.b	-19456(r14),r5	;0xb400(r14)
 b24:	00 01       	bra	@r1		
 b26:	00 55       	add	r5,	r0	
 b28:	00 00       	bra	@r0		
 b2a:	00 00       	bra	@r0		
 b2c:	0c 01       	mova	@r1,	r12	
 b2e:	0e 01       	mova	@r1,	r14	
 b30:	02 00       	mova	@r0,	r2	
 b32:	71 02 0e 01 	mova	r2,	270(r1)	;0x010e(r1)
 b36:	10 01       	reta			
 b38:	02 00       	mova	@r0,	r2	
 b3a:	71 04 10 01 	mova	r4,	272(r1)	;0x0110(r1)
 b3e:	12 01       	mova	@r1+,	r2	
 b40:	02 00       	mova	@r0,	r2	
 b42:	71 06 12 01 	mova	r6,	274(r1)	;0x0112(r1)
 b46:	14 01       	mova	@r1+,	r4	
 b48:	02 00       	mova	@r0,	r2	
 b4a:	71 08 14 01 	mova	r8,	276(r1)	;0x0114(r1)
 b4e:	16 01       	mova	@r1+,	r6	
 b50:	02 00       	mova	@r0,	r2	
 b52:	71 0a 16 01 	mova	r10,	278(r1)	;0x0116(r1)
 b56:	18 01       	mova	@r1+,	r8	
 b58:	02 00       	mova	@r0,	r2	
 b5a:	71 0c 18 01 	mova	r12,	280(r1)	;0x0118(r1)
 b5e:	1a 01       	mova	@r1+,	r10	
 b60:	02 00       	mova	@r0,	r2	
 b62:	71 0e 1a 01 	mova	r14,	282(r1)	;0x011a(r1)
 b66:	1c 01       	mova	@r1+,	r12	
 b68:	02 00       	mova	@r0,	r2	
 b6a:	71 10       	rrc.b	@r1+		
 b6c:	1c 01       	mova	@r1+,	r12	
 b6e:	20 01 02 00 	bra	&0x10002	
 b72:	71 12       	push.b	@r1+		
 b74:	20 01 76 04 	bra	&0x10476	
 b78:	02 00       	mova	@r0,	r2	
 b7a:	71 34       	jge	$+228    	;abs 0xc5e
 b7c:	00 00       	bra	@r0		
 b7e:	00 00       	bra	@r0		
 b80:	0c 01       	mova	@r1,	r12	
 b82:	3c 01 01 00 	mova	1(r1),	r12	;0x0001(r1)
 b86:	5f 3c       	jmp	$+192    	;abs 0xc46
 b88:	01 76       	subc	r6,	r1	
 b8a:	04 02       	mova	#4,	r4	;r2 As==10
 b8c:	00 91       	cmp	r1,	r0	
 b8e:	64 00 00 00 	mova	r0,	&0x40000
 b92:	00 0c       	bra	@r12		
 b94:	01 3c       	jmp	$+4      	;abs 0xb98
 b96:	01 01       	mova	@r1,	r1	
 b98:	00 5e       	add	r14,	r0	
 b9a:	3c 01 60 01 	mova	352(r1),r12	;0x0160(r1)
 b9e:	01 00       	mova	@r0,	r1	
 ba0:	5f 60 01 76 	addc.b	0x7601,	r15	;PC rel. 0x081a5
 ba4:	04 02       	mova	#4,	r4	;r2 As==10
 ba6:	00 91       	cmp	r1,	r0	
 ba8:	66 00 00 00 	mova	r0,	&0x60000
 bac:	00 0c       	bra	@r12		
 bae:	01 3c       	jmp	$+4      	;abs 0xbb2
 bb0:	01 01       	mova	@r1,	r1	
 bb2:	00 5d       	add	r13,	r0	
 bb4:	3c 01 34 02 	mova	564(r1),r12	;0x0234(r1)
 bb8:	02 00       	mova	@r0,	r2	
 bba:	91 5a 34 02 	add	564(r10),602(r1)	;0x0234(r10), 0x025a(r1)
 bbe:	5a 02 
 bc0:	01 00       	mova	@r0,	r1	
 bc2:	5c 5a 02 a2 	add.b	-24062(r10),r12	;0xa202(r10)
 bc6:	02 02       	mova	#4,	r2	;r2 As==10
 bc8:	00 91       	cmp	r1,	r0	
 bca:	5a a2 02 b0 	dadd.b	&0xb002,r10	
 bce:	02 06       	mova	@r6,	r2	
 bd0:	00 91       	cmp	r1,	r0	
 bd2:	5a 06       	rlam	#2,	r10	
 bd4:	23 02       	.word	0x0223;	????	Illegal as address instr
 bd6:	9f b0 02 b6 	bit	0xb602,	514(r15);PC rel. 0xfc1dc, 0x0202(r15)
 bda:	02 02 
 bdc:	00 91       	cmp	r1,	r0	
 bde:	5a b6 02 dc 	bit.b	-9214(r6),r10	;0xdc02(r6)
 be2:	02 01       	mova	@r1,	r2	
 be4:	00 5b       	add	r11,	r0	
 be6:	dc 02       	cmpa	r2,	r12	
 be8:	0a 03       	mova	#2,	r10	;r3 As==10
 bea:	06 00       	mova	@r0,	r6	
 bec:	91 5a 06 23 	add	8966(r10),-24830(r1);0x2306(r10), 0x9f02(r1)
 bf0:	02 9f 
 bf2:	0a 03       	mova	#2,	r10	;r3 As==10
 bf4:	28 03 02 00 	mova	&0x30002,r8	
 bf8:	91 5a 28 03 	add	808(r10),826(r1)	;0x0328(r10), 0x033a(r1)
 bfc:	3a 03 
 bfe:	06 00       	mova	@r0,	r6	
 c00:	91 5a 06 23 	add	8966(r10),-24828(r1);0x2306(r10), 0x9f04(r1)
 c04:	04 9f 
 c06:	3a 03 46 03 	mova	#1,	r10	;r3 As==01
 c0a:	02 00       	mova	@r0,	r2	
 c0c:	91 5a 46 03 	add	838(r10),856(r1)	;0x0346(r10), 0x0358(r1)
 c10:	58 03 
 c12:	01 00       	mova	@r0,	r1	
 c14:	5a 58 03 64 	add.b	25603(r8),r10	;0x6403(r8)
 c18:	03 01       	.word	0x0103;	????	Illegal as address instr
 c1a:	00 5a       	add	r10,	r0	
 c1c:	64 03 76 04 	mova	#0,	&0x40476;r3 As==00
 c20:	02 00       	mova	@r0,	r2	
 c22:	91 5a 00 00 	add	0(r10),	0(r1)	;0x0000(r10), 0x0000(r1)
 c26:	00 00 
 c28:	2c 01 3c 01 	mova	&0x1013c,r12	
 c2c:	02 00       	mova	@r0,	r2	
 c2e:	30 9f       	cmp	@r15+,	r0	
 c30:	3c 01 4e 04 	mova	1102(r1),r12	;0x044e(r1)
 c34:	02 00       	mova	@r0,	r2	
 c36:	91 5e 4e 04 	add	1102(r14),1142(r1);0x044e(r14), 0x0476(r1)
 c3a:	76 04 
 c3c:	02 00       	mova	@r0,	r2	
 c3e:	91 5e 00 00 	add	0(r14),	0(r1)	;0x0000(r14), 0x0000(r1)
 c42:	00 00 
 c44:	2c 01 3c 01 	mova	&0x1013c,r12	
 c48:	02 00       	mova	@r0,	r2	
 c4a:	30 9f       	cmp	@r15+,	r0	
 c4c:	3c 01 4e 01 	mova	334(r1),r12	;0x014e(r1)
 c50:	01 00       	mova	@r0,	r1	
 c52:	5a 4e 01 56 	mov.b	22017(r14),r10	;0x5601(r14)
 c56:	01 02       	mova	#4,	r1	;r2 As==10
 c58:	00 31       	jn	$+514    	;abs 0xe5a
 c5a:	9f 56 01 66 	add	26113(r6),258(r15);0x6601(r6), 0x0102(r15)
 c5e:	02 01 
 c60:	00 5a       	add	r10,	r0	
 c62:	a2 02 d6 02 	adda	#0x202d6,r2	
 c66:	01 00       	mova	@r0,	r1	
 c68:	5a d6 02 dc 	bis.b	-9214(r6),r10	;0xdc02(r6)
 c6c:	02 02       	mova	#4,	r2	;r2 As==10
 c6e:	00 30       	jn	$+2      	;abs 0xc70
 c70:	9f dc 02 40 	bis	16386(r12),259(r15);0x4002(r12), 0x0103(r15)
 c74:	03 01 
 c76:	00 5a       	add	r10,	r0	
 c78:	36 04 38 04 	mova	1080(r4),r6	;0x0438(r4)
 c7c:	02 00       	mova	@r0,	r2	
 c7e:	30 9f       	cmp	@r15+,	r0	
 c80:	38 04 44 04 	mova	1092(r4),r8	;0x0444(r4)
 c84:	01 00       	mova	@r0,	r1	
 c86:	5a 44 04 48 	mov.b	18436(r4),r10	;0x4804(r4)
 c8a:	04 02       	mova	#4,	r4	;r2 As==10
 c8c:	00 30       	jn	$+2      	;abs 0xc8e
 c8e:	9f 4a 04 4e 	mov	19972(r10),260(r15);0x4e04(r10), 0x0104(r15)
 c92:	04 01 
 c94:	00 5a       	add	r10,	r0	
 c96:	4e 04       	rrcm.a	#2,	r14	
 c98:	72 04 01 00 	mova	r4,	&0x0001	
 c9c:	5a 00       	rrcm	#1,	r10	
 c9e:	00 00       	bra	@r0		
 ca0:	00 2c       	jc	$+2      	;abs 0xca2
 ca2:	01 3c       	jmp	$+4      	;abs 0xca6
 ca4:	01 02       	mova	#4,	r1	;r2 As==10
 ca6:	00 30       	jn	$+2      	;abs 0xca8
 ca8:	9f 3c       	jmp	$+320    	;abs 0xde8
 caa:	01 4a       	mov	r10,	r1	
 cac:	01 02       	mova	#4,	r1	;r2 As==10
 cae:	00 91       	cmp	r1,	r0	
 cb0:	5c 4a 01 56 	mov.b	22017(r10),r12	;0x5601(r10)
 cb4:	01 02       	mova	#4,	r1	;r2 As==10
 cb6:	00 30       	jn	$+2      	;abs 0xcb8
 cb8:	9f 56 01 42 	add	16897(r6),514(r15);0x4201(r6), 0x0202(r15)
 cbc:	02 02 
 cbe:	00 91       	cmp	r1,	r0	
 cc0:	5c 42 02 44 	mov.b	&0x4402,r12	
 cc4:	02 03       	mova	#2,	r2	;r3 As==10
 cc6:	00 91       	cmp	r1,	r0	
 cc8:	5a 06       	rlam	#2,	r10	
 cca:	44 02       	rlam.a	#1,	r4	
 ccc:	92 02 02 00 	cmpa	#0x20002,r2	
 cd0:	91 5c 92 02 	add	658(r12),672(r1)	;0x0292(r12), 0x02a0(r1)
 cd4:	a0 02 
 cd6:	01 00       	mova	@r0,	r1	
 cd8:	5b a0 02 48 	dadd.b	0x4802,	r11	;PC rel. 0x054de
 cdc:	04 02       	mova	#4,	r4	;r2 As==10
 cde:	00 91       	cmp	r1,	r0	
 ce0:	5c 4a 04 4e 	mov.b	19972(r10),r12	;0x4e04(r10)
 ce4:	04 02       	mova	#4,	r4	;r2 As==10
 ce6:	00 91       	cmp	r1,	r0	
 ce8:	5c 4e 04 76 	mov.b	30212(r14),r12	;0x7604(r14)
 cec:	04 02       	mova	#4,	r4	;r2 As==10
 cee:	00 91       	cmp	r1,	r0	
 cf0:	5c 00       	rrcm	#1,	r12	
 cf2:	00 00       	bra	@r0		
 cf4:	00 bc       	bit	r12,	r0	
 cf6:	02 d1       	bis	r1,	r2	
 cf8:	02 03       	mova	#2,	r2	;r3 As==10
 cfa:	00 91       	cmp	r1,	r0	
 cfc:	5a 06       	rlam	#2,	r10	
 cfe:	9a 03 9e 03 	cmpa	#0x3039e,r10	
 d02:	03 00       	.word	0x0003;	????	Illegal as address instr
 d04:	91 59 9f 9e 	add	-24929(r9),-17405(r1);0x9e9f(r9), 0xbc03(r1)
 d08:	03 bc 
 d0a:	03 03       	.word	0x0303;	????	Illegal as address instr
 d0c:	00 91       	cmp	r1,	r0	
 d0e:	58 9f c4 03 	cmp.b	964(r15),r8	;0x03c4(r15)
 d12:	d6 03       	tsta	r6		
 d14:	01 00       	mova	@r0,	r1	
 d16:	5f d6 03 e2 	bis.b	-7677(r6),r15	;0xe203(r6)
 d1a:	03 02       	.word	0x0203;	????	Illegal as address instr
 d1c:	00 91       	cmp	r1,	r0	
 d1e:	6c e2       	xor.b	#4,	r12	;r2 As==10
 d20:	03 e4       	.word	0xe403;	????	Illegal as 2-op instr
 d22:	03 01       	.word	0x0103;	????	Illegal as address instr
 d24:	00 57       	add	r7,	r0	
 d26:	e4 03       	incda	r4		
 d28:	fa 03       	decda	r10		
 d2a:	02 00       	mova	@r0,	r2	
 d2c:	91 6c 00 00 	addc	0(r12),	0(r1)	;0x0000(r12), 0x0000(r1)
 d30:	00 00 
 d32:	3c 01 3a 02 	mova	570(r1),r12	;0x023a(r1)
 d36:	01 00       	mova	@r0,	r1	
 d38:	5e 3a       	jl	$-834    	;abs 0x9f6
 d3a:	02 a8       	dadd	r8,	r2	
 d3c:	02 03       	mova	#2,	r2	;r3 As==10
 d3e:	00 91       	cmp	r1,	r0	
 d40:	66 06 a8 02 	mova	r6,	&0x602a8
 d44:	b0 02 03 00 	suba	#0x20003,r0	
 d48:	91 5a 06 b0 	add	-20474(r10),-12030(r1);0xb006(r10), 0xd102(r1)
 d4c:	02 d1 
 d4e:	02 03       	mova	#2,	r2	;r3 As==10
 d50:	00 91       	cmp	r1,	r0	
 d52:	66 06 dc 02 	mova	r6,	&0x602dc
 d56:	bc 03 01 00 	suba	#0x30001,r12	
 d5a:	5e bc 03 31 	bit.b	12547(r12),r14	;0x3103(r12)
 d5e:	04 03       	mova	#2,	r4	;r3 As==10
 d60:	00 91       	cmp	r1,	r0	
 d62:	66 06 38 04 	mova	r6,	&0x60438
 d66:	3a 04 01 00 	mova	1(r4),	r10	;0x0001(r4)
 d6a:	5e 48 04 4a 	mov.b	18948(r8),r14	;0x4a04(r8)
 d6e:	04 03       	mova	#2,	r4	;r3 As==10
 d70:	00 91       	cmp	r1,	r0	
 d72:	66 06 54 04 	mova	r6,	&0x60454
 d76:	76 04 03 00 	mova	r4,	3(r6)	;0x0003(r6)
 d7a:	91 66 06 00 	addc	6(r6),	0(r1)	;0x0006(r6), 0x0000(r1)
 d7e:	00 00 
 d80:	00 00       	bra	@r0		
 d82:	03 0a       	.word	0x0a03;	????	Illegal as address instr
 d84:	03 02       	.word	0x0203;	????	Illegal as address instr
 d86:	00 40       	br	r0		
 d88:	9f 20       	jnz	$+320    	;abs 0xec8
 d8a:	03 6a       	.word	0x6a03;	????	Illegal as 2-op instr
 d8c:	03 01       	.word	0x0103;	????	Illegal as address instr
 d8e:	00 54       	add	r4,	r0	
 d90:	00 00       	bra	@r0		
 d92:	00 00       	bra	@r0		
 d94:	f4 02       	suba	r2,	r4	
 d96:	00 03       	bra	#2		;r3 As==10
 d98:	02 00       	mova	@r0,	r2	
 d9a:	91 60 00 03 	addc	0x0300,	778(r1)	;PC rel. 0x0109e, 0x030a(r1)
 d9e:	0a 03 
 da0:	06 00       	mova	@r0,	r6	
 da2:	55 93       	cmp.b	#1,	r5	;r3 As==01
 da4:	02 56       	add	r6,	r2	
 da6:	93 02       	.word	0x0293;	????	Illegal as address instr
 da8:	32 03 3a 03 	mova	#1,	r2	;r3 As==01
 dac:	03 00       	.word	0x0003;	????	Illegal as address instr
 dae:	91 5a 06 56 	add	22022(r10),22531(r1);0x5606(r10), 0x5803(r1)
 db2:	03 58 
 db4:	03 06       	.word	0x0603;	????	Illegal as address instr
 db6:	00 55       	add	r5,	r0	
 db8:	93 02       	.word	0x0293;	????	Illegal as address instr
 dba:	56 93       	cmp.b	#1,	r6	;r3 As==01
 dbc:	02 60       	addc	r0,	r2	
 dbe:	03 96       	.word	0x9603;	????	Illegal as 2-op instr
 dc0:	03 06       	.word	0x0603;	????	Illegal as address instr
 dc2:	00 55       	add	r5,	r0	
 dc4:	93 02       	.word	0x0293;	????	Illegal as address instr
 dc6:	56 93       	cmp.b	#1,	r6	;r3 As==01
 dc8:	02 9a       	cmp	r10,	r2	
 dca:	03 0c       	.word	0x0c03;	????	Illegal as address instr
 dcc:	04 06       	mova	@r6,	r4	
 dce:	00 55       	add	r5,	r0	
 dd0:	93 02       	.word	0x0293;	????	Illegal as address instr
 dd2:	56 93       	cmp.b	#1,	r6	;r3 As==01
 dd4:	02 0c       	mova	@r12,	r2	
 dd6:	04 22       	jnz	$-1014   	;abs 0x9e0
 dd8:	04 06       	mova	@r6,	r4	
 dda:	00 5c       	add	r12,	r0	
 ddc:	93 02       	.word	0x0293;	????	Illegal as address instr
 dde:	5d 93       	cmp.b	#1,	r13	;r3 As==01
 de0:	02 22       	jnz	$-1018   	;abs 0x9e6
 de2:	04 38       	jl	$+10     	;abs 0xdec
 de4:	04 06       	mova	@r6,	r4	
 de6:	00 55       	add	r5,	r0	
 de8:	93 02       	.word	0x0293;	????	Illegal as address instr
 dea:	56 93       	cmp.b	#1,	r6	;r3 As==01
 dec:	02 00       	mova	@r0,	r2	
 dee:	00 00       	bra	@r0		
 df0:	00 3a       	jl	$-1022   	;abs 0x9f2
 df2:	02 5a       	add	r10,	r2	
 df4:	02 03       	mova	#2,	r2	;r3 As==10
 df6:	00 91       	cmp	r1,	r0	
 df8:	5a 06       	rlam	#2,	r10	
 dfa:	00 00       	bra	@r0		
 dfc:	00 00       	bra	@r0		
 dfe:	d2 03       	tsta	r2		
 e00:	de 03       	tsta	r14		
 e02:	01 00       	mova	@r0,	r1	
 e04:	5e e4 03 fa 	xor.b	-1533(r4),r14	;0xfa03(r4)
 e08:	03 01       	.word	0x0103;	????	Illegal as address instr
 e0a:	00 5e       	add	r14,	r0	
 e0c:	00 00       	bra	@r0		
	...

Disassembly of section .debug_pubtypes:

00000000 <.debug_pubtypes>:
   0:	24 00 00 00 	mova	&0x00000,r4	
   4:	02 00       	mova	@r0,	r2	
   6:	00 00       	bra	@r0		
   8:	00 00       	bra	@r0		
   a:	4d 08       	rrcm.a	#3,	r13	
   c:	00 00       	bra	@r0		
   e:	be 00 00 00 	suba	#0x00000,r14	
  12:	43 4f       	.word	0x4f43;	????	Illegal as 2-op instr
  14:	4d 4d       	mov.b	r13,	r13	
  16:	41 4e       	mov.b	r14,	r1	
  18:	44 00       	rrcm.a	#1,	r4	
  1a:	e4 00       	adda	r0,	r4	
  1c:	00 00       	bra	@r0		
  1e:	53 54       	.word	0x5453;	????	Illegal as 2-op instr
  20:	41 54       	add.b	r4,	r1	
  22:	45 00       	rrcm.a	#1,	r5	
  24:	00 00       	bra	@r0		
  26:	00 00       	bra	@r0		
  28:	0e 00       	mova	@r0,	r14	
  2a:	00 00       	bra	@r0		
  2c:	02 00       	mova	@r0,	r2	
  2e:	b7 09 00 00 	suba	#0x90000,r7	
  32:	55 00       	rrcm	#1,	r5	
  34:	00 00       	bra	@r0		
  36:	00 00       	bra	@r0		
  38:	00 00       	bra	@r0		
  3a:	0e 00       	mova	@r0,	r14	
  3c:	00 00       	bra	@r0		
  3e:	02 00       	mova	@r0,	r2	
  40:	98 16       	popm.a	#10,	r1	
  42:	00 00       	bra	@r0		
  44:	a6 01 00 00 	adda	#0x10000,r6	
  48:	00 00       	bra	@r0		
  4a:	00 00       	bra	@r0		
  4c:	2d 00 00 00 	mova	&0x00000,r13	
  50:	02 00       	mova	@r0,	r2	
  52:	3e 18       	.word	0x183e;	????	
  54:	00 00       	bra	@r0		
  56:	03 01       	.word	0x0103;	????	Illegal as address instr
  58:	00 00       	bra	@r0		
  5a:	72 00 00 00 	mova	r0,	&0x0000	
  5e:	5f 5f 67 6e 	add.b	28263(r15),r15	;0x6e67(r15)
  62:	75 63       	addc.b	#-1,	r5	;r3 As==11
  64:	5f 76 61 5f 	subc.b	24417(r6),r15	;0x5f61(r6)
  68:	6c 69       	addc.b	@r9,	r12	
  6a:	73 74       	.word	0x7473;	????	Illegal as 2-op instr
  6c:	00 83       	sub	#0,	r0	;r3 As==00
  6e:	00 00       	bra	@r0		
  70:	00 76       	subc	r6,	r0	
  72:	61 5f       	add.b	@r15,	r1	
  74:	6c 69       	addc.b	@r9,	r12	
  76:	73 74       	.word	0x7473;	????	Illegal as 2-op instr
  78:	00 00       	bra	@r0		
  7a:	00 00       	bra	@r0		
  7c:	00 52       	add	r2,	r0	
  7e:	00 00       	bra	@r0		
  80:	00 02       	bra	#4		;r2 As==10
  82:	00 41       	br	r1		
  84:	19 00       	mova	#0x00000,r9	
  86:	00 b5       	bit	r5,	r0	
  88:	03 00       	.word	0x0003;	????	Illegal as address instr
  8a:	00 3d       	jmp	$+514    	;abs 0x28c
  8c:	00 00       	bra	@r0		
  8e:	00 69       	addc	r9,	r0	
  90:	6e 74       	subc.b	@r4,	r14	
  92:	31 36       	jge	$-924    	;abs 0xfcf6
  94:	5f 74 00 64 	subc.b	25600(r4),r15	;0x6400(r4)
  98:	00 00       	bra	@r0		
  9a:	00 69       	addc	r9,	r0	
  9c:	6e 74       	subc.b	@r4,	r14	
  9e:	70 74       	subc.b	@r4+,	r0	
  a0:	72 5f       	add.b	@r15+,	r2	
  a2:	74 00 8e 00 	mova	r0,	142(r4)	;0x008e(r4)
  a6:	00 00       	bra	@r0		
  a8:	5f 5f 67 6e 	add.b	28263(r15),r15	;0x6e67(r15)
  ac:	75 63       	addc.b	#-1,	r5	;r3 As==11
  ae:	5f 76 61 5f 	subc.b	24417(r6),r15	;0x5f61(r6)
  b2:	6c 69       	addc.b	@r9,	r12	
  b4:	73 74       	.word	0x7473;	????	Illegal as 2-op instr
  b6:	00 9f       	cmp	r15,	r0	
  b8:	00 00       	bra	@r0		
  ba:	00 76       	subc	r6,	r0	
  bc:	61 5f       	add.b	@r15,	r1	
  be:	6c 69       	addc.b	@r9,	r12	
  c0:	73 74       	.word	0x7473;	????	Illegal as 2-op instr
  c2:	00 38       	jl	$+2      	;abs 0xc4
  c4:	01 00       	mova	@r0,	r1	
  c6:	00 66       	addc	r6,	r0	
  c8:	6c 61       	addc.b	@r1,	r12	
  ca:	67 73       	subc.b	#2,	r7	;r3 As==10
  cc:	5f 74 00 00 	subc.b	0(r4),	r15	;0x0000(r4)
  d0:	00 00       	bra	@r0		
	...

Disassembly of section .debug_ranges:

00000000 <.debug_ranges>:
   0:	4a 33       	jn	$-362    	;abs 0xfe96
   2:	c3 36       	jge	$-632    	;abs 0xfd8a
   4:	38 31       	jn	$+626    	;abs 0x276
   6:	40 33       	jn	$-382    	;abs 0xfe88
   8:	00 00       	bra	@r0		
   a:	00 00       	bra	@r0		
   c:	5e 00       	rrcm	#1,	r14	
   e:	b4 00 b8 00 	suba	#0x000b8,r4	
  12:	bc 00 00 00 	suba	#0x00000,r12	
	...
