
motortester.o:     file format elf32-msp430

Disassembly of section .text:

0000e000 <__init_stack>:
    e000:	31 40 00 03 	mov	#768,	r1	;#0x0300

0000e004 <__low_level_init>:
    e004:	b2 40 80 5a 	mov	#23168,	&0x0120	;#0x5a80
    e008:	20 01 

0000e00a <__do_copy_data>:
    e00a:	3f 40 2c 00 	mov	#44,	r15	;#0x002c
    e00e:	0f 93       	tst	r15		
    e010:	05 24       	jz	$+12     	;abs 0xe01c
    e012:	2f 83       	decd	r15		
    e014:	9f 4f 0c f2 	mov	-3572(r15),512(r15);0xf20c(r15), 0x0200(r15)
    e018:	00 02 
    e01a:	fb 23       	jnz	$-8      	;abs 0xe012

0000e01c <__do_clear_bss>:
    e01c:	3f 40 00 00 	mov	#0,	r15	;#0x0000
    e020:	0f 93       	tst	r15		
    e022:	04 24       	jz	$+10     	;abs 0xe02c
    e024:	1f 83       	dec	r15		
    e026:	cf 43 2c 02 	mov.b	#0,	556(r15);r3 As==00, 0x022c(r15)
    e02a:	fc 23       	jnz	$-6      	;abs 0xe024

0000e02c <__jump_to_main>:
    e02c:	30 40 36 e0 	br	#0xe036	

0000e030 <__ctors_end>:
    e030:	30 40 34 e0 	br	#0xe034	

0000e034 <_unexpected_>:
    e034:	00 13       	reti			

0000e036 <main>:
		unsigned char bit7:1;
	}Byte;
	unsigned char uChar;
}REGISTER;
*/
int main(){
    e036:	31 40 00 03 	mov	#768,	r1	;#0x0300
	unsigned int periodo = 2000;

	WDTCTL = WDTPW + WDTHOLD;                 // Stop WDT        
    e03a:	b2 40 80 5a 	mov	#23168,	&0x0120	;#0x5a80
    e03e:	20 01 
	int i;
	
	// config io
	P3DIR = 0x0F;
    e040:	f2 40 0f 00 	mov.b	#15,	&0x001a	;#0x000f
    e044:	1a 00 
	P1DIR = 0x00;
    e046:	c2 43 22 00 	mov.b	#0,	&0x0022	;r3 As==00
	//P2DIR = 0xFF;
	port2.dir.pin0 = 1;
    e04a:	d2 d3 2c 00 	bis.b	#1,	&0x002c	;r3 As==01
	
	//config clock
    BCSCTL1 |= XTS;	// talvez nao seja muito bom dividir por 8 aqui
    e04e:	f2 d0 40 00 	bis.b	#64,	&0x0057	;#0x0040
    e052:	57 00 
    BCSCTL3 |= LFXT1S1;                       // 3 – 16MHz crystal or resonator
    e054:	f2 d0 20 00 	bis.b	#32,	&0x0053	;#0x0020
    e058:	53 00 
    do{
    	IFG1 &= ~OFIFG;                       // Clear OSCFault flag
    e05a:	e2 c3 02 00 	bic.b	#2,	&0x0002	;r3 As==10
	    for (i = 0xFF; i > 0; i--);           // Time for flag to set
    e05e:	3b 40 ff 00 	mov	#255,	r11	;#0x00ff
    e062:	3b 50 f1 ff 	add	#-15,	r11	;#0xfff1
    e066:	1b 93       	cmp	#1,	r11	;r3 As==01
    e068:	fc 37       	jge	$-6      	;abs 0xe062
    }
    e06a:	e2 b3 02 00 	bit.b	#2,	&0x0002	;r3 As==10
    e06e:	f5 23       	jnz	$-20     	;abs 0xe05a
    while (IFG1 & OFIFG);                     // OSCFault flag still set?
    BCSCTL2 |= SELM_3 + SELS;                 // MCLK = LFXT1 (safe), SMCLK = 16MHz
    e070:	f2 d0 c8 ff 	bis.b	#-56,	&0x0058	;#0xffc8
    e074:	58 00 
	
    // periodo de 1ms
    TMRB_init(periodo);
    e076:	3f 40 d0 07 	mov	#2000,	r15	;#0x07d0
    e07a:	b0 12 98 eb 	call	#0xeb98	
    
	for(;;){
    e07e:	3a 40 2a 00 	mov	#42,	r10	;#0x002a
		TBCCR1 = 0;
    e082:	82 43 94 01 	mov	#0,	&0x0194	;r3 As==00
		delayms(1000);
    e086:	3f 40 e8 03 	mov	#1000,	r15	;#0x03e8
    e08a:	b0 12 ce eb 	call	#0xebce	
		
		port2.out.pin0 ^= 1;
    e08e:	6e 4a       	mov.b	@r10,	r14	
    e090:	5e f3       	and.b	#1,	r14	;r3 As==01
    e092:	5e e3       	xor.b	#1,	r14	;r3 As==01
    e094:	6f 4a       	mov.b	@r10,	r15	
    e096:	5f c3       	bic.b	#1,	r15	;r3 As==01
    e098:	4f de       	bis.b	r14,	r15	
    e09a:	ca 4f 00 00 	mov.b	r15,	0(r10)	;0x0000(r10)
		
		for(i = 0; i < periodo; i++){
    e09e:	0b 43       	clr	r11		
			TBCCR1 = i;
    e0a0:	82 4b 94 01 	mov	r11,	&0x0194	
			delayms(5);
    e0a4:	3f 40 05 00 	mov	#5,	r15	;#0x0005
    e0a8:	b0 12 ce eb 	call	#0xebce	
		TBCCR1 = 0;
		delayms(1000);
		
		port2.out.pin0 ^= 1;
		
		for(i = 0; i < periodo; i++){
    e0ac:	1b 53       	inc	r11		
    e0ae:	3b 90 d0 07 	cmp	#2000,	r11	;#0x07d0
    e0b2:	f6 2b       	jnc	$-18     	;abs 0xe0a0
    e0b4:	e6 3f       	jmp	$-50     	;abs 0xe082
			TBCCR1 = i;
			delayms(5);
		}
	}
}
    e0b6:	30 40 0a f2 	br	#0xf20a	

0000e0ba <asciitable>:
    e0ba:	00 00       	.word	0x0000;	????	
    e0bc:	00 00       	.word	0x0000;	????	
    e0be:	00 3e       	jmp	$-1022   	;abs 0xdcc0
    e0c0:	0a 34       	jge	$+22     	;abs 0xe0d6
    e0c2:	00 3e       	jmp	$-1022   	;abs 0xdcc4
    e0c4:	18 3e       	jmp	$-974    	;abs 0xdcf6
    e0c6:	00 3e       	jmp	$-1022   	;abs 0xdcc8
    e0c8:	22 00       	.word	0x0022;	????	
    e0ca:	3e 20       	jnz	$+126    	;abs 0xe148
    e0cc:	20 00       	.word	0x0020;	????	
    e0ce:	22 1c       	.word	0x1c22;	????	
    e0d0:	00 24       	jz	$+2      	;abs 0xe0d2
    e0d2:	2a 00       	.word	0x002a;	????	
    e0d4:	08 38       	jl	$+18     	;abs 0xe0e6
    e0d6:	38 08       	.word	0x0838;	????	
    e0d8:	1c 22       	jnz	$-966    	;abs 0xdd12
    e0da:	22 22       	jnz	$-954    	;abs 0xdd20
    e0dc:	1c 00       	.word	0x001c;	????	
    e0de:	38 38       	jl	$+114    	;abs 0xe150
    e0e0:	44 82       	sub.b	r2,	r4	
    e0e2:	1c 3e       	jmp	$-966    	;abs 0xdd1c
    e0e4:	62 62       	addc.b	#4,	r2	;r2 As==10
    e0e6:	32 2e       	jc	$-922    	;abs 0xdd4c
    e0e8:	26 23       	jnz	$-434    	;abs 0xdf36
    e0ea:	23 22       	jnz	$-952    	;abs 0xdd32
    e0ec:	00 00       	.word	0x0000;	????	
    e0ee:	00 00       	.word	0x0000;	????	
    e0f0:	00 1c       	.word	0x1c00;	????	
    e0f2:	3e 36       	jge	$-898    	;abs 0xdd70
    e0f4:	22 36       	jge	$-954    	;abs 0xdd3a
    e0f6:	3e 3e       	jmp	$-898    	;abs 0xdd74
    e0f8:	36 36       	jge	$-914    	;abs 0xdd66
    e0fa:	36 00       	.word	0x0036;	????	
    e0fc:	00 00       	.word	0x0000;	????	
    e0fe:	00 00       	.word	0x0000;	????	
    e100:	18 08       	.word	0x0818;	????	
    e102:	1c 22       	jnz	$-966    	;abs 0xdd3c
    e104:	22 63       	addc	#2,	r2	;r3 As==10
    e106:	55 4d 55 6b 	mov.b	27477(r13),r5	;0x6b55(r13)
    e10a:	00 3e       	jmp	$-1022   	;abs 0xdd0c
    e10c:	0a 04       	.word	0x040a;	????	
    e10e:	78 00       	.word	0x0078;	????	
    e110:	3e 0a       	.word	0x0a3e;	????	
    e112:	04 78       	subc	r8,	r4	
    e114:	00 38       	jl	$+2      	;abs 0xe116
    e116:	44 5f       	add.b	r15,	r4	
    e118:	4e 00       	.word	0x004e;	????	
    e11a:	38 44       	mov	@r4+,	r8	
    e11c:	44 5f       	add.b	r15,	r4	
    e11e:	00 3c       	jmp	$+2      	;abs 0xe120
    e120:	3c 3c       	jmp	$+122    	;abs 0xe19a
    e122:	3c 00       	.word	0x003c;	????	
    e124:	3e 0a       	.word	0x0a3e;	????	
    e126:	04 78       	subc	r8,	r4	
    e128:	00 3e       	jmp	$-1022   	;abs 0xdd2a
    e12a:	0a 04       	.word	0x040a;	????	
    e12c:	78 44       	mov.b	@r4+,	r8	
    e12e:	40 38       	jl	$+130    	;abs 0xe1b0
    e130:	00 04       	.word	0x0400;	????	
    e132:	00 7f       	subc	r15,	r0	
    e134:	3e 1c       	.word	0x1c3e;	????	
    e136:	08 08       	.word	0x0808;	????	
    e138:	08 2a       	jnc	$-1006   	;abs 0xdd4a
    e13a:	1c 08       	.word	0x081c;	????	
    e13c:	08 1c       	.word	0x1c08;	????	
    e13e:	2a 08       	.word	0x082a;	????	
    e140:	08 08       	.word	0x0808;	????	
    e142:	08 2a       	jnc	$-1006   	;abs 0xdd54
    e144:	08 08       	.word	0x0808;	????	
    e146:	00 3c       	jmp	$+2      	;abs 0xe148
    e148:	20 00       	.word	0x0020;	????	
    e14a:	00 08       	.word	0x0800;	????	
    e14c:	14 00       	.word	0x0014;	????	
    e14e:	14 08       	.word	0x0814;	????	
    e150:	08 0c       	.word	0x0c08;	????	
    e152:	0e 0c       	.word	0x0c0e;	????	
    e154:	08 08       	.word	0x0808;	????	
    e156:	18 38       	jl	$+50     	;abs 0xe188
    e158:	18 08       	.word	0x0818;	????	
    e15a:	00 00       	.word	0x0000;	????	
    e15c:	00 00       	.word	0x0000;	????	
    e15e:	00 00       	.word	0x0000;	????	
    e160:	00 5f       	add	r15,	r0	
    e162:	00 00       	.word	0x0000;	????	
    e164:	00 07       	.word	0x0700;	????	
    e166:	00 07       	.word	0x0700;	????	
    e168:	00 14       	.word	0x1400;	????	
    e16a:	7f 14       	.word	0x147f;	????	
    e16c:	7f 14       	.word	0x147f;	????	
    e16e:	24 2a       	jnc	$-950    	;abs 0xddb8
    e170:	7f 2a       	jnc	$-768    	;abs 0xde70
    e172:	12 23       	jnz	$-474    	;abs 0xdf98
    e174:	13 08       	.word	0x0813;	????	
    e176:	64 62       	addc.b	#4,	r4	;r2 As==10
    e178:	36 49       	mov	@r9+,	r6	
    e17a:	55 22       	jnz	$-852    	;abs 0xde26
    e17c:	50 00       	.word	0x0050;	????	
    e17e:	05 03       	.word	0x0305;	????	
    e180:	00 00       	.word	0x0000;	????	
    e182:	00 1c       	.word	0x1c00;	????	
    e184:	22 41       	mov	@r1,	r2	
    e186:	00 00       	.word	0x0000;	????	
    e188:	41 22       	jnz	$-892    	;abs 0xde0c
    e18a:	1c 00       	.word	0x001c;	????	
    e18c:	14 08       	.word	0x0814;	????	
    e18e:	3e 08       	.word	0x083e;	????	
    e190:	14 08       	.word	0x0814;	????	
    e192:	08 3e       	jmp	$-1006   	;abs 0xdda4
    e194:	08 08       	.word	0x0808;	????	
    e196:	00 50       	rla	r0		
    e198:	30 00       	.word	0x0030;	????	
    e19a:	00 08       	.word	0x0800;	????	
    e19c:	08 08       	.word	0x0808;	????	
    e19e:	08 08       	.word	0x0808;	????	
    e1a0:	00 60       	rlc	r0		
    e1a2:	60 00       	.word	0x0060;	????	
    e1a4:	00 20       	jnz	$+2      	;abs 0xe1a6
    e1a6:	10 08       	.word	0x0810;	????	
    e1a8:	04 02       	.word	0x0204;	????	
    e1aa:	3e 51       	add	@r1+,	r14	
    e1ac:	49 45       	mov.b	r5,	r9	
    e1ae:	3e 00       	.word	0x003e;	????	
    e1b0:	42 7f       	subc.b	r15,	r2	
    e1b2:	40 00       	.word	0x0040;	????	
    e1b4:	42 61       	addc.b	r1,	r2	
    e1b6:	51 49 46 21 	mov.b	8518(r9),r1	;0x2146(r9)
    e1ba:	41 45       	mov.b	r5,	r1	
    e1bc:	4b 31       	jn	$+664    	;abs 0xe454
    e1be:	18 14       	.word	0x1418;	????	
    e1c0:	12 7f 10 27 	subc	10000(r15),r2	;0x2710(r15)
    e1c4:	45 45       	mov.b	r5,	r5	
    e1c6:	45 39       	jl	$+652    	;abs 0xe452
    e1c8:	3c 4a       	mov	@r10+,	r12	
    e1ca:	49 49       	mov.b	r9,	r9	
    e1cc:	30 01       	.word	0x0130;	????	
    e1ce:	71 09       	.word	0x0971;	????	
    e1d0:	05 03       	.word	0x0305;	????	
    e1d2:	36 49       	mov	@r9+,	r6	
    e1d4:	49 49       	mov.b	r9,	r9	
    e1d6:	36 06       	.word	0x0636;	????	
    e1d8:	49 49       	mov.b	r9,	r9	
    e1da:	29 1e       	.word	0x1e29;	????	
    e1dc:	00 36       	jge	$-1022   	;abs 0xddde
    e1de:	36 00       	.word	0x0036;	????	
    e1e0:	00 00       	.word	0x0000;	????	
    e1e2:	56 36       	jge	$-850    	;abs 0xde90
    e1e4:	00 00       	.word	0x0000;	????	
    e1e6:	08 14       	.word	0x1408;	????	
    e1e8:	22 41       	mov	@r1,	r2	
    e1ea:	00 14       	.word	0x1400;	????	
    e1ec:	14 14       	.word	0x1414;	????	
    e1ee:	14 14       	.word	0x1414;	????	
    e1f0:	00 41       	br	r1		
    e1f2:	22 14       	.word	0x1422;	????	
    e1f4:	08 02       	.word	0x0208;	????	
    e1f6:	01 51       	rla	r1		
    e1f8:	09 06       	.word	0x0609;	????	
    e1fa:	32 49       	mov	@r9+,	r2	
    e1fc:	79 41       	pop.b	r9		
    e1fe:	3e 7e       	subc	@r14+,	r14	
    e200:	11 11 11 7e 	rra	32273(r1)	;0x7e11(r1)
    e204:	7f 49       	mov.b	@r9+,	r15	
    e206:	49 49       	mov.b	r9,	r9	
    e208:	36 3e       	jmp	$-914    	;abs 0xde76
    e20a:	41 41       	mov.b	r1,	r1	
    e20c:	41 22       	jnz	$-892    	;abs 0xde90
    e20e:	7f 41       	pop.b	r15		
    e210:	41 22       	jnz	$-892    	;abs 0xde94
    e212:	1c 7f 49 49 	subc	18761(r15),r12	;0x4949(r15)
    e216:	49 41       	mov.b	r1,	r9	
    e218:	7f 09       	.word	0x097f;	????	
    e21a:	09 09       	.word	0x0909;	????	
    e21c:	01 3e       	jmp	$-1020   	;abs 0xde20
    e21e:	41 49       	mov.b	r9,	r1	
    e220:	49 7a       	subc.b	r10,	r9	
    e222:	7f 08       	.word	0x087f;	????	
    e224:	08 08       	.word	0x0808;	????	
    e226:	7f 00       	.word	0x007f;	????	
    e228:	41 7f       	subc.b	r15,	r1	
    e22a:	41 00       	.word	0x0041;	????	
    e22c:	20 40       	br	@r0		
    e22e:	41 3f       	jmp	$-380    	;abs 0xe0b2
    e230:	01 7f       	subc	r15,	r1	
    e232:	08 14       	.word	0x1408;	????	
    e234:	22 41       	mov	@r1,	r2	
    e236:	7f 40 40 40 	mov.b	#16448,	r15	;#0x4040
    e23a:	40 7f       	subc.b	r15,	r0	
    e23c:	02 0c       	.word	0x0c02;	????	
    e23e:	02 7f       	subc	r15,	r2	
    e240:	7f 04       	.word	0x047f;	????	
    e242:	08 10       	rrc	r8		
    e244:	7f 3e       	jmp	$-768    	;abs 0xdf44
    e246:	41 41       	mov.b	r1,	r1	
    e248:	41 3e       	jmp	$-892    	;abs 0xdecc
    e24a:	7f 09       	.word	0x097f;	????	
    e24c:	09 09       	.word	0x0909;	????	
    e24e:	06 3e       	jmp	$-1010   	;abs 0xde5c
    e250:	41 51       	rla.b	r1		
    e252:	21 5e       	add	@r14,	r1	
    e254:	7f 09       	.word	0x097f;	????	
    e256:	19 29       	jnc	$+564    	;abs 0xe48a
    e258:	46 46       	mov.b	r6,	r6	
    e25a:	49 49       	mov.b	r9,	r9	
    e25c:	49 31       	jn	$+660    	;abs 0xe4f0
    e25e:	01 01       	.word	0x0101;	????	
    e260:	7f 01       	.word	0x017f;	????	
    e262:	01 3f       	jmp	$-508    	;abs 0xe066
    e264:	40 40       	br	r0		
    e266:	40 3f       	jmp	$-382    	;abs 0xe0e8
    e268:	1f 20       	jnz	$+64     	;abs 0xe2a8
    e26a:	40 20       	jnz	$+130    	;abs 0xe2ec
    e26c:	1f 3f       	jmp	$-448    	;abs 0xe0ac
    e26e:	40 38       	jl	$+130    	;abs 0xe2f0
    e270:	40 3f       	jmp	$-382    	;abs 0xe0f2
    e272:	63 14       	.word	0x1463;	????	
    e274:	08 14       	.word	0x1408;	????	
    e276:	63 07       	.word	0x0763;	????	
    e278:	08 70       	subc	r0,	r8	
    e27a:	08 07       	.word	0x0708;	????	
    e27c:	61 51       	add.b	@r1,	r1	
    e27e:	49 45       	mov.b	r5,	r9	
    e280:	43 00       	.word	0x0043;	????	
    e282:	7f 41       	pop.b	r15		
    e284:	41 00       	.word	0x0041;	????	
    e286:	02 04       	.word	0x0402;	????	
    e288:	08 10       	rrc	r8		
    e28a:	20 00       	.word	0x0020;	????	
    e28c:	41 41       	mov.b	r1,	r1	
    e28e:	7f 00       	.word	0x007f;	????	
    e290:	04 02       	.word	0x0204;	????	
    e292:	01 02       	.word	0x0201;	????	
    e294:	04 40       	mov	r0,	r4	
    e296:	40 40       	br	r0		
    e298:	40 40       	br	r0		
    e29a:	00 01       	.word	0x0100;	????	
    e29c:	02 04       	.word	0x0402;	????	
    e29e:	00 20       	jnz	$+2      	;abs 0xe2a0
    e2a0:	54 54 54 78 	add.b	30804(r4),r4	;0x7854(r4)
    e2a4:	7f 48       	mov.b	@r8+,	r15	
    e2a6:	44 44       	mov.b	r4,	r4	
    e2a8:	38 38       	jl	$+114    	;abs 0xe31a
    e2aa:	44 44       	mov.b	r4,	r4	
    e2ac:	44 20       	jnz	$+138    	;abs 0xe336
    e2ae:	38 44       	mov	@r4+,	r8	
    e2b0:	44 48       	mov.b	r8,	r4	
    e2b2:	7f 38       	jl	$+256    	;abs 0xe3b2
    e2b4:	54 54 54 18 	add.b	6228(r4),r4	;0x1854(r4)
    e2b8:	08 7e       	subc	r14,	r8	
    e2ba:	09 01       	.word	0x0109;	????	
    e2bc:	02 0c       	.word	0x0c02;	????	
    e2be:	52 52 52 3e 	add.b	&0x3e52,r2	
    e2c2:	7f 08       	.word	0x087f;	????	
    e2c4:	04 04       	.word	0x0404;	????	
    e2c6:	78 00       	.word	0x0078;	????	
    e2c8:	44 7d       	subc.b	r13,	r4	
    e2ca:	40 00       	.word	0x0040;	????	
    e2cc:	20 40       	br	@r0		
    e2ce:	44 3d       	jmp	$+650    	;abs 0xe558
    e2d0:	00 7f       	subc	r15,	r0	
    e2d2:	10 28       	jnc	$+34     	;abs 0xe2f4
    e2d4:	44 00       	.word	0x0044;	????	
    e2d6:	00 41       	br	r1		
    e2d8:	7f 40 00 7c 	mov.b	#31744,	r15	;#0x7c00
    e2dc:	04 18       	.word	0x1804;	????	
    e2de:	04 78       	subc	r8,	r4	
    e2e0:	7c 08       	.word	0x087c;	????	
    e2e2:	04 04       	.word	0x0404;	????	
    e2e4:	78 38       	jl	$+242    	;abs 0xe3d6
    e2e6:	44 44       	mov.b	r4,	r4	
    e2e8:	44 38       	jl	$+138    	;abs 0xe372
    e2ea:	7c 14       	.word	0x147c;	????	
    e2ec:	14 14       	.word	0x1414;	????	
    e2ee:	08 08       	.word	0x0808;	????	
    e2f0:	14 14       	.word	0x1414;	????	
    e2f2:	18 7c 7c 08 	subc	2172(r12),r8	;0x087c(r12)
    e2f6:	04 04       	.word	0x0404;	????	
    e2f8:	08 48       	mov	r8,	r8	
    e2fa:	54 54 54 20 	add.b	8276(r4),r4	;0x2054(r4)
    e2fe:	04 3f       	jmp	$-502    	;abs 0xe108
    e300:	44 40       	mov.b	r0,	r4	
    e302:	20 3c       	jmp	$+66     	;abs 0xe344
    e304:	40 40       	br	r0		
    e306:	20 7c       	subc	@r12,	r0	
    e308:	1c 20       	jnz	$+58     	;abs 0xe342
    e30a:	40 20       	jnz	$+130    	;abs 0xe38c
    e30c:	1c 3c       	jmp	$+58     	;abs 0xe346
    e30e:	40 30       	jn	$+130    	;abs 0xe390
    e310:	40 3c       	jmp	$+130    	;abs 0xe392
    e312:	44 28       	jnc	$+138    	;abs 0xe39c
    e314:	10 28       	jnc	$+34     	;abs 0xe336
    e316:	44 0c       	.word	0x0c44;	????	
    e318:	50 50 50 3c 	add.b	0x3c50,	r0	;PC rel. 0x11f6c
    e31c:	44 64       	rlc.b	r4		
    e31e:	54 4c 44 00 	mov.b	68(r12),r4	;0x0044(r12)
    e322:	00 36       	jge	$-1022   	;abs 0xdf24
    e324:	41 00       	.word	0x0041;	????	
    e326:	00 00       	.word	0x0000;	????	
    e328:	7f 00       	.word	0x007f;	????	
    e32a:	00 00       	.word	0x0000;	????	
    e32c:	41 36       	jge	$-892    	;abs 0xdfb0
    e32e:	08 00       	.word	0x0008;	????	
    e330:	10 08       	.word	0x0810;	????	
    e332:	08 10       	rrc	r8		
    e334:	08 78       	subc	r8,	r8	
    e336:	46 41       	mov.b	r1,	r6	
    e338:	46 78       	subc.b	r8,	r6	

0000e33a <lcd_setcolor>:
    e33a:	4d 4f       	mov.b	r15,	r13	
    e33c:	c2 4e 02 02 	mov.b	r14,	&0x0202	
    e340:	c2 4d 03 02 	mov.b	r13,	&0x0203	
    e344:	30 41       	ret			

0000e346 <n6100_send>:
    e346:	0b 12       	push	r11		
    e348:	4b 4f       	mov.b	r15,	r11	
    e34a:	7c 40 80 ff 	mov.b	#-128,	r12	;#0xff80
    e34e:	6e 93       	cmp.b	#2,	r14	;r3 As==10
    e350:	24 28       	jnc	$+74     	;abs 0xe39a
    e352:	e2 c3 19 00 	bic.b	#2,	&0x0019	;r3 As==10
    e356:	d2 c3 19 00 	bic.b	#1,	&0x0019	;r3 As==01
    e35a:	f2 d2 19 00 	bis.b	#8,	&0x0019	;r2 As==11
    e35e:	f2 c2 19 00 	bic.b	#8,	&0x0019	;r2 As==11
    e362:	4d 43       	clr.b	r13		
    e364:	4f 4b       	mov.b	r11,	r15	
    e366:	4f fc       	and.b	r12,	r15	
    e368:	15 24       	jz	$+44     	;abs 0xe394
    e36a:	e2 d3 19 00 	bis.b	#2,	&0x0019	;r3 As==10
    e36e:	f2 d2 19 00 	bis.b	#8,	&0x0019	;r2 As==11
    e372:	f2 c2 19 00 	bic.b	#8,	&0x0019	;r2 As==11
    e376:	12 c3       	clrc			
    e378:	4c 10       	rrc.b	r12		
    e37a:	5d 53       	inc.b	r13		
    e37c:	7d 92       	cmp.b	#8,	r13	;r2 As==11
    e37e:	f2 2b       	jnc	$-26     	;abs 0xe364
    e380:	5e 93       	cmp.b	#1,	r14	;r3 As==01
    e382:	0e 24       	jz	$+30     	;abs 0xe3a0
    e384:	7e 90 03 00 	cmp.b	#3,	r14	;#0x0003
    e388:	0b 24       	jz	$+24     	;abs 0xe3a0
    e38a:	e2 c3 19 00 	bic.b	#2,	&0x0019	;r3 As==10
    e38e:	d2 d3 19 00 	bis.b	#1,	&0x0019	;r3 As==01
    e392:	06 3c       	jmp	$+14     	;abs 0xe3a0
    e394:	e2 c3 19 00 	bic.b	#2,	&0x0019	;r3 As==10
    e398:	ea 3f       	jmp	$-42     	;abs 0xe36e
    e39a:	e2 d3 19 00 	bis.b	#2,	&0x0019	;r3 As==10
    e39e:	db 3f       	jmp	$-72     	;abs 0xe356
    e3a0:	3b 41       	pop	r11		
    e3a2:	30 41       	ret			

0000e3a4 <lcd_init>:
    e3a4:	0b 12       	push	r11		
    e3a6:	4b 4f       	mov.b	r15,	r11	
    e3a8:	d2 d3 19 00 	bis.b	#1,	&0x0019	;r3 As==01
    e3ac:	e2 c3 19 00 	bic.b	#2,	&0x0019	;r3 As==10
    e3b0:	f2 c2 19 00 	bic.b	#8,	&0x0019	;r2 As==11
    e3b4:	e2 c2 19 00 	bic.b	#4,	&0x0019	;r2 As==10
    e3b8:	3f 40 14 00 	mov	#20,	r15	;#0x0014
    e3bc:	b0 12 ce eb 	call	#0xebce	
    e3c0:	e2 d2 19 00 	bis.b	#4,	&0x0019	;r2 As==10
    e3c4:	3f 40 14 00 	mov	#20,	r15	;#0x0014
    e3c8:	b0 12 ce eb 	call	#0xebce	
    e3cc:	6e 43       	mov.b	#2,	r14	;r3 As==10
    e3ce:	7f 40 11 00 	mov.b	#17,	r15	;#0x0011
    e3d2:	b0 12 46 e3 	call	#0xe346	
    e3d6:	7e 40 40 00 	mov.b	#64,	r14	;#0x0040
    e3da:	7f 40 25 00 	mov.b	#37,	r15	;#0x0025
    e3de:	b0 12 08 e5 	call	#0xe508	
    e3e2:	6e 43       	mov.b	#2,	r14	;r3 As==10
    e3e4:	7f 40 29 00 	mov.b	#41,	r15	;#0x0029
    e3e8:	b0 12 46 e3 	call	#0xe346	
    e3ec:	6e 43       	mov.b	#2,	r14	;r3 As==10
    e3ee:	7f 40 03 00 	mov.b	#3,	r15	;#0x0003
    e3f2:	b0 12 46 e3 	call	#0xe346	
    e3f6:	3f 40 0a 00 	mov	#10,	r15	;#0x000a
    e3fa:	b0 12 ce eb 	call	#0xebce	
    e3fe:	6e 43       	mov.b	#2,	r14	;r3 As==10
    e400:	7f 40 3a 00 	mov.b	#58,	r15	;#0x003a
    e404:	b0 12 08 e5 	call	#0xe508	
    e408:	6e 43       	mov.b	#2,	r14	;r3 As==10
    e40a:	7f 40 2d 00 	mov.b	#45,	r15	;#0x002d
    e40e:	b0 12 46 e3 	call	#0xe346	
    e412:	4e 43       	clr.b	r14		
    e414:	4f 43       	clr.b	r15		
    e416:	b0 12 46 e3 	call	#0xe346	
    e41a:	4e 43       	clr.b	r14		
    e41c:	6f 43       	mov.b	#2,	r15	;r3 As==10
    e41e:	b0 12 46 e3 	call	#0xe346	
    e422:	4e 43       	clr.b	r14		
    e424:	7f 40 05 00 	mov.b	#5,	r15	;#0x0005
    e428:	b0 12 46 e3 	call	#0xe346	
    e42c:	4e 43       	clr.b	r14		
    e42e:	7f 40 07 00 	mov.b	#7,	r15	;#0x0007
    e432:	b0 12 46 e3 	call	#0xe346	
    e436:	4e 43       	clr.b	r14		
    e438:	7f 40 09 00 	mov.b	#9,	r15	;#0x0009
    e43c:	b0 12 46 e3 	call	#0xe346	
    e440:	4e 43       	clr.b	r14		
    e442:	7f 40 0b 00 	mov.b	#11,	r15	;#0x000b
    e446:	b0 12 46 e3 	call	#0xe346	
    e44a:	4e 43       	clr.b	r14		
    e44c:	7f 40 0d 00 	mov.b	#13,	r15	;#0x000d
    e450:	b0 12 46 e3 	call	#0xe346	
    e454:	4e 43       	clr.b	r14		
    e456:	7f 40 0f 00 	mov.b	#15,	r15	;#0x000f
    e45a:	b0 12 46 e3 	call	#0xe346	
    e45e:	4e 43       	clr.b	r14		
    e460:	4f 43       	clr.b	r15		
    e462:	b0 12 46 e3 	call	#0xe346	
    e466:	4e 43       	clr.b	r14		
    e468:	6f 43       	mov.b	#2,	r15	;r3 As==10
    e46a:	b0 12 46 e3 	call	#0xe346	
    e46e:	4e 43       	clr.b	r14		
    e470:	7f 40 05 00 	mov.b	#5,	r15	;#0x0005
    e474:	b0 12 46 e3 	call	#0xe346	
    e478:	4e 43       	clr.b	r14		
    e47a:	7f 40 07 00 	mov.b	#7,	r15	;#0x0007
    e47e:	b0 12 46 e3 	call	#0xe346	
    e482:	4e 43       	clr.b	r14		
    e484:	7f 40 09 00 	mov.b	#9,	r15	;#0x0009
    e488:	b0 12 46 e3 	call	#0xe346	
    e48c:	4e 43       	clr.b	r14		
    e48e:	7f 40 0b 00 	mov.b	#11,	r15	;#0x000b
    e492:	b0 12 46 e3 	call	#0xe346	
    e496:	4e 43       	clr.b	r14		
    e498:	7f 40 0d 00 	mov.b	#13,	r15	;#0x000d
    e49c:	b0 12 46 e3 	call	#0xe346	
    e4a0:	4e 43       	clr.b	r14		
    e4a2:	7f 40 0f 00 	mov.b	#15,	r15	;#0x000f
    e4a6:	b0 12 46 e3 	call	#0xe346	
    e4aa:	4e 43       	clr.b	r14		
    e4ac:	4f 43       	clr.b	r15		
    e4ae:	b0 12 46 e3 	call	#0xe346	
    e4b2:	4e 43       	clr.b	r14		
    e4b4:	7f 40 05 00 	mov.b	#5,	r15	;#0x0005
    e4b8:	b0 12 46 e3 	call	#0xe346	
    e4bc:	4e 43       	clr.b	r14		
    e4be:	7f 40 0b 00 	mov.b	#11,	r15	;#0x000b
    e4c2:	b0 12 46 e3 	call	#0xe346	
    e4c6:	4e 43       	clr.b	r14		
    e4c8:	7f 40 0f 00 	mov.b	#15,	r15	;#0x000f
    e4cc:	b0 12 46 e3 	call	#0xe346	
    e4d0:	4e 43       	clr.b	r14		
    e4d2:	7f 40 36 00 	mov.b	#54,	r15	;#0x0036
    e4d6:	b0 12 08 e5 	call	#0xe508	
    e4da:	4b 12       	push.b	r11		
    e4dc:	7c 40 84 ff 	mov.b	#-124,	r12	;#0xff84
    e4e0:	7d 40 84 ff 	mov.b	#-124,	r13	;#0xff84
    e4e4:	4e 43       	clr.b	r14		
    e4e6:	4f 43       	clr.b	r15		
    e4e8:	b0 12 46 e5 	call	#0xe546	
    e4ec:	21 53       	incd	r1		
    e4ee:	3b 41       	pop	r11		
    e4f0:	30 41       	ret			

0000e4f2 <lcd_clear>:
    e4f2:	4f 12       	push.b	r15		
    e4f4:	7c 40 84 ff 	mov.b	#-124,	r12	;#0xff84
    e4f8:	7d 40 84 ff 	mov.b	#-124,	r13	;#0xff84
    e4fc:	4e 43       	clr.b	r14		
    e4fe:	4f 43       	clr.b	r15		
    e500:	b0 12 46 e5 	call	#0xe546	
    e504:	21 53       	incd	r1		
    e506:	30 41       	ret			

0000e508 <n6100_sendcom1>:
    e508:	0b 12       	push	r11		
    e50a:	4b 4e       	mov.b	r14,	r11	
    e50c:	7e 40 03 00 	mov.b	#3,	r14	;#0x0003
    e510:	b0 12 46 e3 	call	#0xe346	
    e514:	4e 43       	clr.b	r14		
    e516:	4f 4b       	mov.b	r11,	r15	
    e518:	b0 12 46 e3 	call	#0xe346	
    e51c:	3b 41       	pop	r11		
    e51e:	30 41       	ret			

0000e520 <n6100_sendcom2>:
    e520:	0b 12       	push	r11		
    e522:	0a 12       	push	r10		
    e524:	4b 4e       	mov.b	r14,	r11	
    e526:	4a 4d       	mov.b	r13,	r10	
    e528:	7e 40 03 00 	mov.b	#3,	r14	;#0x0003
    e52c:	b0 12 46 e3 	call	#0xe346	
    e530:	5e 43       	mov.b	#1,	r14	;r3 As==01
    e532:	4f 4b       	mov.b	r11,	r15	
    e534:	b0 12 46 e3 	call	#0xe346	
    e538:	4e 43       	clr.b	r14		
    e53a:	4f 4a       	mov.b	r10,	r15	
    e53c:	b0 12 46 e3 	call	#0xe346	
    e540:	3a 41       	pop	r10		
    e542:	3b 41       	pop	r11		
    e544:	30 41       	ret			

0000e546 <lcd_fillrect>:
    e546:	0b 12       	push	r11		
    e548:	0a 12       	push	r10		
    e54a:	09 12       	push	r9		
    e54c:	08 12       	push	r8		
    e54e:	07 12       	push	r7		
    e550:	3b 40 0c 00 	mov	#12,	r11	;#0x000c
    e554:	0b 51       	add	r1,	r11	
    e556:	4a 4f       	mov.b	r15,	r10	
    e558:	49 4e       	mov.b	r14,	r9	
    e55a:	48 4d       	mov.b	r13,	r8	
    e55c:	47 4c       	mov.b	r12,	r7	
    e55e:	6b 4b       	mov.b	@r11,	r11	
    e560:	4f 5d       	add.b	r13,	r15	
    e562:	7f 53       	add.b	#-1,	r15	;r3 As==11
    e564:	4d 4f       	mov.b	r15,	r13	
    e566:	4e 4a       	mov.b	r10,	r14	
    e568:	7f 40 2a 00 	mov.b	#42,	r15	;#0x002a
    e56c:	b0 12 20 e5 	call	#0xe520	
    e570:	4f 49       	mov.b	r9,	r15	
    e572:	4f 57       	add.b	r7,	r15	
    e574:	7f 53       	add.b	#-1,	r15	;r3 As==11
    e576:	4d 4f       	mov.b	r15,	r13	
    e578:	4e 49       	mov.b	r9,	r14	
    e57a:	7f 40 2b 00 	mov.b	#43,	r15	;#0x002b
    e57e:	b0 12 20 e5 	call	#0xe520	
    e582:	7e 40 03 00 	mov.b	#3,	r14	;#0x0003
    e586:	7f 40 2c 00 	mov.b	#44,	r15	;#0x002c
    e58a:	b0 12 46 e3 	call	#0xe346	
    e58e:	4a 48       	mov.b	r8,	r10	
    e590:	4c 47       	mov.b	r7,	r12	
    e592:	b0 12 ec f1 	call	#0xf1ec	
    e596:	09 4e       	mov	r14,	r9	
    e598:	0a 43       	clr	r10		
    e59a:	0a 9e       	cmp	r14,	r10	
    e59c:	07 2c       	jc	$+16     	;abs 0xe5ac
    e59e:	5e 43       	mov.b	#1,	r14	;r3 As==01
    e5a0:	4f 4b       	mov.b	r11,	r15	
    e5a2:	b0 12 46 e3 	call	#0xe346	
    e5a6:	1a 53       	inc	r10		
    e5a8:	0a 99       	cmp	r9,	r10	
    e5aa:	f9 2b       	jnc	$-12     	;abs 0xe59e
    e5ac:	e2 c3 19 00 	bic.b	#2,	&0x0019	;r3 As==10
    e5b0:	d2 d3 19 00 	bis.b	#1,	&0x0019	;r3 As==01
    e5b4:	7d 40 83 ff 	mov.b	#-125,	r13	;#0xff83
    e5b8:	4e 43       	clr.b	r14		
    e5ba:	7f 40 2a 00 	mov.b	#42,	r15	;#0x002a
    e5be:	b0 12 20 e5 	call	#0xe520	
    e5c2:	7d 40 83 ff 	mov.b	#-125,	r13	;#0xff83
    e5c6:	4e 43       	clr.b	r14		
    e5c8:	7f 40 2b 00 	mov.b	#43,	r15	;#0x002b
    e5cc:	b0 12 20 e5 	call	#0xe520	
    e5d0:	37 41       	pop	r7		
    e5d2:	38 41       	pop	r8		
    e5d4:	39 41       	pop	r9		
    e5d6:	3a 41       	pop	r10		
    e5d8:	3b 41       	pop	r11		
    e5da:	30 41       	ret			

0000e5dc <lcd_drawcircle>:
    e5dc:	0b 12       	push	r11		
    e5de:	0a 12       	push	r10		
    e5e0:	09 12       	push	r9		
    e5e2:	08 12       	push	r8		
    e5e4:	07 12       	push	r7		
    e5e6:	06 12       	push	r6		
    e5e8:	05 12       	push	r5		
    e5ea:	04 12       	push	r4		
    e5ec:	31 82       	sub	#8,	r1	;r2 As==11
    e5ee:	3b 40 1a 00 	mov	#26,	r11	;#0x001a
    e5f2:	0b 51       	add	r1,	r11	
    e5f4:	04 4f       	mov	r15,	r4	
    e5f6:	05 4e       	mov	r14,	r5	
    e5f8:	46 4c       	mov.b	r12,	r6	
    e5fa:	28 4b       	mov	@r11,	r8	
    e5fc:	91 43 00 00 	mov	#1,	0(r1)	;r3 As==01, 0x0000(r1)
    e600:	81 8d 00 00 	sub	r13,	0(r1)	;0x0000(r1)
    e604:	81 43 02 00 	mov	#0,	2(r1)	;r3 As==00, 0x0002(r1)
    e608:	0e 4d       	mov	r13,	r14	
    e60a:	0e 5e       	rla	r14		
    e60c:	81 4e 04 00 	mov	r14,	4(r1)	;0x0004(r1)
    e610:	b1 e3 04 00 	xor	#-1,	4(r1)	;r3 As==11, 0x0004(r1)
    e614:	91 53 04 00 	inc	4(r1)		;0x0004(r1)
    e618:	81 43 06 00 	mov	#0,	6(r1)	;r3 As==00, 0x0006(r1)
    e61c:	07 4d       	mov	r13,	r7	
    e61e:	4f 45       	mov.b	r5,	r15	
    e620:	4f 5d       	add.b	r13,	r15	
    e622:	4c 12       	push.b	r12		
    e624:	4c 48       	mov.b	r8,	r12	
    e626:	4d 48       	mov.b	r8,	r13	
    e628:	4e 4f       	mov.b	r15,	r14	
    e62a:	4f 44       	mov.b	r4,	r15	
    e62c:	b0 12 46 e5 	call	#0xe546	
    e630:	4f 45       	mov.b	r5,	r15	
    e632:	4f 87       	sub.b	r7,	r15	
    e634:	46 12       	push.b	r6		
    e636:	4c 48       	mov.b	r8,	r12	
    e638:	4d 48       	mov.b	r8,	r13	
    e63a:	4e 4f       	mov.b	r15,	r14	
    e63c:	4f 44       	mov.b	r4,	r15	
    e63e:	b0 12 46 e5 	call	#0xe546	
    e642:	4f 44       	mov.b	r4,	r15	
    e644:	4f 57       	add.b	r7,	r15	
    e646:	46 12       	push.b	r6		
    e648:	4c 48       	mov.b	r8,	r12	
    e64a:	4d 48       	mov.b	r8,	r13	
    e64c:	4e 45       	mov.b	r5,	r14	
    e64e:	b0 12 46 e5 	call	#0xe546	
    e652:	4f 44       	mov.b	r4,	r15	
    e654:	4f 87       	sub.b	r7,	r15	
    e656:	46 12       	push.b	r6		
    e658:	4c 48       	mov.b	r8,	r12	
    e65a:	4d 48       	mov.b	r8,	r13	
    e65c:	4e 45       	mov.b	r5,	r14	
    e65e:	b0 12 46 e5 	call	#0xe546	
    e662:	31 52       	add	#8,	r1	;r2 As==11
    e664:	81 97 06 00 	cmp	r7,	6(r1)	;0x0006(r1)
    e668:	63 34       	jge	$+200    	;abs 0xe730
    e66a:	81 93 00 00 	tst	0(r1)		;0x0000(r1)
    e66e:	06 38       	jl	$+14     	;abs 0xe67c
    e670:	37 53       	add	#-1,	r7	;r3 As==11
    e672:	a1 53 04 00 	incd	4(r1)		;0x0004(r1)
    e676:	91 51 04 00 	add	4(r1),	0(r1)	;0x0004(r1), 0x0000(r1)
    e67a:	00 00 
    e67c:	91 53 06 00 	inc	6(r1)		;0x0006(r1)
    e680:	a1 53 02 00 	incd	2(r1)		;0x0002(r1)
    e684:	91 51 02 00 	add	2(r1),	0(r1)	;0x0002(r1), 0x0000(r1)
    e688:	00 00 
    e68a:	91 53 00 00 	inc	0(r1)		;0x0000(r1)
    e68e:	4b 45       	mov.b	r5,	r11	
    e690:	4b 57       	add.b	r7,	r11	
    e692:	59 41 06 00 	mov.b	6(r1),	r9	;0x0006(r1)
    e696:	49 54       	add.b	r4,	r9	
    e698:	46 12       	push.b	r6		
    e69a:	4c 48       	mov.b	r8,	r12	
    e69c:	4d 48       	mov.b	r8,	r13	
    e69e:	4e 4b       	mov.b	r11,	r14	
    e6a0:	4f 49       	mov.b	r9,	r15	
    e6a2:	b0 12 46 e5 	call	#0xe546	
    e6a6:	4a 44       	mov.b	r4,	r10	
    e6a8:	5a 81 08 00 	sub.b	8(r1),	r10	;0x0008(r1)
    e6ac:	46 12       	push.b	r6		
    e6ae:	4c 48       	mov.b	r8,	r12	
    e6b0:	4d 48       	mov.b	r8,	r13	
    e6b2:	4e 4b       	mov.b	r11,	r14	
    e6b4:	4f 4a       	mov.b	r10,	r15	
    e6b6:	b0 12 46 e5 	call	#0xe546	
    e6ba:	4b 45       	mov.b	r5,	r11	
    e6bc:	4b 87       	sub.b	r7,	r11	
    e6be:	46 12       	push.b	r6		
    e6c0:	4c 48       	mov.b	r8,	r12	
    e6c2:	4d 48       	mov.b	r8,	r13	
    e6c4:	4e 4b       	mov.b	r11,	r14	
    e6c6:	4f 49       	mov.b	r9,	r15	
    e6c8:	b0 12 46 e5 	call	#0xe546	
    e6cc:	46 12       	push.b	r6		
    e6ce:	4c 48       	mov.b	r8,	r12	
    e6d0:	4d 48       	mov.b	r8,	r13	
    e6d2:	4e 4b       	mov.b	r11,	r14	
    e6d4:	4f 4a       	mov.b	r10,	r15	
    e6d6:	b0 12 46 e5 	call	#0xe546	
    e6da:	4b 45       	mov.b	r5,	r11	
    e6dc:	5b 51 0e 00 	add.b	14(r1),	r11	;0x000e(r1)
    e6e0:	49 44       	mov.b	r4,	r9	
    e6e2:	49 57       	add.b	r7,	r9	
    e6e4:	46 12       	push.b	r6		
    e6e6:	4c 48       	mov.b	r8,	r12	
    e6e8:	4d 48       	mov.b	r8,	r13	
    e6ea:	4e 4b       	mov.b	r11,	r14	
    e6ec:	4f 49       	mov.b	r9,	r15	
    e6ee:	b0 12 46 e5 	call	#0xe546	
    e6f2:	4a 44       	mov.b	r4,	r10	
    e6f4:	4a 87       	sub.b	r7,	r10	
    e6f6:	46 12       	push.b	r6		
    e6f8:	4c 48       	mov.b	r8,	r12	
    e6fa:	4d 48       	mov.b	r8,	r13	
    e6fc:	4e 4b       	mov.b	r11,	r14	
    e6fe:	4f 4a       	mov.b	r10,	r15	
    e700:	b0 12 46 e5 	call	#0xe546	
    e704:	4b 45       	mov.b	r5,	r11	
    e706:	5b 81 12 00 	sub.b	18(r1),	r11	;0x0012(r1)
    e70a:	46 12       	push.b	r6		
    e70c:	4c 48       	mov.b	r8,	r12	
    e70e:	4d 48       	mov.b	r8,	r13	
    e710:	4e 4b       	mov.b	r11,	r14	
    e712:	4f 49       	mov.b	r9,	r15	
    e714:	b0 12 46 e5 	call	#0xe546	
    e718:	46 12       	push.b	r6		
    e71a:	4c 48       	mov.b	r8,	r12	
    e71c:	4d 48       	mov.b	r8,	r13	
    e71e:	4e 4b       	mov.b	r11,	r14	
    e720:	4f 4a       	mov.b	r10,	r15	
    e722:	b0 12 46 e5 	call	#0xe546	
    e726:	31 50 10 00 	add	#16,	r1	;#0x0010
    e72a:	81 97 06 00 	cmp	r7,	6(r1)	;0x0006(r1)
    e72e:	9d 3b       	jl	$-196    	;abs 0xe66a
    e730:	31 52       	add	#8,	r1	;r2 As==11
    e732:	34 41       	pop	r4		
    e734:	35 41       	pop	r5		
    e736:	36 41       	pop	r6		
    e738:	37 41       	pop	r7		
    e73a:	38 41       	pop	r8		
    e73c:	39 41       	pop	r9		
    e73e:	3a 41       	pop	r10		
    e740:	3b 41       	pop	r11		
    e742:	30 41       	ret			

0000e744 <lcd_drawline>:
    e744:	0b 12       	push	r11		
    e746:	0a 12       	push	r10		
    e748:	09 12       	push	r9		
    e74a:	08 12       	push	r8		
    e74c:	07 12       	push	r7		
    e74e:	06 12       	push	r6		
    e750:	05 12       	push	r5		
    e752:	04 12       	push	r4		
    e754:	31 80 06 00 	sub	#6,	r1	;#0x0006
    e758:	3b 40 18 00 	mov	#24,	r11	;#0x0018
    e75c:	0b 51       	add	r1,	r11	
    e75e:	07 4f       	mov	r15,	r7	
    e760:	08 4e       	mov	r14,	r8	
    e762:	04 4d       	mov	r13,	r4	
    e764:	05 4c       	mov	r12,	r5	
    e766:	a1 4b 00 00 	mov	@r11,	0(r1)	;0x0000(r1)
    e76a:	16 4b 02 00 	mov	2(r11),	r6	;0x0002(r11)
    e76e:	09 4c       	mov	r12,	r9	
    e770:	09 8e       	sub	r14,	r9	
    e772:	0a 4d       	mov	r13,	r10	
    e774:	0a 8f       	sub	r15,	r10	
    e776:	09 93       	tst	r9		
    e778:	4c 38       	jl	$+154    	;abs 0xe812
    e77a:	91 43 04 00 	mov	#1,	4(r1)	;r3 As==01, 0x0004(r1)
    e77e:	0a 93       	tst	r10		
    e780:	43 38       	jl	$+136    	;abs 0xe808
    e782:	91 43 02 00 	mov	#1,	2(r1)	;r3 As==01, 0x0002(r1)
    e786:	09 59       	rla	r9		
    e788:	0a 5a       	rla	r10		
    e78a:	51 12 02 00 	push.b	2(r1)		;0x0002(r1)
    e78e:	4c 46       	mov.b	r6,	r12	
    e790:	4d 46       	mov.b	r6,	r13	
    e792:	4e 48       	mov.b	r8,	r14	
    e794:	4f 47       	mov.b	r7,	r15	
    e796:	b0 12 46 e5 	call	#0xe546	
    e79a:	21 53       	incd	r1		
    e79c:	09 9a       	cmp	r10,	r9	
    e79e:	1a 34       	jge	$+54     	;abs 0xe7d4
    e7a0:	0f 4a       	mov	r10,	r15	
    e7a2:	0f 11       	rra	r15		
    e7a4:	0b 49       	mov	r9,	r11	
    e7a6:	0b 8f       	sub	r15,	r11	
    e7a8:	07 94       	cmp	r4,	r7	
    e7aa:	38 24       	jz	$+114    	;abs 0xe81c
    e7ac:	0b 93       	tst	r11		
    e7ae:	03 38       	jl	$+8      	;abs 0xe7b6
    e7b0:	18 51 04 00 	add	4(r1),	r8	;0x0004(r1)
    e7b4:	0b 8a       	sub	r10,	r11	
    e7b6:	17 51 02 00 	add	2(r1),	r7	;0x0002(r1)
    e7ba:	0b 59       	add	r9,	r11	
    e7bc:	51 12 02 00 	push.b	2(r1)		;0x0002(r1)
    e7c0:	4c 46       	mov.b	r6,	r12	
    e7c2:	4d 46       	mov.b	r6,	r13	
    e7c4:	4e 48       	mov.b	r8,	r14	
    e7c6:	4f 47       	mov.b	r7,	r15	
    e7c8:	b0 12 46 e5 	call	#0xe546	
    e7cc:	21 53       	incd	r1		
    e7ce:	07 94       	cmp	r4,	r7	
    e7d0:	ed 23       	jnz	$-36     	;abs 0xe7ac
    e7d2:	24 3c       	jmp	$+74     	;abs 0xe81c
    e7d4:	0f 49       	mov	r9,	r15	
    e7d6:	0f 11       	rra	r15		
    e7d8:	0b 4a       	mov	r10,	r11	
    e7da:	0b 8f       	sub	r15,	r11	
    e7dc:	08 95       	cmp	r5,	r8	
    e7de:	1e 24       	jz	$+62     	;abs 0xe81c
    e7e0:	0b 93       	tst	r11		
    e7e2:	03 38       	jl	$+8      	;abs 0xe7ea
    e7e4:	17 51 02 00 	add	2(r1),	r7	;0x0002(r1)
    e7e8:	0b 89       	sub	r9,	r11	
    e7ea:	18 51 04 00 	add	4(r1),	r8	;0x0004(r1)
    e7ee:	0b 5a       	add	r10,	r11	
    e7f0:	51 12 02 00 	push.b	2(r1)		;0x0002(r1)
    e7f4:	4c 46       	mov.b	r6,	r12	
    e7f6:	4d 46       	mov.b	r6,	r13	
    e7f8:	4e 48       	mov.b	r8,	r14	
    e7fa:	4f 47       	mov.b	r7,	r15	
    e7fc:	b0 12 46 e5 	call	#0xe546	
    e800:	21 53       	incd	r1		
    e802:	08 95       	cmp	r5,	r8	
    e804:	ed 23       	jnz	$-36     	;abs 0xe7e0
    e806:	0a 3c       	jmp	$+22     	;abs 0xe81c
    e808:	3a e3       	inv	r10		
    e80a:	1a 53       	inc	r10		
    e80c:	b1 43 02 00 	mov	#-1,	2(r1)	;r3 As==11, 0x0002(r1)
    e810:	ba 3f       	jmp	$-138    	;abs 0xe786
    e812:	39 e3       	inv	r9		
    e814:	19 53       	inc	r9		
    e816:	b1 43 04 00 	mov	#-1,	4(r1)	;r3 As==11, 0x0004(r1)
    e81a:	b1 3f       	jmp	$-156    	;abs 0xe77e
    e81c:	31 50 06 00 	add	#6,	r1	;#0x0006
    e820:	34 41       	pop	r4		
    e822:	35 41       	pop	r5		
    e824:	36 41       	pop	r6		
    e826:	37 41       	pop	r7		
    e828:	38 41       	pop	r8		
    e82a:	39 41       	pop	r9		
    e82c:	3a 41       	pop	r10		
    e82e:	3b 41       	pop	r11		
    e830:	30 41       	ret			

0000e832 <lcd_putlogo>:
    e832:	0b 12       	push	r11		
    e834:	0a 12       	push	r10		
    e836:	09 12       	push	r9		
    e838:	08 12       	push	r8		
    e83a:	07 12       	push	r7		
    e83c:	3b 40 0c 00 	mov	#12,	r11	;#0x000c
    e840:	0b 51       	add	r1,	r11	
    e842:	4a 4f       	mov.b	r15,	r10	
    e844:	49 4e       	mov.b	r14,	r9	
    e846:	48 4d       	mov.b	r13,	r8	
    e848:	47 4c       	mov.b	r12,	r7	
    e84a:	2b 4b       	mov	@r11,	r11	
    e84c:	4f 5d       	add.b	r13,	r15	
    e84e:	7f 53       	add.b	#-1,	r15	;r3 As==11
    e850:	4d 4f       	mov.b	r15,	r13	
    e852:	4e 4a       	mov.b	r10,	r14	
    e854:	7f 40 2a 00 	mov.b	#42,	r15	;#0x002a
    e858:	b0 12 20 e5 	call	#0xe520	
    e85c:	4f 49       	mov.b	r9,	r15	
    e85e:	4f 57       	add.b	r7,	r15	
    e860:	7f 53       	add.b	#-1,	r15	;r3 As==11
    e862:	4d 4f       	mov.b	r15,	r13	
    e864:	4e 49       	mov.b	r9,	r14	
    e866:	7f 40 2b 00 	mov.b	#43,	r15	;#0x002b
    e86a:	b0 12 20 e5 	call	#0xe520	
    e86e:	7e 40 03 00 	mov.b	#3,	r14	;#0x0003
    e872:	7f 40 2c 00 	mov.b	#44,	r15	;#0x002c
    e876:	b0 12 46 e3 	call	#0xe346	
    e87a:	4a 48       	mov.b	r8,	r10	
    e87c:	4c 47       	mov.b	r7,	r12	
    e87e:	b0 12 ec f1 	call	#0xf1ec	
    e882:	09 4e       	mov	r14,	r9	
    e884:	0a 43       	clr	r10		
    e886:	0a 9e       	cmp	r14,	r10	
    e888:	09 2c       	jc	$+20     	;abs 0xe89c
    e88a:	0f 4b       	mov	r11,	r15	
    e88c:	0f 5a       	add	r10,	r15	
    e88e:	5e 43       	mov.b	#1,	r14	;r3 As==01
    e890:	6f 4f       	mov.b	@r15,	r15	
    e892:	b0 12 46 e3 	call	#0xe346	
    e896:	1a 53       	inc	r10		
    e898:	0a 99       	cmp	r9,	r10	
    e89a:	f7 2b       	jnc	$-16     	;abs 0xe88a
    e89c:	e2 c3 19 00 	bic.b	#2,	&0x0019	;r3 As==10
    e8a0:	d2 d3 19 00 	bis.b	#1,	&0x0019	;r3 As==01
    e8a4:	7d 40 83 ff 	mov.b	#-125,	r13	;#0xff83
    e8a8:	4e 43       	clr.b	r14		
    e8aa:	7f 40 2a 00 	mov.b	#42,	r15	;#0x002a
    e8ae:	b0 12 20 e5 	call	#0xe520	
    e8b2:	7d 40 83 ff 	mov.b	#-125,	r13	;#0xff83
    e8b6:	4e 43       	clr.b	r14		
    e8b8:	7f 40 2b 00 	mov.b	#43,	r15	;#0x002b
    e8bc:	b0 12 20 e5 	call	#0xe520	
    e8c0:	37 41       	pop	r7		
    e8c2:	38 41       	pop	r8		
    e8c4:	39 41       	pop	r9		
    e8c6:	3a 41       	pop	r10		
    e8c8:	3b 41       	pop	r11		
    e8ca:	30 41       	ret			

0000e8cc <lcd_newline>:
    e8cc:	d2 53 00 02 	inc.b	&0x0200	
    e8d0:	f2 90 10 00 	cmp.b	#16,	&0x0200	;#0x0010
    e8d4:	00 02 
    e8d6:	02 20       	jnz	$+6      	;abs 0xe8dc
    e8d8:	c2 43 00 02 	mov.b	#0,	&0x0200	;r3 As==00
    e8dc:	c2 43 01 02 	mov.b	#0,	&0x0201	;r3 As==00
    e8e0:	30 41       	ret			

0000e8e2 <lcd_goto>:
    e8e2:	7f 90 15 00 	cmp.b	#21,	r15	;#0x0015
    e8e6:	01 28       	jnc	$+4      	;abs 0xe8ea
    e8e8:	4f 43       	clr.b	r15		
    e8ea:	7e 90 10 00 	cmp.b	#16,	r14	;#0x0010
    e8ee:	01 28       	jnc	$+4      	;abs 0xe8f2
    e8f0:	4e 43       	clr.b	r14		
    e8f2:	c2 4f 01 02 	mov.b	r15,	&0x0201	
    e8f6:	c2 4e 00 02 	mov.b	r14,	&0x0200	
    e8fa:	30 41       	ret			

0000e8fc <lcd_wrchar>:
    e8fc:	0b 12       	push	r11		
    e8fe:	0a 12       	push	r10		
    e900:	09 12       	push	r9		
    e902:	08 12       	push	r8		
    e904:	07 12       	push	r7		
    e906:	47 4f       	mov.b	r15,	r7	
    e908:	5f 42 01 02 	mov.b	&0x0201,r15	
    e90c:	4e 4f       	mov.b	r15,	r14	
    e90e:	0e 5e       	rla	r14		
    e910:	0e 5e       	rla	r14		
    e912:	0f 5f       	rla	r15		
    e914:	0e 5f       	add	r15,	r14	
    e916:	4b 4e       	mov.b	r14,	r11	
    e918:	7b 50 05 00 	add.b	#5,	r11	;#0x0005
    e91c:	4d 4b       	mov.b	r11,	r13	
    e91e:	7f 40 2a 00 	mov.b	#42,	r15	;#0x002a
    e922:	b0 12 20 e5 	call	#0xe520	
    e926:	5f 42 00 02 	mov.b	&0x0200,r15	
    e92a:	0f 5f       	rla	r15		
    e92c:	0f 5f       	rla	r15		
    e92e:	0f 5f       	rla	r15		
    e930:	4b 4f       	mov.b	r15,	r11	
    e932:	6b 53       	incd.b	r11		
    e934:	7f 50 09 00 	add.b	#9,	r15	;#0x0009
    e938:	4d 4f       	mov.b	r15,	r13	
    e93a:	4e 4b       	mov.b	r11,	r14	
    e93c:	7f 40 2b 00 	mov.b	#43,	r15	;#0x002b
    e940:	b0 12 20 e5 	call	#0xe520	
    e944:	58 43       	mov.b	#1,	r8	;r3 As==01
    e946:	6e 43       	mov.b	#2,	r14	;r3 As==10
    e948:	7f 40 2c 00 	mov.b	#44,	r15	;#0x002c
    e94c:	b0 12 46 e3 	call	#0xe346	
    e950:	49 43       	clr.b	r9		
    e952:	4a 47       	mov.b	r7,	r10	
    e954:	0a 5a       	rla	r10		
    e956:	4f 47       	mov.b	r7,	r15	
    e958:	0a 5f       	add	r15,	r10	
    e95a:	0a 5f       	add	r15,	r10	
    e95c:	0a 5f       	add	r15,	r10	
    e95e:	4b 43       	clr.b	r11		
    e960:	3a 50 ba e0 	add	#-8006,	r10	;#0xe0ba
    e964:	6f 4a       	mov.b	@r10,	r15	
    e966:	1a 53       	inc	r10		
    e968:	4f f8       	and.b	r8,	r15	
    e96a:	0a 24       	jz	$+22     	;abs 0xe980
    e96c:	4e 43       	clr.b	r14		
    e96e:	5f 42 03 02 	mov.b	&0x0203,r15	
    e972:	b0 12 46 e3 	call	#0xe346	
    e976:	5b 53       	inc.b	r11		
    e978:	7b 90 05 00 	cmp.b	#5,	r11	;#0x0005
    e97c:	f3 2b       	jnc	$-24     	;abs 0xe964
    e97e:	04 3c       	jmp	$+10     	;abs 0xe988
    e980:	4e 43       	clr.b	r14		
    e982:	5f 42 02 02 	mov.b	&0x0202,r15	
    e986:	f5 3f       	jmp	$-20     	;abs 0xe972
    e988:	4e 43       	clr.b	r14		
    e98a:	5f 42 02 02 	mov.b	&0x0202,r15	
    e98e:	b0 12 46 e3 	call	#0xe346	
    e992:	48 58       	rla.b	r8		
    e994:	59 53       	inc.b	r9		
    e996:	79 92       	cmp.b	#8,	r9	;r2 As==11
    e998:	dc 2b       	jnc	$-70     	;abs 0xe952
    e99a:	37 41       	pop	r7		
    e99c:	38 41       	pop	r8		
    e99e:	39 41       	pop	r9		
    e9a0:	3a 41       	pop	r10		
    e9a2:	3b 41       	pop	r11		
    e9a4:	30 41       	ret			

0000e9a6 <lcd_putchar>:
    e9a6:	0b 12       	push	r11		
    e9a8:	4b 4f       	mov.b	r15,	r11	
    e9aa:	7f f3       	and.b	#-1,	r15	;r3 As==11
    e9ac:	3f 90 0a 00 	cmp	#10,	r15	;#0x000a
    e9b0:	19 24       	jz	$+52     	;abs 0xe9e4
    e9b2:	3f 90 0d 00 	cmp	#13,	r15	;#0x000d
    e9b6:	13 24       	jz	$+40     	;abs 0xe9de
    e9b8:	5f 42 01 02 	mov.b	&0x0201,r15	
    e9bc:	d2 53 01 02 	inc.b	&0x0201	
    e9c0:	7f 90 15 00 	cmp.b	#21,	r15	;#0x0015
    e9c4:	04 2c       	jc	$+10     	;abs 0xe9ce
    e9c6:	4f 4b       	mov.b	r11,	r15	
    e9c8:	b0 12 fc e8 	call	#0xe8fc	
    e9cc:	0d 3c       	jmp	$+28     	;abs 0xe9e8
    e9ce:	b0 12 cc e8 	call	#0xe8cc	
    e9d2:	4f 4b       	mov.b	r11,	r15	
    e9d4:	b0 12 fc e8 	call	#0xe8fc	
    e9d8:	d2 53 01 02 	inc.b	&0x0201	
    e9dc:	05 3c       	jmp	$+12     	;abs 0xe9e8
    e9de:	c2 43 01 02 	mov.b	#0,	&0x0201	;r3 As==00
    e9e2:	02 3c       	jmp	$+6      	;abs 0xe9e8
    e9e4:	b0 12 cc e8 	call	#0xe8cc	
    e9e8:	3b 41       	pop	r11		
    e9ea:	30 41       	ret			

0000e9ec <ppm_init>:
    e9ec:	f2 f0 1f 00 	and.b	#31,	&0x0021	;#0x001f
    e9f0:	21 00 
    e9f2:	f2 f0 1f 00 	and.b	#31,	&0x0026	;#0x001f
    e9f6:	26 00 
    e9f8:	c2 43 23 00 	mov.b	#0,	&0x0023	;r3 As==00
    e9fc:	f2 f0 1f 00 	and.b	#31,	&0x0024	;#0x001f
    ea00:	24 00 
    ea02:	f2 d0 e0 ff 	bis.b	#-32,	&0x0025	;#0xffe0
    ea06:	25 00 
    ea08:	f2 f0 f8 ff 	and.b	#-8,	&0x0029	;#0xfff8
    ea0c:	29 00 
    ea0e:	f2 f0 f8 ff 	and.b	#-8,	&0x002e	;#0xfff8
    ea12:	2e 00 
    ea14:	c2 43 2b 00 	mov.b	#0,	&0x002b	;r3 As==00
    ea18:	f2 f0 f8 ff 	and.b	#-8,	&0x002c	;#0xfff8
    ea1c:	2c 00 
    ea1e:	f2 d0 07 00 	bis.b	#7,	&0x002d	;#0x0007
    ea22:	2d 00 
    ea24:	30 41       	ret			

0000ea26 <PPM_refresh_channel>:
    ea26:	0b 12       	push	r11		
    ea28:	0a 12       	push	r10		
    ea2a:	0f 5f       	rla	r15		
    ea2c:	1b 4f 04 02 	mov	516(r15),r11	;0x0204(r15)
    ea30:	0e 9b       	cmp	r11,	r14	
    ea32:	18 2c       	jc	$+50     	;abs 0xea64
    ea34:	0a 4f       	mov	r15,	r10	
    ea36:	0a 5a       	rla	r10		
    ea38:	3a 50 10 02 	add	#528,	r10	;#0x0210
    ea3c:	1f 42 92 01 	mov	&0x0192,r15	
    ea40:	0f 8b       	sub	r11,	r15	
    ea42:	0b 4f       	mov	r15,	r11	
    ea44:	0b 5e       	add	r14,	r11	
    ea46:	0e 4b       	mov	r11,	r14	
    ea48:	0f 4e       	mov	r14,	r15	
    ea4a:	0f 5f       	rla	r15		
    ea4c:	0f 7f       	subc	r15,	r15	
    ea4e:	3f e3       	inv	r15		
    ea50:	b0 12 ac ee 	call	#0xeeac	
    ea54:	0b 93       	tst	r11		
    ea56:	0d 34       	jge	$+28     	;abs 0xea72
    ea58:	0c 43       	clr	r12		
    ea5a:	3d 40 80 47 	mov	#18304,	r13	;#0x4780
    ea5e:	b0 12 10 ee 	call	#0xee10	
    ea62:	07 3c       	jmp	$+16     	;abs 0xea72
    ea64:	0a 4f       	mov	r15,	r10	
    ea66:	0a 5a       	rla	r10		
    ea68:	3a 50 10 02 	add	#528,	r10	;#0x0210
    ea6c:	0e 8b       	sub	r11,	r14	
    ea6e:	0b 4e       	mov	r14,	r11	
    ea70:	ea 3f       	jmp	$-42     	;abs 0xea46
    ea72:	8a 4e 00 00 	mov	r14,	0(r10)	;0x0000(r10)
    ea76:	8a 4f 02 00 	mov	r15,	2(r10)	;0x0002(r10)
    ea7a:	82 43 28 02 	mov	#0,	&0x0228	;r3 As==00
    ea7e:	3a 41       	pop	r10		
    ea80:	3b 41       	pop	r11		
    ea82:	30 41       	ret			

0000ea84 <PORT1_ISR_HOOK>:
    ea84:	0f 12       	push	r15		
    ea86:	0e 12       	push	r14		
    ea88:	0d 12       	push	r13		
    ea8a:	0c 12       	push	r12		
    ea8c:	0b 12       	push	r11		
    ea8e:	0a 12       	push	r10		
    ea90:	1a 42 90 01 	mov	&0x0190,r10	
    ea94:	0b 43       	clr	r11		
    ea96:	b2 40 20 00 	mov	#32,	&0x022a	;#0x0020
    ea9a:	2a 02 
    ea9c:	5e 42 2a 02 	mov.b	&0x022a,r14	
    eaa0:	5f 42 23 00 	mov.b	&0x0023,r15	
    eaa4:	4f fe       	and.b	r14,	r15	
    eaa6:	7f f0 e0 ff 	and.b	#-32,	r15	;#0xffe0
    eaaa:	20 24       	jz	$+66     	;abs 0xeaec
    eaac:	5f 42 24 00 	mov.b	&0x0024,r15	
    eab0:	4f fe       	and.b	r14,	r15	
    eab2:	7f f0 e0 ff 	and.b	#-32,	r15	;#0xffe0
    eab6:	0f 20       	jnz	$+32     	;abs 0xead6
    eab8:	0f 4b       	mov	r11,	r15	
    eaba:	0f 5f       	rla	r15		
    eabc:	8f 4a 04 02 	mov	r10,	516(r15);0x0204(r15)
    eac0:	7e f0 e0 ff 	and.b	#-32,	r14	;#0xffe0
    eac4:	c2 de 24 00 	bis.b	r14,	&0x0024	
    eac8:	5f 42 2a 02 	mov.b	&0x022a,r15	
    eacc:	7f f0 e0 ff 	and.b	#-32,	r15	;#0xffe0
    ead0:	c2 cf 23 00 	bic.b	r15,	&0x0023	
    ead4:	0b 3c       	jmp	$+24     	;abs 0xeaec
    ead6:	0e 4a       	mov	r10,	r14	
    ead8:	0f 4b       	mov	r11,	r15	
    eada:	b0 12 26 ea 	call	#0xea26	
    eade:	5f 42 2a 02 	mov.b	&0x022a,r15	
    eae2:	7f f0 e0 ff 	and.b	#-32,	r15	;#0xffe0
    eae6:	c2 cf 24 00 	bic.b	r15,	&0x0024	
    eaea:	ee 3f       	jmp	$-34     	;abs 0xeac8
    eaec:	1b 53       	inc	r11		
    eaee:	1f 42 2a 02 	mov	&0x022a,r15	
    eaf2:	0f 5f       	rla	r15		
    eaf4:	82 4f 2a 02 	mov	r15,	&0x022a	
    eaf8:	3f 90 81 00 	cmp	#129,	r15	;#0x0081
    eafc:	cf 3b       	jl	$-96     	;abs 0xea9c
    eafe:	3a 41       	pop	r10		
    eb00:	3b 41       	pop	r11		
    eb02:	3c 41       	pop	r12		
    eb04:	3d 41       	pop	r13		
    eb06:	3e 41       	pop	r14		
    eb08:	3f 41       	pop	r15		
    eb0a:	00 13       	reti			

0000eb0c <PORT2_ISR_HOOK>:
    eb0c:	0f 12       	push	r15		
    eb0e:	0e 12       	push	r14		
    eb10:	0d 12       	push	r13		
    eb12:	0c 12       	push	r12		
    eb14:	0b 12       	push	r11		
    eb16:	0a 12       	push	r10		
    eb18:	1a 42 90 01 	mov	&0x0190,r10	
    eb1c:	3b 40 03 00 	mov	#3,	r11	;#0x0003
    eb20:	92 43 2a 02 	mov	#1,	&0x022a	;r3 As==01
    eb24:	5f 42 2b 00 	mov.b	&0x002b,r15	
    eb28:	1e 42 2a 02 	mov	&0x022a,r14	
    eb2c:	0f fe       	and	r14,	r15	
    eb2e:	3f f0 07 00 	and	#7,	r15	;#0x0007
    eb32:	22 24       	jz	$+70     	;abs 0xeb78
    eb34:	5f 42 2c 00 	mov.b	&0x002c,r15	
    eb38:	0f fe       	and	r14,	r15	
    eb3a:	3f f0 07 00 	and	#7,	r15	;#0x0007
    eb3e:	11 20       	jnz	$+36     	;abs 0xeb62
    eb40:	0f 4b       	mov	r11,	r15	
    eb42:	0f 5f       	rla	r15		
    eb44:	8f 4a 04 02 	mov	r10,	516(r15);0x0204(r15)
    eb48:	5f 42 2a 02 	mov.b	&0x022a,r15	
    eb4c:	7f f0 07 00 	and.b	#7,	r15	;#0x0007
    eb50:	c2 df 2c 00 	bis.b	r15,	&0x002c	
    eb54:	5f 42 2a 02 	mov.b	&0x022a,r15	
    eb58:	7f f0 07 00 	and.b	#7,	r15	;#0x0007
    eb5c:	c2 cf 2b 00 	bic.b	r15,	&0x002b	
    eb60:	0b 3c       	jmp	$+24     	;abs 0xeb78
    eb62:	0e 4a       	mov	r10,	r14	
    eb64:	0f 4b       	mov	r11,	r15	
    eb66:	b0 12 26 ea 	call	#0xea26	
    eb6a:	5f 42 2a 02 	mov.b	&0x022a,r15	
    eb6e:	7f f0 07 00 	and.b	#7,	r15	;#0x0007
    eb72:	c2 cf 2c 00 	bic.b	r15,	&0x002c	
    eb76:	ee 3f       	jmp	$-34     	;abs 0xeb54
    eb78:	1b 53       	inc	r11		
    eb7a:	1f 42 2a 02 	mov	&0x022a,r15	
    eb7e:	0f 5f       	rla	r15		
    eb80:	82 4f 2a 02 	mov	r15,	&0x022a	
    eb84:	3f 90 05 00 	cmp	#5,	r15	;#0x0005
    eb88:	cd 3b       	jl	$-100    	;abs 0xeb24
    eb8a:	3a 41       	pop	r10		
    eb8c:	3b 41       	pop	r11		
    eb8e:	3c 41       	pop	r12		
    eb90:	3d 41       	pop	r13		
    eb92:	3e 41       	pop	r14		
    eb94:	3f 41       	pop	r15		
    eb96:	00 13       	reti			

0000eb98 <TMRB_init>:
    eb98:	b2 40 e0 00 	mov	#224,	&0x0184	;#0x00e0
    eb9c:	84 01 
    eb9e:	82 4f 92 01 	mov	r15,	&0x0192	
    eba2:	82 43 94 01 	mov	#0,	&0x0194	;r3 As==00
    eba6:	b2 40 10 02 	mov	#528,	&0x0180	;#0x0210
    ebaa:	80 01 
    ebac:	f2 40 06 00 	mov.b	#6,	&0x001f	;#0x0006
    ebb0:	1f 00 
    ebb2:	f2 40 06 00 	mov.b	#6,	&0x001e	;#0x0006
    ebb6:	1e 00 
    ebb8:	30 41       	ret			

0000ebba <delay2us>:
    ebba:	30 41       	ret			

0000ebbc <delay5us>:
    ebbc:	30 41       	ret			

0000ebbe <delayus>:
    ebbe:	0e 43       	clr	r14		
    ebc0:	0e 9f       	cmp	r15,	r14	
    ebc2:	04 2c       	jc	$+10     	;abs 0xebcc
    ebc4:	03 43       	nop			
    ebc6:	1e 53       	inc	r14		
    ebc8:	0e 9f       	cmp	r15,	r14	
    ebca:	fc 2b       	jnc	$-6      	;abs 0xebc4
    ebcc:	30 41       	ret			

0000ebce <delayms>:
    ebce:	0b 12       	push	r11		
    ebd0:	0a 12       	push	r10		
    ebd2:	0a 4f       	mov	r15,	r10	
    ebd4:	0b 43       	clr	r11		
    ebd6:	0b 9f       	cmp	r15,	r11	
    ebd8:	07 2c       	jc	$+16     	;abs 0xebe8
    ebda:	3f 40 5c 0d 	mov	#3420,	r15	;#0x0d5c
    ebde:	b0 12 be eb 	call	#0xebbe	
    ebe2:	1b 53       	inc	r11		
    ebe4:	0b 9a       	cmp	r10,	r11	
    ebe6:	f9 2b       	jnc	$-12     	;abs 0xebda
    ebe8:	3a 41       	pop	r10		
    ebea:	3b 41       	pop	r11		
    ebec:	30 41       	ret			

0000ebee <_fpadd_parts>:
    ebee:	0b 12       	push	r11		
    ebf0:	0a 12       	push	r10		
    ebf2:	09 12       	push	r9		
    ebf4:	08 12       	push	r8		
    ebf6:	07 12       	push	r7		
    ebf8:	06 12       	push	r6		
    ebfa:	05 12       	push	r5		
    ebfc:	0b 4f       	mov	r15,	r11	
    ebfe:	0a 4e       	mov	r14,	r10	
    ec00:	09 4d       	mov	r13,	r9	
    ec02:	0f 43       	clr	r15		
    ec04:	6e 4b       	mov.b	@r11,	r14	
    ec06:	6e 93       	cmp.b	#2,	r14	;r3 As==10
    ec08:	01 2c       	jc	$+4      	;abs 0xec0c
    ec0a:	1f 43       	mov	#1,	r15	;r3 As==01
    ec0c:	0f 93       	tst	r15		
    ec0e:	18 20       	jnz	$+50     	;abs 0xec40
    ec10:	0c 43       	clr	r12		
    ec12:	6f 4a       	mov.b	@r10,	r15	
    ec14:	6f 93       	cmp.b	#2,	r15	;r3 As==10
    ec16:	01 2c       	jc	$+4      	;abs 0xec1a
    ec18:	1c 43       	mov	#1,	r12	;r3 As==01
    ec1a:	0c 93       	tst	r12		
    ec1c:	3c 20       	jnz	$+122    	;abs 0xec96
    ec1e:	0c 43       	clr	r12		
    ec20:	6e 92       	cmp.b	#4,	r14	;r2 As==10
    ec22:	eb 24       	jz	$+472    	;abs 0xedfa
    ec24:	0c 93       	tst	r12		
    ec26:	10 24       	jz	$+34     	;abs 0xec48
    ec28:	0e 43       	clr	r14		
    ec2a:	6f 92       	cmp.b	#4,	r15	;r2 As==10
    ec2c:	0b 24       	jz	$+24     	;abs 0xec44
    ec2e:	0e 93       	tst	r14		
    ec30:	07 24       	jz	$+16     	;abs 0xec40
    ec32:	db 9a 01 00 	cmp.b	1(r10),	1(r11)	;0x0001(r10), 0x0001(r11)
    ec36:	01 00 
    ec38:	03 24       	jz	$+8      	;abs 0xec40
    ec3a:	3d 40 3e ef 	mov	#-4290,	r13	;#0xef3e
    ec3e:	df 3c       	jmp	$+448    	;abs 0xedfe
    ec40:	0d 4b       	mov	r11,	r13	
    ec42:	dd 3c       	jmp	$+444    	;abs 0xedfe
    ec44:	1e 43       	mov	#1,	r14	;r3 As==01
    ec46:	f3 3f       	jmp	$-24     	;abs 0xec2e
    ec48:	0d 43       	clr	r13		
    ec4a:	6f 92       	cmp.b	#4,	r15	;r2 As==10
    ec4c:	d4 24       	jz	$+426    	;abs 0xedf6
    ec4e:	0d 93       	tst	r13		
    ec50:	22 20       	jnz	$+70     	;abs 0xec96
    ec52:	0d 43       	clr	r13		
    ec54:	6f 93       	cmp.b	#2,	r15	;r3 As==10
    ec56:	cd 24       	jz	$+412    	;abs 0xedf2
    ec58:	0d 93       	tst	r13		
    ec5a:	18 24       	jz	$+50     	;abs 0xec8c
    ec5c:	0f 43       	clr	r15		
    ec5e:	6e 93       	cmp.b	#2,	r14	;r3 As==10
    ec60:	13 24       	jz	$+40     	;abs 0xec88
    ec62:	0f 93       	tst	r15		
    ec64:	ed 27       	jz	$-36     	;abs 0xec40
    ec66:	0f 4b       	mov	r11,	r15	
    ec68:	b9 4f 00 00 	mov	@r15+,	0(r9)	;0x0000(r9)
    ec6c:	b9 4f 02 00 	mov	@r15+,	2(r9)	;0x0002(r9)
    ec70:	b9 4f 04 00 	mov	@r15+,	4(r9)	;0x0004(r9)
    ec74:	b9 4f 06 00 	mov	@r15+,	6(r9)	;0x0006(r9)
    ec78:	5b 4b 01 00 	mov.b	1(r11),	r11	;0x0001(r11)
    ec7c:	5b fa 01 00 	and.b	1(r10),	r11	;0x0001(r10)
    ec80:	c9 4b 01 00 	mov.b	r11,	1(r9)	;0x0001(r9)
    ec84:	0d 49       	mov	r9,	r13	
    ec86:	bb 3c       	jmp	$+376    	;abs 0xedfe
    ec88:	1f 43       	mov	#1,	r15	;r3 As==01
    ec8a:	eb 3f       	jmp	$-40     	;abs 0xec62
    ec8c:	0f 43       	clr	r15		
    ec8e:	6e 93       	cmp.b	#2,	r14	;r3 As==10
    ec90:	ae 24       	jz	$+350    	;abs 0xedee
    ec92:	0f 93       	tst	r15		
    ec94:	02 24       	jz	$+6      	;abs 0xec9a
    ec96:	0d 4a       	mov	r10,	r13	
    ec98:	b2 3c       	jmp	$+358    	;abs 0xedfe
    ec9a:	15 4b 02 00 	mov	2(r11),	r5	;0x0002(r11)
    ec9e:	16 4a 02 00 	mov	2(r10),	r6	;0x0002(r10)
    eca2:	1c 4b 04 00 	mov	4(r11),	r12	;0x0004(r11)
    eca6:	1d 4b 06 00 	mov	6(r11),	r13	;0x0006(r11)
    ecaa:	17 4a 04 00 	mov	4(r10),	r7	;0x0004(r10)
    ecae:	18 4a 06 00 	mov	6(r10),	r8	;0x0006(r10)
    ecb2:	0f 45       	mov	r5,	r15	
    ecb4:	0f 86       	sub	r6,	r15	
    ecb6:	98 30       	jn	$+306    	;abs 0xede8
    ecb8:	3f 90 20 00 	cmp	#32,	r15	;#0x0020
    ecbc:	8c 34       	jge	$+282    	;abs 0xedd6
    ecbe:	06 95       	cmp	r5,	r6	
    ecc0:	10 34       	jge	$+34     	;abs 0xece2
    ecc2:	0f 45       	mov	r5,	r15	
    ecc4:	0f 86       	sub	r6,	r15	
    ecc6:	06 4f       	mov	r15,	r6	
    ecc8:	36 53       	add	#-1,	r6	;r3 As==11
    ecca:	0e 47       	mov	r7,	r14	
    eccc:	0f 48       	mov	r8,	r15	
    ecce:	1e f3       	and	#1,	r14	;r3 As==01
    ecd0:	0f f3       	and	#0,	r15	;r3 As==00
    ecd2:	12 c3       	clrc			
    ecd4:	08 10       	rrc	r8		
    ecd6:	07 10       	rrc	r7		
    ecd8:	07 de       	bis	r14,	r7	
    ecda:	08 df       	bis	r15,	r8	
    ecdc:	06 93       	tst	r6		
    ecde:	f4 23       	jnz	$-22     	;abs 0xecc8
    ece0:	06 45       	mov	r5,	r6	
    ece2:	05 96       	cmp	r6,	r5	
    ece4:	0c 34       	jge	$+26     	;abs 0xecfe
    ece6:	15 53       	inc	r5		
    ece8:	0e 4c       	mov	r12,	r14	
    ecea:	0f 4d       	mov	r13,	r15	
    ecec:	1e f3       	and	#1,	r14	;r3 As==01
    ecee:	0f f3       	and	#0,	r15	;r3 As==00
    ecf0:	12 c3       	clrc			
    ecf2:	0d 10       	rrc	r13		
    ecf4:	0c 10       	rrc	r12		
    ecf6:	0c de       	bis	r14,	r12	
    ecf8:	0d df       	bis	r15,	r13	
    ecfa:	05 96       	cmp	r6,	r5	
    ecfc:	f4 3b       	jl	$-22     	;abs 0xece6
    ecfe:	5f 4b 01 00 	mov.b	1(r11),	r15	;0x0001(r11)
    ed02:	5f 9a 01 00 	cmp.b	1(r10),	r15	;0x0001(r10)
    ed06:	59 24       	jz	$+180    	;abs 0xedba
    ed08:	4f 93       	tst.b	r15		
    ed0a:	52 24       	jz	$+166    	;abs 0xedb0
    ed0c:	0e 47       	mov	r7,	r14	
    ed0e:	0f 48       	mov	r8,	r15	
    ed10:	0e 8c       	sub	r12,	r14	
    ed12:	0f 7d       	subc	r13,	r15	
    ed14:	0f 93       	tst	r15		
    ed16:	43 38       	jl	$+136    	;abs 0xed9e
    ed18:	c9 43 01 00 	mov.b	#0,	1(r9)	;r3 As==00, 0x0001(r9)
    ed1c:	89 45 02 00 	mov	r5,	2(r9)	;0x0002(r9)
    ed20:	89 4e 04 00 	mov	r14,	4(r9)	;0x0004(r9)
    ed24:	89 4f 06 00 	mov	r15,	6(r9)	;0x0006(r9)
    ed28:	1b 49 04 00 	mov	4(r9),	r11	;0x0004(r9)
    ed2c:	1c 49 06 00 	mov	6(r9),	r12	;0x0006(r9)
    ed30:	0e 4b       	mov	r11,	r14	
    ed32:	0f 4c       	mov	r12,	r15	
    ed34:	3e 53       	add	#-1,	r14	;r3 As==11
    ed36:	3f 63       	addc	#-1,	r15	;r3 As==11
    ed38:	3e 83       	sub	#-1,	r14	;r3 As==11
    ed3a:	3f 70 ff 3f 	subc	#16383,	r15	;#0x3fff
    ed3e:	19 2c       	jc	$+52     	;abs 0xed72
    ed40:	0e 4b       	mov	r11,	r14	
    ed42:	0f 4c       	mov	r12,	r15	
    ed44:	0e 5e       	rla	r14		
    ed46:	0f 6f       	rlc	r15		
    ed48:	89 4e 04 00 	mov	r14,	4(r9)	;0x0004(r9)
    ed4c:	89 4f 06 00 	mov	r15,	6(r9)	;0x0006(r9)
    ed50:	b9 53 02 00 	add	#-1,	2(r9)	;r3 As==11, 0x0002(r9)
    ed54:	0c 4e       	mov	r14,	r12	
    ed56:	0d 4f       	mov	r15,	r13	
    ed58:	3c 53       	add	#-1,	r12	;r3 As==11
    ed5a:	3d 63       	addc	#-1,	r13	;r3 As==11
    ed5c:	3c 83       	sub	#-1,	r12	;r3 As==11
    ed5e:	3d 70 ff 3f 	subc	#16383,	r13	;#0x3fff
    ed62:	05 2c       	jc	$+12     	;abs 0xed6e
    ed64:	1b 49 04 00 	mov	4(r9),	r11	;0x0004(r9)
    ed68:	1c 49 06 00 	mov	6(r9),	r12	;0x0006(r9)
    ed6c:	e9 3f       	jmp	$-44     	;abs 0xed40
    ed6e:	0b 4e       	mov	r14,	r11	
    ed70:	0c 4f       	mov	r15,	r12	
    ed72:	f9 40 03 00 	mov.b	#3,	0(r9)	;#0x0003, 0x0000(r9)
    ed76:	00 00 
    ed78:	3c 90 00 80 	cmp	#-32768,r12	;#0x8000
    ed7c:	83 2b       	jnc	$-248    	;abs 0xec84
    ed7e:	0e 4b       	mov	r11,	r14	
    ed80:	0f 4c       	mov	r12,	r15	
    ed82:	12 c3       	clrc			
    ed84:	0f 10       	rrc	r15		
    ed86:	0e 10       	rrc	r14		
    ed88:	1b f3       	and	#1,	r11	;r3 As==01
    ed8a:	0c f3       	and	#0,	r12	;r3 As==00
    ed8c:	0b de       	bis	r14,	r11	
    ed8e:	0c df       	bis	r15,	r12	
    ed90:	89 4b 04 00 	mov	r11,	4(r9)	;0x0004(r9)
    ed94:	89 4c 06 00 	mov	r12,	6(r9)	;0x0006(r9)
    ed98:	99 53 02 00 	inc	2(r9)		;0x0002(r9)
    ed9c:	73 3f       	jmp	$-280    	;abs 0xec84
    ed9e:	d9 43 01 00 	mov.b	#1,	1(r9)	;r3 As==01, 0x0001(r9)
    eda2:	89 45 02 00 	mov	r5,	2(r9)	;0x0002(r9)
    eda6:	3e e3       	inv	r14		
    eda8:	3f e3       	inv	r15		
    edaa:	1e 53       	inc	r14		
    edac:	0f 63       	adc	r15		
    edae:	b8 3f       	jmp	$-142    	;abs 0xed20
    edb0:	0e 4c       	mov	r12,	r14	
    edb2:	0f 4d       	mov	r13,	r15	
    edb4:	0e 87       	sub	r7,	r14	
    edb6:	0f 78       	subc	r8,	r15	
    edb8:	ad 3f       	jmp	$-164    	;abs 0xed14
    edba:	d9 4b 01 00 	mov.b	1(r11),	1(r9)	;0x0001(r11), 0x0001(r9)
    edbe:	01 00 
    edc0:	89 45 02 00 	mov	r5,	2(r9)	;0x0002(r9)
    edc4:	0e 4c       	mov	r12,	r14	
    edc6:	0f 4d       	mov	r13,	r15	
    edc8:	0e 57       	add	r7,	r14	
    edca:	0f 68       	addc	r8,	r15	
    edcc:	89 4e 04 00 	mov	r14,	4(r9)	;0x0004(r9)
    edd0:	89 4f 06 00 	mov	r15,	6(r9)	;0x0006(r9)
    edd4:	cc 3f       	jmp	$-102    	;abs 0xed6e
    edd6:	06 95       	cmp	r5,	r6	
    edd8:	03 34       	jge	$+8      	;abs 0xede0
    edda:	07 43       	clr	r7		
    eddc:	08 43       	clr	r8		
    edde:	8f 3f       	jmp	$-224    	;abs 0xecfe
    ede0:	05 46       	mov	r6,	r5	
    ede2:	0c 43       	clr	r12		
    ede4:	0d 43       	clr	r13		
    ede6:	8b 3f       	jmp	$-232    	;abs 0xecfe
    ede8:	3f e3       	inv	r15		
    edea:	1f 53       	inc	r15		
    edec:	65 3f       	jmp	$-308    	;abs 0xecb8
    edee:	1f 43       	mov	#1,	r15	;r3 As==01
    edf0:	50 3f       	jmp	$-350    	;abs 0xec92
    edf2:	1d 43       	mov	#1,	r13	;r3 As==01
    edf4:	31 3f       	jmp	$-412    	;abs 0xec58
    edf6:	1d 43       	mov	#1,	r13	;r3 As==01
    edf8:	2a 3f       	jmp	$-426    	;abs 0xec4e
    edfa:	1c 43       	mov	#1,	r12	;r3 As==01
    edfc:	13 3f       	jmp	$-472    	;abs 0xec24
    edfe:	0f 4d       	mov	r13,	r15	
    ee00:	35 41       	pop	r5		
    ee02:	36 41       	pop	r6		
    ee04:	37 41       	pop	r7		
    ee06:	38 41       	pop	r8		
    ee08:	39 41       	pop	r9		
    ee0a:	3a 41       	pop	r10		
    ee0c:	3b 41       	pop	r11		
    ee0e:	30 41       	ret			

0000ee10 <__addsf3>:
    ee10:	0b 12       	push	r11		
    ee12:	31 80 20 00 	sub	#32,	r1	;#0x0020
    ee16:	81 4e 18 00 	mov	r14,	24(r1)	;0x0018(r1)
    ee1a:	81 4f 1a 00 	mov	r15,	26(r1)	;0x001a(r1)
    ee1e:	81 4c 1c 00 	mov	r12,	28(r1)	;0x001c(r1)
    ee22:	81 4d 1e 00 	mov	r13,	30(r1)	;0x001e(r1)
    ee26:	0e 41       	mov	r1,	r14	
    ee28:	0f 41       	mov	r1,	r15	
    ee2a:	3f 50 18 00 	add	#24,	r15	;#0x0018
    ee2e:	b0 12 f6 f0 	call	#0xf0f6	
    ee32:	0b 41       	mov	r1,	r11	
    ee34:	3b 52       	add	#8,	r11	;r2 As==11
    ee36:	0e 4b       	mov	r11,	r14	
    ee38:	0f 41       	mov	r1,	r15	
    ee3a:	3f 50 1c 00 	add	#28,	r15	;#0x001c
    ee3e:	b0 12 f6 f0 	call	#0xf0f6	
    ee42:	0d 41       	mov	r1,	r13	
    ee44:	3d 50 10 00 	add	#16,	r13	;#0x0010
    ee48:	0e 4b       	mov	r11,	r14	
    ee4a:	0f 41       	mov	r1,	r15	
    ee4c:	b0 12 ee eb 	call	#0xebee	
    ee50:	b0 12 46 ef 	call	#0xef46	
    ee54:	31 50 20 00 	add	#32,	r1	;#0x0020
    ee58:	3b 41       	pop	r11		
    ee5a:	30 41       	ret			

0000ee5c <__subsf3>:
    ee5c:	0b 12       	push	r11		
    ee5e:	31 80 20 00 	sub	#32,	r1	;#0x0020
    ee62:	81 4e 18 00 	mov	r14,	24(r1)	;0x0018(r1)
    ee66:	81 4f 1a 00 	mov	r15,	26(r1)	;0x001a(r1)
    ee6a:	81 4c 1c 00 	mov	r12,	28(r1)	;0x001c(r1)
    ee6e:	81 4d 1e 00 	mov	r13,	30(r1)	;0x001e(r1)
    ee72:	0e 41       	mov	r1,	r14	
    ee74:	0f 41       	mov	r1,	r15	
    ee76:	3f 50 18 00 	add	#24,	r15	;#0x0018
    ee7a:	b0 12 f6 f0 	call	#0xf0f6	
    ee7e:	0b 41       	mov	r1,	r11	
    ee80:	3b 52       	add	#8,	r11	;r2 As==11
    ee82:	0e 4b       	mov	r11,	r14	
    ee84:	0f 41       	mov	r1,	r15	
    ee86:	3f 50 1c 00 	add	#28,	r15	;#0x001c
    ee8a:	b0 12 f6 f0 	call	#0xf0f6	
    ee8e:	d1 e3 09 00 	xor.b	#1,	9(r1)	;r3 As==01, 0x0009(r1)
    ee92:	0d 41       	mov	r1,	r13	
    ee94:	3d 50 10 00 	add	#16,	r13	;#0x0010
    ee98:	0e 4b       	mov	r11,	r14	
    ee9a:	0f 41       	mov	r1,	r15	
    ee9c:	b0 12 ee eb 	call	#0xebee	
    eea0:	b0 12 46 ef 	call	#0xef46	
    eea4:	31 50 20 00 	add	#32,	r1	;#0x0020
    eea8:	3b 41       	pop	r11		
    eeaa:	30 41       	ret			

0000eeac <__floatsisf>:
    eeac:	0b 12       	push	r11		
    eeae:	31 82       	sub	#8,	r1	;r2 As==11
    eeb0:	0d 4e       	mov	r14,	r13	
    eeb2:	0e 4f       	mov	r15,	r14	
    eeb4:	f1 40 03 00 	mov.b	#3,	0(r1)	;#0x0003, 0x0000(r1)
    eeb8:	00 00 
    eeba:	0f 4e       	mov	r14,	r15	
    eebc:	0f 5f       	rla	r15		
    eebe:	0f 43       	clr	r15		
    eec0:	0f 6f       	rlc	r15		
    eec2:	c1 4f 01 00 	mov.b	r15,	1(r1)	;0x0001(r1)
    eec6:	0d 93       	tst	r13		
    eec8:	08 20       	jnz	$+18     	;abs 0xeeda
    eeca:	0e 93       	tst	r14		
    eecc:	06 20       	jnz	$+14     	;abs 0xeeda
    eece:	e1 43 00 00 	mov.b	#2,	0(r1)	;r3 As==10, 0x0000(r1)
    eed2:	0f 41       	mov	r1,	r15	
    eed4:	b0 12 46 ef 	call	#0xef46	
    eed8:	2f 3c       	jmp	$+96     	;abs 0xef38
    eeda:	b1 40 1e 00 	mov	#30,	2(r1)	;#0x001e, 0x0002(r1)
    eede:	02 00 
    eee0:	4f 93       	tst.b	r15		
    eee2:	09 24       	jz	$+20     	;abs 0xeef6
    eee4:	0d 93       	tst	r13		
    eee6:	03 20       	jnz	$+8      	;abs 0xeeee
    eee8:	3e 90 00 80 	cmp	#-32768,r14	;#0x8000
    eeec:	22 24       	jz	$+70     	;abs 0xef32
    eeee:	3d e3       	inv	r13		
    eef0:	3e e3       	inv	r14		
    eef2:	1d 53       	inc	r13		
    eef4:	0e 63       	adc	r14		
    eef6:	81 4d 04 00 	mov	r13,	4(r1)	;0x0004(r1)
    eefa:	81 4e 06 00 	mov	r14,	6(r1)	;0x0006(r1)
    eefe:	1c 41 04 00 	mov	4(r1),	r12	;0x0004(r1)
    ef02:	1d 41 06 00 	mov	6(r1),	r13	;0x0006(r1)
    ef06:	3d 90 00 40 	cmp	#16384,	r13	;#0x4000
    ef0a:	e3 2f       	jc	$-56     	;abs 0xeed2
    ef0c:	1b 41 02 00 	mov	2(r1),	r11	;0x0002(r1)
    ef10:	0e 4c       	mov	r12,	r14	
    ef12:	0f 4d       	mov	r13,	r15	
    ef14:	0e 5e       	rla	r14		
    ef16:	0f 6f       	rlc	r15		
    ef18:	3b 53       	add	#-1,	r11	;r3 As==11
    ef1a:	0c 4e       	mov	r14,	r12	
    ef1c:	0d 4f       	mov	r15,	r13	
    ef1e:	3f 90 00 40 	cmp	#16384,	r15	;#0x4000
    ef22:	f6 2b       	jnc	$-18     	;abs 0xef10
    ef24:	81 4b 02 00 	mov	r11,	2(r1)	;0x0002(r1)
    ef28:	81 4e 04 00 	mov	r14,	4(r1)	;0x0004(r1)
    ef2c:	81 4f 06 00 	mov	r15,	6(r1)	;0x0006(r1)
    ef30:	d0 3f       	jmp	$-94     	;abs 0xeed2
    ef32:	0e 43       	clr	r14		
    ef34:	3f 40 00 cf 	mov	#-12544,r15	;#0xcf00
    ef38:	31 52       	add	#8,	r1	;r2 As==11
    ef3a:	3b 41       	pop	r11		
    ef3c:	30 41       	ret			

0000ef3e <__thenan_sf>:
	...

0000ef46 <__pack_f>:
    ef46:	0b 12       	push	r11		
    ef48:	0a 12       	push	r10		
    ef4a:	09 12       	push	r9		
    ef4c:	08 12       	push	r8		
    ef4e:	07 12       	push	r7		
    ef50:	21 82       	sub	#4,	r1	;r2 As==10
    ef52:	1c 4f 04 00 	mov	4(r15),	r12	;0x0004(r15)
    ef56:	1d 4f 06 00 	mov	6(r15),	r13	;0x0006(r15)
    ef5a:	59 4f 01 00 	mov.b	1(r15),	r9	;0x0001(r15)
    ef5e:	0a 43       	clr	r10		
    ef60:	0b 43       	clr	r11		
    ef62:	6e 4f       	mov.b	@r15,	r14	
    ef64:	6e 93       	cmp.b	#2,	r14	;r3 As==10
    ef66:	01 2c       	jc	$+4      	;abs 0xef6a
    ef68:	1b 43       	mov	#1,	r11	;r3 As==01
    ef6a:	0b 93       	tst	r11		
    ef6c:	05 24       	jz	$+12     	;abs 0xef78
    ef6e:	3a 40 ff 00 	mov	#255,	r10	;#0x00ff
    ef72:	3d d0 10 00 	bis	#16,	r13	;#0x0010
    ef76:	8e 3c       	jmp	$+286    	;abs 0xf094
    ef78:	0b 43       	clr	r11		
    ef7a:	6e 92       	cmp.b	#4,	r14	;r2 As==10
    ef7c:	89 24       	jz	$+276    	;abs 0xf090
    ef7e:	0b 93       	tst	r11		
    ef80:	62 20       	jnz	$+198    	;abs 0xf046
    ef82:	0b 43       	clr	r11		
    ef84:	6e 93       	cmp.b	#2,	r14	;r3 As==10
    ef86:	82 24       	jz	$+262    	;abs 0xf08c
    ef88:	0b 93       	tst	r11		
    ef8a:	5f 20       	jnz	$+192    	;abs 0xf04a
    ef8c:	0c 93       	tst	r12		
    ef8e:	02 20       	jnz	$+6      	;abs 0xef94
    ef90:	0d 93       	tst	r13		
    ef92:	80 24       	jz	$+258    	;abs 0xf094
    ef94:	1f 4f 02 00 	mov	2(r15),	r15	;0x0002(r15)
    ef98:	3f 90 82 ff 	cmp	#-126,	r15	;#0xff82
    ef9c:	51 34       	jge	$+164    	;abs 0xf040
    ef9e:	38 40 82 ff 	mov	#-126,	r8	;#0xff82
    efa2:	08 8f       	sub	r15,	r8	
    efa4:	38 90 1a 00 	cmp	#26,	r8	;#0x001a
    efa8:	29 38       	jl	$+84     	;abs 0xeffc
    efaa:	0c 43       	clr	r12		
    efac:	0d 43       	clr	r13		
    efae:	0e 4c       	mov	r12,	r14	
    efb0:	0f 4d       	mov	r13,	r15	
    efb2:	3e f0 7f 00 	and	#127,	r14	;#0x007f
    efb6:	0f f3       	and	#0,	r15	;r3 As==00
    efb8:	3e 90 40 00 	cmp	#64,	r14	;#0x0040
    efbc:	02 20       	jnz	$+6      	;abs 0xefc2
    efbe:	0f 93       	tst	r15		
    efc0:	17 24       	jz	$+48     	;abs 0xeff0
    efc2:	3c 50 3f 00 	add	#63,	r12	;#0x003f
    efc6:	0d 63       	adc	r13		
    efc8:	3d 90 00 40 	cmp	#16384,	r13	;#0x4000
    efcc:	01 28       	jnc	$+4      	;abs 0xefd0
    efce:	1a 43       	mov	#1,	r10	;r3 As==01
    efd0:	12 c3       	clrc			
    efd2:	0d 10       	rrc	r13		
    efd4:	0c 10       	rrc	r12		
    efd6:	0d 11       	rra	r13		
    efd8:	0c 10       	rrc	r12		
    efda:	0d 11       	rra	r13		
    efdc:	0c 10       	rrc	r12		
    efde:	0d 11       	rra	r13		
    efe0:	0c 10       	rrc	r12		
    efe2:	0d 11       	rra	r13		
    efe4:	0c 10       	rrc	r12		
    efe6:	0d 11       	rra	r13		
    efe8:	0c 10       	rrc	r12		
    efea:	0d 11       	rra	r13		
    efec:	0c 10       	rrc	r12		
    efee:	52 3c       	jmp	$+166    	;abs 0xf094
    eff0:	4c 93       	tst.b	r12		
    eff2:	ea 37       	jge	$-42     	;abs 0xefc8
    eff4:	3c 50 40 00 	add	#64,	r12	;#0x0040
    eff8:	0d 63       	adc	r13		
    effa:	e6 3f       	jmp	$-50     	;abs 0xefc8
    effc:	07 43       	clr	r7		
    effe:	1e 43       	mov	#1,	r14	;r3 As==01
    f000:	0f 43       	clr	r15		
    f002:	0b 48       	mov	r8,	r11	
    f004:	0b 93       	tst	r11		
    f006:	04 24       	jz	$+10     	;abs 0xf010
    f008:	0e 5e       	rla	r14		
    f00a:	0f 6f       	rlc	r15		
    f00c:	1b 83       	dec	r11		
    f00e:	fc 23       	jnz	$-6      	;abs 0xf008
    f010:	3e 53       	add	#-1,	r14	;r3 As==11
    f012:	3f 63       	addc	#-1,	r15	;r3 As==11
    f014:	0e fc       	and	r12,	r14	
    f016:	0f fd       	and	r13,	r15	
    f018:	0f de       	bis	r14,	r15	
    f01a:	0f 93       	tst	r15		
    f01c:	01 24       	jz	$+4      	;abs 0xf020
    f01e:	17 43       	mov	#1,	r7	;r3 As==01
    f020:	0f 48       	mov	r8,	r15	
    f022:	0f 93       	tst	r15		
    f024:	05 24       	jz	$+12     	;abs 0xf030
    f026:	12 c3       	clrc			
    f028:	0d 10       	rrc	r13		
    f02a:	0c 10       	rrc	r12		
    f02c:	1f 83       	dec	r15		
    f02e:	fb 23       	jnz	$-8      	;abs 0xf026
    f030:	0e 47       	mov	r7,	r14	
    f032:	0f 4e       	mov	r14,	r15	
    f034:	0f 5f       	rla	r15		
    f036:	0f 7f       	subc	r15,	r15	
    f038:	3f e3       	inv	r15		
    f03a:	0c de       	bis	r14,	r12	
    f03c:	0d df       	bis	r15,	r13	
    f03e:	b7 3f       	jmp	$-144    	;abs 0xefae
    f040:	3f 90 80 00 	cmp	#128,	r15	;#0x0080
    f044:	05 38       	jl	$+12     	;abs 0xf050
    f046:	3a 40 ff 00 	mov	#255,	r10	;#0x00ff
    f04a:	0c 43       	clr	r12		
    f04c:	0d 43       	clr	r13		
    f04e:	22 3c       	jmp	$+70     	;abs 0xf094
    f050:	0a 4f       	mov	r15,	r10	
    f052:	3a 50 7f 00 	add	#127,	r10	;#0x007f
    f056:	0e 4c       	mov	r12,	r14	
    f058:	0f 4d       	mov	r13,	r15	
    f05a:	3e f0 7f 00 	and	#127,	r14	;#0x007f
    f05e:	0f f3       	and	#0,	r15	;r3 As==00
    f060:	3e 90 40 00 	cmp	#64,	r14	;#0x0040
    f064:	02 20       	jnz	$+6      	;abs 0xf06a
    f066:	0f 93       	tst	r15		
    f068:	0b 24       	jz	$+24     	;abs 0xf080
    f06a:	3c 50 3f 00 	add	#63,	r12	;#0x003f
    f06e:	0d 63       	adc	r13		
    f070:	3d 90 00 80 	cmp	#-32768,r13	;#0x8000
    f074:	ad 2b       	jnc	$-164    	;abs 0xefd0
    f076:	12 c3       	clrc			
    f078:	0d 10       	rrc	r13		
    f07a:	0c 10       	rrc	r12		
    f07c:	1a 53       	inc	r10		
    f07e:	a8 3f       	jmp	$-174    	;abs 0xefd0
    f080:	4c 93       	tst.b	r12		
    f082:	f6 37       	jge	$-18     	;abs 0xf070
    f084:	3c 50 40 00 	add	#64,	r12	;#0x0040
    f088:	0d 63       	adc	r13		
    f08a:	f2 3f       	jmp	$-26     	;abs 0xf070
    f08c:	1b 43       	mov	#1,	r11	;r3 As==01
    f08e:	7c 3f       	jmp	$-262    	;abs 0xef88
    f090:	1b 43       	mov	#1,	r11	;r3 As==01
    f092:	75 3f       	jmp	$-276    	;abs 0xef7e
    f094:	81 4c 00 00 	mov	r12,	0(r1)	;0x0000(r1)
    f098:	4e 4d       	mov.b	r13,	r14	
    f09a:	7e f0 7f 00 	and.b	#127,	r14	;#0x007f
    f09e:	5f 41 02 00 	mov.b	2(r1),	r15	;0x0002(r1)
    f0a2:	7f f0 80 ff 	and.b	#-128,	r15	;#0xff80
    f0a6:	4f de       	bis.b	r14,	r15	
    f0a8:	c1 4f 02 00 	mov.b	r15,	2(r1)	;0x0002(r1)
    f0ac:	0f 4a       	mov	r10,	r15	
    f0ae:	7f f3       	and.b	#-1,	r15	;r3 As==11
    f0b0:	0f 5f       	rla	r15		
    f0b2:	0f 5f       	rla	r15		
    f0b4:	0f 5f       	rla	r15		
    f0b6:	0f 5f       	rla	r15		
    f0b8:	0f 5f       	rla	r15		
    f0ba:	0f 5f       	rla	r15		
    f0bc:	0f 5f       	rla	r15		
    f0be:	1e 41 02 00 	mov	2(r1),	r14	;0x0002(r1)
    f0c2:	3e f0 7f 80 	and	#-32641,r14	;#0x807f
    f0c6:	0e df       	bis	r15,	r14	
    f0c8:	81 4e 02 00 	mov	r14,	2(r1)	;0x0002(r1)
    f0cc:	4e 49       	mov.b	r9,	r14	
    f0ce:	4e 11       	rra.b	r14		
    f0d0:	4e 43       	clr.b	r14		
    f0d2:	4e 10       	rrc.b	r14		
    f0d4:	5f 41 03 00 	mov.b	3(r1),	r15	;0x0003(r1)
    f0d8:	7f f0 7f 00 	and.b	#127,	r15	;#0x007f
    f0dc:	4f de       	bis.b	r14,	r15	
    f0de:	c1 4f 03 00 	mov.b	r15,	3(r1)	;0x0003(r1)
    f0e2:	2e 41       	mov	@r1,	r14	
    f0e4:	1f 41 02 00 	mov	2(r1),	r15	;0x0002(r1)
    f0e8:	21 52       	add	#4,	r1	;r2 As==10
    f0ea:	37 41       	pop	r7		
    f0ec:	38 41       	pop	r8		
    f0ee:	39 41       	pop	r9		
    f0f0:	3a 41       	pop	r10		
    f0f2:	3b 41       	pop	r11		
    f0f4:	30 41       	ret			

0000f0f6 <__unpack_f>:
    f0f6:	0b 12       	push	r11		
    f0f8:	0b 4e       	mov	r14,	r11	
    f0fa:	2c 4f       	mov	@r15,	r12	
    f0fc:	5d 4f 02 00 	mov.b	2(r15),	r13	;0x0002(r15)
    f100:	3d f0 7f 00 	and	#127,	r13	;#0x007f
    f104:	1e 4f 02 00 	mov	2(r15),	r14	;0x0002(r15)
    f108:	12 c3       	clrc			
    f10a:	0e 10       	rrc	r14		
    f10c:	0e 11       	rra	r14		
    f10e:	0e 11       	rra	r14		
    f110:	0e 11       	rra	r14		
    f112:	0e 11       	rra	r14		
    f114:	0e 11       	rra	r14		
    f116:	0e 11       	rra	r14		
    f118:	7e f3       	and.b	#-1,	r14	;r3 As==11
    f11a:	ff b0 80 00 	bit.b	#128,	3(r15)	;#0x0080, 0x0003(r15)
    f11e:	03 00 
    f120:	4f 43       	clr.b	r15		
    f122:	4f 63       	adc.b	r15		
    f124:	cb 4f 01 00 	mov.b	r15,	1(r11)	;0x0001(r11)
    f128:	0e 93       	tst	r14		
    f12a:	2d 20       	jnz	$+92     	;abs 0xf186
    f12c:	0c 93       	tst	r12		
    f12e:	05 20       	jnz	$+12     	;abs 0xf13a
    f130:	0d 93       	tst	r13		
    f132:	03 20       	jnz	$+8      	;abs 0xf13a
    f134:	eb 43 00 00 	mov.b	#2,	0(r11)	;r3 As==10, 0x0000(r11)
    f138:	57 3c       	jmp	$+176    	;abs 0xf1e8
    f13a:	bb 40 82 ff 	mov	#-126,	2(r11)	;#0xff82, 0x0002(r11)
    f13e:	02 00 
    f140:	0c 5c       	rla	r12		
    f142:	0d 6d       	rlc	r13		
    f144:	0c 5c       	rla	r12		
    f146:	0d 6d       	rlc	r13		
    f148:	0c 5c       	rla	r12		
    f14a:	0d 6d       	rlc	r13		
    f14c:	0c 5c       	rla	r12		
    f14e:	0d 6d       	rlc	r13		
    f150:	0c 5c       	rla	r12		
    f152:	0d 6d       	rlc	r13		
    f154:	0c 5c       	rla	r12		
    f156:	0d 6d       	rlc	r13		
    f158:	0c 5c       	rla	r12		
    f15a:	0d 6d       	rlc	r13		
    f15c:	fb 40 03 00 	mov.b	#3,	0(r11)	;#0x0003, 0x0000(r11)
    f160:	00 00 
    f162:	3d 90 00 40 	cmp	#16384,	r13	;#0x4000
    f166:	0a 2c       	jc	$+22     	;abs 0xf17c
    f168:	3f 40 82 ff 	mov	#-126,	r15	;#0xff82
    f16c:	0c 5c       	rla	r12		
    f16e:	0d 6d       	rlc	r13		
    f170:	3f 53       	add	#-1,	r15	;r3 As==11
    f172:	3d 90 00 40 	cmp	#16384,	r13	;#0x4000
    f176:	fa 2b       	jnc	$-10     	;abs 0xf16c
    f178:	8b 4f 02 00 	mov	r15,	2(r11)	;0x0002(r11)
    f17c:	8b 4c 04 00 	mov	r12,	4(r11)	;0x0004(r11)
    f180:	8b 4d 06 00 	mov	r13,	6(r11)	;0x0006(r11)
    f184:	31 3c       	jmp	$+100    	;abs 0xf1e8
    f186:	3e 90 ff 00 	cmp	#255,	r14	;#0x00ff
    f18a:	1e 24       	jz	$+62     	;abs 0xf1c8
    f18c:	3e 50 81 ff 	add	#-127,	r14	;#0xff81
    f190:	8b 4e 02 00 	mov	r14,	2(r11)	;0x0002(r11)
    f194:	fb 40 03 00 	mov.b	#3,	0(r11)	;#0x0003, 0x0000(r11)
    f198:	00 00 
    f19a:	0e 4c       	mov	r12,	r14	
    f19c:	0f 4d       	mov	r13,	r15	
    f19e:	0e 5e       	rla	r14		
    f1a0:	0f 6f       	rlc	r15		
    f1a2:	0e 5e       	rla	r14		
    f1a4:	0f 6f       	rlc	r15		
    f1a6:	0e 5e       	rla	r14		
    f1a8:	0f 6f       	rlc	r15		
    f1aa:	0e 5e       	rla	r14		
    f1ac:	0f 6f       	rlc	r15		
    f1ae:	0e 5e       	rla	r14		
    f1b0:	0f 6f       	rlc	r15		
    f1b2:	0e 5e       	rla	r14		
    f1b4:	0f 6f       	rlc	r15		
    f1b6:	0e 5e       	rla	r14		
    f1b8:	0f 6f       	rlc	r15		
    f1ba:	3f d0 00 40 	bis	#16384,	r15	;#0x4000
    f1be:	8b 4e 04 00 	mov	r14,	4(r11)	;0x0004(r11)
    f1c2:	8b 4f 06 00 	mov	r15,	6(r11)	;0x0006(r11)
    f1c6:	10 3c       	jmp	$+34     	;abs 0xf1e8
    f1c8:	0c 93       	tst	r12		
    f1ca:	05 20       	jnz	$+12     	;abs 0xf1d6
    f1cc:	0d 93       	tst	r13		
    f1ce:	03 20       	jnz	$+8      	;abs 0xf1d6
    f1d0:	eb 42 00 00 	mov.b	#4,	0(r11)	;r2 As==10, 0x0000(r11)
    f1d4:	09 3c       	jmp	$+20     	;abs 0xf1e8
    f1d6:	3d b0 10 00 	bit	#16,	r13	;#0x0010
    f1da:	03 24       	jz	$+8      	;abs 0xf1e2
    f1dc:	db 43 00 00 	mov.b	#1,	0(r11)	;r3 As==01, 0x0000(r11)
    f1e0:	cd 3f       	jmp	$-100    	;abs 0xf17c
    f1e2:	cb 43 00 00 	mov.b	#0,	0(r11)	;r3 As==00, 0x0000(r11)
    f1e6:	ca 3f       	jmp	$-106    	;abs 0xf17c
    f1e8:	3b 41       	pop	r11		
    f1ea:	30 41       	ret			

0000f1ec <__umulqihi3>:
    f1ec:	7a f3       	and.b	#-1,	r10	;r3 As==11
    f1ee:	7c f3       	and.b	#-1,	r12	;r3 As==11
    f1f0:	30 40 f4 f1 	br	#0xf1f4	

0000f1f4 <__mulhi3>:
    f1f4:	0e 43       	clr	r14		
    f1f6:	0a 93       	tst	r10		
    f1f8:	07 24       	jz	$+16     	;abs 0xf208
    f1fa:	12 c3       	clrc			
    f1fc:	0c 10       	rrc	r12		
    f1fe:	01 28       	jnc	$+4      	;abs 0xf202
    f200:	0e 5a       	add	r10,	r14	
    f202:	0a 5a       	rla	r10		
    f204:	0c 93       	tst	r12		
    f206:	f7 23       	jnz	$-16     	;abs 0xf1f6
    f208:	30 41       	ret			

0000f20a <__stop_progExec__>:
    f20a:	ff 3f       	jmp	$+0      	;abs 0xf20a
Disassembly of section .data:

00000200 <LCD_linecount>:
	...

00000201 <LCD_charcount>:
	...

00000202 <color_back>:
	...

00000203 <color_fore>:
 203:	ff 00       	.word	0x00ff;	????	

00000204 <PPM_capture_time>:
	...

00000210 <PPMResult>:
	...

00000228 <PPMChecker>:
 228:	01 00       	.word	0x0001;	????	

0000022a <PPM_ch_counter>:
	...
Disassembly of section .vectors:

0000ffe0 <InterruptVectors>:
    ffe0:	30 e0       	interrupt service routine at 0xe030
    ffe2:	30 e0       	interrupt service routine at 0xe030
    ffe4:	84 ea       	interrupt service routine at 0xea84
    ffe6:	0c eb       	interrupt service routine at 0xeb0c
    ffe8:	30 e0       	interrupt service routine at 0xe030
    ffea:	30 e0       	interrupt service routine at 0xe030
    ffec:	30 e0       	interrupt service routine at 0xe030
    ffee:	30 e0       	interrupt service routine at 0xe030
    fff0:	30 e0       	interrupt service routine at 0xe030
    fff2:	30 e0       	interrupt service routine at 0xe030
    fff4:	30 e0       	interrupt service routine at 0xe030
    fff6:	30 e0       	interrupt service routine at 0xe030
    fff8:	30 e0       	interrupt service routine at 0xe030
    fffa:	30 e0       	interrupt service routine at 0xe030
    fffc:	30 e0       	interrupt service routine at 0xe030
    fffe:	00 e0       	interrupt service routine at 0xe000
Disassembly of section .stab:

00000000 <.stab>:
       0:	01 00       	.word	0x0001;	????	
       2:	00 00       	.word	0x0000;	????	
       4:	00 00       	.word	0x0000;	????	
       6:	c5 02       	.word	0x02c5;	????	
       8:	ce 20       	jnz	$+414    	;abs 0x1a6
       a:	00 00       	.word	0x0000;	????	
       c:	01 00       	.word	0x0001;	????	
       e:	00 00       	.word	0x0000;	????	
      10:	64 00       	.word	0x0064;	????	
      12:	00 00       	.word	0x0000;	????	
      14:	30 e0 00 00 	xor	#0,	r0	;#0x0000
      18:	2b 00       	.word	0x002b;	????	
      1a:	00 00       	.word	0x0000;	????	
      1c:	84 00       	.word	0x0084;	????	
      1e:	00 00       	.word	0x0000;	????	
      20:	30 e0 00 00 	xor	#0,	r0	;#0x0000
      24:	00 00       	.word	0x0000;	????	
      26:	00 00       	.word	0x0000;	????	
      28:	44 00       	.word	0x0044;	????	
      2a:	28 00       	.word	0x0028;	????	
      2c:	30 e0 00 00 	xor	#0,	r0	;#0x0000
      30:	00 00       	.word	0x0000;	????	
      32:	00 00       	.word	0x0000;	????	
      34:	44 00       	.word	0x0044;	????	
      36:	2a 00       	.word	0x002a;	????	
      38:	34 e0 00 00 	xor	#0,	r4	;#0x0000
      3c:	00 00       	.word	0x0000;	????	
      3e:	00 00       	.word	0x0000;	????	
      40:	44 00       	.word	0x0044;	????	
      42:	74 00       	.word	0x0074;	????	
      44:	e0 ff 00 00 	and.b	@r15,	0x0000	;PC rel. 0x00048
      48:	00 00       	.word	0x0000;	????	
      4a:	00 00       	.word	0x0000;	????	
      4c:	44 00       	.word	0x0044;	????	
      4e:	75 00       	.word	0x0075;	????	
      50:	e2 ff 00 00 	and.b	@r15,	&0x0000	
      54:	00 00       	.word	0x0000;	????	
      56:	00 00       	.word	0x0000;	????	
      58:	44 00       	.word	0x0044;	????	
      5a:	76 00       	.word	0x0076;	????	
      5c:	e4 ff 00 00 	and.b	@r15,	0(r4)	;0x0000(r4)
      60:	00 00       	.word	0x0000;	????	
      62:	00 00       	.word	0x0000;	????	
      64:	44 00       	.word	0x0044;	????	
      66:	77 00       	.word	0x0077;	????	
      68:	e6 ff 00 00 	and.b	@r15,	0(r6)	;0x0000(r6)
      6c:	00 00       	.word	0x0000;	????	
      6e:	00 00       	.word	0x0000;	????	
      70:	44 00       	.word	0x0044;	????	
      72:	78 00       	.word	0x0078;	????	
      74:	e8 ff 00 00 	and.b	@r15,	0(r8)	;0x0000(r8)
      78:	00 00       	.word	0x0000;	????	
      7a:	00 00       	.word	0x0000;	????	
      7c:	44 00       	.word	0x0044;	????	
      7e:	79 00       	.word	0x0079;	????	
      80:	ea ff 00 00 	and.b	@r15,	0(r10)	;0x0000(r10)
      84:	00 00       	.word	0x0000;	????	
      86:	00 00       	.word	0x0000;	????	
      88:	44 00       	.word	0x0044;	????	
      8a:	7a 00       	.word	0x007a;	????	
      8c:	ec ff 00 00 	and.b	@r15,	0(r12)	;0x0000(r12)
      90:	00 00       	.word	0x0000;	????	
      92:	00 00       	.word	0x0000;	????	
      94:	44 00       	.word	0x0044;	????	
      96:	7b 00       	.word	0x007b;	????	
      98:	ee ff 00 00 	and.b	@r15,	0(r14)	;0x0000(r14)
      9c:	00 00       	.word	0x0000;	????	
      9e:	00 00       	.word	0x0000;	????	
      a0:	44 00       	.word	0x0044;	????	
      a2:	7c 00       	.word	0x007c;	????	
      a4:	f0 ff 00 00 	and.b	@r15+,	0x0000	;PC rel. 0x000a8
      a8:	00 00       	.word	0x0000;	????	
      aa:	00 00       	.word	0x0000;	????	
      ac:	44 00       	.word	0x0044;	????	
      ae:	7d 00       	.word	0x007d;	????	
      b0:	f2 ff 00 00 	and.b	@r15+,	&0x0000	
      b4:	00 00       	.word	0x0000;	????	
      b6:	00 00       	.word	0x0000;	????	
      b8:	44 00       	.word	0x0044;	????	
      ba:	7e 00       	.word	0x007e;	????	
      bc:	f4 ff 00 00 	and.b	@r15+,	0(r4)	;0x0000(r4)
      c0:	00 00       	.word	0x0000;	????	
      c2:	00 00       	.word	0x0000;	????	
      c4:	44 00       	.word	0x0044;	????	
      c6:	7f 00       	.word	0x007f;	????	
      c8:	f6 ff 00 00 	and.b	@r15+,	0(r6)	;0x0000(r6)
      cc:	00 00       	.word	0x0000;	????	
      ce:	00 00       	.word	0x0000;	????	
      d0:	44 00       	.word	0x0044;	????	
      d2:	80 00       	.word	0x0080;	????	
      d4:	f8 ff 00 00 	and.b	@r15+,	0(r8)	;0x0000(r8)
      d8:	00 00       	.word	0x0000;	????	
      da:	00 00       	.word	0x0000;	????	
      dc:	44 00       	.word	0x0044;	????	
      de:	81 00       	.word	0x0081;	????	
      e0:	fa ff 00 00 	and.b	@r15+,	0(r10)	;0x0000(r10)
      e4:	00 00       	.word	0x0000;	????	
      e6:	00 00       	.word	0x0000;	????	
      e8:	44 00       	.word	0x0044;	????	
      ea:	82 00       	.word	0x0082;	????	
      ec:	fc ff 00 00 	and.b	@r15+,	0(r12)	;0x0000(r12)
      f0:	33 00       	.word	0x0033;	????	
      f2:	00 00       	.word	0x0000;	????	
      f4:	64 00       	.word	0x0064;	????	
      f6:	00 00       	.word	0x0000;	????	
      f8:	36 e0 00 00 	xor	#0,	r6	;#0x0000
      fc:	5f 00       	.word	0x005f;	????	
      fe:	00 00       	.word	0x0000;	????	
     100:	64 00       	.word	0x0064;	????	
     102:	00 00       	.word	0x0000;	????	
     104:	36 e0 00 00 	xor	#0,	r6	;#0x0000
     108:	6d 00       	.word	0x006d;	????	
     10a:	00 00       	.word	0x0000;	????	
     10c:	3c 00       	.word	0x003c;	????	
     10e:	00 00       	.word	0x0000;	????	
     110:	00 00       	.word	0x0000;	????	
     112:	00 00       	.word	0x0000;	????	
     114:	7c 00       	.word	0x007c;	????	
     116:	00 00       	.word	0x0000;	????	
     118:	80 00       	.word	0x0080;	????	
     11a:	00 00       	.word	0x0000;	????	
     11c:	00 00       	.word	0x0000;	????	
     11e:	00 00       	.word	0x0000;	????	
     120:	9c 00       	.word	0x009c;	????	
     122:	00 00       	.word	0x0000;	????	
     124:	80 00       	.word	0x0080;	????	
     126:	00 00       	.word	0x0000;	????	
     128:	00 00       	.word	0x0000;	????	
     12a:	00 00       	.word	0x0000;	????	
     12c:	b6 00       	.word	0x00b6;	????	
     12e:	00 00       	.word	0x0000;	????	
     130:	80 00       	.word	0x0080;	????	
     132:	00 00       	.word	0x0000;	????	
     134:	00 00       	.word	0x0000;	????	
     136:	00 00       	.word	0x0000;	????	
     138:	ef 00       	.word	0x00ef;	????	
     13a:	00 00       	.word	0x0000;	????	
     13c:	80 00       	.word	0x0080;	????	
     13e:	00 00       	.word	0x0000;	????	
     140:	00 00       	.word	0x0000;	????	
     142:	00 00       	.word	0x0000;	????	
     144:	27 01       	.word	0x0127;	????	
     146:	00 00       	.word	0x0000;	????	
     148:	80 00       	.word	0x0080;	????	
     14a:	00 00       	.word	0x0000;	????	
     14c:	00 00       	.word	0x0000;	????	
     14e:	00 00       	.word	0x0000;	????	
     150:	69 01       	.word	0x0169;	????	
     152:	00 00       	.word	0x0000;	????	
     154:	80 00       	.word	0x0080;	????	
     156:	00 00       	.word	0x0000;	????	
     158:	00 00       	.word	0x0000;	????	
     15a:	00 00       	.word	0x0000;	????	
     15c:	ba 01       	.word	0x01ba;	????	
     15e:	00 00       	.word	0x0000;	????	
     160:	80 00       	.word	0x0080;	????	
     162:	00 00       	.word	0x0000;	????	
     164:	00 00       	.word	0x0000;	????	
     166:	00 00       	.word	0x0000;	????	
     168:	0b 02       	.word	0x020b;	????	
     16a:	00 00       	.word	0x0000;	????	
     16c:	80 00       	.word	0x0080;	????	
     16e:	00 00       	.word	0x0000;	????	
     170:	00 00       	.word	0x0000;	????	
     172:	00 00       	.word	0x0000;	????	
     174:	31 02       	.word	0x0231;	????	
     176:	00 00       	.word	0x0000;	????	
     178:	80 00       	.word	0x0080;	????	
     17a:	00 00       	.word	0x0000;	????	
     17c:	00 00       	.word	0x0000;	????	
     17e:	00 00       	.word	0x0000;	????	
     180:	6f 02       	.word	0x026f;	????	
     182:	00 00       	.word	0x0000;	????	
     184:	80 00       	.word	0x0080;	????	
     186:	00 00       	.word	0x0000;	????	
     188:	00 00       	.word	0x0000;	????	
     18a:	00 00       	.word	0x0000;	????	
     18c:	99 02       	.word	0x0299;	????	
     18e:	00 00       	.word	0x0000;	????	
     190:	80 00       	.word	0x0080;	????	
     192:	00 00       	.word	0x0000;	????	
     194:	00 00       	.word	0x0000;	????	
     196:	00 00       	.word	0x0000;	????	
     198:	c2 02       	.word	0x02c2;	????	
     19a:	00 00       	.word	0x0000;	????	
     19c:	80 00       	.word	0x0080;	????	
     19e:	00 00       	.word	0x0000;	????	
     1a0:	00 00       	.word	0x0000;	????	
     1a2:	00 00       	.word	0x0000;	????	
     1a4:	dc 02       	.word	0x02dc;	????	
     1a6:	00 00       	.word	0x0000;	????	
     1a8:	80 00       	.word	0x0080;	????	
     1aa:	00 00       	.word	0x0000;	????	
     1ac:	00 00       	.word	0x0000;	????	
     1ae:	00 00       	.word	0x0000;	????	
     1b0:	f7 02       	.word	0x02f7;	????	
     1b2:	00 00       	.word	0x0000;	????	
     1b4:	80 00       	.word	0x0080;	????	
     1b6:	00 00       	.word	0x0000;	????	
     1b8:	00 00       	.word	0x0000;	????	
     1ba:	00 00       	.word	0x0000;	????	
     1bc:	17 03       	.word	0x0317;	????	
     1be:	00 00       	.word	0x0000;	????	
     1c0:	80 00       	.word	0x0080;	????	
     1c2:	00 00       	.word	0x0000;	????	
     1c4:	00 00       	.word	0x0000;	????	
     1c6:	00 00       	.word	0x0000;	????	
     1c8:	50 03       	.word	0x0350;	????	
     1ca:	00 00       	.word	0x0000;	????	
     1cc:	80 00       	.word	0x0080;	????	
     1ce:	00 00       	.word	0x0000;	????	
     1d0:	00 00       	.word	0x0000;	????	
     1d2:	00 00       	.word	0x0000;	????	
     1d4:	6e 03       	.word	0x036e;	????	
     1d6:	00 00       	.word	0x0000;	????	
     1d8:	80 00       	.word	0x0080;	????	
     1da:	00 00       	.word	0x0000;	????	
     1dc:	00 00       	.word	0x0000;	????	
     1de:	00 00       	.word	0x0000;	????	
     1e0:	8d 03       	.word	0x038d;	????	
     1e2:	00 00       	.word	0x0000;	????	
     1e4:	80 00       	.word	0x0080;	????	
     1e6:	00 00       	.word	0x0000;	????	
     1e8:	00 00       	.word	0x0000;	????	
     1ea:	00 00       	.word	0x0000;	????	
     1ec:	b1 03       	.word	0x03b1;	????	
     1ee:	00 00       	.word	0x0000;	????	
     1f0:	80 00       	.word	0x0080;	????	
     1f2:	00 00       	.word	0x0000;	????	
     1f4:	00 00       	.word	0x0000;	????	
     1f6:	00 00       	.word	0x0000;	????	
     1f8:	da 03       	.word	0x03da;	????	
     1fa:	00 00       	.word	0x0000;	????	
     1fc:	80 00       	.word	0x0080;	????	
     1fe:	00 00       	.word	0x0000;	????	
     200:	00 00       	.word	0x0000;	????	
     202:	00 00       	.word	0x0000;	????	
     204:	5f 00       	.word	0x005f;	????	
     206:	00 00       	.word	0x0000;	????	
     208:	82 00       	.word	0x0082;	????	
     20a:	00 00       	.word	0x0000;	????	
     20c:	ae 36       	jge	$-674    	;abs 0xff6a
     20e:	01 00       	.word	0x0001;	????	
     210:	f1 03       	.word	0x03f1;	????	
     212:	00 00       	.word	0x0000;	????	
     214:	82 00       	.word	0x0082;	????	
	...
     21e:	00 00       	.word	0x0000;	????	
     220:	a2 00       	.word	0x00a2;	????	
     222:	00 00       	.word	0x0000;	????	
     224:	00 00       	.word	0x0000;	????	
     226:	00 00       	.word	0x0000;	????	
     228:	fb 03       	.word	0x03fb;	????	
     22a:	00 00       	.word	0x0000;	????	
     22c:	82 00       	.word	0x0082;	????	
	...
     236:	00 00       	.word	0x0000;	????	
     238:	a2 00       	.word	0x00a2;	????	
     23a:	00 00       	.word	0x0000;	????	
     23c:	00 00       	.word	0x0000;	????	
     23e:	00 00       	.word	0x0000;	????	
     240:	03 04       	.word	0x0403;	????	
     242:	00 00       	.word	0x0000;	????	
     244:	82 00       	.word	0x0082;	????	
	...
     24e:	00 00       	.word	0x0000;	????	
     250:	a2 00       	.word	0x00a2;	????	
     252:	00 00       	.word	0x0000;	????	
     254:	00 00       	.word	0x0000;	????	
     256:	00 00       	.word	0x0000;	????	
     258:	0c 04       	.word	0x040c;	????	
     25a:	00 00       	.word	0x0000;	????	
     25c:	82 00       	.word	0x0082;	????	
     25e:	00 00       	.word	0x0000;	????	
     260:	00 00       	.word	0x0000;	????	
     262:	00 00       	.word	0x0000;	????	
     264:	33 04       	.word	0x0433;	????	
     266:	00 00       	.word	0x0000;	????	
     268:	82 00       	.word	0x0082;	????	
     26a:	00 00       	.word	0x0000;	????	
     26c:	00 00       	.word	0x0000;	????	
     26e:	00 00       	.word	0x0000;	????	
     270:	57 04       	.word	0x0457;	????	
     272:	00 00       	.word	0x0000;	????	
     274:	82 00       	.word	0x0082;	????	
     276:	00 00       	.word	0x0000;	????	
     278:	91 34       	jge	$+292    	;abs 0x39c
     27a:	00 00       	.word	0x0000;	????	
     27c:	7f 04       	.word	0x047f;	????	
     27e:	00 00       	.word	0x0000;	????	
     280:	80 00       	.word	0x0080;	????	
     282:	26 00       	.word	0x0026;	????	
     284:	00 00       	.word	0x0000;	????	
     286:	00 00       	.word	0x0000;	????	
     288:	94 04       	.word	0x0494;	????	
     28a:	00 00       	.word	0x0000;	????	
     28c:	80 00       	.word	0x0080;	????	
     28e:	27 00       	.word	0x0027;	????	
     290:	00 00       	.word	0x0000;	????	
     292:	00 00       	.word	0x0000;	????	
     294:	aa 04       	.word	0x04aa;	????	
     296:	00 00       	.word	0x0000;	????	
     298:	80 00       	.word	0x0080;	????	
     29a:	29 00       	.word	0x0029;	????	
     29c:	00 00       	.word	0x0000;	????	
     29e:	00 00       	.word	0x0000;	????	
     2a0:	bf 04       	.word	0x04bf;	????	
     2a2:	00 00       	.word	0x0000;	????	
     2a4:	80 00       	.word	0x0080;	????	
     2a6:	2a 00       	.word	0x002a;	????	
     2a8:	00 00       	.word	0x0000;	????	
     2aa:	00 00       	.word	0x0000;	????	
     2ac:	d5 04       	.word	0x04d5;	????	
     2ae:	00 00       	.word	0x0000;	????	
     2b0:	80 00       	.word	0x0080;	????	
     2b2:	2c 00       	.word	0x002c;	????	
     2b4:	00 00       	.word	0x0000;	????	
     2b6:	00 00       	.word	0x0000;	????	
     2b8:	ea 04       	.word	0x04ea;	????	
     2ba:	00 00       	.word	0x0000;	????	
     2bc:	80 00       	.word	0x0080;	????	
     2be:	2d 00       	.word	0x002d;	????	
     2c0:	00 00       	.word	0x0000;	????	
     2c2:	00 00       	.word	0x0000;	????	
     2c4:	00 05       	.word	0x0500;	????	
     2c6:	00 00       	.word	0x0000;	????	
     2c8:	80 00       	.word	0x0080;	????	
     2ca:	2f 00       	.word	0x002f;	????	
     2cc:	00 00       	.word	0x0000;	????	
     2ce:	00 00       	.word	0x0000;	????	
     2d0:	15 05       	.word	0x0515;	????	
     2d2:	00 00       	.word	0x0000;	????	
     2d4:	80 00       	.word	0x0080;	????	
     2d6:	30 00       	.word	0x0030;	????	
     2d8:	00 00       	.word	0x0000;	????	
     2da:	00 00       	.word	0x0000;	????	
     2dc:	2b 05       	.word	0x052b;	????	
     2de:	00 00       	.word	0x0000;	????	
     2e0:	80 00       	.word	0x0080;	????	
     2e2:	35 00       	.word	0x0035;	????	
     2e4:	00 00       	.word	0x0000;	????	
     2e6:	00 00       	.word	0x0000;	????	
     2e8:	41 05       	.word	0x0541;	????	
     2ea:	00 00       	.word	0x0000;	????	
     2ec:	80 00       	.word	0x0080;	????	
     2ee:	36 00       	.word	0x0036;	????	
	...
     2f8:	a2 00       	.word	0x00a2;	????	
	...
     302:	00 00       	.word	0x0000;	????	
     304:	a2 00       	.word	0x00a2;	????	
     306:	00 00       	.word	0x0000;	????	
     308:	00 00       	.word	0x0000;	????	
     30a:	00 00       	.word	0x0000;	????	
     30c:	59 05       	.word	0x0559;	????	
     30e:	00 00       	.word	0x0000;	????	
     310:	82 00       	.word	0x0082;	????	
	...
     31a:	00 00       	.word	0x0000;	????	
     31c:	a2 00       	.word	0x00a2;	????	
     31e:	00 00       	.word	0x0000;	????	
     320:	00 00       	.word	0x0000;	????	
     322:	00 00       	.word	0x0000;	????	
     324:	87 05       	.word	0x0587;	????	
     326:	00 00       	.word	0x0000;	????	
     328:	82 00       	.word	0x0082;	????	
	...
     332:	00 00       	.word	0x0000;	????	
     334:	a2 00       	.word	0x00a2;	????	
     336:	00 00       	.word	0x0000;	????	
     338:	00 00       	.word	0x0000;	????	
     33a:	00 00       	.word	0x0000;	????	
     33c:	af 05       	.word	0x05af;	????	
     33e:	00 00       	.word	0x0000;	????	
     340:	82 00       	.word	0x0082;	????	
	...
     34a:	00 00       	.word	0x0000;	????	
     34c:	a2 00       	.word	0x00a2;	????	
     34e:	00 00       	.word	0x0000;	????	
     350:	00 00       	.word	0x0000;	????	
     352:	00 00       	.word	0x0000;	????	
     354:	d7 05       	.word	0x05d7;	????	
     356:	00 00       	.word	0x0000;	????	
     358:	82 00       	.word	0x0082;	????	
     35a:	00 00       	.word	0x0000;	????	
     35c:	3e 8a       	sub	@r10+,	r14	
     35e:	00 00       	.word	0x0000;	????	
     360:	00 06       	.word	0x0600;	????	
     362:	00 00       	.word	0x0000;	????	
     364:	80 00       	.word	0x0080;	????	
     366:	84 00       	.word	0x0084;	????	
     368:	00 00       	.word	0x0000;	????	
     36a:	00 00       	.word	0x0000;	????	
     36c:	89 06       	.word	0x0689;	????	
     36e:	00 00       	.word	0x0000;	????	
     370:	80 00       	.word	0x0080;	????	
     372:	94 00       	.word	0x0094;	????	
     374:	00 00       	.word	0x0000;	????	
     376:	00 00       	.word	0x0000;	????	
     378:	5a 07       	.word	0x075a;	????	
     37a:	00 00       	.word	0x0000;	????	
     37c:	80 00       	.word	0x0080;	????	
	...
     386:	00 00       	.word	0x0000;	????	
     388:	a2 00       	.word	0x00a2;	????	
     38a:	00 00       	.word	0x0000;	????	
     38c:	00 00       	.word	0x0000;	????	
     38e:	00 00       	.word	0x0000;	????	
     390:	5a 08       	.word	0x085a;	????	
     392:	00 00       	.word	0x0000;	????	
     394:	82 00       	.word	0x0082;	????	
     396:	00 00       	.word	0x0000;	????	
     398:	40 88       	sub.b	r8,	r0	
     39a:	00 00       	.word	0x0000;	????	
     39c:	83 08       	.word	0x0883;	????	
     39e:	00 00       	.word	0x0000;	????	
     3a0:	80 00       	.word	0x0080;	????	
     3a2:	4c 00       	.word	0x004c;	????	
     3a4:	00 00       	.word	0x0000;	????	
     3a6:	00 00       	.word	0x0000;	????	
     3a8:	44 09       	.word	0x0944;	????	
     3aa:	00 00       	.word	0x0000;	????	
     3ac:	80 00       	.word	0x0080;	????	
     3ae:	5b 00       	.word	0x005b;	????	
     3b0:	00 00       	.word	0x0000;	????	
     3b2:	00 00       	.word	0x0000;	????	
     3b4:	04 0a       	.word	0x0a04;	????	
     3b6:	00 00       	.word	0x0000;	????	
     3b8:	80 00       	.word	0x0080;	????	
	...
     3c2:	00 00       	.word	0x0000;	????	
     3c4:	a2 00       	.word	0x00a2;	????	
     3c6:	00 00       	.word	0x0000;	????	
     3c8:	00 00       	.word	0x0000;	????	
     3ca:	00 00       	.word	0x0000;	????	
     3cc:	c3 0a       	.word	0x0ac3;	????	
     3ce:	00 00       	.word	0x0000;	????	
     3d0:	82 00       	.word	0x0082;	????	
     3d2:	00 00       	.word	0x0000;	????	
     3d4:	00 00       	.word	0x0000;	????	
     3d6:	00 00       	.word	0x0000;	????	
     3d8:	ea 0a       	.word	0x0aea;	????	
     3da:	00 00       	.word	0x0000;	????	
     3dc:	82 00       	.word	0x0082;	????	
     3de:	00 00       	.word	0x0000;	????	
     3e0:	c1 68 00 00 	addc.b	r8,	0(r1)	;0x0000(r1)
     3e4:	19 0b       	.word	0x0b19;	????	
     3e6:	00 00       	.word	0x0000;	????	
     3e8:	80 00       	.word	0x0080;	????	
     3ea:	00 00       	.word	0x0000;	????	
     3ec:	00 00       	.word	0x0000;	????	
     3ee:	00 00       	.word	0x0000;	????	
     3f0:	d1 0b       	.word	0x0bd1;	????	
     3f2:	00 00       	.word	0x0000;	????	
     3f4:	80 00       	.word	0x0080;	????	
     3f6:	27 00       	.word	0x0027;	????	
     3f8:	00 00       	.word	0x0000;	????	
     3fa:	00 00       	.word	0x0000;	????	
     3fc:	ed 0b       	.word	0x0bed;	????	
     3fe:	00 00       	.word	0x0000;	????	
     400:	80 00       	.word	0x0080;	????	
     402:	00 00       	.word	0x0000;	????	
     404:	00 00       	.word	0x0000;	????	
     406:	00 00       	.word	0x0000;	????	
     408:	8c 0c       	.word	0x0c8c;	????	
     40a:	00 00       	.word	0x0000;	????	
     40c:	80 00       	.word	0x0080;	????	
	...
     416:	00 00       	.word	0x0000;	????	
     418:	a2 00       	.word	0x00a2;	????	
	...
     422:	00 00       	.word	0x0000;	????	
     424:	a2 00       	.word	0x00a2;	????	
     426:	00 00       	.word	0x0000;	????	
     428:	00 00       	.word	0x0000;	????	
     42a:	00 00       	.word	0x0000;	????	
     42c:	e8 0c       	.word	0x0ce8;	????	
     42e:	00 00       	.word	0x0000;	????	
     430:	82 00       	.word	0x0082;	????	
     432:	00 00       	.word	0x0000;	????	
     434:	cd 5c 00 00 	add.b	r12,	0(r13)	;0x0000(r13)
     438:	10 0d       	.word	0x0d10;	????	
     43a:	00 00       	.word	0x0000;	????	
     43c:	80 00       	.word	0x0080;	????	
     43e:	38 00       	.word	0x0038;	????	
     440:	00 00       	.word	0x0000;	????	
     442:	00 00       	.word	0x0000;	????	
     444:	da 0d       	.word	0x0dda;	????	
     446:	00 00       	.word	0x0000;	????	
     448:	80 00       	.word	0x0080;	????	
     44a:	40 00       	.word	0x0040;	????	
     44c:	00 00       	.word	0x0000;	????	
     44e:	00 00       	.word	0x0000;	????	
     450:	45 0e       	.word	0x0e45;	????	
     452:	00 00       	.word	0x0000;	????	
     454:	80 00       	.word	0x0080;	????	
	...
     45e:	00 00       	.word	0x0000;	????	
     460:	a2 00       	.word	0x00a2;	????	
     462:	00 00       	.word	0x0000;	????	
     464:	00 00       	.word	0x0000;	????	
     466:	00 00       	.word	0x0000;	????	
     468:	9a 0e       	.word	0x0e9a;	????	
     46a:	00 00       	.word	0x0000;	????	
     46c:	82 00       	.word	0x0082;	????	
	...
     476:	00 00       	.word	0x0000;	????	
     478:	a2 00       	.word	0x00a2;	????	
     47a:	00 00       	.word	0x0000;	????	
     47c:	00 00       	.word	0x0000;	????	
     47e:	00 00       	.word	0x0000;	????	
     480:	c1 0e       	.word	0x0ec1;	????	
     482:	00 00       	.word	0x0000;	????	
     484:	82 00       	.word	0x0082;	????	
	...
     48e:	00 00       	.word	0x0000;	????	
     490:	a2 00       	.word	0x00a2;	????	
	...
     49a:	00 00       	.word	0x0000;	????	
     49c:	a2 00       	.word	0x00a2;	????	
     49e:	00 00       	.word	0x0000;	????	
     4a0:	00 00       	.word	0x0000;	????	
     4a2:	00 00       	.word	0x0000;	????	
     4a4:	ea 0e       	.word	0x0eea;	????	
     4a6:	00 00       	.word	0x0000;	????	
     4a8:	82 00       	.word	0x0082;	????	
     4aa:	00 00       	.word	0x0000;	????	
     4ac:	3c 1a       	.word	0x1a3c;	????	
     4ae:	00 00       	.word	0x0000;	????	
     4b0:	0c 0f       	.word	0x0f0c;	????	
     4b2:	00 00       	.word	0x0000;	????	
     4b4:	82 00       	.word	0x0082;	????	
     4b6:	00 00       	.word	0x0000;	????	
     4b8:	13 10       	rrc	#1		;r3 As==01
     4ba:	00 00       	.word	0x0000;	????	
     4bc:	40 0f       	.word	0x0f40;	????	
     4be:	00 00       	.word	0x0000;	????	
     4c0:	80 00       	.word	0x0080;	????	
     4c2:	97 00       	.word	0x0097;	????	
     4c4:	00 00       	.word	0x0000;	????	
     4c6:	00 00       	.word	0x0000;	????	
     4c8:	58 0f       	.word	0x0f58;	????	
     4ca:	00 00       	.word	0x0000;	????	
     4cc:	80 00       	.word	0x0080;	????	
     4ce:	d5 00       	.word	0x00d5;	????	
     4d0:	00 00       	.word	0x0000;	????	
     4d2:	00 00       	.word	0x0000;	????	
     4d4:	6d 0f       	.word	0x0f6d;	????	
     4d6:	00 00       	.word	0x0000;	????	
     4d8:	80 00       	.word	0x0080;	????	
     4da:	45 01       	.word	0x0145;	????	
	...
     4e4:	a2 00       	.word	0x00a2;	????	
     4e6:	00 00       	.word	0x0000;	????	
     4e8:	00 00       	.word	0x0000;	????	
     4ea:	00 00       	.word	0x0000;	????	
     4ec:	83 0f       	.word	0x0f83;	????	
     4ee:	00 00       	.word	0x0000;	????	
     4f0:	82 00       	.word	0x0082;	????	
     4f2:	00 00       	.word	0x0000;	????	
     4f4:	ea a9 00 00 	dadd.b	@r9,	0(r10)	;0x0000(r10)
     4f8:	a8 0f       	.word	0x0fa8;	????	
     4fa:	00 00       	.word	0x0000;	????	
     4fc:	82 00       	.word	0x0082;	????	
	...
     506:	00 00       	.word	0x0000;	????	
     508:	a2 00       	.word	0x00a2;	????	
     50a:	00 00       	.word	0x0000;	????	
     50c:	00 00       	.word	0x0000;	????	
     50e:	00 00       	.word	0x0000;	????	
     510:	cd 0f       	.word	0x0fcd;	????	
     512:	00 00       	.word	0x0000;	????	
     514:	80 00       	.word	0x0080;	????	
     516:	29 00       	.word	0x0029;	????	
     518:	00 00       	.word	0x0000;	????	
     51a:	00 00       	.word	0x0000;	????	
     51c:	e3 0f       	.word	0x0fe3;	????	
     51e:	00 00       	.word	0x0000;	????	
     520:	80 00       	.word	0x0080;	????	
     522:	2a 00       	.word	0x002a;	????	
     524:	00 00       	.word	0x0000;	????	
     526:	00 00       	.word	0x0000;	????	
     528:	f9 0f       	.word	0x0ff9;	????	
     52a:	00 00       	.word	0x0000;	????	
     52c:	80 00       	.word	0x0080;	????	
     52e:	2b 00       	.word	0x002b;	????	
     530:	00 00       	.word	0x0000;	????	
     532:	00 00       	.word	0x0000;	????	
     534:	0d 10       	rrc	r13		
     536:	00 00       	.word	0x0000;	????	
     538:	80 00       	.word	0x0080;	????	
     53a:	2c 00       	.word	0x002c;	????	
     53c:	00 00       	.word	0x0000;	????	
     53e:	00 00       	.word	0x0000;	????	
     540:	22 10       	rrc	#4		;r2 As==10
     542:	00 00       	.word	0x0000;	????	
     544:	80 00       	.word	0x0080;	????	
     546:	2d 00       	.word	0x002d;	????	
     548:	00 00       	.word	0x0000;	????	
     54a:	00 00       	.word	0x0000;	????	
     54c:	37 10       	rrc	@r7+		
     54e:	00 00       	.word	0x0000;	????	
     550:	80 00       	.word	0x0080;	????	
     552:	2e 00       	.word	0x002e;	????	
     554:	00 00       	.word	0x0000;	????	
     556:	00 00       	.word	0x0000;	????	
     558:	4a 10       	rrc.b	r10		
     55a:	00 00       	.word	0x0000;	????	
     55c:	80 00       	.word	0x0080;	????	
     55e:	30 00       	.word	0x0030;	????	
     560:	00 00       	.word	0x0000;	????	
     562:	00 00       	.word	0x0000;	????	
     564:	61 10       	rrc.b	@r1		
     566:	00 00       	.word	0x0000;	????	
     568:	80 00       	.word	0x0080;	????	
     56a:	31 00       	.word	0x0031;	????	
     56c:	00 00       	.word	0x0000;	????	
     56e:	00 00       	.word	0x0000;	????	
     570:	79 10       	rrc.b	@r9+		
     572:	00 00       	.word	0x0000;	????	
     574:	80 00       	.word	0x0080;	????	
     576:	32 00       	.word	0x0032;	????	
     578:	00 00       	.word	0x0000;	????	
     57a:	00 00       	.word	0x0000;	????	
     57c:	91 10 00 00 	swpb	0(r1)		;0x0000(r1)
     580:	80 00       	.word	0x0080;	????	
     582:	33 00       	.word	0x0033;	????	
     584:	00 00       	.word	0x0000;	????	
     586:	00 00       	.word	0x0000;	????	
     588:	aa 10       	swpb	@r10		
     58a:	00 00       	.word	0x0000;	????	
     58c:	80 00       	.word	0x0080;	????	
     58e:	35 00       	.word	0x0035;	????	
     590:	00 00       	.word	0x0000;	????	
     592:	00 00       	.word	0x0000;	????	
     594:	c4 10       	.word	0x10c4;	????	
     596:	00 00       	.word	0x0000;	????	
     598:	80 00       	.word	0x0080;	????	
     59a:	36 00       	.word	0x0036;	????	
     59c:	00 00       	.word	0x0000;	????	
     59e:	00 00       	.word	0x0000;	????	
     5a0:	da 10       	.word	0x10da;	????	
     5a2:	00 00       	.word	0x0000;	????	
     5a4:	80 00       	.word	0x0080;	????	
     5a6:	37 00       	.word	0x0037;	????	
     5a8:	00 00       	.word	0x0000;	????	
     5aa:	00 00       	.word	0x0000;	????	
     5ac:	fc 10       	.word	0x10fc;	????	
     5ae:	00 00       	.word	0x0000;	????	
     5b0:	80 00       	.word	0x0080;	????	
     5b2:	39 00       	.word	0x0039;	????	
     5b4:	00 00       	.word	0x0000;	????	
     5b6:	00 00       	.word	0x0000;	????	
     5b8:	1c 11 00 00 	rra	0(r12)		;0x0000(r12)
     5bc:	80 00       	.word	0x0080;	????	
     5be:	3a 00       	.word	0x003a;	????	
     5c0:	00 00       	.word	0x0000;	????	
     5c2:	00 00       	.word	0x0000;	????	
     5c4:	47 11       	rra.b	r7		
     5c6:	00 00       	.word	0x0000;	????	
     5c8:	80 00       	.word	0x0080;	????	
     5ca:	3b 00       	.word	0x003b;	????	
     5cc:	00 00       	.word	0x0000;	????	
     5ce:	00 00       	.word	0x0000;	????	
     5d0:	72 11       	rra.b	#8		;r2 As==11
     5d2:	00 00       	.word	0x0000;	????	
     5d4:	80 00       	.word	0x0080;	????	
     5d6:	3c 00       	.word	0x003c;	????	
     5d8:	00 00       	.word	0x0000;	????	
     5da:	00 00       	.word	0x0000;	????	
     5dc:	8a 11       	sxt	r10		
     5de:	00 00       	.word	0x0000;	????	
     5e0:	80 00       	.word	0x0080;	????	
     5e2:	3d 00       	.word	0x003d;	????	
     5e4:	00 00       	.word	0x0000;	????	
     5e6:	00 00       	.word	0x0000;	????	
     5e8:	a0 11       	sxt	@r0		
     5ea:	00 00       	.word	0x0000;	????	
     5ec:	80 00       	.word	0x0080;	????	
     5ee:	3e 00       	.word	0x003e;	????	
     5f0:	00 00       	.word	0x0000;	????	
     5f2:	00 00       	.word	0x0000;	????	
     5f4:	ba 11       	sxt	@r10+		
     5f6:	00 00       	.word	0x0000;	????	
     5f8:	80 00       	.word	0x0080;	????	
     5fa:	3f 00       	.word	0x003f;	????	
     5fc:	00 00       	.word	0x0000;	????	
     5fe:	00 00       	.word	0x0000;	????	
     600:	d4 11       	.word	0x11d4;	????	
     602:	00 00       	.word	0x0000;	????	
     604:	80 00       	.word	0x0080;	????	
     606:	40 00       	.word	0x0040;	????	
     608:	00 00       	.word	0x0000;	????	
     60a:	00 00       	.word	0x0000;	????	
     60c:	ea 11       	.word	0x11ea;	????	
     60e:	00 00       	.word	0x0000;	????	
     610:	80 00       	.word	0x0080;	????	
     612:	41 00       	.word	0x0041;	????	
     614:	00 00       	.word	0x0000;	????	
     616:	00 00       	.word	0x0000;	????	
     618:	ff 11       	.word	0x11ff;	????	
     61a:	00 00       	.word	0x0000;	????	
     61c:	80 00       	.word	0x0080;	????	
     61e:	42 00       	.word	0x0042;	????	
     620:	00 00       	.word	0x0000;	????	
     622:	00 00       	.word	0x0000;	????	
     624:	16 12 00 00 	push	0(r6)		;0x0000(r6)
     628:	80 00       	.word	0x0080;	????	
     62a:	43 00       	.word	0x0043;	????	
     62c:	00 00       	.word	0x0000;	????	
     62e:	00 00       	.word	0x0000;	????	
     630:	2e 12       	push	@r14		
     632:	00 00       	.word	0x0000;	????	
     634:	80 00       	.word	0x0080;	????	
     636:	44 00       	.word	0x0044;	????	
     638:	00 00       	.word	0x0000;	????	
     63a:	00 00       	.word	0x0000;	????	
     63c:	46 12       	push.b	r6		
     63e:	00 00       	.word	0x0000;	????	
     640:	80 00       	.word	0x0080;	????	
     642:	45 00       	.word	0x0045;	????	
     644:	00 00       	.word	0x0000;	????	
     646:	00 00       	.word	0x0000;	????	
     648:	5d 12 00 00 	push.b	0(r13)		;0x0000(r13)
     64c:	80 00       	.word	0x0080;	????	
     64e:	46 00       	.word	0x0046;	????	
     650:	00 00       	.word	0x0000;	????	
     652:	00 00       	.word	0x0000;	????	
     654:	74 12       	push.b	@r4+		
     656:	00 00       	.word	0x0000;	????	
     658:	80 00       	.word	0x0080;	????	
     65a:	47 00       	.word	0x0047;	????	
     65c:	00 00       	.word	0x0000;	????	
     65e:	00 00       	.word	0x0000;	????	
     660:	8f 12       	call	r15		
     662:	00 00       	.word	0x0000;	????	
     664:	80 00       	.word	0x0080;	????	
     666:	48 00       	.word	0x0048;	????	
     668:	00 00       	.word	0x0000;	????	
     66a:	00 00       	.word	0x0000;	????	
     66c:	a9 12       	call	@r9		
     66e:	00 00       	.word	0x0000;	????	
     670:	80 00       	.word	0x0080;	????	
     672:	49 00       	.word	0x0049;	????	
	...
     67c:	a2 00       	.word	0x00a2;	????	
     67e:	00 00       	.word	0x0000;	????	
     680:	00 00       	.word	0x0000;	????	
     682:	00 00       	.word	0x0000;	????	
     684:	bf 12       	call	@r15+		
     686:	00 00       	.word	0x0000;	????	
     688:	80 00       	.word	0x0080;	????	
     68a:	3b 00       	.word	0x003b;	????	
     68c:	00 00       	.word	0x0000;	????	
     68e:	00 00       	.word	0x0000;	????	
     690:	f8 12       	.word	0x12f8;	????	
     692:	00 00       	.word	0x0000;	????	
     694:	80 00       	.word	0x0080;	????	
     696:	43 00       	.word	0x0043;	????	
	...
     6a0:	a2 00       	.word	0x00a2;	????	
     6a2:	00 00       	.word	0x0000;	????	
     6a4:	00 00       	.word	0x0000;	????	
     6a6:	00 00       	.word	0x0000;	????	
     6a8:	32 13       	reti			;return from interupt
     6aa:	00 00       	.word	0x0000;	????	
     6ac:	82 00       	.word	0x0082;	????	
     6ae:	00 00       	.word	0x0000;	????	
     6b0:	00 00       	.word	0x0000;	????	
     6b2:	00 00       	.word	0x0000;	????	
     6b4:	0c 0f       	.word	0x0f0c;	????	
     6b6:	00 00       	.word	0x0000;	????	
     6b8:	82 00       	.word	0x0082;	????	
	...
     6c2:	00 00       	.word	0x0000;	????	
     6c4:	a2 00       	.word	0x00a2;	????	
     6c6:	00 00       	.word	0x0000;	????	
     6c8:	00 00       	.word	0x0000;	????	
     6ca:	00 00       	.word	0x0000;	????	
     6cc:	53 13       	.word	0x1353;	????	
     6ce:	00 00       	.word	0x0000;	????	
     6d0:	82 00       	.word	0x0082;	????	
     6d2:	00 00       	.word	0x0000;	????	
     6d4:	76 0d       	.word	0x0d76;	????	
     6d6:	00 00       	.word	0x0000;	????	
     6d8:	87 13       	.word	0x1387;	????	
     6da:	00 00       	.word	0x0000;	????	
     6dc:	80 00       	.word	0x0080;	????	
     6de:	2b 00       	.word	0x002b;	????	
     6e0:	00 00       	.word	0x0000;	????	
     6e2:	00 00       	.word	0x0000;	????	
     6e4:	a5 13       	.word	0x13a5;	????	
     6e6:	00 00       	.word	0x0000;	????	
     6e8:	80 00       	.word	0x0080;	????	
     6ea:	6e 00       	.word	0x006e;	????	
	...
     6f4:	a2 00       	.word	0x00a2;	????	
	...
     6fe:	00 00       	.word	0x0000;	????	
     700:	a2 00       	.word	0x00a2;	????	
     702:	00 00       	.word	0x0000;	????	
     704:	00 00       	.word	0x0000;	????	
     706:	00 00       	.word	0x0000;	????	
     708:	bc 13       	.word	0x13bc;	????	
     70a:	00 00       	.word	0x0000;	????	
     70c:	82 00       	.word	0x0082;	????	
	...
     716:	00 00       	.word	0x0000;	????	
     718:	a2 00       	.word	0x00a2;	????	
     71a:	00 00       	.word	0x0000;	????	
     71c:	00 00       	.word	0x0000;	????	
     71e:	00 00       	.word	0x0000;	????	
     720:	ea 0a       	.word	0x0aea;	????	
     722:	00 00       	.word	0x0000;	????	
     724:	82 00       	.word	0x0082;	????	
	...
     72e:	00 00       	.word	0x0000;	????	
     730:	a2 00       	.word	0x00a2;	????	
     732:	00 00       	.word	0x0000;	????	
     734:	00 00       	.word	0x0000;	????	
     736:	00 00       	.word	0x0000;	????	
     738:	da 13       	.word	0x13da;	????	
     73a:	00 00       	.word	0x0000;	????	
     73c:	24 00       	.word	0x0024;	????	
     73e:	1e 00       	.word	0x001e;	????	
     740:	36 e0 00 00 	xor	#0,	r6	;#0x0000
     744:	00 00       	.word	0x0000;	????	
     746:	00 00       	.word	0x0000;	????	
     748:	44 00       	.word	0x0044;	????	
     74a:	1e 00       	.word	0x001e;	????	
	...
     754:	44 00       	.word	0x0044;	????	
     756:	21 00       	.word	0x0021;	????	
     758:	04 00       	.word	0x0004;	????	
     75a:	00 00       	.word	0x0000;	????	
     75c:	00 00       	.word	0x0000;	????	
     75e:	00 00       	.word	0x0000;	????	
     760:	44 00       	.word	0x0044;	????	
     762:	25 00       	.word	0x0025;	????	
     764:	0a 00       	.word	0x000a;	????	
     766:	00 00       	.word	0x0000;	????	
     768:	00 00       	.word	0x0000;	????	
     76a:	00 00       	.word	0x0000;	????	
     76c:	44 00       	.word	0x0044;	????	
     76e:	26 00       	.word	0x0026;	????	
     770:	10 00       	.word	0x0010;	????	
     772:	00 00       	.word	0x0000;	????	
     774:	00 00       	.word	0x0000;	????	
     776:	00 00       	.word	0x0000;	????	
     778:	44 00       	.word	0x0044;	????	
     77a:	28 00       	.word	0x0028;	????	
     77c:	14 00       	.word	0x0014;	????	
     77e:	00 00       	.word	0x0000;	????	
     780:	00 00       	.word	0x0000;	????	
     782:	00 00       	.word	0x0000;	????	
     784:	44 00       	.word	0x0044;	????	
     786:	2b 00       	.word	0x002b;	????	
     788:	18 00       	.word	0x0018;	????	
     78a:	00 00       	.word	0x0000;	????	
     78c:	00 00       	.word	0x0000;	????	
     78e:	00 00       	.word	0x0000;	????	
     790:	44 00       	.word	0x0044;	????	
     792:	2c 00       	.word	0x002c;	????	
     794:	1e 00       	.word	0x001e;	????	
     796:	00 00       	.word	0x0000;	????	
     798:	00 00       	.word	0x0000;	????	
     79a:	00 00       	.word	0x0000;	????	
     79c:	44 00       	.word	0x0044;	????	
     79e:	2e 00       	.word	0x002e;	????	
     7a0:	24 00       	.word	0x0024;	????	
     7a2:	00 00       	.word	0x0000;	????	
     7a4:	00 00       	.word	0x0000;	????	
     7a6:	00 00       	.word	0x0000;	????	
     7a8:	44 00       	.word	0x0044;	????	
     7aa:	2f 00       	.word	0x002f;	????	
     7ac:	28 00       	.word	0x0028;	????	
     7ae:	00 00       	.word	0x0000;	????	
     7b0:	00 00       	.word	0x0000;	????	
     7b2:	00 00       	.word	0x0000;	????	
     7b4:	44 00       	.word	0x0044;	????	
     7b6:	30 00       	.word	0x0030;	????	
     7b8:	34 00       	.word	0x0034;	????	
     7ba:	00 00       	.word	0x0000;	????	
     7bc:	00 00       	.word	0x0000;	????	
     7be:	00 00       	.word	0x0000;	????	
     7c0:	44 00       	.word	0x0044;	????	
     7c2:	32 00       	.word	0x0032;	????	
     7c4:	3a 00       	.word	0x003a;	????	
     7c6:	00 00       	.word	0x0000;	????	
     7c8:	00 00       	.word	0x0000;	????	
     7ca:	00 00       	.word	0x0000;	????	
     7cc:	44 00       	.word	0x0044;	????	
     7ce:	35 00       	.word	0x0035;	????	
     7d0:	40 00       	.word	0x0040;	????	
     7d2:	00 00       	.word	0x0000;	????	
     7d4:	00 00       	.word	0x0000;	????	
     7d6:	00 00       	.word	0x0000;	????	
     7d8:	44 00       	.word	0x0044;	????	
     7da:	37 00       	.word	0x0037;	????	
     7dc:	48 00       	.word	0x0048;	????	
     7de:	00 00       	.word	0x0000;	????	
     7e0:	00 00       	.word	0x0000;	????	
     7e2:	00 00       	.word	0x0000;	????	
     7e4:	44 00       	.word	0x0044;	????	
     7e6:	38 00       	.word	0x0038;	????	
     7e8:	4c 00       	.word	0x004c;	????	
     7ea:	00 00       	.word	0x0000;	????	
     7ec:	00 00       	.word	0x0000;	????	
     7ee:	00 00       	.word	0x0000;	????	
     7f0:	44 00       	.word	0x0044;	????	
     7f2:	39 00       	.word	0x0039;	????	
     7f4:	50 00       	.word	0x0050;	????	
     7f6:	00 00       	.word	0x0000;	????	
     7f8:	00 00       	.word	0x0000;	????	
     7fa:	00 00       	.word	0x0000;	????	
     7fc:	44 00       	.word	0x0044;	????	
     7fe:	3b 00       	.word	0x003b;	????	
     800:	58 00       	.word	0x0058;	????	
     802:	00 00       	.word	0x0000;	????	
     804:	00 00       	.word	0x0000;	????	
     806:	00 00       	.word	0x0000;	????	
     808:	44 00       	.word	0x0044;	????	
     80a:	3d 00       	.word	0x003d;	????	
     80c:	68 00       	.word	0x0068;	????	
     80e:	00 00       	.word	0x0000;	????	
     810:	00 00       	.word	0x0000;	????	
     812:	00 00       	.word	0x0000;	????	
     814:	44 00       	.word	0x0044;	????	
     816:	3e 00       	.word	0x003e;	????	
     818:	6a 00       	.word	0x006a;	????	
     81a:	00 00       	.word	0x0000;	????	
     81c:	00 00       	.word	0x0000;	????	
     81e:	00 00       	.word	0x0000;	????	
     820:	44 00       	.word	0x0044;	????	
     822:	3f 00       	.word	0x003f;	????	
     824:	6e 00       	.word	0x006e;	????	
     826:	00 00       	.word	0x0000;	????	
     828:	00 00       	.word	0x0000;	????	
     82a:	00 00       	.word	0x0000;	????	
     82c:	44 00       	.word	0x0044;	????	
     82e:	3d 00       	.word	0x003d;	????	
     830:	76 00       	.word	0x0076;	????	
     832:	00 00       	.word	0x0000;	????	
     834:	00 00       	.word	0x0000;	????	
     836:	00 00       	.word	0x0000;	????	
     838:	44 00       	.word	0x0044;	????	
     83a:	37 00       	.word	0x0037;	????	
     83c:	80 00       	.word	0x0080;	????	
     83e:	00 00       	.word	0x0000;	????	
     840:	00 00       	.word	0x0000;	????	
     842:	00 00       	.word	0x0000;	????	
     844:	44 00       	.word	0x0044;	????	
     846:	42 00       	.word	0x0042;	????	
     848:	80 00       	.word	0x0080;	????	
     84a:	00 00       	.word	0x0000;	????	
     84c:	e6 13       	.word	0x13e6;	????	
     84e:	00 00       	.word	0x0000;	????	
     850:	40 00       	.word	0x0040;	????	
     852:	22 00       	.word	0x0022;	????	
     854:	0b 00       	.word	0x000b;	????	
     856:	00 00       	.word	0x0000;	????	
     858:	00 00       	.word	0x0000;	????	
     85a:	00 00       	.word	0x0000;	????	
     85c:	c0 00       	.word	0x00c0;	????	
     85e:	00 00       	.word	0x0000;	????	
     860:	04 00       	.word	0x0004;	????	
     862:	00 00       	.word	0x0000;	????	
     864:	00 00       	.word	0x0000;	????	
     866:	00 00       	.word	0x0000;	????	
     868:	e0 00       	.word	0x00e0;	????	
     86a:	00 00       	.word	0x0000;	????	
     86c:	80 00       	.word	0x0080;	????	
     86e:	00 00       	.word	0x0000;	????	
     870:	00 00       	.word	0x0000;	????	
     872:	00 00       	.word	0x0000;	????	
     874:	24 00       	.word	0x0024;	????	
     876:	00 00       	.word	0x0000;	????	
     878:	84 00       	.word	0x0084;	????	
     87a:	00 00       	.word	0x0000;	????	
     87c:	ef 13       	.word	0x13ef;	????	
     87e:	00 00       	.word	0x0000;	????	
     880:	20 00       	.word	0x0020;	????	
     882:	14 00       	.word	0x0014;	????	
     884:	00 00       	.word	0x0000;	????	
     886:	00 00       	.word	0x0000;	????	
     888:	05 14       	.word	0x1405;	????	
     88a:	00 00       	.word	0x0000;	????	
     88c:	20 00       	.word	0x0020;	????	
     88e:	16 00       	.word	0x0016;	????	
     890:	00 00       	.word	0x0000;	????	
     892:	00 00       	.word	0x0000;	????	
     894:	14 14       	.word	0x1414;	????	
     896:	00 00       	.word	0x0000;	????	
     898:	20 00       	.word	0x0020;	????	
     89a:	18 00       	.word	0x0018;	????	
     89c:	00 00       	.word	0x0000;	????	
     89e:	00 00       	.word	0x0000;	????	
     8a0:	23 14       	.word	0x1423;	????	
     8a2:	00 00       	.word	0x0000;	????	
     8a4:	20 00       	.word	0x0020;	????	
     8a6:	1b 00       	.word	0x001b;	????	
     8a8:	00 00       	.word	0x0000;	????	
     8aa:	00 00       	.word	0x0000;	????	
     8ac:	32 14       	.word	0x1432;	????	
     8ae:	00 00       	.word	0x0000;	????	
     8b0:	20 00       	.word	0x0020;	????	
     8b2:	14 00       	.word	0x0014;	????	
     8b4:	00 00       	.word	0x0000;	????	
     8b6:	00 00       	.word	0x0000;	????	
     8b8:	40 14       	.word	0x1440;	????	
     8ba:	00 00       	.word	0x0000;	????	
     8bc:	20 00       	.word	0x0020;	????	
     8be:	16 00       	.word	0x0016;	????	
     8c0:	00 00       	.word	0x0000;	????	
     8c2:	00 00       	.word	0x0000;	????	
     8c4:	4e 14       	.word	0x144e;	????	
     8c6:	00 00       	.word	0x0000;	????	
     8c8:	20 00       	.word	0x0020;	????	
     8ca:	18 00       	.word	0x0018;	????	
     8cc:	00 00       	.word	0x0000;	????	
     8ce:	00 00       	.word	0x0000;	????	
     8d0:	5c 14       	.word	0x145c;	????	
     8d2:	00 00       	.word	0x0000;	????	
     8d4:	20 00       	.word	0x0020;	????	
     8d6:	13 00       	.word	0x0013;	????	
     8d8:	00 00       	.word	0x0000;	????	
     8da:	00 00       	.word	0x0000;	????	
     8dc:	69 14       	.word	0x1469;	????	
     8de:	00 00       	.word	0x0000;	????	
     8e0:	20 00       	.word	0x0020;	????	
     8e2:	1a 00       	.word	0x001a;	????	
     8e4:	00 00       	.word	0x0000;	????	
     8e6:	00 00       	.word	0x0000;	????	
     8e8:	77 14       	.word	0x1477;	????	
     8ea:	00 00       	.word	0x0000;	????	
     8ec:	20 00       	.word	0x0020;	????	
     8ee:	1c 00       	.word	0x001c;	????	
     8f0:	00 00       	.word	0x0000;	????	
     8f2:	00 00       	.word	0x0000;	????	
     8f4:	86 14       	.word	0x1486;	????	
     8f6:	00 00       	.word	0x0000;	????	
     8f8:	20 00       	.word	0x0020;	????	
     8fa:	1e 00       	.word	0x001e;	????	
     8fc:	00 00       	.word	0x0000;	????	
     8fe:	00 00       	.word	0x0000;	????	
     900:	93 14       	.word	0x1493;	????	
     902:	00 00       	.word	0x0000;	????	
     904:	20 00       	.word	0x0020;	????	
     906:	21 00       	.word	0x0021;	????	
     908:	00 00       	.word	0x0000;	????	
     90a:	00 00       	.word	0x0000;	????	
     90c:	a4 14       	.word	0x14a4;	????	
     90e:	00 00       	.word	0x0000;	????	
     910:	20 00       	.word	0x0020;	????	
     912:	23 00       	.word	0x0023;	????	
     914:	00 00       	.word	0x0000;	????	
     916:	00 00       	.word	0x0000;	????	
     918:	b5 14       	.word	0x14b5;	????	
     91a:	00 00       	.word	0x0000;	????	
     91c:	20 00       	.word	0x0020;	????	
     91e:	25 00       	.word	0x0025;	????	
     920:	00 00       	.word	0x0000;	????	
     922:	00 00       	.word	0x0000;	????	
     924:	c5 14       	.word	0x14c5;	????	
     926:	00 00       	.word	0x0000;	????	
     928:	20 00       	.word	0x0020;	????	
     92a:	27 00       	.word	0x0027;	????	
     92c:	00 00       	.word	0x0000;	????	
     92e:	00 00       	.word	0x0000;	????	
     930:	d5 14       	.word	0x14d5;	????	
     932:	00 00       	.word	0x0000;	????	
     934:	20 00       	.word	0x0020;	????	
     936:	47 00       	.word	0x0047;	????	
     938:	00 00       	.word	0x0000;	????	
     93a:	00 00       	.word	0x0000;	????	
     93c:	e6 14       	.word	0x14e6;	????	
     93e:	00 00       	.word	0x0000;	????	
     940:	20 00       	.word	0x0020;	????	
     942:	49 00       	.word	0x0049;	????	
     944:	00 00       	.word	0x0000;	????	
     946:	00 00       	.word	0x0000;	????	
     948:	f6 14       	.word	0x14f6;	????	
     94a:	00 00       	.word	0x0000;	????	
     94c:	20 00       	.word	0x0020;	????	
     94e:	ac 00       	.word	0x00ac;	????	
     950:	00 00       	.word	0x0000;	????	
     952:	00 00       	.word	0x0000;	????	
     954:	05 15       	.word	0x1505;	????	
     956:	00 00       	.word	0x0000;	????	
     958:	20 00       	.word	0x0020;	????	
     95a:	16 00       	.word	0x0016;	????	
     95c:	00 00       	.word	0x0000;	????	
     95e:	00 00       	.word	0x0000;	????	
     960:	12 15       	.word	0x1512;	????	
     962:	00 00       	.word	0x0000;	????	
     964:	20 00       	.word	0x0020;	????	
     966:	18 00       	.word	0x0018;	????	
     968:	00 00       	.word	0x0000;	????	
     96a:	00 00       	.word	0x0000;	????	
     96c:	20 15       	.word	0x1520;	????	
     96e:	00 00       	.word	0x0000;	????	
     970:	20 00       	.word	0x0020;	????	
     972:	1a 00       	.word	0x001a;	????	
     974:	00 00       	.word	0x0000;	????	
     976:	00 00       	.word	0x0000;	????	
     978:	2c 15       	.word	0x152c;	????	
     97a:	00 00       	.word	0x0000;	????	
     97c:	20 00       	.word	0x0020;	????	
     97e:	1d 00       	.word	0x001d;	????	
     980:	00 00       	.word	0x0000;	????	
     982:	00 00       	.word	0x0000;	????	
     984:	3c 15       	.word	0x153c;	????	
     986:	00 00       	.word	0x0000;	????	
     988:	20 00       	.word	0x0020;	????	
     98a:	1f 00       	.word	0x001f;	????	
     98c:	00 00       	.word	0x0000;	????	
     98e:	00 00       	.word	0x0000;	????	
     990:	4c 15       	.word	0x154c;	????	
     992:	00 00       	.word	0x0000;	????	
     994:	20 00       	.word	0x0020;	????	
     996:	21 00       	.word	0x0021;	????	
     998:	00 00       	.word	0x0000;	????	
     99a:	00 00       	.word	0x0000;	????	
     99c:	5c 15       	.word	0x155c;	????	
     99e:	00 00       	.word	0x0000;	????	
     9a0:	20 00       	.word	0x0020;	????	
     9a2:	23 00       	.word	0x0023;	????	
     9a4:	00 00       	.word	0x0000;	????	
     9a6:	00 00       	.word	0x0000;	????	
     9a8:	6b 15       	.word	0x156b;	????	
     9aa:	00 00       	.word	0x0000;	????	
     9ac:	20 00       	.word	0x0020;	????	
     9ae:	25 00       	.word	0x0025;	????	
     9b0:	00 00       	.word	0x0000;	????	
     9b2:	00 00       	.word	0x0000;	????	
     9b4:	7a 15       	.word	0x157a;	????	
     9b6:	00 00       	.word	0x0000;	????	
     9b8:	20 00       	.word	0x0020;	????	
     9ba:	27 00       	.word	0x0027;	????	
     9bc:	00 00       	.word	0x0000;	????	
     9be:	00 00       	.word	0x0000;	????	
     9c0:	89 15       	.word	0x1589;	????	
     9c2:	00 00       	.word	0x0000;	????	
     9c4:	20 00       	.word	0x0020;	????	
     9c6:	7a 00       	.word	0x007a;	????	
     9c8:	00 00       	.word	0x0000;	????	
     9ca:	00 00       	.word	0x0000;	????	
     9cc:	98 15       	.word	0x1598;	????	
     9ce:	00 00       	.word	0x0000;	????	
     9d0:	20 00       	.word	0x0020;	????	
     9d2:	88 00       	.word	0x0088;	????	
     9d4:	00 00       	.word	0x0000;	????	
     9d6:	00 00       	.word	0x0000;	????	
     9d8:	a6 15       	.word	0x15a6;	????	
     9da:	00 00       	.word	0x0000;	????	
     9dc:	20 00       	.word	0x0020;	????	
     9de:	8c 00       	.word	0x008c;	????	
     9e0:	00 00       	.word	0x0000;	????	
     9e2:	00 00       	.word	0x0000;	????	
     9e4:	b4 15       	.word	0x15b4;	????	
     9e6:	00 00       	.word	0x0000;	????	
     9e8:	20 00       	.word	0x0020;	????	
     9ea:	90 00       	.word	0x0090;	????	
     9ec:	00 00       	.word	0x0000;	????	
     9ee:	00 00       	.word	0x0000;	????	
     9f0:	c2 15       	.word	0x15c2;	????	
     9f2:	00 00       	.word	0x0000;	????	
     9f4:	20 00       	.word	0x0020;	????	
     9f6:	94 00       	.word	0x0094;	????	
     9f8:	00 00       	.word	0x0000;	????	
     9fa:	00 00       	.word	0x0000;	????	
     9fc:	d0 15       	.word	0x15d0;	????	
     9fe:	00 00       	.word	0x0000;	????	
     a00:	20 00       	.word	0x0020;	????	
     a02:	7a 00       	.word	0x007a;	????	
     a04:	00 00       	.word	0x0000;	????	
     a06:	00 00       	.word	0x0000;	????	
     a08:	dc 15       	.word	0x15dc;	????	
     a0a:	00 00       	.word	0x0000;	????	
     a0c:	20 00       	.word	0x0020;	????	
     a0e:	7c 00       	.word	0x007c;	????	
     a10:	00 00       	.word	0x0000;	????	
     a12:	00 00       	.word	0x0000;	????	
     a14:	e9 15       	.word	0x15e9;	????	
     a16:	00 00       	.word	0x0000;	????	
     a18:	20 00       	.word	0x0020;	????	
     a1a:	7e 00       	.word	0x007e;	????	
     a1c:	00 00       	.word	0x0000;	????	
     a1e:	00 00       	.word	0x0000;	????	
     a20:	f6 15       	.word	0x15f6;	????	
     a22:	00 00       	.word	0x0000;	????	
     a24:	20 00       	.word	0x0020;	????	
     a26:	80 00       	.word	0x0080;	????	
     a28:	00 00       	.word	0x0000;	????	
     a2a:	00 00       	.word	0x0000;	????	
     a2c:	03 16       	.word	0x1603;	????	
     a2e:	00 00       	.word	0x0000;	????	
     a30:	20 00       	.word	0x0020;	????	
     a32:	82 00       	.word	0x0082;	????	
     a34:	00 00       	.word	0x0000;	????	
     a36:	00 00       	.word	0x0000;	????	
     a38:	10 16       	.word	0x1610;	????	
     a3a:	00 00       	.word	0x0000;	????	
     a3c:	20 00       	.word	0x0020;	????	
     a3e:	84 00       	.word	0x0084;	????	
     a40:	00 00       	.word	0x0000;	????	
     a42:	00 00       	.word	0x0000;	????	
     a44:	1c 16       	.word	0x161c;	????	
     a46:	00 00       	.word	0x0000;	????	
     a48:	20 00       	.word	0x0020;	????	
     a4a:	86 00       	.word	0x0086;	????	
     a4c:	00 00       	.word	0x0000;	????	
     a4e:	00 00       	.word	0x0000;	????	
     a50:	29 16       	.word	0x1629;	????	
     a52:	00 00       	.word	0x0000;	????	
     a54:	20 00       	.word	0x0020;	????	
     a56:	89 00       	.word	0x0089;	????	
     a58:	00 00       	.word	0x0000;	????	
     a5a:	00 00       	.word	0x0000;	????	
     a5c:	36 16       	.word	0x1636;	????	
     a5e:	00 00       	.word	0x0000;	????	
     a60:	20 00       	.word	0x0020;	????	
     a62:	8f 00       	.word	0x008f;	????	
     a64:	00 00       	.word	0x0000;	????	
     a66:	00 00       	.word	0x0000;	????	
     a68:	42 16       	.word	0x1642;	????	
     a6a:	00 00       	.word	0x0000;	????	
     a6c:	20 00       	.word	0x0020;	????	
     a6e:	91 00       	.word	0x0091;	????	
     a70:	00 00       	.word	0x0000;	????	
     a72:	00 00       	.word	0x0000;	????	
     a74:	4f 16       	.word	0x164f;	????	
     a76:	00 00       	.word	0x0000;	????	
     a78:	20 00       	.word	0x0020;	????	
     a7a:	93 00       	.word	0x0093;	????	
     a7c:	00 00       	.word	0x0000;	????	
     a7e:	00 00       	.word	0x0000;	????	
     a80:	5c 16       	.word	0x165c;	????	
     a82:	00 00       	.word	0x0000;	????	
     a84:	20 00       	.word	0x0020;	????	
     a86:	95 00       	.word	0x0095;	????	
     a88:	00 00       	.word	0x0000;	????	
     a8a:	00 00       	.word	0x0000;	????	
     a8c:	69 16       	.word	0x1669;	????	
     a8e:	00 00       	.word	0x0000;	????	
     a90:	20 00       	.word	0x0020;	????	
     a92:	97 00       	.word	0x0097;	????	
     a94:	00 00       	.word	0x0000;	????	
     a96:	00 00       	.word	0x0000;	????	
     a98:	76 16       	.word	0x1676;	????	
     a9a:	00 00       	.word	0x0000;	????	
     a9c:	20 00       	.word	0x0020;	????	
     a9e:	99 00       	.word	0x0099;	????	
     aa0:	00 00       	.word	0x0000;	????	
     aa2:	00 00       	.word	0x0000;	????	
     aa4:	82 16       	.word	0x1682;	????	
     aa6:	00 00       	.word	0x0000;	????	
     aa8:	20 00       	.word	0x0020;	????	
     aaa:	9b 00       	.word	0x009b;	????	
     aac:	00 00       	.word	0x0000;	????	
     aae:	00 00       	.word	0x0000;	????	
     ab0:	8f 16       	.word	0x168f;	????	
     ab2:	00 00       	.word	0x0000;	????	
     ab4:	20 00       	.word	0x0020;	????	
     ab6:	9e 00       	.word	0x009e;	????	
     ab8:	00 00       	.word	0x0000;	????	
     aba:	00 00       	.word	0x0000;	????	
     abc:	9c 16       	.word	0x169c;	????	
     abe:	00 00       	.word	0x0000;	????	
     ac0:	20 00       	.word	0x0020;	????	
     ac2:	a4 00       	.word	0x00a4;	????	
     ac4:	00 00       	.word	0x0000;	????	
     ac6:	00 00       	.word	0x0000;	????	
     ac8:	a8 16       	.word	0x16a8;	????	
     aca:	00 00       	.word	0x0000;	????	
     acc:	20 00       	.word	0x0020;	????	
     ace:	a6 00       	.word	0x00a6;	????	
     ad0:	00 00       	.word	0x0000;	????	
     ad2:	00 00       	.word	0x0000;	????	
     ad4:	b5 16       	.word	0x16b5;	????	
     ad6:	00 00       	.word	0x0000;	????	
     ad8:	20 00       	.word	0x0020;	????	
     ada:	a8 00       	.word	0x00a8;	????	
     adc:	00 00       	.word	0x0000;	????	
     ade:	00 00       	.word	0x0000;	????	
     ae0:	c2 16       	.word	0x16c2;	????	
     ae2:	00 00       	.word	0x0000;	????	
     ae4:	20 00       	.word	0x0020;	????	
     ae6:	aa 00       	.word	0x00aa;	????	
     ae8:	00 00       	.word	0x0000;	????	
     aea:	00 00       	.word	0x0000;	????	
     aec:	cf 16       	.word	0x16cf;	????	
     aee:	00 00       	.word	0x0000;	????	
     af0:	20 00       	.word	0x0020;	????	
     af2:	ad 00       	.word	0x00ad;	????	
     af4:	00 00       	.word	0x0000;	????	
     af6:	00 00       	.word	0x0000;	????	
     af8:	dc 16       	.word	0x16dc;	????	
     afa:	00 00       	.word	0x0000;	????	
     afc:	20 00       	.word	0x0020;	????	
     afe:	b3 00       	.word	0x00b3;	????	
     b00:	00 00       	.word	0x0000;	????	
     b02:	00 00       	.word	0x0000;	????	
     b04:	e8 16       	.word	0x16e8;	????	
     b06:	00 00       	.word	0x0000;	????	
     b08:	20 00       	.word	0x0020;	????	
     b0a:	b5 00       	.word	0x00b5;	????	
     b0c:	00 00       	.word	0x0000;	????	
     b0e:	00 00       	.word	0x0000;	????	
     b10:	f5 16       	.word	0x16f5;	????	
     b12:	00 00       	.word	0x0000;	????	
     b14:	20 00       	.word	0x0020;	????	
     b16:	b7 00       	.word	0x00b7;	????	
     b18:	00 00       	.word	0x0000;	????	
     b1a:	00 00       	.word	0x0000;	????	
     b1c:	02 17       	.word	0x1702;	????	
     b1e:	00 00       	.word	0x0000;	????	
     b20:	20 00       	.word	0x0020;	????	
     b22:	b9 00       	.word	0x00b9;	????	
     b24:	00 00       	.word	0x0000;	????	
     b26:	00 00       	.word	0x0000;	????	
     b28:	0f 17       	.word	0x170f;	????	
     b2a:	00 00       	.word	0x0000;	????	
     b2c:	20 00       	.word	0x0020;	????	
     b2e:	bc 00       	.word	0x00bc;	????	
     b30:	00 00       	.word	0x0000;	????	
     b32:	00 00       	.word	0x0000;	????	
     b34:	1c 17       	.word	0x171c;	????	
     b36:	00 00       	.word	0x0000;	????	
     b38:	20 00       	.word	0x0020;	????	
     b3a:	12 00       	.word	0x0012;	????	
     b3c:	00 00       	.word	0x0000;	????	
     b3e:	00 00       	.word	0x0000;	????	
     b40:	2d 17       	.word	0x172d;	????	
     b42:	00 00       	.word	0x0000;	????	
     b44:	20 00       	.word	0x0020;	????	
     b46:	14 00       	.word	0x0014;	????	
     b48:	00 00       	.word	0x0000;	????	
     b4a:	00 00       	.word	0x0000;	????	
     b4c:	3e 17       	.word	0x173e;	????	
     b4e:	00 00       	.word	0x0000;	????	
     b50:	20 00       	.word	0x0020;	????	
     b52:	16 00       	.word	0x0016;	????	
     b54:	00 00       	.word	0x0000;	????	
     b56:	00 00       	.word	0x0000;	????	
     b58:	4e 17       	.word	0x174e;	????	
     b5a:	00 00       	.word	0x0000;	????	
     b5c:	20 00       	.word	0x0020;	????	
     b5e:	22 00       	.word	0x0022;	????	
     b60:	00 00       	.word	0x0000;	????	
     b62:	00 00       	.word	0x0000;	????	
     b64:	60 17       	.word	0x1760;	????	
     b66:	00 00       	.word	0x0000;	????	
     b68:	20 00       	.word	0x0020;	????	
     b6a:	24 00       	.word	0x0024;	????	
     b6c:	00 00       	.word	0x0000;	????	
     b6e:	00 00       	.word	0x0000;	????	
     b70:	72 17       	.word	0x1772;	????	
     b72:	00 00       	.word	0x0000;	????	
     b74:	20 00       	.word	0x0020;	????	
     b76:	26 00       	.word	0x0026;	????	
     b78:	00 00       	.word	0x0000;	????	
     b7a:	00 00       	.word	0x0000;	????	
     b7c:	83 17       	.word	0x1783;	????	
     b7e:	00 00       	.word	0x0000;	????	
     b80:	20 00       	.word	0x0020;	????	
     b82:	28 00       	.word	0x0028;	????	
     b84:	00 00       	.word	0x0000;	????	
     b86:	00 00       	.word	0x0000;	????	
     b88:	93 17       	.word	0x1793;	????	
     b8a:	00 00       	.word	0x0000;	????	
     b8c:	20 00       	.word	0x0020;	????	
     b8e:	4c 00       	.word	0x004c;	????	
     b90:	00 00       	.word	0x0000;	????	
     b92:	00 00       	.word	0x0000;	????	
     b94:	a1 17       	.word	0x17a1;	????	
     b96:	00 00       	.word	0x0000;	????	
     b98:	20 00       	.word	0x0020;	????	
     b9a:	fc 00       	.word	0x00fc;	????	
     b9c:	00 00       	.word	0x0000;	????	
     b9e:	00 00       	.word	0x0000;	????	
     ba0:	b1 17       	.word	0x17b1;	????	
     ba2:	00 00       	.word	0x0000;	????	
     ba4:	20 00       	.word	0x0020;	????	
     ba6:	fe 00       	.word	0x00fe;	????	
     ba8:	00 00       	.word	0x0000;	????	
     baa:	00 00       	.word	0x0000;	????	
     bac:	c1 17       	.word	0x17c1;	????	
     bae:	00 00       	.word	0x0000;	????	
     bb0:	20 00       	.word	0x0020;	????	
     bb2:	00 01       	.word	0x0100;	????	
     bb4:	00 00       	.word	0x0000;	????	
     bb6:	00 00       	.word	0x0000;	????	
     bb8:	d0 17       	.word	0x17d0;	????	
     bba:	00 00       	.word	0x0000;	????	
     bbc:	20 00       	.word	0x0020;	????	
     bbe:	02 01       	.word	0x0102;	????	
     bc0:	00 00       	.word	0x0000;	????	
     bc2:	00 00       	.word	0x0000;	????	
     bc4:	df 17       	.word	0x17df;	????	
     bc6:	00 00       	.word	0x0000;	????	
     bc8:	20 00       	.word	0x0020;	????	
     bca:	04 01       	.word	0x0104;	????	
     bcc:	00 00       	.word	0x0000;	????	
     bce:	00 00       	.word	0x0000;	????	
     bd0:	ef 17       	.word	0x17ef;	????	
     bd2:	00 00       	.word	0x0000;	????	
     bd4:	20 00       	.word	0x0020;	????	
     bd6:	06 01       	.word	0x0106;	????	
     bd8:	00 00       	.word	0x0000;	????	
     bda:	00 00       	.word	0x0000;	????	
     bdc:	ff 17       	.word	0x17ff;	????	
     bde:	00 00       	.word	0x0000;	????	
     be0:	20 00       	.word	0x0020;	????	
     be2:	08 01       	.word	0x0108;	????	
     be4:	00 00       	.word	0x0000;	????	
     be6:	00 00       	.word	0x0000;	????	
     be8:	10 18       	.word	0x1810;	????	
     bea:	00 00       	.word	0x0000;	????	
     bec:	20 00       	.word	0x0020;	????	
     bee:	0a 01       	.word	0x010a;	????	
     bf0:	00 00       	.word	0x0000;	????	
     bf2:	00 00       	.word	0x0000;	????	
     bf4:	21 18       	.word	0x1821;	????	
     bf6:	00 00       	.word	0x0000;	????	
     bf8:	20 00       	.word	0x0020;	????	
     bfa:	0c 01       	.word	0x010c;	????	
     bfc:	00 00       	.word	0x0000;	????	
     bfe:	00 00       	.word	0x0000;	????	
     c00:	32 18       	.word	0x1832;	????	
     c02:	00 00       	.word	0x0000;	????	
     c04:	20 00       	.word	0x0020;	????	
     c06:	0e 01       	.word	0x010e;	????	
     c08:	00 00       	.word	0x0000;	????	
     c0a:	00 00       	.word	0x0000;	????	
     c0c:	44 18       	.word	0x1844;	????	
     c0e:	00 00       	.word	0x0000;	????	
     c10:	20 00       	.word	0x0020;	????	
     c12:	10 01       	.word	0x0110;	????	
     c14:	00 00       	.word	0x0000;	????	
     c16:	00 00       	.word	0x0000;	????	
     c18:	56 18       	.word	0x1856;	????	
     c1a:	00 00       	.word	0x0000;	????	
     c1c:	20 00       	.word	0x0020;	????	
     c1e:	13 01       	.word	0x0113;	????	
     c20:	00 00       	.word	0x0000;	????	
     c22:	00 00       	.word	0x0000;	????	
     c24:	66 18       	.word	0x1866;	????	
     c26:	00 00       	.word	0x0000;	????	
     c28:	20 00       	.word	0x0020;	????	
     c2a:	15 01       	.word	0x0115;	????	
     c2c:	00 00       	.word	0x0000;	????	
     c2e:	00 00       	.word	0x0000;	????	
     c30:	76 18       	.word	0x1876;	????	
     c32:	00 00       	.word	0x0000;	????	
     c34:	20 00       	.word	0x0020;	????	
     c36:	17 01       	.word	0x0117;	????	
     c38:	00 00       	.word	0x0000;	????	
     c3a:	00 00       	.word	0x0000;	????	
     c3c:	85 18       	.word	0x1885;	????	
     c3e:	00 00       	.word	0x0000;	????	
     c40:	20 00       	.word	0x0020;	????	
     c42:	19 01       	.word	0x0119;	????	
     c44:	00 00       	.word	0x0000;	????	
     c46:	00 00       	.word	0x0000;	????	
     c48:	94 18       	.word	0x1894;	????	
     c4a:	00 00       	.word	0x0000;	????	
     c4c:	20 00       	.word	0x0020;	????	
     c4e:	1b 01       	.word	0x011b;	????	
     c50:	00 00       	.word	0x0000;	????	
     c52:	00 00       	.word	0x0000;	????	
     c54:	a5 18       	.word	0x18a5;	????	
     c56:	00 00       	.word	0x0000;	????	
     c58:	20 00       	.word	0x0020;	????	
     c5a:	1d 01       	.word	0x011d;	????	
     c5c:	00 00       	.word	0x0000;	????	
     c5e:	00 00       	.word	0x0000;	????	
     c60:	b5 18       	.word	0x18b5;	????	
     c62:	00 00       	.word	0x0000;	????	
     c64:	20 00       	.word	0x0020;	????	
     c66:	1f 01       	.word	0x011f;	????	
     c68:	00 00       	.word	0x0000;	????	
     c6a:	00 00       	.word	0x0000;	????	
     c6c:	c6 18       	.word	0x18c6;	????	
     c6e:	00 00       	.word	0x0000;	????	
     c70:	20 00       	.word	0x0020;	????	
     c72:	21 01       	.word	0x0121;	????	
     c74:	00 00       	.word	0x0000;	????	
     c76:	00 00       	.word	0x0000;	????	
     c78:	d7 18       	.word	0x18d7;	????	
     c7a:	00 00       	.word	0x0000;	????	
     c7c:	20 00       	.word	0x0020;	????	
     c7e:	23 01       	.word	0x0123;	????	
     c80:	00 00       	.word	0x0000;	????	
     c82:	00 00       	.word	0x0000;	????	
     c84:	e9 18       	.word	0x18e9;	????	
     c86:	00 00       	.word	0x0000;	????	
     c88:	20 00       	.word	0x0020;	????	
     c8a:	25 01       	.word	0x0125;	????	
     c8c:	00 00       	.word	0x0000;	????	
     c8e:	00 00       	.word	0x0000;	????	
     c90:	fb 18       	.word	0x18fb;	????	
     c92:	00 00       	.word	0x0000;	????	
     c94:	20 00       	.word	0x0020;	????	
     c96:	47 00       	.word	0x0047;	????	
     c98:	00 00       	.word	0x0000;	????	
     c9a:	00 00       	.word	0x0000;	????	
     c9c:	0a 19       	.word	0x190a;	????	
     c9e:	00 00       	.word	0x0000;	????	
     ca0:	20 00       	.word	0x0020;	????	
     ca2:	29 00       	.word	0x0029;	????	
     ca4:	00 00       	.word	0x0000;	????	
     ca6:	00 00       	.word	0x0000;	????	
     ca8:	15 19       	.word	0x1915;	????	
     caa:	00 00       	.word	0x0000;	????	
     cac:	20 00       	.word	0x0020;	????	
     cae:	30 00       	.word	0x0030;	????	
     cb0:	00 00       	.word	0x0000;	????	
     cb2:	00 00       	.word	0x0000;	????	
     cb4:	21 19       	.word	0x1921;	????	
     cb6:	00 00       	.word	0x0000;	????	
     cb8:	20 00       	.word	0x0020;	????	
     cba:	38 00       	.word	0x0038;	????	
     cbc:	00 00       	.word	0x0000;	????	
     cbe:	00 00       	.word	0x0000;	????	
     cc0:	2c 19       	.word	0x192c;	????	
     cc2:	00 00       	.word	0x0000;	????	
     cc4:	20 00       	.word	0x0020;	????	
     cc6:	3f 00       	.word	0x003f;	????	
     cc8:	00 00       	.word	0x0000;	????	
     cca:	00 00       	.word	0x0000;	????	
     ccc:	38 19       	.word	0x1938;	????	
     cce:	00 00       	.word	0x0000;	????	
     cd0:	20 00       	.word	0x0020;	????	
     cd2:	4c 00       	.word	0x004c;	????	
     cd4:	00 00       	.word	0x0000;	????	
     cd6:	00 00       	.word	0x0000;	????	
     cd8:	4c 19       	.word	0x194c;	????	
     cda:	00 00       	.word	0x0000;	????	
     cdc:	20 00       	.word	0x0020;	????	
     cde:	4e 00       	.word	0x004e;	????	
     ce0:	00 00       	.word	0x0000;	????	
     ce2:	00 00       	.word	0x0000;	????	
     ce4:	60 19       	.word	0x1960;	????	
     ce6:	00 00       	.word	0x0000;	????	
     ce8:	20 00       	.word	0x0020;	????	
     cea:	50 00       	.word	0x0050;	????	
     cec:	00 00       	.word	0x0000;	????	
     cee:	00 00       	.word	0x0000;	????	
     cf0:	74 19       	.word	0x1974;	????	
     cf2:	00 00       	.word	0x0000;	????	
     cf4:	20 00       	.word	0x0020;	????	
     cf6:	52 00       	.word	0x0052;	????	
     cf8:	00 00       	.word	0x0000;	????	
     cfa:	00 00       	.word	0x0000;	????	
     cfc:	88 19       	.word	0x1988;	????	
     cfe:	00 00       	.word	0x0000;	????	
     d00:	20 00       	.word	0x0020;	????	
     d02:	54 00       	.word	0x0054;	????	
     d04:	00 00       	.word	0x0000;	????	
     d06:	00 00       	.word	0x0000;	????	
     d08:	9b 19       	.word	0x199b;	????	
     d0a:	00 00       	.word	0x0000;	????	
     d0c:	20 00       	.word	0x0020;	????	
     d0e:	56 00       	.word	0x0056;	????	
     d10:	00 00       	.word	0x0000;	????	
     d12:	00 00       	.word	0x0000;	????	
     d14:	ae 19       	.word	0x19ae;	????	
     d16:	00 00       	.word	0x0000;	????	
     d18:	20 00       	.word	0x0020;	????	
     d1a:	58 00       	.word	0x0058;	????	
     d1c:	00 00       	.word	0x0000;	????	
     d1e:	00 00       	.word	0x0000;	????	
     d20:	c1 19       	.word	0x19c1;	????	
     d22:	00 00       	.word	0x0000;	????	
     d24:	20 00       	.word	0x0020;	????	
     d26:	5a 00       	.word	0x005a;	????	
	...
     d30:	64 00       	.word	0x0064;	????	
     d32:	00 00       	.word	0x0000;	????	
     d34:	ba e0 00 00 	xor	#0,	6612(r10);#0x0000, 0x19d4(r10)
     d38:	d4 19 
     d3a:	00 00       	.word	0x0000;	????	
     d3c:	64 00       	.word	0x0064;	????	
     d3e:	00 00       	.word	0x0000;	????	
     d40:	ee eb 00 00 	xor.b	@r11,	0(r14)	;0x0000(r14)
     d44:	05 1a       	.word	0x1a05;	????	
     d46:	00 00       	.word	0x0000;	????	
     d48:	64 00       	.word	0x0064;	????	
     d4a:	00 00       	.word	0x0000;	????	
     d4c:	ee eb 00 00 	xor.b	@r11,	0(r14)	;0x0000(r14)
     d50:	6d 00       	.word	0x006d;	????	
     d52:	00 00       	.word	0x0000;	????	
     d54:	3c 00       	.word	0x003c;	????	
     d56:	00 00       	.word	0x0000;	????	
     d58:	00 00       	.word	0x0000;	????	
     d5a:	00 00       	.word	0x0000;	????	
     d5c:	7c 00       	.word	0x007c;	????	
     d5e:	00 00       	.word	0x0000;	????	
     d60:	80 00       	.word	0x0080;	????	
     d62:	00 00       	.word	0x0000;	????	
     d64:	00 00       	.word	0x0000;	????	
     d66:	00 00       	.word	0x0000;	????	
     d68:	9c 00       	.word	0x009c;	????	
     d6a:	00 00       	.word	0x0000;	????	
     d6c:	80 00       	.word	0x0080;	????	
     d6e:	00 00       	.word	0x0000;	????	
     d70:	00 00       	.word	0x0000;	????	
     d72:	00 00       	.word	0x0000;	????	
     d74:	b6 00       	.word	0x00b6;	????	
     d76:	00 00       	.word	0x0000;	????	
     d78:	80 00       	.word	0x0080;	????	
     d7a:	00 00       	.word	0x0000;	????	
     d7c:	00 00       	.word	0x0000;	????	
     d7e:	00 00       	.word	0x0000;	????	
     d80:	ef 00       	.word	0x00ef;	????	
     d82:	00 00       	.word	0x0000;	????	
     d84:	80 00       	.word	0x0080;	????	
     d86:	00 00       	.word	0x0000;	????	
     d88:	00 00       	.word	0x0000;	????	
     d8a:	00 00       	.word	0x0000;	????	
     d8c:	27 01       	.word	0x0127;	????	
     d8e:	00 00       	.word	0x0000;	????	
     d90:	80 00       	.word	0x0080;	????	
     d92:	00 00       	.word	0x0000;	????	
     d94:	00 00       	.word	0x0000;	????	
     d96:	00 00       	.word	0x0000;	????	
     d98:	69 01       	.word	0x0169;	????	
     d9a:	00 00       	.word	0x0000;	????	
     d9c:	80 00       	.word	0x0080;	????	
     d9e:	00 00       	.word	0x0000;	????	
     da0:	00 00       	.word	0x0000;	????	
     da2:	00 00       	.word	0x0000;	????	
     da4:	ba 01       	.word	0x01ba;	????	
     da6:	00 00       	.word	0x0000;	????	
     da8:	80 00       	.word	0x0080;	????	
     daa:	00 00       	.word	0x0000;	????	
     dac:	00 00       	.word	0x0000;	????	
     dae:	00 00       	.word	0x0000;	????	
     db0:	0b 02       	.word	0x020b;	????	
     db2:	00 00       	.word	0x0000;	????	
     db4:	80 00       	.word	0x0080;	????	
     db6:	00 00       	.word	0x0000;	????	
     db8:	00 00       	.word	0x0000;	????	
     dba:	00 00       	.word	0x0000;	????	
     dbc:	31 02       	.word	0x0231;	????	
     dbe:	00 00       	.word	0x0000;	????	
     dc0:	80 00       	.word	0x0080;	????	
     dc2:	00 00       	.word	0x0000;	????	
     dc4:	00 00       	.word	0x0000;	????	
     dc6:	00 00       	.word	0x0000;	????	
     dc8:	6f 02       	.word	0x026f;	????	
     dca:	00 00       	.word	0x0000;	????	
     dcc:	80 00       	.word	0x0080;	????	
     dce:	00 00       	.word	0x0000;	????	
     dd0:	00 00       	.word	0x0000;	????	
     dd2:	00 00       	.word	0x0000;	????	
     dd4:	99 02       	.word	0x0299;	????	
     dd6:	00 00       	.word	0x0000;	????	
     dd8:	80 00       	.word	0x0080;	????	
     dda:	00 00       	.word	0x0000;	????	
     ddc:	00 00       	.word	0x0000;	????	
     dde:	00 00       	.word	0x0000;	????	
     de0:	c2 02       	.word	0x02c2;	????	
     de2:	00 00       	.word	0x0000;	????	
     de4:	80 00       	.word	0x0080;	????	
     de6:	00 00       	.word	0x0000;	????	
     de8:	00 00       	.word	0x0000;	????	
     dea:	00 00       	.word	0x0000;	????	
     dec:	dc 02       	.word	0x02dc;	????	
     dee:	00 00       	.word	0x0000;	????	
     df0:	80 00       	.word	0x0080;	????	
     df2:	00 00       	.word	0x0000;	????	
     df4:	00 00       	.word	0x0000;	????	
     df6:	00 00       	.word	0x0000;	????	
     df8:	f7 02       	.word	0x02f7;	????	
     dfa:	00 00       	.word	0x0000;	????	
     dfc:	80 00       	.word	0x0080;	????	
     dfe:	00 00       	.word	0x0000;	????	
     e00:	00 00       	.word	0x0000;	????	
     e02:	00 00       	.word	0x0000;	????	
     e04:	17 03       	.word	0x0317;	????	
     e06:	00 00       	.word	0x0000;	????	
     e08:	80 00       	.word	0x0080;	????	
     e0a:	00 00       	.word	0x0000;	????	
     e0c:	00 00       	.word	0x0000;	????	
     e0e:	00 00       	.word	0x0000;	????	
     e10:	50 03       	.word	0x0350;	????	
     e12:	00 00       	.word	0x0000;	????	
     e14:	80 00       	.word	0x0080;	????	
     e16:	00 00       	.word	0x0000;	????	
     e18:	00 00       	.word	0x0000;	????	
     e1a:	00 00       	.word	0x0000;	????	
     e1c:	6e 03       	.word	0x036e;	????	
     e1e:	00 00       	.word	0x0000;	????	
     e20:	80 00       	.word	0x0080;	????	
     e22:	00 00       	.word	0x0000;	????	
     e24:	00 00       	.word	0x0000;	????	
     e26:	00 00       	.word	0x0000;	????	
     e28:	8d 03       	.word	0x038d;	????	
     e2a:	00 00       	.word	0x0000;	????	
     e2c:	80 00       	.word	0x0080;	????	
     e2e:	00 00       	.word	0x0000;	????	
     e30:	00 00       	.word	0x0000;	????	
     e32:	00 00       	.word	0x0000;	????	
     e34:	b1 03       	.word	0x03b1;	????	
     e36:	00 00       	.word	0x0000;	????	
     e38:	80 00       	.word	0x0080;	????	
     e3a:	00 00       	.word	0x0000;	????	
     e3c:	00 00       	.word	0x0000;	????	
     e3e:	00 00       	.word	0x0000;	????	
     e40:	da 03       	.word	0x03da;	????	
     e42:	00 00       	.word	0x0000;	????	
     e44:	80 00       	.word	0x0080;	????	
     e46:	00 00       	.word	0x0000;	????	
     e48:	00 00       	.word	0x0000;	????	
     e4a:	00 00       	.word	0x0000;	????	
     e4c:	05 1a       	.word	0x1a05;	????	
     e4e:	00 00       	.word	0x0000;	????	
     e50:	82 00       	.word	0x0082;	????	
     e52:	00 00       	.word	0x0000;	????	
     e54:	36 5e       	add	@r14+,	r6	
     e56:	00 00       	.word	0x0000;	????	
     e58:	0e 1a       	.word	0x1a0e;	????	
     e5a:	00 00       	.word	0x0000;	????	
     e5c:	82 00       	.word	0x0082;	????	
     e5e:	00 00       	.word	0x0000;	????	
     e60:	e5 1d       	.word	0x1de5;	????	
     e62:	00 00       	.word	0x0000;	????	
     e64:	18 1a       	.word	0x1a18;	????	
     e66:	00 00       	.word	0x0000;	????	
     e68:	80 00       	.word	0x0080;	????	
     e6a:	07 00       	.word	0x0007;	????	
     e6c:	00 00       	.word	0x0000;	????	
     e6e:	00 00       	.word	0x0000;	????	
     e70:	3b 1a       	.word	0x1a3b;	????	
     e72:	00 00       	.word	0x0000;	????	
     e74:	80 00       	.word	0x0080;	????	
     e76:	09 00       	.word	0x0009;	????	
     e78:	00 00       	.word	0x0000;	????	
     e7a:	00 00       	.word	0x0000;	????	
     e7c:	62 1a       	.word	0x1a62;	????	
     e7e:	00 00       	.word	0x0000;	????	
     e80:	80 00       	.word	0x0080;	????	
     e82:	0b 00       	.word	0x000b;	????	
     e84:	00 00       	.word	0x0000;	????	
     e86:	00 00       	.word	0x0000;	????	
     e88:	88 1a       	.word	0x1a88;	????	
     e8a:	00 00       	.word	0x0000;	????	
     e8c:	82 00       	.word	0x0082;	????	
	...
     e96:	00 00       	.word	0x0000;	????	
     e98:	a2 00       	.word	0x00a2;	????	
     e9a:	00 00       	.word	0x0000;	????	
     e9c:	00 00       	.word	0x0000;	????	
     e9e:	00 00       	.word	0x0000;	????	
     ea0:	9e 1a       	.word	0x1a9e;	????	
     ea2:	00 00       	.word	0x0000;	????	
     ea4:	82 00       	.word	0x0082;	????	
	...
     eae:	00 00       	.word	0x0000;	????	
     eb0:	a2 00       	.word	0x00a2;	????	
     eb2:	00 00       	.word	0x0000;	????	
     eb4:	00 00       	.word	0x0000;	????	
     eb6:	00 00       	.word	0x0000;	????	
     eb8:	b7 1a       	.word	0x1ab7;	????	
     eba:	00 00       	.word	0x0000;	????	
     ebc:	82 00       	.word	0x0082;	????	
     ebe:	00 00       	.word	0x0000;	????	
     ec0:	fe 42 00 00 	mov.b	#8,	0(r14)	;r2 As==11, 0x0000(r14)
     ec4:	ce 1a       	.word	0x1ace;	????	
     ec6:	00 00       	.word	0x0000;	????	
     ec8:	80 00       	.word	0x0080;	????	
     eca:	00 00       	.word	0x0000;	????	
     ecc:	00 00       	.word	0x0000;	????	
     ece:	00 00       	.word	0x0000;	????	
     ed0:	72 1b       	.word	0x1b72;	????	
     ed2:	00 00       	.word	0x0000;	????	
     ed4:	80 00       	.word	0x0080;	????	
     ed6:	00 00       	.word	0x0000;	????	
     ed8:	00 00       	.word	0x0000;	????	
     eda:	00 00       	.word	0x0000;	????	
     edc:	ac 1b       	.word	0x1bac;	????	
     ede:	00 00       	.word	0x0000;	????	
     ee0:	80 00       	.word	0x0080;	????	
     ee2:	49 04       	.word	0x0449;	????	
     ee4:	00 00       	.word	0x0000;	????	
     ee6:	00 00       	.word	0x0000;	????	
     ee8:	c9 1b       	.word	0x1bc9;	????	
     eea:	00 00       	.word	0x0000;	????	
     eec:	82 00       	.word	0x0082;	????	
	...
     ef6:	00 00       	.word	0x0000;	????	
     ef8:	a2 00       	.word	0x00a2;	????	
	...
     f02:	00 00       	.word	0x0000;	????	
     f04:	a2 00       	.word	0x00a2;	????	
     f06:	00 00       	.word	0x0000;	????	
     f08:	00 00       	.word	0x0000;	????	
     f0a:	00 00       	.word	0x0000;	????	
     f0c:	d9 1b       	.word	0x1bd9;	????	
     f0e:	00 00       	.word	0x0000;	????	
     f10:	82 00       	.word	0x0082;	????	
	...
     f1a:	00 00       	.word	0x0000;	????	
     f1c:	a2 00       	.word	0x00a2;	????	
	...
     f26:	00 00       	.word	0x0000;	????	
     f28:	a2 00       	.word	0x00a2;	????	
     f2a:	00 00       	.word	0x0000;	????	
     f2c:	00 00       	.word	0x0000;	????	
     f2e:	00 00       	.word	0x0000;	????	
     f30:	e4 1b       	.word	0x1be4;	????	
     f32:	00 00       	.word	0x0000;	????	
     f34:	82 00       	.word	0x0082;	????	
     f36:	00 00       	.word	0x0000;	????	
     f38:	f2 b1 00 00 	bit.b	@r1+,	&0x0000	
     f3c:	f4 1b       	.word	0x1bf4;	????	
     f3e:	00 00       	.word	0x0000;	????	
     f40:	80 00       	.word	0x0080;	????	
     f42:	5a 00       	.word	0x005a;	????	
     f44:	00 00       	.word	0x0000;	????	
     f46:	00 00       	.word	0x0000;	????	
     f48:	09 1c       	.word	0x1c09;	????	
     f4a:	00 00       	.word	0x0000;	????	
     f4c:	80 00       	.word	0x0080;	????	
     f4e:	5b 00       	.word	0x005b;	????	
     f50:	00 00       	.word	0x0000;	????	
     f52:	00 00       	.word	0x0000;	????	
     f54:	1e 1c       	.word	0x1c1e;	????	
     f56:	00 00       	.word	0x0000;	????	
     f58:	80 00       	.word	0x0080;	????	
     f5a:	5d 00       	.word	0x005d;	????	
     f5c:	00 00       	.word	0x0000;	????	
     f5e:	00 00       	.word	0x0000;	????	
     f60:	32 1c       	.word	0x1c32;	????	
     f62:	00 00       	.word	0x0000;	????	
     f64:	80 00       	.word	0x0080;	????	
     f66:	5e 00       	.word	0x005e;	????	
     f68:	00 00       	.word	0x0000;	????	
     f6a:	00 00       	.word	0x0000;	????	
     f6c:	46 1c       	.word	0x1c46;	????	
     f6e:	00 00       	.word	0x0000;	????	
     f70:	80 00       	.word	0x0080;	????	
     f72:	5f 00       	.word	0x005f;	????	
     f74:	00 00       	.word	0x0000;	????	
     f76:	00 00       	.word	0x0000;	????	
     f78:	5a 1c       	.word	0x1c5a;	????	
     f7a:	00 00       	.word	0x0000;	????	
     f7c:	80 00       	.word	0x0080;	????	
     f7e:	66 00       	.word	0x0066;	????	
     f80:	00 00       	.word	0x0000;	????	
     f82:	00 00       	.word	0x0000;	????	
     f84:	6f 1c       	.word	0x1c6f;	????	
     f86:	00 00       	.word	0x0000;	????	
     f88:	80 00       	.word	0x0080;	????	
     f8a:	67 00       	.word	0x0067;	????	
     f8c:	00 00       	.word	0x0000;	????	
     f8e:	00 00       	.word	0x0000;	????	
     f90:	84 1c       	.word	0x1c84;	????	
     f92:	00 00       	.word	0x0000;	????	
     f94:	80 00       	.word	0x0080;	????	
     f96:	68 00       	.word	0x0068;	????	
     f98:	00 00       	.word	0x0000;	????	
     f9a:	00 00       	.word	0x0000;	????	
     f9c:	99 1c       	.word	0x1c99;	????	
     f9e:	00 00       	.word	0x0000;	????	
     fa0:	80 00       	.word	0x0080;	????	
     fa2:	82 00       	.word	0x0082;	????	
     fa4:	00 00       	.word	0x0000;	????	
     fa6:	00 00       	.word	0x0000;	????	
     fa8:	af 1c       	.word	0x1caf;	????	
     faa:	00 00       	.word	0x0000;	????	
     fac:	80 00       	.word	0x0080;	????	
     fae:	83 00       	.word	0x0083;	????	
     fb0:	00 00       	.word	0x0000;	????	
     fb2:	00 00       	.word	0x0000;	????	
     fb4:	ca 1c       	.word	0x1cca;	????	
     fb6:	00 00       	.word	0x0000;	????	
     fb8:	80 00       	.word	0x0080;	????	
     fba:	84 00       	.word	0x0084;	????	
     fbc:	00 00       	.word	0x0000;	????	
     fbe:	00 00       	.word	0x0000;	????	
     fc0:	e1 1c       	.word	0x1ce1;	????	
     fc2:	00 00       	.word	0x0000;	????	
     fc4:	80 00       	.word	0x0080;	????	
     fc6:	85 00       	.word	0x0085;	????	
     fc8:	00 00       	.word	0x0000;	????	
     fca:	00 00       	.word	0x0000;	????	
     fcc:	f7 1c       	.word	0x1cf7;	????	
     fce:	00 00       	.word	0x0000;	????	
     fd0:	80 00       	.word	0x0080;	????	
     fd2:	00 00       	.word	0x0000;	????	
     fd4:	00 00       	.word	0x0000;	????	
     fd6:	00 00       	.word	0x0000;	????	
     fd8:	4b 1d       	.word	0x1d4b;	????	
     fda:	00 00       	.word	0x0000;	????	
     fdc:	80 00       	.word	0x0080;	????	
     fde:	00 01       	.word	0x0100;	????	
     fe0:	00 00       	.word	0x0000;	????	
     fe2:	00 00       	.word	0x0000;	????	
     fe4:	68 1d       	.word	0x1d68;	????	
     fe6:	00 00       	.word	0x0000;	????	
     fe8:	80 00       	.word	0x0080;	????	
     fea:	13 01       	.word	0x0113;	????	
     fec:	00 00       	.word	0x0000;	????	
     fee:	00 00       	.word	0x0000;	????	
     ff0:	30 1e       	.word	0x1e30;	????	
     ff2:	00 00       	.word	0x0000;	????	
     ff4:	80 00       	.word	0x0080;	????	
     ff6:	3a 01       	.word	0x013a;	????	
	...
    1000:	a2 00       	.word	0x00a2;	????	
    1002:	00 00       	.word	0x0000;	????	
    1004:	00 00       	.word	0x0000;	????	
    1006:	00 00       	.word	0x0000;	????	
    1008:	c1 1e       	.word	0x1ec1;	????	
    100a:	00 00       	.word	0x0000;	????	
    100c:	24 00       	.word	0x0024;	????	
    100e:	97 01       	.word	0x0197;	????	
    1010:	ee eb 00 00 	xor.b	@r11,	0(r14)	;0x0000(r14)
    1014:	dd 1e       	.word	0x1edd;	????	
    1016:	00 00       	.word	0x0000;	????	
    1018:	40 00       	.word	0x0040;	????	
    101a:	94 01       	.word	0x0194;	????	
    101c:	0b 00       	.word	0x000b;	????	
    101e:	00 00       	.word	0x0000;	????	
    1020:	e6 1e       	.word	0x1ee6;	????	
    1022:	00 00       	.word	0x0000;	????	
    1024:	40 00       	.word	0x0040;	????	
    1026:	95 01       	.word	0x0195;	????	
    1028:	0a 00       	.word	0x000a;	????	
    102a:	00 00       	.word	0x0000;	????	
    102c:	ef 1e       	.word	0x1eef;	????	
    102e:	00 00       	.word	0x0000;	????	
    1030:	40 00       	.word	0x0040;	????	
    1032:	96 01       	.word	0x0196;	????	
    1034:	09 00       	.word	0x0009;	????	
    1036:	00 00       	.word	0x0000;	????	
    1038:	00 00       	.word	0x0000;	????	
    103a:	00 00       	.word	0x0000;	????	
    103c:	44 00       	.word	0x0044;	????	
    103e:	97 01       	.word	0x0197;	????	
	...
    1048:	44 00       	.word	0x0044;	????	
    104a:	9a 00       	.word	0x009a;	????	
    104c:	14 00       	.word	0x0014;	????	
    104e:	00 00       	.word	0x0000;	????	
    1050:	00 00       	.word	0x0000;	????	
    1052:	00 00       	.word	0x0000;	????	
    1054:	44 00       	.word	0x0044;	????	
    1056:	99 00       	.word	0x0099;	????	
    1058:	1e 00       	.word	0x001e;	????	
    105a:	00 00       	.word	0x0000;	????	
    105c:	00 00       	.word	0x0000;	????	
    105e:	00 00       	.word	0x0000;	????	
    1060:	44 00       	.word	0x0044;	????	
    1062:	9a 00       	.word	0x009a;	????	
    1064:	22 00       	.word	0x0022;	????	
    1066:	00 00       	.word	0x0000;	????	
    1068:	00 00       	.word	0x0000;	????	
    106a:	00 00       	.word	0x0000;	????	
    106c:	44 00       	.word	0x0044;	????	
    106e:	99 00       	.word	0x0099;	????	
    1070:	2c 00       	.word	0x002c;	????	
    1072:	00 00       	.word	0x0000;	????	
    1074:	00 00       	.word	0x0000;	????	
    1076:	00 00       	.word	0x0000;	????	
    1078:	44 00       	.word	0x0044;	????	
    107a:	a1 00       	.word	0x00a1;	????	
    107c:	30 00       	.word	0x0030;	????	
    107e:	00 00       	.word	0x0000;	????	
    1080:	00 00       	.word	0x0000;	????	
    1082:	00 00       	.word	0x0000;	????	
    1084:	44 00       	.word	0x0044;	????	
    1086:	a0 00       	.word	0x00a0;	????	
    1088:	36 00       	.word	0x0036;	????	
    108a:	00 00       	.word	0x0000;	????	
    108c:	00 00       	.word	0x0000;	????	
    108e:	00 00       	.word	0x0000;	????	
    1090:	44 00       	.word	0x0044;	????	
    1092:	a1 00       	.word	0x00a1;	????	
    1094:	3a 00       	.word	0x003a;	????	
    1096:	00 00       	.word	0x0000;	????	
    1098:	00 00       	.word	0x0000;	????	
    109a:	00 00       	.word	0x0000;	????	
    109c:	44 00       	.word	0x0044;	????	
    109e:	a0 00       	.word	0x00a0;	????	
    10a0:	40 00       	.word	0x0040;	????	
    10a2:	00 00       	.word	0x0000;	????	
    10a4:	00 00       	.word	0x0000;	????	
    10a6:	00 00       	.word	0x0000;	????	
    10a8:	44 00       	.word	0x0044;	????	
    10aa:	90 00       	.word	0x0090;	????	
    10ac:	4c 00       	.word	0x004c;	????	
    10ae:	00 00       	.word	0x0000;	????	
    10b0:	00 00       	.word	0x0000;	????	
    10b2:	00 00       	.word	0x0000;	????	
    10b4:	44 00       	.word	0x0044;	????	
    10b6:	8d 00       	.word	0x008d;	????	
    10b8:	50 00       	.word	0x0050;	????	
    10ba:	00 00       	.word	0x0000;	????	
    10bc:	00 00       	.word	0x0000;	????	
    10be:	00 00       	.word	0x0000;	????	
    10c0:	44 00       	.word	0x0044;	????	
    10c2:	bb 01       	.word	0x01bb;	????	
    10c4:	52 00       	.word	0x0052;	????	
    10c6:	00 00       	.word	0x0000;	????	
    10c8:	00 00       	.word	0x0000;	????	
    10ca:	00 00       	.word	0x0000;	????	
    10cc:	44 00       	.word	0x0044;	????	
    10ce:	a1 00       	.word	0x00a1;	????	
    10d0:	5a 00       	.word	0x005a;	????	
    10d2:	00 00       	.word	0x0000;	????	
    10d4:	00 00       	.word	0x0000;	????	
    10d6:	00 00       	.word	0x0000;	????	
    10d8:	44 00       	.word	0x0044;	????	
    10da:	a0 00       	.word	0x00a0;	????	
    10dc:	60 00       	.word	0x0060;	????	
    10de:	00 00       	.word	0x0000;	????	
    10e0:	00 00       	.word	0x0000;	????	
    10e2:	00 00       	.word	0x0000;	????	
    10e4:	44 00       	.word	0x0044;	????	
    10e6:	aa 00       	.word	0x00aa;	????	
    10e8:	64 00       	.word	0x0064;	????	
    10ea:	00 00       	.word	0x0000;	????	
    10ec:	00 00       	.word	0x0000;	????	
    10ee:	00 00       	.word	0x0000;	????	
    10f0:	44 00       	.word	0x0044;	????	
    10f2:	a9 00       	.word	0x00a9;	????	
    10f4:	6a 00       	.word	0x006a;	????	
    10f6:	00 00       	.word	0x0000;	????	
    10f8:	00 00       	.word	0x0000;	????	
    10fa:	00 00       	.word	0x0000;	????	
    10fc:	44 00       	.word	0x0044;	????	
    10fe:	aa 00       	.word	0x00aa;	????	
    1100:	6e 00       	.word	0x006e;	????	
    1102:	00 00       	.word	0x0000;	????	
    1104:	00 00       	.word	0x0000;	????	
    1106:	00 00       	.word	0x0000;	????	
    1108:	44 00       	.word	0x0044;	????	
    110a:	a9 00       	.word	0x00a9;	????	
    110c:	74 00       	.word	0x0074;	????	
    110e:	00 00       	.word	0x0000;	????	
    1110:	00 00       	.word	0x0000;	????	
    1112:	00 00       	.word	0x0000;	????	
    1114:	44 00       	.word	0x0044;	????	
    1116:	b7 01       	.word	0x01b7;	????	
    1118:	78 00       	.word	0x0078;	????	
    111a:	00 00       	.word	0x0000;	????	
    111c:	00 00       	.word	0x0000;	????	
    111e:	00 00       	.word	0x0000;	????	
    1120:	44 00       	.word	0x0044;	????	
    1122:	b8 01       	.word	0x01b8;	????	
    1124:	8a 00       	.word	0x008a;	????	
    1126:	00 00       	.word	0x0000;	????	
    1128:	00 00       	.word	0x0000;	????	
    112a:	00 00       	.word	0x0000;	????	
    112c:	44 00       	.word	0x0044;	????	
    112e:	1b 02       	.word	0x021b;	????	
    1130:	96 00       	.word	0x0096;	????	
    1132:	00 00       	.word	0x0000;	????	
    1134:	00 00       	.word	0x0000;	????	
    1136:	00 00       	.word	0x0000;	????	
    1138:	44 00       	.word	0x0044;	????	
    113a:	aa 00       	.word	0x00aa;	????	
    113c:	9e 00       	.word	0x009e;	????	
    113e:	00 00       	.word	0x0000;	????	
    1140:	00 00       	.word	0x0000;	????	
    1142:	00 00       	.word	0x0000;	????	
    1144:	44 00       	.word	0x0044;	????	
    1146:	a9 00       	.word	0x00a9;	????	
    1148:	a4 00       	.word	0x00a4;	????	
    114a:	00 00       	.word	0x0000;	????	
    114c:	00 00       	.word	0x0000;	????	
    114e:	00 00       	.word	0x0000;	????	
    1150:	44 00       	.word	0x0044;	????	
    1152:	bf 01       	.word	0x01bf;	????	
    1154:	a8 00       	.word	0x00a8;	????	
    1156:	00 00       	.word	0x0000;	????	
    1158:	00 00       	.word	0x0000;	????	
    115a:	00 00       	.word	0x0000;	????	
    115c:	44 00       	.word	0x0044;	????	
    115e:	c7 01       	.word	0x01c7;	????	
    1160:	ac 00       	.word	0x00ac;	????	
    1162:	00 00       	.word	0x0000;	????	
    1164:	00 00       	.word	0x0000;	????	
    1166:	00 00       	.word	0x0000;	????	
    1168:	44 00       	.word	0x0044;	????	
    116a:	c8 01       	.word	0x01c8;	????	
    116c:	b0 00       	.word	0x00b0;	????	
    116e:	00 00       	.word	0x0000;	????	
    1170:	00 00       	.word	0x0000;	????	
    1172:	00 00       	.word	0x0000;	????	
    1174:	44 00       	.word	0x0044;	????	
    1176:	c9 01       	.word	0x01c9;	????	
    1178:	b4 00       	.word	0x00b4;	????	
    117a:	00 00       	.word	0x0000;	????	
    117c:	00 00       	.word	0x0000;	????	
    117e:	00 00       	.word	0x0000;	????	
    1180:	44 00       	.word	0x0044;	????	
    1182:	ca 01       	.word	0x01ca;	????	
    1184:	bc 00       	.word	0x00bc;	????	
    1186:	00 00       	.word	0x0000;	????	
    1188:	00 00       	.word	0x0000;	????	
    118a:	00 00       	.word	0x0000;	????	
    118c:	44 00       	.word	0x0044;	????	
    118e:	cc 01       	.word	0x01cc;	????	
    1190:	c4 00       	.word	0x00c4;	????	
    1192:	00 00       	.word	0x0000;	????	
    1194:	00 00       	.word	0x0000;	????	
    1196:	00 00       	.word	0x0000;	????	
    1198:	44 00       	.word	0x0044;	????	
    119a:	ce 01       	.word	0x01ce;	????	
    119c:	c8 00       	.word	0x00c8;	????	
    119e:	00 00       	.word	0x0000;	????	
    11a0:	00 00       	.word	0x0000;	????	
    11a2:	00 00       	.word	0x0000;	????	
    11a4:	44 00       	.word	0x0044;	????	
    11a6:	d0 01       	.word	0x01d0;	????	
    11a8:	ca 00       	.word	0x00ca;	????	
    11aa:	00 00       	.word	0x0000;	????	
    11ac:	00 00       	.word	0x0000;	????	
    11ae:	00 00       	.word	0x0000;	????	
    11b0:	44 00       	.word	0x0044;	????	
    11b2:	d3 01       	.word	0x01d3;	????	
    11b4:	d0 00       	.word	0x00d0;	????	
    11b6:	00 00       	.word	0x0000;	????	
    11b8:	00 00       	.word	0x0000;	????	
    11ba:	00 00       	.word	0x0000;	????	
    11bc:	44 00       	.word	0x0044;	????	
    11be:	d5 01       	.word	0x01d5;	????	
    11c0:	da 00       	.word	0x00da;	????	
    11c2:	00 00       	.word	0x0000;	????	
    11c4:	00 00       	.word	0x0000;	????	
    11c6:	00 00       	.word	0x0000;	????	
    11c8:	44 00       	.word	0x0044;	????	
    11ca:	d6 01       	.word	0x01d6;	????	
    11cc:	dc 00       	.word	0x00dc;	????	
    11ce:	00 00       	.word	0x0000;	????	
    11d0:	00 00       	.word	0x0000;	????	
    11d2:	00 00       	.word	0x0000;	????	
    11d4:	44 00       	.word	0x0044;	????	
    11d6:	d8 01       	.word	0x01d8;	????	
    11d8:	f4 00       	.word	0x00f4;	????	
    11da:	00 00       	.word	0x0000;	????	
    11dc:	00 00       	.word	0x0000;	????	
    11de:	00 00       	.word	0x0000;	????	
    11e0:	44 00       	.word	0x0044;	????	
    11e2:	da 01       	.word	0x01da;	????	
    11e4:	f8 00       	.word	0x00f8;	????	
    11e6:	00 00       	.word	0x0000;	????	
    11e8:	00 00       	.word	0x0000;	????	
    11ea:	00 00       	.word	0x0000;	????	
    11ec:	44 00       	.word	0x0044;	????	
    11ee:	db 01       	.word	0x01db;	????	
    11f0:	fa 00       	.word	0x00fa;	????	
    11f2:	00 00       	.word	0x0000;	????	
    11f4:	00 00       	.word	0x0000;	????	
    11f6:	00 00       	.word	0x0000;	????	
    11f8:	44 00       	.word	0x0044;	????	
    11fa:	ee 01       	.word	0x01ee;	????	
    11fc:	10 01       	.word	0x0110;	????	
    11fe:	00 00       	.word	0x0000;	????	
    1200:	00 00       	.word	0x0000;	????	
    1202:	00 00       	.word	0x0000;	????	
    1204:	44 00       	.word	0x0044;	????	
    1206:	f0 01       	.word	0x01f0;	????	
    1208:	1a 01       	.word	0x011a;	????	
    120a:	00 00       	.word	0x0000;	????	
    120c:	00 00       	.word	0x0000;	????	
    120e:	00 00       	.word	0x0000;	????	
    1210:	44 00       	.word	0x0044;	????	
    1212:	f2 01       	.word	0x01f2;	????	
    1214:	1e 01       	.word	0x011e;	????	
    1216:	00 00       	.word	0x0000;	????	
    1218:	00 00       	.word	0x0000;	????	
    121a:	00 00       	.word	0x0000;	????	
    121c:	44 00       	.word	0x0044;	????	
    121e:	f8 01       	.word	0x01f8;	????	
    1220:	26 01       	.word	0x0126;	????	
    1222:	00 00       	.word	0x0000;	????	
    1224:	00 00       	.word	0x0000;	????	
    1226:	00 00       	.word	0x0000;	????	
    1228:	44 00       	.word	0x0044;	????	
    122a:	fa 01       	.word	0x01fa;	????	
    122c:	2a 01       	.word	0x012a;	????	
    122e:	00 00       	.word	0x0000;	????	
    1230:	00 00       	.word	0x0000;	????	
    1232:	00 00       	.word	0x0000;	????	
    1234:	44 00       	.word	0x0044;	????	
    1236:	fb 01       	.word	0x01fb;	????	
    1238:	2e 01       	.word	0x012e;	????	
    123a:	00 00       	.word	0x0000;	????	
    123c:	00 00       	.word	0x0000;	????	
    123e:	00 00       	.word	0x0000;	????	
    1240:	44 00       	.word	0x0044;	????	
    1242:	06 02       	.word	0x0206;	????	
    1244:	3a 01       	.word	0x013a;	????	
    1246:	00 00       	.word	0x0000;	????	
    1248:	00 00       	.word	0x0000;	????	
    124a:	00 00       	.word	0x0000;	????	
    124c:	44 00       	.word	0x0044;	????	
    124e:	08 02       	.word	0x0208;	????	
    1250:	52 01       	.word	0x0152;	????	
    1252:	00 00       	.word	0x0000;	????	
    1254:	00 00       	.word	0x0000;	????	
    1256:	00 00       	.word	0x0000;	????	
    1258:	44 00       	.word	0x0044;	????	
    125a:	09 02       	.word	0x0209;	????	
    125c:	62 01       	.word	0x0162;	????	
    125e:	00 00       	.word	0x0000;	????	
    1260:	00 00       	.word	0x0000;	????	
    1262:	00 00       	.word	0x0000;	????	
    1264:	44 00       	.word	0x0044;	????	
    1266:	12 02       	.word	0x0212;	????	
    1268:	84 01       	.word	0x0184;	????	
    126a:	00 00       	.word	0x0000;	????	
    126c:	00 00       	.word	0x0000;	????	
    126e:	00 00       	.word	0x0000;	????	
    1270:	44 00       	.word	0x0044;	????	
    1272:	16 02       	.word	0x0216;	????	
    1274:	8a 01       	.word	0x018a;	????	
    1276:	00 00       	.word	0x0000;	????	
    1278:	00 00       	.word	0x0000;	????	
    127a:	00 00       	.word	0x0000;	????	
    127c:	44 00       	.word	0x0044;	????	
    127e:	18 02       	.word	0x0218;	????	
    1280:	90 01       	.word	0x0190;	????	
    1282:	00 00       	.word	0x0000;	????	
    1284:	00 00       	.word	0x0000;	????	
    1286:	00 00       	.word	0x0000;	????	
    1288:	44 00       	.word	0x0044;	????	
    128a:	19 02       	.word	0x0219;	????	
    128c:	aa 01       	.word	0x01aa;	????	
    128e:	00 00       	.word	0x0000;	????	
    1290:	00 00       	.word	0x0000;	????	
    1292:	00 00       	.word	0x0000;	????	
    1294:	44 00       	.word	0x0044;	????	
    1296:	00 02       	.word	0x0200;	????	
    1298:	b0 01       	.word	0x01b0;	????	
    129a:	00 00       	.word	0x0000;	????	
    129c:	00 00       	.word	0x0000;	????	
    129e:	00 00       	.word	0x0000;	????	
    12a0:	44 00       	.word	0x0044;	????	
    12a2:	01 02       	.word	0x0201;	????	
    12a4:	b4 01       	.word	0x01b4;	????	
    12a6:	00 00       	.word	0x0000;	????	
    12a8:	00 00       	.word	0x0000;	????	
    12aa:	00 00       	.word	0x0000;	????	
    12ac:	44 00       	.word	0x0044;	????	
    12ae:	02 02       	.word	0x0202;	????	
    12b0:	b8 01       	.word	0x01b8;	????	
    12b2:	00 00       	.word	0x0000;	????	
    12b4:	00 00       	.word	0x0000;	????	
    12b6:	00 00       	.word	0x0000;	????	
    12b8:	44 00       	.word	0x0044;	????	
    12ba:	f6 01       	.word	0x01f6;	????	
    12bc:	c2 01       	.word	0x01c2;	????	
    12be:	00 00       	.word	0x0000;	????	
    12c0:	00 00       	.word	0x0000;	????	
    12c2:	00 00       	.word	0x0000;	????	
    12c4:	44 00       	.word	0x0044;	????	
    12c6:	0e 02       	.word	0x020e;	????	
    12c8:	cc 01       	.word	0x01cc;	????	
    12ca:	00 00       	.word	0x0000;	????	
    12cc:	00 00       	.word	0x0000;	????	
    12ce:	00 00       	.word	0x0000;	????	
    12d0:	44 00       	.word	0x0044;	????	
    12d2:	0f 02       	.word	0x020f;	????	
    12d4:	d2 01       	.word	0x01d2;	????	
    12d6:	00 00       	.word	0x0000;	????	
    12d8:	00 00       	.word	0x0000;	????	
    12da:	00 00       	.word	0x0000;	????	
    12dc:	44 00       	.word	0x0044;	????	
    12de:	10 02       	.word	0x0210;	????	
    12e0:	d6 01       	.word	0x01d6;	????	
    12e2:	00 00       	.word	0x0000;	????	
    12e4:	00 00       	.word	0x0000;	????	
    12e6:	00 00       	.word	0x0000;	????	
    12e8:	44 00       	.word	0x0044;	????	
    12ea:	e1 01       	.word	0x01e1;	????	
    12ec:	e8 01       	.word	0x01e8;	????	
    12ee:	00 00       	.word	0x0000;	????	
    12f0:	00 00       	.word	0x0000;	????	
    12f2:	00 00       	.word	0x0000;	????	
    12f4:	44 00       	.word	0x0044;	????	
    12f6:	e4 01       	.word	0x01e4;	????	
    12f8:	ec 01       	.word	0x01ec;	????	
    12fa:	00 00       	.word	0x0000;	????	
    12fc:	00 00       	.word	0x0000;	????	
    12fe:	00 00       	.word	0x0000;	????	
    1300:	44 00       	.word	0x0044;	????	
    1302:	e8 01       	.word	0x01e8;	????	
    1304:	f2 01       	.word	0x01f2;	????	
    1306:	00 00       	.word	0x0000;	????	
    1308:	00 00       	.word	0x0000;	????	
    130a:	00 00       	.word	0x0000;	????	
    130c:	44 00       	.word	0x0044;	????	
    130e:	e9 01       	.word	0x01e9;	????	
    1310:	f4 01       	.word	0x01f4;	????	
    1312:	00 00       	.word	0x0000;	????	
    1314:	00 00       	.word	0x0000;	????	
    1316:	00 00       	.word	0x0000;	????	
    1318:	44 00       	.word	0x0044;	????	
    131a:	cf 01       	.word	0x01cf;	????	
    131c:	fa 01       	.word	0x01fa;	????	
    131e:	00 00       	.word	0x0000;	????	
    1320:	00 00       	.word	0x0000;	????	
    1322:	00 00       	.word	0x0000;	????	
    1324:	44 00       	.word	0x0044;	????	
    1326:	1d 02       	.word	0x021d;	????	
    1328:	10 02       	.word	0x0210;	????	
    132a:	00 00       	.word	0x0000;	????	
    132c:	fa 1e       	.word	0x1efa;	????	
    132e:	00 00       	.word	0x0000;	????	
    1330:	40 00       	.word	0x0040;	????	
    1332:	98 01       	.word	0x0198;	????	
    1334:	0e 00       	.word	0x000e;	????	
    1336:	00 00       	.word	0x0000;	????	
    1338:	0c 1f       	.word	0x1f0c;	????	
    133a:	00 00       	.word	0x0000;	????	
    133c:	40 00       	.word	0x0040;	????	
    133e:	9b 01       	.word	0x019b;	????	
    1340:	05 00       	.word	0x0005;	????	
    1342:	00 00       	.word	0x0000;	????	
    1344:	20 1f       	.word	0x1f20;	????	
    1346:	00 00       	.word	0x0000;	????	
    1348:	40 00       	.word	0x0040;	????	
    134a:	9c 01       	.word	0x019c;	????	
    134c:	06 00       	.word	0x0006;	????	
    134e:	00 00       	.word	0x0000;	????	
    1350:	34 1f       	.word	0x1f34;	????	
    1352:	00 00       	.word	0x0000;	????	
    1354:	40 00       	.word	0x0040;	????	
    1356:	9d 01       	.word	0x019d;	????	
    1358:	0c 00       	.word	0x000c;	????	
    135a:	00 00       	.word	0x0000;	????	
    135c:	46 1f       	.word	0x1f46;	????	
    135e:	00 00       	.word	0x0000;	????	
    1360:	40 00       	.word	0x0040;	????	
    1362:	9e 01       	.word	0x019e;	????	
    1364:	07 00       	.word	0x0007;	????	
    1366:	00 00       	.word	0x0000;	????	
    1368:	00 00       	.word	0x0000;	????	
    136a:	00 00       	.word	0x0000;	????	
    136c:	c0 00       	.word	0x00c0;	????	
    136e:	00 00       	.word	0x0000;	????	
    1370:	14 00       	.word	0x0014;	????	
    1372:	00 00       	.word	0x0000;	????	
    1374:	58 1f       	.word	0x1f58;	????	
    1376:	00 00       	.word	0x0000;	????	
    1378:	40 00       	.word	0x0040;	????	
    137a:	c5 01       	.word	0x01c5;	????	
    137c:	0f 00       	.word	0x000f;	????	
    137e:	00 00       	.word	0x0000;	????	
    1380:	00 00       	.word	0x0000;	????	
    1382:	00 00       	.word	0x0000;	????	
    1384:	c0 00       	.word	0x00c0;	????	
    1386:	00 00       	.word	0x0000;	????	
    1388:	ac 00       	.word	0x00ac;	????	
    138a:	00 00       	.word	0x0000;	????	
    138c:	00 00       	.word	0x0000;	????	
    138e:	00 00       	.word	0x0000;	????	
    1390:	e0 00       	.word	0x00e0;	????	
    1392:	00 00       	.word	0x0000;	????	
    1394:	10 01       	.word	0x0110;	????	
    1396:	00 00       	.word	0x0000;	????	
    1398:	58 1f       	.word	0x1f58;	????	
    139a:	00 00       	.word	0x0000;	????	
    139c:	40 00       	.word	0x0040;	????	
    139e:	c5 01       	.word	0x01c5;	????	
    13a0:	0f 00       	.word	0x000f;	????	
    13a2:	00 00       	.word	0x0000;	????	
    13a4:	00 00       	.word	0x0000;	????	
    13a6:	00 00       	.word	0x0000;	????	
    13a8:	c0 00       	.word	0x00c0;	????	
    13aa:	00 00       	.word	0x0000;	????	
    13ac:	e8 01       	.word	0x01e8;	????	
    13ae:	00 00       	.word	0x0000;	????	
    13b0:	00 00       	.word	0x0000;	????	
    13b2:	00 00       	.word	0x0000;	????	
    13b4:	e0 00       	.word	0x00e0;	????	
    13b6:	00 00       	.word	0x0000;	????	
    13b8:	00 02       	.word	0x0200;	????	
    13ba:	00 00       	.word	0x0000;	????	
    13bc:	00 00       	.word	0x0000;	????	
    13be:	00 00       	.word	0x0000;	????	
    13c0:	e0 00       	.word	0x00e0;	????	
    13c2:	00 00       	.word	0x0000;	????	
    13c4:	10 02       	.word	0x0210;	????	
    13c6:	00 00       	.word	0x0000;	????	
    13c8:	00 00       	.word	0x0000;	????	
    13ca:	00 00       	.word	0x0000;	????	
    13cc:	24 00       	.word	0x0024;	????	
    13ce:	00 00       	.word	0x0000;	????	
    13d0:	22 02       	.word	0x0222;	????	
    13d2:	00 00       	.word	0x0000;	????	
    13d4:	64 1f       	.word	0x1f64;	????	
    13d6:	00 00       	.word	0x0000;	????	
    13d8:	24 00       	.word	0x0024;	????	
    13da:	21 02       	.word	0x0221;	????	
    13dc:	10 ee 00 00 	xor	0(r14),	r0	;0x0000(r14)
    13e0:	75 1f       	.word	0x1f75;	????	
    13e2:	00 00       	.word	0x0000;	????	
    13e4:	40 00       	.word	0x0040;	????	
    13e6:	20 02       	.word	0x0220;	????	
    13e8:	0e 00       	.word	0x000e;	????	
    13ea:	00 00       	.word	0x0000;	????	
    13ec:	83 1f       	.word	0x1f83;	????	
    13ee:	00 00       	.word	0x0000;	????	
    13f0:	40 00       	.word	0x0040;	????	
    13f2:	20 02       	.word	0x0220;	????	
    13f4:	0c 00       	.word	0x000c;	????	
    13f6:	00 00       	.word	0x0000;	????	
    13f8:	00 00       	.word	0x0000;	????	
    13fa:	00 00       	.word	0x0000;	????	
    13fc:	44 00       	.word	0x0044;	????	
    13fe:	21 02       	.word	0x0221;	????	
	...
    1408:	44 00       	.word	0x0044;	????	
    140a:	28 02       	.word	0x0228;	????	
    140c:	06 00       	.word	0x0006;	????	
    140e:	00 00       	.word	0x0000;	????	
    1410:	00 00       	.word	0x0000;	????	
    1412:	00 00       	.word	0x0000;	????	
    1414:	44 00       	.word	0x0044;	????	
    1416:	29 02       	.word	0x0229;	????	
    1418:	0e 00       	.word	0x000e;	????	
    141a:	00 00       	.word	0x0000;	????	
    141c:	00 00       	.word	0x0000;	????	
    141e:	00 00       	.word	0x0000;	????	
    1420:	44 00       	.word	0x0044;	????	
    1422:	2b 02       	.word	0x022b;	????	
    1424:	16 00       	.word	0x0016;	????	
    1426:	00 00       	.word	0x0000;	????	
    1428:	00 00       	.word	0x0000;	????	
    142a:	00 00       	.word	0x0000;	????	
    142c:	44 00       	.word	0x0044;	????	
    142e:	2c 02       	.word	0x022c;	????	
    1430:	22 00       	.word	0x0022;	????	
    1432:	00 00       	.word	0x0000;	????	
    1434:	00 00       	.word	0x0000;	????	
    1436:	00 00       	.word	0x0000;	????	
    1438:	44 00       	.word	0x0044;	????	
    143a:	2e 02       	.word	0x022e;	????	
    143c:	32 00       	.word	0x0032;	????	
    143e:	00 00       	.word	0x0000;	????	
    1440:	00 00       	.word	0x0000;	????	
    1442:	00 00       	.word	0x0000;	????	
    1444:	44 00       	.word	0x0044;	????	
    1446:	30 02       	.word	0x0230;	????	
    1448:	40 00       	.word	0x0040;	????	
    144a:	00 00       	.word	0x0000;	????	
    144c:	00 00       	.word	0x0000;	????	
    144e:	00 00       	.word	0x0000;	????	
    1450:	44 00       	.word	0x0044;	????	
    1452:	31 02       	.word	0x0231;	????	
    1454:	44 00       	.word	0x0044;	????	
    1456:	00 00       	.word	0x0000;	????	
    1458:	91 1f       	.word	0x1f91;	????	
    145a:	00 00       	.word	0x0000;	????	
    145c:	80 00       	.word	0x0080;	????	
    145e:	22 02       	.word	0x0222;	????	
    1460:	00 00       	.word	0x0000;	????	
    1462:	00 00       	.word	0x0000;	????	
    1464:	9a 1f       	.word	0x1f9a;	????	
    1466:	00 00       	.word	0x0000;	????	
    1468:	80 00       	.word	0x0080;	????	
    146a:	23 02       	.word	0x0223;	????	
    146c:	08 00       	.word	0x0008;	????	
    146e:	00 00       	.word	0x0000;	????	
    1470:	a3 1f       	.word	0x1fa3;	????	
    1472:	00 00       	.word	0x0000;	????	
    1474:	80 00       	.word	0x0080;	????	
    1476:	24 02       	.word	0x0224;	????	
    1478:	10 00       	.word	0x0010;	????	
    147a:	00 00       	.word	0x0000;	????	
    147c:	ae 1f       	.word	0x1fae;	????	
    147e:	00 00       	.word	0x0000;	????	
    1480:	40 00       	.word	0x0040;	????	
    1482:	25 02       	.word	0x0225;	????	
    1484:	0f 00       	.word	0x000f;	????	
    1486:	00 00       	.word	0x0000;	????	
    1488:	b9 1f       	.word	0x1fb9;	????	
    148a:	00 00       	.word	0x0000;	????	
    148c:	80 00       	.word	0x0080;	????	
    148e:	26 02       	.word	0x0226;	????	
    1490:	18 00       	.word	0x0018;	????	
    1492:	00 00       	.word	0x0000;	????	
    1494:	c3 1f       	.word	0x1fc3;	????	
    1496:	00 00       	.word	0x0000;	????	
    1498:	80 00       	.word	0x0080;	????	
    149a:	26 02       	.word	0x0226;	????	
    149c:	1c 00       	.word	0x001c;	????	
    149e:	00 00       	.word	0x0000;	????	
    14a0:	00 00       	.word	0x0000;	????	
    14a2:	00 00       	.word	0x0000;	????	
    14a4:	c0 00       	.word	0x00c0;	????	
    14a6:	00 00       	.word	0x0000;	????	
    14a8:	06 00       	.word	0x0006;	????	
    14aa:	00 00       	.word	0x0000;	????	
    14ac:	00 00       	.word	0x0000;	????	
    14ae:	00 00       	.word	0x0000;	????	
    14b0:	e0 00       	.word	0x00e0;	????	
    14b2:	00 00       	.word	0x0000;	????	
    14b4:	44 00       	.word	0x0044;	????	
    14b6:	00 00       	.word	0x0000;	????	
    14b8:	00 00       	.word	0x0000;	????	
    14ba:	00 00       	.word	0x0000;	????	
    14bc:	24 00       	.word	0x0024;	????	
    14be:	00 00       	.word	0x0000;	????	
    14c0:	4c 00       	.word	0x004c;	????	
    14c2:	00 00       	.word	0x0000;	????	
    14c4:	cd 1f       	.word	0x1fcd;	????	
    14c6:	00 00       	.word	0x0000;	????	
    14c8:	24 00       	.word	0x0024;	????	
    14ca:	35 02       	.word	0x0235;	????	
    14cc:	5c ee 00 00 	xor.b	0(r14),	r12	;0x0000(r14)
    14d0:	75 1f       	.word	0x1f75;	????	
    14d2:	00 00       	.word	0x0000;	????	
    14d4:	40 00       	.word	0x0040;	????	
    14d6:	34 02       	.word	0x0234;	????	
    14d8:	0e 00       	.word	0x000e;	????	
    14da:	00 00       	.word	0x0000;	????	
    14dc:	83 1f       	.word	0x1f83;	????	
    14de:	00 00       	.word	0x0000;	????	
    14e0:	40 00       	.word	0x0040;	????	
    14e2:	34 02       	.word	0x0234;	????	
    14e4:	0c 00       	.word	0x000c;	????	
    14e6:	00 00       	.word	0x0000;	????	
    14e8:	00 00       	.word	0x0000;	????	
    14ea:	00 00       	.word	0x0000;	????	
    14ec:	44 00       	.word	0x0044;	????	
    14ee:	35 02       	.word	0x0235;	????	
	...
    14f8:	44 00       	.word	0x0044;	????	
    14fa:	3c 02       	.word	0x023c;	????	
    14fc:	06 00       	.word	0x0006;	????	
    14fe:	00 00       	.word	0x0000;	????	
    1500:	00 00       	.word	0x0000;	????	
    1502:	00 00       	.word	0x0000;	????	
    1504:	44 00       	.word	0x0044;	????	
    1506:	3d 02       	.word	0x023d;	????	
    1508:	0e 00       	.word	0x000e;	????	
    150a:	00 00       	.word	0x0000;	????	
    150c:	00 00       	.word	0x0000;	????	
    150e:	00 00       	.word	0x0000;	????	
    1510:	44 00       	.word	0x0044;	????	
    1512:	3f 02       	.word	0x023f;	????	
    1514:	16 00       	.word	0x0016;	????	
    1516:	00 00       	.word	0x0000;	????	
    1518:	00 00       	.word	0x0000;	????	
    151a:	00 00       	.word	0x0000;	????	
    151c:	44 00       	.word	0x0044;	????	
    151e:	40 02       	.word	0x0240;	????	
    1520:	22 00       	.word	0x0022;	????	
    1522:	00 00       	.word	0x0000;	????	
    1524:	00 00       	.word	0x0000;	????	
    1526:	00 00       	.word	0x0000;	????	
    1528:	44 00       	.word	0x0044;	????	
    152a:	42 02       	.word	0x0242;	????	
    152c:	32 00       	.word	0x0032;	????	
    152e:	00 00       	.word	0x0000;	????	
    1530:	00 00       	.word	0x0000;	????	
    1532:	00 00       	.word	0x0000;	????	
    1534:	44 00       	.word	0x0044;	????	
    1536:	44 02       	.word	0x0244;	????	
    1538:	36 00       	.word	0x0036;	????	
    153a:	00 00       	.word	0x0000;	????	
    153c:	00 00       	.word	0x0000;	????	
    153e:	00 00       	.word	0x0000;	????	
    1540:	44 00       	.word	0x0044;	????	
    1542:	46 02       	.word	0x0246;	????	
    1544:	44 00       	.word	0x0044;	????	
    1546:	00 00       	.word	0x0000;	????	
    1548:	00 00       	.word	0x0000;	????	
    154a:	00 00       	.word	0x0000;	????	
    154c:	44 00       	.word	0x0044;	????	
    154e:	47 02       	.word	0x0247;	????	
    1550:	48 00       	.word	0x0048;	????	
    1552:	00 00       	.word	0x0000;	????	
    1554:	91 1f       	.word	0x1f91;	????	
    1556:	00 00       	.word	0x0000;	????	
    1558:	80 00       	.word	0x0080;	????	
    155a:	36 02       	.word	0x0236;	????	
    155c:	00 00       	.word	0x0000;	????	
    155e:	00 00       	.word	0x0000;	????	
    1560:	9a 1f       	.word	0x1f9a;	????	
    1562:	00 00       	.word	0x0000;	????	
    1564:	80 00       	.word	0x0080;	????	
    1566:	37 02       	.word	0x0237;	????	
    1568:	08 00       	.word	0x0008;	????	
    156a:	00 00       	.word	0x0000;	????	
    156c:	a3 1f       	.word	0x1fa3;	????	
    156e:	00 00       	.word	0x0000;	????	
    1570:	80 00       	.word	0x0080;	????	
    1572:	38 02       	.word	0x0238;	????	
    1574:	10 00       	.word	0x0010;	????	
    1576:	00 00       	.word	0x0000;	????	
    1578:	ae 1f       	.word	0x1fae;	????	
    157a:	00 00       	.word	0x0000;	????	
    157c:	40 00       	.word	0x0040;	????	
    157e:	39 02       	.word	0x0239;	????	
    1580:	0f 00       	.word	0x000f;	????	
    1582:	00 00       	.word	0x0000;	????	
    1584:	b9 1f       	.word	0x1fb9;	????	
    1586:	00 00       	.word	0x0000;	????	
    1588:	80 00       	.word	0x0080;	????	
    158a:	3a 02       	.word	0x023a;	????	
    158c:	18 00       	.word	0x0018;	????	
    158e:	00 00       	.word	0x0000;	????	
    1590:	c3 1f       	.word	0x1fc3;	????	
    1592:	00 00       	.word	0x0000;	????	
    1594:	80 00       	.word	0x0080;	????	
    1596:	3a 02       	.word	0x023a;	????	
    1598:	1c 00       	.word	0x001c;	????	
    159a:	00 00       	.word	0x0000;	????	
    159c:	00 00       	.word	0x0000;	????	
    159e:	00 00       	.word	0x0000;	????	
    15a0:	c0 00       	.word	0x00c0;	????	
    15a2:	00 00       	.word	0x0000;	????	
    15a4:	06 00       	.word	0x0006;	????	
    15a6:	00 00       	.word	0x0000;	????	
    15a8:	00 00       	.word	0x0000;	????	
    15aa:	00 00       	.word	0x0000;	????	
    15ac:	e0 00       	.word	0x00e0;	????	
    15ae:	00 00       	.word	0x0000;	????	
    15b0:	48 00       	.word	0x0048;	????	
    15b2:	00 00       	.word	0x0000;	????	
    15b4:	00 00       	.word	0x0000;	????	
    15b6:	00 00       	.word	0x0000;	????	
    15b8:	24 00       	.word	0x0024;	????	
    15ba:	00 00       	.word	0x0000;	????	
    15bc:	50 00       	.word	0x0050;	????	
    15be:	00 00       	.word	0x0000;	????	
    15c0:	00 00       	.word	0x0000;	????	
    15c2:	00 00       	.word	0x0000;	????	
    15c4:	64 00       	.word	0x0064;	????	
    15c6:	00 00       	.word	0x0000;	????	
    15c8:	ac ee 00 00 	xor	@r14,	0(r12)	;0x0000(r12)
    15cc:	d4 19       	.word	0x19d4;	????	
    15ce:	00 00       	.word	0x0000;	????	
    15d0:	64 00       	.word	0x0064;	????	
    15d2:	00 00       	.word	0x0000;	????	
    15d4:	ac ee 00 00 	xor	@r14,	0(r12)	;0x0000(r12)
    15d8:	05 1a       	.word	0x1a05;	????	
    15da:	00 00       	.word	0x0000;	????	
    15dc:	64 00       	.word	0x0064;	????	
    15de:	00 00       	.word	0x0000;	????	
    15e0:	ac ee 00 00 	xor	@r14,	0(r12)	;0x0000(r12)
    15e4:	6d 00       	.word	0x006d;	????	
    15e6:	00 00       	.word	0x0000;	????	
    15e8:	3c 00       	.word	0x003c;	????	
    15ea:	00 00       	.word	0x0000;	????	
    15ec:	00 00       	.word	0x0000;	????	
    15ee:	00 00       	.word	0x0000;	????	
    15f0:	7c 00       	.word	0x007c;	????	
    15f2:	00 00       	.word	0x0000;	????	
    15f4:	80 00       	.word	0x0080;	????	
    15f6:	00 00       	.word	0x0000;	????	
    15f8:	00 00       	.word	0x0000;	????	
    15fa:	00 00       	.word	0x0000;	????	
    15fc:	9c 00       	.word	0x009c;	????	
    15fe:	00 00       	.word	0x0000;	????	
    1600:	80 00       	.word	0x0080;	????	
    1602:	00 00       	.word	0x0000;	????	
    1604:	00 00       	.word	0x0000;	????	
    1606:	00 00       	.word	0x0000;	????	
    1608:	b6 00       	.word	0x00b6;	????	
    160a:	00 00       	.word	0x0000;	????	
    160c:	80 00       	.word	0x0080;	????	
    160e:	00 00       	.word	0x0000;	????	
    1610:	00 00       	.word	0x0000;	????	
    1612:	00 00       	.word	0x0000;	????	
    1614:	ef 00       	.word	0x00ef;	????	
    1616:	00 00       	.word	0x0000;	????	
    1618:	80 00       	.word	0x0080;	????	
    161a:	00 00       	.word	0x0000;	????	
    161c:	00 00       	.word	0x0000;	????	
    161e:	00 00       	.word	0x0000;	????	
    1620:	27 01       	.word	0x0127;	????	
    1622:	00 00       	.word	0x0000;	????	
    1624:	80 00       	.word	0x0080;	????	
    1626:	00 00       	.word	0x0000;	????	
    1628:	00 00       	.word	0x0000;	????	
    162a:	00 00       	.word	0x0000;	????	
    162c:	69 01       	.word	0x0169;	????	
    162e:	00 00       	.word	0x0000;	????	
    1630:	80 00       	.word	0x0080;	????	
    1632:	00 00       	.word	0x0000;	????	
    1634:	00 00       	.word	0x0000;	????	
    1636:	00 00       	.word	0x0000;	????	
    1638:	ba 01       	.word	0x01ba;	????	
    163a:	00 00       	.word	0x0000;	????	
    163c:	80 00       	.word	0x0080;	????	
    163e:	00 00       	.word	0x0000;	????	
    1640:	00 00       	.word	0x0000;	????	
    1642:	00 00       	.word	0x0000;	????	
    1644:	0b 02       	.word	0x020b;	????	
    1646:	00 00       	.word	0x0000;	????	
    1648:	80 00       	.word	0x0080;	????	
    164a:	00 00       	.word	0x0000;	????	
    164c:	00 00       	.word	0x0000;	????	
    164e:	00 00       	.word	0x0000;	????	
    1650:	31 02       	.word	0x0231;	????	
    1652:	00 00       	.word	0x0000;	????	
    1654:	80 00       	.word	0x0080;	????	
    1656:	00 00       	.word	0x0000;	????	
    1658:	00 00       	.word	0x0000;	????	
    165a:	00 00       	.word	0x0000;	????	
    165c:	6f 02       	.word	0x026f;	????	
    165e:	00 00       	.word	0x0000;	????	
    1660:	80 00       	.word	0x0080;	????	
    1662:	00 00       	.word	0x0000;	????	
    1664:	00 00       	.word	0x0000;	????	
    1666:	00 00       	.word	0x0000;	????	
    1668:	99 02       	.word	0x0299;	????	
    166a:	00 00       	.word	0x0000;	????	
    166c:	80 00       	.word	0x0080;	????	
    166e:	00 00       	.word	0x0000;	????	
    1670:	00 00       	.word	0x0000;	????	
    1672:	00 00       	.word	0x0000;	????	
    1674:	c2 02       	.word	0x02c2;	????	
    1676:	00 00       	.word	0x0000;	????	
    1678:	80 00       	.word	0x0080;	????	
    167a:	00 00       	.word	0x0000;	????	
    167c:	00 00       	.word	0x0000;	????	
    167e:	00 00       	.word	0x0000;	????	
    1680:	dc 02       	.word	0x02dc;	????	
    1682:	00 00       	.word	0x0000;	????	
    1684:	80 00       	.word	0x0080;	????	
    1686:	00 00       	.word	0x0000;	????	
    1688:	00 00       	.word	0x0000;	????	
    168a:	00 00       	.word	0x0000;	????	
    168c:	f7 02       	.word	0x02f7;	????	
    168e:	00 00       	.word	0x0000;	????	
    1690:	80 00       	.word	0x0080;	????	
    1692:	00 00       	.word	0x0000;	????	
    1694:	00 00       	.word	0x0000;	????	
    1696:	00 00       	.word	0x0000;	????	
    1698:	17 03       	.word	0x0317;	????	
    169a:	00 00       	.word	0x0000;	????	
    169c:	80 00       	.word	0x0080;	????	
    169e:	00 00       	.word	0x0000;	????	
    16a0:	00 00       	.word	0x0000;	????	
    16a2:	00 00       	.word	0x0000;	????	
    16a4:	50 03       	.word	0x0350;	????	
    16a6:	00 00       	.word	0x0000;	????	
    16a8:	80 00       	.word	0x0080;	????	
    16aa:	00 00       	.word	0x0000;	????	
    16ac:	00 00       	.word	0x0000;	????	
    16ae:	00 00       	.word	0x0000;	????	
    16b0:	6e 03       	.word	0x036e;	????	
    16b2:	00 00       	.word	0x0000;	????	
    16b4:	80 00       	.word	0x0080;	????	
    16b6:	00 00       	.word	0x0000;	????	
    16b8:	00 00       	.word	0x0000;	????	
    16ba:	00 00       	.word	0x0000;	????	
    16bc:	8d 03       	.word	0x038d;	????	
    16be:	00 00       	.word	0x0000;	????	
    16c0:	80 00       	.word	0x0080;	????	
    16c2:	00 00       	.word	0x0000;	????	
    16c4:	00 00       	.word	0x0000;	????	
    16c6:	00 00       	.word	0x0000;	????	
    16c8:	b1 03       	.word	0x03b1;	????	
    16ca:	00 00       	.word	0x0000;	????	
    16cc:	80 00       	.word	0x0080;	????	
    16ce:	00 00       	.word	0x0000;	????	
    16d0:	00 00       	.word	0x0000;	????	
    16d2:	00 00       	.word	0x0000;	????	
    16d4:	da 03       	.word	0x03da;	????	
    16d6:	00 00       	.word	0x0000;	????	
    16d8:	80 00       	.word	0x0080;	????	
    16da:	00 00       	.word	0x0000;	????	
    16dc:	00 00       	.word	0x0000;	????	
    16de:	00 00       	.word	0x0000;	????	
    16e0:	05 1a       	.word	0x1a05;	????	
    16e2:	00 00       	.word	0x0000;	????	
    16e4:	82 00       	.word	0x0082;	????	
    16e6:	00 00       	.word	0x0000;	????	
    16e8:	11 0b       	.word	0x0b11;	????	
    16ea:	00 00       	.word	0x0000;	????	
    16ec:	0e 1a       	.word	0x1a0e;	????	
    16ee:	00 00       	.word	0x0000;	????	
    16f0:	c2 00       	.word	0x00c2;	????	
    16f2:	00 00       	.word	0x0000;	????	
    16f4:	e5 1d       	.word	0x1de5;	????	
    16f6:	00 00       	.word	0x0000;	????	
    16f8:	88 1a       	.word	0x1a88;	????	
    16fa:	00 00       	.word	0x0000;	????	
    16fc:	c2 00       	.word	0x00c2;	????	
    16fe:	00 00       	.word	0x0000;	????	
    1700:	00 00       	.word	0x0000;	????	
    1702:	00 00       	.word	0x0000;	????	
    1704:	9e 1a       	.word	0x1a9e;	????	
    1706:	00 00       	.word	0x0000;	????	
    1708:	c2 00       	.word	0x00c2;	????	
    170a:	00 00       	.word	0x0000;	????	
    170c:	00 00       	.word	0x0000;	????	
    170e:	00 00       	.word	0x0000;	????	
    1710:	b7 1a       	.word	0x1ab7;	????	
    1712:	00 00       	.word	0x0000;	????	
    1714:	c2 00       	.word	0x00c2;	????	
    1716:	00 00       	.word	0x0000;	????	
    1718:	fe 42 00 00 	mov.b	#8,	0(r14)	;r2 As==11, 0x0000(r14)
    171c:	c9 1b       	.word	0x1bc9;	????	
    171e:	00 00       	.word	0x0000;	????	
    1720:	c2 00       	.word	0x00c2;	????	
    1722:	00 00       	.word	0x0000;	????	
    1724:	00 00       	.word	0x0000;	????	
    1726:	00 00       	.word	0x0000;	????	
    1728:	d9 1b       	.word	0x1bd9;	????	
    172a:	00 00       	.word	0x0000;	????	
    172c:	c2 00       	.word	0x00c2;	????	
    172e:	00 00       	.word	0x0000;	????	
    1730:	00 00       	.word	0x0000;	????	
    1732:	00 00       	.word	0x0000;	????	
    1734:	e4 1b       	.word	0x1be4;	????	
    1736:	00 00       	.word	0x0000;	????	
    1738:	c2 00       	.word	0x00c2;	????	
    173a:	00 00       	.word	0x0000;	????	
    173c:	f2 b1 00 00 	bit.b	@r1+,	&0x0000	
    1740:	de 1f       	.word	0x1fde;	????	
    1742:	00 00       	.word	0x0000;	????	
    1744:	24 00       	.word	0x0024;	????	
    1746:	77 04       	.word	0x0477;	????	
    1748:	ac ee 00 00 	xor	@r14,	0(r12)	;0x0000(r12)
    174c:	f2 1f       	.word	0x1ff2;	????	
    174e:	00 00       	.word	0x0000;	????	
    1750:	40 00       	.word	0x0040;	????	
    1752:	76 04       	.word	0x0476;	????	
    1754:	0d 00       	.word	0x000d;	????	
    1756:	00 00       	.word	0x0000;	????	
    1758:	00 00       	.word	0x0000;	????	
    175a:	00 00       	.word	0x0000;	????	
    175c:	44 00       	.word	0x0044;	????	
    175e:	77 04       	.word	0x0477;	????	
	...
    1768:	44 00       	.word	0x0044;	????	
    176a:	7a 04       	.word	0x047a;	????	
    176c:	08 00       	.word	0x0008;	????	
    176e:	00 00       	.word	0x0000;	????	
    1770:	00 00       	.word	0x0000;	????	
    1772:	00 00       	.word	0x0000;	????	
    1774:	44 00       	.word	0x0044;	????	
    1776:	7b 04       	.word	0x047b;	????	
    1778:	0e 00       	.word	0x000e;	????	
    177a:	00 00       	.word	0x0000;	????	
    177c:	00 00       	.word	0x0000;	????	
    177e:	00 00       	.word	0x0000;	????	
    1780:	44 00       	.word	0x0044;	????	
    1782:	7c 04       	.word	0x047c;	????	
    1784:	1a 00       	.word	0x001a;	????	
    1786:	00 00       	.word	0x0000;	????	
    1788:	00 00       	.word	0x0000;	????	
    178a:	00 00       	.word	0x0000;	????	
    178c:	44 00       	.word	0x0044;	????	
    178e:	7e 04       	.word	0x047e;	????	
    1790:	22 00       	.word	0x0022;	????	
    1792:	00 00       	.word	0x0000;	????	
    1794:	00 00       	.word	0x0000;	????	
    1796:	00 00       	.word	0x0000;	????	
    1798:	44 00       	.word	0x0044;	????	
    179a:	96 04       	.word	0x0496;	????	
    179c:	26 00       	.word	0x0026;	????	
    179e:	00 00       	.word	0x0000;	????	
    17a0:	00 00       	.word	0x0000;	????	
    17a2:	00 00       	.word	0x0000;	????	
    17a4:	44 00       	.word	0x0044;	????	
    17a6:	82 04       	.word	0x0482;	????	
    17a8:	2e 00       	.word	0x002e;	????	
    17aa:	00 00       	.word	0x0000;	????	
    17ac:	00 00       	.word	0x0000;	????	
    17ae:	00 00       	.word	0x0000;	????	
    17b0:	44 00       	.word	0x0044;	????	
    17b2:	83 04       	.word	0x0483;	????	
    17b4:	34 00       	.word	0x0034;	????	
    17b6:	00 00       	.word	0x0000;	????	
    17b8:	00 00       	.word	0x0000;	????	
    17ba:	00 00       	.word	0x0000;	????	
    17bc:	44 00       	.word	0x0044;	????	
    17be:	87 04       	.word	0x0487;	????	
    17c0:	38 00       	.word	0x0038;	????	
    17c2:	00 00       	.word	0x0000;	????	
    17c4:	00 00       	.word	0x0000;	????	
    17c6:	00 00       	.word	0x0000;	????	
    17c8:	44 00       	.word	0x0044;	????	
    17ca:	8b 04       	.word	0x048b;	????	
    17cc:	42 00       	.word	0x0042;	????	
    17ce:	00 00       	.word	0x0000;	????	
    17d0:	00 00       	.word	0x0000;	????	
    17d2:	00 00       	.word	0x0000;	????	
    17d4:	44 00       	.word	0x0044;	????	
    17d6:	8e 04       	.word	0x048e;	????	
    17d8:	4a 00       	.word	0x004a;	????	
    17da:	00 00       	.word	0x0000;	????	
    17dc:	00 00       	.word	0x0000;	????	
    17de:	00 00       	.word	0x0000;	????	
    17e0:	44 00       	.word	0x0044;	????	
    17e2:	90 04       	.word	0x0490;	????	
    17e4:	52 00       	.word	0x0052;	????	
    17e6:	00 00       	.word	0x0000;	????	
    17e8:	00 00       	.word	0x0000;	????	
    17ea:	00 00       	.word	0x0000;	????	
    17ec:	44 00       	.word	0x0044;	????	
    17ee:	92 04       	.word	0x0492;	????	
    17f0:	64 00       	.word	0x0064;	????	
    17f2:	00 00       	.word	0x0000;	????	
    17f4:	00 00       	.word	0x0000;	????	
    17f6:	00 00       	.word	0x0000;	????	
    17f8:	44 00       	.word	0x0044;	????	
    17fa:	93 04       	.word	0x0493;	????	
    17fc:	6c 00       	.word	0x006c;	????	
    17fe:	00 00       	.word	0x0000;	????	
    1800:	00 00       	.word	0x0000;	????	
    1802:	00 00       	.word	0x0000;	????	
    1804:	44 00       	.word	0x0044;	????	
    1806:	89 04       	.word	0x0489;	????	
    1808:	86 00       	.word	0x0086;	????	
    180a:	00 00       	.word	0x0000;	????	
    180c:	00 00       	.word	0x0000;	????	
    180e:	00 00       	.word	0x0000;	????	
    1810:	44 00       	.word	0x0044;	????	
    1812:	97 04       	.word	0x0497;	????	
    1814:	8c 00       	.word	0x008c;	????	
    1816:	00 00       	.word	0x0000;	????	
    1818:	ff 1f       	.word	0x1fff;	????	
    181a:	00 00       	.word	0x0000;	????	
    181c:	80 00       	.word	0x0080;	????	
    181e:	78 04       	.word	0x0478;	????	
	...
    1828:	c0 00       	.word	0x00c0;	????	
    182a:	00 00       	.word	0x0000;	????	
    182c:	08 00       	.word	0x0008;	????	
    182e:	00 00       	.word	0x0000;	????	
    1830:	00 00       	.word	0x0000;	????	
    1832:	00 00       	.word	0x0000;	????	
    1834:	e0 00       	.word	0x00e0;	????	
    1836:	00 00       	.word	0x0000;	????	
    1838:	8c 00       	.word	0x008c;	????	
    183a:	00 00       	.word	0x0000;	????	
    183c:	00 00       	.word	0x0000;	????	
    183e:	00 00       	.word	0x0000;	????	
    1840:	24 00       	.word	0x0024;	????	
    1842:	00 00       	.word	0x0000;	????	
    1844:	92 00       	.word	0x0092;	????	
    1846:	00 00       	.word	0x0000;	????	
    1848:	00 00       	.word	0x0000;	????	
    184a:	00 00       	.word	0x0000;	????	
    184c:	64 00       	.word	0x0064;	????	
    184e:	00 00       	.word	0x0000;	????	
    1850:	3e ef       	xor	@r15+,	r14	
    1852:	00 00       	.word	0x0000;	????	
    1854:	d4 19       	.word	0x19d4;	????	
    1856:	00 00       	.word	0x0000;	????	
    1858:	64 00       	.word	0x0064;	????	
    185a:	00 00       	.word	0x0000;	????	
    185c:	3e ef       	xor	@r15+,	r14	
    185e:	00 00       	.word	0x0000;	????	
    1860:	05 1a       	.word	0x1a05;	????	
    1862:	00 00       	.word	0x0000;	????	
    1864:	64 00       	.word	0x0064;	????	
    1866:	00 00       	.word	0x0000;	????	
    1868:	3e ef       	xor	@r15+,	r14	
    186a:	00 00       	.word	0x0000;	????	
    186c:	6d 00       	.word	0x006d;	????	
    186e:	00 00       	.word	0x0000;	????	
    1870:	3c 00       	.word	0x003c;	????	
    1872:	00 00       	.word	0x0000;	????	
    1874:	00 00       	.word	0x0000;	????	
    1876:	00 00       	.word	0x0000;	????	
    1878:	7c 00       	.word	0x007c;	????	
    187a:	00 00       	.word	0x0000;	????	
    187c:	80 00       	.word	0x0080;	????	
    187e:	00 00       	.word	0x0000;	????	
    1880:	00 00       	.word	0x0000;	????	
    1882:	00 00       	.word	0x0000;	????	
    1884:	9c 00       	.word	0x009c;	????	
    1886:	00 00       	.word	0x0000;	????	
    1888:	80 00       	.word	0x0080;	????	
    188a:	00 00       	.word	0x0000;	????	
    188c:	00 00       	.word	0x0000;	????	
    188e:	00 00       	.word	0x0000;	????	
    1890:	b6 00       	.word	0x00b6;	????	
    1892:	00 00       	.word	0x0000;	????	
    1894:	80 00       	.word	0x0080;	????	
    1896:	00 00       	.word	0x0000;	????	
    1898:	00 00       	.word	0x0000;	????	
    189a:	00 00       	.word	0x0000;	????	
    189c:	ef 00       	.word	0x00ef;	????	
    189e:	00 00       	.word	0x0000;	????	
    18a0:	80 00       	.word	0x0080;	????	
    18a2:	00 00       	.word	0x0000;	????	
    18a4:	00 00       	.word	0x0000;	????	
    18a6:	00 00       	.word	0x0000;	????	
    18a8:	27 01       	.word	0x0127;	????	
    18aa:	00 00       	.word	0x0000;	????	
    18ac:	80 00       	.word	0x0080;	????	
    18ae:	00 00       	.word	0x0000;	????	
    18b0:	00 00       	.word	0x0000;	????	
    18b2:	00 00       	.word	0x0000;	????	
    18b4:	69 01       	.word	0x0169;	????	
    18b6:	00 00       	.word	0x0000;	????	
    18b8:	80 00       	.word	0x0080;	????	
    18ba:	00 00       	.word	0x0000;	????	
    18bc:	00 00       	.word	0x0000;	????	
    18be:	00 00       	.word	0x0000;	????	
    18c0:	ba 01       	.word	0x01ba;	????	
    18c2:	00 00       	.word	0x0000;	????	
    18c4:	80 00       	.word	0x0080;	????	
    18c6:	00 00       	.word	0x0000;	????	
    18c8:	00 00       	.word	0x0000;	????	
    18ca:	00 00       	.word	0x0000;	????	
    18cc:	0b 02       	.word	0x020b;	????	
    18ce:	00 00       	.word	0x0000;	????	
    18d0:	80 00       	.word	0x0080;	????	
    18d2:	00 00       	.word	0x0000;	????	
    18d4:	00 00       	.word	0x0000;	????	
    18d6:	00 00       	.word	0x0000;	????	
    18d8:	31 02       	.word	0x0231;	????	
    18da:	00 00       	.word	0x0000;	????	
    18dc:	80 00       	.word	0x0080;	????	
    18de:	00 00       	.word	0x0000;	????	
    18e0:	00 00       	.word	0x0000;	????	
    18e2:	00 00       	.word	0x0000;	????	
    18e4:	6f 02       	.word	0x026f;	????	
    18e6:	00 00       	.word	0x0000;	????	
    18e8:	80 00       	.word	0x0080;	????	
    18ea:	00 00       	.word	0x0000;	????	
    18ec:	00 00       	.word	0x0000;	????	
    18ee:	00 00       	.word	0x0000;	????	
    18f0:	99 02       	.word	0x0299;	????	
    18f2:	00 00       	.word	0x0000;	????	
    18f4:	80 00       	.word	0x0080;	????	
    18f6:	00 00       	.word	0x0000;	????	
    18f8:	00 00       	.word	0x0000;	????	
    18fa:	00 00       	.word	0x0000;	????	
    18fc:	c2 02       	.word	0x02c2;	????	
    18fe:	00 00       	.word	0x0000;	????	
    1900:	80 00       	.word	0x0080;	????	
    1902:	00 00       	.word	0x0000;	????	
    1904:	00 00       	.word	0x0000;	????	
    1906:	00 00       	.word	0x0000;	????	
    1908:	dc 02       	.word	0x02dc;	????	
    190a:	00 00       	.word	0x0000;	????	
    190c:	80 00       	.word	0x0080;	????	
    190e:	00 00       	.word	0x0000;	????	
    1910:	00 00       	.word	0x0000;	????	
    1912:	00 00       	.word	0x0000;	????	
    1914:	f7 02       	.word	0x02f7;	????	
    1916:	00 00       	.word	0x0000;	????	
    1918:	80 00       	.word	0x0080;	????	
    191a:	00 00       	.word	0x0000;	????	
    191c:	00 00       	.word	0x0000;	????	
    191e:	00 00       	.word	0x0000;	????	
    1920:	17 03       	.word	0x0317;	????	
    1922:	00 00       	.word	0x0000;	????	
    1924:	80 00       	.word	0x0080;	????	
    1926:	00 00       	.word	0x0000;	????	
    1928:	00 00       	.word	0x0000;	????	
    192a:	00 00       	.word	0x0000;	????	
    192c:	50 03       	.word	0x0350;	????	
    192e:	00 00       	.word	0x0000;	????	
    1930:	80 00       	.word	0x0080;	????	
    1932:	00 00       	.word	0x0000;	????	
    1934:	00 00       	.word	0x0000;	????	
    1936:	00 00       	.word	0x0000;	????	
    1938:	6e 03       	.word	0x036e;	????	
    193a:	00 00       	.word	0x0000;	????	
    193c:	80 00       	.word	0x0080;	????	
    193e:	00 00       	.word	0x0000;	????	
    1940:	00 00       	.word	0x0000;	????	
    1942:	00 00       	.word	0x0000;	????	
    1944:	8d 03       	.word	0x038d;	????	
    1946:	00 00       	.word	0x0000;	????	
    1948:	80 00       	.word	0x0080;	????	
    194a:	00 00       	.word	0x0000;	????	
    194c:	00 00       	.word	0x0000;	????	
    194e:	00 00       	.word	0x0000;	????	
    1950:	b1 03       	.word	0x03b1;	????	
    1952:	00 00       	.word	0x0000;	????	
    1954:	80 00       	.word	0x0080;	????	
    1956:	00 00       	.word	0x0000;	????	
    1958:	00 00       	.word	0x0000;	????	
    195a:	00 00       	.word	0x0000;	????	
    195c:	da 03       	.word	0x03da;	????	
    195e:	00 00       	.word	0x0000;	????	
    1960:	80 00       	.word	0x0080;	????	
    1962:	00 00       	.word	0x0000;	????	
    1964:	00 00       	.word	0x0000;	????	
    1966:	00 00       	.word	0x0000;	????	
    1968:	05 1a       	.word	0x1a05;	????	
    196a:	00 00       	.word	0x0000;	????	
    196c:	82 00       	.word	0x0082;	????	
    196e:	00 00       	.word	0x0000;	????	
    1970:	2e 07       	.word	0x072e;	????	
    1972:	00 00       	.word	0x0000;	????	
    1974:	0e 1a       	.word	0x1a0e;	????	
    1976:	00 00       	.word	0x0000;	????	
    1978:	c2 00       	.word	0x00c2;	????	
    197a:	00 00       	.word	0x0000;	????	
    197c:	e5 1d       	.word	0x1de5;	????	
    197e:	00 00       	.word	0x0000;	????	
    1980:	88 1a       	.word	0x1a88;	????	
    1982:	00 00       	.word	0x0000;	????	
    1984:	c2 00       	.word	0x00c2;	????	
    1986:	00 00       	.word	0x0000;	????	
    1988:	00 00       	.word	0x0000;	????	
    198a:	00 00       	.word	0x0000;	????	
    198c:	9e 1a       	.word	0x1a9e;	????	
    198e:	00 00       	.word	0x0000;	????	
    1990:	c2 00       	.word	0x00c2;	????	
    1992:	00 00       	.word	0x0000;	????	
    1994:	00 00       	.word	0x0000;	????	
    1996:	00 00       	.word	0x0000;	????	
    1998:	b7 1a       	.word	0x1ab7;	????	
    199a:	00 00       	.word	0x0000;	????	
    199c:	c2 00       	.word	0x00c2;	????	
    199e:	00 00       	.word	0x0000;	????	
    19a0:	fe 42 00 00 	mov.b	#8,	0(r14)	;r2 As==11, 0x0000(r14)
    19a4:	c9 1b       	.word	0x1bc9;	????	
    19a6:	00 00       	.word	0x0000;	????	
    19a8:	c2 00       	.word	0x00c2;	????	
    19aa:	00 00       	.word	0x0000;	????	
    19ac:	00 00       	.word	0x0000;	????	
    19ae:	00 00       	.word	0x0000;	????	
    19b0:	d9 1b       	.word	0x1bd9;	????	
    19b2:	00 00       	.word	0x0000;	????	
    19b4:	c2 00       	.word	0x00c2;	????	
    19b6:	00 00       	.word	0x0000;	????	
    19b8:	00 00       	.word	0x0000;	????	
    19ba:	00 00       	.word	0x0000;	????	
    19bc:	e4 1b       	.word	0x1be4;	????	
    19be:	00 00       	.word	0x0000;	????	
    19c0:	c2 00       	.word	0x00c2;	????	
    19c2:	00 00       	.word	0x0000;	????	
    19c4:	f2 b1 00 00 	bit.b	@r1+,	&0x0000	
    19c8:	09 20       	jnz	$+20     	;abs 0x19dc
    19ca:	00 00       	.word	0x0000;	????	
    19cc:	20 00       	.word	0x0020;	????	
    19ce:	81 00       	.word	0x0081;	????	
	...
    19d8:	64 00       	.word	0x0064;	????	
    19da:	00 00       	.word	0x0000;	????	
    19dc:	46 ef       	xor.b	r15,	r6	
    19de:	00 00       	.word	0x0000;	????	
    19e0:	d4 19       	.word	0x19d4;	????	
    19e2:	00 00       	.word	0x0000;	????	
    19e4:	64 00       	.word	0x0064;	????	
    19e6:	00 00       	.word	0x0000;	????	
    19e8:	46 ef       	xor.b	r15,	r6	
    19ea:	00 00       	.word	0x0000;	????	
    19ec:	05 1a       	.word	0x1a05;	????	
    19ee:	00 00       	.word	0x0000;	????	
    19f0:	64 00       	.word	0x0064;	????	
    19f2:	00 00       	.word	0x0000;	????	
    19f4:	46 ef       	xor.b	r15,	r6	
    19f6:	00 00       	.word	0x0000;	????	
    19f8:	6d 00       	.word	0x006d;	????	
    19fa:	00 00       	.word	0x0000;	????	
    19fc:	3c 00       	.word	0x003c;	????	
    19fe:	00 00       	.word	0x0000;	????	
    1a00:	00 00       	.word	0x0000;	????	
    1a02:	00 00       	.word	0x0000;	????	
    1a04:	7c 00       	.word	0x007c;	????	
    1a06:	00 00       	.word	0x0000;	????	
    1a08:	80 00       	.word	0x0080;	????	
    1a0a:	00 00       	.word	0x0000;	????	
    1a0c:	00 00       	.word	0x0000;	????	
    1a0e:	00 00       	.word	0x0000;	????	
    1a10:	9c 00       	.word	0x009c;	????	
    1a12:	00 00       	.word	0x0000;	????	
    1a14:	80 00       	.word	0x0080;	????	
    1a16:	00 00       	.word	0x0000;	????	
    1a18:	00 00       	.word	0x0000;	????	
    1a1a:	00 00       	.word	0x0000;	????	
    1a1c:	b6 00       	.word	0x00b6;	????	
    1a1e:	00 00       	.word	0x0000;	????	
    1a20:	80 00       	.word	0x0080;	????	
    1a22:	00 00       	.word	0x0000;	????	
    1a24:	00 00       	.word	0x0000;	????	
    1a26:	00 00       	.word	0x0000;	????	
    1a28:	ef 00       	.word	0x00ef;	????	
    1a2a:	00 00       	.word	0x0000;	????	
    1a2c:	80 00       	.word	0x0080;	????	
    1a2e:	00 00       	.word	0x0000;	????	
    1a30:	00 00       	.word	0x0000;	????	
    1a32:	00 00       	.word	0x0000;	????	
    1a34:	27 01       	.word	0x0127;	????	
    1a36:	00 00       	.word	0x0000;	????	
    1a38:	80 00       	.word	0x0080;	????	
    1a3a:	00 00       	.word	0x0000;	????	
    1a3c:	00 00       	.word	0x0000;	????	
    1a3e:	00 00       	.word	0x0000;	????	
    1a40:	69 01       	.word	0x0169;	????	
    1a42:	00 00       	.word	0x0000;	????	
    1a44:	80 00       	.word	0x0080;	????	
    1a46:	00 00       	.word	0x0000;	????	
    1a48:	00 00       	.word	0x0000;	????	
    1a4a:	00 00       	.word	0x0000;	????	
    1a4c:	ba 01       	.word	0x01ba;	????	
    1a4e:	00 00       	.word	0x0000;	????	
    1a50:	80 00       	.word	0x0080;	????	
    1a52:	00 00       	.word	0x0000;	????	
    1a54:	00 00       	.word	0x0000;	????	
    1a56:	00 00       	.word	0x0000;	????	
    1a58:	0b 02       	.word	0x020b;	????	
    1a5a:	00 00       	.word	0x0000;	????	
    1a5c:	80 00       	.word	0x0080;	????	
    1a5e:	00 00       	.word	0x0000;	????	
    1a60:	00 00       	.word	0x0000;	????	
    1a62:	00 00       	.word	0x0000;	????	
    1a64:	31 02       	.word	0x0231;	????	
    1a66:	00 00       	.word	0x0000;	????	
    1a68:	80 00       	.word	0x0080;	????	
    1a6a:	00 00       	.word	0x0000;	????	
    1a6c:	00 00       	.word	0x0000;	????	
    1a6e:	00 00       	.word	0x0000;	????	
    1a70:	6f 02       	.word	0x026f;	????	
    1a72:	00 00       	.word	0x0000;	????	
    1a74:	80 00       	.word	0x0080;	????	
    1a76:	00 00       	.word	0x0000;	????	
    1a78:	00 00       	.word	0x0000;	????	
    1a7a:	00 00       	.word	0x0000;	????	
    1a7c:	99 02       	.word	0x0299;	????	
    1a7e:	00 00       	.word	0x0000;	????	
    1a80:	80 00       	.word	0x0080;	????	
    1a82:	00 00       	.word	0x0000;	????	
    1a84:	00 00       	.word	0x0000;	????	
    1a86:	00 00       	.word	0x0000;	????	
    1a88:	c2 02       	.word	0x02c2;	????	
    1a8a:	00 00       	.word	0x0000;	????	
    1a8c:	80 00       	.word	0x0080;	????	
    1a8e:	00 00       	.word	0x0000;	????	
    1a90:	00 00       	.word	0x0000;	????	
    1a92:	00 00       	.word	0x0000;	????	
    1a94:	dc 02       	.word	0x02dc;	????	
    1a96:	00 00       	.word	0x0000;	????	
    1a98:	80 00       	.word	0x0080;	????	
    1a9a:	00 00       	.word	0x0000;	????	
    1a9c:	00 00       	.word	0x0000;	????	
    1a9e:	00 00       	.word	0x0000;	????	
    1aa0:	f7 02       	.word	0x02f7;	????	
    1aa2:	00 00       	.word	0x0000;	????	
    1aa4:	80 00       	.word	0x0080;	????	
    1aa6:	00 00       	.word	0x0000;	????	
    1aa8:	00 00       	.word	0x0000;	????	
    1aaa:	00 00       	.word	0x0000;	????	
    1aac:	17 03       	.word	0x0317;	????	
    1aae:	00 00       	.word	0x0000;	????	
    1ab0:	80 00       	.word	0x0080;	????	
    1ab2:	00 00       	.word	0x0000;	????	
    1ab4:	00 00       	.word	0x0000;	????	
    1ab6:	00 00       	.word	0x0000;	????	
    1ab8:	50 03       	.word	0x0350;	????	
    1aba:	00 00       	.word	0x0000;	????	
    1abc:	80 00       	.word	0x0080;	????	
    1abe:	00 00       	.word	0x0000;	????	
    1ac0:	00 00       	.word	0x0000;	????	
    1ac2:	00 00       	.word	0x0000;	????	
    1ac4:	6e 03       	.word	0x036e;	????	
    1ac6:	00 00       	.word	0x0000;	????	
    1ac8:	80 00       	.word	0x0080;	????	
    1aca:	00 00       	.word	0x0000;	????	
    1acc:	00 00       	.word	0x0000;	????	
    1ace:	00 00       	.word	0x0000;	????	
    1ad0:	8d 03       	.word	0x038d;	????	
    1ad2:	00 00       	.word	0x0000;	????	
    1ad4:	80 00       	.word	0x0080;	????	
    1ad6:	00 00       	.word	0x0000;	????	
    1ad8:	00 00       	.word	0x0000;	????	
    1ada:	00 00       	.word	0x0000;	????	
    1adc:	b1 03       	.word	0x03b1;	????	
    1ade:	00 00       	.word	0x0000;	????	
    1ae0:	80 00       	.word	0x0080;	????	
    1ae2:	00 00       	.word	0x0000;	????	
    1ae4:	00 00       	.word	0x0000;	????	
    1ae6:	00 00       	.word	0x0000;	????	
    1ae8:	da 03       	.word	0x03da;	????	
    1aea:	00 00       	.word	0x0000;	????	
    1aec:	80 00       	.word	0x0080;	????	
    1aee:	00 00       	.word	0x0000;	????	
    1af0:	00 00       	.word	0x0000;	????	
    1af2:	00 00       	.word	0x0000;	????	
    1af4:	05 1a       	.word	0x1a05;	????	
    1af6:	00 00       	.word	0x0000;	????	
    1af8:	82 00       	.word	0x0082;	????	
    1afa:	00 00       	.word	0x0000;	????	
    1afc:	f4 1f       	.word	0x1ff4;	????	
    1afe:	00 00       	.word	0x0000;	????	
    1b00:	0e 1a       	.word	0x1a0e;	????	
    1b02:	00 00       	.word	0x0000;	????	
    1b04:	c2 00       	.word	0x00c2;	????	
    1b06:	00 00       	.word	0x0000;	????	
    1b08:	e5 1d       	.word	0x1de5;	????	
    1b0a:	00 00       	.word	0x0000;	????	
    1b0c:	88 1a       	.word	0x1a88;	????	
    1b0e:	00 00       	.word	0x0000;	????	
    1b10:	c2 00       	.word	0x00c2;	????	
    1b12:	00 00       	.word	0x0000;	????	
    1b14:	00 00       	.word	0x0000;	????	
    1b16:	00 00       	.word	0x0000;	????	
    1b18:	9e 1a       	.word	0x1a9e;	????	
    1b1a:	00 00       	.word	0x0000;	????	
    1b1c:	c2 00       	.word	0x00c2;	????	
    1b1e:	00 00       	.word	0x0000;	????	
    1b20:	00 00       	.word	0x0000;	????	
    1b22:	00 00       	.word	0x0000;	????	
    1b24:	b7 1a       	.word	0x1ab7;	????	
    1b26:	00 00       	.word	0x0000;	????	
    1b28:	c2 00       	.word	0x00c2;	????	
    1b2a:	00 00       	.word	0x0000;	????	
    1b2c:	fe 42 00 00 	mov.b	#8,	0(r14)	;r2 As==11, 0x0000(r14)
    1b30:	c9 1b       	.word	0x1bc9;	????	
    1b32:	00 00       	.word	0x0000;	????	
    1b34:	c2 00       	.word	0x00c2;	????	
    1b36:	00 00       	.word	0x0000;	????	
    1b38:	00 00       	.word	0x0000;	????	
    1b3a:	00 00       	.word	0x0000;	????	
    1b3c:	d9 1b       	.word	0x1bd9;	????	
    1b3e:	00 00       	.word	0x0000;	????	
    1b40:	c2 00       	.word	0x00c2;	????	
    1b42:	00 00       	.word	0x0000;	????	
    1b44:	00 00       	.word	0x0000;	????	
    1b46:	00 00       	.word	0x0000;	????	
    1b48:	e4 1b       	.word	0x1be4;	????	
    1b4a:	00 00       	.word	0x0000;	????	
    1b4c:	c2 00       	.word	0x00c2;	????	
    1b4e:	00 00       	.word	0x0000;	????	
    1b50:	f2 b1 00 00 	bit.b	@r1+,	&0x0000	
    1b54:	24 20       	jnz	$+74     	;abs 0x1b9e
    1b56:	00 00       	.word	0x0000;	????	
    1b58:	24 00       	.word	0x0024;	????	
    1b5a:	b9 00       	.word	0x00b9;	????	
    1b5c:	46 ef       	xor.b	r15,	r6	
    1b5e:	00 00       	.word	0x0000;	????	
    1b60:	35 20       	jnz	$+108    	;abs 0x1bcc
    1b62:	00 00       	.word	0x0000;	????	
    1b64:	40 00       	.word	0x0040;	????	
    1b66:	b8 00       	.word	0x00b8;	????	
    1b68:	0f 00       	.word	0x000f;	????	
    1b6a:	00 00       	.word	0x0000;	????	
    1b6c:	00 00       	.word	0x0000;	????	
    1b6e:	00 00       	.word	0x0000;	????	
    1b70:	44 00       	.word	0x0044;	????	
    1b72:	b9 00       	.word	0x00b9;	????	
	...
    1b7c:	44 00       	.word	0x0044;	????	
    1b7e:	bb 00       	.word	0x00bb;	????	
    1b80:	0c 00       	.word	0x000c;	????	
    1b82:	00 00       	.word	0x0000;	????	
    1b84:	00 00       	.word	0x0000;	????	
    1b86:	00 00       	.word	0x0000;	????	
    1b88:	44 00       	.word	0x0044;	????	
    1b8a:	bc 00       	.word	0x00bc;	????	
    1b8c:	14 00       	.word	0x0014;	????	
    1b8e:	00 00       	.word	0x0000;	????	
    1b90:	00 00       	.word	0x0000;	????	
    1b92:	00 00       	.word	0x0000;	????	
    1b94:	44 00       	.word	0x0044;	????	
    1b96:	bd 00       	.word	0x00bd;	????	
    1b98:	18 00       	.word	0x0018;	????	
    1b9a:	00 00       	.word	0x0000;	????	
    1b9c:	00 00       	.word	0x0000;	????	
    1b9e:	00 00       	.word	0x0000;	????	
    1ba0:	44 00       	.word	0x0044;	????	
    1ba2:	9a 00       	.word	0x009a;	????	
    1ba4:	1a 00       	.word	0x001a;	????	
    1ba6:	00 00       	.word	0x0000;	????	
    1ba8:	00 00       	.word	0x0000;	????	
    1baa:	00 00       	.word	0x0000;	????	
    1bac:	44 00       	.word	0x0044;	????	
    1bae:	99 00       	.word	0x0099;	????	
    1bb0:	24 00       	.word	0x0024;	????	
    1bb2:	00 00       	.word	0x0000;	????	
    1bb4:	00 00       	.word	0x0000;	????	
    1bb6:	00 00       	.word	0x0000;	????	
    1bb8:	44 00       	.word	0x0044;	????	
    1bba:	c1 00       	.word	0x00c1;	????	
    1bbc:	28 00       	.word	0x0028;	????	
    1bbe:	00 00       	.word	0x0000;	????	
    1bc0:	00 00       	.word	0x0000;	????	
    1bc2:	00 00       	.word	0x0000;	????	
    1bc4:	44 00       	.word	0x0044;	????	
    1bc6:	c4 00       	.word	0x00c4;	????	
    1bc8:	2c 00       	.word	0x002c;	????	
    1bca:	00 00       	.word	0x0000;	????	
    1bcc:	00 00       	.word	0x0000;	????	
    1bce:	00 00       	.word	0x0000;	????	
    1bd0:	44 00       	.word	0x0044;	????	
    1bd2:	a1 00       	.word	0x00a1;	????	
    1bd4:	32 00       	.word	0x0032;	????	
    1bd6:	00 00       	.word	0x0000;	????	
    1bd8:	00 00       	.word	0x0000;	????	
    1bda:	00 00       	.word	0x0000;	????	
    1bdc:	44 00       	.word	0x0044;	????	
    1bde:	a0 00       	.word	0x00a0;	????	
    1be0:	38 00       	.word	0x0038;	????	
    1be2:	00 00       	.word	0x0000;	????	
    1be4:	00 00       	.word	0x0000;	????	
    1be6:	00 00       	.word	0x0000;	????	
    1be8:	44 00       	.word	0x0044;	????	
    1bea:	aa 00       	.word	0x00aa;	????	
    1bec:	3c 00       	.word	0x003c;	????	
    1bee:	00 00       	.word	0x0000;	????	
    1bf0:	00 00       	.word	0x0000;	????	
    1bf2:	00 00       	.word	0x0000;	????	
    1bf4:	44 00       	.word	0x0044;	????	
    1bf6:	a9 00       	.word	0x00a9;	????	
    1bf8:	42 00       	.word	0x0042;	????	
    1bfa:	00 00       	.word	0x0000;	????	
    1bfc:	00 00       	.word	0x0000;	????	
    1bfe:	00 00       	.word	0x0000;	????	
    1c00:	44 00       	.word	0x0044;	????	
    1c02:	d1 00       	.word	0x00d1;	????	
    1c04:	46 00       	.word	0x0046;	????	
    1c06:	00 00       	.word	0x0000;	????	
    1c08:	00 00       	.word	0x0000;	????	
    1c0a:	00 00       	.word	0x0000;	????	
    1c0c:	44 00       	.word	0x0044;	????	
    1c0e:	d7 00       	.word	0x00d7;	????	
    1c10:	4e 00       	.word	0x004e;	????	
    1c12:	00 00       	.word	0x0000;	????	
    1c14:	00 00       	.word	0x0000;	????	
    1c16:	00 00       	.word	0x0000;	????	
    1c18:	44 00       	.word	0x0044;	????	
    1c1a:	dd 00       	.word	0x00dd;	????	
    1c1c:	58 00       	.word	0x0058;	????	
    1c1e:	00 00       	.word	0x0000;	????	
    1c20:	00 00       	.word	0x0000;	????	
    1c22:	00 00       	.word	0x0000;	????	
    1c24:	44 00       	.word	0x0044;	????	
    1c26:	e1 00       	.word	0x00e1;	????	
    1c28:	5e 00       	.word	0x005e;	????	
    1c2a:	00 00       	.word	0x0000;	????	
    1c2c:	00 00       	.word	0x0000;	????	
    1c2e:	00 00       	.word	0x0000;	????	
    1c30:	44 00       	.word	0x0044;	????	
    1c32:	e4 00       	.word	0x00e4;	????	
    1c34:	64 00       	.word	0x0064;	????	
    1c36:	00 00       	.word	0x0000;	????	
    1c38:	00 00       	.word	0x0000;	????	
    1c3a:	00 00       	.word	0x0000;	????	
    1c3c:	44 00       	.word	0x0044;	????	
    1c3e:	eb 00       	.word	0x00eb;	????	
    1c40:	68 00       	.word	0x0068;	????	
    1c42:	00 00       	.word	0x0000;	????	
    1c44:	00 00       	.word	0x0000;	????	
    1c46:	00 00       	.word	0x0000;	????	
    1c48:	44 00       	.word	0x0044;	????	
    1c4a:	f3 00       	.word	0x00f3;	????	
    1c4c:	7c 00       	.word	0x007c;	????	
    1c4e:	00 00       	.word	0x0000;	????	
    1c50:	00 00       	.word	0x0000;	????	
    1c52:	00 00       	.word	0x0000;	????	
    1c54:	44 00       	.word	0x0044;	????	
    1c56:	f7 00       	.word	0x00f7;	????	
    1c58:	82 00       	.word	0x0082;	????	
    1c5a:	00 00       	.word	0x0000;	????	
    1c5c:	00 00       	.word	0x0000;	????	
    1c5e:	00 00       	.word	0x0000;	????	
    1c60:	44 00       	.word	0x0044;	????	
    1c62:	f9 00       	.word	0x00f9;	????	
    1c64:	88 00       	.word	0x0088;	????	
    1c66:	00 00       	.word	0x0000;	????	
    1c68:	00 00       	.word	0x0000;	????	
    1c6a:	00 00       	.word	0x0000;	????	
    1c6c:	44 00       	.word	0x0044;	????	
    1c6e:	fb 00       	.word	0x00fb;	????	
    1c70:	8a 00       	.word	0x008a;	????	
    1c72:	00 00       	.word	0x0000;	????	
    1c74:	00 00       	.word	0x0000;	????	
    1c76:	00 00       	.word	0x0000;	????	
    1c78:	44 00       	.word	0x0044;	????	
    1c7a:	17 01       	.word	0x0117;	????	
    1c7c:	8a 00       	.word	0x008a;	????	
    1c7e:	00 00       	.word	0x0000;	????	
    1c80:	00 00       	.word	0x0000;	????	
    1c82:	00 00       	.word	0x0000;	????	
    1c84:	44 00       	.word	0x0044;	????	
    1c86:	ed 00       	.word	0x00ed;	????	
    1c88:	aa 00       	.word	0x00aa;	????	
    1c8a:	00 00       	.word	0x0000;	????	
    1c8c:	00 00       	.word	0x0000;	????	
    1c8e:	00 00       	.word	0x0000;	????	
    1c90:	44 00       	.word	0x0044;	????	
    1c92:	ee 00       	.word	0x00ee;	????	
    1c94:	ae 00       	.word	0x00ae;	????	
    1c96:	00 00       	.word	0x0000;	????	
    1c98:	00 00       	.word	0x0000;	????	
    1c9a:	00 00       	.word	0x0000;	????	
    1c9c:	44 00       	.word	0x0044;	????	
    1c9e:	e8 00       	.word	0x00e8;	????	
    1ca0:	b6 00       	.word	0x00b6;	????	
    1ca2:	00 00       	.word	0x0000;	????	
    1ca4:	00 00       	.word	0x0000;	????	
    1ca6:	00 00       	.word	0x0000;	????	
    1ca8:	44 00       	.word	0x0044;	????	
    1caa:	e9 00       	.word	0x00e9;	????	
    1cac:	da 00       	.word	0x00da;	????	
    1cae:	00 00       	.word	0x0000;	????	
    1cb0:	00 00       	.word	0x0000;	????	
    1cb2:	00 00       	.word	0x0000;	????	
    1cb4:	44 00       	.word	0x0044;	????	
    1cb6:	fd 00       	.word	0x00fd;	????	
    1cb8:	fa 00       	.word	0x00fa;	????	
    1cba:	00 00       	.word	0x0000;	????	
    1cbc:	00 00       	.word	0x0000;	????	
    1cbe:	00 00       	.word	0x0000;	????	
    1cc0:	44 00       	.word	0x0044;	????	
    1cc2:	ff 00       	.word	0x00ff;	????	
    1cc4:	00 01       	.word	0x0100;	????	
    1cc6:	00 00       	.word	0x0000;	????	
    1cc8:	00 00       	.word	0x0000;	????	
    1cca:	00 00       	.word	0x0000;	????	
    1ccc:	44 00       	.word	0x0044;	????	
    1cce:	00 01       	.word	0x0100;	????	
    1cd0:	04 01       	.word	0x0104;	????	
    1cd2:	00 00       	.word	0x0000;	????	
    1cd4:	00 00       	.word	0x0000;	????	
    1cd6:	00 00       	.word	0x0000;	????	
    1cd8:	44 00       	.word	0x0044;	????	
    1cda:	04 01       	.word	0x0104;	????	
    1cdc:	0a 01       	.word	0x010a;	????	
    1cde:	00 00       	.word	0x0000;	????	
    1ce0:	00 00       	.word	0x0000;	????	
    1ce2:	00 00       	.word	0x0000;	????	
    1ce4:	44 00       	.word	0x0044;	????	
    1ce6:	08 01       	.word	0x0108;	????	
    1ce8:	10 01       	.word	0x0110;	????	
    1cea:	00 00       	.word	0x0000;	????	
    1cec:	00 00       	.word	0x0000;	????	
    1cee:	00 00       	.word	0x0000;	????	
    1cf0:	44 00       	.word	0x0044;	????	
    1cf2:	10 01       	.word	0x0110;	????	
    1cf4:	24 01       	.word	0x0124;	????	
    1cf6:	00 00       	.word	0x0000;	????	
    1cf8:	00 00       	.word	0x0000;	????	
    1cfa:	00 00       	.word	0x0000;	????	
    1cfc:	44 00       	.word	0x0044;	????	
    1cfe:	12 01       	.word	0x0112;	????	
    1d00:	2a 01       	.word	0x012a;	????	
    1d02:	00 00       	.word	0x0000;	????	
    1d04:	00 00       	.word	0x0000;	????	
    1d06:	00 00       	.word	0x0000;	????	
    1d08:	44 00       	.word	0x0044;	????	
    1d0a:	14 01       	.word	0x0114;	????	
    1d0c:	30 01       	.word	0x0130;	????	
    1d0e:	00 00       	.word	0x0000;	????	
    1d10:	00 00       	.word	0x0000;	????	
    1d12:	00 00       	.word	0x0000;	????	
    1d14:	44 00       	.word	0x0044;	????	
    1d16:	15 01       	.word	0x0115;	????	
    1d18:	36 01       	.word	0x0136;	????	
    1d1a:	00 00       	.word	0x0000;	????	
    1d1c:	00 00       	.word	0x0000;	????	
    1d1e:	00 00       	.word	0x0000;	????	
    1d20:	44 00       	.word	0x0044;	????	
    1d22:	0a 01       	.word	0x010a;	????	
    1d24:	3a 01       	.word	0x013a;	????	
    1d26:	00 00       	.word	0x0000;	????	
    1d28:	00 00       	.word	0x0000;	????	
    1d2a:	00 00       	.word	0x0000;	????	
    1d2c:	44 00       	.word	0x0044;	????	
    1d2e:	0b 01       	.word	0x010b;	????	
    1d30:	3e 01       	.word	0x013e;	????	
    1d32:	00 00       	.word	0x0000;	????	
    1d34:	00 00       	.word	0x0000;	????	
    1d36:	00 00       	.word	0x0000;	????	
    1d38:	44 00       	.word	0x0044;	????	
    1d3a:	1f 01       	.word	0x011f;	????	
    1d3c:	4e 01       	.word	0x014e;	????	
    1d3e:	00 00       	.word	0x0000;	????	
    1d40:	00 00       	.word	0x0000;	????	
    1d42:	00 00       	.word	0x0000;	????	
    1d44:	44 00       	.word	0x0044;	????	
    1d46:	20 01       	.word	0x0120;	????	
    1d48:	66 01       	.word	0x0166;	????	
    1d4a:	00 00       	.word	0x0000;	????	
    1d4c:	00 00       	.word	0x0000;	????	
    1d4e:	00 00       	.word	0x0000;	????	
    1d50:	44 00       	.word	0x0044;	????	
    1d52:	21 01       	.word	0x0121;	????	
    1d54:	86 01       	.word	0x0186;	????	
    1d56:	00 00       	.word	0x0000;	????	
    1d58:	00 00       	.word	0x0000;	????	
    1d5a:	00 00       	.word	0x0000;	????	
    1d5c:	44 00       	.word	0x0044;	????	
    1d5e:	31 01       	.word	0x0131;	????	
    1d60:	9c 01       	.word	0x019c;	????	
    1d62:	00 00       	.word	0x0000;	????	
    1d64:	48 20       	jnz	$+146    	;abs 0x1df6
    1d66:	00 00       	.word	0x0000;	????	
    1d68:	80 00       	.word	0x0080;	????	
    1d6a:	ba 00       	.word	0x00ba;	????	
    1d6c:	00 00       	.word	0x0000;	????	
    1d6e:	00 00       	.word	0x0000;	????	
    1d70:	53 20       	jnz	$+168    	;abs 0x1e18
    1d72:	00 00       	.word	0x0000;	????	
    1d74:	40 00       	.word	0x0040;	????	
    1d76:	bb 00       	.word	0x00bb;	????	
    1d78:	0c 00       	.word	0x000c;	????	
    1d7a:	00 00       	.word	0x0000;	????	
    1d7c:	63 20       	jnz	$+200    	;abs 0x1e44
    1d7e:	00 00       	.word	0x0000;	????	
    1d80:	40 00       	.word	0x0040;	????	
    1d82:	bc 00       	.word	0x00bc;	????	
    1d84:	09 00       	.word	0x0009;	????	
    1d86:	00 00       	.word	0x0000;	????	
    1d88:	6f 20       	jnz	$+224    	;abs 0x1e68
    1d8a:	00 00       	.word	0x0000;	????	
    1d8c:	40 00       	.word	0x0040;	????	
    1d8e:	bd 00       	.word	0x00bd;	????	
    1d90:	0a 00       	.word	0x000a;	????	
    1d92:	00 00       	.word	0x0000;	????	
    1d94:	00 00       	.word	0x0000;	????	
    1d96:	00 00       	.word	0x0000;	????	
    1d98:	c0 00       	.word	0x00c0;	????	
    1d9a:	00 00       	.word	0x0000;	????	
    1d9c:	0c 00       	.word	0x000c;	????	
    1d9e:	00 00       	.word	0x0000;	????	
    1da0:	7a 20       	jnz	$+246    	;abs 0x1e96
    1da2:	00 00       	.word	0x0000;	????	
    1da4:	40 00       	.word	0x0040;	????	
    1da6:	dd 00       	.word	0x00dd;	????	
    1da8:	08 00       	.word	0x0008;	????	
    1daa:	00 00       	.word	0x0000;	????	
    1dac:	00 00       	.word	0x0000;	????	
    1dae:	00 00       	.word	0x0000;	????	
    1db0:	c0 00       	.word	0x00c0;	????	
    1db2:	00 00       	.word	0x0000;	????	
    1db4:	58 00       	.word	0x0058;	????	
    1db6:	00 00       	.word	0x0000;	????	
    1db8:	00 00       	.word	0x0000;	????	
    1dba:	00 00       	.word	0x0000;	????	
    1dbc:	e0 00       	.word	0x00e0;	????	
    1dbe:	00 00       	.word	0x0000;	????	
    1dc0:	8a 00       	.word	0x008a;	????	
    1dc2:	00 00       	.word	0x0000;	????	
    1dc4:	7a 20       	jnz	$+246    	;abs 0x1eba
    1dc6:	00 00       	.word	0x0000;	????	
    1dc8:	40 00       	.word	0x0040;	????	
    1dca:	dd 00       	.word	0x00dd;	????	
    1dcc:	08 00       	.word	0x0008;	????	
    1dce:	00 00       	.word	0x0000;	????	
    1dd0:	00 00       	.word	0x0000;	????	
    1dd2:	00 00       	.word	0x0000;	????	
    1dd4:	c0 00       	.word	0x00c0;	????	
    1dd6:	00 00       	.word	0x0000;	????	
    1dd8:	aa 00       	.word	0x00aa;	????	
    1dda:	00 00       	.word	0x0000;	????	
    1ddc:	87 20       	jnz	$+272    	;abs 0x1eec
    1dde:	00 00       	.word	0x0000;	????	
    1de0:	40 00       	.word	0x0040;	????	
    1de2:	e8 00       	.word	0x00e8;	????	
    1de4:	07 00       	.word	0x0007;	????	
    1de6:	00 00       	.word	0x0000;	????	
    1de8:	00 00       	.word	0x0000;	????	
    1dea:	00 00       	.word	0x0000;	????	
    1dec:	c0 00       	.word	0x00c0;	????	
    1dee:	00 00       	.word	0x0000;	????	
    1df0:	b6 00       	.word	0x00b6;	????	
    1df2:	00 00       	.word	0x0000;	????	
    1df4:	00 00       	.word	0x0000;	????	
    1df6:	00 00       	.word	0x0000;	????	
    1df8:	e0 00       	.word	0x00e0;	????	
    1dfa:	00 00       	.word	0x0000;	????	
    1dfc:	fa 00       	.word	0x00fa;	????	
    1dfe:	00 00       	.word	0x0000;	????	
    1e00:	00 00       	.word	0x0000;	????	
    1e02:	00 00       	.word	0x0000;	????	
    1e04:	e0 00       	.word	0x00e0;	????	
    1e06:	00 00       	.word	0x0000;	????	
    1e08:	fa 00       	.word	0x00fa;	????	
    1e0a:	00 00       	.word	0x0000;	????	
    1e0c:	00 00       	.word	0x0000;	????	
    1e0e:	00 00       	.word	0x0000;	????	
    1e10:	e0 00       	.word	0x00e0;	????	
    1e12:	00 00       	.word	0x0000;	????	
    1e14:	9c 01       	.word	0x019c;	????	
    1e16:	00 00       	.word	0x0000;	????	
    1e18:	00 00       	.word	0x0000;	????	
    1e1a:	00 00       	.word	0x0000;	????	
    1e1c:	24 00       	.word	0x0024;	????	
    1e1e:	00 00       	.word	0x0000;	????	
    1e20:	b0 01       	.word	0x01b0;	????	
    1e22:	00 00       	.word	0x0000;	????	
    1e24:	00 00       	.word	0x0000;	????	
    1e26:	00 00       	.word	0x0000;	????	
    1e28:	64 00       	.word	0x0064;	????	
    1e2a:	00 00       	.word	0x0000;	????	
    1e2c:	f6 f0 00 00 	and.b	#0,	6612(r6);#0x0000, 0x19d4(r6)
    1e30:	d4 19 
    1e32:	00 00       	.word	0x0000;	????	
    1e34:	64 00       	.word	0x0064;	????	
    1e36:	00 00       	.word	0x0000;	????	
    1e38:	f6 f0 00 00 	and.b	#0,	6661(r6);#0x0000, 0x1a05(r6)
    1e3c:	05 1a 
    1e3e:	00 00       	.word	0x0000;	????	
    1e40:	64 00       	.word	0x0064;	????	
    1e42:	00 00       	.word	0x0000;	????	
    1e44:	f6 f0 00 00 	and.b	#0,	109(r6)	;#0x0000, 0x006d(r6)
    1e48:	6d 00 
    1e4a:	00 00       	.word	0x0000;	????	
    1e4c:	3c 00       	.word	0x003c;	????	
    1e4e:	00 00       	.word	0x0000;	????	
    1e50:	00 00       	.word	0x0000;	????	
    1e52:	00 00       	.word	0x0000;	????	
    1e54:	7c 00       	.word	0x007c;	????	
    1e56:	00 00       	.word	0x0000;	????	
    1e58:	80 00       	.word	0x0080;	????	
    1e5a:	00 00       	.word	0x0000;	????	
    1e5c:	00 00       	.word	0x0000;	????	
    1e5e:	00 00       	.word	0x0000;	????	
    1e60:	9c 00       	.word	0x009c;	????	
    1e62:	00 00       	.word	0x0000;	????	
    1e64:	80 00       	.word	0x0080;	????	
    1e66:	00 00       	.word	0x0000;	????	
    1e68:	00 00       	.word	0x0000;	????	
    1e6a:	00 00       	.word	0x0000;	????	
    1e6c:	b6 00       	.word	0x00b6;	????	
    1e6e:	00 00       	.word	0x0000;	????	
    1e70:	80 00       	.word	0x0080;	????	
    1e72:	00 00       	.word	0x0000;	????	
    1e74:	00 00       	.word	0x0000;	????	
    1e76:	00 00       	.word	0x0000;	????	
    1e78:	ef 00       	.word	0x00ef;	????	
    1e7a:	00 00       	.word	0x0000;	????	
    1e7c:	80 00       	.word	0x0080;	????	
    1e7e:	00 00       	.word	0x0000;	????	
    1e80:	00 00       	.word	0x0000;	????	
    1e82:	00 00       	.word	0x0000;	????	
    1e84:	27 01       	.word	0x0127;	????	
    1e86:	00 00       	.word	0x0000;	????	
    1e88:	80 00       	.word	0x0080;	????	
    1e8a:	00 00       	.word	0x0000;	????	
    1e8c:	00 00       	.word	0x0000;	????	
    1e8e:	00 00       	.word	0x0000;	????	
    1e90:	69 01       	.word	0x0169;	????	
    1e92:	00 00       	.word	0x0000;	????	
    1e94:	80 00       	.word	0x0080;	????	
    1e96:	00 00       	.word	0x0000;	????	
    1e98:	00 00       	.word	0x0000;	????	
    1e9a:	00 00       	.word	0x0000;	????	
    1e9c:	ba 01       	.word	0x01ba;	????	
    1e9e:	00 00       	.word	0x0000;	????	
    1ea0:	80 00       	.word	0x0080;	????	
    1ea2:	00 00       	.word	0x0000;	????	
    1ea4:	00 00       	.word	0x0000;	????	
    1ea6:	00 00       	.word	0x0000;	????	
    1ea8:	0b 02       	.word	0x020b;	????	
    1eaa:	00 00       	.word	0x0000;	????	
    1eac:	80 00       	.word	0x0080;	????	
    1eae:	00 00       	.word	0x0000;	????	
    1eb0:	00 00       	.word	0x0000;	????	
    1eb2:	00 00       	.word	0x0000;	????	
    1eb4:	31 02       	.word	0x0231;	????	
    1eb6:	00 00       	.word	0x0000;	????	
    1eb8:	80 00       	.word	0x0080;	????	
    1eba:	00 00       	.word	0x0000;	????	
    1ebc:	00 00       	.word	0x0000;	????	
    1ebe:	00 00       	.word	0x0000;	????	
    1ec0:	6f 02       	.word	0x026f;	????	
    1ec2:	00 00       	.word	0x0000;	????	
    1ec4:	80 00       	.word	0x0080;	????	
    1ec6:	00 00       	.word	0x0000;	????	
    1ec8:	00 00       	.word	0x0000;	????	
    1eca:	00 00       	.word	0x0000;	????	
    1ecc:	99 02       	.word	0x0299;	????	
    1ece:	00 00       	.word	0x0000;	????	
    1ed0:	80 00       	.word	0x0080;	????	
    1ed2:	00 00       	.word	0x0000;	????	
    1ed4:	00 00       	.word	0x0000;	????	
    1ed6:	00 00       	.word	0x0000;	????	
    1ed8:	c2 02       	.word	0x02c2;	????	
    1eda:	00 00       	.word	0x0000;	????	
    1edc:	80 00       	.word	0x0080;	????	
    1ede:	00 00       	.word	0x0000;	????	
    1ee0:	00 00       	.word	0x0000;	????	
    1ee2:	00 00       	.word	0x0000;	????	
    1ee4:	dc 02       	.word	0x02dc;	????	
    1ee6:	00 00       	.word	0x0000;	????	
    1ee8:	80 00       	.word	0x0080;	????	
    1eea:	00 00       	.word	0x0000;	????	
    1eec:	00 00       	.word	0x0000;	????	
    1eee:	00 00       	.word	0x0000;	????	
    1ef0:	f7 02       	.word	0x02f7;	????	
    1ef2:	00 00       	.word	0x0000;	????	
    1ef4:	80 00       	.word	0x0080;	????	
    1ef6:	00 00       	.word	0x0000;	????	
    1ef8:	00 00       	.word	0x0000;	????	
    1efa:	00 00       	.word	0x0000;	????	
    1efc:	17 03       	.word	0x0317;	????	
    1efe:	00 00       	.word	0x0000;	????	
    1f00:	80 00       	.word	0x0080;	????	
    1f02:	00 00       	.word	0x0000;	????	
    1f04:	00 00       	.word	0x0000;	????	
    1f06:	00 00       	.word	0x0000;	????	
    1f08:	50 03       	.word	0x0350;	????	
    1f0a:	00 00       	.word	0x0000;	????	
    1f0c:	80 00       	.word	0x0080;	????	
    1f0e:	00 00       	.word	0x0000;	????	
    1f10:	00 00       	.word	0x0000;	????	
    1f12:	00 00       	.word	0x0000;	????	
    1f14:	6e 03       	.word	0x036e;	????	
    1f16:	00 00       	.word	0x0000;	????	
    1f18:	80 00       	.word	0x0080;	????	
    1f1a:	00 00       	.word	0x0000;	????	
    1f1c:	00 00       	.word	0x0000;	????	
    1f1e:	00 00       	.word	0x0000;	????	
    1f20:	8d 03       	.word	0x038d;	????	
    1f22:	00 00       	.word	0x0000;	????	
    1f24:	80 00       	.word	0x0080;	????	
    1f26:	00 00       	.word	0x0000;	????	
    1f28:	00 00       	.word	0x0000;	????	
    1f2a:	00 00       	.word	0x0000;	????	
    1f2c:	b1 03       	.word	0x03b1;	????	
    1f2e:	00 00       	.word	0x0000;	????	
    1f30:	80 00       	.word	0x0080;	????	
    1f32:	00 00       	.word	0x0000;	????	
    1f34:	00 00       	.word	0x0000;	????	
    1f36:	00 00       	.word	0x0000;	????	
    1f38:	da 03       	.word	0x03da;	????	
    1f3a:	00 00       	.word	0x0000;	????	
    1f3c:	80 00       	.word	0x0080;	????	
    1f3e:	00 00       	.word	0x0000;	????	
    1f40:	00 00       	.word	0x0000;	????	
    1f42:	00 00       	.word	0x0000;	????	
    1f44:	05 1a       	.word	0x1a05;	????	
    1f46:	00 00       	.word	0x0000;	????	
    1f48:	82 00       	.word	0x0082;	????	
    1f4a:	00 00       	.word	0x0000;	????	
    1f4c:	62 17       	.word	0x1762;	????	
    1f4e:	00 00       	.word	0x0000;	????	
    1f50:	0e 1a       	.word	0x1a0e;	????	
    1f52:	00 00       	.word	0x0000;	????	
    1f54:	c2 00       	.word	0x00c2;	????	
    1f56:	00 00       	.word	0x0000;	????	
    1f58:	e5 1d       	.word	0x1de5;	????	
    1f5a:	00 00       	.word	0x0000;	????	
    1f5c:	88 1a       	.word	0x1a88;	????	
    1f5e:	00 00       	.word	0x0000;	????	
    1f60:	c2 00       	.word	0x00c2;	????	
    1f62:	00 00       	.word	0x0000;	????	
    1f64:	00 00       	.word	0x0000;	????	
    1f66:	00 00       	.word	0x0000;	????	
    1f68:	9e 1a       	.word	0x1a9e;	????	
    1f6a:	00 00       	.word	0x0000;	????	
    1f6c:	c2 00       	.word	0x00c2;	????	
    1f6e:	00 00       	.word	0x0000;	????	
    1f70:	00 00       	.word	0x0000;	????	
    1f72:	00 00       	.word	0x0000;	????	
    1f74:	b7 1a       	.word	0x1ab7;	????	
    1f76:	00 00       	.word	0x0000;	????	
    1f78:	c2 00       	.word	0x00c2;	????	
    1f7a:	00 00       	.word	0x0000;	????	
    1f7c:	fe 42 00 00 	mov.b	#8,	0(r14)	;r2 As==11, 0x0000(r14)
    1f80:	c9 1b       	.word	0x1bc9;	????	
    1f82:	00 00       	.word	0x0000;	????	
    1f84:	c2 00       	.word	0x00c2;	????	
    1f86:	00 00       	.word	0x0000;	????	
    1f88:	00 00       	.word	0x0000;	????	
    1f8a:	00 00       	.word	0x0000;	????	
    1f8c:	d9 1b       	.word	0x1bd9;	????	
    1f8e:	00 00       	.word	0x0000;	????	
    1f90:	c2 00       	.word	0x00c2;	????	
    1f92:	00 00       	.word	0x0000;	????	
    1f94:	00 00       	.word	0x0000;	????	
    1f96:	00 00       	.word	0x0000;	????	
    1f98:	e4 1b       	.word	0x1be4;	????	
    1f9a:	00 00       	.word	0x0000;	????	
    1f9c:	c2 00       	.word	0x00c2;	????	
    1f9e:	00 00       	.word	0x0000;	????	
    1fa0:	f2 b1 00 00 	bit.b	@r1+,	&0x0000	
    1fa4:	95 20       	jnz	$+300    	;abs 0x20d0
    1fa6:	00 00       	.word	0x0000;	????	
    1fa8:	24 00       	.word	0x0024;	????	
    1faa:	37 01       	.word	0x0137;	????	
    1fac:	f6 f0 00 00 	and.b	#0,	8360(r6);#0x0000, 0x20a8(r6)
    1fb0:	a8 20 
    1fb2:	00 00       	.word	0x0000;	????	
    1fb4:	40 00       	.word	0x0040;	????	
    1fb6:	36 01       	.word	0x0136;	????	
    1fb8:	0f 00       	.word	0x000f;	????	
    1fba:	00 00       	.word	0x0000;	????	
    1fbc:	bb 20       	jnz	$+376    	;abs 0x2134
    1fbe:	00 00       	.word	0x0000;	????	
    1fc0:	40 00       	.word	0x0040;	????	
    1fc2:	36 01       	.word	0x0136;	????	
    1fc4:	0b 00       	.word	0x000b;	????	
    1fc6:	00 00       	.word	0x0000;	????	
    1fc8:	00 00       	.word	0x0000;	????	
    1fca:	00 00       	.word	0x0000;	????	
    1fcc:	44 00       	.word	0x0044;	????	
    1fce:	37 01       	.word	0x0137;	????	
	...
    1fd8:	44 00       	.word	0x0044;	????	
    1fda:	48 01       	.word	0x0148;	????	
    1fdc:	04 00       	.word	0x0004;	????	
    1fde:	00 00       	.word	0x0000;	????	
    1fe0:	00 00       	.word	0x0000;	????	
    1fe2:	00 00       	.word	0x0000;	????	
    1fe4:	44 00       	.word	0x0044;	????	
    1fe6:	49 01       	.word	0x0149;	????	
    1fe8:	0e 00       	.word	0x000e;	????	
    1fea:	00 00       	.word	0x0000;	????	
    1fec:	00 00       	.word	0x0000;	????	
    1fee:	00 00       	.word	0x0000;	????	
    1ff0:	44 00       	.word	0x0044;	????	
    1ff2:	4a 01       	.word	0x014a;	????	
    1ff4:	24 00       	.word	0x0024;	????	
    1ff6:	00 00       	.word	0x0000;	????	
    1ff8:	00 00       	.word	0x0000;	????	
    1ffa:	00 00       	.word	0x0000;	????	
    1ffc:	44 00       	.word	0x0044;	????	
    1ffe:	51 01       	.word	0x0151;	????	
    2000:	2e 00       	.word	0x002e;	????	
    2002:	00 00       	.word	0x0000;	????	
    2004:	00 00       	.word	0x0000;	????	
    2006:	00 00       	.word	0x0000;	????	
    2008:	44 00       	.word	0x0044;	????	
    200a:	52 01       	.word	0x0152;	????	
    200c:	32 00       	.word	0x0032;	????	
    200e:	00 00       	.word	0x0000;	????	
    2010:	00 00       	.word	0x0000;	????	
    2012:	00 00       	.word	0x0000;	????	
    2014:	44 00       	.word	0x0044;	????	
    2016:	55 01       	.word	0x0155;	????	
    2018:	36 00       	.word	0x0036;	????	
    201a:	00 00       	.word	0x0000;	????	
    201c:	00 00       	.word	0x0000;	????	
    201e:	00 00       	.word	0x0000;	????	
    2020:	44 00       	.word	0x0044;	????	
    2022:	5c 01       	.word	0x015c;	????	
    2024:	3e 00       	.word	0x003e;	????	
    2026:	00 00       	.word	0x0000;	????	
    2028:	00 00       	.word	0x0000;	????	
    202a:	00 00       	.word	0x0000;	????	
    202c:	44 00       	.word	0x0044;	????	
    202e:	63 01       	.word	0x0163;	????	
    2030:	44 00       	.word	0x0044;	????	
    2032:	00 00       	.word	0x0000;	????	
    2034:	00 00       	.word	0x0000;	????	
    2036:	00 00       	.word	0x0000;	????	
    2038:	44 00       	.word	0x0044;	????	
    203a:	64 01       	.word	0x0164;	????	
    203c:	4a 00       	.word	0x004a;	????	
    203e:	00 00       	.word	0x0000;	????	
    2040:	00 00       	.word	0x0000;	????	
    2042:	00 00       	.word	0x0000;	????	
    2044:	44 00       	.word	0x0044;	????	
    2046:	66 01       	.word	0x0166;	????	
    2048:	66 00       	.word	0x0066;	????	
    204a:	00 00       	.word	0x0000;	????	
    204c:	00 00       	.word	0x0000;	????	
    204e:	00 00       	.word	0x0000;	????	
    2050:	44 00       	.word	0x0044;	????	
    2052:	68 01       	.word	0x0168;	????	
    2054:	6c 00       	.word	0x006c;	????	
    2056:	00 00       	.word	0x0000;	????	
    2058:	00 00       	.word	0x0000;	????	
    205a:	00 00       	.word	0x0000;	????	
    205c:	44 00       	.word	0x0044;	????	
    205e:	6a 01       	.word	0x016a;	????	
    2060:	76 00       	.word	0x0076;	????	
    2062:	00 00       	.word	0x0000;	????	
    2064:	00 00       	.word	0x0000;	????	
    2066:	00 00       	.word	0x0000;	????	
    2068:	44 00       	.word	0x0044;	????	
    206a:	6b 01       	.word	0x016b;	????	
    206c:	7a 00       	.word	0x007a;	????	
    206e:	00 00       	.word	0x0000;	????	
    2070:	00 00       	.word	0x0000;	????	
    2072:	00 00       	.word	0x0000;	????	
    2074:	44 00       	.word	0x0044;	????	
    2076:	85 01       	.word	0x0185;	????	
    2078:	86 00       	.word	0x0086;	????	
    207a:	00 00       	.word	0x0000;	????	
    207c:	00 00       	.word	0x0000;	????	
    207e:	00 00       	.word	0x0000;	????	
    2080:	44 00       	.word	0x0044;	????	
    2082:	71 01       	.word	0x0171;	????	
    2084:	90 00       	.word	0x0090;	????	
    2086:	00 00       	.word	0x0000;	????	
    2088:	00 00       	.word	0x0000;	????	
    208a:	00 00       	.word	0x0000;	????	
    208c:	44 00       	.word	0x0044;	????	
    208e:	8b 01       	.word	0x018b;	????	
    2090:	96 00       	.word	0x0096;	????	
    2092:	00 00       	.word	0x0000;	????	
    2094:	00 00       	.word	0x0000;	????	
    2096:	00 00       	.word	0x0000;	????	
    2098:	44 00       	.word	0x0044;	????	
    209a:	8c 01       	.word	0x018c;	????	
    209c:	9e 00       	.word	0x009e;	????	
    209e:	00 00       	.word	0x0000;	????	
    20a0:	00 00       	.word	0x0000;	????	
    20a2:	00 00       	.word	0x0000;	????	
    20a4:	44 00       	.word	0x0044;	????	
    20a6:	8d 01       	.word	0x018d;	????	
    20a8:	a4 00       	.word	0x00a4;	????	
    20aa:	00 00       	.word	0x0000;	????	
    20ac:	00 00       	.word	0x0000;	????	
    20ae:	00 00       	.word	0x0000;	????	
    20b0:	44 00       	.word	0x0044;	????	
    20b2:	74 01       	.word	0x0174;	????	
    20b4:	d2 00       	.word	0x00d2;	????	
    20b6:	00 00       	.word	0x0000;	????	
    20b8:	00 00       	.word	0x0000;	????	
    20ba:	00 00       	.word	0x0000;	????	
    20bc:	44 00       	.word	0x0044;	????	
    20be:	77 01       	.word	0x0177;	????	
    20c0:	da 00       	.word	0x00da;	????	
    20c2:	00 00       	.word	0x0000;	????	
    20c4:	00 00       	.word	0x0000;	????	
    20c6:	00 00       	.word	0x0000;	????	
    20c8:	44 00       	.word	0x0044;	????	
    20ca:	7c 01       	.word	0x017c;	????	
    20cc:	e0 00       	.word	0x00e0;	????	
    20ce:	00 00       	.word	0x0000;	????	
    20d0:	00 00       	.word	0x0000;	????	
    20d2:	00 00       	.word	0x0000;	????	
    20d4:	44 00       	.word	0x0044;	????	
    20d6:	7e 01       	.word	0x017e;	????	
    20d8:	e6 00       	.word	0x00e6;	????	
    20da:	00 00       	.word	0x0000;	????	
    20dc:	00 00       	.word	0x0000;	????	
    20de:	00 00       	.word	0x0000;	????	
    20e0:	44 00       	.word	0x0044;	????	
    20e2:	82 01       	.word	0x0182;	????	
    20e4:	ec 00       	.word	0x00ec;	????	
    20e6:	00 00       	.word	0x0000;	????	
    20e8:	00 00       	.word	0x0000;	????	
    20ea:	00 00       	.word	0x0000;	????	
    20ec:	44 00       	.word	0x0044;	????	
    20ee:	8f 01       	.word	0x018f;	????	
    20f0:	f2 00       	.word	0x00f2;	????	
    20f2:	00 00       	.word	0x0000;	????	
    20f4:	53 20       	jnz	$+168    	;abs 0x219c
    20f6:	00 00       	.word	0x0000;	????	
    20f8:	40 00       	.word	0x0040;	????	
    20fa:	3b 01       	.word	0x013b;	????	
    20fc:	0c 00       	.word	0x000c;	????	
    20fe:	00 00       	.word	0x0000;	????	
    2100:	6f 20       	jnz	$+224    	;abs 0x21e0
    2102:	00 00       	.word	0x0000;	????	
    2104:	40 00       	.word	0x0040;	????	
    2106:	3c 01       	.word	0x013c;	????	
    2108:	0e 00       	.word	0x000e;	????	
    210a:	00 00       	.word	0x0000;	????	
    210c:	63 20       	jnz	$+200    	;abs 0x21d4
    210e:	00 00       	.word	0x0000;	????	
    2110:	40 00       	.word	0x0040;	????	
    2112:	3d 01       	.word	0x013d;	????	
    2114:	0f 00       	.word	0x000f;	????	
    2116:	00 00       	.word	0x0000;	????	
    2118:	00 00       	.word	0x0000;	????	
    211a:	00 00       	.word	0x0000;	????	
    211c:	c0 00       	.word	0x00c0;	????	
    211e:	00 00       	.word	0x0000;	????	
    2120:	04 00       	.word	0x0004;	????	
    2122:	00 00       	.word	0x0000;	????	
    2124:	00 00       	.word	0x0000;	????	
    2126:	00 00       	.word	0x0000;	????	
    2128:	e0 00       	.word	0x00e0;	????	
    212a:	00 00       	.word	0x0000;	????	
    212c:	f2 00       	.word	0x00f2;	????	
    212e:	00 00       	.word	0x0000;	????	
    2130:	00 00       	.word	0x0000;	????	
    2132:	00 00       	.word	0x0000;	????	
    2134:	24 00       	.word	0x0024;	????	
    2136:	00 00       	.word	0x0000;	????	
    2138:	f6 00       	.word	0x00f6;	????	
    213a:	00 00       	.word	0x0000;	????	
    213c:	00 00       	.word	0x0000;	????	
    213e:	00 00       	.word	0x0000;	????	
    2140:	64 00       	.word	0x0064;	????	
    2142:	00 00       	.word	0x0000;	????	
    2144:	ec f1 00 00 	and.b	@r1,	0(r12)	;0x0000(r12)
Disassembly of section .stabstr:

00000000 <.stabstr>:
       0:	00 43       	clr	r0		
       2:	3a 2f       	jc	$-394    	;abs 0xfe78
       4:	44 4f       	mov.b	r15,	r4	
       6:	4b 55       	add.b	r5,	r11	
       8:	4d 45       	mov.b	r5,	r13	
       a:	7e 31       	jn	$+766    	;abs 0x308
       c:	2f 77       	subc	@r7,	r15	
       e:	6f 72       	subc.b	#4,	r15	;r2 As==10
      10:	6b 2f       	jc	$-296    	;abs 0xfee8
      12:	4c 4f       	mov.b	r15,	r12	
      14:	4b 41       	mov.b	r1,	r11	
      16:	4c 45       	mov.b	r5,	r12	
      18:	7e 31       	jn	$+766    	;abs 0x316
      1a:	2f 54       	add	@r4,	r15	
      1c:	65 6d       	addc.b	@r13,	r5	
      1e:	70 2f       	jc	$-286    	;abs 0xff00
      20:	63 63       	.word	0x6363;	????	Illegal as 2-op instr
      22:	52 4d 53 39 	mov.b	14675(r13),r2	;0x3953(r13)
      26:	74 62       	addc.b	#8,	r4	;r2 As==11
      28:	2e 73       	subc	#2,	r14	;r3 As==10
      2a:	00 67       	addc	r7,	r0	
      2c:	63 72       	.word	0x7263;	????	Illegal as 2-op instr
      2e:	74 30       	jn	$+234    	;abs 0x118
      30:	2e 53       	incd	r14		
      32:	00 43       	clr	r0		
      34:	3a 5c       	add	@r12+,	r10	
      36:	55 73       	subc.b	#1,	r5	;r3 As==01
      38:	65 72       	subc.b	#4,	r5	;r2 As==10
      3a:	73 5c       	.word	0x5c73;	????	Illegal as 2-op instr
      3c:	76 61       	addc.b	@r1+,	r6	
      3e:	67 69       	addc.b	@r9,	r7	
      40:	6e 61       	addc.b	@r1,	r14	
      42:	5c 44 6f 63 	mov.b	25455(r4),r12	;0x636f(r4)
      46:	75 6d       	addc.b	@r13+,	r5	
      48:	65 6e       	addc.b	@r14,	r5	
      4a:	74 73       	subc.b	#-1,	r4	;r3 As==11
      4c:	5c 4d 69 63 	mov.b	25449(r13),r12	;0x6369(r13)
      50:	72 6f       	addc.b	@r15+,	r2	
      52:	51 75 61 64 	subc.b	25697(r5),r1	;0x6461(r5)
      56:	5c 54 65 73 	add.b	29541(r4),r12	;0x7365(r4)
      5a:	74 65       	addc.b	@r5+,	r4	
      5c:	72 2f       	jc	$-282    	;abs 0xff42
      5e:	00 6d       	addc	r13,	r0	
      60:	6f 74       	subc.b	@r4,	r15	
      62:	6f 72       	subc.b	#4,	r15	;r2 As==10
      64:	74 65       	addc.b	@r5+,	r4	
      66:	73 74       	.word	0x7473;	????	Illegal as 2-op instr
      68:	65 72       	subc.b	#4,	r5	;r2 As==10
      6a:	2e 63       	addc	#2,	r14	;r3 As==10
      6c:	00 67       	addc	r7,	r0	
      6e:	63 63       	.word	0x6363;	????	Illegal as 2-op instr
      70:	32 5f       	add	@r15+,	r2	
      72:	63 6f       	.word	0x6f63;	????	Illegal as 2-op instr
      74:	6d 70       	subc.b	@r0,	r13	
      76:	69 6c       	addc.b	@r12,	r9	
      78:	65 64       	addc.b	@r4,	r5	
      7a:	2e 00       	.word	0x002e;	????	
      7c:	69 6e       	addc.b	@r14,	r9	
      7e:	74 3a       	jl	$-790    	;abs 0xfd68
      80:	74 28       	jnc	$+234    	;abs 0x16a
      82:	30 2c       	jc	$+98     	;abs 0xe4
      84:	31 29       	jnc	$+612    	;abs 0x2e8
      86:	3d 72       	subc	#8,	r13	;r2 As==11
      88:	28 30       	jn	$+82     	;abs 0xda
      8a:	2c 31       	jn	$+602    	;abs 0x2e4
      8c:	29 3b       	jl	$-428    	;abs 0xfee0
      8e:	2d 33       	jn	$-420    	;abs 0xfeea
      90:	32 37       	jge	$-410    	;abs 0xfef6
      92:	36 38       	jl	$+110    	;abs 0x100
      94:	3b 33       	jn	$-392    	;abs 0xff0c
      96:	32 37       	jge	$-410    	;abs 0xfefc
      98:	36 37       	jge	$-402    	;abs 0xff06
      9a:	3b 00       	.word	0x003b;	????	
      9c:	63 68       	.word	0x6863;	????	Illegal as 2-op instr
      9e:	61 72       	subc.b	#4,	r1	;r2 As==10
      a0:	3a 74       	subc	@r4+,	r10	
      a2:	28 30       	jn	$+82     	;abs 0xf4
      a4:	2c 32       	jn	$-934    	;abs 0xfcfe
      a6:	29 3d       	jmp	$+596    	;abs 0x2fa
      a8:	72 28       	jnc	$+230    	;abs 0x18e
      aa:	30 2c       	jc	$+98     	;abs 0x10c
      ac:	32 29       	jnc	$+614    	;abs 0x312
      ae:	3b 30       	jn	$+120    	;abs 0x126
      b0:	3b 31       	jn	$+632    	;abs 0x328
      b2:	32 37       	jge	$-410    	;abs 0xff18
      b4:	3b 00       	.word	0x003b;	????	
      b6:	6c 6f       	addc.b	@r15,	r12	
      b8:	6e 67       	addc.b	@r7,	r14	
      ba:	20 69       	addc	@r9,	r0	
      bc:	6e 74       	subc.b	@r4,	r14	
      be:	3a 74       	subc	@r4+,	r10	
      c0:	28 30       	jn	$+82     	;abs 0x112
      c2:	2c 33       	jn	$-422    	;abs 0xff1c
      c4:	29 3d       	jmp	$+596    	;abs 0x318
      c6:	40 73       	sbc.b	r0		
      c8:	33 32       	jn	$-920    	;abs 0xfd30
      ca:	3b 72       	subc	#8,	r11	;r2 As==11
      cc:	28 30       	jn	$+82     	;abs 0x11e
      ce:	2c 33       	jn	$-422    	;abs 0xff28
      d0:	29 3b       	jl	$-428    	;abs 0xff24
      d2:	30 30       	jn	$+98     	;abs 0x134
      d4:	32 30       	jn	$+102    	;abs 0x13a
      d6:	30 30       	jn	$+98     	;abs 0x138
      d8:	30 30       	jn	$+98     	;abs 0x13a
      da:	30 30       	jn	$+98     	;abs 0x13c
      dc:	30 30       	jn	$+98     	;abs 0x13e
      de:	30 3b       	jl	$-414    	;abs 0xff40
      e0:	30 30       	jn	$+98     	;abs 0x142
      e2:	31 37       	jge	$-412    	;abs 0xff46
      e4:	37 37       	jge	$-400    	;abs 0xff54
      e6:	37 37       	jge	$-400    	;abs 0xff56
      e8:	37 37       	jge	$-400    	;abs 0xff58
      ea:	37 37       	jge	$-400    	;abs 0xff5a
      ec:	37 3b       	jl	$-400    	;abs 0xff5c
      ee:	00 75       	subc	r5,	r0	
      f0:	6e 73       	subc.b	#2,	r14	;r3 As==10
      f2:	69 67       	addc.b	@r7,	r9	
      f4:	6e 65       	addc.b	@r5,	r14	
      f6:	64 20       	jnz	$+202    	;abs 0x1c0
      f8:	69 6e       	addc.b	@r14,	r9	
      fa:	74 3a       	jl	$-790    	;abs 0xfde4
      fc:	74 28       	jnc	$+234    	;abs 0x1e6
      fe:	30 2c       	jc	$+98     	;abs 0x160
     100:	34 29       	jnc	$+618    	;abs 0x36a
     102:	3d 72       	subc	#8,	r13	;r2 As==11
     104:	28 30       	jn	$+82     	;abs 0x156
     106:	2c 34       	jge	$+90     	;abs 0x160
     108:	29 3b       	jl	$-428    	;abs 0xff5c
     10a:	30 30       	jn	$+98     	;abs 0x16c
     10c:	30 30       	jn	$+98     	;abs 0x16e
     10e:	30 30       	jn	$+98     	;abs 0x170
     110:	30 30       	jn	$+98     	;abs 0x172
     112:	30 30       	jn	$+98     	;abs 0x174
     114:	30 30       	jn	$+98     	;abs 0x176
     116:	30 3b       	jl	$-414    	;abs 0xff78
     118:	30 30       	jn	$+98     	;abs 0x17a
     11a:	30 30       	jn	$+98     	;abs 0x17c
     11c:	30 30       	jn	$+98     	;abs 0x17e
     11e:	30 31       	jn	$+610    	;abs 0x380
     120:	37 37       	jge	$-400    	;abs 0xff90
     122:	37 37       	jge	$-400    	;abs 0xff92
     124:	37 3b       	jl	$-400    	;abs 0xff94
     126:	00 6c       	addc	r12,	r0	
     128:	6f 6e       	addc.b	@r14,	r15	
     12a:	67 20       	jnz	$+208    	;abs 0x1fa
     12c:	75 6e       	addc.b	@r14+,	r5	
     12e:	73 69       	.word	0x6973;	????	Illegal as 2-op instr
     130:	67 6e       	addc.b	@r14,	r7	
     132:	65 64       	addc.b	@r4,	r5	
     134:	20 69       	addc	@r9,	r0	
     136:	6e 74       	subc.b	@r4,	r14	
     138:	3a 74       	subc	@r4+,	r10	
     13a:	28 30       	jn	$+82     	;abs 0x18c
     13c:	2c 35       	jge	$+602    	;abs 0x396
     13e:	29 3d       	jmp	$+596    	;abs 0x392
     140:	40 73       	sbc.b	r0		
     142:	33 32       	jn	$-920    	;abs 0xfdaa
     144:	3b 72       	subc	#8,	r11	;r2 As==11
     146:	28 30       	jn	$+82     	;abs 0x198
     148:	2c 35       	jge	$+602    	;abs 0x3a2
     14a:	29 3b       	jl	$-428    	;abs 0xff9e
     14c:	30 30       	jn	$+98     	;abs 0x1ae
     14e:	30 30       	jn	$+98     	;abs 0x1b0
     150:	30 30       	jn	$+98     	;abs 0x1b2
     152:	30 30       	jn	$+98     	;abs 0x1b4
     154:	30 30       	jn	$+98     	;abs 0x1b6
     156:	30 30       	jn	$+98     	;abs 0x1b8
     158:	30 3b       	jl	$-414    	;abs 0xffba
     15a:	30 30       	jn	$+98     	;abs 0x1bc
     15c:	33 37       	jge	$-408    	;abs 0xffc4
     15e:	37 37       	jge	$-400    	;abs 0xffce
     160:	37 37       	jge	$-400    	;abs 0xffd0
     162:	37 37       	jge	$-400    	;abs 0xffd2
     164:	37 37       	jge	$-400    	;abs 0xffd4
     166:	37 3b       	jl	$-400    	;abs 0xffd6
     168:	00 6c       	addc	r12,	r0	
     16a:	6f 6e       	addc.b	@r14,	r15	
     16c:	67 20       	jnz	$+208    	;abs 0x23c
     16e:	6c 6f       	addc.b	@r15,	r12	
     170:	6e 67       	addc.b	@r7,	r14	
     172:	20 69       	addc	@r9,	r0	
     174:	6e 74       	subc.b	@r4,	r14	
     176:	3a 74       	subc	@r4+,	r10	
     178:	28 30       	jn	$+82     	;abs 0x1ca
     17a:	2c 36       	jge	$-934    	;abs 0xfdd4
     17c:	29 3d       	jmp	$+596    	;abs 0x3d0
     17e:	40 73       	sbc.b	r0		
     180:	36 34       	jge	$+110    	;abs 0x1ee
     182:	3b 72       	subc	#8,	r11	;r2 As==11
     184:	28 30       	jn	$+82     	;abs 0x1d6
     186:	2c 36       	jge	$-934    	;abs 0xfde0
     188:	29 3b       	jl	$-428    	;abs 0xffdc
     18a:	30 31       	jn	$+610    	;abs 0x3ec
     18c:	30 30       	jn	$+98     	;abs 0x1ee
     18e:	30 30       	jn	$+98     	;abs 0x1f0
     190:	30 30       	jn	$+98     	;abs 0x1f2
     192:	30 30       	jn	$+98     	;abs 0x1f4
     194:	30 30       	jn	$+98     	;abs 0x1f6
     196:	30 30       	jn	$+98     	;abs 0x1f8
     198:	30 30       	jn	$+98     	;abs 0x1fa
     19a:	30 30       	jn	$+98     	;abs 0x1fc
     19c:	30 30       	jn	$+98     	;abs 0x1fe
     19e:	30 30       	jn	$+98     	;abs 0x200
     1a0:	30 3b       	jl	$-414    	;abs 0x2
     1a2:	30 37       	jge	$-414    	;abs 0x4
     1a4:	37 37       	jge	$-400    	;abs 0x14
     1a6:	37 37       	jge	$-400    	;abs 0x16
     1a8:	37 37       	jge	$-400    	;abs 0x18
     1aa:	37 37       	jge	$-400    	;abs 0x1a
     1ac:	37 37       	jge	$-400    	;abs 0x1c
     1ae:	37 37       	jge	$-400    	;abs 0x1e
     1b0:	37 37       	jge	$-400    	;abs 0x20
     1b2:	37 37       	jge	$-400    	;abs 0x22
     1b4:	37 37       	jge	$-400    	;abs 0x24
     1b6:	37 37       	jge	$-400    	;abs 0x26
     1b8:	3b 00       	.word	0x003b;	????	
     1ba:	6c 6f       	addc.b	@r15,	r12	
     1bc:	6e 67       	addc.b	@r7,	r14	
     1be:	20 6c       	addc	@r12,	r0	
     1c0:	6f 6e       	addc.b	@r14,	r15	
     1c2:	67 20       	jnz	$+208    	;abs 0x292
     1c4:	75 6e       	addc.b	@r14+,	r5	
     1c6:	73 69       	.word	0x6973;	????	Illegal as 2-op instr
     1c8:	67 6e       	addc.b	@r14,	r7	
     1ca:	65 64       	addc.b	@r4,	r5	
     1cc:	20 69       	addc	@r9,	r0	
     1ce:	6e 74       	subc.b	@r4,	r14	
     1d0:	3a 74       	subc	@r4+,	r10	
     1d2:	28 30       	jn	$+82     	;abs 0x224
     1d4:	2c 37       	jge	$-422    	;abs 0x2e
     1d6:	29 3d       	jmp	$+596    	;abs 0x42a
     1d8:	40 73       	sbc.b	r0		
     1da:	36 34       	jge	$+110    	;abs 0x248
     1dc:	3b 72       	subc	#8,	r11	;r2 As==11
     1de:	28 30       	jn	$+82     	;abs 0x230
     1e0:	2c 37       	jge	$-422    	;abs 0x3a
     1e2:	29 3b       	jl	$-428    	;abs 0x36
     1e4:	30 30       	jn	$+98     	;abs 0x246
     1e6:	30 30       	jn	$+98     	;abs 0x248
     1e8:	30 30       	jn	$+98     	;abs 0x24a
     1ea:	30 30       	jn	$+98     	;abs 0x24c
     1ec:	30 30       	jn	$+98     	;abs 0x24e
     1ee:	30 30       	jn	$+98     	;abs 0x250
     1f0:	30 3b       	jl	$-414    	;abs 0x52
     1f2:	30 31       	jn	$+610    	;abs 0x454
     1f4:	37 37       	jge	$-400    	;abs 0x64
     1f6:	37 37       	jge	$-400    	;abs 0x66
     1f8:	37 37       	jge	$-400    	;abs 0x68
     1fa:	37 37       	jge	$-400    	;abs 0x6a
     1fc:	37 37       	jge	$-400    	;abs 0x6c
     1fe:	37 37       	jge	$-400    	;abs 0x6e
     200:	37 37       	jge	$-400    	;abs 0x70
     202:	37 37       	jge	$-400    	;abs 0x72
     204:	37 37       	jge	$-400    	;abs 0x74
     206:	37 37       	jge	$-400    	;abs 0x76
     208:	37 3b       	jl	$-400    	;abs 0x78
     20a:	00 73       	sbc	r0		
     20c:	68 6f       	addc.b	@r15,	r8	
     20e:	72 74       	subc.b	@r4+,	r2	
     210:	20 69       	addc	@r9,	r0	
     212:	6e 74       	subc.b	@r4,	r14	
     214:	3a 74       	subc	@r4+,	r10	
     216:	28 30       	jn	$+82     	;abs 0x268
     218:	2c 38       	jl	$+90     	;abs 0x272
     21a:	29 3d       	jmp	$+596    	;abs 0x46e
     21c:	72 28       	jnc	$+230    	;abs 0x302
     21e:	30 2c       	jc	$+98     	;abs 0x280
     220:	38 29       	jnc	$+626    	;abs 0x492
     222:	3b 2d       	jc	$+632    	;abs 0x49a
     224:	33 32       	jn	$-920    	;abs 0xfe8c
     226:	37 36       	jge	$-912    	;abs 0xfe96
     228:	38 3b       	jl	$-398    	;abs 0x9a
     22a:	33 32       	jn	$-920    	;abs 0xfe92
     22c:	37 36       	jge	$-912    	;abs 0xfe9c
     22e:	37 3b       	jl	$-400    	;abs 0x9e
     230:	00 73       	sbc	r0		
     232:	68 6f       	addc.b	@r15,	r8	
     234:	72 74       	subc.b	@r4+,	r2	
     236:	20 75       	subc	@r5,	r0	
     238:	6e 73       	subc.b	#2,	r14	;r3 As==10
     23a:	69 67       	addc.b	@r7,	r9	
     23c:	6e 65       	addc.b	@r5,	r14	
     23e:	64 20       	jnz	$+202    	;abs 0x308
     240:	69 6e       	addc.b	@r14,	r9	
     242:	74 3a       	jl	$-790    	;abs 0xff2c
     244:	74 28       	jnc	$+234    	;abs 0x32e
     246:	30 2c       	jc	$+98     	;abs 0x2a8
     248:	39 29       	jnc	$+628    	;abs 0x4bc
     24a:	3d 72       	subc	#8,	r13	;r2 As==11
     24c:	28 30       	jn	$+82     	;abs 0x29e
     24e:	2c 39       	jl	$+602    	;abs 0x4a8
     250:	29 3b       	jl	$-428    	;abs 0xa4
     252:	30 30       	jn	$+98     	;abs 0x2b4
     254:	30 30       	jn	$+98     	;abs 0x2b6
     256:	30 30       	jn	$+98     	;abs 0x2b8
     258:	30 30       	jn	$+98     	;abs 0x2ba
     25a:	30 30       	jn	$+98     	;abs 0x2bc
     25c:	30 30       	jn	$+98     	;abs 0x2be
     25e:	30 3b       	jl	$-414    	;abs 0xc0
     260:	30 30       	jn	$+98     	;abs 0x2c2
     262:	30 30       	jn	$+98     	;abs 0x2c4
     264:	30 30       	jn	$+98     	;abs 0x2c6
     266:	30 31       	jn	$+610    	;abs 0x4c8
     268:	37 37       	jge	$-400    	;abs 0xd8
     26a:	37 37       	jge	$-400    	;abs 0xda
     26c:	37 3b       	jl	$-400    	;abs 0xdc
     26e:	00 73       	sbc	r0		
     270:	69 67       	addc.b	@r7,	r9	
     272:	6e 65       	addc.b	@r5,	r14	
     274:	64 20       	jnz	$+202    	;abs 0x33e
     276:	63 68       	.word	0x6863;	????	Illegal as 2-op instr
     278:	61 72       	subc.b	#4,	r1	;r2 As==10
     27a:	3a 74       	subc	@r4+,	r10	
     27c:	28 30       	jn	$+82     	;abs 0x2ce
     27e:	2c 31       	jn	$+602    	;abs 0x4d8
     280:	30 29       	jnc	$+610    	;abs 0x4e2
     282:	3d 40 73 38 	mov	#14451,	r13	;#0x3873
     286:	3b 72       	subc	#8,	r11	;r2 As==11
     288:	28 30       	jn	$+82     	;abs 0x2da
     28a:	2c 31       	jn	$+602    	;abs 0x4e4
     28c:	30 29       	jnc	$+610    	;abs 0x4ee
     28e:	3b 2d       	jc	$+632    	;abs 0x506
     290:	31 32       	jn	$-924    	;abs 0xfef4
     292:	38 3b       	jl	$-398    	;abs 0x104
     294:	31 32       	jn	$-924    	;abs 0xfef8
     296:	37 3b       	jl	$-400    	;abs 0x106
     298:	00 75       	subc	r5,	r0	
     29a:	6e 73       	subc.b	#2,	r14	;r3 As==10
     29c:	69 67       	addc.b	@r7,	r9	
     29e:	6e 65       	addc.b	@r5,	r14	
     2a0:	64 20       	jnz	$+202    	;abs 0x36a
     2a2:	63 68       	.word	0x6863;	????	Illegal as 2-op instr
     2a4:	61 72       	subc.b	#4,	r1	;r2 As==10
     2a6:	3a 74       	subc	@r4+,	r10	
     2a8:	28 30       	jn	$+82     	;abs 0x2fa
     2aa:	2c 31       	jn	$+602    	;abs 0x504
     2ac:	31 29       	jnc	$+612    	;abs 0x510
     2ae:	3d 40 73 38 	mov	#14451,	r13	;#0x3873
     2b2:	3b 72       	subc	#8,	r11	;r2 As==11
     2b4:	28 30       	jn	$+82     	;abs 0x306
     2b6:	2c 31       	jn	$+602    	;abs 0x510
     2b8:	31 29       	jnc	$+612    	;abs 0x51c
     2ba:	3b 30       	jn	$+120    	;abs 0x332
     2bc:	3b 32       	jn	$-904    	;abs 0xff34
     2be:	35 35       	jge	$+620    	;abs 0x52a
     2c0:	3b 00       	.word	0x003b;	????	
     2c2:	66 6c       	addc.b	@r12,	r6	
     2c4:	6f 61       	addc.b	@r1,	r15	
     2c6:	74 3a       	jl	$-790    	;abs 0xffb0
     2c8:	74 28       	jnc	$+234    	;abs 0x3b2
     2ca:	30 2c       	jc	$+98     	;abs 0x32c
     2cc:	31 32       	jn	$-924    	;abs 0xff30
     2ce:	29 3d       	jmp	$+596    	;abs 0x522
     2d0:	72 28       	jnc	$+230    	;abs 0x3b6
     2d2:	30 2c       	jc	$+98     	;abs 0x334
     2d4:	31 29       	jnc	$+612    	;abs 0x538
     2d6:	3b 34       	jge	$+120    	;abs 0x34e
     2d8:	3b 30       	jn	$+120    	;abs 0x350
     2da:	3b 00       	.word	0x003b;	????	
     2dc:	64 6f       	addc.b	@r15,	r4	
     2de:	75 62       	addc.b	#8,	r5	;r2 As==11
     2e0:	6c 65       	addc.b	@r5,	r12	
     2e2:	3a 74       	subc	@r4+,	r10	
     2e4:	28 30       	jn	$+82     	;abs 0x336
     2e6:	2c 31       	jn	$+602    	;abs 0x540
     2e8:	33 29       	jnc	$+616    	;abs 0x550
     2ea:	3d 72       	subc	#8,	r13	;r2 As==11
     2ec:	28 30       	jn	$+82     	;abs 0x33e
     2ee:	2c 31       	jn	$+602    	;abs 0x548
     2f0:	29 3b       	jl	$-428    	;abs 0x144
     2f2:	34 3b       	jl	$-406    	;abs 0x15c
     2f4:	30 3b       	jl	$-414    	;abs 0x156
     2f6:	00 6c       	addc	r12,	r0	
     2f8:	6f 6e       	addc.b	@r14,	r15	
     2fa:	67 20       	jnz	$+208    	;abs 0x3ca
     2fc:	64 6f       	addc.b	@r15,	r4	
     2fe:	75 62       	addc.b	#8,	r5	;r2 As==11
     300:	6c 65       	addc.b	@r5,	r12	
     302:	3a 74       	subc	@r4+,	r10	
     304:	28 30       	jn	$+82     	;abs 0x356
     306:	2c 31       	jn	$+602    	;abs 0x560
     308:	34 29       	jnc	$+618    	;abs 0x572
     30a:	3d 72       	subc	#8,	r13	;r2 As==11
     30c:	28 30       	jn	$+82     	;abs 0x35e
     30e:	2c 31       	jn	$+602    	;abs 0x568
     310:	29 3b       	jl	$-428    	;abs 0x164
     312:	34 3b       	jl	$-406    	;abs 0x17c
     314:	30 3b       	jl	$-414    	;abs 0x176
     316:	00 63       	adc	r0		
     318:	6f 6d       	addc.b	@r13,	r15	
     31a:	70 6c       	addc.b	@r12+,	r0	
     31c:	65 78       	subc.b	@r8,	r5	
     31e:	20 69       	addc	@r9,	r0	
     320:	6e 74       	subc.b	@r4,	r14	
     322:	3a 74       	subc	@r4+,	r10	
     324:	28 30       	jn	$+82     	;abs 0x376
     326:	2c 31       	jn	$+602    	;abs 0x580
     328:	35 29       	jnc	$+620    	;abs 0x594
     32a:	3d 73       	subc	#-1,	r13	;r3 As==11
     32c:	34 72       	subc	#8,	r4	;r2 As==11
     32e:	65 61       	addc.b	@r1,	r5	
     330:	6c 3a       	jl	$-806    	;abs 0xa
     332:	28 30       	jn	$+82     	;abs 0x384
     334:	2c 31       	jn	$+602    	;abs 0x58e
     336:	29 2c       	jc	$+84     	;abs 0x38a
     338:	30 2c       	jc	$+98     	;abs 0x39a
     33a:	31 36       	jge	$-924    	;abs 0xff9e
     33c:	3b 69       	addc	@r9+,	r11	
     33e:	6d 61       	addc.b	@r1,	r13	
     340:	67 3a       	jl	$-816    	;abs 0x10
     342:	28 30       	jn	$+82     	;abs 0x394
     344:	2c 31       	jn	$+602    	;abs 0x59e
     346:	29 2c       	jc	$+84     	;abs 0x39a
     348:	31 36       	jge	$-924    	;abs 0xffac
     34a:	2c 31       	jn	$+602    	;abs 0x5a4
     34c:	36 3b       	jl	$-402    	;abs 0x1ba
     34e:	3b 00       	.word	0x003b;	????	
     350:	63 6f       	.word	0x6f63;	????	Illegal as 2-op instr
     352:	6d 70       	subc.b	@r0,	r13	
     354:	6c 65       	addc.b	@r5,	r12	
     356:	78 20       	jnz	$+242    	;abs 0x448
     358:	66 6c       	addc.b	@r12,	r6	
     35a:	6f 61       	addc.b	@r1,	r15	
     35c:	74 3a       	jl	$-790    	;abs 0x46
     35e:	74 28       	jnc	$+234    	;abs 0x448
     360:	30 2c       	jc	$+98     	;abs 0x3c2
     362:	31 36       	jge	$-924    	;abs 0xffc6
     364:	29 3d       	jmp	$+596    	;abs 0x5b8
     366:	52 33       	jn	$-346    	;abs 0x20c
     368:	3b 38       	jl	$+120    	;abs 0x3e0
     36a:	3b 30       	jn	$+120    	;abs 0x3e2
     36c:	3b 00       	.word	0x003b;	????	
     36e:	63 6f       	.word	0x6f63;	????	Illegal as 2-op instr
     370:	6d 70       	subc.b	@r0,	r13	
     372:	6c 65       	addc.b	@r5,	r12	
     374:	78 20       	jnz	$+242    	;abs 0x466
     376:	64 6f       	addc.b	@r15,	r4	
     378:	75 62       	addc.b	#8,	r5	;r2 As==11
     37a:	6c 65       	addc.b	@r5,	r12	
     37c:	3a 74       	subc	@r4+,	r10	
     37e:	28 30       	jn	$+82     	;abs 0x3d0
     380:	2c 31       	jn	$+602    	;abs 0x5da
     382:	37 29       	jnc	$+624    	;abs 0x5f2
     384:	3d 52       	add	#8,	r13	;r2 As==11
     386:	33 3b       	jl	$-408    	;abs 0x1ee
     388:	38 3b       	jl	$-398    	;abs 0x1fa
     38a:	30 3b       	jl	$-414    	;abs 0x1ec
     38c:	00 63       	adc	r0		
     38e:	6f 6d       	addc.b	@r13,	r15	
     390:	70 6c       	addc.b	@r12+,	r0	
     392:	65 78       	subc.b	@r8,	r5	
     394:	20 6c       	addc	@r12,	r0	
     396:	6f 6e       	addc.b	@r14,	r15	
     398:	67 20       	jnz	$+208    	;abs 0x468
     39a:	64 6f       	addc.b	@r15,	r4	
     39c:	75 62       	addc.b	#8,	r5	;r2 As==11
     39e:	6c 65       	addc.b	@r5,	r12	
     3a0:	3a 74       	subc	@r4+,	r10	
     3a2:	28 30       	jn	$+82     	;abs 0x3f4
     3a4:	2c 31       	jn	$+602    	;abs 0x5fe
     3a6:	38 29       	jnc	$+626    	;abs 0x618
     3a8:	3d 52       	add	#8,	r13	;r2 As==11
     3aa:	33 3b       	jl	$-408    	;abs 0x212
     3ac:	38 3b       	jl	$-398    	;abs 0x21e
     3ae:	30 3b       	jl	$-414    	;abs 0x210
     3b0:	00 5f       	add	r15,	r0	
     3b2:	5f 62 75 69 	addc.b	&0x6975,r15	
     3b6:	6c 74       	subc.b	@r4,	r12	
     3b8:	69 6e       	addc.b	@r14,	r9	
     3ba:	5f 76 61 5f 	subc.b	24417(r6),r15	;0x5f61(r6)
     3be:	6c 69       	addc.b	@r9,	r12	
     3c0:	73 74       	.word	0x7473;	????	Illegal as 2-op instr
     3c2:	3a 74       	subc	@r4+,	r10	
     3c4:	28 30       	jn	$+82     	;abs 0x416
     3c6:	2c 31       	jn	$+602    	;abs 0x620
     3c8:	39 29       	jnc	$+628    	;abs 0x63c
     3ca:	3d 2a       	jnc	$-900    	;abs 0x46
     3cc:	28 30       	jn	$+82     	;abs 0x41e
     3ce:	2c 32       	jn	$-934    	;abs 0x28
     3d0:	30 29       	jnc	$+610    	;abs 0x632
     3d2:	3d 28       	jnc	$+124    	;abs 0x44e
     3d4:	30 2c       	jc	$+98     	;abs 0x436
     3d6:	32 30       	jn	$+102    	;abs 0x43c
     3d8:	29 00       	.word	0x0029;	????	
     3da:	5f 42 6f 6f 	mov.b	&0x6f6f,r15	
     3de:	6c 3a       	jl	$-806    	;abs 0xb8
     3e0:	74 28       	jnc	$+234    	;abs 0x4ca
     3e2:	30 2c       	jc	$+98     	;abs 0x444
     3e4:	32 31       	jn	$+614    	;abs 0x64a
     3e6:	29 3d       	jmp	$+596    	;abs 0x63a
     3e8:	40 73       	sbc.b	r0		
     3ea:	38 3b       	jl	$-398    	;abs 0x25c
     3ec:	2d 31       	jn	$+604    	;abs 0x648
     3ee:	36 3b       	jl	$-402    	;abs 0x25c
     3f0:	00 6c       	addc	r12,	r0	
     3f2:	63 64       	.word	0x6463;	????	Illegal as 2-op instr
     3f4:	36 31       	jn	$+622    	;abs 0x662
     3f6:	30 30       	jn	$+98     	;abs 0x458
     3f8:	2e 68       	addc	@r8,	r14	
     3fa:	00 64       	addc	r4,	r0	
     3fc:	65 6c       	addc.b	@r12,	r5	
     3fe:	61 79       	subc.b	@r9,	r1	
     400:	2e 68       	addc	@r8,	r14	
     402:	00 74       	subc	r4,	r0	
     404:	69 6d       	addc.b	@r13,	r9	
     406:	65 72       	subc.b	#4,	r5	;r2 As==10
     408:	73 2e       	jc	$-792    	;abs 0xf0
     40a:	68 00       	.word	0x0068;	????	
     40c:	63 3a       	jl	$-824    	;abs 0xd4
     40e:	2f 6d       	addc	@r13,	r15	
     410:	73 70       	.word	0x7073;	????	Illegal as 2-op instr
     412:	67 63       	addc.b	#2,	r7	;r3 As==10
     414:	63 2f       	jc	$-312    	;abs 0x2dc
     416:	6d 73       	subc.b	#2,	r13	;r3 As==10
     418:	70 34       	jge	$+226    	;abs 0x4fa
     41a:	33 30       	jn	$+104    	;abs 0x482
     41c:	2f 69       	addc	@r9,	r15	
     41e:	6e 63       	addc.b	#2,	r14	;r3 As==10
     420:	6c 75       	subc.b	@r5,	r12	
     422:	64 65       	addc.b	@r5,	r4	
     424:	2f 6d       	addc	@r13,	r15	
     426:	73 70       	.word	0x7073;	????	Illegal as 2-op instr
     428:	34 33       	jn	$-406    	;abs 0x292
     42a:	30 78       	subc	@r8+,	r0	
     42c:	32 32       	jn	$-922    	;abs 0x92
     42e:	78 32       	jn	$-782    	;abs 0x120
     430:	2e 68       	addc	@r8,	r14	
     432:	00 63       	adc	r0		
     434:	3a 2f       	jc	$-394    	;abs 0x2aa
     436:	6d 73       	subc.b	#2,	r13	;r3 As==10
     438:	70 67       	addc.b	@r7+,	r0	
     43a:	63 63       	.word	0x6363;	????	Illegal as 2-op instr
     43c:	2f 6d       	addc	@r13,	r15	
     43e:	73 70       	.word	0x7073;	????	Illegal as 2-op instr
     440:	34 33       	jn	$-406    	;abs 0x2aa
     442:	30 2f       	jc	$-414    	;abs 0x2a4
     444:	69 6e       	addc.b	@r14,	r9	
     446:	63 6c       	.word	0x6c63;	????	Illegal as 2-op instr
     448:	75 64       	addc.b	@r4+,	r5	
     44a:	65 2f       	jc	$-308    	;abs 0x316
     44c:	69 6f       	addc.b	@r15,	r9	
     44e:	6d 61       	addc.b	@r1,	r13	
     450:	63 72       	.word	0x7263;	????	Illegal as 2-op instr
     452:	6f 73       	subc.b	#2,	r15	;r3 As==10
     454:	2e 68       	addc	@r8,	r14	
     456:	00 63       	adc	r0		
     458:	3a 2f       	jc	$-394    	;abs 0x2ce
     45a:	6d 73       	subc.b	#2,	r13	;r3 As==10
     45c:	70 67       	addc.b	@r7+,	r0	
     45e:	63 63       	.word	0x6363;	????	Illegal as 2-op instr
     460:	2f 6d       	addc	@r13,	r15	
     462:	73 70       	.word	0x7073;	????	Illegal as 2-op instr
     464:	34 33       	jn	$-406    	;abs 0x2ce
     466:	30 2f       	jc	$-414    	;abs 0x2c8
     468:	69 6e       	addc.b	@r14,	r9	
     46a:	63 6c       	.word	0x6c63;	????	Illegal as 2-op instr
     46c:	75 64       	addc.b	@r4+,	r5	
     46e:	65 2f       	jc	$-308    	;abs 0x33a
     470:	73 79       	.word	0x7973;	????	Illegal as 2-op instr
     472:	73 2f       	jc	$-280    	;abs 0x35a
     474:	69 6e       	addc.b	@r14,	r9	
     476:	74 74       	subc.b	@r4+,	r4	
     478:	79 70 65 73 	subc.b	#29541,	r9	;#0x7365
     47c:	2e 68       	addc	@r8,	r14	
     47e:	00 69       	addc	r9,	r0	
     480:	6e 74       	subc.b	@r4,	r14	
     482:	38 5f       	add	@r15+,	r8	
     484:	74 3a       	jl	$-790    	;abs 0x16e
     486:	74 28       	jnc	$+234    	;abs 0x570
     488:	37 2c       	jc	$+112    	;abs 0x4f8
     48a:	31 29       	jnc	$+612    	;abs 0x6ee
     48c:	3d 28       	jnc	$+124    	;abs 0x508
     48e:	30 2c       	jc	$+98     	;abs 0x4f0
     490:	31 30       	jn	$+100    	;abs 0x4f4
     492:	29 00       	.word	0x0029;	????	
     494:	75 69       	addc.b	@r9+,	r5	
     496:	6e 74       	subc.b	@r4,	r14	
     498:	38 5f       	add	@r15+,	r8	
     49a:	74 3a       	jl	$-790    	;abs 0x184
     49c:	74 28       	jnc	$+234    	;abs 0x586
     49e:	37 2c       	jc	$+112    	;abs 0x50e
     4a0:	32 29       	jnc	$+614    	;abs 0x706
     4a2:	3d 28       	jnc	$+124    	;abs 0x51e
     4a4:	30 2c       	jc	$+98     	;abs 0x506
     4a6:	31 31       	jn	$+612    	;abs 0x70a
     4a8:	29 00       	.word	0x0029;	????	
     4aa:	69 6e       	addc.b	@r14,	r9	
     4ac:	74 31       	jn	$+746    	;abs 0x796
     4ae:	36 5f       	add	@r15+,	r6	
     4b0:	74 3a       	jl	$-790    	;abs 0x19a
     4b2:	74 28       	jnc	$+234    	;abs 0x59c
     4b4:	37 2c       	jc	$+112    	;abs 0x524
     4b6:	33 29       	jnc	$+616    	;abs 0x71e
     4b8:	3d 28       	jnc	$+124    	;abs 0x534
     4ba:	30 2c       	jc	$+98     	;abs 0x51c
     4bc:	31 29       	jnc	$+612    	;abs 0x720
     4be:	00 75       	subc	r5,	r0	
     4c0:	69 6e       	addc.b	@r14,	r9	
     4c2:	74 31       	jn	$+746    	;abs 0x7ac
     4c4:	36 5f       	add	@r15+,	r6	
     4c6:	74 3a       	jl	$-790    	;abs 0x1b0
     4c8:	74 28       	jnc	$+234    	;abs 0x5b2
     4ca:	37 2c       	jc	$+112    	;abs 0x53a
     4cc:	34 29       	jnc	$+618    	;abs 0x736
     4ce:	3d 28       	jnc	$+124    	;abs 0x54a
     4d0:	30 2c       	jc	$+98     	;abs 0x532
     4d2:	34 29       	jnc	$+618    	;abs 0x73c
     4d4:	00 69       	addc	r9,	r0	
     4d6:	6e 74       	subc.b	@r4,	r14	
     4d8:	33 32       	jn	$-920    	;abs 0x140
     4da:	5f 74 3a 74 	subc.b	29754(r4),r15	;0x743a(r4)
     4de:	28 37       	jge	$-430    	;abs 0x330
     4e0:	2c 35       	jge	$+602    	;abs 0x73a
     4e2:	29 3d       	jmp	$+596    	;abs 0x736
     4e4:	28 30       	jn	$+82     	;abs 0x536
     4e6:	2c 33       	jn	$-422    	;abs 0x340
     4e8:	29 00       	.word	0x0029;	????	
     4ea:	75 69       	addc.b	@r9+,	r5	
     4ec:	6e 74       	subc.b	@r4,	r14	
     4ee:	33 32       	jn	$-920    	;abs 0x156
     4f0:	5f 74 3a 74 	subc.b	29754(r4),r15	;0x743a(r4)
     4f4:	28 37       	jge	$-430    	;abs 0x346
     4f6:	2c 36       	jge	$-934    	;abs 0x150
     4f8:	29 3d       	jmp	$+596    	;abs 0x74c
     4fa:	28 30       	jn	$+82     	;abs 0x54c
     4fc:	2c 35       	jge	$+602    	;abs 0x756
     4fe:	29 00       	.word	0x0029;	????	
     500:	69 6e       	addc.b	@r14,	r9	
     502:	74 36       	jge	$-790    	;abs 0x1ec
     504:	34 5f       	add	@r15+,	r4	
     506:	74 3a       	jl	$-790    	;abs 0x1f0
     508:	74 28       	jnc	$+234    	;abs 0x5f2
     50a:	37 2c       	jc	$+112    	;abs 0x57a
     50c:	37 29       	jnc	$+624    	;abs 0x77c
     50e:	3d 28       	jnc	$+124    	;abs 0x58a
     510:	30 2c       	jc	$+98     	;abs 0x572
     512:	36 29       	jnc	$+622    	;abs 0x780
     514:	00 75       	subc	r5,	r0	
     516:	69 6e       	addc.b	@r14,	r9	
     518:	74 36       	jge	$-790    	;abs 0x202
     51a:	34 5f       	add	@r15+,	r4	
     51c:	74 3a       	jl	$-790    	;abs 0x206
     51e:	74 28       	jnc	$+234    	;abs 0x608
     520:	37 2c       	jc	$+112    	;abs 0x590
     522:	38 29       	jnc	$+626    	;abs 0x794
     524:	3d 28       	jnc	$+124    	;abs 0x5a0
     526:	30 2c       	jc	$+98     	;abs 0x588
     528:	37 29       	jnc	$+624    	;abs 0x798
     52a:	00 69       	addc	r9,	r0	
     52c:	6e 74       	subc.b	@r4,	r14	
     52e:	70 74       	subc.b	@r4+,	r0	
     530:	72 5f       	add.b	@r15+,	r2	
     532:	74 3a       	jl	$-790    	;abs 0x21c
     534:	74 28       	jnc	$+234    	;abs 0x61e
     536:	37 2c       	jc	$+112    	;abs 0x5a6
     538:	39 29       	jnc	$+628    	;abs 0x7ac
     53a:	3d 28       	jnc	$+124    	;abs 0x5b6
     53c:	37 2c       	jc	$+112    	;abs 0x5ac
     53e:	33 29       	jnc	$+616    	;abs 0x7a6
     540:	00 75       	subc	r5,	r0	
     542:	69 6e       	addc.b	@r14,	r9	
     544:	74 70 74 72 	subc.b	#29300,	r4	;#0x7274
     548:	5f 74 3a 74 	subc.b	29754(r4),r15	;0x743a(r4)
     54c:	28 37       	jge	$-430    	;abs 0x39e
     54e:	2c 31       	jn	$+602    	;abs 0x7a8
     550:	30 29       	jnc	$+610    	;abs 0x7b2
     552:	3d 28       	jnc	$+124    	;abs 0x5ce
     554:	37 2c       	jc	$+112    	;abs 0x5c4
     556:	34 29       	jnc	$+618    	;abs 0x7c0
     558:	00 63       	adc	r0		
     55a:	3a 2f       	jc	$-394    	;abs 0x3d0
     55c:	6d 73       	subc.b	#2,	r13	;r3 As==10
     55e:	70 67       	addc.b	@r7+,	r0	
     560:	63 63       	.word	0x6363;	????	Illegal as 2-op instr
     562:	2f 6d       	addc	@r13,	r15	
     564:	73 70       	.word	0x7073;	????	Illegal as 2-op instr
     566:	34 33       	jn	$-406    	;abs 0x3d0
     568:	30 2f       	jc	$-414    	;abs 0x3ca
     56a:	69 6e       	addc.b	@r14,	r9	
     56c:	63 6c       	.word	0x6c63;	????	Illegal as 2-op instr
     56e:	75 64       	addc.b	@r4+,	r5	
     570:	65 2f       	jc	$-308    	;abs 0x43c
     572:	6d 73       	subc.b	#2,	r13	;r3 As==10
     574:	70 34       	jge	$+226    	;abs 0x656
     576:	33 30       	jn	$+104    	;abs 0x5de
     578:	2f 62       	addc	#4,	r15	;r2 As==10
     57a:	61 73       	subc.b	#2,	r1	;r3 As==10
     57c:	69 63       	addc.b	#2,	r9	;r3 As==10
     57e:	5f 63       	addc.b	#1,	r15	;r3 As==01
     580:	6c 6f       	addc.b	@r15,	r12	
     582:	63 6b       	.word	0x6b63;	????	Illegal as 2-op instr
     584:	2e 68       	addc	@r8,	r14	
     586:	00 63       	adc	r0		
     588:	3a 2f       	jc	$-394    	;abs 0x3fe
     58a:	6d 73       	subc.b	#2,	r13	;r3 As==10
     58c:	70 67       	addc.b	@r7+,	r0	
     58e:	63 63       	.word	0x6363;	????	Illegal as 2-op instr
     590:	2f 6d       	addc	@r13,	r15	
     592:	73 70       	.word	0x7073;	????	Illegal as 2-op instr
     594:	34 33       	jn	$-406    	;abs 0x3fe
     596:	30 2f       	jc	$-414    	;abs 0x3f8
     598:	69 6e       	addc.b	@r14,	r9	
     59a:	63 6c       	.word	0x6c63;	????	Illegal as 2-op instr
     59c:	75 64       	addc.b	@r4+,	r5	
     59e:	65 2f       	jc	$-308    	;abs 0x46a
     5a0:	6d 73       	subc.b	#2,	r13	;r3 As==10
     5a2:	70 34       	jge	$+226    	;abs 0x684
     5a4:	33 30       	jn	$+104    	;abs 0x60c
     5a6:	2f 66       	addc	@r6,	r15	
     5a8:	6c 61       	addc.b	@r1,	r12	
     5aa:	73 68       	.word	0x6873;	????	Illegal as 2-op instr
     5ac:	2e 68       	addc	@r8,	r14	
     5ae:	00 63       	adc	r0		
     5b0:	3a 2f       	jc	$-394    	;abs 0x426
     5b2:	6d 73       	subc.b	#2,	r13	;r3 As==10
     5b4:	70 67       	addc.b	@r7+,	r0	
     5b6:	63 63       	.word	0x6363;	????	Illegal as 2-op instr
     5b8:	2f 6d       	addc	@r13,	r15	
     5ba:	73 70       	.word	0x7073;	????	Illegal as 2-op instr
     5bc:	34 33       	jn	$-406    	;abs 0x426
     5be:	30 2f       	jc	$-414    	;abs 0x420
     5c0:	69 6e       	addc.b	@r14,	r9	
     5c2:	63 6c       	.word	0x6c63;	????	Illegal as 2-op instr
     5c4:	75 64       	addc.b	@r4+,	r5	
     5c6:	65 2f       	jc	$-308    	;abs 0x492
     5c8:	6d 73       	subc.b	#2,	r13	;r3 As==10
     5ca:	70 34       	jge	$+226    	;abs 0x6ac
     5cc:	33 30       	jn	$+104    	;abs 0x634
     5ce:	2f 65       	addc	@r5,	r15	
     5d0:	70 72       	subc.b	#8,	r0	;r2 As==11
     5d2:	6f 6d       	addc.b	@r13,	r15	
     5d4:	2e 68       	addc	@r8,	r14	
     5d6:	00 63       	adc	r0		
     5d8:	3a 2f       	jc	$-394    	;abs 0x44e
     5da:	6d 73       	subc.b	#2,	r13	;r3 As==10
     5dc:	70 67       	addc.b	@r7+,	r0	
     5de:	63 63       	.word	0x6363;	????	Illegal as 2-op instr
     5e0:	2f 6d       	addc	@r13,	r15	
     5e2:	73 70       	.word	0x7073;	????	Illegal as 2-op instr
     5e4:	34 33       	jn	$-406    	;abs 0x44e
     5e6:	30 2f       	jc	$-414    	;abs 0x448
     5e8:	69 6e       	addc.b	@r14,	r9	
     5ea:	63 6c       	.word	0x6c63;	????	Illegal as 2-op instr
     5ec:	75 64       	addc.b	@r4+,	r5	
     5ee:	65 2f       	jc	$-308    	;abs 0x4ba
     5f0:	6d 73       	subc.b	#2,	r13	;r3 As==10
     5f2:	70 34       	jge	$+226    	;abs 0x6d4
     5f4:	33 30       	jn	$+104    	;abs 0x65c
     5f6:	2f 74       	subc	@r4,	r15	
     5f8:	69 6d       	addc.b	@r13,	r9	
     5fa:	65 72       	subc.b	#4,	r5	;r2 As==10
     5fc:	61 2e       	jc	$-828    	;abs 0x2c0
     5fe:	68 00       	.word	0x0068;	????	
     600:	74 61       	addc.b	@r1+,	r4	
     602:	63 74       	.word	0x7463;	????	Illegal as 2-op instr
     604:	6c 5f       	add.b	@r15,	r12	
     606:	74 3a       	jl	$-790    	;abs 0x2f0
     608:	74 28       	jnc	$+234    	;abs 0x6f2
     60a:	31 31       	jn	$+612    	;abs 0x86e
     60c:	2c 31       	jn	$+602    	;abs 0x866
     60e:	29 3d       	jmp	$+596    	;abs 0x862
     610:	28 31       	jn	$+594    	;abs 0x862
     612:	31 2c       	jc	$+100    	;abs 0x676
     614:	32 29       	jnc	$+614    	;abs 0x87a
     616:	3d 73       	subc	#-1,	r13	;r3 As==11
     618:	32 74       	subc	@r4+,	r2	
     61a:	61 69       	addc.b	@r9,	r1	
     61c:	66 67       	addc.b	@r7,	r6	
     61e:	3a 28       	jnc	$+118    	;abs 0x694
     620:	30 2c       	jc	$+98     	;abs 0x682
     622:	34 29       	jnc	$+618    	;abs 0x88c
     624:	2c 30       	jn	$+90     	;abs 0x67e
     626:	2c 31       	jn	$+602    	;abs 0x880
     628:	3b 74       	subc	@r4+,	r11	
     62a:	61 69       	addc.b	@r9,	r1	
     62c:	65 3a       	jl	$-820    	;abs 0x2f8
     62e:	28 30       	jn	$+82     	;abs 0x680
     630:	2c 34       	jge	$+90     	;abs 0x68a
     632:	29 2c       	jc	$+84     	;abs 0x686
     634:	31 2c       	jc	$+100    	;abs 0x698
     636:	31 3b       	jl	$-412    	;abs 0x49a
     638:	74 61       	addc.b	@r1+,	r4	
     63a:	63 6c       	.word	0x6c63;	????	Illegal as 2-op instr
     63c:	72 3a       	jl	$-794    	;abs 0x322
     63e:	28 30       	jn	$+82     	;abs 0x690
     640:	2c 34       	jge	$+90     	;abs 0x69a
     642:	29 2c       	jc	$+84     	;abs 0x696
     644:	32 2c       	jc	$+102    	;abs 0x6aa
     646:	31 3b       	jl	$-412    	;abs 0x4aa
     648:	64 75       	subc.b	@r5,	r4	
     64a:	6d 6d       	addc.b	@r13,	r13	
     64c:	79 3a       	jl	$-780    	;abs 0x340
     64e:	28 30       	jn	$+82     	;abs 0x6a0
     650:	2c 34       	jge	$+90     	;abs 0x6aa
     652:	29 2c       	jc	$+84     	;abs 0x6a6
     654:	33 2c       	jc	$+104    	;abs 0x6bc
     656:	31 3b       	jl	$-412    	;abs 0x4ba
     658:	74 61       	addc.b	@r1+,	r4	
     65a:	6d 63       	addc.b	#2,	r13	;r3 As==10
     65c:	3a 28       	jnc	$+118    	;abs 0x6d2
     65e:	30 2c       	jc	$+98     	;abs 0x6c0
     660:	34 29       	jnc	$+618    	;abs 0x8ca
     662:	2c 34       	jge	$+90     	;abs 0x6bc
     664:	2c 32       	jn	$-934    	;abs 0x2be
     666:	3b 74       	subc	@r4+,	r11	
     668:	61 69       	addc.b	@r9,	r1	
     66a:	64 3a       	jl	$-822    	;abs 0x334
     66c:	28 30       	jn	$+82     	;abs 0x6be
     66e:	2c 34       	jge	$+90     	;abs 0x6c8
     670:	29 2c       	jc	$+84     	;abs 0x6c4
     672:	36 2c       	jc	$+110    	;abs 0x6e0
     674:	32 3b       	jl	$-410    	;abs 0x4da
     676:	74 61       	addc.b	@r1+,	r4	
     678:	73 73       	.word	0x7373;	????	Illegal as 2-op instr
     67a:	65 6c       	addc.b	@r12,	r5	
     67c:	3a 28       	jnc	$+118    	;abs 0x6f2
     67e:	30 2c       	jc	$+98     	;abs 0x6e0
     680:	34 29       	jnc	$+618    	;abs 0x8ea
     682:	2c 38       	jl	$+90     	;abs 0x6dc
     684:	2c 32       	jn	$-934    	;abs 0x2de
     686:	3b 3b       	jl	$-392    	;abs 0x4fe
     688:	00 74       	subc	r4,	r0	
     68a:	61 63       	addc.b	#2,	r1	;r3 As==10
     68c:	63 74       	.word	0x7463;	????	Illegal as 2-op instr
     68e:	6c 5f       	add.b	@r15,	r12	
     690:	74 3a       	jl	$-790    	;abs 0x37a
     692:	74 28       	jnc	$+234    	;abs 0x77c
     694:	31 31       	jn	$+612    	;abs 0x8f8
     696:	2c 33       	jn	$-422    	;abs 0x4f0
     698:	29 3d       	jmp	$+596    	;abs 0x8ec
     69a:	28 31       	jn	$+594    	;abs 0x8ec
     69c:	31 2c       	jc	$+100    	;abs 0x700
     69e:	34 29       	jnc	$+618    	;abs 0x908
     6a0:	3d 73       	subc	#-1,	r13	;r3 As==11
     6a2:	32 63       	addc	#-1,	r2	;r3 As==11
     6a4:	63 69       	.word	0x6963;	????	Illegal as 2-op instr
     6a6:	66 67       	addc.b	@r7,	r6	
     6a8:	3a 28       	jnc	$+118    	;abs 0x71e
     6aa:	30 2c       	jc	$+98     	;abs 0x70c
     6ac:	34 29       	jnc	$+618    	;abs 0x916
     6ae:	2c 30       	jn	$+90     	;abs 0x708
     6b0:	2c 31       	jn	$+602    	;abs 0x90a
     6b2:	3b 63       	addc	#-1,	r11	;r3 As==11
     6b4:	6f 76       	subc.b	@r6,	r15	
     6b6:	3a 28       	jnc	$+118    	;abs 0x72c
     6b8:	30 2c       	jc	$+98     	;abs 0x71a
     6ba:	34 29       	jnc	$+618    	;abs 0x924
     6bc:	2c 31       	jn	$+602    	;abs 0x916
     6be:	2c 31       	jn	$+602    	;abs 0x918
     6c0:	3b 6f       	addc	@r15+,	r11	
     6c2:	75 74       	subc.b	@r4+,	r5	
     6c4:	3a 28       	jnc	$+118    	;abs 0x73a
     6c6:	30 2c       	jc	$+98     	;abs 0x728
     6c8:	34 29       	jnc	$+618    	;abs 0x932
     6ca:	2c 32       	jn	$-934    	;abs 0x324
     6cc:	2c 31       	jn	$+602    	;abs 0x926
     6ce:	3b 63       	addc	#-1,	r11	;r3 As==11
     6d0:	63 69       	.word	0x6963;	????	Illegal as 2-op instr
     6d2:	3a 28       	jnc	$+118    	;abs 0x748
     6d4:	30 2c       	jc	$+98     	;abs 0x736
     6d6:	34 29       	jnc	$+618    	;abs 0x940
     6d8:	2c 33       	jn	$-422    	;abs 0x532
     6da:	2c 31       	jn	$+602    	;abs 0x934
     6dc:	3b 63       	addc	#-1,	r11	;r3 As==11
     6de:	63 69       	.word	0x6963;	????	Illegal as 2-op instr
     6e0:	65 3a       	jl	$-820    	;abs 0x3ac
     6e2:	28 30       	jn	$+82     	;abs 0x734
     6e4:	2c 34       	jge	$+90     	;abs 0x73e
     6e6:	29 2c       	jc	$+84     	;abs 0x73a
     6e8:	34 2c       	jc	$+106    	;abs 0x752
     6ea:	31 3b       	jl	$-412    	;abs 0x54e
     6ec:	6f 75       	subc.b	@r5,	r15	
     6ee:	74 6d       	addc.b	@r13+,	r4	
     6f0:	6f 64       	addc.b	@r4,	r15	
     6f2:	3a 28       	jnc	$+118    	;abs 0x768
     6f4:	30 2c       	jc	$+98     	;abs 0x756
     6f6:	34 29       	jnc	$+618    	;abs 0x960
     6f8:	2c 35       	jge	$+602    	;abs 0x952
     6fa:	2c 33       	jn	$-422    	;abs 0x554
     6fc:	3b 63       	addc	#-1,	r11	;r3 As==11
     6fe:	61 70       	subc.b	@r0,	r1	
     700:	3a 28       	jnc	$+118    	;abs 0x776
     702:	30 2c       	jc	$+98     	;abs 0x764
     704:	34 29       	jnc	$+618    	;abs 0x96e
     706:	2c 38       	jl	$+90     	;abs 0x760
     708:	2c 31       	jn	$+602    	;abs 0x962
     70a:	3b 64       	addc	@r4+,	r11	
     70c:	75 6d       	addc.b	@r13+,	r5	
     70e:	6d 79       	subc.b	@r9,	r13	
     710:	3a 28       	jnc	$+118    	;abs 0x786
     712:	30 2c       	jc	$+98     	;abs 0x774
     714:	34 29       	jnc	$+618    	;abs 0x97e
     716:	2c 39       	jl	$+602    	;abs 0x970
     718:	2c 31       	jn	$+602    	;abs 0x972
     71a:	3b 73       	subc	#-1,	r11	;r3 As==11
     71c:	63 63       	.word	0x6363;	????	Illegal as 2-op instr
     71e:	69 3a       	jl	$-812    	;abs 0x3f2
     720:	28 30       	jn	$+82     	;abs 0x772
     722:	2c 34       	jge	$+90     	;abs 0x77c
     724:	29 2c       	jc	$+84     	;abs 0x778
     726:	31 30       	jn	$+100    	;abs 0x78a
     728:	2c 31       	jn	$+602    	;abs 0x982
     72a:	3b 73       	subc	#-1,	r11	;r3 As==11
     72c:	63 73       	.word	0x7363;	????	Illegal as 2-op instr
     72e:	3a 28       	jnc	$+118    	;abs 0x7a4
     730:	30 2c       	jc	$+98     	;abs 0x792
     732:	34 29       	jnc	$+618    	;abs 0x99c
     734:	2c 31       	jn	$+602    	;abs 0x98e
     736:	31 2c       	jc	$+100    	;abs 0x79a
     738:	31 3b       	jl	$-412    	;abs 0x59c
     73a:	63 63       	.word	0x6363;	????	Illegal as 2-op instr
     73c:	69 73       	subc.b	#2,	r9	;r3 As==10
     73e:	3a 28       	jnc	$+118    	;abs 0x7b4
     740:	30 2c       	jc	$+98     	;abs 0x7a2
     742:	34 29       	jnc	$+618    	;abs 0x9ac
     744:	2c 31       	jn	$+602    	;abs 0x99e
     746:	32 2c       	jc	$+102    	;abs 0x7ac
     748:	32 3b       	jl	$-410    	;abs 0x5ae
     74a:	63 6d       	.word	0x6d63;	????	Illegal as 2-op instr
     74c:	3a 28       	jnc	$+118    	;abs 0x7c2
     74e:	30 2c       	jc	$+98     	;abs 0x7b0
     750:	34 29       	jnc	$+618    	;abs 0x9ba
     752:	2c 31       	jn	$+602    	;abs 0x9ac
     754:	34 2c       	jc	$+106    	;abs 0x7be
     756:	32 3b       	jl	$-410    	;abs 0x5bc
     758:	3b 00       	.word	0x003b;	????	
     75a:	74 69       	addc.b	@r9+,	r4	
     75c:	6d 65       	addc.b	@r5,	r13	
     75e:	72 61       	addc.b	@r1+,	r2	
     760:	5f 74 3a 54 	subc.b	21562(r4),r15	;0x543a(r4)
     764:	28 31       	jn	$+594    	;abs 0x9b6
     766:	31 2c       	jc	$+100    	;abs 0x7ca
     768:	35 29       	jnc	$+620    	;abs 0x9d4
     76a:	3d 73       	subc	#-1,	r13	;r3 As==11
     76c:	32 34       	jge	$+102    	;abs 0x7d2
     76e:	63 74       	.word	0x7463;	????	Illegal as 2-op instr
     770:	6c 3a       	jl	$-806    	;abs 0x44a
     772:	28 31       	jn	$+594    	;abs 0x9c4
     774:	31 2c       	jc	$+100    	;abs 0x7d8
     776:	31 29       	jnc	$+612    	;abs 0x9da
     778:	2c 30       	jn	$+90     	;abs 0x7d2
     77a:	2c 31       	jn	$+602    	;abs 0x9d4
     77c:	36 3b       	jl	$-402    	;abs 0x5ea
     77e:	63 63       	.word	0x6363;	????	Illegal as 2-op instr
     780:	74 6c       	addc.b	@r12+,	r4	
     782:	30 3a       	jl	$-926    	;abs 0x3e4
     784:	28 31       	jn	$+594    	;abs 0x9d6
     786:	31 2c       	jc	$+100    	;abs 0x7ea
     788:	33 29       	jnc	$+616    	;abs 0x9f0
     78a:	2c 31       	jn	$+602    	;abs 0x9e4
     78c:	36 2c       	jc	$+110    	;abs 0x7fa
     78e:	31 36       	jge	$-924    	;abs 0x3f2
     790:	3b 63       	addc	#-1,	r11	;r3 As==11
     792:	63 74       	.word	0x7463;	????	Illegal as 2-op instr
     794:	6c 31       	jn	$+730    	;abs 0xa6e
     796:	3a 28       	jnc	$+118    	;abs 0x80c
     798:	31 31       	jn	$+612    	;abs 0x9fc
     79a:	2c 33       	jn	$-422    	;abs 0x5f4
     79c:	29 2c       	jc	$+84     	;abs 0x7f0
     79e:	33 32       	jn	$-920    	;abs 0x406
     7a0:	2c 31       	jn	$+602    	;abs 0x9fa
     7a2:	36 3b       	jl	$-402    	;abs 0x610
     7a4:	63 63       	.word	0x6363;	????	Illegal as 2-op instr
     7a6:	74 6c       	addc.b	@r12+,	r4	
     7a8:	32 3a       	jl	$-922    	;abs 0x40e
     7aa:	28 31       	jn	$+594    	;abs 0x9fc
     7ac:	31 2c       	jc	$+100    	;abs 0x810
     7ae:	33 29       	jnc	$+616    	;abs 0xa16
     7b0:	2c 34       	jge	$+90     	;abs 0x80a
     7b2:	38 2c       	jc	$+114    	;abs 0x824
     7b4:	31 36       	jge	$-924    	;abs 0x418
     7b6:	3b 64       	addc	@r4+,	r11	
     7b8:	75 6d       	addc.b	@r13+,	r5	
     7ba:	6d 79       	subc.b	@r9,	r13	
     7bc:	32 3a       	jl	$-922    	;abs 0x422
     7be:	28 31       	jn	$+594    	;abs 0xa10
     7c0:	31 2c       	jc	$+100    	;abs 0x824
     7c2:	36 29       	jnc	$+622    	;abs 0xa30
     7c4:	3d 61       	addc	@r1+,	r13	
     7c6:	72 28       	jnc	$+230    	;abs 0x8ac
     7c8:	31 31       	jn	$+612    	;abs 0xa2c
     7ca:	2c 37       	jge	$-422    	;abs 0x624
     7cc:	29 3d       	jmp	$+596    	;abs 0xa20
     7ce:	72 28       	jnc	$+230    	;abs 0x8b4
     7d0:	31 31       	jn	$+612    	;abs 0xa34
     7d2:	2c 37       	jge	$-422    	;abs 0x62c
     7d4:	29 3b       	jl	$-428    	;abs 0x628
     7d6:	30 30       	jn	$+98     	;abs 0x838
     7d8:	30 30       	jn	$+98     	;abs 0x83a
     7da:	30 30       	jn	$+98     	;abs 0x83c
     7dc:	30 30       	jn	$+98     	;abs 0x83e
     7de:	30 30       	jn	$+98     	;abs 0x840
     7e0:	30 30       	jn	$+98     	;abs 0x842
     7e2:	30 3b       	jl	$-414    	;abs 0x644
     7e4:	30 30       	jn	$+98     	;abs 0x846
     7e6:	30 30       	jn	$+98     	;abs 0x848
     7e8:	30 30       	jn	$+98     	;abs 0x84a
     7ea:	30 31       	jn	$+610    	;abs 0xa4c
     7ec:	37 37       	jge	$-400    	;abs 0x65c
     7ee:	37 37       	jge	$-400    	;abs 0x65e
     7f0:	37 3b       	jl	$-400    	;abs 0x660
     7f2:	3b 30       	jn	$+120    	;abs 0x86a
     7f4:	3b 33       	jn	$-392    	;abs 0x66c
     7f6:	3b 28       	jnc	$+120    	;abs 0x86e
     7f8:	31 31       	jn	$+612    	;abs 0xa5c
     7fa:	2c 38       	jl	$+90     	;abs 0x854
     7fc:	29 3d       	jmp	$+596    	;abs 0xa50
     7fe:	42 28       	jnc	$+134    	;abs 0x884
     800:	30 2c       	jc	$+98     	;abs 0x862
     802:	34 29       	jnc	$+618    	;abs 0xa6c
     804:	2c 36       	jge	$-934    	;abs 0x45e
     806:	34 2c       	jc	$+106    	;abs 0x870
     808:	36 34       	jge	$+110    	;abs 0x876
     80a:	3b 74       	subc	@r4+,	r11	
     80c:	61 72       	subc.b	#4,	r1	;r2 As==10
     80e:	3a 28       	jnc	$+118    	;abs 0x884
     810:	30 2c       	jc	$+98     	;abs 0x872
     812:	34 29       	jnc	$+618    	;abs 0xa7c
     814:	2c 31       	jn	$+602    	;abs 0xa6e
     816:	32 38       	jl	$+102    	;abs 0x87c
     818:	2c 31       	jn	$+602    	;abs 0xa72
     81a:	36 3b       	jl	$-402    	;abs 0x688
     81c:	74 61       	addc.b	@r1+,	r4	
     81e:	63 63       	.word	0x6363;	????	Illegal as 2-op instr
     820:	72 30       	jn	$+230    	;abs 0x906
     822:	3a 28       	jnc	$+118    	;abs 0x898
     824:	30 2c       	jc	$+98     	;abs 0x886
     826:	34 29       	jnc	$+618    	;abs 0xa90
     828:	2c 31       	jn	$+602    	;abs 0xa82
     82a:	34 34       	jge	$+106    	;abs 0x894
     82c:	2c 31       	jn	$+602    	;abs 0xa86
     82e:	36 3b       	jl	$-402    	;abs 0x69c
     830:	74 61       	addc.b	@r1+,	r4	
     832:	63 63       	.word	0x6363;	????	Illegal as 2-op instr
     834:	72 31       	jn	$+742    	;abs 0xb1a
     836:	3a 28       	jnc	$+118    	;abs 0x8ac
     838:	30 2c       	jc	$+98     	;abs 0x89a
     83a:	34 29       	jnc	$+618    	;abs 0xaa4
     83c:	2c 31       	jn	$+602    	;abs 0xa96
     83e:	36 30       	jn	$+110    	;abs 0x8ac
     840:	2c 31       	jn	$+602    	;abs 0xa9a
     842:	36 3b       	jl	$-402    	;abs 0x6b0
     844:	74 61       	addc.b	@r1+,	r4	
     846:	63 63       	.word	0x6363;	????	Illegal as 2-op instr
     848:	72 32       	jn	$-794    	;abs 0x52e
     84a:	3a 28       	jnc	$+118    	;abs 0x8c0
     84c:	30 2c       	jc	$+98     	;abs 0x8ae
     84e:	34 29       	jnc	$+618    	;abs 0xab8
     850:	2c 31       	jn	$+602    	;abs 0xaaa
     852:	37 36       	jge	$-912    	;abs 0x4c2
     854:	2c 31       	jn	$+602    	;abs 0xaae
     856:	36 3b       	jl	$-402    	;abs 0x6c4
     858:	3b 00       	.word	0x003b;	????	
     85a:	63 3a       	jl	$-824    	;abs 0x522
     85c:	2f 6d       	addc	@r13,	r15	
     85e:	73 70       	.word	0x7073;	????	Illegal as 2-op instr
     860:	67 63       	addc.b	#2,	r7	;r3 As==10
     862:	63 2f       	jc	$-312    	;abs 0x72a
     864:	6d 73       	subc.b	#2,	r13	;r3 As==10
     866:	70 34       	jge	$+226    	;abs 0x948
     868:	33 30       	jn	$+104    	;abs 0x8d0
     86a:	2f 69       	addc	@r9,	r15	
     86c:	6e 63       	addc.b	#2,	r14	;r3 As==10
     86e:	6c 75       	subc.b	@r5,	r12	
     870:	64 65       	addc.b	@r5,	r4	
     872:	2f 6d       	addc	@r13,	r15	
     874:	73 70       	.word	0x7073;	????	Illegal as 2-op instr
     876:	34 33       	jn	$-406    	;abs 0x6e0
     878:	30 2f       	jc	$-414    	;abs 0x6da
     87a:	74 69       	addc.b	@r9+,	r4	
     87c:	6d 65       	addc.b	@r5,	r13	
     87e:	72 62       	addc.b	#8,	r2	;r2 As==11
     880:	2e 68       	addc	@r8,	r14	
     882:	00 74       	subc	r4,	r0	
     884:	62 63       	addc.b	#2,	r2	;r3 As==10
     886:	74 6c       	addc.b	@r12+,	r4	
     888:	5f 74 3a 74 	subc.b	29754(r4),r15	;0x743a(r4)
     88c:	28 31       	jn	$+594    	;abs 0xade
     88e:	32 2c       	jc	$+102    	;abs 0x8f4
     890:	31 29       	jnc	$+612    	;abs 0xaf4
     892:	3d 28       	jnc	$+124    	;abs 0x90e
     894:	31 32       	jn	$-924    	;abs 0x4f8
     896:	2c 32       	jn	$-934    	;abs 0x4f0
     898:	29 3d       	jmp	$+596    	;abs 0xaec
     89a:	73 32       	jn	$-792    	;abs 0x582
     89c:	74 62       	addc.b	#8,	r4	;r2 As==11
     89e:	69 66       	addc.b	@r6,	r9	
     8a0:	67 3a       	jl	$-816    	;abs 0x570
     8a2:	28 30       	jn	$+82     	;abs 0x8f4
     8a4:	2c 34       	jge	$+90     	;abs 0x8fe
     8a6:	29 2c       	jc	$+84     	;abs 0x8fa
     8a8:	30 2c       	jc	$+98     	;abs 0x90a
     8aa:	31 3b       	jl	$-412    	;abs 0x70e
     8ac:	74 62       	addc.b	#8,	r4	;r2 As==11
     8ae:	69 65       	addc.b	@r5,	r9	
     8b0:	3a 28       	jnc	$+118    	;abs 0x926
     8b2:	30 2c       	jc	$+98     	;abs 0x914
     8b4:	34 29       	jnc	$+618    	;abs 0xb1e
     8b6:	2c 31       	jn	$+602    	;abs 0xb10
     8b8:	2c 31       	jn	$+602    	;abs 0xb12
     8ba:	3b 74       	subc	@r4+,	r11	
     8bc:	62 63       	addc.b	#2,	r2	;r3 As==10
     8be:	6c 72       	subc.b	#4,	r12	;r2 As==10
     8c0:	3a 28       	jnc	$+118    	;abs 0x936
     8c2:	30 2c       	jc	$+98     	;abs 0x924
     8c4:	34 29       	jnc	$+618    	;abs 0xb2e
     8c6:	2c 32       	jn	$-934    	;abs 0x520
     8c8:	2c 31       	jn	$+602    	;abs 0xb22
     8ca:	3b 64       	addc	@r4+,	r11	
     8cc:	75 6d       	addc.b	@r13+,	r5	
     8ce:	6d 79       	subc.b	@r9,	r13	
     8d0:	31 3a       	jl	$-924    	;abs 0x534
     8d2:	28 30       	jn	$+82     	;abs 0x924
     8d4:	2c 34       	jge	$+90     	;abs 0x92e
     8d6:	29 2c       	jc	$+84     	;abs 0x92a
     8d8:	33 2c       	jc	$+104    	;abs 0x940
     8da:	31 3b       	jl	$-412    	;abs 0x73e
     8dc:	74 62       	addc.b	#8,	r4	;r2 As==11
     8de:	6d 63       	addc.b	#2,	r13	;r3 As==10
     8e0:	3a 28       	jnc	$+118    	;abs 0x956
     8e2:	30 2c       	jc	$+98     	;abs 0x944
     8e4:	34 29       	jnc	$+618    	;abs 0xb4e
     8e6:	2c 34       	jge	$+90     	;abs 0x940
     8e8:	2c 32       	jn	$-934    	;abs 0x542
     8ea:	3b 74       	subc	@r4+,	r11	
     8ec:	62 69       	addc.b	@r9,	r2	
     8ee:	64 3a       	jl	$-822    	;abs 0x5b8
     8f0:	28 30       	jn	$+82     	;abs 0x942
     8f2:	2c 34       	jge	$+90     	;abs 0x94c
     8f4:	29 2c       	jc	$+84     	;abs 0x948
     8f6:	36 2c       	jc	$+110    	;abs 0x964
     8f8:	32 3b       	jl	$-410    	;abs 0x75e
     8fa:	74 62       	addc.b	#8,	r4	;r2 As==11
     8fc:	73 73       	.word	0x7373;	????	Illegal as 2-op instr
     8fe:	65 6c       	addc.b	@r12,	r5	
     900:	3a 28       	jnc	$+118    	;abs 0x976
     902:	30 2c       	jc	$+98     	;abs 0x964
     904:	34 29       	jnc	$+618    	;abs 0xb6e
     906:	2c 38       	jl	$+90     	;abs 0x960
     908:	2c 32       	jn	$-934    	;abs 0x562
     90a:	3b 64       	addc	@r4+,	r11	
     90c:	75 6d       	addc.b	@r13+,	r5	
     90e:	6d 79       	subc.b	@r9,	r13	
     910:	32 3a       	jl	$-922    	;abs 0x576
     912:	28 30       	jn	$+82     	;abs 0x964
     914:	2c 34       	jge	$+90     	;abs 0x96e
     916:	29 2c       	jc	$+84     	;abs 0x96a
     918:	31 30       	jn	$+100    	;abs 0x97c
     91a:	2c 31       	jn	$+602    	;abs 0xb74
     91c:	3b 74       	subc	@r4+,	r11	
     91e:	62 63       	addc.b	#2,	r2	;r3 As==10
     920:	6e 74       	subc.b	@r4,	r14	
     922:	6c 3a       	jl	$-806    	;abs 0x5fc
     924:	28 30       	jn	$+82     	;abs 0x976
     926:	2c 34       	jge	$+90     	;abs 0x980
     928:	29 2c       	jc	$+84     	;abs 0x97c
     92a:	31 31       	jn	$+612    	;abs 0xb8e
     92c:	2c 32       	jn	$-934    	;abs 0x586
     92e:	3b 74       	subc	@r4+,	r11	
     930:	62 63       	addc.b	#2,	r2	;r3 As==10
     932:	6c 67       	addc.b	@r7,	r12	
     934:	72 70 3a 28 	subc.b	#10298,	r2	;#0x283a
     938:	30 2c       	jc	$+98     	;abs 0x99a
     93a:	34 29       	jnc	$+618    	;abs 0xba4
     93c:	2c 31       	jn	$+602    	;abs 0xb96
     93e:	33 2c       	jc	$+104    	;abs 0x9a6
     940:	32 3b       	jl	$-410    	;abs 0x7a6
     942:	3b 00       	.word	0x003b;	????	
     944:	74 62       	addc.b	#8,	r4	;r2 As==11
     946:	63 63       	.word	0x6363;	????	Illegal as 2-op instr
     948:	74 6c       	addc.b	@r12+,	r4	
     94a:	5f 74 3a 74 	subc.b	29754(r4),r15	;0x743a(r4)
     94e:	28 31       	jn	$+594    	;abs 0xba0
     950:	32 2c       	jc	$+102    	;abs 0x9b6
     952:	33 29       	jnc	$+616    	;abs 0xbba
     954:	3d 28       	jnc	$+124    	;abs 0x9d0
     956:	31 32       	jn	$-924    	;abs 0x5ba
     958:	2c 34       	jge	$+90     	;abs 0x9b2
     95a:	29 3d       	jmp	$+596    	;abs 0xbae
     95c:	73 32       	jn	$-792    	;abs 0x644
     95e:	63 63       	.word	0x6363;	????	Illegal as 2-op instr
     960:	69 66       	addc.b	@r6,	r9	
     962:	67 3a       	jl	$-816    	;abs 0x632
     964:	28 30       	jn	$+82     	;abs 0x9b6
     966:	2c 34       	jge	$+90     	;abs 0x9c0
     968:	29 2c       	jc	$+84     	;abs 0x9bc
     96a:	30 2c       	jc	$+98     	;abs 0x9cc
     96c:	31 3b       	jl	$-412    	;abs 0x7d0
     96e:	63 6f       	.word	0x6f63;	????	Illegal as 2-op instr
     970:	76 3a       	jl	$-786    	;abs 0x65e
     972:	28 30       	jn	$+82     	;abs 0x9c4
     974:	2c 34       	jge	$+90     	;abs 0x9ce
     976:	29 2c       	jc	$+84     	;abs 0x9ca
     978:	31 2c       	jc	$+100    	;abs 0x9dc
     97a:	31 3b       	jl	$-412    	;abs 0x7de
     97c:	6f 75       	subc.b	@r5,	r15	
     97e:	74 3a       	jl	$-790    	;abs 0x668
     980:	28 30       	jn	$+82     	;abs 0x9d2
     982:	2c 34       	jge	$+90     	;abs 0x9dc
     984:	29 2c       	jc	$+84     	;abs 0x9d8
     986:	32 2c       	jc	$+102    	;abs 0x9ec
     988:	31 3b       	jl	$-412    	;abs 0x7ec
     98a:	63 63       	.word	0x6363;	????	Illegal as 2-op instr
     98c:	69 3a       	jl	$-812    	;abs 0x660
     98e:	28 30       	jn	$+82     	;abs 0x9e0
     990:	2c 34       	jge	$+90     	;abs 0x9ea
     992:	29 2c       	jc	$+84     	;abs 0x9e6
     994:	33 2c       	jc	$+104    	;abs 0x9fc
     996:	31 3b       	jl	$-412    	;abs 0x7fa
     998:	63 63       	.word	0x6363;	????	Illegal as 2-op instr
     99a:	69 65       	addc.b	@r5,	r9	
     99c:	3a 28       	jnc	$+118    	;abs 0xa12
     99e:	30 2c       	jc	$+98     	;abs 0xa00
     9a0:	34 29       	jnc	$+618    	;abs 0xc0a
     9a2:	2c 34       	jge	$+90     	;abs 0x9fc
     9a4:	2c 31       	jn	$+602    	;abs 0xbfe
     9a6:	3b 6f       	addc	@r15+,	r11	
     9a8:	75 74       	subc.b	@r4+,	r5	
     9aa:	6d 6f       	addc.b	@r15,	r13	
     9ac:	64 3a       	jl	$-822    	;abs 0x676
     9ae:	28 30       	jn	$+82     	;abs 0xa00
     9b0:	2c 34       	jge	$+90     	;abs 0xa0a
     9b2:	29 2c       	jc	$+84     	;abs 0xa06
     9b4:	35 2c       	jc	$+108    	;abs 0xa20
     9b6:	33 3b       	jl	$-408    	;abs 0x81e
     9b8:	63 61       	.word	0x6163;	????	Illegal as 2-op instr
     9ba:	70 3a       	jl	$-798    	;abs 0x69c
     9bc:	28 30       	jn	$+82     	;abs 0xa0e
     9be:	2c 34       	jge	$+90     	;abs 0xa18
     9c0:	29 2c       	jc	$+84     	;abs 0xa14
     9c2:	38 2c       	jc	$+114    	;abs 0xa34
     9c4:	31 3b       	jl	$-412    	;abs 0x828
     9c6:	63 6c       	.word	0x6c63;	????	Illegal as 2-op instr
     9c8:	6c 64       	addc.b	@r4,	r12	
     9ca:	3a 28       	jnc	$+118    	;abs 0xa40
     9cc:	30 2c       	jc	$+98     	;abs 0xa2e
     9ce:	34 29       	jnc	$+618    	;abs 0xc38
     9d0:	2c 39       	jl	$+602    	;abs 0xc2a
     9d2:	2c 32       	jn	$-934    	;abs 0x62c
     9d4:	3b 73       	subc	#-1,	r11	;r3 As==11
     9d6:	63 73       	.word	0x7363;	????	Illegal as 2-op instr
     9d8:	3a 28       	jnc	$+118    	;abs 0xa4e
     9da:	30 2c       	jc	$+98     	;abs 0xa3c
     9dc:	34 29       	jnc	$+618    	;abs 0xc46
     9de:	2c 31       	jn	$+602    	;abs 0xc38
     9e0:	31 2c       	jc	$+100    	;abs 0xa44
     9e2:	31 3b       	jl	$-412    	;abs 0x846
     9e4:	63 63       	.word	0x6363;	????	Illegal as 2-op instr
     9e6:	69 73       	subc.b	#2,	r9	;r3 As==10
     9e8:	3a 28       	jnc	$+118    	;abs 0xa5e
     9ea:	30 2c       	jc	$+98     	;abs 0xa4c
     9ec:	34 29       	jnc	$+618    	;abs 0xc56
     9ee:	2c 31       	jn	$+602    	;abs 0xc48
     9f0:	32 2c       	jc	$+102    	;abs 0xa56
     9f2:	32 3b       	jl	$-410    	;abs 0x858
     9f4:	63 6d       	.word	0x6d63;	????	Illegal as 2-op instr
     9f6:	3a 28       	jnc	$+118    	;abs 0xa6c
     9f8:	30 2c       	jc	$+98     	;abs 0xa5a
     9fa:	34 29       	jnc	$+618    	;abs 0xc64
     9fc:	2c 31       	jn	$+602    	;abs 0xc56
     9fe:	34 2c       	jc	$+106    	;abs 0xa68
     a00:	32 3b       	jl	$-410    	;abs 0x866
     a02:	3b 00       	.word	0x003b;	????	
     a04:	74 69       	addc.b	@r9+,	r4	
     a06:	6d 65       	addc.b	@r5,	r13	
     a08:	72 62       	addc.b	#8,	r2	;r2 As==11
     a0a:	5f 74 3a 54 	subc.b	21562(r4),r15	;0x543a(r4)
     a0e:	28 31       	jn	$+594    	;abs 0xc60
     a10:	32 2c       	jc	$+102    	;abs 0xa76
     a12:	35 29       	jnc	$+620    	;abs 0xc7e
     a14:	3d 73       	subc	#-1,	r13	;r3 As==11
     a16:	32 34       	jge	$+102    	;abs 0xa7c
     a18:	63 74       	.word	0x7463;	????	Illegal as 2-op instr
     a1a:	6c 3a       	jl	$-806    	;abs 0x6f4
     a1c:	28 31       	jn	$+594    	;abs 0xc6e
     a1e:	32 2c       	jc	$+102    	;abs 0xa84
     a20:	31 29       	jnc	$+612    	;abs 0xc84
     a22:	2c 30       	jn	$+90     	;abs 0xa7c
     a24:	2c 31       	jn	$+602    	;abs 0xc7e
     a26:	36 3b       	jl	$-402    	;abs 0x894
     a28:	63 63       	.word	0x6363;	????	Illegal as 2-op instr
     a2a:	74 6c       	addc.b	@r12+,	r4	
     a2c:	30 3a       	jl	$-926    	;abs 0x68e
     a2e:	28 31       	jn	$+594    	;abs 0xc80
     a30:	32 2c       	jc	$+102    	;abs 0xa96
     a32:	33 29       	jnc	$+616    	;abs 0xc9a
     a34:	2c 31       	jn	$+602    	;abs 0xc8e
     a36:	36 2c       	jc	$+110    	;abs 0xaa4
     a38:	31 36       	jge	$-924    	;abs 0x69c
     a3a:	3b 63       	addc	#-1,	r11	;r3 As==11
     a3c:	63 74       	.word	0x7463;	????	Illegal as 2-op instr
     a3e:	6c 31       	jn	$+730    	;abs 0xd18
     a40:	3a 28       	jnc	$+118    	;abs 0xab6
     a42:	31 32       	jn	$-924    	;abs 0x6a6
     a44:	2c 33       	jn	$-422    	;abs 0x89e
     a46:	29 2c       	jc	$+84     	;abs 0xa9a
     a48:	33 32       	jn	$-920    	;abs 0x6b0
     a4a:	2c 31       	jn	$+602    	;abs 0xca4
     a4c:	36 3b       	jl	$-402    	;abs 0x8ba
     a4e:	63 63       	.word	0x6363;	????	Illegal as 2-op instr
     a50:	74 6c       	addc.b	@r12+,	r4	
     a52:	32 3a       	jl	$-922    	;abs 0x6b8
     a54:	28 31       	jn	$+594    	;abs 0xca6
     a56:	32 2c       	jc	$+102    	;abs 0xabc
     a58:	33 29       	jnc	$+616    	;abs 0xcc0
     a5a:	2c 34       	jge	$+90     	;abs 0xab4
     a5c:	38 2c       	jc	$+114    	;abs 0xace
     a5e:	31 36       	jge	$-924    	;abs 0x6c2
     a60:	3b 64       	addc	@r4+,	r11	
     a62:	75 6d       	addc.b	@r13+,	r5	
     a64:	6d 79       	subc.b	@r9,	r13	
     a66:	3a 28       	jnc	$+118    	;abs 0xadc
     a68:	31 31       	jn	$+612    	;abs 0xccc
     a6a:	2c 36       	jge	$-934    	;abs 0x6c4
     a6c:	29 2c       	jc	$+84     	;abs 0xac0
     a6e:	36 34       	jge	$+110    	;abs 0xadc
     a70:	2c 36       	jge	$-934    	;abs 0x6ca
     a72:	34 3b       	jl	$-406    	;abs 0x8dc
     a74:	74 62       	addc.b	#8,	r4	;r2 As==11
     a76:	72 3a       	jl	$-794    	;abs 0x75c
     a78:	28 30       	jn	$+82     	;abs 0xaca
     a7a:	2c 34       	jge	$+90     	;abs 0xad4
     a7c:	29 2c       	jc	$+84     	;abs 0xad0
     a7e:	31 32       	jn	$-924    	;abs 0x6e2
     a80:	38 2c       	jc	$+114    	;abs 0xaf2
     a82:	31 36       	jge	$-924    	;abs 0x6e6
     a84:	3b 74       	subc	@r4+,	r11	
     a86:	62 63       	addc.b	#2,	r2	;r3 As==10
     a88:	63 72       	.word	0x7263;	????	Illegal as 2-op instr
     a8a:	30 3a       	jl	$-926    	;abs 0x6ec
     a8c:	28 30       	jn	$+82     	;abs 0xade
     a8e:	2c 34       	jge	$+90     	;abs 0xae8
     a90:	29 2c       	jc	$+84     	;abs 0xae4
     a92:	31 34       	jge	$+100    	;abs 0xaf6
     a94:	34 2c       	jc	$+106    	;abs 0xafe
     a96:	31 36       	jge	$-924    	;abs 0x6fa
     a98:	3b 74       	subc	@r4+,	r11	
     a9a:	62 63       	addc.b	#2,	r2	;r3 As==10
     a9c:	63 72       	.word	0x7263;	????	Illegal as 2-op instr
     a9e:	31 3a       	jl	$-924    	;abs 0x702
     aa0:	28 30       	jn	$+82     	;abs 0xaf2
     aa2:	2c 34       	jge	$+90     	;abs 0xafc
     aa4:	29 2c       	jc	$+84     	;abs 0xaf8
     aa6:	31 36       	jge	$-924    	;abs 0x70a
     aa8:	30 2c       	jc	$+98     	;abs 0xb0a
     aaa:	31 36       	jge	$-924    	;abs 0x70e
     aac:	3b 74       	subc	@r4+,	r11	
     aae:	62 63       	addc.b	#2,	r2	;r3 As==10
     ab0:	63 72       	.word	0x7263;	????	Illegal as 2-op instr
     ab2:	32 3a       	jl	$-922    	;abs 0x718
     ab4:	28 30       	jn	$+82     	;abs 0xb06
     ab6:	2c 34       	jge	$+90     	;abs 0xb10
     ab8:	29 2c       	jc	$+84     	;abs 0xb0c
     aba:	31 37       	jge	$-412    	;abs 0x91e
     abc:	36 2c       	jc	$+110    	;abs 0xb2a
     abe:	31 36       	jge	$-924    	;abs 0x722
     ac0:	3b 3b       	jl	$-392    	;abs 0x938
     ac2:	00 63       	adc	r0		
     ac4:	3a 2f       	jc	$-394    	;abs 0x93a
     ac6:	6d 73       	subc.b	#2,	r13	;r3 As==10
     ac8:	70 67       	addc.b	@r7+,	r0	
     aca:	63 63       	.word	0x6363;	????	Illegal as 2-op instr
     acc:	2f 6d       	addc	@r13,	r15	
     ace:	73 70       	.word	0x7073;	????	Illegal as 2-op instr
     ad0:	34 33       	jn	$-406    	;abs 0x93a
     ad2:	30 2f       	jc	$-414    	;abs 0x934
     ad4:	69 6e       	addc.b	@r14,	r9	
     ad6:	63 6c       	.word	0x6c63;	????	Illegal as 2-op instr
     ad8:	75 64       	addc.b	@r4+,	r5	
     ada:	65 2f       	jc	$-308    	;abs 0x9a6
     adc:	6d 73       	subc.b	#2,	r13	;r3 As==10
     ade:	70 34       	jge	$+226    	;abs 0xbc0
     ae0:	33 30       	jn	$+104    	;abs 0xb48
     ae2:	2f 67       	addc	@r7,	r15	
     ae4:	70 69       	addc.b	@r9+,	r0	
     ae6:	6f 2e       	jc	$-800    	;abs 0x7c6
     ae8:	68 00       	.word	0x0068;	????	
     aea:	63 3a       	jl	$-824    	;abs 0x7b2
     aec:	2f 6d       	addc	@r13,	r15	
     aee:	73 70       	.word	0x7073;	????	Illegal as 2-op instr
     af0:	67 63       	addc.b	#2,	r7	;r3 As==10
     af2:	63 2f       	jc	$-312    	;abs 0x9ba
     af4:	6d 73       	subc.b	#2,	r13	;r3 As==10
     af6:	70 34       	jge	$+226    	;abs 0xbd8
     af8:	33 30       	jn	$+104    	;abs 0xb60
     afa:	2f 69       	addc	@r9,	r15	
     afc:	6e 63       	addc.b	#2,	r14	;r3 As==10
     afe:	6c 75       	subc.b	@r5,	r12	
     b00:	64 65       	addc.b	@r5,	r4	
     b02:	2f 6d       	addc	@r13,	r15	
     b04:	73 70       	.word	0x7073;	????	Illegal as 2-op instr
     b06:	34 33       	jn	$-406    	;abs 0x970
     b08:	30 2f       	jc	$-414    	;abs 0x96a
     b0a:	69 6f       	addc.b	@r15,	r9	
     b0c:	73 74       	.word	0x7473;	????	Illegal as 2-op instr
     b0e:	72 75       	subc.b	@r5+,	r2	
     b10:	63 74       	.word	0x7463;	????	Illegal as 2-op instr
     b12:	75 72       	subc.b	#8,	r5	;r2 As==11
     b14:	65 73       	subc.b	#2,	r5	;r3 As==10
     b16:	2e 68       	addc	@r8,	r14	
     b18:	00 70       	subc	r0,	r0	
     b1a:	6f 72       	subc.b	#4,	r15	;r2 As==10
     b1c:	74 3a       	jl	$-790    	;abs 0x806
     b1e:	54 28       	jnc	$+170    	;abs 0xbc8
     b20:	31 34       	jge	$+100    	;abs 0xb84
     b22:	2c 31       	jn	$+602    	;abs 0xd7c
     b24:	29 3d       	jmp	$+596    	;abs 0xd78
     b26:	75 32       	jn	$-788    	;abs 0x812
     b28:	72 65       	addc.b	@r5+,	r2	
     b2a:	67 5f       	add.b	@r15,	r7	
     b2c:	70 3a       	jl	$-798    	;abs 0x80e
     b2e:	28 30       	jn	$+82     	;abs 0xb80
     b30:	2c 31       	jn	$+602    	;abs 0xd8a
     b32:	31 29       	jnc	$+612    	;abs 0xd96
     b34:	2c 30       	jn	$+90     	;abs 0xb8e
     b36:	2c 38       	jl	$+90     	;abs 0xb90
     b38:	3b 5f       	add	@r15+,	r11	
     b3a:	5f 70 69 6e 	subc.b	0x6e69,	r15	;PC rel. 0x079a7
     b3e:	3a 28       	jnc	$+118    	;abs 0xbb4
     b40:	31 34       	jge	$+100    	;abs 0xba4
     b42:	2c 32       	jn	$-934    	;abs 0x79c
     b44:	29 3d       	jmp	$+596    	;abs 0xd98
     b46:	73 32       	jn	$-792    	;abs 0x82e
     b48:	5f 5f 70 30 	add.b	12400(r15),r15	;0x3070(r15)
     b4c:	3a 28       	jnc	$+118    	;abs 0xbc2
     b4e:	30 2c       	jc	$+98     	;abs 0xbb0
     b50:	31 31       	jn	$+612    	;abs 0xdb4
     b52:	29 2c       	jc	$+84     	;abs 0xba6
     b54:	30 2c       	jc	$+98     	;abs 0xbb6
     b56:	31 3b       	jl	$-412    	;abs 0x9ba
     b58:	5f 5f 70 31 	add.b	12656(r15),r15	;0x3170(r15)
     b5c:	3a 28       	jnc	$+118    	;abs 0xbd2
     b5e:	30 2c       	jc	$+98     	;abs 0xbc0
     b60:	31 31       	jn	$+612    	;abs 0xdc4
     b62:	29 2c       	jc	$+84     	;abs 0xbb6
     b64:	31 2c       	jc	$+100    	;abs 0xbc8
     b66:	31 3b       	jl	$-412    	;abs 0x9ca
     b68:	5f 5f 70 32 	add.b	12912(r15),r15	;0x3270(r15)
     b6c:	3a 28       	jnc	$+118    	;abs 0xbe2
     b6e:	30 2c       	jc	$+98     	;abs 0xbd0
     b70:	31 31       	jn	$+612    	;abs 0xdd4
     b72:	29 2c       	jc	$+84     	;abs 0xbc6
     b74:	32 2c       	jc	$+102    	;abs 0xbda
     b76:	31 3b       	jl	$-412    	;abs 0x9da
     b78:	5f 5f 70 33 	add.b	13168(r15),r15	;0x3370(r15)
     b7c:	3a 28       	jnc	$+118    	;abs 0xbf2
     b7e:	30 2c       	jc	$+98     	;abs 0xbe0
     b80:	31 31       	jn	$+612    	;abs 0xde4
     b82:	29 2c       	jc	$+84     	;abs 0xbd6
     b84:	33 2c       	jc	$+104    	;abs 0xbec
     b86:	31 3b       	jl	$-412    	;abs 0x9ea
     b88:	5f 5f 70 34 	add.b	13424(r15),r15	;0x3470(r15)
     b8c:	3a 28       	jnc	$+118    	;abs 0xc02
     b8e:	30 2c       	jc	$+98     	;abs 0xbf0
     b90:	31 31       	jn	$+612    	;abs 0xdf4
     b92:	29 2c       	jc	$+84     	;abs 0xbe6
     b94:	34 2c       	jc	$+106    	;abs 0xbfe
     b96:	31 3b       	jl	$-412    	;abs 0x9fa
     b98:	5f 5f 70 35 	add.b	13680(r15),r15	;0x3570(r15)
     b9c:	3a 28       	jnc	$+118    	;abs 0xc12
     b9e:	30 2c       	jc	$+98     	;abs 0xc00
     ba0:	31 31       	jn	$+612    	;abs 0xe04
     ba2:	29 2c       	jc	$+84     	;abs 0xbf6
     ba4:	35 2c       	jc	$+108    	;abs 0xc10
     ba6:	31 3b       	jl	$-412    	;abs 0xa0a
     ba8:	5f 5f 70 36 	add.b	13936(r15),r15	;0x3670(r15)
     bac:	3a 28       	jnc	$+118    	;abs 0xc22
     bae:	30 2c       	jc	$+98     	;abs 0xc10
     bb0:	31 31       	jn	$+612    	;abs 0xe14
     bb2:	29 2c       	jc	$+84     	;abs 0xc06
     bb4:	36 2c       	jc	$+110    	;abs 0xc22
     bb6:	31 3b       	jl	$-412    	;abs 0xa1a
     bb8:	5f 5f 70 37 	add.b	14192(r15),r15	;0x3770(r15)
     bbc:	3a 28       	jnc	$+118    	;abs 0xc32
     bbe:	30 2c       	jc	$+98     	;abs 0xc20
     bc0:	31 31       	jn	$+612    	;abs 0xe24
     bc2:	29 2c       	jc	$+84     	;abs 0xc16
     bc4:	37 2c       	jc	$+112    	;abs 0xc34
     bc6:	31 3b       	jl	$-412    	;abs 0xa2a
     bc8:	3b 2c       	jc	$+120    	;abs 0xc40
     bca:	30 2c       	jc	$+98     	;abs 0xc2c
     bcc:	31 36       	jge	$-924    	;abs 0x830
     bce:	3b 3b       	jl	$-392    	;abs 0xa46
     bd0:	00 69       	addc	r9,	r0	
     bd2:	6f 72       	subc.b	#4,	r15	;r2 As==10
     bd4:	65 67       	addc.b	@r7,	r5	
     bd6:	69 73       	subc.b	#2,	r9	;r3 As==10
     bd8:	74 65       	addc.b	@r5+,	r4	
     bda:	72 5f       	add.b	@r15+,	r2	
     bdc:	74 3a       	jl	$-790    	;abs 0x8c6
     bde:	74 28       	jnc	$+234    	;abs 0xcc8
     be0:	31 34       	jge	$+100    	;abs 0xc44
     be2:	2c 33       	jn	$-422    	;abs 0xa3c
     be4:	29 3d       	jmp	$+596    	;abs 0xe38
     be6:	28 31       	jn	$+594    	;abs 0xe38
     be8:	34 2c       	jc	$+106    	;abs 0xc52
     bea:	31 29       	jnc	$+612    	;abs 0xe4e
     bec:	00 70       	subc	r0,	r0	
     bee:	6f 72       	subc.b	#4,	r15	;r2 As==10
     bf0:	74 5f       	add.b	@r15+,	r4	
     bf2:	66 75       	subc.b	@r5,	r6	
     bf4:	6c 6c       	addc.b	@r12,	r12	
     bf6:	5f 74 3a 54 	subc.b	21562(r4),r15	;0x543a(r4)
     bfa:	28 31       	jn	$+594    	;abs 0xe4c
     bfc:	34 2c       	jc	$+106    	;abs 0xc66
     bfe:	34 29       	jnc	$+618    	;abs 0xe68
     c00:	3d 73       	subc	#-1,	r13	;r3 As==11
     c02:	31 36       	jge	$-924    	;abs 0x866
     c04:	69 6e       	addc.b	@r14,	r9	
     c06:	3a 28       	jnc	$+118    	;abs 0xc7c
     c08:	31 34       	jge	$+100    	;abs 0xc6c
     c0a:	2c 33       	jn	$-422    	;abs 0xa64
     c0c:	29 2c       	jc	$+84     	;abs 0xc60
     c0e:	30 2c       	jc	$+98     	;abs 0xc70
     c10:	31 36       	jge	$-924    	;abs 0x874
     c12:	3b 6f       	addc	@r15+,	r11	
     c14:	75 74       	subc.b	@r4+,	r5	
     c16:	3a 28       	jnc	$+118    	;abs 0xc8c
     c18:	31 34       	jge	$+100    	;abs 0xc7c
     c1a:	2c 33       	jn	$-422    	;abs 0xa74
     c1c:	29 2c       	jc	$+84     	;abs 0xc70
     c1e:	31 36       	jge	$-924    	;abs 0x882
     c20:	2c 31       	jn	$+602    	;abs 0xe7a
     c22:	36 3b       	jl	$-402    	;abs 0xa90
     c24:	64 69       	addc.b	@r9,	r4	
     c26:	72 3a       	jl	$-794    	;abs 0x90c
     c28:	28 31       	jn	$+594    	;abs 0xe7a
     c2a:	34 2c       	jc	$+106    	;abs 0xc94
     c2c:	33 29       	jnc	$+616    	;abs 0xe94
     c2e:	2c 33       	jn	$-422    	;abs 0xa88
     c30:	32 2c       	jc	$+102    	;abs 0xc96
     c32:	31 36       	jge	$-924    	;abs 0x896
     c34:	3b 69       	addc	@r9+,	r11	
     c36:	66 67       	addc.b	@r7,	r6	
     c38:	3a 28       	jnc	$+118    	;abs 0xcae
     c3a:	31 34       	jge	$+100    	;abs 0xc9e
     c3c:	2c 33       	jn	$-422    	;abs 0xa96
     c3e:	29 2c       	jc	$+84     	;abs 0xc92
     c40:	34 38       	jl	$+106    	;abs 0xcaa
     c42:	2c 31       	jn	$+602    	;abs 0xe9c
     c44:	36 3b       	jl	$-402    	;abs 0xab2
     c46:	69 65       	addc.b	@r5,	r9	
     c48:	73 3a       	jl	$-792    	;abs 0x930
     c4a:	28 31       	jn	$+594    	;abs 0xe9c
     c4c:	34 2c       	jc	$+106    	;abs 0xcb6
     c4e:	33 29       	jnc	$+616    	;abs 0xeb6
     c50:	2c 36       	jge	$-934    	;abs 0x8aa
     c52:	34 2c       	jc	$+106    	;abs 0xcbc
     c54:	31 36       	jge	$-924    	;abs 0x8b8
     c56:	3b 69       	addc	@r9+,	r11	
     c58:	65 3a       	jl	$-820    	;abs 0x924
     c5a:	28 31       	jn	$+594    	;abs 0xeac
     c5c:	34 2c       	jc	$+106    	;abs 0xcc6
     c5e:	33 29       	jnc	$+616    	;abs 0xec6
     c60:	2c 38       	jl	$+90     	;abs 0xcba
     c62:	30 2c       	jc	$+98     	;abs 0xcc4
     c64:	31 36       	jge	$-924    	;abs 0x8c8
     c66:	3b 73       	subc	#-1,	r11	;r3 As==11
     c68:	65 6c       	addc.b	@r12,	r5	
     c6a:	3a 28       	jnc	$+118    	;abs 0xce0
     c6c:	31 34       	jge	$+100    	;abs 0xcd0
     c6e:	2c 33       	jn	$-422    	;abs 0xac8
     c70:	29 2c       	jc	$+84     	;abs 0xcc4
     c72:	39 36       	jge	$-908    	;abs 0x8e6
     c74:	2c 31       	jn	$+602    	;abs 0xece
     c76:	36 3b       	jl	$-402    	;abs 0xae4
     c78:	72 65       	addc.b	@r5+,	r2	
     c7a:	6e 3a       	jl	$-802    	;abs 0x958
     c7c:	28 31       	jn	$+594    	;abs 0xece
     c7e:	34 2c       	jc	$+106    	;abs 0xce8
     c80:	33 29       	jnc	$+616    	;abs 0xee8
     c82:	2c 31       	jn	$+602    	;abs 0xedc
     c84:	31 32       	jn	$-924    	;abs 0x8e8
     c86:	2c 31       	jn	$+602    	;abs 0xee0
     c88:	36 3b       	jl	$-402    	;abs 0xaf6
     c8a:	3b 00       	.word	0x003b;	????	
     c8c:	70 6f       	addc.b	@r15+,	r0	
     c8e:	72 74       	subc.b	@r4+,	r2	
     c90:	5f 73       	subc.b	#1,	r15	;r3 As==01
     c92:	69 6d       	addc.b	@r13,	r9	
     c94:	70 6c       	addc.b	@r12+,	r0	
     c96:	65 5f       	add.b	@r15,	r5	
     c98:	74 3a       	jl	$-790    	;abs 0x982
     c9a:	54 28       	jnc	$+170    	;abs 0xd44
     c9c:	31 34       	jge	$+100    	;abs 0xd00
     c9e:	2c 35       	jge	$+602    	;abs 0xef8
     ca0:	29 3d       	jmp	$+596    	;abs 0xef4
     ca2:	73 38       	jl	$+232    	;abs 0xd8a
     ca4:	69 6e       	addc.b	@r14,	r9	
     ca6:	3a 28       	jnc	$+118    	;abs 0xd1c
     ca8:	31 34       	jge	$+100    	;abs 0xd0c
     caa:	2c 33       	jn	$-422    	;abs 0xb04
     cac:	29 2c       	jc	$+84     	;abs 0xd00
     cae:	30 2c       	jc	$+98     	;abs 0xd10
     cb0:	31 36       	jge	$-924    	;abs 0x914
     cb2:	3b 6f       	addc	@r15+,	r11	
     cb4:	75 74       	subc.b	@r4+,	r5	
     cb6:	3a 28       	jnc	$+118    	;abs 0xd2c
     cb8:	31 34       	jge	$+100    	;abs 0xd1c
     cba:	2c 33       	jn	$-422    	;abs 0xb14
     cbc:	29 2c       	jc	$+84     	;abs 0xd10
     cbe:	31 36       	jge	$-924    	;abs 0x922
     cc0:	2c 31       	jn	$+602    	;abs 0xf1a
     cc2:	36 3b       	jl	$-402    	;abs 0xb30
     cc4:	64 69       	addc.b	@r9,	r4	
     cc6:	72 3a       	jl	$-794    	;abs 0x9ac
     cc8:	28 31       	jn	$+594    	;abs 0xf1a
     cca:	34 2c       	jc	$+106    	;abs 0xd34
     ccc:	33 29       	jnc	$+616    	;abs 0xf34
     cce:	2c 33       	jn	$-422    	;abs 0xb28
     cd0:	32 2c       	jc	$+102    	;abs 0xd36
     cd2:	31 36       	jge	$-924    	;abs 0x936
     cd4:	3b 73       	subc	#-1,	r11	;r3 As==11
     cd6:	65 6c       	addc.b	@r12,	r5	
     cd8:	3a 28       	jnc	$+118    	;abs 0xd4e
     cda:	31 34       	jge	$+100    	;abs 0xd3e
     cdc:	2c 33       	jn	$-422    	;abs 0xb36
     cde:	29 2c       	jc	$+84     	;abs 0xd32
     ce0:	34 38       	jl	$+106    	;abs 0xd4a
     ce2:	2c 31       	jn	$+602    	;abs 0xf3c
     ce4:	36 3b       	jl	$-402    	;abs 0xb52
     ce6:	3b 00       	.word	0x003b;	????	
     ce8:	63 3a       	jl	$-824    	;abs 0x9b0
     cea:	2f 6d       	addc	@r13,	r15	
     cec:	73 70       	.word	0x7073;	????	Illegal as 2-op instr
     cee:	67 63       	addc.b	#2,	r7	;r3 As==10
     cf0:	63 2f       	jc	$-312    	;abs 0xbb8
     cf2:	6d 73       	subc.b	#2,	r13	;r3 As==10
     cf4:	70 34       	jge	$+226    	;abs 0xdd6
     cf6:	33 30       	jn	$+104    	;abs 0xd5e
     cf8:	2f 69       	addc	@r9,	r15	
     cfa:	6e 63       	addc.b	#2,	r14	;r3 As==10
     cfc:	6c 75       	subc.b	@r5,	r12	
     cfe:	64 65       	addc.b	@r5,	r4	
     d00:	2f 6d       	addc	@r13,	r15	
     d02:	73 70       	.word	0x7073;	????	Illegal as 2-op instr
     d04:	34 33       	jn	$-406    	;abs 0xb6e
     d06:	30 2f       	jc	$-414    	;abs 0xb68
     d08:	61 64       	addc.b	@r4,	r1	
     d0a:	63 31       	jn	$+712    	;abs 0xfd2
     d0c:	30 2e       	jc	$-926    	;abs 0x96e
     d0e:	68 00       	.word	0x0068;	????	
     d10:	61 64       	addc.b	@r4,	r1	
     d12:	63 31       	jn	$+712    	;abs 0xfda
     d14:	30 63       	addc	#-1,	r0	;r3 As==11
     d16:	74 6c       	addc.b	@r12+,	r4	
     d18:	30 5f       	add	@r15+,	r0	
     d1a:	74 3a       	jl	$-790    	;abs 0xa04
     d1c:	74 28       	jnc	$+234    	;abs 0xe06
     d1e:	31 35       	jge	$+612    	;abs 0xf82
     d20:	2c 31       	jn	$+602    	;abs 0xf7a
     d22:	29 3d       	jmp	$+596    	;abs 0xf76
     d24:	28 31       	jn	$+594    	;abs 0xf76
     d26:	35 2c       	jc	$+108    	;abs 0xd92
     d28:	32 29       	jnc	$+614    	;abs 0xf8e
     d2a:	3d 73       	subc	#-1,	r13	;r3 As==11
     d2c:	32 61       	addc	@r1+,	r2	
     d2e:	64 63       	addc.b	#2,	r4	;r3 As==10
     d30:	31 30       	jn	$+100    	;abs 0xd94
     d32:	73 63       	.word	0x6373;	????	Illegal as 2-op instr
     d34:	3a 28       	jnc	$+118    	;abs 0xdaa
     d36:	30 2c       	jc	$+98     	;abs 0xd98
     d38:	34 29       	jnc	$+618    	;abs 0xfa2
     d3a:	2c 30       	jn	$+90     	;abs 0xd94
     d3c:	2c 31       	jn	$+602    	;abs 0xf96
     d3e:	3b 65       	addc	@r5+,	r11	
     d40:	6e 63       	addc.b	#2,	r14	;r3 As==10
     d42:	3a 28       	jnc	$+118    	;abs 0xdb8
     d44:	30 2c       	jc	$+98     	;abs 0xda6
     d46:	34 29       	jnc	$+618    	;abs 0xfb0
     d48:	2c 31       	jn	$+602    	;abs 0xfa2
     d4a:	2c 31       	jn	$+602    	;abs 0xfa4
     d4c:	3b 61       	addc	@r1+,	r11	
     d4e:	64 63       	addc.b	#2,	r4	;r3 As==10
     d50:	31 30       	jn	$+100    	;abs 0xdb4
     d52:	69 66       	addc.b	@r6,	r9	
     d54:	67 3a       	jl	$-816    	;abs 0xa24
     d56:	28 30       	jn	$+82     	;abs 0xda8
     d58:	2c 34       	jge	$+90     	;abs 0xdb2
     d5a:	29 2c       	jc	$+84     	;abs 0xdae
     d5c:	32 2c       	jc	$+102    	;abs 0xdc2
     d5e:	31 3b       	jl	$-412    	;abs 0xbc2
     d60:	61 64       	addc.b	@r4,	r1	
     d62:	63 31       	jn	$+712    	;abs 0x102a
     d64:	30 69       	addc	@r9+,	r0	
     d66:	65 3a       	jl	$-820    	;abs 0xa32
     d68:	28 30       	jn	$+82     	;abs 0xdba
     d6a:	2c 34       	jge	$+90     	;abs 0xdc4
     d6c:	29 2c       	jc	$+84     	;abs 0xdc0
     d6e:	33 2c       	jc	$+104    	;abs 0xdd6
     d70:	31 3b       	jl	$-412    	;abs 0xbd4
     d72:	61 64       	addc.b	@r4,	r1	
     d74:	63 31       	jn	$+712    	;abs 0x103c
     d76:	30 6f       	addc	@r15+,	r0	
     d78:	6e 3a       	jl	$-802    	;abs 0xa56
     d7a:	28 30       	jn	$+82     	;abs 0xdcc
     d7c:	2c 34       	jge	$+90     	;abs 0xdd6
     d7e:	29 2c       	jc	$+84     	;abs 0xdd2
     d80:	34 2c       	jc	$+106    	;abs 0xdea
     d82:	31 3b       	jl	$-412    	;abs 0xbe6
     d84:	72 65       	addc.b	@r5+,	r2	
     d86:	66 6f       	addc.b	@r15,	r6	
     d88:	6e 3a       	jl	$-802    	;abs 0xa66
     d8a:	28 30       	jn	$+82     	;abs 0xddc
     d8c:	2c 34       	jge	$+90     	;abs 0xde6
     d8e:	29 2c       	jc	$+84     	;abs 0xde2
     d90:	35 2c       	jc	$+108    	;abs 0xdfc
     d92:	31 3b       	jl	$-412    	;abs 0xbf6
     d94:	72 32       	jn	$-794    	;abs 0xa7a
     d96:	5f 35       	jge	$+704    	;abs 0x1056
     d98:	76 3a       	jl	$-786    	;abs 0xa86
     d9a:	28 30       	jn	$+82     	;abs 0xdec
     d9c:	2c 34       	jge	$+90     	;abs 0xdf6
     d9e:	29 2c       	jc	$+84     	;abs 0xdf2
     da0:	36 2c       	jc	$+110    	;abs 0xe0e
     da2:	31 3b       	jl	$-412    	;abs 0xc06
     da4:	6d 73       	subc.b	#2,	r13	;r3 As==10
     da6:	63 3a       	jl	$-824    	;abs 0xa6e
     da8:	28 30       	jn	$+82     	;abs 0xdfa
     daa:	2c 34       	jge	$+90     	;abs 0xe04
     dac:	29 2c       	jc	$+84     	;abs 0xe00
     dae:	37 2c       	jc	$+112    	;abs 0xe1e
     db0:	31 3b       	jl	$-412    	;abs 0xc14
     db2:	61 64       	addc.b	@r4,	r1	
     db4:	63 31       	jn	$+712    	;abs 0x107c
     db6:	30 73       	subc	#-1,	r0	;r3 As==11
     db8:	72 3a       	jl	$-794    	;abs 0xa9e
     dba:	28 30       	jn	$+82     	;abs 0xe0c
     dbc:	2c 34       	jge	$+90     	;abs 0xe16
     dbe:	29 2c       	jc	$+84     	;abs 0xe12
     dc0:	38 2c       	jc	$+114    	;abs 0xe32
     dc2:	34 3b       	jl	$-406    	;abs 0xc2c
     dc4:	61 64       	addc.b	@r4,	r1	
     dc6:	63 31       	jn	$+712    	;abs 0x108e
     dc8:	30 73       	subc	#-1,	r0	;r3 As==11
     dca:	68 74       	subc.b	@r4,	r8	
     dcc:	3a 28       	jnc	$+118    	;abs 0xe42
     dce:	30 2c       	jc	$+98     	;abs 0xe30
     dd0:	34 29       	jnc	$+618    	;abs 0x103a
     dd2:	2c 31       	jn	$+602    	;abs 0x102c
     dd4:	32 2c       	jc	$+102    	;abs 0xe3a
     dd6:	34 3b       	jl	$-406    	;abs 0xc40
     dd8:	3b 00       	.word	0x003b;	????	
     dda:	61 64       	addc.b	@r4,	r1	
     ddc:	63 31       	jn	$+712    	;abs 0x10a4
     dde:	30 63       	addc	#-1,	r0	;r3 As==11
     de0:	74 6c       	addc.b	@r12+,	r4	
     de2:	31 5f       	add	@r15+,	r1	
     de4:	74 3a       	jl	$-790    	;abs 0xace
     de6:	74 28       	jnc	$+234    	;abs 0xed0
     de8:	31 35       	jge	$+612    	;abs 0x104c
     dea:	2c 33       	jn	$-422    	;abs 0xc44
     dec:	29 3d       	jmp	$+596    	;abs 0x1040
     dee:	28 31       	jn	$+594    	;abs 0x1040
     df0:	35 2c       	jc	$+108    	;abs 0xe5c
     df2:	34 29       	jnc	$+618    	;abs 0x105c
     df4:	3d 73       	subc	#-1,	r13	;r3 As==11
     df6:	31 61       	addc	@r1+,	r1	
     df8:	64 63       	addc.b	#2,	r4	;r3 As==10
     dfa:	31 30       	jn	$+100    	;abs 0xe5e
     dfc:	62 75       	subc.b	@r5,	r2	
     dfe:	73 79       	.word	0x7973;	????	Illegal as 2-op instr
     e00:	3a 28       	jnc	$+118    	;abs 0xe76
     e02:	30 2c       	jc	$+98     	;abs 0xe64
     e04:	34 29       	jnc	$+618    	;abs 0x106e
     e06:	2c 30       	jn	$+90     	;abs 0xe60
     e08:	2c 31       	jn	$+602    	;abs 0x1062
     e0a:	3b 63       	addc	#-1,	r11	;r3 As==11
     e0c:	6f 6e       	addc.b	@r14,	r15	
     e0e:	73 65       	.word	0x6573;	????	Illegal as 2-op instr
     e10:	71 3a       	jl	$-796    	;abs 0xaf4
     e12:	28 30       	jn	$+82     	;abs 0xe64
     e14:	2c 34       	jge	$+90     	;abs 0xe6e
     e16:	29 2c       	jc	$+84     	;abs 0xe6a
     e18:	31 2c       	jc	$+100    	;abs 0xe7c
     e1a:	32 3b       	jl	$-410    	;abs 0xc80
     e1c:	61 64       	addc.b	@r4,	r1	
     e1e:	63 31       	jn	$+712    	;abs 0x10e6
     e20:	30 73       	subc	#-1,	r0	;r3 As==11
     e22:	73 65       	.word	0x6573;	????	Illegal as 2-op instr
     e24:	6c 3a       	jl	$-806    	;abs 0xafe
     e26:	28 30       	jn	$+82     	;abs 0xe78
     e28:	2c 34       	jge	$+90     	;abs 0xe82
     e2a:	29 2c       	jc	$+84     	;abs 0xe7e
     e2c:	33 2c       	jc	$+104    	;abs 0xe94
     e2e:	32 3b       	jl	$-410    	;abs 0xc94
     e30:	61 64       	addc.b	@r4,	r1	
     e32:	63 31       	jn	$+712    	;abs 0x10fa
     e34:	30 64       	addc	@r4+,	r0	
     e36:	69 76       	subc.b	@r6,	r9	
     e38:	3a 28       	jnc	$+118    	;abs 0xeae
     e3a:	30 2c       	jc	$+98     	;abs 0xe9c
     e3c:	34 29       	jnc	$+618    	;abs 0x10a6
     e3e:	2c 35       	jge	$+602    	;abs 0x1098
     e40:	2c 33       	jn	$-422    	;abs 0xc9a
     e42:	3b 3b       	jl	$-392    	;abs 0xcba
     e44:	00 61       	addc	r1,	r0	
     e46:	64 63       	addc.b	#2,	r4	;r3 As==10
     e48:	31 30       	jn	$+100    	;abs 0xeac
     e4a:	5f 74 3a 54 	subc.b	21562(r4),r15	;0x543a(r4)
     e4e:	28 31       	jn	$+594    	;abs 0x10a0
     e50:	35 2c       	jc	$+108    	;abs 0xebc
     e52:	35 29       	jnc	$+620    	;abs 0x10be
     e54:	3d 73       	subc	#-1,	r13	;r3 As==11
     e56:	38 63       	addc	#-1,	r8	;r3 As==11
     e58:	74 6c       	addc.b	@r12+,	r4	
     e5a:	30 3a       	jl	$-926    	;abs 0xabc
     e5c:	28 31       	jn	$+594    	;abs 0x10ae
     e5e:	35 2c       	jc	$+108    	;abs 0xeca
     e60:	31 29       	jnc	$+612    	;abs 0x10c4
     e62:	2c 30       	jn	$+90     	;abs 0xebc
     e64:	2c 31       	jn	$+602    	;abs 0x10be
     e66:	36 3b       	jl	$-402    	;abs 0xcd4
     e68:	63 74       	.word	0x7463;	????	Illegal as 2-op instr
     e6a:	6c 31       	jn	$+730    	;abs 0x1144
     e6c:	3a 28       	jnc	$+118    	;abs 0xee2
     e6e:	31 35       	jge	$+612    	;abs 0x10d2
     e70:	2c 33       	jn	$-422    	;abs 0xcca
     e72:	29 2c       	jc	$+84     	;abs 0xec6
     e74:	31 36       	jge	$-924    	;abs 0xad8
     e76:	2c 38       	jl	$+90     	;abs 0xed0
     e78:	3b 6d       	addc	@r13+,	r11	
     e7a:	65 6d       	addc.b	@r13,	r5	
     e7c:	3a 28       	jnc	$+118    	;abs 0xef2
     e7e:	30 2c       	jc	$+98     	;abs 0xee0
     e80:	34 29       	jnc	$+618    	;abs 0x10ea
     e82:	2c 33       	jn	$-422    	;abs 0xcdc
     e84:	32 2c       	jc	$+102    	;abs 0xeea
     e86:	31 36       	jge	$-924    	;abs 0xaea
     e88:	3b 73       	subc	#-1,	r11	;r3 As==11
     e8a:	61 3a       	jl	$-828    	;abs 0xb4e
     e8c:	28 30       	jn	$+82     	;abs 0xede
     e8e:	2c 34       	jge	$+90     	;abs 0xee8
     e90:	29 2c       	jc	$+84     	;abs 0xee4
     e92:	34 38       	jl	$+106    	;abs 0xefc
     e94:	2c 31       	jn	$+602    	;abs 0x10ee
     e96:	36 3b       	jl	$-402    	;abs 0xd04
     e98:	3b 00       	.word	0x003b;	????	
     e9a:	63 3a       	jl	$-824    	;abs 0xb62
     e9c:	2f 6d       	addc	@r13,	r15	
     e9e:	73 70       	.word	0x7073;	????	Illegal as 2-op instr
     ea0:	67 63       	addc.b	#2,	r7	;r3 As==10
     ea2:	63 2f       	jc	$-312    	;abs 0xd6a
     ea4:	6d 73       	subc.b	#2,	r13	;r3 As==10
     ea6:	70 34       	jge	$+226    	;abs 0xf88
     ea8:	33 30       	jn	$+104    	;abs 0xf10
     eaa:	2f 69       	addc	@r9,	r15	
     eac:	6e 63       	addc.b	#2,	r14	;r3 As==10
     eae:	6c 75       	subc.b	@r5,	r12	
     eb0:	64 65       	addc.b	@r5,	r4	
     eb2:	2f 6d       	addc	@r13,	r15	
     eb4:	73 70       	.word	0x7073;	????	Illegal as 2-op instr
     eb6:	34 33       	jn	$-406    	;abs 0xd20
     eb8:	30 2f       	jc	$-414    	;abs 0xd1a
     eba:	75 73       	subc.b	#-1,	r5	;r3 As==11
     ebc:	63 69       	.word	0x6963;	????	Illegal as 2-op instr
     ebe:	2e 68       	addc	@r8,	r14	
     ec0:	00 63       	adc	r0		
     ec2:	3a 2f       	jc	$-394    	;abs 0xd38
     ec4:	6d 73       	subc.b	#2,	r13	;r3 As==10
     ec6:	70 67       	addc.b	@r7+,	r0	
     ec8:	63 63       	.word	0x6363;	????	Illegal as 2-op instr
     eca:	2f 6d       	addc	@r13,	r15	
     ecc:	73 70       	.word	0x7073;	????	Illegal as 2-op instr
     ece:	34 33       	jn	$-406    	;abs 0xd38
     ed0:	30 2f       	jc	$-414    	;abs 0xd32
     ed2:	69 6e       	addc.b	@r14,	r9	
     ed4:	63 6c       	.word	0x6c63;	????	Illegal as 2-op instr
     ed6:	75 64       	addc.b	@r4+,	r5	
     ed8:	65 2f       	jc	$-308    	;abs 0xda4
     eda:	6d 73       	subc.b	#2,	r13	;r3 As==10
     edc:	70 34       	jge	$+226    	;abs 0xfbe
     ede:	33 30       	jn	$+104    	;abs 0xf46
     ee0:	2f 63       	addc	#2,	r15	;r3 As==10
     ee2:	6f 6d       	addc.b	@r13,	r15	
     ee4:	6d 6f       	addc.b	@r15,	r13	
     ee6:	6e 2e       	jc	$-802    	;abs 0xbc4
     ee8:	68 00       	.word	0x0068;	????	
     eea:	63 3a       	jl	$-824    	;abs 0xbb2
     eec:	2f 6d       	addc	@r13,	r15	
     eee:	73 70       	.word	0x7073;	????	Illegal as 2-op instr
     ef0:	67 63       	addc.b	#2,	r7	;r3 As==10
     ef2:	63 2f       	jc	$-312    	;abs 0xdba
     ef4:	6d 73       	subc.b	#2,	r13	;r3 As==10
     ef6:	70 34       	jge	$+226    	;abs 0xfd8
     ef8:	33 30       	jn	$+104    	;abs 0xf60
     efa:	2f 69       	addc	@r9,	r15	
     efc:	6e 63       	addc.b	#2,	r14	;r3 As==10
     efe:	6c 75       	subc.b	@r5,	r12	
     f00:	64 65       	addc.b	@r5,	r4	
     f02:	2f 73       	subc	#2,	r15	;r3 As==10
     f04:	74 64       	addc.b	@r4+,	r4	
     f06:	6c 69       	addc.b	@r9,	r12	
     f08:	62 2e       	jc	$-826    	;abs 0xbce
     f0a:	68 00       	.word	0x0068;	????	
     f0c:	63 3a       	jl	$-824    	;abs 0xbd4
     f0e:	2f 6d       	addc	@r13,	r15	
     f10:	73 70       	.word	0x7073;	????	Illegal as 2-op instr
     f12:	67 63       	addc.b	#2,	r7	;r3 As==10
     f14:	63 2f       	jc	$-312    	;abs 0xddc
     f16:	6c 69       	addc.b	@r9,	r12	
     f18:	62 2f       	jc	$-314    	;abs 0xdde
     f1a:	67 63       	addc.b	#2,	r7	;r3 As==10
     f1c:	63 2d       	jc	$+712    	;abs 0x11e4
     f1e:	6c 69       	addc.b	@r9,	r12	
     f20:	62 2f       	jc	$-314    	;abs 0xde6
     f22:	6d 73       	subc.b	#2,	r13	;r3 As==10
     f24:	70 34       	jge	$+226    	;abs 0x1006
     f26:	33 30       	jn	$+104    	;abs 0xf8e
     f28:	2f 33       	jn	$-416    	;abs 0xd88
     f2a:	2e 32       	jn	$-930    	;abs 0xb88
     f2c:	2e 33       	jn	$-418    	;abs 0xd8a
     f2e:	2f 69       	addc	@r9,	r15	
     f30:	6e 63       	addc.b	#2,	r14	;r3 As==10
     f32:	6c 75       	subc.b	@r5,	r12	
     f34:	64 65       	addc.b	@r5,	r4	
     f36:	2f 73       	subc	#2,	r15	;r3 As==10
     f38:	74 64       	addc.b	@r4+,	r4	
     f3a:	64 65       	addc.b	@r5,	r4	
     f3c:	66 2e       	jc	$-818    	;abs 0xc0a
     f3e:	68 00       	.word	0x0068;	????	
     f40:	70 74       	subc.b	@r4+,	r0	
     f42:	72 64       	addc.b	@r4+,	r2	
     f44:	69 66       	addc.b	@r6,	r9	
     f46:	66 5f       	add.b	@r15,	r6	
     f48:	74 3a       	jl	$-790    	;abs 0xc32
     f4a:	74 28       	jnc	$+234    	;abs 0x1034
     f4c:	31 39       	jl	$+612    	;abs 0x11b0
     f4e:	2c 31       	jn	$+602    	;abs 0x11a8
     f50:	29 3d       	jmp	$+596    	;abs 0x11a4
     f52:	28 30       	jn	$+82     	;abs 0xfa4
     f54:	2c 31       	jn	$+602    	;abs 0x11ae
     f56:	29 00       	.word	0x0029;	????	
     f58:	73 69       	.word	0x6973;	????	Illegal as 2-op instr
     f5a:	7a 65       	addc.b	@r5+,	r10	
     f5c:	5f 74 3a 74 	subc.b	29754(r4),r15	;0x743a(r4)
     f60:	28 31       	jn	$+594    	;abs 0x11b2
     f62:	39 2c       	jc	$+116    	;abs 0xfd6
     f64:	32 29       	jnc	$+614    	;abs 0x11ca
     f66:	3d 28       	jnc	$+124    	;abs 0xfe2
     f68:	30 2c       	jc	$+98     	;abs 0xfca
     f6a:	34 29       	jnc	$+618    	;abs 0x11d4
     f6c:	00 77       	subc	r7,	r0	
     f6e:	63 68       	.word	0x6863;	????	Illegal as 2-op instr
     f70:	61 72       	subc.b	#4,	r1	;r2 As==10
     f72:	5f 74 3a 74 	subc.b	29754(r4),r15	;0x743a(r4)
     f76:	28 31       	jn	$+594    	;abs 0x11c8
     f78:	39 2c       	jc	$+116    	;abs 0xfec
     f7a:	33 29       	jnc	$+616    	;abs 0x11e2
     f7c:	3d 28       	jnc	$+124    	;abs 0xff8
     f7e:	30 2c       	jc	$+98     	;abs 0xfe0
     f80:	31 29       	jnc	$+612    	;abs 0x11e4
     f82:	00 63       	adc	r0		
     f84:	3a 2f       	jc	$-394    	;abs 0xdfa
     f86:	6d 73       	subc.b	#2,	r13	;r3 As==10
     f88:	70 67       	addc.b	@r7+,	r0	
     f8a:	63 63       	.word	0x6363;	????	Illegal as 2-op instr
     f8c:	2f 6d       	addc	@r13,	r15	
     f8e:	73 70       	.word	0x7073;	????	Illegal as 2-op instr
     f90:	34 33       	jn	$-406    	;abs 0xdfa
     f92:	30 2f       	jc	$-414    	;abs 0xdf4
     f94:	69 6e       	addc.b	@r14,	r9	
     f96:	63 6c       	.word	0x6c63;	????	Illegal as 2-op instr
     f98:	75 64       	addc.b	@r4+,	r5	
     f9a:	65 2f       	jc	$-308    	;abs 0xe66
     f9c:	73 79       	.word	0x7973;	????	Illegal as 2-op instr
     f9e:	73 2f       	jc	$-280    	;abs 0xe86
     fa0:	74 79       	subc.b	@r9+,	r4	
     fa2:	70 65       	addc.b	@r5+,	r0	
     fa4:	73 2e       	jc	$-792    	;abs 0xc8c
     fa6:	68 00       	.word	0x0068;	????	
     fa8:	63 3a       	jl	$-824    	;abs 0xc70
     faa:	2f 6d       	addc	@r13,	r15	
     fac:	73 70       	.word	0x7073;	????	Illegal as 2-op instr
     fae:	67 63       	addc.b	#2,	r7	;r3 As==10
     fb0:	63 2f       	jc	$-312    	;abs 0xe78
     fb2:	6d 73       	subc.b	#2,	r13	;r3 As==10
     fb4:	70 34       	jge	$+226    	;abs 0x1096
     fb6:	33 30       	jn	$+104    	;abs 0x101e
     fb8:	2f 69       	addc	@r9,	r15	
     fba:	6e 63       	addc.b	#2,	r14	;r3 As==10
     fbc:	6c 75       	subc.b	@r5,	r12	
     fbe:	64 65       	addc.b	@r5,	r4	
     fc0:	2f 73       	subc	#2,	r15	;r3 As==10
     fc2:	79 73       	subc.b	#-1,	r9	;r3 As==11
     fc4:	2f 63       	addc	#2,	r15	;r3 As==10
     fc6:	64 65       	addc.b	@r5,	r4	
     fc8:	66 73       	subc.b	#2,	r6	;r3 As==10
     fca:	2e 68       	addc	@r8,	r14	
     fcc:	00 75       	subc	r5,	r0	
     fce:	5f 63       	addc.b	#1,	r15	;r3 As==01
     fd0:	68 61       	addc.b	@r1,	r8	
     fd2:	72 3a       	jl	$-794    	;abs 0xcb8
     fd4:	74 28       	jnc	$+234    	;abs 0x10be
     fd6:	32 30       	jn	$+102    	;abs 0x103c
     fd8:	2c 31       	jn	$+602    	;abs 0x1232
     fda:	29 3d       	jmp	$+596    	;abs 0x122e
     fdc:	28 30       	jn	$+82     	;abs 0x102e
     fde:	2c 31       	jn	$+602    	;abs 0x1238
     fe0:	31 29       	jnc	$+612    	;abs 0x1244
     fe2:	00 75       	subc	r5,	r0	
     fe4:	5f 73       	subc.b	#1,	r15	;r3 As==01
     fe6:	68 6f       	addc.b	@r15,	r8	
     fe8:	72 74       	subc.b	@r4+,	r2	
     fea:	3a 74       	subc	@r4+,	r10	
     fec:	28 32       	jn	$-942    	;abs 0xc3e
     fee:	30 2c       	jc	$+98     	;abs 0x1050
     ff0:	32 29       	jnc	$+614    	;abs 0x1256
     ff2:	3d 28       	jnc	$+124    	;abs 0x106e
     ff4:	30 2c       	jc	$+98     	;abs 0x1056
     ff6:	39 29       	jnc	$+628    	;abs 0x126a
     ff8:	00 75       	subc	r5,	r0	
     ffa:	5f 69 6e 74 	addc.b	29806(r9),r15	;0x746e(r9)
     ffe:	3a 74       	subc	@r4+,	r10	
    1000:	28 32       	jn	$-942    	;abs 0xc52
    1002:	30 2c       	jc	$+98     	;abs 0x1064
    1004:	33 29       	jnc	$+616    	;abs 0x126c
    1006:	3d 28       	jnc	$+124    	;abs 0x1082
    1008:	30 2c       	jc	$+98     	;abs 0x106a
    100a:	34 29       	jnc	$+618    	;abs 0x1274
    100c:	00 75       	subc	r5,	r0	
    100e:	5f 6c 6f 6e 	addc.b	28271(r12),r15	;0x6e6f(r12)
    1012:	67 3a       	jl	$-816    	;abs 0xce2
    1014:	74 28       	jnc	$+234    	;abs 0x10fe
    1016:	32 30       	jn	$+102    	;abs 0x107c
    1018:	2c 34       	jge	$+90     	;abs 0x1072
    101a:	29 3d       	jmp	$+596    	;abs 0x126e
    101c:	28 30       	jn	$+82     	;abs 0x106e
    101e:	2c 35       	jge	$+602    	;abs 0x1278
    1020:	29 00       	.word	0x0029;	????	
    1022:	75 73       	subc.b	#-1,	r5	;r3 As==11
    1024:	68 6f       	addc.b	@r15,	r8	
    1026:	72 74       	subc.b	@r4+,	r2	
    1028:	3a 74       	subc	@r4+,	r10	
    102a:	28 32       	jn	$-942    	;abs 0xc7c
    102c:	30 2c       	jc	$+98     	;abs 0x108e
    102e:	35 29       	jnc	$+620    	;abs 0x129a
    1030:	3d 28       	jnc	$+124    	;abs 0x10ac
    1032:	30 2c       	jc	$+98     	;abs 0x1094
    1034:	39 29       	jnc	$+628    	;abs 0x12a8
    1036:	00 75       	subc	r5,	r0	
    1038:	69 6e       	addc.b	@r14,	r9	
    103a:	74 3a       	jl	$-790    	;abs 0xd24
    103c:	74 28       	jnc	$+234    	;abs 0x1126
    103e:	32 30       	jn	$+102    	;abs 0x10a4
    1040:	2c 36       	jge	$-934    	;abs 0xc9a
    1042:	29 3d       	jmp	$+596    	;abs 0x1296
    1044:	28 30       	jn	$+82     	;abs 0x1096
    1046:	2c 34       	jge	$+90     	;abs 0x10a0
    1048:	29 00       	.word	0x0029;	????	
    104a:	75 5f       	add.b	@r15+,	r5	
    104c:	69 6e       	addc.b	@r14,	r9	
    104e:	74 38       	jl	$+234    	;abs 0x1138
    1050:	5f 74 3a 74 	subc.b	29754(r4),r15	;0x743a(r4)
    1054:	28 32       	jn	$-942    	;abs 0xca6
    1056:	30 2c       	jc	$+98     	;abs 0x10b8
    1058:	37 29       	jnc	$+624    	;abs 0x12c8
    105a:	3d 28       	jnc	$+124    	;abs 0x10d6
    105c:	37 2c       	jc	$+112    	;abs 0x10cc
    105e:	32 29       	jnc	$+614    	;abs 0x12c4
    1060:	00 75       	subc	r5,	r0	
    1062:	5f 69 6e 74 	addc.b	29806(r9),r15	;0x746e(r9)
    1066:	31 36       	jge	$-924    	;abs 0xcca
    1068:	5f 74 3a 74 	subc.b	29754(r4),r15	;0x743a(r4)
    106c:	28 32       	jn	$-942    	;abs 0xcbe
    106e:	30 2c       	jc	$+98     	;abs 0x10d0
    1070:	38 29       	jnc	$+626    	;abs 0x12e2
    1072:	3d 28       	jnc	$+124    	;abs 0x10ee
    1074:	37 2c       	jc	$+112    	;abs 0x10e4
    1076:	34 29       	jnc	$+618    	;abs 0x12e0
    1078:	00 75       	subc	r5,	r0	
    107a:	5f 69 6e 74 	addc.b	29806(r9),r15	;0x746e(r9)
    107e:	33 32       	jn	$-920    	;abs 0xce6
    1080:	5f 74 3a 74 	subc.b	29754(r4),r15	;0x743a(r4)
    1084:	28 32       	jn	$-942    	;abs 0xcd6
    1086:	30 2c       	jc	$+98     	;abs 0x10e8
    1088:	39 29       	jnc	$+628    	;abs 0x12fc
    108a:	3d 28       	jnc	$+124    	;abs 0x1106
    108c:	37 2c       	jc	$+112    	;abs 0x10fc
    108e:	36 29       	jnc	$+622    	;abs 0x12fc
    1090:	00 75       	subc	r5,	r0	
    1092:	5f 69 6e 74 	addc.b	29806(r9),r15	;0x746e(r9)
    1096:	36 34       	jge	$+110    	;abs 0x1104
    1098:	5f 74 3a 74 	subc.b	29754(r4),r15	;0x743a(r4)
    109c:	28 32       	jn	$-942    	;abs 0xcee
    109e:	30 2c       	jc	$+98     	;abs 0x1100
    10a0:	31 30       	jn	$+100    	;abs 0x1104
    10a2:	29 3d       	jmp	$+596    	;abs 0x12f6
    10a4:	28 37       	jge	$-430    	;abs 0xef6
    10a6:	2c 38       	jl	$+90     	;abs 0x1100
    10a8:	29 00       	.word	0x0029;	????	
    10aa:	75 5f       	add.b	@r15+,	r5	
    10ac:	71 75       	subc.b	@r5+,	r1	
    10ae:	61 64       	addc.b	@r4,	r1	
    10b0:	5f 74 3a 74 	subc.b	29754(r4),r15	;0x743a(r4)
    10b4:	28 32       	jn	$-942    	;abs 0xd06
    10b6:	30 2c       	jc	$+98     	;abs 0x1118
    10b8:	31 31       	jn	$+612    	;abs 0x131c
    10ba:	29 3d       	jmp	$+596    	;abs 0x130e
    10bc:	28 32       	jn	$-942    	;abs 0xd0e
    10be:	30 2c       	jc	$+98     	;abs 0x1120
    10c0:	31 30       	jn	$+100    	;abs 0x1124
    10c2:	29 00       	.word	0x0029;	????	
    10c4:	71 75       	subc.b	@r5+,	r1	
    10c6:	61 64       	addc.b	@r4,	r1	
    10c8:	5f 74 3a 74 	subc.b	29754(r4),r15	;0x743a(r4)
    10cc:	28 32       	jn	$-942    	;abs 0xd1e
    10ce:	30 2c       	jc	$+98     	;abs 0x1130
    10d0:	31 32       	jn	$-924    	;abs 0xd34
    10d2:	29 3d       	jmp	$+596    	;abs 0x1326
    10d4:	28 37       	jge	$-430    	;abs 0xf26
    10d6:	2c 37       	jge	$-422    	;abs 0xf30
    10d8:	29 00       	.word	0x0029;	????	
    10da:	71 61       	addc.b	@r1+,	r1	
    10dc:	64 64       	addc.b	@r4,	r4	
    10de:	72 5f       	add.b	@r15+,	r2	
    10e0:	74 3a       	jl	$-790    	;abs 0xdca
    10e2:	74 28       	jnc	$+234    	;abs 0x11cc
    10e4:	32 30       	jn	$+102    	;abs 0x114a
    10e6:	2c 31       	jn	$+602    	;abs 0x1340
    10e8:	33 29       	jnc	$+616    	;abs 0x1350
    10ea:	3d 28       	jnc	$+124    	;abs 0x1166
    10ec:	32 30       	jn	$+102    	;abs 0x1152
    10ee:	2c 31       	jn	$+602    	;abs 0x1348
    10f0:	34 29       	jnc	$+618    	;abs 0x135a
    10f2:	3d 2a       	jnc	$-900    	;abs 0xd6e
    10f4:	28 32       	jn	$-942    	;abs 0xd46
    10f6:	30 2c       	jc	$+98     	;abs 0x1158
    10f8:	31 32       	jn	$-924    	;abs 0xd5c
    10fa:	29 00       	.word	0x0029;	????	
    10fc:	63 61       	.word	0x6163;	????	Illegal as 2-op instr
    10fe:	64 64       	addc.b	@r4,	r4	
    1100:	72 5f       	add.b	@r15+,	r2	
    1102:	74 3a       	jl	$-790    	;abs 0xdec
    1104:	74 28       	jnc	$+234    	;abs 0x11ee
    1106:	32 30       	jn	$+102    	;abs 0x116c
    1108:	2c 31       	jn	$+602    	;abs 0x1362
    110a:	35 29       	jnc	$+620    	;abs 0x1376
    110c:	3d 28       	jnc	$+124    	;abs 0x1188
    110e:	32 30       	jn	$+102    	;abs 0x1174
    1110:	2c 31       	jn	$+602    	;abs 0x136a
    1112:	36 29       	jnc	$+622    	;abs 0x1380
    1114:	3d 2a       	jnc	$-900    	;abs 0xd90
    1116:	28 30       	jn	$+82     	;abs 0x1168
    1118:	2c 32       	jn	$-934    	;abs 0xd72
    111a:	29 00       	.word	0x0029;	????	
    111c:	63 5f       	.word	0x5f63;	????	Illegal as 2-op instr
    111e:	63 61       	.word	0x6163;	????	Illegal as 2-op instr
    1120:	64 64       	addc.b	@r4,	r4	
    1122:	72 5f       	add.b	@r15+,	r2	
    1124:	74 3a       	jl	$-790    	;abs 0xe0e
    1126:	74 28       	jnc	$+234    	;abs 0x1210
    1128:	32 30       	jn	$+102    	;abs 0x118e
    112a:	2c 31       	jn	$+602    	;abs 0x1384
    112c:	37 29       	jnc	$+624    	;abs 0x139c
    112e:	3d 28       	jnc	$+124    	;abs 0x11aa
    1130:	32 30       	jn	$+102    	;abs 0x1196
    1132:	2c 31       	jn	$+602    	;abs 0x138c
    1134:	38 29       	jnc	$+626    	;abs 0x13a6
    1136:	3d 2a       	jnc	$-900    	;abs 0xdb2
    1138:	28 32       	jn	$-942    	;abs 0xd8a
    113a:	30 2c       	jc	$+98     	;abs 0x119c
    113c:	31 39       	jl	$+612    	;abs 0x13a0
    113e:	29 3d       	jmp	$+596    	;abs 0x1392
    1140:	6b 28       	jnc	$+216    	;abs 0x1218
    1142:	30 2c       	jc	$+98     	;abs 0x11a4
    1144:	32 29       	jnc	$+614    	;abs 0x13aa
    1146:	00 76       	subc	r6,	r0	
    1148:	5f 63       	addc.b	#1,	r15	;r3 As==01
    114a:	61 64       	addc.b	@r4,	r1	
    114c:	64 72       	subc.b	#4,	r4	;r2 As==10
    114e:	5f 74 3a 74 	subc.b	29754(r4),r15	;0x743a(r4)
    1152:	28 32       	jn	$-942    	;abs 0xda4
    1154:	30 2c       	jc	$+98     	;abs 0x11b6
    1156:	32 30       	jn	$+102    	;abs 0x11bc
    1158:	29 3d       	jmp	$+596    	;abs 0x13ac
    115a:	28 32       	jn	$-942    	;abs 0xdac
    115c:	30 2c       	jc	$+98     	;abs 0x11be
    115e:	32 31       	jn	$+614    	;abs 0x13c4
    1160:	29 3d       	jmp	$+596    	;abs 0x13b4
    1162:	2a 28       	jnc	$+86     	;abs 0x11b8
    1164:	32 30       	jn	$+102    	;abs 0x11ca
    1166:	2c 32       	jn	$-934    	;abs 0xdc0
    1168:	32 29       	jnc	$+614    	;abs 0x13ce
    116a:	3d 42       	mov	#8,	r13	;r2 As==11
    116c:	28 30       	jn	$+82     	;abs 0x11be
    116e:	2c 32       	jn	$-934    	;abs 0xdc8
    1170:	29 00       	.word	0x0029;	????	
    1172:	66 69       	addc.b	@r9,	r6	
    1174:	78 70 74 5f 	subc.b	#24436,	r8	;#0x5f74
    1178:	74 3a       	jl	$-790    	;abs 0xe62
    117a:	74 28       	jnc	$+234    	;abs 0x1264
    117c:	32 30       	jn	$+102    	;abs 0x11e2
    117e:	2c 32       	jn	$-934    	;abs 0xdd8
    1180:	33 29       	jnc	$+616    	;abs 0x13e8
    1182:	3d 28       	jnc	$+124    	;abs 0x11fe
    1184:	32 30       	jn	$+102    	;abs 0x11ea
    1186:	2c 39       	jl	$+602    	;abs 0x13e0
    1188:	29 00       	.word	0x0029;	????	
    118a:	67 69       	addc.b	@r9,	r7	
    118c:	64 5f       	add.b	@r15,	r4	
    118e:	74 3a       	jl	$-790    	;abs 0xe78
    1190:	74 28       	jnc	$+234    	;abs 0x127a
    1192:	32 30       	jn	$+102    	;abs 0x11f8
    1194:	2c 32       	jn	$-934    	;abs 0xdee
    1196:	34 29       	jnc	$+618    	;abs 0x1400
    1198:	3d 28       	jnc	$+124    	;abs 0x1214
    119a:	32 30       	jn	$+102    	;abs 0x1200
    119c:	2c 39       	jl	$+602    	;abs 0x13f6
    119e:	29 00       	.word	0x0029;	????	
    11a0:	69 6e       	addc.b	@r14,	r9	
    11a2:	5f 61 64 64 	addc.b	25700(r1),r15	;0x6464(r1)
    11a6:	72 5f       	add.b	@r15+,	r2	
    11a8:	74 3a       	jl	$-790    	;abs 0xe92
    11aa:	74 28       	jnc	$+234    	;abs 0x1294
    11ac:	32 30       	jn	$+102    	;abs 0x1212
    11ae:	2c 32       	jn	$-934    	;abs 0xe08
    11b0:	35 29       	jnc	$+620    	;abs 0x141c
    11b2:	3d 28       	jnc	$+124    	;abs 0x122e
    11b4:	32 30       	jn	$+102    	;abs 0x121a
    11b6:	2c 39       	jl	$+602    	;abs 0x1410
    11b8:	29 00       	.word	0x0029;	????	
    11ba:	69 6e       	addc.b	@r14,	r9	
    11bc:	5f 70 6f 72 	subc.b	0x726f,	r15	;PC rel. 0x0842f
    11c0:	74 5f       	add.b	@r15+,	r4	
    11c2:	74 3a       	jl	$-790    	;abs 0xeac
    11c4:	74 28       	jnc	$+234    	;abs 0x12ae
    11c6:	32 30       	jn	$+102    	;abs 0x122c
    11c8:	2c 32       	jn	$-934    	;abs 0xe22
    11ca:	36 29       	jnc	$+622    	;abs 0x1438
    11cc:	3d 28       	jnc	$+124    	;abs 0x1248
    11ce:	32 30       	jn	$+102    	;abs 0x1234
    11d0:	2c 38       	jl	$+90     	;abs 0x122a
    11d2:	29 00       	.word	0x0029;	????	
    11d4:	69 6e       	addc.b	@r14,	r9	
    11d6:	6f 5f       	add.b	@r15,	r15	
    11d8:	74 3a       	jl	$-790    	;abs 0xec2
    11da:	74 28       	jnc	$+234    	;abs 0x12c4
    11dc:	32 30       	jn	$+102    	;abs 0x1242
    11de:	2c 32       	jn	$-934    	;abs 0xe38
    11e0:	37 29       	jnc	$+624    	;abs 0x1450
    11e2:	3d 28       	jnc	$+124    	;abs 0x125e
    11e4:	32 30       	jn	$+102    	;abs 0x124a
    11e6:	2c 39       	jl	$+602    	;abs 0x1440
    11e8:	29 00       	.word	0x0029;	????	
    11ea:	6b 65       	addc.b	@r5,	r11	
    11ec:	79 5f       	add.b	@r15+,	r9	
    11ee:	74 3a       	jl	$-790    	;abs 0xed8
    11f0:	74 28       	jnc	$+234    	;abs 0x12da
    11f2:	32 30       	jn	$+102    	;abs 0x1258
    11f4:	2c 32       	jn	$-934    	;abs 0xe4e
    11f6:	38 29       	jnc	$+626    	;abs 0x1468
    11f8:	3d 28       	jnc	$+124    	;abs 0x1274
    11fa:	30 2c       	jc	$+98     	;abs 0x125c
    11fc:	33 29       	jnc	$+616    	;abs 0x1464
    11fe:	00 6d       	addc	r13,	r0	
    1200:	6f 64       	addc.b	@r4,	r15	
    1202:	65 5f       	add.b	@r15,	r5	
    1204:	74 3a       	jl	$-790    	;abs 0xeee
    1206:	74 28       	jnc	$+234    	;abs 0x12f0
    1208:	32 30       	jn	$+102    	;abs 0x126e
    120a:	2c 32       	jn	$-934    	;abs 0xe64
    120c:	39 29       	jnc	$+628    	;abs 0x1480
    120e:	3d 28       	jnc	$+124    	;abs 0x128a
    1210:	32 30       	jn	$+102    	;abs 0x1276
    1212:	2c 38       	jl	$+90     	;abs 0x126c
    1214:	29 00       	.word	0x0029;	????	
    1216:	6e 6c       	addc.b	@r12,	r14	
    1218:	69 6e       	addc.b	@r14,	r9	
    121a:	6b 5f       	add.b	@r15,	r11	
    121c:	74 3a       	jl	$-790    	;abs 0xf06
    121e:	74 28       	jnc	$+234    	;abs 0x1308
    1220:	32 30       	jn	$+102    	;abs 0x1286
    1222:	2c 33       	jn	$-422    	;abs 0x107c
    1224:	30 29       	jnc	$+610    	;abs 0x1486
    1226:	3d 28       	jnc	$+124    	;abs 0x12a2
    1228:	32 30       	jn	$+102    	;abs 0x128e
    122a:	2c 38       	jl	$+90     	;abs 0x1284
    122c:	29 00       	.word	0x0029;	????	
    122e:	72 6c       	addc.b	@r12+,	r2	
    1230:	69 6d       	addc.b	@r13,	r9	
    1232:	5f 74 3a 74 	subc.b	29754(r4),r15	;0x743a(r4)
    1236:	28 32       	jn	$-942    	;abs 0xe88
    1238:	30 2c       	jc	$+98     	;abs 0x129a
    123a:	33 31       	jn	$+616    	;abs 0x14a2
    123c:	29 3d       	jmp	$+596    	;abs 0x1490
    123e:	28 32       	jn	$-942    	;abs 0xe90
    1240:	30 2c       	jc	$+98     	;abs 0x12a2
    1242:	31 32       	jn	$-924    	;abs 0xea6
    1244:	29 00       	.word	0x0029;	????	
    1246:	73 65       	.word	0x6573;	????	Illegal as 2-op instr
    1248:	67 73       	subc.b	#2,	r7	;r3 As==10
    124a:	7a 5f       	add.b	@r15+,	r10	
    124c:	74 3a       	jl	$-790    	;abs 0xf36
    124e:	74 28       	jnc	$+234    	;abs 0x1338
    1250:	32 30       	jn	$+102    	;abs 0x12b6
    1252:	2c 33       	jn	$-422    	;abs 0x10ac
    1254:	32 29       	jnc	$+614    	;abs 0x14ba
    1256:	3d 28       	jnc	$+124    	;abs 0x12d2
    1258:	37 2c       	jc	$+112    	;abs 0x12c8
    125a:	35 29       	jnc	$+620    	;abs 0x14c6
    125c:	00 73       	sbc	r0		
    125e:	77 62       	addc.b	#8,	r7	;r2 As==11
    1260:	6c 6b       	addc.b	@r11,	r12	
    1262:	5f 74 3a 74 	subc.b	29754(r4),r15	;0x743a(r4)
    1266:	28 32       	jn	$-942    	;abs 0xeb8
    1268:	30 2c       	jc	$+98     	;abs 0x12ca
    126a:	33 33       	jn	$-408    	;abs 0x10d2
    126c:	29 3d       	jmp	$+596    	;abs 0x14c0
    126e:	28 37       	jge	$-430    	;abs 0x10c0
    1270:	2c 35       	jge	$+602    	;abs 0x14ca
    1272:	29 00       	.word	0x0029;	????	
    1274:	75 66       	addc.b	@r6+,	r5	
    1276:	73 5f       	.word	0x5f73;	????	Illegal as 2-op instr
    1278:	64 61       	addc.b	@r1,	r4	
    127a:	64 64       	addc.b	@r4,	r4	
    127c:	72 5f       	add.b	@r15+,	r2	
    127e:	74 3a       	jl	$-790    	;abs 0xf68
    1280:	74 28       	jnc	$+234    	;abs 0x136a
    1282:	32 30       	jn	$+102    	;abs 0x12e8
    1284:	2c 33       	jn	$-422    	;abs 0x10de
    1286:	34 29       	jnc	$+618    	;abs 0x14f0
    1288:	3d 28       	jnc	$+124    	;abs 0x1304
    128a:	37 2c       	jc	$+112    	;abs 0x12fa
    128c:	35 29       	jnc	$+620    	;abs 0x14f8
    128e:	00 75       	subc	r5,	r0	
    1290:	66 73       	subc.b	#2,	r6	;r3 As==10
    1292:	5f 74 69 6d 	subc.b	28009(r4),r15	;0x6d69(r4)
    1296:	65 5f       	add.b	@r15,	r5	
    1298:	74 3a       	jl	$-790    	;abs 0xf82
    129a:	74 28       	jnc	$+234    	;abs 0x1384
    129c:	32 30       	jn	$+102    	;abs 0x1302
    129e:	2c 33       	jn	$-422    	;abs 0x10f8
    12a0:	35 29       	jnc	$+620    	;abs 0x150c
    12a2:	3d 28       	jnc	$+124    	;abs 0x131e
    12a4:	37 2c       	jc	$+112    	;abs 0x1314
    12a6:	35 29       	jnc	$+620    	;abs 0x1512
    12a8:	00 75       	subc	r5,	r0	
    12aa:	69 64       	addc.b	@r4,	r9	
    12ac:	5f 74 3a 74 	subc.b	29754(r4),r15	;0x743a(r4)
    12b0:	28 32       	jn	$-942    	;abs 0xf02
    12b2:	30 2c       	jc	$+98     	;abs 0x1314
    12b4:	33 36       	jge	$-920    	;abs 0xf1c
    12b6:	29 3d       	jmp	$+596    	;abs 0x150a
    12b8:	28 32       	jn	$-942    	;abs 0xf0a
    12ba:	30 2c       	jc	$+98     	;abs 0x131c
    12bc:	39 29       	jnc	$+628    	;abs 0x1530
    12be:	00 64       	addc	r4,	r0	
    12c0:	69 76       	subc.b	@r6,	r9	
    12c2:	5f 74 3a 74 	subc.b	29754(r4),r15	;0x743a(r4)
    12c6:	28 31       	jn	$+594    	;abs 0x1518
    12c8:	38 2c       	jc	$+114    	;abs 0x133a
    12ca:	31 29       	jnc	$+612    	;abs 0x152e
    12cc:	3d 28       	jnc	$+124    	;abs 0x1348
    12ce:	31 38       	jl	$+100    	;abs 0x1332
    12d0:	2c 32       	jn	$-934    	;abs 0xf2a
    12d2:	29 3d       	jmp	$+596    	;abs 0x1526
    12d4:	73 34       	jge	$+232    	;abs 0x13bc
    12d6:	71 75       	subc.b	@r5+,	r1	
    12d8:	6f 74       	subc.b	@r4,	r15	
    12da:	3a 28       	jnc	$+118    	;abs 0x1350
    12dc:	30 2c       	jc	$+98     	;abs 0x133e
    12de:	31 29       	jnc	$+612    	;abs 0x1542
    12e0:	2c 30       	jn	$+90     	;abs 0x133a
    12e2:	2c 31       	jn	$+602    	;abs 0x153c
    12e4:	36 3b       	jl	$-402    	;abs 0x1152
    12e6:	72 65       	addc.b	@r5+,	r2	
    12e8:	6d 3a       	jl	$-804    	;abs 0xfc4
    12ea:	28 30       	jn	$+82     	;abs 0x133c
    12ec:	2c 31       	jn	$+602    	;abs 0x1546
    12ee:	29 2c       	jc	$+84     	;abs 0x1342
    12f0:	31 36       	jge	$-924    	;abs 0xf54
    12f2:	2c 31       	jn	$+602    	;abs 0x154c
    12f4:	36 3b       	jl	$-402    	;abs 0x1162
    12f6:	3b 00       	.word	0x003b;	????	
    12f8:	6c 64       	addc.b	@r4,	r12	
    12fa:	69 76       	subc.b	@r6,	r9	
    12fc:	5f 74 3a 74 	subc.b	29754(r4),r15	;0x743a(r4)
    1300:	28 31       	jn	$+594    	;abs 0x1552
    1302:	38 2c       	jc	$+114    	;abs 0x1374
    1304:	33 29       	jnc	$+616    	;abs 0x156c
    1306:	3d 28       	jnc	$+124    	;abs 0x1382
    1308:	31 38       	jl	$+100    	;abs 0x136c
    130a:	2c 34       	jge	$+90     	;abs 0x1364
    130c:	29 3d       	jmp	$+596    	;abs 0x1560
    130e:	73 38       	jl	$+232    	;abs 0x13f6
    1310:	71 75       	subc.b	@r5+,	r1	
    1312:	6f 74       	subc.b	@r4,	r15	
    1314:	3a 28       	jnc	$+118    	;abs 0x138a
    1316:	30 2c       	jc	$+98     	;abs 0x1378
    1318:	33 29       	jnc	$+616    	;abs 0x1580
    131a:	2c 30       	jn	$+90     	;abs 0x1374
    131c:	2c 33       	jn	$-422    	;abs 0x1176
    131e:	32 3b       	jl	$-410    	;abs 0x1184
    1320:	72 65       	addc.b	@r5+,	r2	
    1322:	6d 3a       	jl	$-804    	;abs 0xffe
    1324:	28 30       	jn	$+82     	;abs 0x1376
    1326:	2c 33       	jn	$-422    	;abs 0x1180
    1328:	29 2c       	jc	$+84     	;abs 0x137c
    132a:	33 32       	jn	$-920    	;abs 0xf92
    132c:	2c 33       	jn	$-422    	;abs 0x1186
    132e:	32 3b       	jl	$-410    	;abs 0x1194
    1330:	3b 00       	.word	0x003b;	????	
    1332:	63 3a       	jl	$-824    	;abs 0xffa
    1334:	2f 6d       	addc	@r13,	r15	
    1336:	73 70       	.word	0x7073;	????	Illegal as 2-op instr
    1338:	67 63       	addc.b	#2,	r7	;r3 As==10
    133a:	63 2f       	jc	$-312    	;abs 0x1202
    133c:	6d 73       	subc.b	#2,	r13	;r3 As==10
    133e:	70 34       	jge	$+226    	;abs 0x1420
    1340:	33 30       	jn	$+104    	;abs 0x13a8
    1342:	2f 69       	addc	@r9,	r15	
    1344:	6e 63       	addc.b	#2,	r14	;r3 As==10
    1346:	6c 75       	subc.b	@r5,	r12	
    1348:	64 65       	addc.b	@r5,	r4	
    134a:	2f 73       	subc	#2,	r15	;r3 As==10
    134c:	74 64       	addc.b	@r4+,	r4	
    134e:	69 6f       	addc.b	@r15,	r9	
    1350:	2e 68       	addc	@r8,	r14	
    1352:	00 63       	adc	r0		
    1354:	3a 2f       	jc	$-394    	;abs 0x11ca
    1356:	6d 73       	subc.b	#2,	r13	;r3 As==10
    1358:	70 67       	addc.b	@r7+,	r0	
    135a:	63 63       	.word	0x6363;	????	Illegal as 2-op instr
    135c:	2f 6c       	addc	@r12,	r15	
    135e:	69 62       	addc.b	#4,	r9	;r2 As==10
    1360:	2f 67       	addc	@r7,	r15	
    1362:	63 63       	.word	0x6363;	????	Illegal as 2-op instr
    1364:	2d 6c       	addc	@r12,	r13	
    1366:	69 62       	addc.b	#4,	r9	;r2 As==10
    1368:	2f 6d       	addc	@r13,	r15	
    136a:	73 70       	.word	0x7073;	????	Illegal as 2-op instr
    136c:	34 33       	jn	$-406    	;abs 0x11d6
    136e:	30 2f       	jc	$-414    	;abs 0x11d0
    1370:	33 2e       	jc	$-920    	;abs 0xfd8
    1372:	32 2e       	jc	$-922    	;abs 0xfd8
    1374:	33 2f       	jc	$-408    	;abs 0x11dc
    1376:	69 6e       	addc.b	@r14,	r9	
    1378:	63 6c       	.word	0x6c63;	????	Illegal as 2-op instr
    137a:	75 64       	addc.b	@r4+,	r5	
    137c:	65 2f       	jc	$-308    	;abs 0x1248
    137e:	73 74       	.word	0x7473;	????	Illegal as 2-op instr
    1380:	64 61       	addc.b	@r1,	r4	
    1382:	72 67       	addc.b	@r7+,	r2	
    1384:	2e 68       	addc	@r8,	r14	
    1386:	00 5f       	add	r15,	r0	
    1388:	5f 67 6e 75 	addc.b	30062(r7),r15	;0x756e(r7)
    138c:	63 5f       	.word	0x5f63;	????	Illegal as 2-op instr
    138e:	76 61       	addc.b	@r1+,	r6	
    1390:	5f 6c 69 73 	addc.b	29545(r12),r15	;0x7369(r12)
    1394:	74 3a       	jl	$-790    	;abs 0x107e
    1396:	74 28       	jnc	$+234    	;abs 0x1480
    1398:	32 34       	jge	$+102    	;abs 0x13fe
    139a:	2c 31       	jn	$+602    	;abs 0x15f4
    139c:	29 3d       	jmp	$+596    	;abs 0x15f0
    139e:	28 30       	jn	$+82     	;abs 0x13f0
    13a0:	2c 31       	jn	$+602    	;abs 0x15fa
    13a2:	39 29       	jnc	$+628    	;abs 0x1616
    13a4:	00 76       	subc	r6,	r0	
    13a6:	61 5f       	add.b	@r15,	r1	
    13a8:	6c 69       	addc.b	@r9,	r12	
    13aa:	73 74       	.word	0x7473;	????	Illegal as 2-op instr
    13ac:	3a 74       	subc	@r4+,	r10	
    13ae:	28 32       	jn	$-942    	;abs 0x1000
    13b0:	34 2c       	jc	$+106    	;abs 0x141a
    13b2:	32 29       	jnc	$+614    	;abs 0x1618
    13b4:	3d 28       	jnc	$+124    	;abs 0x1430
    13b6:	32 34       	jge	$+102    	;abs 0x141c
    13b8:	2c 31       	jn	$+602    	;abs 0x1612
    13ba:	29 00       	.word	0x0029;	????	
    13bc:	63 3a       	jl	$-824    	;abs 0x1084
    13be:	2f 6d       	addc	@r13,	r15	
    13c0:	73 70       	.word	0x7073;	????	Illegal as 2-op instr
    13c2:	67 63       	addc.b	#2,	r7	;r3 As==10
    13c4:	63 2f       	jc	$-312    	;abs 0x128c
    13c6:	6d 73       	subc.b	#2,	r13	;r3 As==10
    13c8:	70 34       	jge	$+226    	;abs 0x14aa
    13ca:	33 30       	jn	$+104    	;abs 0x1432
    13cc:	2f 69       	addc	@r9,	r15	
    13ce:	6e 63       	addc.b	#2,	r14	;r3 As==10
    13d0:	6c 75       	subc.b	@r5,	r12	
    13d2:	64 65       	addc.b	@r5,	r4	
    13d4:	2f 69       	addc	@r9,	r15	
    13d6:	6f 2e       	jc	$-800    	;abs 0x10b6
    13d8:	68 00       	.word	0x0068;	????	
    13da:	6d 61       	addc.b	@r1,	r13	
    13dc:	69 6e       	addc.b	@r14,	r9	
    13de:	3a 46       	mov	@r6+,	r10	
    13e0:	28 30       	jn	$+82     	;abs 0x1432
    13e2:	2c 31       	jn	$+602    	;abs 0x163c
    13e4:	29 00       	.word	0x0029;	????	
    13e6:	69 3a       	jl	$-812    	;abs 0x10ba
    13e8:	72 28       	jnc	$+230    	;abs 0x14ce
    13ea:	30 2c       	jc	$+98     	;abs 0x144c
    13ec:	31 29       	jnc	$+612    	;abs 0x1650
    13ee:	00 44       	br	r4		
    13f0:	43 4f       	.word	0x4f43;	????	Illegal as 2-op instr
    13f2:	43 54       	.word	0x5443;	????	Illegal as 2-op instr
    13f4:	4c 3a       	jl	$-870    	;abs 0x108e
    13f6:	47 28       	jnc	$+144    	;abs 0x1486
    13f8:	31 2c       	jc	$+100    	;abs 0x145c
    13fa:	31 29       	jnc	$+612    	;abs 0x165e
    13fc:	3d 42       	mov	#8,	r13	;r2 As==11
    13fe:	28 30       	jn	$+82     	;abs 0x1450
    1400:	2c 31       	jn	$+602    	;abs 0x165a
    1402:	31 29       	jnc	$+612    	;abs 0x1666
    1404:	00 42       	br	r2		
    1406:	43 53       	.word	0x5343;	????	Illegal as emulation instr
    1408:	43 54       	.word	0x5443;	????	Illegal as 2-op instr
    140a:	4c 31       	jn	$+666    	;abs 0x16a4
    140c:	3a 47       	mov	@r7+,	r10	
    140e:	28 31       	jn	$+594    	;abs 0x1660
    1410:	2c 31       	jn	$+602    	;abs 0x166a
    1412:	29 00       	.word	0x0029;	????	
    1414:	42 43       	clr.b	r2		
    1416:	53 43       	.word	0x4353;	????	Illegal as 2-op instr
    1418:	54 4c 32 3a 	mov.b	14898(r12),r4	;0x3a32(r12)
    141c:	47 28       	jnc	$+144    	;abs 0x14ac
    141e:	31 2c       	jc	$+100    	;abs 0x1482
    1420:	31 29       	jnc	$+612    	;abs 0x1684
    1422:	00 42       	br	r2		
    1424:	43 53       	.word	0x5343;	????	Illegal as emulation instr
    1426:	43 54       	.word	0x5443;	????	Illegal as 2-op instr
    1428:	4c 33       	jn	$-358    	;abs 0x12c2
    142a:	3a 47       	mov	@r7+,	r10	
    142c:	28 31       	jn	$+594    	;abs 0x167e
    142e:	2c 31       	jn	$+602    	;abs 0x1688
    1430:	29 00       	.word	0x0029;	????	
    1432:	46 43       	clr.b	r6		
    1434:	54 4c 31 3a 	mov.b	14897(r12),r4	;0x3a31(r12)
    1438:	47 28       	jnc	$+144    	;abs 0x14c8
    143a:	31 31       	jn	$+612    	;abs 0x169e
    143c:	2c 38       	jl	$+90     	;abs 0x1496
    143e:	29 00       	.word	0x0029;	????	
    1440:	46 43       	clr.b	r6		
    1442:	54 4c 32 3a 	mov.b	14898(r12),r4	;0x3a32(r12)
    1446:	47 28       	jnc	$+144    	;abs 0x14d6
    1448:	31 31       	jn	$+612    	;abs 0x16ac
    144a:	2c 38       	jl	$+90     	;abs 0x14a4
    144c:	29 00       	.word	0x0029;	????	
    144e:	46 43       	clr.b	r6		
    1450:	54 4c 33 3a 	mov.b	14899(r12),r4	;0x3a33(r12)
    1454:	47 28       	jnc	$+144    	;abs 0x14e4
    1456:	31 31       	jn	$+612    	;abs 0x16ba
    1458:	2c 38       	jl	$+90     	;abs 0x14b2
    145a:	29 00       	.word	0x0029;	????	
    145c:	45 50       	add.b	r0,	r5	
    145e:	43 54       	.word	0x5443;	????	Illegal as 2-op instr
    1460:	4c 3a       	jl	$-870    	;abs 0x10fa
    1462:	47 28       	jnc	$+144    	;abs 0x14f2
    1464:	31 2c       	jc	$+100    	;abs 0x14c8
    1466:	31 29       	jnc	$+612    	;abs 0x16ca
    1468:	00 54       	add	r4,	r0	
    146a:	41 30       	jn	$+132    	;abs 0x14ee
    146c:	49 56       	add.b	r6,	r9	
    146e:	3a 47       	mov	@r7+,	r10	
    1470:	28 31       	jn	$+594    	;abs 0x16c2
    1472:	31 2c       	jc	$+100    	;abs 0x14d6
    1474:	38 29       	jnc	$+626    	;abs 0x16e6
    1476:	00 54       	add	r4,	r0	
    1478:	41 30       	jn	$+132    	;abs 0x14fc
    147a:	43 54       	.word	0x5443;	????	Illegal as 2-op instr
    147c:	4c 3a       	jl	$-870    	;abs 0x1116
    147e:	47 28       	jnc	$+144    	;abs 0x150e
    1480:	31 31       	jn	$+612    	;abs 0x16e4
    1482:	2c 38       	jl	$+90     	;abs 0x14dc
    1484:	29 00       	.word	0x0029;	????	
    1486:	54 41 30 52 	mov.b	21040(r1),r4	;0x5230(r1)
    148a:	3a 47       	mov	@r7+,	r10	
    148c:	28 31       	jn	$+594    	;abs 0x16de
    148e:	31 2c       	jc	$+100    	;abs 0x14f2
    1490:	38 29       	jnc	$+626    	;abs 0x1702
    1492:	00 54       	add	r4,	r0	
    1494:	41 30       	jn	$+132    	;abs 0x1518
    1496:	43 43       	clr.b	#0		;r3 As==00
    1498:	54 4c 30 3a 	mov.b	14896(r12),r4	;0x3a30(r12)
    149c:	47 28       	jnc	$+144    	;abs 0x152c
    149e:	31 31       	jn	$+612    	;abs 0x1702
    14a0:	2c 38       	jl	$+90     	;abs 0x14fa
    14a2:	29 00       	.word	0x0029;	????	
    14a4:	54 41 30 43 	mov.b	17200(r1),r4	;0x4330(r1)
    14a8:	43 54       	.word	0x5443;	????	Illegal as 2-op instr
    14aa:	4c 31       	jn	$+666    	;abs 0x1744
    14ac:	3a 47       	mov	@r7+,	r10	
    14ae:	28 31       	jn	$+594    	;abs 0x1700
    14b0:	31 2c       	jc	$+100    	;abs 0x1514
    14b2:	38 29       	jnc	$+626    	;abs 0x1724
    14b4:	00 54       	add	r4,	r0	
    14b6:	41 30       	jn	$+132    	;abs 0x153a
    14b8:	43 43       	clr.b	#0		;r3 As==00
    14ba:	52 30       	jn	$+166    	;abs 0x1560
    14bc:	3a 47       	mov	@r7+,	r10	
    14be:	28 31       	jn	$+594    	;abs 0x1710
    14c0:	31 2c       	jc	$+100    	;abs 0x1524
    14c2:	38 29       	jnc	$+626    	;abs 0x1734
    14c4:	00 54       	add	r4,	r0	
    14c6:	41 30       	jn	$+132    	;abs 0x154a
    14c8:	43 43       	clr.b	#0		;r3 As==00
    14ca:	52 31       	jn	$+678    	;abs 0x1770
    14cc:	3a 47       	mov	@r7+,	r10	
    14ce:	28 31       	jn	$+594    	;abs 0x1720
    14d0:	31 2c       	jc	$+100    	;abs 0x1534
    14d2:	38 29       	jnc	$+626    	;abs 0x1744
    14d4:	00 54       	add	r4,	r0	
    14d6:	41 30       	jn	$+132    	;abs 0x155a
    14d8:	43 43       	clr.b	#0		;r3 As==00
    14da:	54 4c 32 3a 	mov.b	14898(r12),r4	;0x3a32(r12)
    14de:	47 28       	jnc	$+144    	;abs 0x156e
    14e0:	31 31       	jn	$+612    	;abs 0x1744
    14e2:	2c 38       	jl	$+90     	;abs 0x153c
    14e4:	29 00       	.word	0x0029;	????	
    14e6:	54 41 30 43 	mov.b	17200(r1),r4	;0x4330(r1)
    14ea:	43 52       	.word	0x5243;	????	Illegal as 2-op instr
    14ec:	32 3a       	jl	$-922    	;abs 0x1152
    14ee:	47 28       	jnc	$+144    	;abs 0x157e
    14f0:	31 31       	jn	$+612    	;abs 0x1754
    14f2:	2c 38       	jl	$+90     	;abs 0x154c
    14f4:	29 00       	.word	0x0029;	????	
    14f6:	74 69       	addc.b	@r9+,	r4	
    14f8:	6d 65       	addc.b	@r5,	r13	
    14fa:	72 61       	addc.b	@r1+,	r2	
    14fc:	3a 47       	mov	@r7+,	r10	
    14fe:	28 31       	jn	$+594    	;abs 0x1750
    1500:	31 2c       	jc	$+100    	;abs 0x1564
    1502:	35 29       	jnc	$+620    	;abs 0x176e
    1504:	00 54       	add	r4,	r0	
    1506:	42 49       	mov.b	r9,	r2	
    1508:	56 3a       	jl	$-850    	;abs 0x11b6
    150a:	47 28       	jnc	$+144    	;abs 0x159a
    150c:	31 31       	jn	$+612    	;abs 0x1770
    150e:	2c 38       	jl	$+90     	;abs 0x1568
    1510:	29 00       	.word	0x0029;	????	
    1512:	54 42 43 54 	mov.b	&0x5443,r4	
    1516:	4c 3a       	jl	$-870    	;abs 0x11b0
    1518:	47 28       	jnc	$+144    	;abs 0x15a8
    151a:	31 31       	jn	$+612    	;abs 0x177e
    151c:	2c 38       	jl	$+90     	;abs 0x1576
    151e:	29 00       	.word	0x0029;	????	
    1520:	54 42 52 3a 	mov.b	&0x3a52,r4	
    1524:	47 28       	jnc	$+144    	;abs 0x15b4
    1526:	31 31       	jn	$+612    	;abs 0x178a
    1528:	2c 38       	jl	$+90     	;abs 0x1582
    152a:	29 00       	.word	0x0029;	????	
    152c:	54 42 43 43 	mov.b	&0x4343,r4	
    1530:	54 4c 30 3a 	mov.b	14896(r12),r4	;0x3a30(r12)
    1534:	47 28       	jnc	$+144    	;abs 0x15c4
    1536:	31 31       	jn	$+612    	;abs 0x179a
    1538:	2c 38       	jl	$+90     	;abs 0x1592
    153a:	29 00       	.word	0x0029;	????	
    153c:	54 42 43 43 	mov.b	&0x4343,r4	
    1540:	54 4c 31 3a 	mov.b	14897(r12),r4	;0x3a31(r12)
    1544:	47 28       	jnc	$+144    	;abs 0x15d4
    1546:	31 31       	jn	$+612    	;abs 0x17aa
    1548:	2c 38       	jl	$+90     	;abs 0x15a2
    154a:	29 00       	.word	0x0029;	????	
    154c:	54 42 43 43 	mov.b	&0x4343,r4	
    1550:	54 4c 32 3a 	mov.b	14898(r12),r4	;0x3a32(r12)
    1554:	47 28       	jnc	$+144    	;abs 0x15e4
    1556:	31 31       	jn	$+612    	;abs 0x17ba
    1558:	2c 38       	jl	$+90     	;abs 0x15b2
    155a:	29 00       	.word	0x0029;	????	
    155c:	54 42 43 43 	mov.b	&0x4343,r4	
    1560:	52 30       	jn	$+166    	;abs 0x1606
    1562:	3a 47       	mov	@r7+,	r10	
    1564:	28 31       	jn	$+594    	;abs 0x17b6
    1566:	31 2c       	jc	$+100    	;abs 0x15ca
    1568:	38 29       	jnc	$+626    	;abs 0x17da
    156a:	00 54       	add	r4,	r0	
    156c:	42 43       	clr.b	r2		
    156e:	43 52       	.word	0x5243;	????	Illegal as 2-op instr
    1570:	31 3a       	jl	$-924    	;abs 0x11d4
    1572:	47 28       	jnc	$+144    	;abs 0x1602
    1574:	31 31       	jn	$+612    	;abs 0x17d8
    1576:	2c 38       	jl	$+90     	;abs 0x15d0
    1578:	29 00       	.word	0x0029;	????	
    157a:	54 42 43 43 	mov.b	&0x4343,r4	
    157e:	52 32       	jn	$-858    	;abs 0x1224
    1580:	3a 47       	mov	@r7+,	r10	
    1582:	28 31       	jn	$+594    	;abs 0x17d4
    1584:	31 2c       	jc	$+100    	;abs 0x15e8
    1586:	38 29       	jnc	$+626    	;abs 0x17f8
    1588:	00 74       	subc	r4,	r0	
    158a:	69 6d       	addc.b	@r13,	r9	
    158c:	65 72       	subc.b	#4,	r5	;r2 As==10
    158e:	62 3a       	jl	$-826    	;abs 0x1254
    1590:	47 28       	jnc	$+144    	;abs 0x1620
    1592:	31 32       	jn	$-924    	;abs 0x11f6
    1594:	2c 35       	jge	$+602    	;abs 0x17ee
    1596:	29 00       	.word	0x0029;	????	
    1598:	70 6f       	addc.b	@r15+,	r0	
    159a:	72 74       	subc.b	@r4+,	r2	
    159c:	31 3a       	jl	$-924    	;abs 0x1200
    159e:	47 28       	jnc	$+144    	;abs 0x162e
    15a0:	31 34       	jge	$+100    	;abs 0x1604
    15a2:	2c 34       	jge	$+90     	;abs 0x15fc
    15a4:	29 00       	.word	0x0029;	????	
    15a6:	70 6f       	addc.b	@r15+,	r0	
    15a8:	72 74       	subc.b	@r4+,	r2	
    15aa:	32 3a       	jl	$-922    	;abs 0x1210
    15ac:	47 28       	jnc	$+144    	;abs 0x163c
    15ae:	31 34       	jge	$+100    	;abs 0x1612
    15b0:	2c 34       	jge	$+90     	;abs 0x160a
    15b2:	29 00       	.word	0x0029;	????	
    15b4:	70 6f       	addc.b	@r15+,	r0	
    15b6:	72 74       	subc.b	@r4+,	r2	
    15b8:	33 3a       	jl	$-920    	;abs 0x1220
    15ba:	47 28       	jnc	$+144    	;abs 0x164a
    15bc:	31 34       	jge	$+100    	;abs 0x1620
    15be:	2c 35       	jge	$+602    	;abs 0x1818
    15c0:	29 00       	.word	0x0029;	????	
    15c2:	70 6f       	addc.b	@r15+,	r0	
    15c4:	72 74       	subc.b	@r4+,	r2	
    15c6:	34 3a       	jl	$-918    	;abs 0x1230
    15c8:	47 28       	jnc	$+144    	;abs 0x1658
    15ca:	31 34       	jge	$+100    	;abs 0x162e
    15cc:	2c 35       	jge	$+602    	;abs 0x1826
    15ce:	29 00       	.word	0x0029;	????	
    15d0:	50 31       	jn	$+674    	;abs 0x1872
    15d2:	49 4e       	mov.b	r14,	r9	
    15d4:	3a 47       	mov	@r7+,	r10	
    15d6:	28 31       	jn	$+594    	;abs 0x1828
    15d8:	2c 31       	jn	$+602    	;abs 0x1832
    15da:	29 00       	.word	0x0029;	????	
    15dc:	50 31       	jn	$+674    	;abs 0x187e
    15de:	4f 55       	add.b	r5,	r15	
    15e0:	54 3a       	jl	$-854    	;abs 0x128a
    15e2:	47 28       	jnc	$+144    	;abs 0x1672
    15e4:	31 2c       	jc	$+100    	;abs 0x1648
    15e6:	31 29       	jnc	$+612    	;abs 0x184a
    15e8:	00 50       	rla	r0		
    15ea:	31 44       	mov	@r4+,	r1	
    15ec:	49 52       	add.b	r2,	r9	
    15ee:	3a 47       	mov	@r7+,	r10	
    15f0:	28 31       	jn	$+594    	;abs 0x1842
    15f2:	2c 31       	jn	$+602    	;abs 0x184c
    15f4:	29 00       	.word	0x0029;	????	
    15f6:	50 31       	jn	$+674    	;abs 0x1898
    15f8:	49 46       	mov.b	r6,	r9	
    15fa:	47 3a       	jl	$-880    	;abs 0x128a
    15fc:	47 28       	jnc	$+144    	;abs 0x168c
    15fe:	31 2c       	jc	$+100    	;abs 0x1662
    1600:	31 29       	jnc	$+612    	;abs 0x1864
    1602:	00 50       	rla	r0		
    1604:	31 49       	mov	@r9+,	r1	
    1606:	45 53       	add.b	#0,	r5	;r3 As==00
    1608:	3a 47       	mov	@r7+,	r10	
    160a:	28 31       	jn	$+594    	;abs 0x185c
    160c:	2c 31       	jn	$+602    	;abs 0x1866
    160e:	29 00       	.word	0x0029;	????	
    1610:	50 31       	jn	$+674    	;abs 0x18b2
    1612:	49 45       	mov.b	r5,	r9	
    1614:	3a 47       	mov	@r7+,	r10	
    1616:	28 31       	jn	$+594    	;abs 0x1868
    1618:	2c 31       	jn	$+602    	;abs 0x1872
    161a:	29 00       	.word	0x0029;	????	
    161c:	50 31       	jn	$+674    	;abs 0x18be
    161e:	53 45       	.word	0x4553;	????	Illegal as 2-op instr
    1620:	4c 3a       	jl	$-870    	;abs 0x12ba
    1622:	47 28       	jnc	$+144    	;abs 0x16b2
    1624:	31 2c       	jc	$+100    	;abs 0x1688
    1626:	31 29       	jnc	$+612    	;abs 0x188a
    1628:	00 50       	rla	r0		
    162a:	31 52       	add	#8,	r1	;r2 As==11
    162c:	45 4e       	mov.b	r14,	r5	
    162e:	3a 47       	mov	@r7+,	r10	
    1630:	28 31       	jn	$+594    	;abs 0x1882
    1632:	2c 31       	jn	$+602    	;abs 0x188c
    1634:	29 00       	.word	0x0029;	????	
    1636:	50 32       	jn	$-862    	;abs 0x12d8
    1638:	49 4e       	mov.b	r14,	r9	
    163a:	3a 47       	mov	@r7+,	r10	
    163c:	28 31       	jn	$+594    	;abs 0x188e
    163e:	2c 31       	jn	$+602    	;abs 0x1898
    1640:	29 00       	.word	0x0029;	????	
    1642:	50 32       	jn	$-862    	;abs 0x12e4
    1644:	4f 55       	add.b	r5,	r15	
    1646:	54 3a       	jl	$-854    	;abs 0x12f0
    1648:	47 28       	jnc	$+144    	;abs 0x16d8
    164a:	31 2c       	jc	$+100    	;abs 0x16ae
    164c:	31 29       	jnc	$+612    	;abs 0x18b0
    164e:	00 50       	rla	r0		
    1650:	32 44       	mov	@r4+,	r2	
    1652:	49 52       	add.b	r2,	r9	
    1654:	3a 47       	mov	@r7+,	r10	
    1656:	28 31       	jn	$+594    	;abs 0x18a8
    1658:	2c 31       	jn	$+602    	;abs 0x18b2
    165a:	29 00       	.word	0x0029;	????	
    165c:	50 32       	jn	$-862    	;abs 0x12fe
    165e:	49 46       	mov.b	r6,	r9	
    1660:	47 3a       	jl	$-880    	;abs 0x12f0
    1662:	47 28       	jnc	$+144    	;abs 0x16f2
    1664:	31 2c       	jc	$+100    	;abs 0x16c8
    1666:	31 29       	jnc	$+612    	;abs 0x18ca
    1668:	00 50       	rla	r0		
    166a:	32 49       	mov	@r9+,	r2	
    166c:	45 53       	add.b	#0,	r5	;r3 As==00
    166e:	3a 47       	mov	@r7+,	r10	
    1670:	28 31       	jn	$+594    	;abs 0x18c2
    1672:	2c 31       	jn	$+602    	;abs 0x18cc
    1674:	29 00       	.word	0x0029;	????	
    1676:	50 32       	jn	$-862    	;abs 0x1318
    1678:	49 45       	mov.b	r5,	r9	
    167a:	3a 47       	mov	@r7+,	r10	
    167c:	28 31       	jn	$+594    	;abs 0x18ce
    167e:	2c 31       	jn	$+602    	;abs 0x18d8
    1680:	29 00       	.word	0x0029;	????	
    1682:	50 32       	jn	$-862    	;abs 0x1324
    1684:	53 45       	.word	0x4553;	????	Illegal as 2-op instr
    1686:	4c 3a       	jl	$-870    	;abs 0x1320
    1688:	47 28       	jnc	$+144    	;abs 0x1718
    168a:	31 2c       	jc	$+100    	;abs 0x16ee
    168c:	31 29       	jnc	$+612    	;abs 0x18f0
    168e:	00 50       	rla	r0		
    1690:	32 52       	add	#8,	r2	;r2 As==11
    1692:	45 4e       	mov.b	r14,	r5	
    1694:	3a 47       	mov	@r7+,	r10	
    1696:	28 31       	jn	$+594    	;abs 0x18e8
    1698:	2c 31       	jn	$+602    	;abs 0x18f2
    169a:	29 00       	.word	0x0029;	????	
    169c:	50 33       	jn	$-350    	;abs 0x153e
    169e:	49 4e       	mov.b	r14,	r9	
    16a0:	3a 47       	mov	@r7+,	r10	
    16a2:	28 31       	jn	$+594    	;abs 0x18f4
    16a4:	2c 31       	jn	$+602    	;abs 0x18fe
    16a6:	29 00       	.word	0x0029;	????	
    16a8:	50 33       	jn	$-350    	;abs 0x154a
    16aa:	4f 55       	add.b	r5,	r15	
    16ac:	54 3a       	jl	$-854    	;abs 0x1356
    16ae:	47 28       	jnc	$+144    	;abs 0x173e
    16b0:	31 2c       	jc	$+100    	;abs 0x1714
    16b2:	31 29       	jnc	$+612    	;abs 0x1916
    16b4:	00 50       	rla	r0		
    16b6:	33 44       	.word	0x4433;	????	Illegal as 2-op instr
    16b8:	49 52       	add.b	r2,	r9	
    16ba:	3a 47       	mov	@r7+,	r10	
    16bc:	28 31       	jn	$+594    	;abs 0x190e
    16be:	2c 31       	jn	$+602    	;abs 0x1918
    16c0:	29 00       	.word	0x0029;	????	
    16c2:	50 33       	jn	$-350    	;abs 0x1564
    16c4:	53 45       	.word	0x4553;	????	Illegal as 2-op instr
    16c6:	4c 3a       	jl	$-870    	;abs 0x1360
    16c8:	47 28       	jnc	$+144    	;abs 0x1758
    16ca:	31 2c       	jc	$+100    	;abs 0x172e
    16cc:	31 29       	jnc	$+612    	;abs 0x1930
    16ce:	00 50       	rla	r0		
    16d0:	33 52       	.word	0x5233;	????	Illegal as 2-op instr
    16d2:	45 4e       	mov.b	r14,	r5	
    16d4:	3a 47       	mov	@r7+,	r10	
    16d6:	28 31       	jn	$+594    	;abs 0x1928
    16d8:	2c 31       	jn	$+602    	;abs 0x1932
    16da:	29 00       	.word	0x0029;	????	
    16dc:	50 34       	jge	$+162    	;abs 0x177e
    16de:	49 4e       	mov.b	r14,	r9	
    16e0:	3a 47       	mov	@r7+,	r10	
    16e2:	28 31       	jn	$+594    	;abs 0x1934
    16e4:	2c 31       	jn	$+602    	;abs 0x193e
    16e6:	29 00       	.word	0x0029;	????	
    16e8:	50 34       	jge	$+162    	;abs 0x178a
    16ea:	4f 55       	add.b	r5,	r15	
    16ec:	54 3a       	jl	$-854    	;abs 0x1396
    16ee:	47 28       	jnc	$+144    	;abs 0x177e
    16f0:	31 2c       	jc	$+100    	;abs 0x1754
    16f2:	31 29       	jnc	$+612    	;abs 0x1956
    16f4:	00 50       	rla	r0		
    16f6:	34 44       	mov	@r4+,	r4	
    16f8:	49 52       	add.b	r2,	r9	
    16fa:	3a 47       	mov	@r7+,	r10	
    16fc:	28 31       	jn	$+594    	;abs 0x194e
    16fe:	2c 31       	jn	$+602    	;abs 0x1958
    1700:	29 00       	.word	0x0029;	????	
    1702:	50 34       	jge	$+162    	;abs 0x17a4
    1704:	53 45       	.word	0x4553;	????	Illegal as 2-op instr
    1706:	4c 3a       	jl	$-870    	;abs 0x13a0
    1708:	47 28       	jnc	$+144    	;abs 0x1798
    170a:	31 2c       	jc	$+100    	;abs 0x176e
    170c:	31 29       	jnc	$+612    	;abs 0x1970
    170e:	00 50       	rla	r0		
    1710:	34 52       	add	#8,	r4	;r2 As==11
    1712:	45 4e       	mov.b	r14,	r5	
    1714:	3a 47       	mov	@r7+,	r10	
    1716:	28 31       	jn	$+594    	;abs 0x1968
    1718:	2c 31       	jn	$+602    	;abs 0x1972
    171a:	29 00       	.word	0x0029;	????	
    171c:	41 44       	mov.b	r4,	r1	
    171e:	43 31       	jn	$+648    	;abs 0x19a6
    1720:	30 44       	br	@r4+		
    1722:	54 43       	mov.b	#1,	r4	;r3 As==01
    1724:	30 3a       	jl	$-926    	;abs 0x1386
    1726:	47 28       	jnc	$+144    	;abs 0x17b6
    1728:	31 2c       	jc	$+100    	;abs 0x178c
    172a:	31 29       	jnc	$+612    	;abs 0x198e
    172c:	00 41       	br	r1		
    172e:	44 43       	clr.b	r4		
    1730:	31 30       	jn	$+100    	;abs 0x1794
    1732:	44 54       	rla.b	r4		
    1734:	43 31       	jn	$+648    	;abs 0x19bc
    1736:	3a 47       	mov	@r7+,	r10	
    1738:	28 31       	jn	$+594    	;abs 0x198a
    173a:	2c 31       	jn	$+602    	;abs 0x1994
    173c:	29 00       	.word	0x0029;	????	
    173e:	41 44       	mov.b	r4,	r1	
    1740:	43 31       	jn	$+648    	;abs 0x19c8
    1742:	30 41       	ret			
    1744:	45 30       	jn	$+140    	;abs 0x17d0
    1746:	3a 47       	mov	@r7+,	r10	
    1748:	28 31       	jn	$+594    	;abs 0x199a
    174a:	2c 31       	jn	$+602    	;abs 0x19a4
    174c:	29 00       	.word	0x0029;	????	
    174e:	41 44       	mov.b	r4,	r1	
    1750:	43 31       	jn	$+648    	;abs 0x19d8
    1752:	30 43       	br	#-1		;r3 As==11
    1754:	54 4c 30 3a 	mov.b	14896(r12),r4	;0x3a30(r12)
    1758:	47 28       	jnc	$+144    	;abs 0x17e8
    175a:	31 31       	jn	$+612    	;abs 0x19be
    175c:	2c 38       	jl	$+90     	;abs 0x17b6
    175e:	29 00       	.word	0x0029;	????	
    1760:	41 44       	mov.b	r4,	r1	
    1762:	43 31       	jn	$+648    	;abs 0x19ea
    1764:	30 43       	br	#-1		;r3 As==11
    1766:	54 4c 31 3a 	mov.b	14897(r12),r4	;0x3a31(r12)
    176a:	47 28       	jnc	$+144    	;abs 0x17fa
    176c:	31 31       	jn	$+612    	;abs 0x19d0
    176e:	2c 38       	jl	$+90     	;abs 0x17c8
    1770:	29 00       	.word	0x0029;	????	
    1772:	41 44       	mov.b	r4,	r1	
    1774:	43 31       	jn	$+648    	;abs 0x19fc
    1776:	30 4d       	br	@r13+		
    1778:	45 4d       	mov.b	r13,	r5	
    177a:	3a 47       	mov	@r7+,	r10	
    177c:	28 31       	jn	$+594    	;abs 0x19ce
    177e:	31 2c       	jc	$+100    	;abs 0x17e2
    1780:	38 29       	jnc	$+626    	;abs 0x19f2
    1782:	00 41       	br	r1		
    1784:	44 43       	clr.b	r4		
    1786:	31 30       	jn	$+100    	;abs 0x17ea
    1788:	53 41       	.word	0x4153;	????	Illegal as 2-op instr
    178a:	3a 47       	mov	@r7+,	r10	
    178c:	28 31       	jn	$+594    	;abs 0x19de
    178e:	31 2c       	jc	$+100    	;abs 0x17f2
    1790:	38 29       	jnc	$+626    	;abs 0x1a02
    1792:	00 61       	addc	r1,	r0	
    1794:	64 63       	addc.b	#2,	r4	;r3 As==10
    1796:	31 30       	jn	$+100    	;abs 0x17fa
    1798:	3a 47       	mov	@r7+,	r10	
    179a:	28 31       	jn	$+594    	;abs 0x19ec
    179c:	35 2c       	jc	$+108    	;abs 0x1808
    179e:	35 29       	jnc	$+620    	;abs 0x1a0a
    17a0:	00 55       	add	r5,	r0	
    17a2:	43 41       	.word	0x4143;	????	Illegal as 2-op instr
    17a4:	30 43       	br	#-1		;r3 As==11
    17a6:	54 4c 30 3a 	mov.b	14896(r12),r4	;0x3a30(r12)
    17aa:	47 28       	jnc	$+144    	;abs 0x183a
    17ac:	31 2c       	jc	$+100    	;abs 0x1810
    17ae:	31 29       	jnc	$+612    	;abs 0x1a12
    17b0:	00 55       	add	r5,	r0	
    17b2:	43 41       	.word	0x4143;	????	Illegal as 2-op instr
    17b4:	30 43       	br	#-1		;r3 As==11
    17b6:	54 4c 31 3a 	mov.b	14897(r12),r4	;0x3a31(r12)
    17ba:	47 28       	jnc	$+144    	;abs 0x184a
    17bc:	31 2c       	jc	$+100    	;abs 0x1820
    17be:	31 29       	jnc	$+612    	;abs 0x1a22
    17c0:	00 55       	add	r5,	r0	
    17c2:	43 41       	.word	0x4143;	????	Illegal as 2-op instr
    17c4:	30 42       	br	#8		;r2 As==11
    17c6:	52 30       	jn	$+166    	;abs 0x186c
    17c8:	3a 47       	mov	@r7+,	r10	
    17ca:	28 31       	jn	$+594    	;abs 0x1a1c
    17cc:	2c 31       	jn	$+602    	;abs 0x1a26
    17ce:	29 00       	.word	0x0029;	????	
    17d0:	55 43       	mov.b	#1,	r5	;r3 As==01
    17d2:	41 30       	jn	$+132    	;abs 0x1856
    17d4:	42 52       	rla.b	r2		
    17d6:	31 3a       	jl	$-924    	;abs 0x143a
    17d8:	47 28       	jnc	$+144    	;abs 0x1868
    17da:	31 2c       	jc	$+100    	;abs 0x183e
    17dc:	31 29       	jnc	$+612    	;abs 0x1a40
    17de:	00 55       	add	r5,	r0	
    17e0:	43 41       	.word	0x4143;	????	Illegal as 2-op instr
    17e2:	30 4d       	br	@r13+		
    17e4:	43 54       	.word	0x5443;	????	Illegal as 2-op instr
    17e6:	4c 3a       	jl	$-870    	;abs 0x1480
    17e8:	47 28       	jnc	$+144    	;abs 0x1878
    17ea:	31 2c       	jc	$+100    	;abs 0x184e
    17ec:	31 29       	jnc	$+612    	;abs 0x1a50
    17ee:	00 55       	add	r5,	r0	
    17f0:	43 41       	.word	0x4143;	????	Illegal as 2-op instr
    17f2:	30 53       	add	#-1,	r0	;r3 As==11
    17f4:	54 41 54 3a 	mov.b	14932(r1),r4	;0x3a54(r1)
    17f8:	47 28       	jnc	$+144    	;abs 0x1888
    17fa:	31 2c       	jc	$+100    	;abs 0x185e
    17fc:	31 29       	jnc	$+612    	;abs 0x1a60
    17fe:	00 55       	add	r5,	r0	
    1800:	43 41       	.word	0x4143;	????	Illegal as 2-op instr
    1802:	30 52       	add	#8,	r0	;r2 As==11
    1804:	58 42 55 46 	mov.b	&0x4655,r8	
    1808:	3a 47       	mov	@r7+,	r10	
    180a:	28 31       	jn	$+594    	;abs 0x1a5c
    180c:	2c 31       	jn	$+602    	;abs 0x1a66
    180e:	29 00       	.word	0x0029;	????	
    1810:	55 43       	mov.b	#1,	r5	;r3 As==01
    1812:	41 30       	jn	$+132    	;abs 0x1896
    1814:	54 58 42 55 	add.b	21826(r8),r4	;0x5542(r8)
    1818:	46 3a       	jl	$-882    	;abs 0x14a6
    181a:	47 28       	jnc	$+144    	;abs 0x18aa
    181c:	31 2c       	jc	$+100    	;abs 0x1880
    181e:	31 29       	jnc	$+612    	;abs 0x1a82
    1820:	00 55       	add	r5,	r0	
    1822:	43 41       	.word	0x4143;	????	Illegal as 2-op instr
    1824:	30 41       	ret			
    1826:	42 43       	clr.b	r2		
    1828:	54 4c 3a 47 	mov.b	18234(r12),r4	;0x473a(r12)
    182c:	28 31       	jn	$+594    	;abs 0x1a7e
    182e:	2c 31       	jn	$+602    	;abs 0x1a88
    1830:	29 00       	.word	0x0029;	????	
    1832:	55 43       	mov.b	#1,	r5	;r3 As==01
    1834:	41 30       	jn	$+132    	;abs 0x18b8
    1836:	49 52       	add.b	r2,	r9	
    1838:	54 43       	mov.b	#1,	r4	;r3 As==01
    183a:	54 4c 3a 47 	mov.b	18234(r12),r4	;0x473a(r12)
    183e:	28 31       	jn	$+594    	;abs 0x1a90
    1840:	2c 31       	jn	$+602    	;abs 0x1a9a
    1842:	29 00       	.word	0x0029;	????	
    1844:	55 43       	mov.b	#1,	r5	;r3 As==01
    1846:	41 30       	jn	$+132    	;abs 0x18ca
    1848:	49 52       	add.b	r2,	r9	
    184a:	52 43       	mov.b	#1,	r2	;r3 As==01
    184c:	54 4c 3a 47 	mov.b	18234(r12),r4	;0x473a(r12)
    1850:	28 31       	jn	$+594    	;abs 0x1aa2
    1852:	2c 31       	jn	$+602    	;abs 0x1aac
    1854:	29 00       	.word	0x0029;	????	
    1856:	55 43       	mov.b	#1,	r5	;r3 As==01
    1858:	42 30       	jn	$+134    	;abs 0x18de
    185a:	43 54       	.word	0x5443;	????	Illegal as 2-op instr
    185c:	4c 30       	jn	$+154    	;abs 0x18f6
    185e:	3a 47       	mov	@r7+,	r10	
    1860:	28 31       	jn	$+594    	;abs 0x1ab2
    1862:	2c 31       	jn	$+602    	;abs 0x1abc
    1864:	29 00       	.word	0x0029;	????	
    1866:	55 43       	mov.b	#1,	r5	;r3 As==01
    1868:	42 30       	jn	$+134    	;abs 0x18ee
    186a:	43 54       	.word	0x5443;	????	Illegal as 2-op instr
    186c:	4c 31       	jn	$+666    	;abs 0x1b06
    186e:	3a 47       	mov	@r7+,	r10	
    1870:	28 31       	jn	$+594    	;abs 0x1ac2
    1872:	2c 31       	jn	$+602    	;abs 0x1acc
    1874:	29 00       	.word	0x0029;	????	
    1876:	55 43       	mov.b	#1,	r5	;r3 As==01
    1878:	42 30       	jn	$+134    	;abs 0x18fe
    187a:	42 52       	rla.b	r2		
    187c:	30 3a       	jl	$-926    	;abs 0x14de
    187e:	47 28       	jnc	$+144    	;abs 0x190e
    1880:	31 2c       	jc	$+100    	;abs 0x18e4
    1882:	31 29       	jnc	$+612    	;abs 0x1ae6
    1884:	00 55       	add	r5,	r0	
    1886:	43 42       	.word	0x4243;	????	Illegal as 2-op instr
    1888:	30 42       	br	#8		;r2 As==11
    188a:	52 31       	jn	$+678    	;abs 0x1b30
    188c:	3a 47       	mov	@r7+,	r10	
    188e:	28 31       	jn	$+594    	;abs 0x1ae0
    1890:	2c 31       	jn	$+602    	;abs 0x1aea
    1892:	29 00       	.word	0x0029;	????	
    1894:	55 43       	mov.b	#1,	r5	;r3 As==01
    1896:	42 30       	jn	$+134    	;abs 0x191c
    1898:	49 32       	jn	$-876    	;abs 0x152c
    189a:	43 49       	.word	0x4943;	????	Illegal as 2-op instr
    189c:	45 3a       	jl	$-884    	;abs 0x1528
    189e:	47 28       	jnc	$+144    	;abs 0x192e
    18a0:	31 2c       	jc	$+100    	;abs 0x1904
    18a2:	31 29       	jnc	$+612    	;abs 0x1b06
    18a4:	00 55       	add	r5,	r0	
    18a6:	43 42       	.word	0x4243;	????	Illegal as 2-op instr
    18a8:	30 53       	add	#-1,	r0	;r3 As==11
    18aa:	54 41 54 3a 	mov.b	14932(r1),r4	;0x3a54(r1)
    18ae:	47 28       	jnc	$+144    	;abs 0x193e
    18b0:	31 2c       	jc	$+100    	;abs 0x1914
    18b2:	31 29       	jnc	$+612    	;abs 0x1b16
    18b4:	00 55       	add	r5,	r0	
    18b6:	43 42       	.word	0x4243;	????	Illegal as 2-op instr
    18b8:	30 52       	add	#8,	r0	;r2 As==11
    18ba:	58 42 55 46 	mov.b	&0x4655,r8	
    18be:	3a 47       	mov	@r7+,	r10	
    18c0:	28 31       	jn	$+594    	;abs 0x1b12
    18c2:	2c 31       	jn	$+602    	;abs 0x1b1c
    18c4:	29 00       	.word	0x0029;	????	
    18c6:	55 43       	mov.b	#1,	r5	;r3 As==01
    18c8:	42 30       	jn	$+134    	;abs 0x194e
    18ca:	54 58 42 55 	add.b	21826(r8),r4	;0x5542(r8)
    18ce:	46 3a       	jl	$-882    	;abs 0x155c
    18d0:	47 28       	jnc	$+144    	;abs 0x1960
    18d2:	31 2c       	jc	$+100    	;abs 0x1936
    18d4:	31 29       	jnc	$+612    	;abs 0x1b38
    18d6:	00 55       	add	r5,	r0	
    18d8:	43 42       	.word	0x4243;	????	Illegal as 2-op instr
    18da:	30 49       	br	@r9+		
    18dc:	32 43       	mov	#-1,	r2	;r3 As==11
    18de:	4f 41       	mov.b	r1,	r15	
    18e0:	3a 47       	mov	@r7+,	r10	
    18e2:	28 31       	jn	$+594    	;abs 0x1b34
    18e4:	31 2c       	jc	$+100    	;abs 0x1948
    18e6:	38 29       	jnc	$+626    	;abs 0x1b58
    18e8:	00 55       	add	r5,	r0	
    18ea:	43 42       	.word	0x4243;	????	Illegal as 2-op instr
    18ec:	30 49       	br	@r9+		
    18ee:	32 43       	mov	#-1,	r2	;r3 As==11
    18f0:	53 41       	.word	0x4153;	????	Illegal as 2-op instr
    18f2:	3a 47       	mov	@r7+,	r10	
    18f4:	28 31       	jn	$+594    	;abs 0x1b46
    18f6:	31 2c       	jc	$+100    	;abs 0x195a
    18f8:	38 29       	jnc	$+626    	;abs 0x1b6a
    18fa:	00 57       	add	r7,	r0	
    18fc:	44 54       	rla.b	r4		
    18fe:	43 54       	.word	0x5443;	????	Illegal as 2-op instr
    1900:	4c 3a       	jl	$-870    	;abs 0x159a
    1902:	47 28       	jnc	$+144    	;abs 0x1992
    1904:	31 31       	jn	$+612    	;abs 0x1b68
    1906:	2c 38       	jl	$+90     	;abs 0x1960
    1908:	29 00       	.word	0x0029;	????	
    190a:	49 45       	mov.b	r5,	r9	
    190c:	31 3a       	jl	$-924    	;abs 0x1570
    190e:	47 28       	jnc	$+144    	;abs 0x199e
    1910:	31 2c       	jc	$+100    	;abs 0x1974
    1912:	31 29       	jnc	$+612    	;abs 0x1b76
    1914:	00 49       	br	r9		
    1916:	46 47       	mov.b	r7,	r6	
    1918:	31 3a       	jl	$-924    	;abs 0x157c
    191a:	47 28       	jnc	$+144    	;abs 0x19aa
    191c:	31 2c       	jc	$+100    	;abs 0x1980
    191e:	31 29       	jnc	$+612    	;abs 0x1b82
    1920:	00 49       	br	r9		
    1922:	45 32       	jn	$-884    	;abs 0x15ae
    1924:	3a 47       	mov	@r7+,	r10	
    1926:	28 31       	jn	$+594    	;abs 0x1b78
    1928:	2c 31       	jn	$+602    	;abs 0x1b82
    192a:	29 00       	.word	0x0029;	????	
    192c:	49 46       	mov.b	r6,	r9	
    192e:	47 32       	jn	$-880    	;abs 0x15be
    1930:	3a 47       	mov	@r7+,	r10	
    1932:	28 31       	jn	$+594    	;abs 0x1b84
    1934:	2c 31       	jn	$+602    	;abs 0x1b8e
    1936:	29 00       	.word	0x0029;	????	
    1938:	43 41       	.word	0x4143;	????	Illegal as 2-op instr
    193a:	4c 44       	mov.b	r4,	r12	
    193c:	43 4f       	.word	0x4f43;	????	Illegal as 2-op instr
    193e:	5f 31       	jn	$+704    	;abs 0x1bfe
    1940:	36 4d       	mov	@r13+,	r6	
    1942:	48 5a       	add.b	r10,	r8	
    1944:	3a 47       	mov	@r7+,	r10	
    1946:	28 31       	jn	$+594    	;abs 0x1b98
    1948:	2c 31       	jn	$+602    	;abs 0x1ba2
    194a:	29 00       	.word	0x0029;	????	
    194c:	43 41       	.word	0x4143;	????	Illegal as 2-op instr
    194e:	4c 42       	mov.b	r2,	r12	
    1950:	43 31       	jn	$+648    	;abs 0x1bd8
    1952:	5f 31       	jn	$+704    	;abs 0x1c12
    1954:	36 4d       	mov	@r13+,	r6	
    1956:	48 5a       	add.b	r10,	r8	
    1958:	3a 47       	mov	@r7+,	r10	
    195a:	28 31       	jn	$+594    	;abs 0x1bac
    195c:	2c 31       	jn	$+602    	;abs 0x1bb6
    195e:	29 00       	.word	0x0029;	????	
    1960:	43 41       	.word	0x4143;	????	Illegal as 2-op instr
    1962:	4c 44       	mov.b	r4,	r12	
    1964:	43 4f       	.word	0x4f43;	????	Illegal as 2-op instr
    1966:	5f 31       	jn	$+704    	;abs 0x1c26
    1968:	32 4d       	mov	@r13+,	r2	
    196a:	48 5a       	add.b	r10,	r8	
    196c:	3a 47       	mov	@r7+,	r10	
    196e:	28 31       	jn	$+594    	;abs 0x1bc0
    1970:	2c 31       	jn	$+602    	;abs 0x1bca
    1972:	29 00       	.word	0x0029;	????	
    1974:	43 41       	.word	0x4143;	????	Illegal as 2-op instr
    1976:	4c 42       	mov.b	r2,	r12	
    1978:	43 31       	jn	$+648    	;abs 0x1c00
    197a:	5f 31       	jn	$+704    	;abs 0x1c3a
    197c:	32 4d       	mov	@r13+,	r2	
    197e:	48 5a       	add.b	r10,	r8	
    1980:	3a 47       	mov	@r7+,	r10	
    1982:	28 31       	jn	$+594    	;abs 0x1bd4
    1984:	2c 31       	jn	$+602    	;abs 0x1bde
    1986:	29 00       	.word	0x0029;	????	
    1988:	43 41       	.word	0x4143;	????	Illegal as 2-op instr
    198a:	4c 44       	mov.b	r4,	r12	
    198c:	43 4f       	.word	0x4f43;	????	Illegal as 2-op instr
    198e:	5f 38       	jl	$+192    	;abs 0x1a4e
    1990:	4d 48       	mov.b	r8,	r13	
    1992:	5a 3a       	jl	$-842    	;abs 0x1648
    1994:	47 28       	jnc	$+144    	;abs 0x1a24
    1996:	31 2c       	jc	$+100    	;abs 0x19fa
    1998:	31 29       	jnc	$+612    	;abs 0x1bfc
    199a:	00 43       	clr	r0		
    199c:	41 4c       	mov.b	r12,	r1	
    199e:	42 43       	clr.b	r2		
    19a0:	31 5f       	add	@r15+,	r1	
    19a2:	38 4d       	mov	@r13+,	r8	
    19a4:	48 5a       	add.b	r10,	r8	
    19a6:	3a 47       	mov	@r7+,	r10	
    19a8:	28 31       	jn	$+594    	;abs 0x1bfa
    19aa:	2c 31       	jn	$+602    	;abs 0x1c04
    19ac:	29 00       	.word	0x0029;	????	
    19ae:	43 41       	.word	0x4143;	????	Illegal as 2-op instr
    19b0:	4c 44       	mov.b	r4,	r12	
    19b2:	43 4f       	.word	0x4f43;	????	Illegal as 2-op instr
    19b4:	5f 31       	jn	$+704    	;abs 0x1c74
    19b6:	4d 48       	mov.b	r8,	r13	
    19b8:	5a 3a       	jl	$-842    	;abs 0x166e
    19ba:	47 28       	jnc	$+144    	;abs 0x1a4a
    19bc:	31 2c       	jc	$+100    	;abs 0x1a20
    19be:	31 29       	jnc	$+612    	;abs 0x1c22
    19c0:	00 43       	clr	r0		
    19c2:	41 4c       	mov.b	r12,	r1	
    19c4:	42 43       	clr.b	r2		
    19c6:	31 5f       	add	@r15+,	r1	
    19c8:	31 4d       	mov	@r13+,	r1	
    19ca:	48 5a       	add.b	r10,	r8	
    19cc:	3a 47       	mov	@r7+,	r10	
    19ce:	28 31       	jn	$+594    	;abs 0x1c20
    19d0:	2c 31       	jn	$+602    	;abs 0x1c2a
    19d2:	29 00       	.word	0x0029;	????	
    19d4:	63 3a       	jl	$-824    	;abs 0x169c
    19d6:	5c 77 6f 72 	subc.b	29295(r7),r12	;0x726f(r7)
    19da:	6b 5c       	add.b	@r12,	r11	
    19dc:	6d 73       	subc.b	#2,	r13	;r3 As==10
    19de:	70 67       	addc.b	@r7+,	r0	
    19e0:	63 63       	.word	0x6363;	????	Illegal as 2-op instr
    19e2:	5c 73       	subc.b	#1,	r12	;r3 As==01
    19e4:	66 5c       	add.b	@r12,	r6	
    19e6:	70 61       	addc.b	@r1+,	r0	
    19e8:	63 6b       	.word	0x6b63;	????	Illegal as 2-op instr
    19ea:	61 67       	addc.b	@r7,	r1	
    19ec:	69 6e       	addc.b	@r14,	r9	
    19ee:	67 5c       	add.b	@r12,	r7	
    19f0:	62 75       	subc.b	@r5,	r2	
    19f2:	69 6c       	addc.b	@r12,	r9	
    19f4:	64 5c       	add.b	@r12,	r4	
    19f6:	67 63       	addc.b	#2,	r7	;r3 As==10
    19f8:	63 2d       	jc	$+712    	;abs 0x1cc0
    19fa:	33 2e       	jc	$-920    	;abs 0x1662
    19fc:	32 2e       	jc	$-922    	;abs 0x1662
    19fe:	33 5c       	.word	0x5c33;	????	Illegal as 2-op instr
    1a00:	67 63       	addc.b	#2,	r7	;r3 As==10
    1a02:	63 2f       	jc	$-312    	;abs 0x18ca
    1a04:	00 66       	addc	r6,	r0	
    1a06:	70 2d       	jc	$+738    	;abs 0x1ce8
    1a08:	62 69       	addc.b	@r9,	r2	
    1a0a:	74 2e       	jc	$-790    	;abs 0x16f4
    1a0c:	63 00       	.word	0x0063;	????	
    1a0e:	74 63       	addc.b	#-1,	r4	;r3 As==11
    1a10:	6f 6e       	addc.b	@r14,	r15	
    1a12:	66 69       	addc.b	@r9,	r6	
    1a14:	67 2e       	jc	$-816    	;abs 0x16e4
    1a16:	68 00       	.word	0x0068;	????	
    1a18:	72 74       	subc.b	@r4+,	r2	
    1a1a:	78 3a       	jl	$-782    	;abs 0x170c
    1a1c:	74 28       	jnc	$+234    	;abs 0x1b06
    1a1e:	32 2c       	jc	$+102    	;abs 0x1a84
    1a20:	31 29       	jnc	$+612    	;abs 0x1c84
    1a22:	3d 28       	jnc	$+124    	;abs 0x1a9e
    1a24:	32 2c       	jc	$+102    	;abs 0x1a8a
    1a26:	32 29       	jnc	$+614    	;abs 0x1c8c
    1a28:	3d 2a       	jnc	$-900    	;abs 0x16a4
    1a2a:	28 32       	jn	$-942    	;abs 0x167c
    1a2c:	2c 33       	jn	$-422    	;abs 0x1886
    1a2e:	29 3d       	jmp	$+596    	;abs 0x1c82
    1a30:	78 73       	subc.b	#-1,	r8	;r3 As==11
    1a32:	72 74       	subc.b	@r4+,	r2	
    1a34:	78 5f       	add.b	@r15+,	r8	
    1a36:	64 65       	addc.b	@r5,	r4	
    1a38:	66 3a       	jl	$-818    	;abs 0x1706
    1a3a:	00 72       	subc	r2,	r0	
    1a3c:	74 76       	subc.b	@r6+,	r4	
    1a3e:	65 63       	addc.b	#2,	r5	;r3 As==10
    1a40:	3a 74       	subc	@r4+,	r10	
    1a42:	28 32       	jn	$-942    	;abs 0x1694
    1a44:	2c 34       	jge	$+90     	;abs 0x1a9e
    1a46:	29 3d       	jmp	$+596    	;abs 0x1c9a
    1a48:	28 32       	jn	$-942    	;abs 0x169a
    1a4a:	2c 35       	jge	$+602    	;abs 0x1ca4
    1a4c:	29 3d       	jmp	$+596    	;abs 0x1ca0
    1a4e:	2a 28       	jnc	$+86     	;abs 0x1aa4
    1a50:	32 2c       	jc	$+102    	;abs 0x1ab6
    1a52:	36 29       	jnc	$+622    	;abs 0x1cc0
    1a54:	3d 78       	subc	@r8+,	r13	
    1a56:	73 72       	.word	0x7273;	????	Illegal as 2-op instr
    1a58:	74 76       	subc.b	@r6+,	r4	
    1a5a:	65 63       	addc.b	#2,	r5	;r3 As==10
    1a5c:	5f 64 65 66 	addc.b	26213(r4),r15	;0x6665(r4)
    1a60:	3a 00       	.word	0x003a;	????	
    1a62:	74 72       	subc.b	#8,	r4	;r2 As==11
    1a64:	65 65       	addc.b	@r5,	r5	
    1a66:	3a 74       	subc	@r4+,	r10	
    1a68:	28 32       	jn	$-942    	;abs 0x16ba
    1a6a:	2c 37       	jge	$-422    	;abs 0x18c4
    1a6c:	29 3d       	jmp	$+596    	;abs 0x1cc0
    1a6e:	28 32       	jn	$-942    	;abs 0x16c0
    1a70:	2c 38       	jl	$+90     	;abs 0x1aca
    1a72:	29 3d       	jmp	$+596    	;abs 0x1cc6
    1a74:	2a 28       	jnc	$+86     	;abs 0x1aca
    1a76:	32 2c       	jc	$+102    	;abs 0x1adc
    1a78:	39 29       	jnc	$+628    	;abs 0x1cec
    1a7a:	3d 78       	subc	@r8+,	r13	
    1a7c:	75 74       	subc.b	@r4+,	r5	
    1a7e:	72 65       	addc.b	@r5+,	r2	
    1a80:	65 5f       	add.b	@r15,	r5	
    1a82:	6e 6f       	addc.b	@r15,	r14	
    1a84:	64 65       	addc.b	@r5,	r4	
    1a86:	3a 00       	.word	0x003a;	????	
    1a88:	2e 2e       	jc	$-930    	;abs 0x16e6
    1a8a:	2f 69       	addc	@r9,	r15	
    1a8c:	6e 63       	addc.b	#2,	r14	;r3 As==10
    1a8e:	6c 75       	subc.b	@r5,	r12	
    1a90:	64 65       	addc.b	@r5,	r4	
    1a92:	2f 61       	addc	@r1,	r15	
    1a94:	6e 73       	subc.b	#2,	r14	;r3 As==10
    1a96:	69 64       	addc.b	@r4,	r9	
    1a98:	65 63       	addc.b	#2,	r5	;r3 As==10
    1a9a:	6c 2e       	jc	$-806    	;abs 0x1774
    1a9c:	68 00       	.word	0x0068;	????	
    1a9e:	63 6f       	.word	0x6f63;	????	Illegal as 2-op instr
    1aa0:	6e 66       	addc.b	@r6,	r14	
    1aa2:	69 67       	addc.b	@r7,	r9	
    1aa4:	2f 69       	addc	@r9,	r15	
    1aa6:	33 38       	jl	$+104    	;abs 0x1b0e
    1aa8:	36 2f       	jc	$-402    	;abs 0x1916
    1aaa:	78 6d       	addc.b	@r13+,	r8	
    1aac:	2d 6d       	addc	@r13,	r13	
    1aae:	69 6e       	addc.b	@r14,	r9	
    1ab0:	67 77       	subc.b	@r7,	r7	
    1ab2:	33 32       	jn	$-920    	;abs 0x171a
    1ab4:	2e 68       	addc	@r8,	r14	
    1ab6:	00 63       	adc	r0		
    1ab8:	6f 6e       	addc.b	@r14,	r15	
    1aba:	66 69       	addc.b	@r9,	r6	
    1abc:	67 2f       	jc	$-304    	;abs 0x198c
    1abe:	6d 73       	subc.b	#2,	r13	;r3 As==10
    1ac0:	70 34       	jge	$+226    	;abs 0x1ba2
    1ac2:	33 30       	jn	$+104    	;abs 0x1b2a
    1ac4:	2f 6d       	addc	@r13,	r15	
    1ac6:	73 70       	.word	0x7073;	????	Illegal as 2-op instr
    1ac8:	34 33       	jn	$-406    	;abs 0x1932
    1aca:	30 2e       	jc	$-926    	;abs 0x172c
    1acc:	68 00       	.word	0x0068;	????	
    1ace:	72 65       	addc.b	@r5+,	r2	
    1ad0:	67 5f       	add.b	@r15,	r7	
    1ad2:	63 6c       	.word	0x6c63;	????	Illegal as 2-op instr
    1ad4:	61 73       	subc.b	#2,	r1	;r3 As==10
    1ad6:	73 3a       	jl	$-792    	;abs 0x17be
    1ad8:	54 28       	jnc	$+170    	;abs 0x1b82
    1ada:	35 2c       	jc	$+108    	;abs 0x1b46
    1adc:	31 29       	jnc	$+612    	;abs 0x1d40
    1ade:	3d 65       	addc	@r5+,	r13	
    1ae0:	4e 4f       	mov.b	r15,	r14	
    1ae2:	5f 52 45 47 	add.b	&0x4745,r15	
    1ae6:	53 3a       	jl	$-856    	;abs 0x178e
    1ae8:	30 2c       	jc	$+98     	;abs 0x1b4a
    1aea:	50 43       	br	#1		;r3 As==01
    1aec:	5f 52 45 47 	add.b	&0x4745,r15	
    1af0:	3a 31       	jn	$+630    	;abs 0x1d66
    1af2:	2c 53       	incd	r12		
    1af4:	50 5f 52 45 	add.b	17746(r15),r0	;0x4552(r15)
    1af8:	47 3a       	jl	$-880    	;abs 0x1788
    1afa:	32 2c       	jc	$+102    	;abs 0x1b60
    1afc:	53 54       	.word	0x5453;	????	Illegal as 2-op instr
    1afe:	41 43       	clr.b	r1		
    1b00:	4b 5f       	add.b	r15,	r11	
    1b02:	52 45 47 53 	mov.b	21319(r5),r2	;0x5347(r5)
    1b06:	3a 33       	jn	$-394    	;abs 0x197c
    1b08:	2c 43       	mov	#2,	r12	;r3 As==10
    1b0a:	47 31       	jn	$+656    	;abs 0x1d9a
    1b0c:	5f 52 45 47 	add.b	&0x4745,r15	
    1b10:	3a 34       	jge	$+118    	;abs 0x1b86
    1b12:	2c 43       	mov	#2,	r12	;r3 As==10
    1b14:	47 32       	jn	$-880    	;abs 0x17a4
    1b16:	5f 52 45 47 	add.b	&0x4745,r15	
    1b1a:	3a 35       	jge	$+630    	;abs 0x1d90
    1b1c:	2c 43       	mov	#2,	r12	;r3 As==10
    1b1e:	47 5f       	add.b	r15,	r7	
    1b20:	52 45 47 53 	mov.b	21319(r5),r2	;0x5347(r5)
    1b24:	3a 36       	jge	$-906    	;abs 0x179a
    1b26:	2c 47       	mov	@r7,	r12	
    1b28:	45 4e       	mov.b	r14,	r5	
    1b2a:	45 52       	add.b	r2,	r5	
    1b2c:	41 4c       	mov.b	r12,	r1	
    1b2e:	5f 52 45 47 	add.b	&0x4745,r15	
    1b32:	53 3a       	jl	$-856    	;abs 0x17da
    1b34:	37 2c       	jc	$+112    	;abs 0x1ba4
    1b36:	50 4f 49 4e 	br	20041(r15)	;0x4e49(r15)
    1b3a:	54 45 52 5f 	mov.b	24402(r5),r4	;0x5f52(r5)
    1b3e:	52 45 47 53 	mov.b	21319(r5),r2	;0x5347(r5)
    1b42:	3a 38       	jl	$+118    	;abs 0x1bb8
    1b44:	2c 46       	mov	@r6,	r12	
    1b46:	46 4f       	mov.b	r15,	r6	
    1b48:	55 52 5f 52 	add.b	&0x525f,r5	
    1b4c:	45 47       	mov.b	r7,	r5	
    1b4e:	3a 39       	jl	$+630    	;abs 0x1dc4
    1b50:	2c 41       	mov	@r1,	r12	
    1b52:	4c 4c       	mov.b	r12,	r12	
    1b54:	5f 52 45 47 	add.b	&0x4745,r15	
    1b58:	53 3a       	jl	$-856    	;abs 0x1800
    1b5a:	31 30       	jn	$+100    	;abs 0x1bbe
    1b5c:	2c 4c       	mov	@r12,	r12	
    1b5e:	49 4d       	mov.b	r13,	r9	
    1b60:	5f 52 45 47 	add.b	&0x4745,r15	
    1b64:	5f 43       	mov.b	#1,	r15	;r3 As==01
    1b66:	4c 41       	mov.b	r1,	r12	
    1b68:	53 53       	inc.b	#0		;r3 As==00
    1b6a:	45 53       	add.b	#0,	r5	;r3 As==00
    1b6c:	3a 31       	jn	$+630    	;abs 0x1de2
    1b6e:	31 2c       	jc	$+100    	;abs 0x1bd2
    1b70:	3b 00       	.word	0x003b;	????	
    1b72:	6d 73       	subc.b	#2,	r13	;r3 As==10
    1b74:	70 34       	jge	$+226    	;abs 0x1c56
    1b76:	33 30       	jn	$+104    	;abs 0x1bde
    1b78:	5f 61 72 67 	addc.b	26482(r1),r15	;0x6772(r1)
    1b7c:	73 3a       	jl	$-792    	;abs 0x1864
    1b7e:	54 28       	jnc	$+170    	;abs 0x1c28
    1b80:	35 2c       	jc	$+108    	;abs 0x1bec
    1b82:	32 29       	jnc	$+614    	;abs 0x1de8
    1b84:	3d 73       	subc	#-1,	r13	;r3 As==11
    1b86:	34 6e       	addc	@r14+,	r4	
    1b88:	72 65       	addc.b	@r5+,	r2	
    1b8a:	67 73       	subc.b	#2,	r7	;r3 As==10
    1b8c:	3a 28       	jnc	$+118    	;abs 0x1c02
    1b8e:	30 2c       	jc	$+98     	;abs 0x1bf0
    1b90:	31 29       	jnc	$+612    	;abs 0x1df4
    1b92:	2c 30       	jn	$+90     	;abs 0x1bec
    1b94:	2c 31       	jn	$+602    	;abs 0x1dee
    1b96:	36 3b       	jl	$-402    	;abs 0x1a04
    1b98:	72 65       	addc.b	@r5+,	r2	
    1b9a:	67 6e       	addc.b	@r14,	r7	
    1b9c:	6f 3a       	jl	$-800    	;abs 0x187c
    1b9e:	28 30       	jn	$+82     	;abs 0x1bf0
    1ba0:	2c 31       	jn	$+602    	;abs 0x1dfa
    1ba2:	29 2c       	jc	$+84     	;abs 0x1bf6
    1ba4:	31 36       	jge	$-924    	;abs 0x1808
    1ba6:	2c 31       	jn	$+602    	;abs 0x1e00
    1ba8:	36 3b       	jl	$-402    	;abs 0x1a16
    1baa:	3b 00       	.word	0x003b;	????	
    1bac:	43 55       	.word	0x5543;	????	Illegal as 2-op instr
    1bae:	4d 55       	add.b	r5,	r13	
    1bb0:	4c 41       	mov.b	r1,	r12	
    1bb2:	54 49 56 45 	mov.b	17750(r9),r4	;0x4556(r9)
    1bb6:	5f 41 52 47 	mov.b	18258(r1),r15	;0x4752(r1)
    1bba:	53 3a       	jl	$-856    	;abs 0x1862
    1bbc:	74 28       	jnc	$+234    	;abs 0x1ca6
    1bbe:	35 2c       	jc	$+108    	;abs 0x1c2a
    1bc0:	33 29       	jnc	$+616    	;abs 0x1e28
    1bc2:	3d 28       	jnc	$+124    	;abs 0x1c3e
    1bc4:	35 2c       	jc	$+108    	;abs 0x1c30
    1bc6:	32 29       	jnc	$+614    	;abs 0x1e2c
    1bc8:	00 63       	adc	r0		
    1bca:	6f 6e       	addc.b	@r14,	r15	
    1bcc:	66 69       	addc.b	@r9,	r6	
    1bce:	67 2f       	jc	$-304    	;abs 0x1a9e
    1bd0:	64 62       	addc.b	#4,	r4	;r2 As==10
    1bd2:	78 65       	addc.b	@r5+,	r8	
    1bd4:	6c 66       	addc.b	@r6,	r12	
    1bd6:	2e 68       	addc	@r8,	r14	
    1bd8:	00 64       	addc	r4,	r0	
    1bda:	65 66       	addc.b	@r6,	r5	
    1bdc:	61 75       	subc.b	@r5,	r1	
    1bde:	6c 74       	subc.b	@r4,	r12	
    1be0:	73 2e       	jc	$-792    	;abs 0x18c8
    1be2:	68 00       	.word	0x0068;	????	
    1be4:	63 6f       	.word	0x6f63;	????	Illegal as 2-op instr
    1be6:	6e 66       	addc.b	@r6,	r14	
    1be8:	69 67       	addc.b	@r7,	r9	
    1bea:	2f 66       	addc	@r6,	r15	
    1bec:	70 2d       	jc	$+738    	;abs 0x1ece
    1bee:	62 69       	addc.b	@r9,	r2	
    1bf0:	74 2e       	jc	$-790    	;abs 0x18da
    1bf2:	68 00       	.word	0x0068;	????	
    1bf4:	53 46       	.word	0x4653;	????	Illegal as 2-op instr
    1bf6:	74 79       	subc.b	@r9+,	r4	
    1bf8:	70 65       	addc.b	@r5+,	r0	
    1bfa:	3a 74       	subc	@r4+,	r10	
    1bfc:	28 38       	jl	$+82     	;abs 0x1c4e
    1bfe:	2c 31       	jn	$+602    	;abs 0x1e58
    1c00:	29 3d       	jmp	$+596    	;abs 0x1e54
    1c02:	28 30       	jn	$+82     	;abs 0x1c54
    1c04:	2c 31       	jn	$+602    	;abs 0x1e5e
    1c06:	32 29       	jnc	$+614    	;abs 0x1e6c
    1c08:	00 44       	br	r4		
    1c0a:	46 74       	subc.b	r4,	r6	
    1c0c:	79 70 65 3a 	subc.b	#14949,	r9	;#0x3a65
    1c10:	74 28       	jnc	$+234    	;abs 0x1cfa
    1c12:	38 2c       	jc	$+114    	;abs 0x1c84
    1c14:	32 29       	jnc	$+614    	;abs 0x1e7a
    1c16:	3d 28       	jnc	$+124    	;abs 0x1c92
    1c18:	30 2c       	jc	$+98     	;abs 0x1c7a
    1c1a:	31 32       	jn	$-924    	;abs 0x187e
    1c1c:	29 00       	.word	0x0029;	????	
    1c1e:	48 49       	mov.b	r9,	r8	
    1c20:	74 79       	subc.b	@r9+,	r4	
    1c22:	70 65       	addc.b	@r5+,	r0	
    1c24:	3a 74       	subc	@r4+,	r10	
    1c26:	28 38       	jl	$+82     	;abs 0x1c78
    1c28:	2c 33       	jn	$-422    	;abs 0x1a82
    1c2a:	29 3d       	jmp	$+596    	;abs 0x1e7e
    1c2c:	28 30       	jn	$+82     	;abs 0x1c7e
    1c2e:	2c 31       	jn	$+602    	;abs 0x1e88
    1c30:	29 00       	.word	0x0029;	????	
    1c32:	53 49       	.word	0x4953;	????	Illegal as 2-op instr
    1c34:	74 79       	subc.b	@r9+,	r4	
    1c36:	70 65       	addc.b	@r5+,	r0	
    1c38:	3a 74       	subc	@r4+,	r10	
    1c3a:	28 38       	jl	$+82     	;abs 0x1c8c
    1c3c:	2c 34       	jge	$+90     	;abs 0x1c96
    1c3e:	29 3d       	jmp	$+596    	;abs 0x1e92
    1c40:	28 30       	jn	$+82     	;abs 0x1c92
    1c42:	2c 33       	jn	$-422    	;abs 0x1a9c
    1c44:	29 00       	.word	0x0029;	????	
    1c46:	44 49       	mov.b	r9,	r4	
    1c48:	74 79       	subc.b	@r9+,	r4	
    1c4a:	70 65       	addc.b	@r5+,	r0	
    1c4c:	3a 74       	subc	@r4+,	r10	
    1c4e:	28 38       	jl	$+82     	;abs 0x1ca0
    1c50:	2c 35       	jge	$+602    	;abs 0x1eaa
    1c52:	29 3d       	jmp	$+596    	;abs 0x1ea6
    1c54:	28 30       	jn	$+82     	;abs 0x1ca6
    1c56:	2c 33       	jn	$-422    	;abs 0x1ab0
    1c58:	29 00       	.word	0x0029;	????	
    1c5a:	55 48 49 74 	mov.b	29769(r8),r5	;0x7449(r8)
    1c5e:	79 70 65 3a 	subc.b	#14949,	r9	;#0x3a65
    1c62:	74 28       	jnc	$+234    	;abs 0x1d4c
    1c64:	38 2c       	jc	$+114    	;abs 0x1cd6
    1c66:	36 29       	jnc	$+622    	;abs 0x1ed4
    1c68:	3d 28       	jnc	$+124    	;abs 0x1ce4
    1c6a:	30 2c       	jc	$+98     	;abs 0x1ccc
    1c6c:	34 29       	jnc	$+618    	;abs 0x1ed6
    1c6e:	00 55       	add	r5,	r0	
    1c70:	53 49       	.word	0x4953;	????	Illegal as 2-op instr
    1c72:	74 79       	subc.b	@r9+,	r4	
    1c74:	70 65       	addc.b	@r5+,	r0	
    1c76:	3a 74       	subc	@r4+,	r10	
    1c78:	28 38       	jl	$+82     	;abs 0x1cca
    1c7a:	2c 37       	jge	$-422    	;abs 0x1ad4
    1c7c:	29 3d       	jmp	$+596    	;abs 0x1ed0
    1c7e:	28 30       	jn	$+82     	;abs 0x1cd0
    1c80:	2c 35       	jge	$+602    	;abs 0x1eda
    1c82:	29 00       	.word	0x0029;	????	
    1c84:	55 44 49 74 	mov.b	29769(r4),r5	;0x7449(r4)
    1c88:	79 70 65 3a 	subc.b	#14949,	r9	;#0x3a65
    1c8c:	74 28       	jnc	$+234    	;abs 0x1d76
    1c8e:	38 2c       	jc	$+114    	;abs 0x1d00
    1c90:	38 29       	jnc	$+626    	;abs 0x1f02
    1c92:	3d 28       	jnc	$+124    	;abs 0x1d0e
    1c94:	30 2c       	jc	$+98     	;abs 0x1cf6
    1c96:	35 29       	jnc	$+620    	;abs 0x1f02
    1c98:	00 66       	addc	r6,	r0	
    1c9a:	72 61       	addc.b	@r1+,	r2	
    1c9c:	63 74       	.word	0x7463;	????	Illegal as 2-op instr
    1c9e:	79 70 65 3a 	subc.b	#14949,	r9	;#0x3a65
    1ca2:	74 28       	jnc	$+234    	;abs 0x1d8c
    1ca4:	38 2c       	jc	$+114    	;abs 0x1d16
    1ca6:	39 29       	jnc	$+628    	;abs 0x1f1a
    1ca8:	3d 28       	jnc	$+124    	;abs 0x1d24
    1caa:	38 2c       	jc	$+114    	;abs 0x1d1c
    1cac:	37 29       	jnc	$+624    	;abs 0x1f1c
    1cae:	00 68       	addc	r8,	r0	
    1cb0:	61 6c       	addc.b	@r12,	r1	
    1cb2:	66 66       	addc.b	@r6,	r6	
    1cb4:	72 61       	addc.b	@r1+,	r2	
    1cb6:	63 74       	.word	0x7463;	????	Illegal as 2-op instr
    1cb8:	79 70 65 3a 	subc.b	#14949,	r9	;#0x3a65
    1cbc:	74 28       	jnc	$+234    	;abs 0x1da6
    1cbe:	38 2c       	jc	$+114    	;abs 0x1d30
    1cc0:	31 30       	jn	$+100    	;abs 0x1d24
    1cc2:	29 3d       	jmp	$+596    	;abs 0x1f16
    1cc4:	28 38       	jl	$+82     	;abs 0x1d16
    1cc6:	2c 36       	jge	$-934    	;abs 0x1920
    1cc8:	29 00       	.word	0x0029;	????	
    1cca:	46 4c       	mov.b	r12,	r6	
    1ccc:	4f 5f       	rla.b	r15		
    1cce:	74 79       	subc.b	@r9+,	r4	
    1cd0:	70 65       	addc.b	@r5+,	r0	
    1cd2:	3a 74       	subc	@r4+,	r10	
    1cd4:	28 38       	jl	$+82     	;abs 0x1d26
    1cd6:	2c 31       	jn	$+602    	;abs 0x1f30
    1cd8:	31 29       	jnc	$+612    	;abs 0x1f3c
    1cda:	3d 28       	jnc	$+124    	;abs 0x1d56
    1cdc:	38 2c       	jc	$+114    	;abs 0x1d4e
    1cde:	31 29       	jnc	$+612    	;abs 0x1f42
    1ce0:	00 69       	addc	r9,	r0	
    1ce2:	6e 74       	subc.b	@r4,	r14	
    1ce4:	66 72       	subc.b	#4,	r6	;r2 As==10
    1ce6:	61 63       	addc.b	#2,	r1	;r3 As==10
    1ce8:	3a 74       	subc	@r4+,	r10	
    1cea:	28 38       	jl	$+82     	;abs 0x1d3c
    1cec:	2c 31       	jn	$+602    	;abs 0x1f46
    1cee:	32 29       	jnc	$+614    	;abs 0x1f54
    1cf0:	3d 28       	jnc	$+124    	;abs 0x1d6c
    1cf2:	38 2c       	jc	$+114    	;abs 0x1d64
    1cf4:	34 29       	jnc	$+618    	;abs 0x1f5e
    1cf6:	00 20       	jnz	$+2      	;abs 0x1cf8
    1cf8:	3a 54       	add	@r4+,	r10	
    1cfa:	28 38       	jl	$+82     	;abs 0x1d4c
    1cfc:	2c 31       	jn	$+602    	;abs 0x1f56
    1cfe:	33 29       	jnc	$+616    	;abs 0x1f66
    1d00:	3d 65       	addc	@r5+,	r13	
    1d02:	43 4c       	.word	0x4c43;	????	Illegal as 2-op instr
    1d04:	41 53       	add.b	#0,	r1	;r3 As==00
    1d06:	53 5f       	.word	0x5f53;	????	Illegal as 2-op instr
    1d08:	53 4e       	.word	0x4e53;	????	Illegal as 2-op instr
    1d0a:	41 4e       	mov.b	r14,	r1	
    1d0c:	3a 30       	jn	$+118    	;abs 0x1d82
    1d0e:	2c 43       	mov	#2,	r12	;r3 As==10
    1d10:	4c 41       	mov.b	r1,	r12	
    1d12:	53 53       	inc.b	#0		;r3 As==00
    1d14:	5f 51 4e 41 	add.b	16718(r1),r15	;0x414e(r1)
    1d18:	4e 3a       	jl	$-866    	;abs 0x19b6
    1d1a:	31 2c       	jc	$+100    	;abs 0x1d7e
    1d1c:	43 4c       	.word	0x4c43;	????	Illegal as 2-op instr
    1d1e:	41 53       	add.b	#0,	r1	;r3 As==00
    1d20:	53 5f       	.word	0x5f53;	????	Illegal as 2-op instr
    1d22:	5a 45 52 4f 	mov.b	20306(r5),r10	;0x4f52(r5)
    1d26:	3a 32       	jn	$-906    	;abs 0x199c
    1d28:	2c 43       	mov	#2,	r12	;r3 As==10
    1d2a:	4c 41       	mov.b	r1,	r12	
    1d2c:	53 53       	inc.b	#0		;r3 As==00
    1d2e:	5f 4e 55 4d 	mov.b	19797(r14),r15	;0x4d55(r14)
    1d32:	42 45       	mov.b	r5,	r2	
    1d34:	52 3a       	jl	$-858    	;abs 0x19da
    1d36:	33 2c       	jc	$+104    	;abs 0x1d9e
    1d38:	43 4c       	.word	0x4c43;	????	Illegal as 2-op instr
    1d3a:	41 53       	add.b	#0,	r1	;r3 As==00
    1d3c:	53 5f       	.word	0x5f53;	????	Illegal as 2-op instr
    1d3e:	49 4e       	mov.b	r14,	r9	
    1d40:	46 49       	mov.b	r9,	r6	
    1d42:	4e 49       	mov.b	r9,	r14	
    1d44:	54 59 3a 34 	add.b	13370(r9),r4	;0x343a(r9)
    1d48:	2c 3b       	jl	$-422    	;abs 0x1ba2
    1d4a:	00 66       	addc	r6,	r0	
    1d4c:	70 5f       	add.b	@r15+,	r0	
    1d4e:	63 6c       	.word	0x6c63;	????	Illegal as 2-op instr
    1d50:	61 73       	subc.b	#2,	r1	;r3 As==10
    1d52:	73 5f       	.word	0x5f73;	????	Illegal as 2-op instr
    1d54:	74 79       	subc.b	@r9+,	r4	
    1d56:	70 65       	addc.b	@r5+,	r0	
    1d58:	3a 74       	subc	@r4+,	r10	
    1d5a:	28 38       	jl	$+82     	;abs 0x1dac
    1d5c:	2c 31       	jn	$+602    	;abs 0x1fb6
    1d5e:	34 29       	jnc	$+618    	;abs 0x1fc8
    1d60:	3d 28       	jnc	$+124    	;abs 0x1ddc
    1d62:	38 2c       	jc	$+114    	;abs 0x1dd4
    1d64:	31 33       	jn	$-412    	;abs 0x1bc8
    1d66:	29 00       	.word	0x0029;	????	
    1d68:	66 70       	subc.b	@r0,	r6	
    1d6a:	5f 6e 75 6d 	addc.b	28021(r14),r15	;0x6d75(r14)
    1d6e:	62 65       	addc.b	@r5,	r2	
    1d70:	72 5f       	add.b	@r15+,	r2	
    1d72:	74 79       	subc.b	@r9+,	r4	
    1d74:	70 65       	addc.b	@r5+,	r0	
    1d76:	3a 74       	subc	@r4+,	r10	
    1d78:	28 38       	jl	$+82     	;abs 0x1dca
    1d7a:	2c 31       	jn	$+602    	;abs 0x1fd4
    1d7c:	35 29       	jnc	$+620    	;abs 0x1fe8
    1d7e:	3d 28       	jnc	$+124    	;abs 0x1dfa
    1d80:	38 2c       	jc	$+114    	;abs 0x1df2
    1d82:	31 36       	jge	$-924    	;abs 0x19e6
    1d84:	29 3d       	jmp	$+596    	;abs 0x1fd8
    1d86:	73 38       	jl	$+232    	;abs 0x1e6e
    1d88:	63 6c       	.word	0x6c63;	????	Illegal as 2-op instr
    1d8a:	61 73       	subc.b	#2,	r1	;r3 As==10
    1d8c:	73 3a       	jl	$-792    	;abs 0x1a74
    1d8e:	28 30       	jn	$+82     	;abs 0x1de0
    1d90:	2c 32       	jn	$-934    	;abs 0x19ea
    1d92:	29 2c       	jc	$+84     	;abs 0x1de6
    1d94:	30 2c       	jc	$+98     	;abs 0x1df6
    1d96:	38 3b       	jl	$-398    	;abs 0x1c08
    1d98:	73 69       	.word	0x6973;	????	Illegal as 2-op instr
    1d9a:	67 6e       	addc.b	@r14,	r7	
    1d9c:	3a 28       	jnc	$+118    	;abs 0x1e12
    1d9e:	30 2c       	jc	$+98     	;abs 0x1e00
    1da0:	31 31       	jn	$+612    	;abs 0x2004
    1da2:	29 2c       	jc	$+84     	;abs 0x1df6
    1da4:	38 2c       	jc	$+114    	;abs 0x1e16
    1da6:	38 3b       	jl	$-398    	;abs 0x1c18
    1da8:	6e 6f       	addc.b	@r15,	r14	
    1daa:	72 6d       	addc.b	@r13+,	r2	
    1dac:	61 6c       	addc.b	@r12,	r1	
    1dae:	5f 65 78 70 	addc.b	28792(r5),r15	;0x7078(r5)
    1db2:	3a 28       	jnc	$+118    	;abs 0x1e28
    1db4:	30 2c       	jc	$+98     	;abs 0x1e16
    1db6:	38 29       	jnc	$+626    	;abs 0x2028
    1db8:	2c 31       	jn	$+602    	;abs 0x2012
    1dba:	36 2c       	jc	$+110    	;abs 0x1e28
    1dbc:	31 36       	jge	$-924    	;abs 0x1a20
    1dbe:	3b 66       	addc	@r6+,	r11	
    1dc0:	72 61       	addc.b	@r1+,	r2	
    1dc2:	63 74       	.word	0x7463;	????	Illegal as 2-op instr
    1dc4:	69 6f       	addc.b	@r15,	r9	
    1dc6:	6e 3a       	jl	$-802    	;abs 0x1aa4
    1dc8:	28 38       	jl	$+82     	;abs 0x1e1a
    1dca:	2c 31       	jn	$+602    	;abs 0x2024
    1dcc:	37 29       	jnc	$+624    	;abs 0x203c
    1dce:	3d 75       	subc	@r5+,	r13	
    1dd0:	34 6c       	addc	@r12+,	r4	
    1dd2:	6c 3a       	jl	$-806    	;abs 0x1aac
    1dd4:	28 38       	jl	$+82     	;abs 0x1e26
    1dd6:	2c 39       	jl	$+602    	;abs 0x2030
    1dd8:	29 2c       	jc	$+84     	;abs 0x1e2c
    1dda:	30 2c       	jc	$+98     	;abs 0x1e3c
    1ddc:	33 32       	jn	$-920    	;abs 0x1a44
    1dde:	3b 6c       	addc	@r12+,	r11	
    1de0:	3a 28       	jnc	$+118    	;abs 0x1e56
    1de2:	38 2c       	jc	$+114    	;abs 0x1e54
    1de4:	31 38       	jl	$+100    	;abs 0x1e48
    1de6:	29 3d       	jmp	$+596    	;abs 0x203a
    1de8:	61 72       	subc.b	#4,	r1	;r2 As==10
    1dea:	28 38       	jl	$+82     	;abs 0x1e3c
    1dec:	2c 31       	jn	$+602    	;abs 0x2046
    1dee:	39 29       	jnc	$+628    	;abs 0x2062
    1df0:	3d 72       	subc	#8,	r13	;r2 As==11
    1df2:	28 38       	jl	$+82     	;abs 0x1e44
    1df4:	2c 31       	jn	$+602    	;abs 0x204e
    1df6:	39 29       	jnc	$+628    	;abs 0x206a
    1df8:	3b 30       	jn	$+120    	;abs 0x1e70
    1dfa:	30 30       	jn	$+98     	;abs 0x1e5c
    1dfc:	30 30       	jn	$+98     	;abs 0x1e5e
    1dfe:	30 30       	jn	$+98     	;abs 0x1e60
    1e00:	30 30       	jn	$+98     	;abs 0x1e62
    1e02:	30 30       	jn	$+98     	;abs 0x1e64
    1e04:	30 30       	jn	$+98     	;abs 0x1e66
    1e06:	3b 30       	jn	$+120    	;abs 0x1e7e
    1e08:	30 30       	jn	$+98     	;abs 0x1e6a
    1e0a:	30 30       	jn	$+98     	;abs 0x1e6c
    1e0c:	30 30       	jn	$+98     	;abs 0x1e6e
    1e0e:	31 37       	jge	$-412    	;abs 0x1c72
    1e10:	37 37       	jge	$-400    	;abs 0x1c80
    1e12:	37 37       	jge	$-400    	;abs 0x1c82
    1e14:	3b 3b       	jl	$-392    	;abs 0x1c8c
    1e16:	30 3b       	jl	$-414    	;abs 0x1c78
    1e18:	31 3b       	jl	$-412    	;abs 0x1c7c
    1e1a:	28 38       	jl	$+82     	;abs 0x1e6c
    1e1c:	2c 31       	jn	$+602    	;abs 0x2076
    1e1e:	30 29       	jnc	$+610    	;abs 0x2080
    1e20:	2c 30       	jn	$+90     	;abs 0x1e7a
    1e22:	2c 33       	jn	$-422    	;abs 0x1c7c
    1e24:	32 3b       	jl	$-410    	;abs 0x1c8a
    1e26:	3b 2c       	jc	$+120    	;abs 0x1e9e
    1e28:	33 32       	jn	$-920    	;abs 0x1a90
    1e2a:	2c 33       	jn	$-422    	;abs 0x1c84
    1e2c:	32 3b       	jl	$-410    	;abs 0x1c92
    1e2e:	3b 00       	.word	0x003b;	????	
    1e30:	46 4c       	mov.b	r12,	r6	
    1e32:	4f 5f       	rla.b	r15		
    1e34:	75 6e       	addc.b	@r14+,	r5	
    1e36:	69 6f       	addc.b	@r15,	r9	
    1e38:	6e 5f       	add.b	@r15,	r14	
    1e3a:	74 79       	subc.b	@r9+,	r4	
    1e3c:	70 65       	addc.b	@r5+,	r0	
    1e3e:	3a 74       	subc	@r4+,	r10	
    1e40:	28 38       	jl	$+82     	;abs 0x1e92
    1e42:	2c 32       	jn	$-934    	;abs 0x1a9c
    1e44:	30 29       	jnc	$+610    	;abs 0x20a6
    1e46:	3d 28       	jnc	$+124    	;abs 0x1ec2
    1e48:	38 2c       	jc	$+114    	;abs 0x1eba
    1e4a:	32 31       	jn	$+614    	;abs 0x20b0
    1e4c:	29 3d       	jmp	$+596    	;abs 0x20a0
    1e4e:	75 34       	jge	$+236    	;abs 0x1f3a
    1e50:	76 61       	addc.b	@r1+,	r6	
    1e52:	6c 75       	subc.b	@r5,	r12	
    1e54:	65 3a       	jl	$-820    	;abs 0x1b20
    1e56:	28 38       	jl	$+82     	;abs 0x1ea8
    1e58:	2c 31       	jn	$+602    	;abs 0x20b2
    1e5a:	31 29       	jnc	$+612    	;abs 0x20be
    1e5c:	2c 30       	jn	$+90     	;abs 0x1eb6
    1e5e:	2c 33       	jn	$-422    	;abs 0x1cb8
    1e60:	32 3b       	jl	$-410    	;abs 0x1cc6
    1e62:	76 61       	addc.b	@r1+,	r6	
    1e64:	6c 75       	subc.b	@r5,	r12	
    1e66:	65 5f       	add.b	@r15,	r5	
    1e68:	72 61       	addc.b	@r1+,	r2	
    1e6a:	77 3a       	jl	$-784    	;abs 0x1b5a
    1e6c:	28 38       	jl	$+82     	;abs 0x1ebe
    1e6e:	2c 39       	jl	$+602    	;abs 0x20c8
    1e70:	29 2c       	jc	$+84     	;abs 0x1ec4
    1e72:	30 2c       	jc	$+98     	;abs 0x1ed4
    1e74:	33 32       	jn	$-920    	;abs 0x1adc
    1e76:	3b 62       	addc	#8,	r11	;r2 As==11
    1e78:	69 74       	subc.b	@r4,	r9	
    1e7a:	73 3a       	jl	$-792    	;abs 0x1b62
    1e7c:	28 38       	jl	$+82     	;abs 0x1ece
    1e7e:	2c 32       	jn	$-934    	;abs 0x1ad8
    1e80:	32 29       	jnc	$+614    	;abs 0x20e6
    1e82:	3d 73       	subc	#-1,	r13	;r3 As==11
    1e84:	34 66       	addc	@r6+,	r4	
    1e86:	72 61       	addc.b	@r1+,	r2	
    1e88:	63 74       	.word	0x7463;	????	Illegal as 2-op instr
    1e8a:	69 6f       	addc.b	@r15,	r9	
    1e8c:	6e 3a       	jl	$-802    	;abs 0x1b6a
    1e8e:	28 38       	jl	$+82     	;abs 0x1ee0
    1e90:	2c 39       	jl	$+602    	;abs 0x20ea
    1e92:	29 2c       	jc	$+84     	;abs 0x1ee6
    1e94:	30 2c       	jc	$+98     	;abs 0x1ef6
    1e96:	32 33       	jn	$-410    	;abs 0x1cfc
    1e98:	3b 65       	addc	@r5+,	r11	
    1e9a:	78 70 3a 28 	subc.b	#10298,	r8	;#0x283a
    1e9e:	30 2c       	jc	$+98     	;abs 0x1f00
    1ea0:	34 29       	jnc	$+618    	;abs 0x210a
    1ea2:	2c 32       	jn	$-934    	;abs 0x1afc
    1ea4:	33 2c       	jc	$+104    	;abs 0x1f0c
    1ea6:	38 3b       	jl	$-398    	;abs 0x1d18
    1ea8:	73 69       	.word	0x6973;	????	Illegal as 2-op instr
    1eaa:	67 6e       	addc.b	@r14,	r7	
    1eac:	3a 28       	jnc	$+118    	;abs 0x1f22
    1eae:	30 2c       	jc	$+98     	;abs 0x1f10
    1eb0:	34 29       	jnc	$+618    	;abs 0x211a
    1eb2:	2c 33       	jn	$-422    	;abs 0x1d0c
    1eb4:	31 2c       	jc	$+100    	;abs 0x1f18
    1eb6:	31 3b       	jl	$-412    	;abs 0x1d1a
    1eb8:	3b 2c       	jc	$+120    	;abs 0x1f30
    1eba:	30 2c       	jc	$+98     	;abs 0x1f1c
    1ebc:	33 32       	jn	$-920    	;abs 0x1b24
    1ebe:	3b 3b       	jl	$-392    	;abs 0x1d36
    1ec0:	00 5f       	add	r15,	r0	
    1ec2:	66 70       	subc.b	@r0,	r6	
    1ec4:	61 64       	addc.b	@r4,	r1	
    1ec6:	64 5f       	add.b	@r15,	r4	
    1ec8:	70 61       	addc.b	@r1+,	r0	
    1eca:	72 74       	subc.b	@r4+,	r2	
    1ecc:	73 3a       	jl	$-792    	;abs 0x1bb4
    1ece:	66 28       	jnc	$+206    	;abs 0x1f9c
    1ed0:	31 2c       	jc	$+100    	;abs 0x1f34
    1ed2:	31 29       	jnc	$+612    	;abs 0x2136
    1ed4:	3d 2a       	jnc	$-900    	;abs 0x1b50
    1ed6:	28 38       	jl	$+82     	;abs 0x1f28
    1ed8:	2c 31       	jn	$+602    	;abs 0x2132
    1eda:	35 29       	jnc	$+620    	;abs 0x2146
    1edc:	00 61       	addc	r1,	r0	
    1ede:	3a 50 28 31 	add	#12584,	r10	;#0x3128
    1ee2:	2c 31       	jn	$+602    	;abs 0x213c
    1ee4:	29 00       	.word	0x0029;	????	
    1ee6:	62 3a       	jl	$-826    	;abs 0x1bac
    1ee8:	50 28       	jnc	$+162    	;abs 0x1f8a
    1eea:	31 2c       	jc	$+100    	;abs 0x1f4e
    1eec:	31 29       	jnc	$+612    	;abs 0x2150
    1eee:	00 74       	subc	r4,	r0	
    1ef0:	6d 70       	subc.b	@r0,	r13	
    1ef2:	3a 50 28 31 	add	#12584,	r10	;#0x3128
    1ef6:	2c 31       	jn	$+602    	;abs 0x2150
    1ef8:	29 00       	.word	0x0029;	????	
    1efa:	74 66       	addc.b	@r6+,	r4	
    1efc:	72 61       	addc.b	@r1+,	r2	
    1efe:	63 74       	.word	0x7463;	????	Illegal as 2-op instr
    1f00:	69 6f       	addc.b	@r15,	r9	
    1f02:	6e 3a       	jl	$-802    	;abs 0x1be0
    1f04:	72 28       	jnc	$+230    	;abs 0x1fea
    1f06:	38 2c       	jc	$+114    	;abs 0x1f78
    1f08:	31 32       	jn	$-924    	;abs 0x1b6c
    1f0a:	29 00       	.word	0x0029;	????	
    1f0c:	61 5f       	add.b	@r15,	r1	
    1f0e:	6e 6f       	addc.b	@r15,	r14	
    1f10:	72 6d       	addc.b	@r13+,	r2	
    1f12:	61 6c       	addc.b	@r12,	r1	
    1f14:	5f 65 78 70 	addc.b	28792(r5),r15	;0x7078(r5)
    1f18:	3a 72       	subc	#8,	r10	;r2 As==11
    1f1a:	28 30       	jn	$+82     	;abs 0x1f6c
    1f1c:	2c 31       	jn	$+602    	;abs 0x2176
    1f1e:	29 00       	.word	0x0029;	????	
    1f20:	62 5f       	add.b	@r15,	r2	
    1f22:	6e 6f       	addc.b	@r15,	r14	
    1f24:	72 6d       	addc.b	@r13+,	r2	
    1f26:	61 6c       	addc.b	@r12,	r1	
    1f28:	5f 65 78 70 	addc.b	28792(r5),r15	;0x7078(r5)
    1f2c:	3a 72       	subc	#8,	r10	;r2 As==11
    1f2e:	28 30       	jn	$+82     	;abs 0x1f80
    1f30:	2c 31       	jn	$+602    	;abs 0x218a
    1f32:	29 00       	.word	0x0029;	????	
    1f34:	61 5f       	add.b	@r15,	r1	
    1f36:	66 72       	subc.b	#4,	r6	;r2 As==10
    1f38:	61 63       	addc.b	#2,	r1	;r3 As==10
    1f3a:	74 69       	addc.b	@r9+,	r4	
    1f3c:	6f 6e       	addc.b	@r14,	r15	
    1f3e:	3a 72       	subc	#8,	r10	;r2 As==11
    1f40:	28 38       	jl	$+82     	;abs 0x1f92
    1f42:	2c 39       	jl	$+602    	;abs 0x219c
    1f44:	29 00       	.word	0x0029;	????	
    1f46:	62 5f       	add.b	@r15,	r2	
    1f48:	66 72       	subc.b	#4,	r6	;r2 As==10
    1f4a:	61 63       	addc.b	#2,	r1	;r3 As==10
    1f4c:	74 69       	addc.b	@r9+,	r4	
    1f4e:	6f 6e       	addc.b	@r14,	r15	
    1f50:	3a 72       	subc	#8,	r10	;r2 As==11
    1f52:	28 38       	jl	$+82     	;abs 0x1fa4
    1f54:	2c 39       	jl	$+602    	;abs 0x21ae
    1f56:	29 00       	.word	0x0029;	????	
    1f58:	64 69       	addc.b	@r9,	r4	
    1f5a:	66 66       	addc.b	@r6,	r6	
    1f5c:	3a 72       	subc	#8,	r10	;r2 As==11
    1f5e:	28 30       	jn	$+82     	;abs 0x1fb0
    1f60:	2c 31       	jn	$+602    	;abs 0x21ba
    1f62:	29 00       	.word	0x0029;	????	
    1f64:	5f 5f 61 64 	add.b	25697(r15),r15	;0x6461(r15)
    1f68:	64 73       	subc.b	#2,	r4	;r3 As==10
    1f6a:	66 33       	jn	$-306    	;abs 0x1e38
    1f6c:	3a 46       	mov	@r6+,	r10	
    1f6e:	28 38       	jl	$+82     	;abs 0x1fc0
    1f70:	2c 31       	jn	$+602    	;abs 0x21ca
    1f72:	31 29       	jnc	$+612    	;abs 0x21d6
    1f74:	00 61       	addc	r1,	r0	
    1f76:	72 67       	addc.b	@r7+,	r2	
    1f78:	5f 61 3a 50 	addc.b	20538(r1),r15	;0x503a(r1)
    1f7c:	28 38       	jl	$+82     	;abs 0x1fce
    1f7e:	2c 31       	jn	$+602    	;abs 0x21d8
    1f80:	31 29       	jnc	$+612    	;abs 0x21e4
    1f82:	00 61       	addc	r1,	r0	
    1f84:	72 67       	addc.b	@r7+,	r2	
    1f86:	5f 62 3a 50 	addc.b	&0x503a,r15	
    1f8a:	28 38       	jl	$+82     	;abs 0x1fdc
    1f8c:	2c 31       	jn	$+602    	;abs 0x21e6
    1f8e:	31 29       	jnc	$+612    	;abs 0x21f2
    1f90:	00 61       	addc	r1,	r0	
    1f92:	3a 28       	jnc	$+118    	;abs 0x2008
    1f94:	38 2c       	jc	$+114    	;abs 0x2006
    1f96:	31 35       	jge	$+612    	;abs 0x21fa
    1f98:	29 00       	.word	0x0029;	????	
    1f9a:	62 3a       	jl	$-826    	;abs 0x1c60
    1f9c:	28 38       	jl	$+82     	;abs 0x1fee
    1f9e:	2c 31       	jn	$+602    	;abs 0x21f8
    1fa0:	35 29       	jnc	$+620    	;abs 0x220c
    1fa2:	00 74       	subc	r4,	r0	
    1fa4:	6d 70       	subc.b	@r0,	r13	
    1fa6:	3a 28       	jnc	$+118    	;abs 0x201c
    1fa8:	38 2c       	jc	$+114    	;abs 0x201a
    1faa:	31 35       	jge	$+612    	;abs 0x220e
    1fac:	29 00       	.word	0x0029;	????	
    1fae:	72 65       	addc.b	@r5+,	r2	
    1fb0:	73 3a       	jl	$-792    	;abs 0x1c98
    1fb2:	72 28       	jnc	$+230    	;abs 0x2098
    1fb4:	31 2c       	jc	$+100    	;abs 0x2018
    1fb6:	31 29       	jnc	$+612    	;abs 0x221a
    1fb8:	00 61       	addc	r1,	r0	
    1fba:	75 3a       	jl	$-788    	;abs 0x1ca6
    1fbc:	28 38       	jl	$+82     	;abs 0x200e
    1fbe:	2c 32       	jn	$-934    	;abs 0x1c18
    1fc0:	30 29       	jnc	$+610    	;abs 0x2222
    1fc2:	00 62       	addc	r2,	r0	
    1fc4:	75 3a       	jl	$-788    	;abs 0x1cb0
    1fc6:	28 38       	jl	$+82     	;abs 0x2018
    1fc8:	2c 32       	jn	$-934    	;abs 0x1c22
    1fca:	30 29       	jnc	$+610    	;abs 0x222c
    1fcc:	00 5f       	add	r15,	r0	
    1fce:	5f 73       	subc.b	#1,	r15	;r3 As==01
    1fd0:	75 62       	addc.b	#8,	r5	;r2 As==11
    1fd2:	73 66       	.word	0x6673;	????	Illegal as 2-op instr
    1fd4:	33 3a       	jl	$-920    	;abs 0x1c3c
    1fd6:	46 28       	jnc	$+142    	;abs 0x2064
    1fd8:	38 2c       	jc	$+114    	;abs 0x204a
    1fda:	31 31       	jn	$+612    	;abs 0x223e
    1fdc:	29 00       	.word	0x0029;	????	
    1fde:	5f 5f 66 6c 	add.b	27750(r15),r15	;0x6c66(r15)
    1fe2:	6f 61       	addc.b	@r1,	r15	
    1fe4:	74 73       	subc.b	#-1,	r4	;r3 As==11
    1fe6:	69 73       	subc.b	#2,	r9	;r3 As==10
    1fe8:	66 3a       	jl	$-818    	;abs 0x1cb6
    1fea:	46 28       	jnc	$+142    	;abs 0x2078
    1fec:	38 2c       	jc	$+114    	;abs 0x205e
    1fee:	31 31       	jn	$+612    	;abs 0x2252
    1ff0:	29 00       	.word	0x0029;	????	
    1ff2:	61 72       	subc.b	#4,	r1	;r2 As==10
    1ff4:	67 5f       	add.b	@r15,	r7	
    1ff6:	61 3a       	jl	$-828    	;abs 0x1cba
    1ff8:	50 28       	jnc	$+162    	;abs 0x209a
    1ffa:	38 2c       	jc	$+114    	;abs 0x206c
    1ffc:	34 29       	jnc	$+618    	;abs 0x2266
    1ffe:	00 69       	addc	r9,	r0	
    2000:	6e 3a       	jl	$-802    	;abs 0x1cde
    2002:	28 38       	jl	$+82     	;abs 0x2054
    2004:	2c 31       	jn	$+602    	;abs 0x225e
    2006:	35 29       	jnc	$+620    	;abs 0x2272
    2008:	00 5f       	add	r15,	r0	
    200a:	5f 74 68 65 	subc.b	25960(r4),r15	;0x6568(r4)
    200e:	6e 61       	addc.b	@r1,	r14	
    2010:	6e 5f       	add.b	@r15,	r14	
    2012:	73 66       	.word	0x6673;	????	Illegal as 2-op instr
    2014:	3a 47       	mov	@r7+,	r10	
    2016:	28 31       	jn	$+594    	;abs 0x2268
    2018:	2c 31       	jn	$+602    	;abs 0x2272
    201a:	29 3d       	jmp	$+596    	;abs 0x226e
    201c:	6b 28       	jnc	$+216    	;abs 0x20f4
    201e:	38 2c       	jc	$+114    	;abs 0x2090
    2020:	31 35       	jge	$+612    	;abs 0x2284
    2022:	29 00       	.word	0x0029;	????	
    2024:	5f 5f 70 61 	add.b	24944(r15),r15	;0x6170(r15)
    2028:	63 6b       	.word	0x6b63;	????	Illegal as 2-op instr
    202a:	5f 66 3a 46 	addc.b	17978(r6),r15	;0x463a(r6)
    202e:	28 38       	jl	$+82     	;abs 0x2080
    2030:	2c 31       	jn	$+602    	;abs 0x228a
    2032:	31 29       	jnc	$+612    	;abs 0x2296
    2034:	00 73       	sbc	r0		
    2036:	72 63       	addc.b	#-1,	r2	;r3 As==11
    2038:	3a 50 28 31 	add	#12584,	r10	;#0x3128
    203c:	2c 31       	jn	$+602    	;abs 0x2296
    203e:	29 3d       	jmp	$+596    	;abs 0x2292
    2040:	2a 28       	jnc	$+86     	;abs 0x2096
    2042:	38 2c       	jc	$+114    	;abs 0x20b4
    2044:	31 35       	jge	$+612    	;abs 0x22a8
    2046:	29 00       	.word	0x0029;	????	
    2048:	64 73       	subc.b	#2,	r4	;r3 As==10
    204a:	74 3a       	jl	$-790    	;abs 0x1d34
    204c:	28 38       	jl	$+82     	;abs 0x209e
    204e:	2c 32       	jn	$-934    	;abs 0x1ca8
    2050:	30 29       	jnc	$+610    	;abs 0x22b2
    2052:	00 66       	addc	r6,	r0	
    2054:	72 61       	addc.b	@r1+,	r2	
    2056:	63 74       	.word	0x7463;	????	Illegal as 2-op instr
    2058:	69 6f       	addc.b	@r15,	r9	
    205a:	6e 3a       	jl	$-802    	;abs 0x1d38
    205c:	72 28       	jnc	$+230    	;abs 0x2142
    205e:	38 2c       	jc	$+114    	;abs 0x20d0
    2060:	39 29       	jnc	$+628    	;abs 0x22d4
    2062:	00 73       	sbc	r0		
    2064:	69 67       	addc.b	@r7,	r9	
    2066:	6e 3a       	jl	$-802    	;abs 0x1d44
    2068:	72 28       	jnc	$+230    	;abs 0x214e
    206a:	30 2c       	jc	$+98     	;abs 0x20cc
    206c:	31 29       	jnc	$+612    	;abs 0x22d0
    206e:	00 65       	addc	r5,	r0	
    2070:	78 70 3a 72 	subc.b	#29242,	r8	;#0x723a
    2074:	28 30       	jn	$+82     	;abs 0x20c6
    2076:	2c 31       	jn	$+602    	;abs 0x22d0
    2078:	29 00       	.word	0x0029;	????	
    207a:	73 68       	.word	0x6873;	????	Illegal as 2-op instr
    207c:	69 66       	addc.b	@r6,	r9	
    207e:	74 3a       	jl	$-790    	;abs 0x1d68
    2080:	72 28       	jnc	$+230    	;abs 0x2166
    2082:	30 2c       	jc	$+98     	;abs 0x20e4
    2084:	31 29       	jnc	$+612    	;abs 0x22e8
    2086:	00 6c       	addc	r12,	r0	
    2088:	6f 77       	subc.b	@r7,	r15	
    208a:	62 69       	addc.b	@r9,	r2	
    208c:	74 3a       	jl	$-790    	;abs 0x1d76
    208e:	72 28       	jnc	$+230    	;abs 0x2174
    2090:	30 2c       	jc	$+98     	;abs 0x20f2
    2092:	31 29       	jnc	$+612    	;abs 0x22f6
    2094:	00 5f       	add	r15,	r0	
    2096:	5f 75 6e 70 	subc.b	28782(r5),r15	;0x706e(r5)
    209a:	61 63       	addc.b	#2,	r1	;r3 As==10
    209c:	6b 5f       	add.b	@r15,	r11	
    209e:	66 3a       	jl	$-818    	;abs 0x1d6c
    20a0:	46 28       	jnc	$+142    	;abs 0x212e
    20a2:	30 2c       	jc	$+98     	;abs 0x2104
    20a4:	32 30       	jn	$+102    	;abs 0x210a
    20a6:	29 00       	.word	0x0029;	????	
    20a8:	73 72       	.word	0x7273;	????	Illegal as 2-op instr
    20aa:	63 3a       	jl	$-824    	;abs 0x1d72
    20ac:	50 28       	jnc	$+162    	;abs 0x214e
    20ae:	31 2c       	jc	$+100    	;abs 0x2112
    20b0:	31 29       	jnc	$+612    	;abs 0x2314
    20b2:	3d 2a       	jnc	$-900    	;abs 0x1d2e
    20b4:	28 38       	jl	$+82     	;abs 0x2106
    20b6:	2c 32       	jn	$-934    	;abs 0x1d10
    20b8:	30 29       	jnc	$+610    	;abs 0x231a
    20ba:	00 64       	addc	r4,	r0	
    20bc:	73 74       	.word	0x7473;	????	Illegal as 2-op instr
    20be:	3a 50 28 31 	add	#12584,	r10	;#0x3128
    20c2:	2c 32       	jn	$-934    	;abs 0x1d1c
    20c4:	29 3d       	jmp	$+596    	;abs 0x2318
    20c6:	2a 28       	jnc	$+86     	;abs 0x211c
    20c8:	38 2c       	jc	$+114    	;abs 0x213a
    20ca:	31 35       	jge	$+612    	;abs 0x232e
    20cc:	29 00       	.word	0x0029;	????	
